
main.elf:     file format elf32-avr

Sections:
Idx Name          Size      VMA       LMA       File off  Algn
  0 .data         00000014  00800100  0000329a  0000332e  2**0
                  CONTENTS, ALLOC, LOAD, DATA
  1 .text         0000329a  00000000  00000000  00000094  2**1
                  CONTENTS, ALLOC, LOAD, READONLY, CODE
  2 .bss          0000009d  00800114  00800114  00003342  2**0
                  ALLOC
  3 .debug_aranges 00000060  00000000  00000000  00003342  2**0
                  CONTENTS, READONLY, DEBUGGING
  4 .debug_pubnames 000018aa  00000000  00000000  000033a2  2**0
                  CONTENTS, READONLY, DEBUGGING
  5 .debug_info   00004896  00000000  00000000  00004c4c  2**0
                  CONTENTS, READONLY, DEBUGGING
  6 .debug_abbrev 000005bb  00000000  00000000  000094e2  2**0
                  CONTENTS, READONLY, DEBUGGING
  7 .debug_line   0000236d  00000000  00000000  00009a9d  2**0
                  CONTENTS, READONLY, DEBUGGING
  8 .debug_frame  00000ae0  00000000  00000000  0000be0c  2**2
                  CONTENTS, READONLY, DEBUGGING
  9 .debug_str    00001aad  00000000  00000000  0000c8ec  2**0
                  CONTENTS, READONLY, DEBUGGING
 10 .debug_loc    00001c18  00000000  00000000  0000e399  2**0
                  CONTENTS, READONLY, DEBUGGING
 11 .debug_ranges 00000048  00000000  00000000  0000ffb1  2**0
                  CONTENTS, READONLY, DEBUGGING

Disassembly of section .text:

00000000 <__vectors>:
       0:	0c 94 34 00 	jmp	0x68	; 0x68 <__ctors_end>
       4:	0c 94 51 00 	jmp	0xa2	; 0xa2 <__bad_interrupt>
       8:	0c 94 51 00 	jmp	0xa2	; 0xa2 <__bad_interrupt>
       c:	0c 94 51 00 	jmp	0xa2	; 0xa2 <__bad_interrupt>
      10:	0c 94 51 00 	jmp	0xa2	; 0xa2 <__bad_interrupt>
      14:	0c 94 51 00 	jmp	0xa2	; 0xa2 <__bad_interrupt>
      18:	0c 94 51 00 	jmp	0xa2	; 0xa2 <__bad_interrupt>
      1c:	0c 94 51 00 	jmp	0xa2	; 0xa2 <__bad_interrupt>
      20:	0c 94 51 00 	jmp	0xa2	; 0xa2 <__bad_interrupt>
      24:	0c 94 51 00 	jmp	0xa2	; 0xa2 <__bad_interrupt>
      28:	0c 94 51 00 	jmp	0xa2	; 0xa2 <__bad_interrupt>
      2c:	0c 94 51 00 	jmp	0xa2	; 0xa2 <__bad_interrupt>
      30:	0c 94 51 00 	jmp	0xa2	; 0xa2 <__bad_interrupt>
      34:	0c 94 51 00 	jmp	0xa2	; 0xa2 <__bad_interrupt>
      38:	0c 94 51 00 	jmp	0xa2	; 0xa2 <__bad_interrupt>
      3c:	0c 94 51 00 	jmp	0xa2	; 0xa2 <__bad_interrupt>
      40:	0c 94 c5 18 	jmp	0x318a	; 0x318a <__vector_16>
      44:	0c 94 51 00 	jmp	0xa2	; 0xa2 <__bad_interrupt>
      48:	0c 94 d4 02 	jmp	0x5a8	; 0x5a8 <__vector_18>
      4c:	0c 94 51 00 	jmp	0xa2	; 0xa2 <__bad_interrupt>
      50:	0c 94 51 00 	jmp	0xa2	; 0xa2 <__bad_interrupt>
      54:	0c 94 51 00 	jmp	0xa2	; 0xa2 <__bad_interrupt>
      58:	0c 94 51 00 	jmp	0xa2	; 0xa2 <__bad_interrupt>
      5c:	0c 94 51 00 	jmp	0xa2	; 0xa2 <__bad_interrupt>
      60:	0c 94 51 00 	jmp	0xa2	; 0xa2 <__bad_interrupt>
      64:	0c 94 51 00 	jmp	0xa2	; 0xa2 <__bad_interrupt>

00000068 <__ctors_end>:
      68:	11 24       	eor	r1, r1
      6a:	1f be       	out	0x3f, r1	; 63
      6c:	cf ef       	ldi	r28, 0xFF	; 255
      6e:	d8 e0       	ldi	r29, 0x08	; 8
      70:	de bf       	out	0x3e, r29	; 62
      72:	cd bf       	out	0x3d, r28	; 61

00000074 <__do_copy_data>:
      74:	11 e0       	ldi	r17, 0x01	; 1
      76:	a0 e0       	ldi	r26, 0x00	; 0
      78:	b1 e0       	ldi	r27, 0x01	; 1
      7a:	ea e9       	ldi	r30, 0x9A	; 154
      7c:	f2 e3       	ldi	r31, 0x32	; 50
      7e:	02 c0       	rjmp	.+4      	; 0x84 <.do_copy_data_start>

00000080 <.do_copy_data_loop>:
      80:	05 90       	lpm	r0, Z+
      82:	0d 92       	st	X+, r0

00000084 <.do_copy_data_start>:
      84:	a4 31       	cpi	r26, 0x14	; 20
      86:	b1 07       	cpc	r27, r17
      88:	d9 f7       	brne	.-10     	; 0x80 <.do_copy_data_loop>

0000008a <__do_clear_bss>:
      8a:	11 e0       	ldi	r17, 0x01	; 1
      8c:	a4 e1       	ldi	r26, 0x14	; 20
      8e:	b1 e0       	ldi	r27, 0x01	; 1
      90:	01 c0       	rjmp	.+2      	; 0x94 <.do_clear_bss_start>

00000092 <.do_clear_bss_loop>:
      92:	1d 92       	st	X+, r1

00000094 <.do_clear_bss_start>:
      94:	a1 3b       	cpi	r26, 0xB1	; 177
      96:	b1 07       	cpc	r27, r17
      98:	e1 f7       	brne	.-8      	; 0x92 <.do_clear_bss_loop>
      9a:	0e 94 53 00 	call	0xa6	; 0xa6 <main>
      9e:	0c 94 4b 19 	jmp	0x3296	; 0x3296 <_exit>

000000a2 <__bad_interrupt>:
      a2:	0c 94 00 00 	jmp	0	; 0x0 <__vectors>

000000a6 <main>:

int main(void){
  
  
  
  UART_Init(57600);
      a6:	60 e0       	ldi	r22, 0x00	; 0
      a8:	71 ee       	ldi	r23, 0xE1	; 225
      aa:	80 e0       	ldi	r24, 0x00	; 0
      ac:	90 e0       	ldi	r25, 0x00	; 0
      ae:	0e 94 f8 02 	call	0x5f0	; 0x5f0 <UART_Init>
  Timebase_Init(1000);
      b2:	88 ee       	ldi	r24, 0xE8	; 232
      b4:	93 e0       	ldi	r25, 0x03	; 3
      b6:	0e 94 40 18 	call	0x3080	; 0x3080 <Timebase_Init>
  
  //For test, also added inside ISR
  DDRD  |=  (1<<5)|(1<<6);
      ba:	8a b1       	in	r24, 0x0a	; 10
      bc:	80 66       	ori	r24, 0x60	; 96
      be:	8a b9       	out	0x0a, r24	; 10
  PORTD &=~ ((1<<5)|(1<<6));
      c0:	8b b1       	in	r24, 0x0b	; 11
      c2:	8f 79       	andi	r24, 0x9F	; 159
      c4:	8b b9       	out	0x0b, r24	; 11
      c6:	88 e8       	ldi	r24, 0x88	; 136
      c8:	93 e1       	ldi	r25, 0x13	; 19
    milliseconds can be achieved.
 */
void
_delay_loop_2(uint16_t __count)
{
	__asm__ volatile (
      ca:	2c e2       	ldi	r18, 0x2C	; 44
      cc:	31 e0       	ldi	r19, 0x01	; 1
      ce:	f9 01       	movw	r30, r18
      d0:	31 97       	sbiw	r30, 0x01	; 1
      d2:	f1 f7       	brne	.-4      	; 0xd0 <main+0x2a>
		__ticks = (uint16_t) (__ms * 10.0);
		while(__ticks)
		{
			// wait 1/10 ms
			_delay_loop_2(((F_CPU) / 4e3) / 10);
			__ticks --;
      d4:	01 97       	sbiw	r24, 0x01	; 1
		__ticks = 1;
	else if (__tmp > 65535)
	{
		//	__ticks = requested delay in 1/10 ms
		__ticks = (uint16_t) (__ms * 10.0);
		while(__ticks)
      d6:	d9 f7       	brne	.-10     	; 0xce <main+0x28>
  _delay_ms(500);
  Timebase_UpCounter_SS_Set_Securely(0, 20000);
      d8:	80 e0       	ldi	r24, 0x00	; 0
      da:	40 e2       	ldi	r20, 0x20	; 32
      dc:	5e e4       	ldi	r21, 0x4E	; 78
      de:	60 e0       	ldi	r22, 0x00	; 0
      e0:	70 e0       	ldi	r23, 0x00	; 0
      e2:	0e 94 ab 08 	call	0x1156	; 0x1156 <Timebase_UpCounter_SS_Set_Securely>
  Timebase_UpCounter_Set_Securely(0, 18);
      e6:	80 e0       	ldi	r24, 0x00	; 0
      e8:	42 e1       	ldi	r20, 0x12	; 18
      ea:	50 e0       	ldi	r21, 0x00	; 0
      ec:	60 e0       	ldi	r22, 0x00	; 0
      ee:	70 e0       	ldi	r23, 0x00	; 0
      f0:	0e 94 07 0e 	call	0x1c0e	; 0x1c0e <Timebase_UpCounter_Set_Securely>
  Timebase_DownCounter_SS_Set_Securely(0, 16000);
      f4:	80 e0       	ldi	r24, 0x00	; 0
      f6:	40 e8       	ldi	r20, 0x80	; 128
      f8:	5e e3       	ldi	r21, 0x3E	; 62
      fa:	60 e0       	ldi	r22, 0x00	; 0
      fc:	70 e0       	ldi	r23, 0x00	; 0
      fe:	0e 94 c8 11 	call	0x2390	; 0x2390 <Timebase_DownCounter_SS_Set_Securely>
  Timebase_DownCounter_Set_Securely(0, 14);
     102:	80 e0       	ldi	r24, 0x00	; 0
     104:	4e e0       	ldi	r20, 0x0E	; 14
     106:	50 e0       	ldi	r21, 0x00	; 0
     108:	60 e0       	ldi	r22, 0x00	; 0
     10a:	70 e0       	ldi	r23, 0x00	; 0
     10c:	0e 94 41 16 	call	0x2c82	; 0x2c82 <Timebase_DownCounter_Set_Securely>
  
  while(1){
    
	Timebase_Timer_Await_SubSeconds(50);
     110:	82 e3       	ldi	r24, 0x32	; 50
     112:	90 e0       	ldi	r25, 0x00	; 0
     114:	0e 94 a4 05 	call	0xb48	; 0xb48 <Timebase_Timer_Await_SubSeconds>
	
	UART_Transmit_Number(Timebase_UpCounter_SS_Get_Value(0));
     118:	80 e0       	ldi	r24, 0x00	; 0
     11a:	0e 94 bd 06 	call	0xd7a	; 0xd7a <Timebase_UpCounter_SS_Get_Value>
     11e:	0e 94 65 02 	call	0x4ca	; 0x4ca <UART_Transmit_Number>
	UART_Transmit_Text(",");
     122:	80 e0       	ldi	r24, 0x00	; 0
     124:	91 e0       	ldi	r25, 0x01	; 1
     126:	0e 94 f6 01 	call	0x3ec	; 0x3ec <UART_Transmit_Text>
	UART_Transmit_Number(Timebase_UpCounter_Get_Value(0));
     12a:	80 e0       	ldi	r24, 0x00	; 0
     12c:	0e 94 23 0c 	call	0x1846	; 0x1846 <Timebase_UpCounter_Get_Value>
     130:	0e 94 65 02 	call	0x4ca	; 0x4ca <UART_Transmit_Number>
	UART_Transmit_Text(",");
     134:	80 e0       	ldi	r24, 0x00	; 0
     136:	91 e0       	ldi	r25, 0x01	; 1
     138:	0e 94 f6 01 	call	0x3ec	; 0x3ec <UART_Transmit_Text>
	UART_Transmit_Number(Timebase_DownCounter_SS_Get_Value(0));
     13c:	80 e0       	ldi	r24, 0x00	; 0
     13e:	0e 94 4a 10 	call	0x2094	; 0x2094 <Timebase_DownCounter_SS_Get_Value>
     142:	0e 94 65 02 	call	0x4ca	; 0x4ca <UART_Transmit_Number>
	UART_Transmit_Text(",");
     146:	80 e0       	ldi	r24, 0x00	; 0
     148:	91 e0       	ldi	r25, 0x01	; 1
     14a:	0e 94 f6 01 	call	0x3ec	; 0x3ec <UART_Transmit_Text>
	UART_Transmit_Number(Timebase_DownCounter_Get_Value(0));
     14e:	80 e0       	ldi	r24, 0x00	; 0
     150:	0e 94 dd 14 	call	0x29ba	; 0x29ba <Timebase_DownCounter_Get_Value>
     154:	0e 94 65 02 	call	0x4ca	; 0x4ca <UART_Transmit_Number>
	UART_Transmit_Text("\r\n");
     158:	82 e0       	ldi	r24, 0x02	; 2
     15a:	91 e0       	ldi	r25, 0x01	; 1
     15c:	0e 94 f6 01 	call	0x3ec	; 0x3ec <UART_Transmit_Text>
	//UART_Transmit_Number(Timebase_DownCounter_SS_Get_Value(0));
	//UART_Transmit_New_Line();
	//Timebase_Timer_Delay_SubSeconds(100);
	
	//Add update req flag
	PORTD |= (1<<6);
     160:	5e 9a       	sbi	0x0b, 6	; 11
	Timebase_Main_Loop_Executables();
     162:	0e 94 4d 18 	call	0x309a	; 0x309a <Timebase_Main_Loop_Executables>
	PORTD &=~(1<<6);
     166:	5e 98       	cbi	0x0b, 6	; 11
     168:	d3 cf       	rjmp	.-90     	; 0x110 <main+0x6a>

0000016a <UART_Struct_Init>:




void UART_Struct_Init(void){
  UART.Error=0;
     16a:	10 92 14 01 	sts	0x0114, r1
     16e:	e5 e1       	ldi	r30, 0x15	; 21
     170:	f1 e0       	ldi	r31, 0x01	; 1
  for(uint8_t i=0;i<8;i++){
    UART.Digits[i]=0;
     172:	11 92       	st	Z+, r1



void UART_Struct_Init(void){
  UART.Error=0;
  for(uint8_t i=0;i<8;i++){
     174:	81 e0       	ldi	r24, 0x01	; 1
     176:	ed 31       	cpi	r30, 0x1D	; 29
     178:	f8 07       	cpc	r31, r24
     17a:	d9 f7       	brne	.-10     	; 0x172 <UART_Struct_Init+0x8>
    UART.Digits[i]=0;
  }
  UART.InputNumberDigits=0;
     17c:	10 82       	st	Z, r1
    
  #ifdef UART_ENABLE_RX_INT
  UART.LastByteReceived=0;
     17e:	11 82       	std	Z+1, r1	; 0x01
  UART.BufferSize=UART_BUFFER_SIZE;
     180:	80 e2       	ldi	r24, 0x20	; 32
     182:	90 e0       	ldi	r25, 0x00	; 0
     184:	93 a3       	std	Z+35, r25	; 0x23
     186:	82 a3       	std	Z+34, r24	; 0x22
  UART.BufferIndex=0;
     188:	15 a2       	std	Z+37, r1	; 0x25
     18a:	14 a2       	std	Z+36, r1	; 0x24
     18c:	20 e0       	ldi	r18, 0x00	; 0
     18e:	04 c0       	rjmp	.+8      	; 0x198 <UART_Struct_Init+0x2e>
  for(uint8_t i=0;i<UART.BufferSize;i++){
    UART.Buffer[i]=0;
     190:	ec 5e       	subi	r30, 0xEC	; 236
     192:	fe 4f       	sbci	r31, 0xFE	; 254
     194:	13 86       	std	Z+11, r1	; 0x0b
    
  #ifdef UART_ENABLE_RX_INT
  UART.LastByteReceived=0;
  UART.BufferSize=UART_BUFFER_SIZE;
  UART.BufferIndex=0;
  for(uint8_t i=0;i<UART.BufferSize;i++){
     196:	2f 5f       	subi	r18, 0xFF	; 255
     198:	80 91 3f 01 	lds	r24, 0x013F
     19c:	90 91 40 01 	lds	r25, 0x0140
     1a0:	e2 2f       	mov	r30, r18
     1a2:	f0 e0       	ldi	r31, 0x00	; 0
     1a4:	e8 17       	cp	r30, r24
     1a6:	f9 07       	cpc	r31, r25
     1a8:	98 f3       	brcs	.-26     	; 0x190 <UART_Struct_Init+0x26>
    UART.Buffer[i]=0;
  }
  #endif
  
}
     1aa:	08 95       	ret

000001ac <UART_Config_GPIO>:


void UART_Config_GPIO(void){
	
}
     1ac:	08 95       	ret

000001ae <UART_Config_Clock>:

void UART_Config_Clock(void){
  
}
     1ae:	08 95       	ret

000001b0 <UART_Config_BAUD_Rate>:

void UART_Config_BAUD_Rate(uint32_t baud_rate){
     1b0:	9b 01       	movw	r18, r22
     1b2:	ac 01       	movw	r20, r24
  #ifdef UART_DOUBLE_SPEED
  uint32_t UBRR_VAL = ((F_CPU/8)/baud_rate)-1 ;
     1b4:	60 e6       	ldi	r22, 0x60	; 96
     1b6:	73 ee       	ldi	r23, 0xE3	; 227
     1b8:	86 e1       	ldi	r24, 0x16	; 22
     1ba:	90 e0       	ldi	r25, 0x00	; 0
     1bc:	0e 94 0e 19 	call	0x321c	; 0x321c <__udivmodsi4>
     1c0:	21 50       	subi	r18, 0x01	; 1
     1c2:	30 40       	sbci	r19, 0x00	; 0
     1c4:	40 40       	sbci	r20, 0x00	; 0
     1c6:	50 40       	sbci	r21, 0x00	; 0
  UCSR0A|=(1<<U2X0);  
     1c8:	e0 ec       	ldi	r30, 0xC0	; 192
     1ca:	f0 e0       	ldi	r31, 0x00	; 0
     1cc:	80 81       	ld	r24, Z
     1ce:	82 60       	ori	r24, 0x02	; 2
     1d0:	80 83       	st	Z, r24
  #else
  UCSR0A&=~(1<<U2X0);  
  uint32_t UBRR_VAL = ((F_CPU/16)/baud_rate)-1 ;
  #endif
  UBRR0H = (UBRR_VAL >> 8) & 0xFF;
     1d2:	bb 27       	eor	r27, r27
     1d4:	a5 2f       	mov	r26, r21
     1d6:	94 2f       	mov	r25, r20
     1d8:	83 2f       	mov	r24, r19
     1da:	80 93 c5 00 	sts	0x00C5, r24
  UBRR0L = UBRR_VAL & 0xFF ;
     1de:	20 93 c4 00 	sts	0x00C4, r18
}
     1e2:	08 95       	ret

000001e4 <UART_Config_Transmitter>:


void UART_Config_Transmitter(void){
  UCSR0B|=(1<<TXEN0);
     1e4:	e1 ec       	ldi	r30, 0xC1	; 193
     1e6:	f0 e0       	ldi	r31, 0x00	; 0
     1e8:	80 81       	ld	r24, Z
     1ea:	88 60       	ori	r24, 0x08	; 8
     1ec:	80 83       	st	Z, r24
  UCSR0C=(1<<UCSZ00)| (1<<UCSZ01);
     1ee:	86 e0       	ldi	r24, 0x06	; 6
     1f0:	80 93 c2 00 	sts	0x00C2, r24
}
     1f4:	08 95       	ret

000001f6 <UART_Config_Receiver>:


void UART_Config_Receiver(void){
  UCSR0B|=(1<<RXEN0);
     1f6:	e1 ec       	ldi	r30, 0xC1	; 193
     1f8:	f0 e0       	ldi	r31, 0x00	; 0
     1fa:	80 81       	ld	r24, Z
     1fc:	80 61       	ori	r24, 0x10	; 16
     1fe:	80 83       	st	Z, r24
  UCSR0C=(1<<UCSZ00)| (1<<UCSZ01);
     200:	86 e0       	ldi	r24, 0x06	; 6
     202:	80 93 c2 00 	sts	0x00C2, r24
}
     206:	08 95       	ret

00000208 <UART_Config_Receiver_Interrupt>:

void UART_Config_Receiver_Interrupt(void){
  UCSR0B|=(1<<RXCIE0);
     208:	e1 ec       	ldi	r30, 0xC1	; 193
     20a:	f0 e0       	ldi	r31, 0x00	; 0
     20c:	80 81       	ld	r24, Z
     20e:	80 68       	ori	r24, 0x80	; 128
     210:	80 83       	st	Z, r24
  sei();
     212:	78 94       	sei
}
     214:	08 95       	ret

00000216 <UART_Transmit_Byte>:





void UART_Transmit_Byte(uint8_t val){
     216:	98 2f       	mov	r25, r24
  while(!(UCSR0A & (1<<UDRE0)));
     218:	80 91 c0 00 	lds	r24, 0x00C0
     21c:	85 ff       	sbrs	r24, 5
     21e:	fc cf       	rjmp	.-8      	; 0x218 <UART_Transmit_Byte+0x2>
  UDR0=val;
     220:	90 93 c6 00 	sts	0x00C6, r25
}
     224:	08 95       	ret

00000226 <UART_Receive_Byte>:

uint8_t UART_Receive_Byte(void){
     226:	df 93       	push	r29
     228:	cf 93       	push	r28
     22a:	0f 92       	push	r0
     22c:	cd b7       	in	r28, 0x3d	; 61
     22e:	de b7       	in	r29, 0x3e	; 62
  volatile uint8_t val=0;
     230:	19 82       	std	Y+1, r1	; 0x01
  if( UCSR0A & (1<<FE0) ){
     232:	80 91 c0 00 	lds	r24, 0x00C0
     236:	84 ff       	sbrs	r24, 4
     238:	05 c0       	rjmp	.+10     	; 0x244 <UART_Receive_Byte+0x1e>
    val=UDR0;
     23a:	80 91 c6 00 	lds	r24, 0x00C6
     23e:	89 83       	std	Y+1, r24	; 0x01
    UART.Error=0x01;
     240:	81 e0       	ldi	r24, 0x01	; 1
     242:	08 c0       	rjmp	.+16     	; 0x254 <UART_Receive_Byte+0x2e>
  }else if(UCSR0A & (1<<DOR0) ){
     244:	80 91 c0 00 	lds	r24, 0x00C0
     248:	83 ff       	sbrs	r24, 3
     24a:	07 c0       	rjmp	.+14     	; 0x25a <UART_Receive_Byte+0x34>
    val=UDR0;
     24c:	80 91 c6 00 	lds	r24, 0x00C6
     250:	89 83       	std	Y+1, r24	; 0x01
    UART.Error=0x02;
     252:	82 e0       	ldi	r24, 0x02	; 2
     254:	80 93 14 01 	sts	0x0114, r24
     258:	05 c0       	rjmp	.+10     	; 0x264 <UART_Receive_Byte+0x3e>
  }else{
    val=UDR0;
     25a:	80 91 c6 00 	lds	r24, 0x00C6
     25e:	89 83       	std	Y+1, r24	; 0x01
    UART.Error=0x00;
     260:	10 92 14 01 	sts	0x0114, r1
  }
  return val;
     264:	89 81       	ldd	r24, Y+1	; 0x01
}
     266:	0f 90       	pop	r0
     268:	cf 91       	pop	r28
     26a:	df 91       	pop	r29
     26c:	08 95       	ret

0000026e <UART_Last_Received_Byte>:

uint8_t UART_Last_Received_Byte(void){
  return UART.LastByteReceived;
     26e:	80 91 1e 01 	lds	r24, 0x011E
}
     272:	08 95       	ret

00000274 <UART_Reset_Last_Received_Byte>:

void UART_Reset_Last_Received_Byte(void){
  UART.LastByteReceived = 0;
     274:	10 92 1e 01 	sts	0x011E, r1
}
     278:	08 95       	ret

0000027a <UART_Transmit_Byte_Hex>:




void UART_Transmit_Byte_Hex(uint32_t val){
     27a:	1f 93       	push	r17
     27c:	cf 93       	push	r28
     27e:	df 93       	push	r29
     280:	ab 01       	movw	r20, r22
     282:	bc 01       	movw	r22, r24
  uint16_t hex_digit, index=0, loop_counter=0;
  if(val <= 0xFF){
     284:	4f 3f       	cpi	r20, 0xFF	; 255
     286:	51 05       	cpc	r21, r1
     288:	61 05       	cpc	r22, r1
     28a:	71 05       	cpc	r23, r1
     28c:	09 f0       	breq	.+2      	; 0x290 <UART_Transmit_Byte_Hex+0x16>
     28e:	28 f4       	brcc	.+10     	; 0x29a <UART_Transmit_Byte_Hex+0x20>
     290:	e8 e0       	ldi	r30, 0x08	; 8
     292:	f0 e0       	ldi	r31, 0x00	; 0
     294:	c2 e0       	ldi	r28, 0x02	; 2
     296:	d0 e0       	ldi	r29, 0x00	; 0
     298:	11 c0       	rjmp	.+34     	; 0x2bc <UART_Transmit_Byte_Hex+0x42>
    index=8;
    loop_counter=2;
  }else if(val <= 0xFFFF){
     29a:	40 30       	cpi	r20, 0x00	; 0
     29c:	80 e0       	ldi	r24, 0x00	; 0
     29e:	58 07       	cpc	r21, r24
     2a0:	81 e0       	ldi	r24, 0x01	; 1
     2a2:	68 07       	cpc	r22, r24
     2a4:	80 e0       	ldi	r24, 0x00	; 0
     2a6:	78 07       	cpc	r23, r24
     2a8:	28 f0       	brcs	.+10     	; 0x2b4 <UART_Transmit_Byte_Hex+0x3a>
     2aa:	e0 e2       	ldi	r30, 0x20	; 32
     2ac:	f0 e0       	ldi	r31, 0x00	; 0
     2ae:	c8 e0       	ldi	r28, 0x08	; 8
     2b0:	d0 e0       	ldi	r29, 0x00	; 0
     2b2:	04 c0       	rjmp	.+8      	; 0x2bc <UART_Transmit_Byte_Hex+0x42>
     2b4:	e0 e1       	ldi	r30, 0x10	; 16
     2b6:	f0 e0       	ldi	r31, 0x00	; 0
     2b8:	c4 e0       	ldi	r28, 0x04	; 4
     2ba:	d0 e0       	ldi	r29, 0x00	; 0




void UART_Transmit_Byte(uint8_t val){
  while(!(UCSR0A & (1<<UDRE0)));
     2bc:	80 91 c0 00 	lds	r24, 0x00C0
     2c0:	85 ff       	sbrs	r24, 5
     2c2:	fc cf       	rjmp	.-8      	; 0x2bc <UART_Transmit_Byte_Hex+0x42>
  UDR0=val;
     2c4:	80 e3       	ldi	r24, 0x30	; 48
     2c6:	80 93 c6 00 	sts	0x00C6, r24




void UART_Transmit_Byte(uint8_t val){
  while(!(UCSR0A & (1<<UDRE0)));
     2ca:	80 91 c0 00 	lds	r24, 0x00C0
     2ce:	85 ff       	sbrs	r24, 5
     2d0:	fc cf       	rjmp	.-8      	; 0x2ca <UART_Transmit_Byte_Hex+0x50>
  UDR0=val;
     2d2:	88 e7       	ldi	r24, 0x78	; 120
     2d4:	80 93 c6 00 	sts	0x00C6, r24
     2d8:	10 e0       	ldi	r17, 0x00	; 0
     2da:	1f c0       	rjmp	.+62     	; 0x31a <UART_Transmit_Byte_Hex+0xa0>
    loop_counter=8;
  }
  UART_Transmit_Byte('0');
  UART_Transmit_Byte('x');
	for(uint8_t i=0;i<loop_counter;i++){
	  index-=4;
     2dc:	34 97       	sbiw	r30, 0x04	; 4
	  hex_digit=(uint8_t)((val>>index) & 0x0F);
     2de:	db 01       	movw	r26, r22
     2e0:	ca 01       	movw	r24, r20
     2e2:	0e 2e       	mov	r0, r30
     2e4:	04 c0       	rjmp	.+8      	; 0x2ee <UART_Transmit_Byte_Hex+0x74>
     2e6:	b6 95       	lsr	r27
     2e8:	a7 95       	ror	r26
     2ea:	97 95       	ror	r25
     2ec:	87 95       	ror	r24
     2ee:	0a 94       	dec	r0
     2f0:	d2 f7       	brpl	.-12     	; 0x2e6 <UART_Transmit_Byte_Hex+0x6c>
     2f2:	90 e0       	ldi	r25, 0x00	; 0
     2f4:	8f 70       	andi	r24, 0x0F	; 15
     2f6:	90 70       	andi	r25, 0x00	; 0
	  if(hex_digit>9){
     2f8:	8a 30       	cpi	r24, 0x0A	; 10
     2fa:	91 05       	cpc	r25, r1
     2fc:	20 f0       	brcs	.+8      	; 0x306 <UART_Transmit_Byte_Hex+0x8c>
	    hex_digit+=55;
     2fe:	9c 01       	movw	r18, r24
     300:	29 5c       	subi	r18, 0xC9	; 201
     302:	3f 4f       	sbci	r19, 0xFF	; 255
     304:	03 c0       	rjmp	.+6      	; 0x30c <UART_Transmit_Byte_Hex+0x92>
	  }else {
	    hex_digit+=48;
     306:	9c 01       	movw	r18, r24
     308:	20 5d       	subi	r18, 0xD0	; 208
     30a:	3f 4f       	sbci	r19, 0xFF	; 255




void UART_Transmit_Byte(uint8_t val){
  while(!(UCSR0A & (1<<UDRE0)));
     30c:	80 91 c0 00 	lds	r24, 0x00C0
     310:	85 ff       	sbrs	r24, 5
     312:	fc cf       	rjmp	.-8      	; 0x30c <UART_Transmit_Byte_Hex+0x92>
  UDR0=val;
     314:	20 93 c6 00 	sts	0x00C6, r18
    index=32;
    loop_counter=8;
  }
  UART_Transmit_Byte('0');
  UART_Transmit_Byte('x');
	for(uint8_t i=0;i<loop_counter;i++){
     318:	1f 5f       	subi	r17, 0xFF	; 255
     31a:	81 2f       	mov	r24, r17
     31c:	90 e0       	ldi	r25, 0x00	; 0
     31e:	8c 17       	cp	r24, r28
     320:	9d 07       	cpc	r25, r29
     322:	e0 f2       	brcs	.-72     	; 0x2dc <UART_Transmit_Byte_Hex+0x62>
	  }else {
	    hex_digit+=48;
	  }
	  UART_Transmit_Byte((uint8_t)hex_digit);
	}
}
     324:	df 91       	pop	r29
     326:	cf 91       	pop	r28
     328:	1f 91       	pop	r17
     32a:	08 95       	ret

0000032c <UART_Transmit_Byte_Bin>:


void UART_Transmit_Byte_Bin(uint32_t val){
     32c:	cf 92       	push	r12
     32e:	df 92       	push	r13
     330:	ef 92       	push	r14
     332:	ff 92       	push	r15
     334:	0f 93       	push	r16
     336:	1f 93       	push	r17
     338:	cf 93       	push	r28
     33a:	df 93       	push	r29
     33c:	ab 01       	movw	r20, r22
     33e:	bc 01       	movw	r22, r24
  uint8_t loop_counter=0;
  if(val <= 0xFF){
     340:	4f 3f       	cpi	r20, 0xFF	; 255
     342:	51 05       	cpc	r21, r1
     344:	61 05       	cpc	r22, r1
     346:	71 05       	cpc	r23, r1
     348:	09 f0       	breq	.+2      	; 0x34c <UART_Transmit_Byte_Bin+0x20>
     34a:	10 f4       	brcc	.+4      	; 0x350 <UART_Transmit_Byte_Bin+0x24>
     34c:	97 e0       	ldi	r25, 0x07	; 7
     34e:	0b c0       	rjmp	.+22     	; 0x366 <UART_Transmit_Byte_Bin+0x3a>
    loop_counter=7;
  }else if(val <= 0xFFFF){
     350:	40 30       	cpi	r20, 0x00	; 0
     352:	80 e0       	ldi	r24, 0x00	; 0
     354:	58 07       	cpc	r21, r24
     356:	81 e0       	ldi	r24, 0x01	; 1
     358:	68 07       	cpc	r22, r24
     35a:	80 e0       	ldi	r24, 0x00	; 0
     35c:	78 07       	cpc	r23, r24
     35e:	10 f0       	brcs	.+4      	; 0x364 <UART_Transmit_Byte_Bin+0x38>
     360:	9f e1       	ldi	r25, 0x1F	; 31
     362:	01 c0       	rjmp	.+2      	; 0x366 <UART_Transmit_Byte_Bin+0x3a>
     364:	9f e0       	ldi	r25, 0x0F	; 15




void UART_Transmit_Byte(uint8_t val){
  while(!(UCSR0A & (1<<UDRE0)));
     366:	80 91 c0 00 	lds	r24, 0x00C0
     36a:	85 ff       	sbrs	r24, 5
     36c:	fc cf       	rjmp	.-8      	; 0x366 <UART_Transmit_Byte_Bin+0x3a>
  UDR0=val;
     36e:	80 e3       	ldi	r24, 0x30	; 48
     370:	80 93 c6 00 	sts	0x00C6, r24




void UART_Transmit_Byte(uint8_t val){
  while(!(UCSR0A & (1<<UDRE0)));
     374:	80 91 c0 00 	lds	r24, 0x00C0
     378:	85 ff       	sbrs	r24, 5
     37a:	fc cf       	rjmp	.-8      	; 0x374 <UART_Transmit_Byte_Bin+0x48>
  UDR0=val;
     37c:	82 e6       	ldi	r24, 0x62	; 98
     37e:	80 93 c6 00 	sts	0x00C6, r24
     382:	20 e0       	ldi	r18, 0x00	; 0
     384:	30 e0       	ldi	r19, 0x00	; 0
	  UART_Transmit_Byte((uint8_t)hex_digit);
	}
}


void UART_Transmit_Byte_Bin(uint32_t val){
     386:	e9 2f       	mov	r30, r25
     388:	f0 e0       	ldi	r31, 0x00	; 0



void UART_Transmit_Byte(uint8_t val){
  while(!(UCSR0A & (1<<UDRE0)));
  UDR0=val;
     38a:	00 e3       	ldi	r16, 0x30	; 48
    loop_counter=31;
  }
  
  UART_Transmit_Byte('0');
  UART_Transmit_Byte('b');
  for(int i=loop_counter; i>=0; i--){
     38c:	11 e3       	ldi	r17, 0x31	; 49
     38e:	ef 01       	movw	r28, r30
     390:	21 96       	adiw	r28, 0x01	; 1
    if( (val>>i) & 1){
     392:	cf 01       	movw	r24, r30
     394:	82 1b       	sub	r24, r18
     396:	93 0b       	sbc	r25, r19
     398:	6a 01       	movw	r12, r20
     39a:	7b 01       	movw	r14, r22
     39c:	04 c0       	rjmp	.+8      	; 0x3a6 <UART_Transmit_Byte_Bin+0x7a>
     39e:	f6 94       	lsr	r15
     3a0:	e7 94       	ror	r14
     3a2:	d7 94       	ror	r13
     3a4:	c7 94       	ror	r12
     3a6:	8a 95       	dec	r24
     3a8:	d2 f7       	brpl	.-12     	; 0x39e <UART_Transmit_Byte_Bin+0x72>
     3aa:	d7 01       	movw	r26, r14
     3ac:	c6 01       	movw	r24, r12
     3ae:	81 70       	andi	r24, 0x01	; 1
     3b0:	90 70       	andi	r25, 0x00	; 0
     3b2:	89 2b       	or	r24, r25
     3b4:	39 f0       	breq	.+14     	; 0x3c4 <UART_Transmit_Byte_Bin+0x98>




void UART_Transmit_Byte(uint8_t val){
  while(!(UCSR0A & (1<<UDRE0)));
     3b6:	80 91 c0 00 	lds	r24, 0x00C0
     3ba:	85 ff       	sbrs	r24, 5
     3bc:	fc cf       	rjmp	.-8      	; 0x3b6 <UART_Transmit_Byte_Bin+0x8a>
  UDR0=val;
     3be:	10 93 c6 00 	sts	0x00C6, r17
     3c2:	06 c0       	rjmp	.+12     	; 0x3d0 <UART_Transmit_Byte_Bin+0xa4>




void UART_Transmit_Byte(uint8_t val){
  while(!(UCSR0A & (1<<UDRE0)));
     3c4:	80 91 c0 00 	lds	r24, 0x00C0
     3c8:	85 ff       	sbrs	r24, 5
     3ca:	fc cf       	rjmp	.-8      	; 0x3c4 <UART_Transmit_Byte_Bin+0x98>
  UDR0=val;
     3cc:	00 93 c6 00 	sts	0x00C6, r16
     3d0:	2f 5f       	subi	r18, 0xFF	; 255
     3d2:	3f 4f       	sbci	r19, 0xFF	; 255
    loop_counter=31;
  }
  
  UART_Transmit_Byte('0');
  UART_Transmit_Byte('b');
  for(int i=loop_counter; i>=0; i--){
     3d4:	2c 17       	cp	r18, r28
     3d6:	3d 07       	cpc	r19, r29
     3d8:	e1 f6       	brne	.-72     	; 0x392 <UART_Transmit_Byte_Bin+0x66>
      UART_Transmit_Byte( 49 );   
    }else{
      UART_Transmit_Byte( 48 );         
    }
  }
}
     3da:	df 91       	pop	r29
     3dc:	cf 91       	pop	r28
     3de:	1f 91       	pop	r17
     3e0:	0f 91       	pop	r16
     3e2:	ff 90       	pop	r15
     3e4:	ef 90       	pop	r14
     3e6:	df 90       	pop	r13
     3e8:	cf 90       	pop	r12
     3ea:	08 95       	ret

000003ec <UART_Transmit_Text>:


void UART_Transmit_Text(char *str){
     3ec:	ac 01       	movw	r20, r24
     3ee:	20 e0       	ldi	r18, 0x00	; 0
     3f0:	07 c0       	rjmp	.+14     	; 0x400 <UART_Transmit_Text+0x14>




void UART_Transmit_Byte(uint8_t val){
  while(!(UCSR0A & (1<<UDRE0)));
     3f2:	80 91 c0 00 	lds	r24, 0x00C0
     3f6:	85 ff       	sbrs	r24, 5
     3f8:	fc cf       	rjmp	.-8      	; 0x3f2 <UART_Transmit_Text+0x6>
  UDR0=val;
     3fa:	e0 93 c6 00 	sts	0x00C6, r30

void UART_Transmit_Text(char *str){
    uint8_t i=0;
    while(str[i]!='\0'){
        UART_Transmit_Byte(str[i]);
        i++;
     3fe:	2f 5f       	subi	r18, 0xFF	; 255
}


void UART_Transmit_Text(char *str){
    uint8_t i=0;
    while(str[i]!='\0'){
     400:	fa 01       	movw	r30, r20
     402:	e2 0f       	add	r30, r18
     404:	f1 1d       	adc	r31, r1
     406:	e0 81       	ld	r30, Z
     408:	ee 23       	and	r30, r30
     40a:	99 f7       	brne	.-26     	; 0x3f2 <UART_Transmit_Text+0x6>
        UART_Transmit_Byte(str[i]);
        i++;
    }
}
     40c:	08 95       	ret

0000040e <UART_Transmit_New_Line>:

void UART_Transmit_New_Line(void){
    UART_Transmit_Text("\r\n");
     40e:	85 e0       	ldi	r24, 0x05	; 5
     410:	91 e0       	ldi	r25, 0x01	; 1
     412:	0e 94 f6 01 	call	0x3ec	; 0x3ec <UART_Transmit_Text>
}
     416:	08 95       	ret

00000418 <UART_Transmit_Space>:

void UART_Transmit_Space(void){
    UART_Transmit_Text(" ");
     418:	88 e0       	ldi	r24, 0x08	; 8
     41a:	91 e0       	ldi	r25, 0x01	; 1
     41c:	0e 94 f6 01 	call	0x3ec	; 0x3ec <UART_Transmit_Text>
}
     420:	08 95       	ret

00000422 <UART_Determine_Digit_Numbers>:

void UART_Determine_Digit_Numbers(uint32_t num){
     422:	bf 92       	push	r11
     424:	cf 92       	push	r12
     426:	df 92       	push	r13
     428:	ef 92       	push	r14
     42a:	ff 92       	push	r15
     42c:	0f 93       	push	r16
     42e:	1f 93       	push	r17
     430:	6b 01       	movw	r12, r22
     432:	7c 01       	movw	r14, r24
  uint8_t i=0;
  if(num==0){
     434:	61 15       	cp	r22, r1
     436:	71 05       	cpc	r23, r1
     438:	81 05       	cpc	r24, r1
     43a:	91 05       	cpc	r25, r1
     43c:	31 f4       	brne	.+12     	; 0x44a <UART_Determine_Digit_Numbers+0x28>
    UART.Digits[0]=0;
     43e:	10 92 15 01 	sts	0x0115, r1
    UART.InputNumberDigits=1;
     442:	81 e0       	ldi	r24, 0x01	; 1
     444:	80 93 1d 01 	sts	0x011D, r24
     448:	23 c0       	rjmp	.+70     	; 0x490 <UART_Determine_Digit_Numbers+0x6e>
     44a:	bb 24       	eor	r11, r11
  }else{
    while(num!=0){
      UART.Digits[i]=num%10;
     44c:	0b 2d       	mov	r16, r11
     44e:	10 e0       	ldi	r17, 0x00	; 0
     450:	0c 5e       	subi	r16, 0xEC	; 236
     452:	1e 4f       	sbci	r17, 0xFE	; 254
     454:	c7 01       	movw	r24, r14
     456:	b6 01       	movw	r22, r12
     458:	2a e0       	ldi	r18, 0x0A	; 10
     45a:	30 e0       	ldi	r19, 0x00	; 0
     45c:	40 e0       	ldi	r20, 0x00	; 0
     45e:	50 e0       	ldi	r21, 0x00	; 0
     460:	0e 94 0e 19 	call	0x321c	; 0x321c <__udivmodsi4>
     464:	f8 01       	movw	r30, r16
     466:	61 83       	std	Z+1, r22	; 0x01
      num/=10;
     468:	c7 01       	movw	r24, r14
     46a:	b6 01       	movw	r22, r12
     46c:	2a e0       	ldi	r18, 0x0A	; 10
     46e:	30 e0       	ldi	r19, 0x00	; 0
     470:	40 e0       	ldi	r20, 0x00	; 0
     472:	50 e0       	ldi	r21, 0x00	; 0
     474:	0e 94 0e 19 	call	0x321c	; 0x321c <__udivmodsi4>
     478:	c9 01       	movw	r24, r18
     47a:	da 01       	movw	r26, r20
     47c:	6c 01       	movw	r12, r24
     47e:	7d 01       	movw	r14, r26
      i++;
     480:	b3 94       	inc	r11
  uint8_t i=0;
  if(num==0){
    UART.Digits[0]=0;
    UART.InputNumberDigits=1;
  }else{
    while(num!=0){
     482:	c1 14       	cp	r12, r1
     484:	d1 04       	cpc	r13, r1
     486:	e1 04       	cpc	r14, r1
     488:	f1 04       	cpc	r15, r1
     48a:	01 f7       	brne	.-64     	; 0x44c <UART_Determine_Digit_Numbers+0x2a>
      UART.Digits[i]=num%10;
      num/=10;
      i++;
    }
	UART.InputNumberDigits=i;
     48c:	b0 92 1d 01 	sts	0x011D, r11
  }
}
     490:	1f 91       	pop	r17
     492:	0f 91       	pop	r16
     494:	ff 90       	pop	r15
     496:	ef 90       	pop	r14
     498:	df 90       	pop	r13
     49a:	cf 90       	pop	r12
     49c:	bf 90       	pop	r11
     49e:	08 95       	ret

000004a0 <UART_Transmit_Number_Digits>:

void UART_Transmit_Number_Digits(void){
  for(uint8_t i=UART.InputNumberDigits; i>0; i--){
     4a0:	e0 91 1d 01 	lds	r30, 0x011D
     4a4:	0f c0       	rjmp	.+30     	; 0x4c4 <UART_Transmit_Number_Digits+0x24>
    uint8_t temp=i;
    temp-=1;
     4a6:	2e 2f       	mov	r18, r30
     4a8:	21 50       	subi	r18, 0x01	; 1
    temp=UART.Digits[temp];
     4aa:	e2 2f       	mov	r30, r18
     4ac:	f0 e0       	ldi	r31, 0x00	; 0
     4ae:	ec 5e       	subi	r30, 0xEC	; 236
     4b0:	fe 4f       	sbci	r31, 0xFE	; 254
     4b2:	91 81       	ldd	r25, Z+1	; 0x01




void UART_Transmit_Byte(uint8_t val){
  while(!(UCSR0A & (1<<UDRE0)));
     4b4:	80 91 c0 00 	lds	r24, 0x00C0
     4b8:	85 ff       	sbrs	r24, 5
     4ba:	fc cf       	rjmp	.-8      	; 0x4b4 <UART_Transmit_Number_Digits+0x14>
void UART_Transmit_Number_Digits(void){
  for(uint8_t i=UART.InputNumberDigits; i>0; i--){
    uint8_t temp=i;
    temp-=1;
    temp=UART.Digits[temp];
    temp+=48;
     4bc:	90 5d       	subi	r25, 0xD0	; 208



void UART_Transmit_Byte(uint8_t val){
  while(!(UCSR0A & (1<<UDRE0)));
  UDR0=val;
     4be:	90 93 c6 00 	sts	0x00C6, r25
     4c2:	e2 2f       	mov	r30, r18
	UART.InputNumberDigits=i;
  }
}

void UART_Transmit_Number_Digits(void){
  for(uint8_t i=UART.InputNumberDigits; i>0; i--){
     4c4:	ee 23       	and	r30, r30
     4c6:	79 f7       	brne	.-34     	; 0x4a6 <UART_Transmit_Number_Digits+0x6>
    temp-=1;
    temp=UART.Digits[temp];
    temp+=48;
    UART_Transmit_Byte(temp);
  }
}
     4c8:	08 95       	ret

000004ca <UART_Transmit_Number>:

void UART_Transmit_Number(int32_t num){
     4ca:	9b 01       	movw	r18, r22
     4cc:	ac 01       	movw	r20, r24
  if(num<0){UART_Transmit_Byte('-');num=-num;}
     4ce:	97 ff       	sbrs	r25, 7
     4d0:	0e c0       	rjmp	.+28     	; 0x4ee <UART_Transmit_Number+0x24>




void UART_Transmit_Byte(uint8_t val){
  while(!(UCSR0A & (1<<UDRE0)));
     4d2:	80 91 c0 00 	lds	r24, 0x00C0
     4d6:	85 ff       	sbrs	r24, 5
     4d8:	fc cf       	rjmp	.-8      	; 0x4d2 <UART_Transmit_Number+0x8>
  UDR0=val;
     4da:	8d e2       	ldi	r24, 0x2D	; 45
     4dc:	80 93 c6 00 	sts	0x00C6, r24
    UART_Transmit_Byte(temp);
  }
}

void UART_Transmit_Number(int32_t num){
  if(num<0){UART_Transmit_Byte('-');num=-num;}
     4e0:	50 95       	com	r21
     4e2:	40 95       	com	r20
     4e4:	30 95       	com	r19
     4e6:	21 95       	neg	r18
     4e8:	3f 4f       	sbci	r19, 0xFF	; 255
     4ea:	4f 4f       	sbci	r20, 0xFF	; 255
     4ec:	5f 4f       	sbci	r21, 0xFF	; 255
  UART_Determine_Digit_Numbers((uint32_t)num);
     4ee:	ca 01       	movw	r24, r20
     4f0:	b9 01       	movw	r22, r18
     4f2:	0e 94 11 02 	call	0x422	; 0x422 <UART_Determine_Digit_Numbers>
  UART_Transmit_Number_Digits();
     4f6:	0e 94 50 02 	call	0x4a0	; 0x4a0 <UART_Transmit_Number_Digits>
}
     4fa:	08 95       	ret

000004fc <UART_Read_From_Buffer>:



uint8_t UART_Read_From_Buffer(uint16_t index){
  return UART.Buffer[index];
     4fc:	fc 01       	movw	r30, r24
     4fe:	ec 5e       	subi	r30, 0xEC	; 236
     500:	fe 4f       	sbci	r31, 0xFE	; 254
     502:	83 85       	ldd	r24, Z+11	; 0x0b
}
     504:	08 95       	ret

00000506 <UART_Current_Buffer_Index>:


uint16_t UART_Current_Buffer_Index(void){
  return UART.BufferIndex;
     506:	20 91 41 01 	lds	r18, 0x0141
     50a:	30 91 42 01 	lds	r19, 0x0142
}
     50e:	c9 01       	movw	r24, r18
     510:	08 95       	ret

00000512 <UART_Flush_Buffer>:



void UART_Flush_Buffer(void){
  #ifdef UART_ENABLE_RX_INT
  UART.Error=0x00;
     512:	10 92 14 01 	sts	0x0114, r1
     516:	20 e0       	ldi	r18, 0x00	; 0
     518:	30 e0       	ldi	r19, 0x00	; 0
     51a:	06 c0       	rjmp	.+12     	; 0x528 <UART_Flush_Buffer+0x16>
  for(uint16_t i=0;i<UART.BufferSize;i++){
    UART.Buffer[i]=0x00;
     51c:	f9 01       	movw	r30, r18
     51e:	ec 5e       	subi	r30, 0xEC	; 236
     520:	fe 4f       	sbci	r31, 0xFE	; 254
     522:	13 86       	std	Z+11, r1	; 0x0b


void UART_Flush_Buffer(void){
  #ifdef UART_ENABLE_RX_INT
  UART.Error=0x00;
  for(uint16_t i=0;i<UART.BufferSize;i++){
     524:	2f 5f       	subi	r18, 0xFF	; 255
     526:	3f 4f       	sbci	r19, 0xFF	; 255
     528:	80 91 3f 01 	lds	r24, 0x013F
     52c:	90 91 40 01 	lds	r25, 0x0140
     530:	28 17       	cp	r18, r24
     532:	39 07       	cpc	r19, r25
     534:	98 f3       	brcs	.-26     	; 0x51c <UART_Flush_Buffer+0xa>
    UART.Buffer[i]=0x00;
  }
  UART.BufferIndex=0;
     536:	10 92 42 01 	sts	0x0142, r1
     53a:	10 92 41 01 	sts	0x0141, r1
  #endif
}
     53e:	08 95       	ret

00000540 <UART_Interrupt_Service_Routine>:



#ifdef UART_ENABLE_RX_INT
void UART_Interrupt_Service_Routine(void){
     540:	df 93       	push	r29
     542:	cf 93       	push	r28
     544:	0f 92       	push	r0
     546:	cd b7       	in	r28, 0x3d	; 61
     548:	de b7       	in	r29, 0x3e	; 62
  volatile uint8_t received_byte=0;
     54a:	19 82       	std	Y+1, r1	; 0x01
  received_byte=(uint8_t)UART_Receive_Byte();
     54c:	0e 94 13 01 	call	0x226	; 0x226 <UART_Receive_Byte>
     550:	89 83       	std	Y+1, r24	; 0x01
  if(UART.Error==0x00){
     552:	80 91 14 01 	lds	r24, 0x0114
     556:	88 23       	and	r24, r24
     558:	19 f5       	brne	.+70     	; 0x5a0 <UART_Interrupt_Service_Routine+0x60>
    UART.LastByteReceived=received_byte;
     55a:	89 81       	ldd	r24, Y+1	; 0x01
     55c:	80 93 1e 01 	sts	0x011E, r24
    UART.Buffer[UART.BufferIndex]=received_byte;
     560:	e0 91 41 01 	lds	r30, 0x0141
     564:	f0 91 42 01 	lds	r31, 0x0142
     568:	89 81       	ldd	r24, Y+1	; 0x01
     56a:	ec 5e       	subi	r30, 0xEC	; 236
     56c:	fe 4f       	sbci	r31, 0xFE	; 254
     56e:	83 87       	std	Z+11, r24	; 0x0b
    UART.BufferIndex++;
     570:	80 91 41 01 	lds	r24, 0x0141
     574:	90 91 42 01 	lds	r25, 0x0142
     578:	01 96       	adiw	r24, 0x01	; 1
     57a:	90 93 42 01 	sts	0x0142, r25
     57e:	80 93 41 01 	sts	0x0141, r24

    if(UART.BufferIndex>=UART.BufferSize){
     582:	20 91 41 01 	lds	r18, 0x0141
     586:	30 91 42 01 	lds	r19, 0x0142
     58a:	80 91 3f 01 	lds	r24, 0x013F
     58e:	90 91 40 01 	lds	r25, 0x0140
     592:	28 17       	cp	r18, r24
     594:	39 07       	cpc	r19, r25
     596:	20 f0       	brcs	.+8      	; 0x5a0 <UART_Interrupt_Service_Routine+0x60>
      UART.BufferIndex=0;
     598:	10 92 42 01 	sts	0x0142, r1
     59c:	10 92 41 01 	sts	0x0141, r1
    }
  }
}
     5a0:	0f 90       	pop	r0
     5a2:	cf 91       	pop	r28
     5a4:	df 91       	pop	r29
     5a6:	08 95       	ret

000005a8 <__vector_18>:
#endif


#ifdef UART_ENABLE_RX_INT
ISR(USART_RX_vect){
     5a8:	1f 92       	push	r1
     5aa:	0f 92       	push	r0
     5ac:	0f b6       	in	r0, 0x3f	; 63
     5ae:	0f 92       	push	r0
     5b0:	11 24       	eor	r1, r1
     5b2:	2f 93       	push	r18
     5b4:	3f 93       	push	r19
     5b6:	4f 93       	push	r20
     5b8:	5f 93       	push	r21
     5ba:	6f 93       	push	r22
     5bc:	7f 93       	push	r23
     5be:	8f 93       	push	r24
     5c0:	9f 93       	push	r25
     5c2:	af 93       	push	r26
     5c4:	bf 93       	push	r27
     5c6:	ef 93       	push	r30
     5c8:	ff 93       	push	r31
  UART_Interrupt_Service_Routine();
     5ca:	0e 94 a0 02 	call	0x540	; 0x540 <UART_Interrupt_Service_Routine>
}
     5ce:	ff 91       	pop	r31
     5d0:	ef 91       	pop	r30
     5d2:	bf 91       	pop	r27
     5d4:	af 91       	pop	r26
     5d6:	9f 91       	pop	r25
     5d8:	8f 91       	pop	r24
     5da:	7f 91       	pop	r23
     5dc:	6f 91       	pop	r22
     5de:	5f 91       	pop	r21
     5e0:	4f 91       	pop	r20
     5e2:	3f 91       	pop	r19
     5e4:	2f 91       	pop	r18
     5e6:	0f 90       	pop	r0
     5e8:	0f be       	out	0x3f, r0	; 63
     5ea:	0f 90       	pop	r0
     5ec:	1f 90       	pop	r1
     5ee:	18 95       	reti

000005f0 <UART_Init>:
#endif



void UART_Init(uint32_t baud){
     5f0:	ef 92       	push	r14
     5f2:	ff 92       	push	r15
     5f4:	0f 93       	push	r16
     5f6:	1f 93       	push	r17
     5f8:	7b 01       	movw	r14, r22
     5fa:	8c 01       	movw	r16, r24
  UART_Struct_Init();
     5fc:	0e 94 b5 00 	call	0x16a	; 0x16a <UART_Struct_Init>
  UART_Config_GPIO();
  UART_Config_Clock();
  UART_Config_BAUD_Rate(baud);
     600:	c8 01       	movw	r24, r16
     602:	b7 01       	movw	r22, r14
     604:	0e 94 d8 00 	call	0x1b0	; 0x1b0 <UART_Config_BAUD_Rate>
  UBRR0L = UBRR_VAL & 0xFF ;
}


void UART_Config_Transmitter(void){
  UCSR0B|=(1<<TXEN0);
     608:	e1 ec       	ldi	r30, 0xC1	; 193
     60a:	f0 e0       	ldi	r31, 0x00	; 0
     60c:	80 81       	ld	r24, Z
     60e:	88 60       	ori	r24, 0x08	; 8
     610:	80 83       	st	Z, r24
  UCSR0C=(1<<UCSZ00)| (1<<UCSZ01);
     612:	a2 ec       	ldi	r26, 0xC2	; 194
     614:	b0 e0       	ldi	r27, 0x00	; 0
     616:	96 e0       	ldi	r25, 0x06	; 6
     618:	9c 93       	st	X, r25
}


void UART_Config_Receiver(void){
  UCSR0B|=(1<<RXEN0);
     61a:	80 81       	ld	r24, Z
     61c:	80 61       	ori	r24, 0x10	; 16
     61e:	80 83       	st	Z, r24
  UCSR0C=(1<<UCSZ00)| (1<<UCSZ01);
     620:	9c 93       	st	X, r25
}

void UART_Config_Receiver_Interrupt(void){
  UCSR0B|=(1<<RXCIE0);
     622:	80 81       	ld	r24, Z
     624:	80 68       	ori	r24, 0x80	; 128
     626:	80 83       	st	Z, r24
  sei();
     628:	78 94       	sei
  
  #ifdef UART_ENABLE_RX_INT
  UART_Config_Receiver_Interrupt();
  #endif
  
  UART_Flush_Buffer();
     62a:	0e 94 89 02 	call	0x512	; 0x512 <UART_Flush_Buffer>
}
     62e:	1f 91       	pop	r17
     630:	0f 91       	pop	r16
     632:	ff 90       	pop	r15
     634:	ef 90       	pop	r14
     636:	08 95       	ret

00000638 <Timebase_Struct_Init>:


/************************************Basic Functions Start*******************************/

void Timebase_Struct_Init(void){
  Timebase=&Timebase_type;
     638:	85 e4       	ldi	r24, 0x45	; 69
     63a:	91 e0       	ldi	r25, 0x01	; 1
     63c:	90 93 44 01 	sts	0x0144, r25
     640:	80 93 43 01 	sts	0x0143, r24
  Timebase->Config.TimerType.Value = 0;
     644:	10 92 45 01 	sts	0x0145, r1
  Timebase->Config.TimerType.GeneralTimer = 1;
     648:	80 91 45 01 	lds	r24, 0x0145
     64c:	84 60       	ori	r24, 0x04	; 4
     64e:	80 93 45 01 	sts	0x0145, r24
  Timebase->Config.TimerType.TimerIndex = 0;
     652:	80 91 45 01 	lds	r24, 0x0145
     656:	87 70       	andi	r24, 0x07	; 7
     658:	80 93 45 01 	sts	0x0145, r24
  Timebase->Config.UpdateRate = 1;
     65c:	81 e0       	ldi	r24, 0x01	; 1
     65e:	90 e0       	ldi	r25, 0x00	; 0
     660:	90 93 47 01 	sts	0x0147, r25
     664:	80 93 46 01 	sts	0x0146, r24
  Timebase->Time.OVFUpdateValue=0;
     668:	10 92 48 01 	sts	0x0148, r1
  Timebase->Time.SubSecondsShadow = 0;
     66c:	10 92 54 01 	sts	0x0154, r1
     670:	10 92 53 01 	sts	0x0153, r1
  Timebase->Time.SecondsShadow = 0;
     674:	10 92 55 01 	sts	0x0155, r1
     678:	10 92 56 01 	sts	0x0156, r1
     67c:	10 92 57 01 	sts	0x0157, r1
     680:	10 92 58 01 	sts	0x0158, r1
  Timebase->Time.SubSeconds = 0;
     684:	10 92 4e 01 	sts	0x014E, r1
     688:	10 92 4d 01 	sts	0x014D, r1
  Timebase->Time.Seconds = 0;
     68c:	10 92 4f 01 	sts	0x014F, r1
     690:	10 92 50 01 	sts	0x0150, r1
     694:	10 92 51 01 	sts	0x0151, r1
     698:	10 92 52 01 	sts	0x0152, r1
  Timebase->Time.VariablesSync = 0;
     69c:	10 92 59 01 	sts	0x0159, r1
  Timebase->Time.LastSample = 0;
     6a0:	10 92 49 01 	sts	0x0149, r1
     6a4:	10 92 4a 01 	sts	0x014A, r1
     6a8:	10 92 4b 01 	sts	0x014B, r1
     6ac:	10 92 4c 01 	sts	0x014C, r1
  
  #ifdef TIMEBASE_TIME_WINDOW_CALCULATION
    Timebase->Time.StartTimeSeconds = 0;
     6b0:	10 92 5a 01 	sts	0x015A, r1
     6b4:	10 92 5b 01 	sts	0x015B, r1
     6b8:	10 92 5c 01 	sts	0x015C, r1
     6bc:	10 92 5d 01 	sts	0x015D, r1
	Timebase->Time.StartTimeSubSeconds = 0;
     6c0:	10 92 5e 01 	sts	0x015E, r1
     6c4:	10 92 5f 01 	sts	0x015F, r1
     6c8:	10 92 60 01 	sts	0x0160, r1
     6cc:	10 92 61 01 	sts	0x0161, r1
	Timebase->Time.Status = 0;
     6d0:	10 92 62 01 	sts	0x0162, r1
  #endif
  
  Timebase->UpdateRequest = 0;
     6d4:	10 92 63 01 	sts	0x0163, r1
  
  #ifdef TIMEBASE_TOKEN_FUNCTIONS
  Timebase->ActiveTokens = 0;
     6d8:	10 92 64 01 	sts	0x0164, r1
  #endif

  #ifdef TIMEBASE_UPCOUNTER
  for(uint8_t i=0; i < TIMEBASE_UPCOUNTER; i++){
    Timebase->UpCounter[i].Status.StatusByte = 0;  
     6dc:	10 92 7e 01 	sts	0x017E, r1
    Timebase->UpCounter[i].EndValue = 0;
     6e0:	10 92 7f 01 	sts	0x017F, r1
     6e4:	10 92 80 01 	sts	0x0180, r1
     6e8:	10 92 81 01 	sts	0x0181, r1
     6ec:	10 92 82 01 	sts	0x0182, r1
    Timebase->UpCounter[i].Target = 0;
     6f0:	10 92 83 01 	sts	0x0183, r1
     6f4:	10 92 84 01 	sts	0x0184, r1
     6f8:	10 92 85 01 	sts	0x0185, r1
     6fc:	10 92 86 01 	sts	0x0186, r1
    Timebase->UpCounter[i].Temporary = 0;    
     700:	10 92 87 01 	sts	0x0187, r1
     704:	10 92 88 01 	sts	0x0188, r1
     708:	10 92 89 01 	sts	0x0189, r1
     70c:	10 92 8a 01 	sts	0x018A, r1
    Timebase->UpCounter[i].Value = 0;
     710:	10 92 8b 01 	sts	0x018B, r1
     714:	10 92 8c 01 	sts	0x018C, r1
     718:	10 92 8d 01 	sts	0x018D, r1
     71c:	10 92 8e 01 	sts	0x018E, r1
    Timebase->UpCounter[i].PeriodValue = 0;
     720:	10 92 8f 01 	sts	0x018F, r1
     724:	10 92 90 01 	sts	0x0190, r1
     728:	10 92 91 01 	sts	0x0191, r1
     72c:	10 92 92 01 	sts	0x0192, r1
  }
  #endif
  
  #ifdef TIMEBASE_UPCOUNTER_SUBSECONDS
  for(uint8_t i=0; i < TIMEBASE_UPCOUNTER_SUBSECONDS; i++){
    Timebase->UpCounterSS[i].Status.StatusByte = 0;  
     730:	10 92 65 01 	sts	0x0165, r1
    Timebase->UpCounterSS[i].EndValueSec = 0;
     734:	10 92 66 01 	sts	0x0166, r1
     738:	10 92 67 01 	sts	0x0167, r1
     73c:	10 92 68 01 	sts	0x0168, r1
     740:	10 92 69 01 	sts	0x0169, r1
	Timebase->UpCounterSS[i].EndValueSubSec = 0;
     744:	10 92 6a 01 	sts	0x016A, r1
     748:	10 92 6b 01 	sts	0x016B, r1
     74c:	10 92 6c 01 	sts	0x016C, r1
     750:	10 92 6d 01 	sts	0x016D, r1
    Timebase->UpCounterSS[i].Target = 0;
     754:	10 92 6e 01 	sts	0x016E, r1
     758:	10 92 6f 01 	sts	0x016F, r1
     75c:	10 92 70 01 	sts	0x0170, r1
     760:	10 92 71 01 	sts	0x0171, r1
    Timebase->UpCounterSS[i].Temporary = 0;    
     764:	10 92 72 01 	sts	0x0172, r1
     768:	10 92 73 01 	sts	0x0173, r1
     76c:	10 92 74 01 	sts	0x0174, r1
     770:	10 92 75 01 	sts	0x0175, r1
    Timebase->UpCounterSS[i].Value = 0;
     774:	10 92 76 01 	sts	0x0176, r1
     778:	10 92 77 01 	sts	0x0177, r1
     77c:	10 92 78 01 	sts	0x0178, r1
     780:	10 92 79 01 	sts	0x0179, r1
    Timebase->UpCounterSS[i].PeriodValue = 0;
     784:	10 92 7a 01 	sts	0x017A, r1
     788:	10 92 7b 01 	sts	0x017B, r1
     78c:	10 92 7c 01 	sts	0x017C, r1
     790:	10 92 7d 01 	sts	0x017D, r1
  }
  #endif

  #ifdef TIMEBASE_DOWNCOUNTER
  for(uint8_t i=0; i < TIMEBASE_DOWNCOUNTER; i++){
    Timebase->DownCounter[i].Status.StatusByte = 0; 
     794:	10 92 a4 01 	sts	0x01A4, r1
    Timebase->DownCounter[i].EndValue = 0;
     798:	10 92 a5 01 	sts	0x01A5, r1
     79c:	10 92 a6 01 	sts	0x01A6, r1
     7a0:	10 92 a7 01 	sts	0x01A7, r1
     7a4:	10 92 a8 01 	sts	0x01A8, r1
    Timebase->DownCounter[i].Value = 0;
     7a8:	10 92 a9 01 	sts	0x01A9, r1
     7ac:	10 92 aa 01 	sts	0x01AA, r1
     7b0:	10 92 ab 01 	sts	0x01AB, r1
     7b4:	10 92 ac 01 	sts	0x01AC, r1
    Timebase->DownCounter[i].PeriodValue = 0;
     7b8:	10 92 ad 01 	sts	0x01AD, r1
     7bc:	10 92 ae 01 	sts	0x01AE, r1
     7c0:	10 92 af 01 	sts	0x01AF, r1
     7c4:	10 92 b0 01 	sts	0x01B0, r1
  }
  #endif
  
  #ifdef TIMEBASE_DOWNCOUNTER_SUBSECONDS
  for(uint8_t i=0; i < TIMEBASE_DOWNCOUNTER_SUBSECONDS; i++){
    Timebase->DownCounterSS[i].Status.StatusByte = 0; 
     7c8:	10 92 93 01 	sts	0x0193, r1
    Timebase->DownCounterSS[i].EndValueSec = 0;
     7cc:	10 92 94 01 	sts	0x0194, r1
     7d0:	10 92 95 01 	sts	0x0195, r1
     7d4:	10 92 96 01 	sts	0x0196, r1
     7d8:	10 92 97 01 	sts	0x0197, r1
	Timebase->DownCounterSS[i].EndValueSubSec = 0;
     7dc:	10 92 98 01 	sts	0x0198, r1
     7e0:	10 92 99 01 	sts	0x0199, r1
     7e4:	10 92 9a 01 	sts	0x019A, r1
     7e8:	10 92 9b 01 	sts	0x019B, r1
    Timebase->DownCounterSS[i].Value = 0;
     7ec:	10 92 9c 01 	sts	0x019C, r1
     7f0:	10 92 9d 01 	sts	0x019D, r1
     7f4:	10 92 9e 01 	sts	0x019E, r1
     7f8:	10 92 9f 01 	sts	0x019F, r1
    Timebase->DownCounterSS[i].PeriodValue = 0;
     7fc:	10 92 a0 01 	sts	0x01A0, r1
     800:	10 92 a1 01 	sts	0x01A1, r1
     804:	10 92 a2 01 	sts	0x01A2, r1
     808:	10 92 a3 01 	sts	0x01A3, r1
  }
  #endif
  
}
     80c:	08 95       	ret

0000080e <Timebase_Timer_Config>:


void Timebase_Timer_Config(uint16_t UpdateRateHz){
     80e:	7f 92       	push	r7
     810:	8f 92       	push	r8
     812:	9f 92       	push	r9
     814:	af 92       	push	r10
     816:	bf 92       	push	r11
     818:	cf 92       	push	r12
     81a:	df 92       	push	r13
     81c:	ef 92       	push	r14
     81e:	ff 92       	push	r15
     820:	0f 93       	push	r16
     822:	1f 93       	push	r17
     824:	df 93       	push	r29
     826:	cf 93       	push	r28
     828:	cd b7       	in	r28, 0x3d	; 61
     82a:	de b7       	in	r29, 0x3e	; 62
     82c:	2a 97       	sbiw	r28, 0x0a	; 10
     82e:	0f b6       	in	r0, 0x3f	; 63
     830:	f8 94       	cli
     832:	de bf       	out	0x3e, r29	; 62
     834:	0f be       	out	0x3f, r0	; 63
     836:	cd bf       	out	0x3d, r28	; 61
     838:	8c 01       	movw	r16, r24
  if(Timebase->Config.TimerType.WatchDogTimer == 1){
     83a:	c0 90 43 01 	lds	r12, 0x0143
     83e:	d0 90 44 01 	lds	r13, 0x0144
     842:	f6 01       	movw	r30, r12
     844:	80 81       	ld	r24, Z
     846:	80 ff       	sbrs	r24, 0
     848:	31 c0       	rjmp	.+98     	; 0x8ac <Timebase_Timer_Config+0x9e>
    uint8_t Prescaler_val = 0;
    if(UpdateRateHz == 1){
     84a:	01 30       	cpi	r16, 0x01	; 1
     84c:	11 05       	cpc	r17, r1
     84e:	11 f4       	brne	.+4      	; 0x854 <Timebase_Timer_Config+0x46>
     850:	96 e0       	ldi	r25, 0x06	; 6
     852:	19 c0       	rjmp	.+50     	; 0x886 <Timebase_Timer_Config+0x78>
      Prescaler_val = 0x06;
    }else if(UpdateRateHz ==2 ){
     854:	02 30       	cpi	r16, 0x02	; 2
     856:	11 05       	cpc	r17, r1
     858:	11 f4       	brne	.+4      	; 0x85e <Timebase_Timer_Config+0x50>
     85a:	95 e0       	ldi	r25, 0x05	; 5
     85c:	14 c0       	rjmp	.+40     	; 0x886 <Timebase_Timer_Config+0x78>
      Prescaler_val = 0x05;
    }else if(UpdateRateHz == 4){
     85e:	04 30       	cpi	r16, 0x04	; 4
     860:	11 05       	cpc	r17, r1
     862:	11 f4       	brne	.+4      	; 0x868 <Timebase_Timer_Config+0x5a>
     864:	94 e0       	ldi	r25, 0x04	; 4
     866:	0f c0       	rjmp	.+30     	; 0x886 <Timebase_Timer_Config+0x78>
      Prescaler_val = 0x04;
    }else if(UpdateRateHz == 8){
     868:	08 30       	cpi	r16, 0x08	; 8
     86a:	11 05       	cpc	r17, r1
     86c:	11 f4       	brne	.+4      	; 0x872 <Timebase_Timer_Config+0x64>
     86e:	93 e0       	ldi	r25, 0x03	; 3
     870:	0a c0       	rjmp	.+20     	; 0x886 <Timebase_Timer_Config+0x78>
      Prescaler_val = 0x03;
    }else if(UpdateRateHz == 16){
     872:	00 31       	cpi	r16, 0x10	; 16
     874:	11 05       	cpc	r17, r1
     876:	11 f4       	brne	.+4      	; 0x87c <Timebase_Timer_Config+0x6e>
     878:	92 e0       	ldi	r25, 0x02	; 2
     87a:	05 c0       	rjmp	.+10     	; 0x886 <Timebase_Timer_Config+0x78>
     87c:	90 e0       	ldi	r25, 0x00	; 0
     87e:	00 32       	cpi	r16, 0x20	; 32
     880:	11 05       	cpc	r17, r1
     882:	09 f4       	brne	.+2      	; 0x886 <Timebase_Timer_Config+0x78>
     884:	91 e0       	ldi	r25, 0x01	; 1
    }else if(UpdateRateHz == 64){
      Prescaler_val = 0x00;
    }else{
      Prescaler_val = 0x00;
    }
    cli();
     886:	f8 94       	cli
    MCUSR  &=~(1<<WDRF);
     888:	84 b7       	in	r24, 0x34	; 52
     88a:	87 7f       	andi	r24, 0xF7	; 247
     88c:	84 bf       	out	0x34, r24	; 52
    WDTCSR |= (1<<WDIF);
     88e:	80 91 60 00 	lds	r24, 0x0060
     892:	80 68       	ori	r24, 0x80	; 128
     894:	80 93 60 00 	sts	0x0060, r24
    WDTCSR |= (1<<WDCE)|(1<<WDE);
     898:	80 91 60 00 	lds	r24, 0x0060
     89c:	88 61       	ori	r24, 0x18	; 24
     89e:	80 93 60 00 	sts	0x0060, r24
    WDTCSR  = (1<<WDIE)|Prescaler_val;
     8a2:	90 64       	ori	r25, 0x40	; 64
     8a4:	90 93 60 00 	sts	0x0060, r25
    sei();
     8a8:	78 94       	sei
     8aa:	67 c0       	rjmp	.+206    	; 0x97a <__stack+0x7b>
  }else if(Timebase->Config.TimerType.RealTimeCounter == 1){
     8ac:	81 fd       	sbrc	r24, 1
     8ae:	65 c0       	rjmp	.+202    	; 0x97a <__stack+0x7b>
    //add rtc functions
  }else if(Timebase->Config.TimerType.GeneralTimer == 1){
     8b0:	82 ff       	sbrs	r24, 2
     8b2:	63 c0       	rjmp	.+198    	; 0x97a <__stack+0x7b>
    
	int32_t temp = F_CPU;
	uint16_t clock_div_factor[5] = {1, 8, 64, 256, 1024};
     8b4:	de 01       	movw	r26, r28
     8b6:	11 96       	adiw	r26, 0x01	; 1
     8b8:	ea e0       	ldi	r30, 0x0A	; 10
     8ba:	f1 e0       	ldi	r31, 0x01	; 1
     8bc:	8a e0       	ldi	r24, 0x0A	; 10
     8be:	01 90       	ld	r0, Z+
     8c0:	0d 92       	st	X+, r0
     8c2:	81 50       	subi	r24, 0x01	; 1
     8c4:	e1 f7       	brne	.-8      	; 0x8be <Timebase_Timer_Config+0xb0>
	
	temp /= UpdateRateHz;
     8c6:	98 01       	movw	r18, r16
     8c8:	40 e0       	ldi	r20, 0x00	; 0
     8ca:	50 e0       	ldi	r21, 0x00	; 0
     8cc:	60 e0       	ldi	r22, 0x00	; 0
     8ce:	7b e1       	ldi	r23, 0x1B	; 27
     8d0:	87 eb       	ldi	r24, 0xB7	; 183
     8d2:	90 e0       	ldi	r25, 0x00	; 0
     8d4:	0e 94 30 19 	call	0x3260	; 0x3260 <__divmodsi4>
     8d8:	72 2e       	mov	r7, r18
     8da:	83 2e       	mov	r8, r19
     8dc:	94 2e       	mov	r9, r20
     8de:	e5 2e       	mov	r14, r21
     8e0:	5e 01       	movw	r10, r28
     8e2:	08 94       	sec
     8e4:	a1 1c       	adc	r10, r1
     8e6:	b1 1c       	adc	r11, r1
     8e8:	c9 01       	movw	r24, r18
     8ea:	da 01       	movw	r26, r20
     8ec:	9c 01       	movw	r18, r24
     8ee:	ad 01       	movw	r20, r26
     8f0:	ff 24       	eor	r15, r15
     8f2:	14 c0       	rjmp	.+40     	; 0x91c <__stack+0x1d>
	uint8_t  clock_div_index = 0;
	int32_t  curr_freq = temp;
	
	while( curr_freq > 0xFF ){
	  curr_freq  = temp;
	  curr_freq /= clock_div_factor[clock_div_index];
     8f4:	f5 01       	movw	r30, r10
     8f6:	21 91       	ld	r18, Z+
     8f8:	31 91       	ld	r19, Z+
     8fa:	5f 01       	movw	r10, r30
     8fc:	40 e0       	ldi	r20, 0x00	; 0
     8fe:	50 e0       	ldi	r21, 0x00	; 0
     900:	67 2d       	mov	r22, r7
     902:	78 2d       	mov	r23, r8
     904:	89 2d       	mov	r24, r9
     906:	9e 2d       	mov	r25, r14
     908:	0e 94 30 19 	call	0x3260	; 0x3260 <__divmodsi4>
     90c:	c9 01       	movw	r24, r18
     90e:	da 01       	movw	r26, r20
     910:	9c 01       	movw	r18, r24
     912:	ad 01       	movw	r20, r26
	  clock_div_index++;
     914:	f3 94       	inc	r15
	  if(clock_div_index == 5){
     916:	f5 e0       	ldi	r31, 0x05	; 5
     918:	ff 16       	cp	r15, r31
     91a:	31 f0       	breq	.+12     	; 0x928 <__stack+0x29>
	temp /= UpdateRateHz;
	
	uint8_t  clock_div_index = 0;
	int32_t  curr_freq = temp;
	
	while( curr_freq > 0xFF ){
     91c:	2f 3f       	cpi	r18, 0xFF	; 255
     91e:	31 05       	cpc	r19, r1
     920:	41 05       	cpc	r20, r1
     922:	51 05       	cpc	r21, r1
     924:	09 f0       	breq	.+2      	; 0x928 <__stack+0x29>
     926:	34 f7       	brge	.-52     	; 0x8f4 <Timebase_Timer_Config+0xe6>
	  if(clock_div_index == 5){
	    break;
	  }
	}
	
	clock_div_index -= 1;
     928:	8f 2d       	mov	r24, r15
     92a:	81 50       	subi	r24, 0x01	; 1
	
	TCCR0A = 0x00;
     92c:	14 bc       	out	0x24, r1	; 36
    TCCR0B = 0x00;
     92e:	15 bc       	out	0x25, r1	; 37
    TIMSK0 = 0x00;
     930:	10 92 6e 00 	sts	0x006E, r1
    TIFR0  = 0x00;
     934:	15 ba       	out	0x15, r1	; 21
    OCR0A  = 0x00;
     936:	17 bc       	out	0x27, r1	; 39
    OCR0B  = 0x00;
     938:	18 bc       	out	0x28, r1	; 40
    TCNT0  = 0x00;
     93a:	16 bc       	out	0x26, r1	; 38
    OCR0A  = 0x00;
     93c:	17 bc       	out	0x27, r1	; 39
	
	if(clock_div_index == 0){
     93e:	88 23       	and	r24, r24
     940:	11 f4       	brne	.+4      	; 0x946 <__stack+0x47>
	  TCCR0B = (1<<CS00);
     942:	81 e0       	ldi	r24, 0x01	; 1
     944:	0f c0       	rjmp	.+30     	; 0x964 <__stack+0x65>
	}else if(clock_div_index == 1){
     946:	81 30       	cpi	r24, 0x01	; 1
     948:	11 f4       	brne	.+4      	; 0x94e <__stack+0x4f>
	  TCCR0B = (1<<CS01);
     94a:	82 e0       	ldi	r24, 0x02	; 2
     94c:	0b c0       	rjmp	.+22     	; 0x964 <__stack+0x65>
	}else if(clock_div_index == 2){
     94e:	82 30       	cpi	r24, 0x02	; 2
     950:	11 f4       	brne	.+4      	; 0x956 <__stack+0x57>
	  TCCR0B = (1<<CS00)|(1<<CS01);
     952:	83 e0       	ldi	r24, 0x03	; 3
     954:	07 c0       	rjmp	.+14     	; 0x964 <__stack+0x65>
	}else if(clock_div_index == 3){
     956:	83 30       	cpi	r24, 0x03	; 3
     958:	11 f4       	brne	.+4      	; 0x95e <__stack+0x5f>
	  TCCR0B = (1<<CS02);
     95a:	84 e0       	ldi	r24, 0x04	; 4
     95c:	03 c0       	rjmp	.+6      	; 0x964 <__stack+0x65>
	}else if(clock_div_index == 4){
     95e:	84 30       	cpi	r24, 0x04	; 4
     960:	11 f4       	brne	.+4      	; 0x966 <__stack+0x67>
	  TCCR0B = (1<<CS00)|(1<<CS02);
     962:	85 e0       	ldi	r24, 0x05	; 5
     964:	85 bd       	out	0x25, r24	; 37
	}
	
	Timebase->Time.OVFUpdateValue = (0xFF-curr_freq);
     966:	82 2f       	mov	r24, r18
     968:	80 95       	com	r24
     96a:	f6 01       	movw	r30, r12
     96c:	83 83       	std	Z+3, r24	; 0x03
	TCNT0  = Timebase->Time.OVFUpdateValue;
     96e:	83 81       	ldd	r24, Z+3	; 0x03
     970:	86 bd       	out	0x26, r24	; 38
	TIMSK0 = (1<<TOIE0);
     972:	81 e0       	ldi	r24, 0x01	; 1
     974:	80 93 6e 00 	sts	0x006E, r24
    sei();
     978:	78 94       	sei
  }
  Timebase->Config.UpdateRate = UpdateRateHz;
     97a:	f6 01       	movw	r30, r12
     97c:	12 83       	std	Z+2, r17	; 0x02
     97e:	01 83       	std	Z+1, r16	; 0x01
}
     980:	2a 96       	adiw	r28, 0x0a	; 10
     982:	0f b6       	in	r0, 0x3f	; 63
     984:	f8 94       	cli
     986:	de bf       	out	0x3e, r29	; 62
     988:	0f be       	out	0x3f, r0	; 63
     98a:	cd bf       	out	0x3d, r28	; 61
     98c:	cf 91       	pop	r28
     98e:	df 91       	pop	r29
     990:	1f 91       	pop	r17
     992:	0f 91       	pop	r16
     994:	ff 90       	pop	r15
     996:	ef 90       	pop	r14
     998:	df 90       	pop	r13
     99a:	cf 90       	pop	r12
     99c:	bf 90       	pop	r11
     99e:	af 90       	pop	r10
     9a0:	9f 90       	pop	r9
     9a2:	8f 90       	pop	r8
     9a4:	7f 90       	pop	r7
     9a6:	08 95       	ret

000009a8 <Timebase_Atomic_Operation_Start>:

/********************************Atomic Functions Start*******************************/


void Timebase_Atomic_Operation_Start(void){
  cli();
     9a8:	f8 94       	cli
}
     9aa:	08 95       	ret

000009ac <Timebase_Atomic_Operation_End>:

void Timebase_Atomic_Operation_End(void){
  sei();
     9ac:	78 94       	sei
}
     9ae:	08 95       	ret

000009b0 <Timebase_Token_Executing>:

/*********************************Token Functions Start*******************************/

#ifdef TIMEBASE_TOKEN_FUNCTIONS
uint8_t Timebase_Token_Executing(void){
  return Timebase->ActiveTokens;
     9b0:	e0 91 43 01 	lds	r30, 0x0143
     9b4:	f0 91 44 01 	lds	r31, 0x0144
     9b8:	87 8d       	ldd	r24, Z+31	; 0x1f
}
     9ba:	08 95       	ret

000009bc <Timebase_Token_Add>:

/*********************************Token Functions Start*******************************/

#ifdef TIMEBASE_TOKEN_FUNCTIONS
uint8_t Timebase_Token_Executing(void){
  return Timebase->ActiveTokens;
     9bc:	e0 91 43 01 	lds	r30, 0x0143
     9c0:	f0 91 44 01 	lds	r31, 0x0144
     9c4:	87 8d       	ldd	r24, Z+31	; 0x1f
}

void Timebase_Token_Add(void){ 
  if( Timebase_Token_Executing() < 63){
     9c6:	8f 33       	cpi	r24, 0x3F	; 63
     9c8:	18 f4       	brcc	.+6      	; 0x9d0 <Timebase_Token_Add+0x14>
    Timebase->ActiveTokens += 1;
     9ca:	87 8d       	ldd	r24, Z+31	; 0x1f
     9cc:	8f 5f       	subi	r24, 0xFF	; 255
     9ce:	87 8f       	std	Z+31, r24	; 0x1f
     9d0:	08 95       	ret

000009d2 <Timebase_Token_Remove>:

/*********************************Token Functions Start*******************************/

#ifdef TIMEBASE_TOKEN_FUNCTIONS
uint8_t Timebase_Token_Executing(void){
  return Timebase->ActiveTokens;
     9d2:	e0 91 43 01 	lds	r30, 0x0143
     9d6:	f0 91 44 01 	lds	r31, 0x0144
     9da:	87 8d       	ldd	r24, Z+31	; 0x1f
    Timebase->ActiveTokens += 1;
  }
}

void Timebase_Token_Remove(void){
  if( Timebase_Token_Executing() > 0){
     9dc:	88 23       	and	r24, r24
     9de:	19 f0       	breq	.+6      	; 0x9e6 <Timebase_Token_Remove+0x14>
    Timebase->ActiveTokens -= 1;
     9e0:	87 8d       	ldd	r24, Z+31	; 0x1f
     9e2:	81 50       	subi	r24, 0x01	; 1
     9e4:	87 8f       	std	Z+31, r24	; 0x1f
     9e6:	08 95       	ret

000009e8 <Timebase_Token_Remove_All>:
  }
}

void Timebase_Token_Remove_All(void){
  Timebase->ActiveTokens = 0;
     9e8:	e0 91 43 01 	lds	r30, 0x0143
     9ec:	f0 91 44 01 	lds	r31, 0x0144
     9f0:	17 8e       	std	Z+31, r1	; 0x1f
}
     9f2:	08 95       	ret

000009f4 <Timebase_Timer_Get_SubSecondsShadow>:


/*****************************Base Timer Functions Start*****************************/

uint16_t Timebase_Timer_Get_SubSecondsShadow(void){
  return Timebase->Time.SubSecondsShadow;
     9f4:	e0 91 43 01 	lds	r30, 0x0143
     9f8:	f0 91 44 01 	lds	r31, 0x0144
     9fc:	26 85       	ldd	r18, Z+14	; 0x0e
     9fe:	37 85       	ldd	r19, Z+15	; 0x0f
}
     a00:	c9 01       	movw	r24, r18
     a02:	08 95       	ret

00000a04 <Timebase_Timer_Get_SecondsShadow>:

int32_t Timebase_Timer_Get_SecondsShadow(void){
  return Timebase->Time.SecondsShadow;
     a04:	e0 91 43 01 	lds	r30, 0x0143
     a08:	f0 91 44 01 	lds	r31, 0x0144
     a0c:	20 89       	ldd	r18, Z+16	; 0x10
     a0e:	31 89       	ldd	r19, Z+17	; 0x11
     a10:	42 89       	ldd	r20, Z+18	; 0x12
     a12:	53 89       	ldd	r21, Z+19	; 0x13
}
     a14:	b9 01       	movw	r22, r18
     a16:	ca 01       	movw	r24, r20
     a18:	08 95       	ret

00000a1a <Timebase_Timer_Get_SubSeconds>:


uint16_t Timebase_Timer_Get_SubSeconds(void){
  return Timebase->Time.SubSeconds;
     a1a:	e0 91 43 01 	lds	r30, 0x0143
     a1e:	f0 91 44 01 	lds	r31, 0x0144
     a22:	20 85       	ldd	r18, Z+8	; 0x08
     a24:	31 85       	ldd	r19, Z+9	; 0x09
}
     a26:	c9 01       	movw	r24, r18
     a28:	08 95       	ret

00000a2a <Timebase_Timer_Get_Seconds>:


int32_t Timebase_Timer_Get_Seconds(void){
  return Timebase->Time.Seconds;
     a2a:	e0 91 43 01 	lds	r30, 0x0143
     a2e:	f0 91 44 01 	lds	r31, 0x0144
     a32:	22 85       	ldd	r18, Z+10	; 0x0a
     a34:	33 85       	ldd	r19, Z+11	; 0x0b
     a36:	44 85       	ldd	r20, Z+12	; 0x0c
     a38:	55 85       	ldd	r21, Z+13	; 0x0d
}
     a3a:	b9 01       	movw	r22, r18
     a3c:	ca 01       	movw	r24, r20
     a3e:	08 95       	ret

00000a40 <Timebase_Timer_Set_SubSeconds>:



void Timebase_Timer_Set_SubSeconds(uint16_t value){
  Timebase->Time.SubSeconds = value;
     a40:	e0 91 43 01 	lds	r30, 0x0143
     a44:	f0 91 44 01 	lds	r31, 0x0144
     a48:	91 87       	std	Z+9, r25	; 0x09
     a4a:	80 87       	std	Z+8, r24	; 0x08
}
     a4c:	08 95       	ret

00000a4e <Timebase_Timer_Set_Seconds>:

void Timebase_Timer_Set_Seconds(int32_t value){
  Timebase->Time.Seconds = value;
     a4e:	e0 91 43 01 	lds	r30, 0x0143
     a52:	f0 91 44 01 	lds	r31, 0x0144
     a56:	62 87       	std	Z+10, r22	; 0x0a
     a58:	73 87       	std	Z+11, r23	; 0x0b
     a5a:	84 87       	std	Z+12, r24	; 0x0c
     a5c:	95 87       	std	Z+13, r25	; 0x0d
}
     a5e:	08 95       	ret

00000a60 <Timebase_Timer_Sync_With_Shadow_Variables>:

void Timebase_Timer_Sync_With_Shadow_Variables(void){
  if(Timebase->Time.VariablesSync == TIMEBASE_FALSE){
     a60:	e0 91 43 01 	lds	r30, 0x0143
     a64:	f0 91 44 01 	lds	r31, 0x0144
     a68:	84 89       	ldd	r24, Z+20	; 0x14
     a6a:	88 23       	and	r24, r24
     a6c:	81 f4       	brne	.+32     	; 0xa8e <Timebase_Timer_Sync_With_Shadow_Variables+0x2e>

/********************************Atomic Functions Start*******************************/


void Timebase_Atomic_Operation_Start(void){
  cli();
     a6e:	f8 94       	cli
void Timebase_Timer_Sync_With_Shadow_Variables(void){
  if(Timebase->Time.VariablesSync == TIMEBASE_FALSE){
  
	#ifdef TIMEBASE_COUNT_ATOMIC_OPERATION
    Timebase_Atomic_Operation_Start();
    Timebase->Time.SubSeconds = Timebase->Time.SubSecondsShadow;
     a70:	86 85       	ldd	r24, Z+14	; 0x0e
     a72:	97 85       	ldd	r25, Z+15	; 0x0f
     a74:	91 87       	std	Z+9, r25	; 0x09
     a76:	80 87       	std	Z+8, r24	; 0x08
    Timebase->Time.Seconds    = Timebase->Time.SecondsShadow;
     a78:	80 89       	ldd	r24, Z+16	; 0x10
     a7a:	91 89       	ldd	r25, Z+17	; 0x11
     a7c:	a2 89       	ldd	r26, Z+18	; 0x12
     a7e:	b3 89       	ldd	r27, Z+19	; 0x13
     a80:	82 87       	std	Z+10, r24	; 0x0a
     a82:	93 87       	std	Z+11, r25	; 0x0b
     a84:	a4 87       	std	Z+12, r26	; 0x0c
     a86:	b5 87       	std	Z+13, r27	; 0x0d
void Timebase_Atomic_Operation_Start(void){
  cli();
}

void Timebase_Atomic_Operation_End(void){
  sei();
     a88:	78 94       	sei
    #warning Shadow Variables Atomic Sync Turned Off
    Timebase->Time.SubSeconds = Timebase->Time.SubSecondsShadow;
    Timebase->Time.Seconds    = Timebase->Time.SecondsShadow;
    #endif
	
	Timebase->Time.VariablesSync = TIMEBASE_TRUE;
     a8a:	81 e0       	ldi	r24, 0x01	; 1
     a8c:	84 8b       	std	Z+20, r24	; 0x14
     a8e:	08 95       	ret

00000a90 <Timebase_Timer_Delay_SubSeconds>:
  }
}

void Timebase_Timer_Delay_SubSeconds(uint16_t value){
     a90:	6f 92       	push	r6
     a92:	7f 92       	push	r7
     a94:	8f 92       	push	r8
     a96:	9f 92       	push	r9
     a98:	af 92       	push	r10
     a9a:	bf 92       	push	r11
     a9c:	cf 92       	push	r12
     a9e:	df 92       	push	r13
     aa0:	ef 92       	push	r14
     aa2:	ff 92       	push	r15
     aa4:	0f 93       	push	r16
     aa6:	1f 93       	push	r17
     aa8:	cf 93       	push	r28
     aaa:	df 93       	push	r29
     aac:	5c 01       	movw	r10, r24

/********************************Atomic Functions Start*******************************/


void Timebase_Atomic_Operation_Start(void){
  cli();
     aae:	f8 94       	cli


/*****************************Base Timer Functions Start*****************************/

uint16_t Timebase_Timer_Get_SubSecondsShadow(void){
  return Timebase->Time.SubSecondsShadow;
     ab0:	c0 91 43 01 	lds	r28, 0x0143
     ab4:	d0 91 44 01 	lds	r29, 0x0144
     ab8:	ee 84       	ldd	r14, Y+14	; 0x0e
     aba:	ff 84       	ldd	r15, Y+15	; 0x0f
}

int32_t Timebase_Timer_Get_SecondsShadow(void){
  return Timebase->Time.SecondsShadow;
     abc:	28 89       	ldd	r18, Y+16	; 0x10
     abe:	39 89       	ldd	r19, Y+17	; 0x11
     ac0:	4a 89       	ldd	r20, Y+18	; 0x12
     ac2:	5b 89       	ldd	r21, Y+19	; 0x13
void Timebase_Atomic_Operation_Start(void){
  cli();
}

void Timebase_Atomic_Operation_End(void){
  sei();
     ac4:	78 94       	sei
  smpl_ss  = Timebase_Timer_Get_SubSecondsShadow();
  smpl_s   = Timebase_Timer_Get_SecondsShadow();
  Timebase_Atomic_Operation_End();
  
  smpl_val  = smpl_s;
  smpl_val *= Timebase->Config.UpdateRate;
     ac6:	69 81       	ldd	r22, Y+1	; 0x01
     ac8:	7a 81       	ldd	r23, Y+2	; 0x02
     aca:	80 e0       	ldi	r24, 0x00	; 0
     acc:	90 e0       	ldi	r25, 0x00	; 0
     ace:	0e 94 ef 18 	call	0x31de	; 0x31de <__mulsi3>
     ad2:	3b 01       	movw	r6, r22
     ad4:	4c 01       	movw	r8, r24
  smpl_val += smpl_ss;
     ad6:	00 e0       	ldi	r16, 0x00	; 0
     ad8:	10 e0       	ldi	r17, 0x00	; 0
     ada:	6e 0c       	add	r6, r14
     adc:	7f 1c       	adc	r7, r15
     ade:	80 1e       	adc	r8, r16
     ae0:	91 1e       	adc	r9, r17
  smpl_val += value;
     ae2:	cc 24       	eor	r12, r12
     ae4:	dd 24       	eor	r13, r13
     ae6:	6a 0c       	add	r6, r10
     ae8:	7b 1c       	adc	r7, r11
     aea:	8c 1c       	adc	r8, r12
     aec:	9d 1c       	adc	r9, r13
     aee:	60 e0       	ldi	r22, 0x00	; 0
     af0:	70 e0       	ldi	r23, 0x00	; 0
     af2:	80 e0       	ldi	r24, 0x00	; 0
     af4:	90 e0       	ldi	r25, 0x00	; 0
     af6:	14 c0       	rjmp	.+40     	; 0xb20 <Timebase_Timer_Delay_SubSeconds+0x90>

/********************************Atomic Functions Start*******************************/


void Timebase_Atomic_Operation_Start(void){
  cli();
     af8:	f8 94       	cli


/*****************************Base Timer Functions Start*****************************/

uint16_t Timebase_Timer_Get_SubSecondsShadow(void){
  return Timebase->Time.SubSecondsShadow;
     afa:	ee 84       	ldd	r14, Y+14	; 0x0e
     afc:	ff 84       	ldd	r15, Y+15	; 0x0f
}

int32_t Timebase_Timer_Get_SecondsShadow(void){
  return Timebase->Time.SecondsShadow;
     afe:	28 89       	ldd	r18, Y+16	; 0x10
     b00:	39 89       	ldd	r19, Y+17	; 0x11
     b02:	4a 89       	ldd	r20, Y+18	; 0x12
     b04:	5b 89       	ldd	r21, Y+19	; 0x13
void Timebase_Atomic_Operation_Start(void){
  cli();
}

void Timebase_Atomic_Operation_End(void){
  sei();
     b06:	78 94       	sei
    Timebase_Atomic_Operation_Start();
    curr_ss   = Timebase_Timer_Get_SubSecondsShadow();
	curr_s    = Timebase_Timer_Get_SecondsShadow();
	Timebase_Atomic_Operation_End();
    curr_val  = curr_s;
	curr_val *= Timebase->Config.UpdateRate;
     b08:	69 81       	ldd	r22, Y+1	; 0x01
     b0a:	7a 81       	ldd	r23, Y+2	; 0x02
     b0c:	80 e0       	ldi	r24, 0x00	; 0
     b0e:	90 e0       	ldi	r25, 0x00	; 0
     b10:	0e 94 ef 18 	call	0x31de	; 0x31de <__mulsi3>
	curr_val += curr_ss;
     b14:	00 e0       	ldi	r16, 0x00	; 0
     b16:	10 e0       	ldi	r17, 0x00	; 0
     b18:	6e 0d       	add	r22, r14
     b1a:	7f 1d       	adc	r23, r15
     b1c:	80 1f       	adc	r24, r16
     b1e:	91 1f       	adc	r25, r17
  smpl_val  = smpl_s;
  smpl_val *= Timebase->Config.UpdateRate;
  smpl_val += smpl_ss;
  smpl_val += value;
  
  while(curr_val<smpl_val){
     b20:	66 15       	cp	r22, r6
     b22:	77 05       	cpc	r23, r7
     b24:	88 05       	cpc	r24, r8
     b26:	99 05       	cpc	r25, r9
     b28:	3c f3       	brlt	.-50     	; 0xaf8 <Timebase_Timer_Delay_SubSeconds+0x68>
    curr_val  = curr_s;
	curr_val *= Timebase->Config.UpdateRate;
	curr_val += curr_ss;
  }
  
}
     b2a:	df 91       	pop	r29
     b2c:	cf 91       	pop	r28
     b2e:	1f 91       	pop	r17
     b30:	0f 91       	pop	r16
     b32:	ff 90       	pop	r15
     b34:	ef 90       	pop	r14
     b36:	df 90       	pop	r13
     b38:	cf 90       	pop	r12
     b3a:	bf 90       	pop	r11
     b3c:	af 90       	pop	r10
     b3e:	9f 90       	pop	r9
     b40:	8f 90       	pop	r8
     b42:	7f 90       	pop	r7
     b44:	6f 90       	pop	r6
     b46:	08 95       	ret

00000b48 <Timebase_Timer_Await_SubSeconds>:


void Timebase_Timer_Await_SubSeconds(uint16_t value){
     b48:	bc 01       	movw	r22, r24

/********************************Atomic Functions Start*******************************/


void Timebase_Atomic_Operation_Start(void){
  cli();
     b4a:	f8 94       	cli


/*****************************Base Timer Functions Start*****************************/

uint16_t Timebase_Timer_Get_SubSecondsShadow(void){
  return Timebase->Time.SubSecondsShadow;
     b4c:	e0 91 43 01 	lds	r30, 0x0143
     b50:	f0 91 44 01 	lds	r31, 0x0144
     b54:	01 c0       	rjmp	.+2      	; 0xb58 <Timebase_Timer_Await_SubSeconds+0x10>

/********************************Atomic Functions Start*******************************/


void Timebase_Atomic_Operation_Start(void){
  cli();
     b56:	f8 94       	cli


/*****************************Base Timer Functions Start*****************************/

uint16_t Timebase_Timer_Get_SubSecondsShadow(void){
  return Timebase->Time.SubSecondsShadow;
     b58:	86 85       	ldd	r24, Z+14	; 0x0e
     b5a:	97 85       	ldd	r25, Z+15	; 0x0f
void Timebase_Atomic_Operation_Start(void){
  cli();
}

void Timebase_Atomic_Operation_End(void){
  sei();
     b5c:	78 94       	sei
void Timebase_Timer_Await_SubSeconds(uint16_t value){
  uint16_t temp=0;
  Timebase_Atomic_Operation_Start();
  temp = Timebase_Timer_Get_SubSecondsShadow();
  Timebase_Atomic_Operation_End();
  while(temp != Timebase->Time.LastSample){
     b5e:	24 81       	ldd	r18, Z+4	; 0x04
     b60:	35 81       	ldd	r19, Z+5	; 0x05
     b62:	46 81       	ldd	r20, Z+6	; 0x06
     b64:	57 81       	ldd	r21, Z+7	; 0x07
     b66:	a0 e0       	ldi	r26, 0x00	; 0
     b68:	b0 e0       	ldi	r27, 0x00	; 0
     b6a:	82 17       	cp	r24, r18
     b6c:	93 07       	cpc	r25, r19
     b6e:	a4 07       	cpc	r26, r20
     b70:	b5 07       	cpc	r27, r21
     b72:	89 f7       	brne	.-30     	; 0xb56 <Timebase_Timer_Await_SubSeconds+0xe>

/********************************Atomic Functions Start*******************************/


void Timebase_Atomic_Operation_Start(void){
  cli();
     b74:	f8 94       	cli


/*****************************Base Timer Functions Start*****************************/

uint16_t Timebase_Timer_Get_SubSecondsShadow(void){
  return Timebase->Time.SubSecondsShadow;
     b76:	86 85       	ldd	r24, Z+14	; 0x0e
     b78:	97 85       	ldd	r25, Z+15	; 0x0f
void Timebase_Atomic_Operation_Start(void){
  cli();
}

void Timebase_Atomic_Operation_End(void){
  sei();
     b7a:	78 94       	sei
    Timebase_Atomic_Operation_End();
  }
  Timebase_Atomic_Operation_Start();
  temp = Timebase_Timer_Get_SubSecondsShadow();
  Timebase_Atomic_Operation_End();
  Timebase->Time.LastSample = temp;
     b7c:	a0 e0       	ldi	r26, 0x00	; 0
     b7e:	b0 e0       	ldi	r27, 0x00	; 0
     b80:	84 83       	std	Z+4, r24	; 0x04
     b82:	95 83       	std	Z+5, r25	; 0x05
     b84:	a6 83       	std	Z+6, r26	; 0x06
     b86:	b7 83       	std	Z+7, r27	; 0x07
  Timebase->Time.LastSample += value;
     b88:	24 81       	ldd	r18, Z+4	; 0x04
     b8a:	35 81       	ldd	r19, Z+5	; 0x05
     b8c:	46 81       	ldd	r20, Z+6	; 0x06
     b8e:	57 81       	ldd	r21, Z+7	; 0x07
     b90:	cb 01       	movw	r24, r22
     b92:	a0 e0       	ldi	r26, 0x00	; 0
     b94:	b0 e0       	ldi	r27, 0x00	; 0
     b96:	82 0f       	add	r24, r18
     b98:	93 1f       	adc	r25, r19
     b9a:	a4 1f       	adc	r26, r20
     b9c:	b5 1f       	adc	r27, r21
     b9e:	84 83       	std	Z+4, r24	; 0x04
     ba0:	95 83       	std	Z+5, r25	; 0x05
     ba2:	a6 83       	std	Z+6, r26	; 0x06
     ba4:	b7 83       	std	Z+7, r27	; 0x07
  if(Timebase->Time.LastSample >= Timebase->Config.UpdateRate){
     ba6:	24 81       	ldd	r18, Z+4	; 0x04
     ba8:	35 81       	ldd	r19, Z+5	; 0x05
     baa:	46 81       	ldd	r20, Z+6	; 0x06
     bac:	57 81       	ldd	r21, Z+7	; 0x07
     bae:	81 81       	ldd	r24, Z+1	; 0x01
     bb0:	92 81       	ldd	r25, Z+2	; 0x02
     bb2:	a0 e0       	ldi	r26, 0x00	; 0
     bb4:	b0 e0       	ldi	r27, 0x00	; 0
     bb6:	28 17       	cp	r18, r24
     bb8:	39 07       	cpc	r19, r25
     bba:	4a 07       	cpc	r20, r26
     bbc:	5b 07       	cpc	r21, r27
     bbe:	84 f0       	brlt	.+32     	; 0xbe0 <Timebase_Timer_Await_SubSeconds+0x98>
    Timebase->Time.LastSample -= Timebase->Config.UpdateRate;
     bc0:	24 81       	ldd	r18, Z+4	; 0x04
     bc2:	35 81       	ldd	r19, Z+5	; 0x05
     bc4:	46 81       	ldd	r20, Z+6	; 0x06
     bc6:	57 81       	ldd	r21, Z+7	; 0x07
     bc8:	81 81       	ldd	r24, Z+1	; 0x01
     bca:	92 81       	ldd	r25, Z+2	; 0x02
     bcc:	a0 e0       	ldi	r26, 0x00	; 0
     bce:	b0 e0       	ldi	r27, 0x00	; 0
     bd0:	28 1b       	sub	r18, r24
     bd2:	39 0b       	sbc	r19, r25
     bd4:	4a 0b       	sbc	r20, r26
     bd6:	5b 0b       	sbc	r21, r27
     bd8:	24 83       	std	Z+4, r18	; 0x04
     bda:	35 83       	std	Z+5, r19	; 0x05
     bdc:	46 83       	std	Z+6, r20	; 0x06
     bde:	57 83       	std	Z+7, r21	; 0x07
     be0:	08 95       	ret

00000be2 <Timebase_Timer_Delay_Seconds>:

/********************************Atomic Functions Start*******************************/


void Timebase_Atomic_Operation_Start(void){
  cli();
     be2:	f8 94       	cli
uint16_t Timebase_Timer_Get_SubSecondsShadow(void){
  return Timebase->Time.SubSecondsShadow;
}

int32_t Timebase_Timer_Get_SecondsShadow(void){
  return Timebase->Time.SecondsShadow;
     be4:	e0 91 43 01 	lds	r30, 0x0143
     be8:	f0 91 44 01 	lds	r31, 0x0144
     bec:	20 89       	ldd	r18, Z+16	; 0x10
     bee:	31 89       	ldd	r19, Z+17	; 0x11
     bf0:	42 89       	ldd	r20, Z+18	; 0x12
     bf2:	53 89       	ldd	r21, Z+19	; 0x13
void Timebase_Atomic_Operation_Start(void){
  cli();
}

void Timebase_Atomic_Operation_End(void){
  sei();
     bf4:	78 94       	sei
void Timebase_Timer_Delay_Seconds(uint16_t value){
  int32_t curr_s = 0, target_s = 0;
  Timebase_Atomic_Operation_Start();
  target_s = Timebase_Timer_Get_SecondsShadow();
  Timebase_Atomic_Operation_End();
  target_s += value;
     bf6:	a0 e0       	ldi	r26, 0x00	; 0
     bf8:	b0 e0       	ldi	r27, 0x00	; 0
     bfa:	82 0f       	add	r24, r18
     bfc:	93 1f       	adc	r25, r19
     bfe:	a4 1f       	adc	r26, r20
     c00:	b5 1f       	adc	r27, r21
     c02:	20 e0       	ldi	r18, 0x00	; 0
     c04:	30 e0       	ldi	r19, 0x00	; 0
     c06:	40 e0       	ldi	r20, 0x00	; 0
     c08:	50 e0       	ldi	r21, 0x00	; 0
     c0a:	06 c0       	rjmp	.+12     	; 0xc18 <Timebase_Timer_Delay_Seconds+0x36>

/********************************Atomic Functions Start*******************************/


void Timebase_Atomic_Operation_Start(void){
  cli();
     c0c:	f8 94       	cli
uint16_t Timebase_Timer_Get_SubSecondsShadow(void){
  return Timebase->Time.SubSecondsShadow;
}

int32_t Timebase_Timer_Get_SecondsShadow(void){
  return Timebase->Time.SecondsShadow;
     c0e:	20 89       	ldd	r18, Z+16	; 0x10
     c10:	31 89       	ldd	r19, Z+17	; 0x11
     c12:	42 89       	ldd	r20, Z+18	; 0x12
     c14:	53 89       	ldd	r21, Z+19	; 0x13
void Timebase_Atomic_Operation_Start(void){
  cli();
}

void Timebase_Atomic_Operation_End(void){
  sei();
     c16:	78 94       	sei
  int32_t curr_s = 0, target_s = 0;
  Timebase_Atomic_Operation_Start();
  target_s = Timebase_Timer_Get_SecondsShadow();
  Timebase_Atomic_Operation_End();
  target_s += value;
  while(target_s > curr_s){
     c18:	28 17       	cp	r18, r24
     c1a:	39 07       	cpc	r19, r25
     c1c:	4a 07       	cpc	r20, r26
     c1e:	5b 07       	cpc	r21, r27
     c20:	ac f3       	brlt	.-22     	; 0xc0c <Timebase_Timer_Delay_Seconds+0x2a>
    Timebase_Atomic_Operation_Start();
    curr_s = Timebase_Timer_Get_SecondsShadow();
	Timebase_Atomic_Operation_End();
  }
}
     c22:	08 95       	ret

00000c24 <Timebase_Window_Timer_Reset>:


void Timebase_Window_Timer_Reset(void){
  Timebase->Time.StartTimeSeconds = 0;
     c24:	e0 91 43 01 	lds	r30, 0x0143
     c28:	f0 91 44 01 	lds	r31, 0x0144
     c2c:	15 8a       	std	Z+21, r1	; 0x15
     c2e:	16 8a       	std	Z+22, r1	; 0x16
     c30:	17 8a       	std	Z+23, r1	; 0x17
     c32:	10 8e       	std	Z+24, r1	; 0x18
  Timebase->Time.StartTimeSubSeconds = 0;
     c34:	11 8e       	std	Z+25, r1	; 0x19
     c36:	12 8e       	std	Z+26, r1	; 0x1a
     c38:	13 8e       	std	Z+27, r1	; 0x1b
     c3a:	14 8e       	std	Z+28, r1	; 0x1c
  Timebase->Time.Status = COUNTER_STATE_RESET;
     c3c:	15 8e       	std	Z+29, r1	; 0x1d
}
     c3e:	08 95       	ret

00000c40 <Timebase_Window_Timer_Start>:

void Timebase_Window_Timer_Start(void){
  if(Timebase->Time.Status == COUNTER_STATE_RESET){
     c40:	e0 91 43 01 	lds	r30, 0x0143
     c44:	f0 91 44 01 	lds	r31, 0x0144
     c48:	85 8d       	ldd	r24, Z+29	; 0x1d
     c4a:	88 23       	and	r24, r24
     c4c:	a1 f4       	brne	.+40     	; 0xc76 <Timebase_Window_Timer_Start+0x36>

/********************************Atomic Functions Start*******************************/


void Timebase_Atomic_Operation_Start(void){
  cli();
     c4e:	f8 94       	cli
uint16_t Timebase_Timer_Get_SubSecondsShadow(void){
  return Timebase->Time.SubSecondsShadow;
}

int32_t Timebase_Timer_Get_SecondsShadow(void){
  return Timebase->Time.SecondsShadow;
     c50:	80 89       	ldd	r24, Z+16	; 0x10
     c52:	91 89       	ldd	r25, Z+17	; 0x11
     c54:	a2 89       	ldd	r26, Z+18	; 0x12
     c56:	b3 89       	ldd	r27, Z+19	; 0x13
}

void Timebase_Window_Timer_Start(void){
  if(Timebase->Time.Status == COUNTER_STATE_RESET){
    Timebase_Atomic_Operation_Start();
    Timebase->Time.StartTimeSeconds = Timebase_Timer_Get_SecondsShadow();
     c58:	85 8b       	std	Z+21, r24	; 0x15
     c5a:	96 8b       	std	Z+22, r25	; 0x16
     c5c:	a7 8b       	std	Z+23, r26	; 0x17
     c5e:	b0 8f       	std	Z+24, r27	; 0x18


/*****************************Base Timer Functions Start*****************************/

uint16_t Timebase_Timer_Get_SubSecondsShadow(void){
  return Timebase->Time.SubSecondsShadow;
     c60:	86 85       	ldd	r24, Z+14	; 0x0e
     c62:	97 85       	ldd	r25, Z+15	; 0x0f

void Timebase_Window_Timer_Start(void){
  if(Timebase->Time.Status == COUNTER_STATE_RESET){
    Timebase_Atomic_Operation_Start();
    Timebase->Time.StartTimeSeconds = Timebase_Timer_Get_SecondsShadow();
    Timebase->Time.StartTimeSubSeconds = Timebase_Timer_Get_SubSecondsShadow();
     c64:	a0 e0       	ldi	r26, 0x00	; 0
     c66:	b0 e0       	ldi	r27, 0x00	; 0
     c68:	81 8f       	std	Z+25, r24	; 0x19
     c6a:	92 8f       	std	Z+26, r25	; 0x1a
     c6c:	a3 8f       	std	Z+27, r26	; 0x1b
     c6e:	b4 8f       	std	Z+28, r27	; 0x1c
void Timebase_Atomic_Operation_Start(void){
  cli();
}

void Timebase_Atomic_Operation_End(void){
  sei();
     c70:	78 94       	sei
  if(Timebase->Time.Status == COUNTER_STATE_RESET){
    Timebase_Atomic_Operation_Start();
    Timebase->Time.StartTimeSeconds = Timebase_Timer_Get_SecondsShadow();
    Timebase->Time.StartTimeSubSeconds = Timebase_Timer_Get_SubSecondsShadow();
	Timebase_Atomic_Operation_End();
    Timebase->Time.Status = COUNTER_STATE_STARTED;
     c72:	81 e0       	ldi	r24, 0x01	; 1
     c74:	85 8f       	std	Z+29, r24	; 0x1d
     c76:	08 95       	ret

00000c78 <Timebase_Window_Timer_Get_Interval>:
  }
}


int32_t Timebase_Window_Timer_Get_Interval(void){
     c78:	ef 92       	push	r14
     c7a:	ff 92       	push	r15
     c7c:	0f 93       	push	r16
     c7e:	1f 93       	push	r17
     c80:	cf 93       	push	r28
     c82:	df 93       	push	r29
  int32_t curr_ss = 0, curr_s = 0;
  if(Timebase->Time.Status == COUNTER_STATE_STARTED){
     c84:	c0 91 43 01 	lds	r28, 0x0143
     c88:	d0 91 44 01 	lds	r29, 0x0144
     c8c:	8d 8d       	ldd	r24, Y+29	; 0x1d
     c8e:	81 30       	cpi	r24, 0x01	; 1
     c90:	21 f0       	breq	.+8      	; 0xc9a <Timebase_Window_Timer_Get_Interval+0x22>
     c92:	ee 24       	eor	r14, r14
     c94:	ff 24       	eor	r15, r15
     c96:	87 01       	movw	r16, r14
     c98:	25 c0       	rjmp	.+74     	; 0xce4 <Timebase_Window_Timer_Get_Interval+0x6c>

/********************************Atomic Functions Start*******************************/


void Timebase_Atomic_Operation_Start(void){
  cli();
     c9a:	f8 94       	cli
uint16_t Timebase_Timer_Get_SubSecondsShadow(void){
  return Timebase->Time.SubSecondsShadow;
}

int32_t Timebase_Timer_Get_SecondsShadow(void){
  return Timebase->Time.SecondsShadow;
     c9c:	28 89       	ldd	r18, Y+16	; 0x10
     c9e:	39 89       	ldd	r19, Y+17	; 0x11
     ca0:	4a 89       	ldd	r20, Y+18	; 0x12
     ca2:	5b 89       	ldd	r21, Y+19	; 0x13


/*****************************Base Timer Functions Start*****************************/

uint16_t Timebase_Timer_Get_SubSecondsShadow(void){
  return Timebase->Time.SubSecondsShadow;
     ca4:	8e 85       	ldd	r24, Y+14	; 0x0e
     ca6:	9f 85       	ldd	r25, Y+15	; 0x0f
int32_t Timebase_Window_Timer_Get_Interval(void){
  int32_t curr_ss = 0, curr_s = 0;
  if(Timebase->Time.Status == COUNTER_STATE_STARTED){
    Timebase_Atomic_Operation_Start();
    curr_s = Timebase_Timer_Get_SecondsShadow();
    curr_ss = Timebase_Timer_Get_SubSecondsShadow();
     ca8:	7c 01       	movw	r14, r24
     caa:	00 e0       	ldi	r16, 0x00	; 0
     cac:	10 e0       	ldi	r17, 0x00	; 0
void Timebase_Atomic_Operation_Start(void){
  cli();
}

void Timebase_Atomic_Operation_End(void){
  sei();
     cae:	78 94       	sei
  if(Timebase->Time.Status == COUNTER_STATE_STARTED){
    Timebase_Atomic_Operation_Start();
    curr_s = Timebase_Timer_Get_SecondsShadow();
    curr_ss = Timebase_Timer_Get_SubSecondsShadow();
	Timebase_Atomic_Operation_End();
	curr_s -= Timebase->Time.StartTimeSeconds;
     cb0:	8d 89       	ldd	r24, Y+21	; 0x15
     cb2:	9e 89       	ldd	r25, Y+22	; 0x16
     cb4:	af 89       	ldd	r26, Y+23	; 0x17
     cb6:	b8 8d       	ldd	r27, Y+24	; 0x18
     cb8:	28 1b       	sub	r18, r24
     cba:	39 0b       	sbc	r19, r25
     cbc:	4a 0b       	sbc	r20, r26
     cbe:	5b 0b       	sbc	r21, r27
	curr_ss -= Timebase->Time.StartTimeSubSeconds;
	curr_s *= Timebase->Config.UpdateRate;
     cc0:	69 81       	ldd	r22, Y+1	; 0x01
     cc2:	7a 81       	ldd	r23, Y+2	; 0x02
     cc4:	80 e0       	ldi	r24, 0x00	; 0
     cc6:	90 e0       	ldi	r25, 0x00	; 0
     cc8:	0e 94 ef 18 	call	0x31de	; 0x31de <__mulsi3>
	curr_s += curr_ss;
     ccc:	29 8d       	ldd	r18, Y+25	; 0x19
     cce:	3a 8d       	ldd	r19, Y+26	; 0x1a
     cd0:	4b 8d       	ldd	r20, Y+27	; 0x1b
     cd2:	5c 8d       	ldd	r21, Y+28	; 0x1c
     cd4:	e2 1a       	sub	r14, r18
     cd6:	f3 0a       	sbc	r15, r19
     cd8:	04 0b       	sbc	r16, r20
     cda:	15 0b       	sbc	r17, r21
     cdc:	e6 0e       	add	r14, r22
     cde:	f7 1e       	adc	r15, r23
     ce0:	08 1f       	adc	r16, r24
     ce2:	19 1f       	adc	r17, r25
	return curr_s;
  }else{
    return 0;
  }
}
     ce4:	b7 01       	movw	r22, r14
     ce6:	c8 01       	movw	r24, r16
     ce8:	df 91       	pop	r29
     cea:	cf 91       	pop	r28
     cec:	1f 91       	pop	r17
     cee:	0f 91       	pop	r16
     cf0:	ff 90       	pop	r15
     cf2:	ef 90       	pop	r14
     cf4:	08 95       	ret

00000cf6 <Timebase_Window_Timer_Get_Interval_Reset>:

int32_t Timebase_Window_Timer_Get_Interval_Reset(void){
  int32_t val=Timebase_Window_Timer_Get_Interval();
     cf6:	0e 94 3c 06 	call	0xc78	; 0xc78 <Timebase_Window_Timer_Get_Interval>
     cfa:	28 2f       	mov	r18, r24
  if(Timebase->Time.Status == COUNTER_STATE_STARTED){
     cfc:	e0 91 43 01 	lds	r30, 0x0143
     d00:	f0 91 44 01 	lds	r31, 0x0144
     d04:	85 8d       	ldd	r24, Z+29	; 0x1d
     d06:	81 30       	cpi	r24, 0x01	; 1
     d08:	49 f4       	brne	.+18     	; 0xd1c <Timebase_Window_Timer_Get_Interval_Reset+0x26>
  }
}


void Timebase_Window_Timer_Reset(void){
  Timebase->Time.StartTimeSeconds = 0;
     d0a:	15 8a       	std	Z+21, r1	; 0x15
     d0c:	16 8a       	std	Z+22, r1	; 0x16
     d0e:	17 8a       	std	Z+23, r1	; 0x17
     d10:	10 8e       	std	Z+24, r1	; 0x18
  Timebase->Time.StartTimeSubSeconds = 0;
     d12:	11 8e       	std	Z+25, r1	; 0x19
     d14:	12 8e       	std	Z+26, r1	; 0x1a
     d16:	13 8e       	std	Z+27, r1	; 0x1b
     d18:	14 8e       	std	Z+28, r1	; 0x1c
  Timebase->Time.Status = COUNTER_STATE_RESET;
     d1a:	15 8e       	std	Z+29, r1	; 0x1d
  int32_t val=Timebase_Window_Timer_Get_Interval();
  if(Timebase->Time.Status == COUNTER_STATE_STARTED){
    Timebase_Window_Timer_Reset();
  }
  return val;
}
     d1c:	82 2f       	mov	r24, r18
     d1e:	08 95       	ret

00000d20 <Timebase_UpCounter_SS_Get_Status>:


/****************************UpCounter SS Functions Start****************************/

#ifdef TIMEBASE_UPCOUNTER_SUBSECONDS
uint8_t Timebase_UpCounter_SS_Get_Status(uint8_t window){
     d20:	e0 91 43 01 	lds	r30, 0x0143
     d24:	f0 91 44 01 	lds	r31, 0x0144
     d28:	90 e0       	ldi	r25, 0x00	; 0
     d2a:	29 e1       	ldi	r18, 0x19	; 25
     d2c:	30 e0       	ldi	r19, 0x00	; 0
     d2e:	ac 01       	movw	r20, r24
     d30:	42 9f       	mul	r20, r18
     d32:	c0 01       	movw	r24, r0
     d34:	43 9f       	mul	r20, r19
     d36:	90 0d       	add	r25, r0
     d38:	52 9f       	mul	r21, r18
     d3a:	90 0d       	add	r25, r0
     d3c:	11 24       	eor	r1, r1
     d3e:	e8 0f       	add	r30, r24
     d40:	f9 1f       	adc	r31, r25
     d42:	80 a1       	ldd	r24, Z+32	; 0x20
     d44:	86 95       	lsr	r24
  return Timebase->UpCounterSS[window].Status.Value;
}
     d46:	8f 70       	andi	r24, 0x0F	; 15
     d48:	08 95       	ret

00000d4a <Timebase_UpCounter_SS_Set_Status>:

void Timebase_UpCounter_SS_Set_Status(uint8_t window, uint8_t value){
  Timebase->UpCounterSS[window].Status.Value = value;
     d4a:	e0 91 43 01 	lds	r30, 0x0143
     d4e:	f0 91 44 01 	lds	r31, 0x0144
     d52:	90 e0       	ldi	r25, 0x00	; 0
     d54:	29 e1       	ldi	r18, 0x19	; 25
     d56:	30 e0       	ldi	r19, 0x00	; 0
     d58:	ac 01       	movw	r20, r24
     d5a:	42 9f       	mul	r20, r18
     d5c:	c0 01       	movw	r24, r0
     d5e:	43 9f       	mul	r20, r19
     d60:	90 0d       	add	r25, r0
     d62:	52 9f       	mul	r21, r18
     d64:	90 0d       	add	r25, r0
     d66:	11 24       	eor	r1, r1
     d68:	e8 0f       	add	r30, r24
     d6a:	f9 1f       	adc	r31, r25
     d6c:	6f 70       	andi	r22, 0x0F	; 15
     d6e:	66 0f       	add	r22, r22
     d70:	80 a1       	ldd	r24, Z+32	; 0x20
     d72:	81 7e       	andi	r24, 0xE1	; 225
     d74:	86 2b       	or	r24, r22
     d76:	80 a3       	std	Z+32, r24	; 0x20
}
     d78:	08 95       	ret

00000d7a <Timebase_UpCounter_SS_Get_Value>:

int32_t Timebase_UpCounter_SS_Get_Value(uint8_t window){
     d7a:	e0 91 43 01 	lds	r30, 0x0143
     d7e:	f0 91 44 01 	lds	r31, 0x0144
     d82:	90 e0       	ldi	r25, 0x00	; 0
     d84:	29 e1       	ldi	r18, 0x19	; 25
     d86:	30 e0       	ldi	r19, 0x00	; 0
     d88:	ac 01       	movw	r20, r24
     d8a:	42 9f       	mul	r20, r18
     d8c:	c0 01       	movw	r24, r0
     d8e:	43 9f       	mul	r20, r19
     d90:	90 0d       	add	r25, r0
     d92:	52 9f       	mul	r21, r18
     d94:	90 0d       	add	r25, r0
     d96:	11 24       	eor	r1, r1
     d98:	e8 0f       	add	r30, r24
     d9a:	f9 1f       	adc	r31, r25
     d9c:	df 01       	movw	r26, r30
     d9e:	d1 96       	adiw	r26, 0x31	; 49
     da0:	61 a9       	ldd	r22, Z+49	; 0x31
     da2:	11 96       	adiw	r26, 0x01	; 1
     da4:	7c 91       	ld	r23, X
     da6:	11 97       	sbiw	r26, 0x01	; 1
  return Timebase->UpCounterSS[window].Value;
}
     da8:	12 96       	adiw	r26, 0x02	; 2
     daa:	8c 91       	ld	r24, X
     dac:	12 97       	sbiw	r26, 0x02	; 2
     dae:	13 96       	adiw	r26, 0x03	; 3
     db0:	9c 91       	ld	r25, X
     db2:	08 95       	ret

00000db4 <Timebase_UpCounter_SS_Set_Value>:

void Timebase_UpCounter_SS_Set_Value(uint8_t window, int32_t value){
     db4:	cf 93       	push	r28
     db6:	df 93       	push	r29
  if(value < 0){
    value = 0;
  }
  Timebase->UpCounterSS[window].Value = value;
     db8:	c0 91 43 01 	lds	r28, 0x0143
     dbc:	d0 91 44 01 	lds	r29, 0x0144
     dc0:	90 e0       	ldi	r25, 0x00	; 0
     dc2:	29 e1       	ldi	r18, 0x19	; 25
     dc4:	30 e0       	ldi	r19, 0x00	; 0
     dc6:	fc 01       	movw	r30, r24
     dc8:	e2 9f       	mul	r30, r18
     dca:	c0 01       	movw	r24, r0
     dcc:	e3 9f       	mul	r30, r19
     dce:	90 0d       	add	r25, r0
     dd0:	f2 9f       	mul	r31, r18
     dd2:	90 0d       	add	r25, r0
     dd4:	11 24       	eor	r1, r1
     dd6:	c8 0f       	add	r28, r24
     dd8:	d9 1f       	adc	r29, r25
     dda:	ca 01       	movw	r24, r20
     ddc:	db 01       	movw	r26, r22
     dde:	b7 ff       	sbrs	r27, 7
     de0:	04 c0       	rjmp	.+8      	; 0xdea <Timebase_UpCounter_SS_Set_Value+0x36>
     de2:	80 e0       	ldi	r24, 0x00	; 0
     de4:	90 e0       	ldi	r25, 0x00	; 0
     de6:	a0 e0       	ldi	r26, 0x00	; 0
     de8:	b0 e0       	ldi	r27, 0x00	; 0
     dea:	89 ab       	std	Y+49, r24	; 0x31
     dec:	9a ab       	std	Y+50, r25	; 0x32
     dee:	ab ab       	std	Y+51, r26	; 0x33
     df0:	bc ab       	std	Y+52, r27	; 0x34
}
     df2:	df 91       	pop	r29
     df4:	cf 91       	pop	r28
     df6:	08 95       	ret

00000df8 <Timebase_UpCounter_SS_Get_EndValueSec>:

int32_t Timebase_UpCounter_SS_Get_EndValueSec(uint8_t window){
     df8:	e0 91 43 01 	lds	r30, 0x0143
     dfc:	f0 91 44 01 	lds	r31, 0x0144
     e00:	90 e0       	ldi	r25, 0x00	; 0
     e02:	29 e1       	ldi	r18, 0x19	; 25
     e04:	30 e0       	ldi	r19, 0x00	; 0
     e06:	ac 01       	movw	r20, r24
     e08:	42 9f       	mul	r20, r18
     e0a:	c0 01       	movw	r24, r0
     e0c:	43 9f       	mul	r20, r19
     e0e:	90 0d       	add	r25, r0
     e10:	52 9f       	mul	r21, r18
     e12:	90 0d       	add	r25, r0
     e14:	11 24       	eor	r1, r1
     e16:	e8 0f       	add	r30, r24
     e18:	f9 1f       	adc	r31, r25
     e1a:	df 01       	movw	r26, r30
     e1c:	91 96       	adiw	r26, 0x21	; 33
     e1e:	61 a1       	ldd	r22, Z+33	; 0x21
     e20:	11 96       	adiw	r26, 0x01	; 1
     e22:	7c 91       	ld	r23, X
     e24:	11 97       	sbiw	r26, 0x01	; 1
  return Timebase->UpCounterSS[window].EndValueSec;
}
     e26:	12 96       	adiw	r26, 0x02	; 2
     e28:	8c 91       	ld	r24, X
     e2a:	12 97       	sbiw	r26, 0x02	; 2
     e2c:	13 96       	adiw	r26, 0x03	; 3
     e2e:	9c 91       	ld	r25, X
     e30:	08 95       	ret

00000e32 <Timebase_UpCounter_SS_Get_EndValueSubSec>:

int32_t Timebase_UpCounter_SS_Get_EndValueSubSec(uint8_t window){
     e32:	e0 91 43 01 	lds	r30, 0x0143
     e36:	f0 91 44 01 	lds	r31, 0x0144
     e3a:	90 e0       	ldi	r25, 0x00	; 0
     e3c:	29 e1       	ldi	r18, 0x19	; 25
     e3e:	30 e0       	ldi	r19, 0x00	; 0
     e40:	ac 01       	movw	r20, r24
     e42:	42 9f       	mul	r20, r18
     e44:	c0 01       	movw	r24, r0
     e46:	43 9f       	mul	r20, r19
     e48:	90 0d       	add	r25, r0
     e4a:	52 9f       	mul	r21, r18
     e4c:	90 0d       	add	r25, r0
     e4e:	11 24       	eor	r1, r1
     e50:	e8 0f       	add	r30, r24
     e52:	f9 1f       	adc	r31, r25
     e54:	df 01       	movw	r26, r30
     e56:	95 96       	adiw	r26, 0x25	; 37
     e58:	65 a1       	ldd	r22, Z+37	; 0x25
     e5a:	11 96       	adiw	r26, 0x01	; 1
     e5c:	7c 91       	ld	r23, X
     e5e:	11 97       	sbiw	r26, 0x01	; 1
  return Timebase->UpCounterSS[window].EndValueSubSec;
}
     e60:	12 96       	adiw	r26, 0x02	; 2
     e62:	8c 91       	ld	r24, X
     e64:	12 97       	sbiw	r26, 0x02	; 2
     e66:	13 96       	adiw	r26, 0x03	; 3
     e68:	9c 91       	ld	r25, X
     e6a:	08 95       	ret

00000e6c <Timebase_UpCounter_SS_Set_EndValueSec>:

void Timebase_UpCounter_SS_Set_EndValueSec(uint8_t window, int32_t value){
  Timebase->UpCounterSS[window].EndValueSec = value;
     e6c:	e0 91 43 01 	lds	r30, 0x0143
     e70:	f0 91 44 01 	lds	r31, 0x0144
     e74:	90 e0       	ldi	r25, 0x00	; 0
     e76:	29 e1       	ldi	r18, 0x19	; 25
     e78:	30 e0       	ldi	r19, 0x00	; 0
     e7a:	dc 01       	movw	r26, r24
     e7c:	a2 9f       	mul	r26, r18
     e7e:	c0 01       	movw	r24, r0
     e80:	a3 9f       	mul	r26, r19
     e82:	90 0d       	add	r25, r0
     e84:	b2 9f       	mul	r27, r18
     e86:	90 0d       	add	r25, r0
     e88:	11 24       	eor	r1, r1
     e8a:	e8 0f       	add	r30, r24
     e8c:	f9 1f       	adc	r31, r25
     e8e:	41 a3       	std	Z+33, r20	; 0x21
     e90:	52 a3       	std	Z+34, r21	; 0x22
     e92:	63 a3       	std	Z+35, r22	; 0x23
     e94:	74 a3       	std	Z+36, r23	; 0x24
}
     e96:	08 95       	ret

00000e98 <Timebase_UpCounter_SS_Set_EndValueSubSec>:

void Timebase_UpCounter_SS_Set_EndValueSubSec(uint8_t window, int32_t value){
  Timebase->UpCounterSS[window].EndValueSubSec = value;
     e98:	e0 91 43 01 	lds	r30, 0x0143
     e9c:	f0 91 44 01 	lds	r31, 0x0144
     ea0:	90 e0       	ldi	r25, 0x00	; 0
     ea2:	29 e1       	ldi	r18, 0x19	; 25
     ea4:	30 e0       	ldi	r19, 0x00	; 0
     ea6:	dc 01       	movw	r26, r24
     ea8:	a2 9f       	mul	r26, r18
     eaa:	c0 01       	movw	r24, r0
     eac:	a3 9f       	mul	r26, r19
     eae:	90 0d       	add	r25, r0
     eb0:	b2 9f       	mul	r27, r18
     eb2:	90 0d       	add	r25, r0
     eb4:	11 24       	eor	r1, r1
     eb6:	e8 0f       	add	r30, r24
     eb8:	f9 1f       	adc	r31, r25
     eba:	45 a3       	std	Z+37, r20	; 0x25
     ebc:	56 a3       	std	Z+38, r21	; 0x26
     ebe:	67 a3       	std	Z+39, r22	; 0x27
     ec0:	70 a7       	std	Z+40, r23	; 0x28
}
     ec2:	08 95       	ret

00000ec4 <Timebase_UpCounter_SS_Get_TargetValue>:

int32_t Timebase_UpCounter_SS_Get_TargetValue(uint8_t window){
     ec4:	e0 91 43 01 	lds	r30, 0x0143
     ec8:	f0 91 44 01 	lds	r31, 0x0144
     ecc:	90 e0       	ldi	r25, 0x00	; 0
     ece:	29 e1       	ldi	r18, 0x19	; 25
     ed0:	30 e0       	ldi	r19, 0x00	; 0
     ed2:	ac 01       	movw	r20, r24
     ed4:	42 9f       	mul	r20, r18
     ed6:	c0 01       	movw	r24, r0
     ed8:	43 9f       	mul	r20, r19
     eda:	90 0d       	add	r25, r0
     edc:	52 9f       	mul	r21, r18
     ede:	90 0d       	add	r25, r0
     ee0:	11 24       	eor	r1, r1
     ee2:	e8 0f       	add	r30, r24
     ee4:	f9 1f       	adc	r31, r25
     ee6:	df 01       	movw	r26, r30
     ee8:	99 96       	adiw	r26, 0x29	; 41
     eea:	61 a5       	ldd	r22, Z+41	; 0x29
     eec:	11 96       	adiw	r26, 0x01	; 1
     eee:	7c 91       	ld	r23, X
     ef0:	11 97       	sbiw	r26, 0x01	; 1
  return Timebase->UpCounterSS[window].Target;
}
     ef2:	12 96       	adiw	r26, 0x02	; 2
     ef4:	8c 91       	ld	r24, X
     ef6:	12 97       	sbiw	r26, 0x02	; 2
     ef8:	13 96       	adiw	r26, 0x03	; 3
     efa:	9c 91       	ld	r25, X
     efc:	08 95       	ret

00000efe <Timebase_UpCounter_SS_Set_TargetValue>:

void Timebase_UpCounter_SS_Set_TargetValue(uint8_t window, int32_t value){
  Timebase->UpCounterSS[window].Target = value;
     efe:	e0 91 43 01 	lds	r30, 0x0143
     f02:	f0 91 44 01 	lds	r31, 0x0144
     f06:	90 e0       	ldi	r25, 0x00	; 0
     f08:	29 e1       	ldi	r18, 0x19	; 25
     f0a:	30 e0       	ldi	r19, 0x00	; 0
     f0c:	dc 01       	movw	r26, r24
     f0e:	a2 9f       	mul	r26, r18
     f10:	c0 01       	movw	r24, r0
     f12:	a3 9f       	mul	r26, r19
     f14:	90 0d       	add	r25, r0
     f16:	b2 9f       	mul	r27, r18
     f18:	90 0d       	add	r25, r0
     f1a:	11 24       	eor	r1, r1
     f1c:	e8 0f       	add	r30, r24
     f1e:	f9 1f       	adc	r31, r25
     f20:	41 a7       	std	Z+41, r20	; 0x29
     f22:	52 a7       	std	Z+42, r21	; 0x2a
     f24:	63 a7       	std	Z+43, r22	; 0x2b
     f26:	74 a7       	std	Z+44, r23	; 0x2c
}
     f28:	08 95       	ret

00000f2a <Timebase_UpCounter_SS_Get_TemporaryValue>:

int32_t Timebase_UpCounter_SS_Get_TemporaryValue(uint8_t window){
     f2a:	e0 91 43 01 	lds	r30, 0x0143
     f2e:	f0 91 44 01 	lds	r31, 0x0144
     f32:	90 e0       	ldi	r25, 0x00	; 0
     f34:	29 e1       	ldi	r18, 0x19	; 25
     f36:	30 e0       	ldi	r19, 0x00	; 0
     f38:	ac 01       	movw	r20, r24
     f3a:	42 9f       	mul	r20, r18
     f3c:	c0 01       	movw	r24, r0
     f3e:	43 9f       	mul	r20, r19
     f40:	90 0d       	add	r25, r0
     f42:	52 9f       	mul	r21, r18
     f44:	90 0d       	add	r25, r0
     f46:	11 24       	eor	r1, r1
     f48:	e8 0f       	add	r30, r24
     f4a:	f9 1f       	adc	r31, r25
     f4c:	df 01       	movw	r26, r30
     f4e:	9d 96       	adiw	r26, 0x2d	; 45
     f50:	65 a5       	ldd	r22, Z+45	; 0x2d
     f52:	11 96       	adiw	r26, 0x01	; 1
     f54:	7c 91       	ld	r23, X
     f56:	11 97       	sbiw	r26, 0x01	; 1
  return Timebase->UpCounterSS[window].Temporary;
}
     f58:	12 96       	adiw	r26, 0x02	; 2
     f5a:	8c 91       	ld	r24, X
     f5c:	12 97       	sbiw	r26, 0x02	; 2
     f5e:	13 96       	adiw	r26, 0x03	; 3
     f60:	9c 91       	ld	r25, X
     f62:	08 95       	ret

00000f64 <Timebase_UpCounter_SS_Set_TemporaryValue>:

void Timebase_UpCounter_SS_Set_TemporaryValue(uint8_t window, int32_t value){
     f64:	cf 93       	push	r28
     f66:	df 93       	push	r29
  if(value<0){
    value = 0;
  }
  Timebase->UpCounterSS[window].Temporary = value;
     f68:	c0 91 43 01 	lds	r28, 0x0143
     f6c:	d0 91 44 01 	lds	r29, 0x0144
     f70:	90 e0       	ldi	r25, 0x00	; 0
     f72:	29 e1       	ldi	r18, 0x19	; 25
     f74:	30 e0       	ldi	r19, 0x00	; 0
     f76:	fc 01       	movw	r30, r24
     f78:	e2 9f       	mul	r30, r18
     f7a:	c0 01       	movw	r24, r0
     f7c:	e3 9f       	mul	r30, r19
     f7e:	90 0d       	add	r25, r0
     f80:	f2 9f       	mul	r31, r18
     f82:	90 0d       	add	r25, r0
     f84:	11 24       	eor	r1, r1
     f86:	c8 0f       	add	r28, r24
     f88:	d9 1f       	adc	r29, r25
     f8a:	ca 01       	movw	r24, r20
     f8c:	db 01       	movw	r26, r22
     f8e:	b7 ff       	sbrs	r27, 7
     f90:	04 c0       	rjmp	.+8      	; 0xf9a <Timebase_UpCounter_SS_Set_TemporaryValue+0x36>
     f92:	80 e0       	ldi	r24, 0x00	; 0
     f94:	90 e0       	ldi	r25, 0x00	; 0
     f96:	a0 e0       	ldi	r26, 0x00	; 0
     f98:	b0 e0       	ldi	r27, 0x00	; 0
     f9a:	8d a7       	std	Y+45, r24	; 0x2d
     f9c:	9e a7       	std	Y+46, r25	; 0x2e
     f9e:	af a7       	std	Y+47, r26	; 0x2f
     fa0:	b8 ab       	std	Y+48, r27	; 0x30
}
     fa2:	df 91       	pop	r29
     fa4:	cf 91       	pop	r28
     fa6:	08 95       	ret

00000fa8 <Timebase_UpCounter_SS_Get_PeriodValue>:

int32_t Timebase_UpCounter_SS_Get_PeriodValue(uint8_t window){
     fa8:	e0 91 43 01 	lds	r30, 0x0143
     fac:	f0 91 44 01 	lds	r31, 0x0144
     fb0:	90 e0       	ldi	r25, 0x00	; 0
     fb2:	29 e1       	ldi	r18, 0x19	; 25
     fb4:	30 e0       	ldi	r19, 0x00	; 0
     fb6:	ac 01       	movw	r20, r24
     fb8:	42 9f       	mul	r20, r18
     fba:	c0 01       	movw	r24, r0
     fbc:	43 9f       	mul	r20, r19
     fbe:	90 0d       	add	r25, r0
     fc0:	52 9f       	mul	r21, r18
     fc2:	90 0d       	add	r25, r0
     fc4:	11 24       	eor	r1, r1
     fc6:	e8 0f       	add	r30, r24
     fc8:	f9 1f       	adc	r31, r25
     fca:	df 01       	movw	r26, r30
     fcc:	d5 96       	adiw	r26, 0x35	; 53
     fce:	65 a9       	ldd	r22, Z+53	; 0x35
     fd0:	11 96       	adiw	r26, 0x01	; 1
     fd2:	7c 91       	ld	r23, X
     fd4:	11 97       	sbiw	r26, 0x01	; 1
  return Timebase->UpCounterSS[window].PeriodValue;
}
     fd6:	12 96       	adiw	r26, 0x02	; 2
     fd8:	8c 91       	ld	r24, X
     fda:	12 97       	sbiw	r26, 0x02	; 2
     fdc:	13 96       	adiw	r26, 0x03	; 3
     fde:	9c 91       	ld	r25, X
     fe0:	08 95       	ret

00000fe2 <Timebase_UpCounter_SS_Set_PeriodValue>:

void Timebase_UpCounter_SS_Set_PeriodValue(uint8_t window, int32_t value){
  Timebase->UpCounterSS[window].PeriodValue = value;
     fe2:	e0 91 43 01 	lds	r30, 0x0143
     fe6:	f0 91 44 01 	lds	r31, 0x0144
     fea:	90 e0       	ldi	r25, 0x00	; 0
     fec:	29 e1       	ldi	r18, 0x19	; 25
     fee:	30 e0       	ldi	r19, 0x00	; 0
     ff0:	dc 01       	movw	r26, r24
     ff2:	a2 9f       	mul	r26, r18
     ff4:	c0 01       	movw	r24, r0
     ff6:	a3 9f       	mul	r26, r19
     ff8:	90 0d       	add	r25, r0
     ffa:	b2 9f       	mul	r27, r18
     ffc:	90 0d       	add	r25, r0
     ffe:	11 24       	eor	r1, r1
    1000:	e8 0f       	add	r30, r24
    1002:	f9 1f       	adc	r31, r25
    1004:	45 ab       	std	Z+53, r20	; 0x35
    1006:	56 ab       	std	Z+54, r21	; 0x36
    1008:	67 ab       	std	Z+55, r22	; 0x37
    100a:	70 af       	std	Z+56, r23	; 0x38
}
    100c:	08 95       	ret

0000100e <Timebase_UpCounter_SS_Get_Period_Flag>:

uint8_t Timebase_UpCounter_SS_Get_Period_Flag(uint8_t window){
    100e:	e0 91 43 01 	lds	r30, 0x0143
    1012:	f0 91 44 01 	lds	r31, 0x0144
    1016:	90 e0       	ldi	r25, 0x00	; 0
    1018:	29 e1       	ldi	r18, 0x19	; 25
    101a:	30 e0       	ldi	r19, 0x00	; 0
    101c:	ac 01       	movw	r20, r24
    101e:	42 9f       	mul	r20, r18
    1020:	c0 01       	movw	r24, r0
    1022:	43 9f       	mul	r20, r19
    1024:	90 0d       	add	r25, r0
    1026:	52 9f       	mul	r21, r18
    1028:	90 0d       	add	r25, r0
    102a:	11 24       	eor	r1, r1
    102c:	e8 0f       	add	r30, r24
    102e:	f9 1f       	adc	r31, r25
    1030:	80 a1       	ldd	r24, Z+32	; 0x20
  return Timebase->UpCounterSS[window].Status.PeriodFlag;
}
    1032:	81 70       	andi	r24, 0x01	; 1
    1034:	08 95       	ret

00001036 <Timebase_UpCounter_SS_Set_Period_Flag>:

void Timebase_UpCounter_SS_Set_Period_Flag(uint8_t window){
  Timebase->UpCounterSS[window].Status.PeriodFlag = FLAG_STATE_SET;
    1036:	e0 91 43 01 	lds	r30, 0x0143
    103a:	f0 91 44 01 	lds	r31, 0x0144
    103e:	90 e0       	ldi	r25, 0x00	; 0
    1040:	29 e1       	ldi	r18, 0x19	; 25
    1042:	30 e0       	ldi	r19, 0x00	; 0
    1044:	ac 01       	movw	r20, r24
    1046:	42 9f       	mul	r20, r18
    1048:	c0 01       	movw	r24, r0
    104a:	43 9f       	mul	r20, r19
    104c:	90 0d       	add	r25, r0
    104e:	52 9f       	mul	r21, r18
    1050:	90 0d       	add	r25, r0
    1052:	11 24       	eor	r1, r1
    1054:	e8 0f       	add	r30, r24
    1056:	f9 1f       	adc	r31, r25
    1058:	80 a1       	ldd	r24, Z+32	; 0x20
    105a:	81 60       	ori	r24, 0x01	; 1
    105c:	80 a3       	std	Z+32, r24	; 0x20
}
    105e:	08 95       	ret

00001060 <Timebase_UpCounter_SS_Clear_Period_Flag>:

void Timebase_UpCounter_SS_Clear_Period_Flag(uint8_t window){
  Timebase->UpCounterSS[window].Status.PeriodFlag = FLAG_STATE_RESET;
    1060:	e0 91 43 01 	lds	r30, 0x0143
    1064:	f0 91 44 01 	lds	r31, 0x0144
    1068:	90 e0       	ldi	r25, 0x00	; 0
    106a:	29 e1       	ldi	r18, 0x19	; 25
    106c:	30 e0       	ldi	r19, 0x00	; 0
    106e:	ac 01       	movw	r20, r24
    1070:	42 9f       	mul	r20, r18
    1072:	c0 01       	movw	r24, r0
    1074:	43 9f       	mul	r20, r19
    1076:	90 0d       	add	r25, r0
    1078:	52 9f       	mul	r21, r18
    107a:	90 0d       	add	r25, r0
    107c:	11 24       	eor	r1, r1
    107e:	e8 0f       	add	r30, r24
    1080:	f9 1f       	adc	r31, r25
    1082:	80 a1       	ldd	r24, Z+32	; 0x20
    1084:	8e 7f       	andi	r24, 0xFE	; 254
    1086:	80 a3       	std	Z+32, r24	; 0x20
}
    1088:	08 95       	ret

0000108a <Timebase_UpCounter_SS_Reset>:
uint8_t Timebase_UpCounter_SS_Get_Status(uint8_t window){
  return Timebase->UpCounterSS[window].Status.Value;
}

void Timebase_UpCounter_SS_Set_Status(uint8_t window, uint8_t value){
  Timebase->UpCounterSS[window].Status.Value = value;
    108a:	e0 91 43 01 	lds	r30, 0x0143
    108e:	f0 91 44 01 	lds	r31, 0x0144
    1092:	90 e0       	ldi	r25, 0x00	; 0
    1094:	29 e1       	ldi	r18, 0x19	; 25
    1096:	30 e0       	ldi	r19, 0x00	; 0
    1098:	ac 01       	movw	r20, r24
    109a:	42 9f       	mul	r20, r18
    109c:	c0 01       	movw	r24, r0
    109e:	43 9f       	mul	r20, r19
    10a0:	90 0d       	add	r25, r0
    10a2:	52 9f       	mul	r21, r18
    10a4:	90 0d       	add	r25, r0
    10a6:	11 24       	eor	r1, r1
    10a8:	e8 0f       	add	r30, r24
    10aa:	f9 1f       	adc	r31, r25
    10ac:	80 a1       	ldd	r24, Z+32	; 0x20

void Timebase_UpCounter_SS_Set_Value(uint8_t window, int32_t value){
  if(value < 0){
    value = 0;
  }
  Timebase->UpCounterSS[window].Value = value;
    10ae:	11 aa       	std	Z+49, r1	; 0x31
    10b0:	12 aa       	std	Z+50, r1	; 0x32
    10b2:	13 aa       	std	Z+51, r1	; 0x33
    10b4:	14 aa       	std	Z+52, r1	; 0x34
int32_t Timebase_UpCounter_SS_Get_EndValueSubSec(uint8_t window){
  return Timebase->UpCounterSS[window].EndValueSubSec;
}

void Timebase_UpCounter_SS_Set_EndValueSec(uint8_t window, int32_t value){
  Timebase->UpCounterSS[window].EndValueSec = value;
    10b6:	11 a2       	std	Z+33, r1	; 0x21
    10b8:	12 a2       	std	Z+34, r1	; 0x22
    10ba:	13 a2       	std	Z+35, r1	; 0x23
    10bc:	14 a2       	std	Z+36, r1	; 0x24
}

void Timebase_UpCounter_SS_Set_EndValueSubSec(uint8_t window, int32_t value){
  Timebase->UpCounterSS[window].EndValueSubSec = value;
    10be:	15 a2       	std	Z+37, r1	; 0x25
    10c0:	16 a2       	std	Z+38, r1	; 0x26
    10c2:	17 a2       	std	Z+39, r1	; 0x27
    10c4:	10 a6       	std	Z+40, r1	; 0x28
int32_t Timebase_UpCounter_SS_Get_TargetValue(uint8_t window){
  return Timebase->UpCounterSS[window].Target;
}

void Timebase_UpCounter_SS_Set_TargetValue(uint8_t window, int32_t value){
  Timebase->UpCounterSS[window].Target = value;
    10c6:	11 a6       	std	Z+41, r1	; 0x29
    10c8:	12 a6       	std	Z+42, r1	; 0x2a
    10ca:	13 a6       	std	Z+43, r1	; 0x2b
    10cc:	14 a6       	std	Z+44, r1	; 0x2c

void Timebase_UpCounter_SS_Set_TemporaryValue(uint8_t window, int32_t value){
  if(value<0){
    value = 0;
  }
  Timebase->UpCounterSS[window].Temporary = value;
    10ce:	15 a6       	std	Z+45, r1	; 0x2d
    10d0:	16 a6       	std	Z+46, r1	; 0x2e
    10d2:	17 a6       	std	Z+47, r1	; 0x2f
    10d4:	10 aa       	std	Z+48, r1	; 0x30
int32_t Timebase_UpCounter_SS_Get_PeriodValue(uint8_t window){
  return Timebase->UpCounterSS[window].PeriodValue;
}

void Timebase_UpCounter_SS_Set_PeriodValue(uint8_t window, int32_t value){
  Timebase->UpCounterSS[window].PeriodValue = value;
    10d6:	15 aa       	std	Z+53, r1	; 0x35
    10d8:	16 aa       	std	Z+54, r1	; 0x36
    10da:	17 aa       	std	Z+55, r1	; 0x37
    10dc:	10 ae       	std	Z+56, r1	; 0x38
void Timebase_UpCounter_SS_Set_Period_Flag(uint8_t window){
  Timebase->UpCounterSS[window].Status.PeriodFlag = FLAG_STATE_SET;
}

void Timebase_UpCounter_SS_Clear_Period_Flag(uint8_t window){
  Timebase->UpCounterSS[window].Status.PeriodFlag = FLAG_STATE_RESET;
    10de:	80 7e       	andi	r24, 0xE0	; 224
    10e0:	80 a3       	std	Z+32, r24	; 0x20
  Timebase_UpCounter_SS_Set_EndValueSubSec(window, 0);
  Timebase_UpCounter_SS_Set_TargetValue(window, 0);
  Timebase_UpCounter_SS_Set_TemporaryValue(window, 0);
  Timebase_UpCounter_SS_Set_PeriodValue(window, 0);
  Timebase_UpCounter_SS_Clear_Period_Flag(window);
} 
    10e2:	08 95       	ret

000010e4 <Timebase_UpCounter_SS_Clear_All_Flags>:

void Timebase_UpCounter_SS_Clear_All_Flags(uint8_t window){
  Timebase_UpCounter_SS_Reset( window );
    10e4:	0e 94 45 08 	call	0x108a	; 0x108a <Timebase_UpCounter_SS_Reset>
}
    10e8:	08 95       	ret

000010ea <Timebase_UpCounter_SS_Start>:

/****************************UpCounter SS Functions Start****************************/

#ifdef TIMEBASE_UPCOUNTER_SUBSECONDS
uint8_t Timebase_UpCounter_SS_Get_Status(uint8_t window){
  return Timebase->UpCounterSS[window].Status.Value;
    10ea:	e0 91 43 01 	lds	r30, 0x0143
    10ee:	f0 91 44 01 	lds	r31, 0x0144
    10f2:	90 e0       	ldi	r25, 0x00	; 0
void Timebase_UpCounter_SS_Clear_All_Flags(uint8_t window){
  Timebase_UpCounter_SS_Reset( window );
}

void Timebase_UpCounter_SS_Start(uint8_t window){
  if(Timebase_UpCounter_SS_Get_Status(window) != COUNTER_STATE_STARTED){
    10f4:	29 e1       	ldi	r18, 0x19	; 25
    10f6:	30 e0       	ldi	r19, 0x00	; 0
    10f8:	ac 01       	movw	r20, r24
    10fa:	42 9f       	mul	r20, r18
    10fc:	c0 01       	movw	r24, r0
    10fe:	43 9f       	mul	r20, r19
    1100:	90 0d       	add	r25, r0
    1102:	52 9f       	mul	r21, r18
    1104:	90 0d       	add	r25, r0
    1106:	11 24       	eor	r1, r1
    1108:	e8 0f       	add	r30, r24
    110a:	f9 1f       	adc	r31, r25
    110c:	90 a1       	ldd	r25, Z+32	; 0x20
    110e:	89 2f       	mov	r24, r25
    1110:	86 95       	lsr	r24
    1112:	8f 70       	andi	r24, 0x0F	; 15
    1114:	81 30       	cpi	r24, 0x01	; 1
    1116:	19 f0       	breq	.+6      	; 0x111e <Timebase_UpCounter_SS_Start+0x34>
uint8_t Timebase_UpCounter_SS_Get_Status(uint8_t window){
  return Timebase->UpCounterSS[window].Status.Value;
}

void Timebase_UpCounter_SS_Set_Status(uint8_t window, uint8_t value){
  Timebase->UpCounterSS[window].Status.Value = value;
    1118:	91 7e       	andi	r25, 0xE1	; 225
    111a:	92 60       	ori	r25, 0x02	; 2
    111c:	90 a3       	std	Z+32, r25	; 0x20
    111e:	08 95       	ret

00001120 <Timebase_UpCounter_SS_Stop>:

/****************************UpCounter SS Functions Start****************************/

#ifdef TIMEBASE_UPCOUNTER_SUBSECONDS
uint8_t Timebase_UpCounter_SS_Get_Status(uint8_t window){
  return Timebase->UpCounterSS[window].Status.Value;
    1120:	e0 91 43 01 	lds	r30, 0x0143
    1124:	f0 91 44 01 	lds	r31, 0x0144
    1128:	90 e0       	ldi	r25, 0x00	; 0
    Timebase_UpCounter_SS_Set_Status(window , COUNTER_STATE_START);
  }
}

void Timebase_UpCounter_SS_Stop(uint8_t window){
  if(Timebase_UpCounter_SS_Get_Status(window) != COUNTER_STATE_STOPPED){
    112a:	29 e1       	ldi	r18, 0x19	; 25
    112c:	30 e0       	ldi	r19, 0x00	; 0
    112e:	ac 01       	movw	r20, r24
    1130:	42 9f       	mul	r20, r18
    1132:	c0 01       	movw	r24, r0
    1134:	43 9f       	mul	r20, r19
    1136:	90 0d       	add	r25, r0
    1138:	52 9f       	mul	r21, r18
    113a:	90 0d       	add	r25, r0
    113c:	11 24       	eor	r1, r1
    113e:	e8 0f       	add	r30, r24
    1140:	f9 1f       	adc	r31, r25
    1142:	90 a1       	ldd	r25, Z+32	; 0x20
    1144:	89 2f       	mov	r24, r25
    1146:	86 95       	lsr	r24
    1148:	8f 70       	andi	r24, 0x0F	; 15
    114a:	82 30       	cpi	r24, 0x02	; 2
    114c:	19 f0       	breq	.+6      	; 0x1154 <Timebase_UpCounter_SS_Stop+0x34>
uint8_t Timebase_UpCounter_SS_Get_Status(uint8_t window){
  return Timebase->UpCounterSS[window].Status.Value;
}

void Timebase_UpCounter_SS_Set_Status(uint8_t window, uint8_t value){
  Timebase->UpCounterSS[window].Status.Value = value;
    114e:	91 7e       	andi	r25, 0xE1	; 225
    1150:	94 60       	ori	r25, 0x04	; 4
    1152:	90 a3       	std	Z+32, r25	; 0x20
    1154:	08 95       	ret

00001156 <Timebase_UpCounter_SS_Set_Securely>:
    Timebase_UpCounter_SS_Set_Status(window , COUNTER_STATE_STOP);
  }
}


void Timebase_UpCounter_SS_Set_Securely(uint8_t window, int32_t value){
    1156:	2f 92       	push	r2
    1158:	3f 92       	push	r3
    115a:	4f 92       	push	r4
    115c:	5f 92       	push	r5
    115e:	6f 92       	push	r6
    1160:	7f 92       	push	r7
    1162:	8f 92       	push	r8
    1164:	9f 92       	push	r9
    1166:	af 92       	push	r10
    1168:	bf 92       	push	r11
    116a:	cf 92       	push	r12
    116c:	df 92       	push	r13
    116e:	ef 92       	push	r14
    1170:	ff 92       	push	r15
    1172:	0f 93       	push	r16
    1174:	1f 93       	push	r17
    1176:	df 93       	push	r29
    1178:	cf 93       	push	r28
    117a:	00 d0       	rcall	.+0      	; 0x117c <Timebase_UpCounter_SS_Set_Securely+0x26>
    117c:	00 d0       	rcall	.+0      	; 0x117e <Timebase_UpCounter_SS_Set_Securely+0x28>
    117e:	cd b7       	in	r28, 0x3d	; 61
    1180:	de b7       	in	r29, 0x3e	; 62
    1182:	4a 01       	movw	r8, r20
    1184:	5b 01       	movw	r10, r22

/****************************UpCounter SS Functions Start****************************/

#ifdef TIMEBASE_UPCOUNTER_SUBSECONDS
uint8_t Timebase_UpCounter_SS_Get_Status(uint8_t window){
  return Timebase->UpCounterSS[window].Status.Value;
    1186:	20 91 43 01 	lds	r18, 0x0143
    118a:	30 91 44 01 	lds	r19, 0x0144
    118e:	3c 83       	std	Y+4, r19	; 0x04
    1190:	2b 83       	std	Y+3, r18	; 0x03
    1192:	a8 2f       	mov	r26, r24
    1194:	b0 e0       	ldi	r27, 0x00	; 0
    1196:	ba 83       	std	Y+2, r27	; 0x02
    1198:	a9 83       	std	Y+1, r26	; 0x01
}


void Timebase_UpCounter_SS_Set_Securely(uint8_t window, int32_t value){
  int32_t curr_s, curr_ss;
  if( Timebase_UpCounter_SS_Get_Status( window ) == COUNTER_STATE_RESET ){
    119a:	89 e1       	ldi	r24, 0x19	; 25
    119c:	90 e0       	ldi	r25, 0x00	; 0
    119e:	a8 9f       	mul	r26, r24
    11a0:	f0 01       	movw	r30, r0
    11a2:	a9 9f       	mul	r26, r25
    11a4:	f0 0d       	add	r31, r0
    11a6:	b8 9f       	mul	r27, r24
    11a8:	f0 0d       	add	r31, r0
    11aa:	11 24       	eor	r1, r1
    11ac:	e2 0f       	add	r30, r18
    11ae:	f3 1f       	adc	r31, r19
    11b0:	80 a1       	ldd	r24, Z+32	; 0x20
    11b2:	86 95       	lsr	r24
    11b4:	8f 70       	andi	r24, 0x0F	; 15
    11b6:	09 f0       	breq	.+2      	; 0x11ba <Timebase_UpCounter_SS_Set_Securely+0x64>
    11b8:	75 c0       	rjmp	.+234    	; 0x12a4 <Timebase_UpCounter_SS_Set_Securely+0x14e>

void Timebase_UpCounter_SS_Set_Value(uint8_t window, int32_t value){
  if(value < 0){
    value = 0;
  }
  Timebase->UpCounterSS[window].Value = value;
    11ba:	11 aa       	std	Z+49, r1	; 0x31
    11bc:	12 aa       	std	Z+50, r1	; 0x32
    11be:	13 aa       	std	Z+51, r1	; 0x33
    11c0:	14 aa       	std	Z+52, r1	; 0x34

void Timebase_UpCounter_SS_Set_TemporaryValue(uint8_t window, int32_t value){
  if(value<0){
    value = 0;
  }
  Timebase->UpCounterSS[window].Temporary = value;
    11c2:	15 a6       	std	Z+45, r1	; 0x2d
    11c4:	16 a6       	std	Z+46, r1	; 0x2e
    11c6:	17 a6       	std	Z+47, r1	; 0x2f
    11c8:	10 aa       	std	Z+48, r1	; 0x30
int32_t Timebase_UpCounter_SS_Get_TargetValue(uint8_t window){
  return Timebase->UpCounterSS[window].Target;
}

void Timebase_UpCounter_SS_Set_TargetValue(uint8_t window, int32_t value){
  Timebase->UpCounterSS[window].Target = value;
    11ca:	41 a7       	std	Z+41, r20	; 0x29
    11cc:	52 a7       	std	Z+42, r21	; 0x2a
    11ce:	63 a7       	std	Z+43, r22	; 0x2b
    11d0:	74 a7       	std	Z+44, r23	; 0x2c
  return Timebase->Time.SecondsShadow;
}


uint16_t Timebase_Timer_Get_SubSeconds(void){
  return Timebase->Time.SubSeconds;
    11d2:	f9 01       	movw	r30, r18
    11d4:	c0 84       	ldd	r12, Z+8	; 0x08
    11d6:	d1 84       	ldd	r13, Z+9	; 0x09
}


int32_t Timebase_Timer_Get_Seconds(void){
  return Timebase->Time.Seconds;
    11d8:	22 84       	ldd	r2, Z+10	; 0x0a
    11da:	33 84       	ldd	r3, Z+11	; 0x0b
    11dc:	44 84       	ldd	r4, Z+12	; 0x0c
    11de:	55 84       	ldd	r5, Z+13	; 0x0d
    Timebase_UpCounter_SS_Set_Value(window, 0);
    Timebase_UpCounter_SS_Set_TemporaryValue(window, 0);
    Timebase_UpCounter_SS_Set_TargetValue(window, value);
	curr_ss = Timebase_Timer_Get_SubSeconds();
	curr_s  = Timebase_Timer_Get_Seconds();
	int32_t subsec_val = value % Timebase->Config.UpdateRate;
    11e0:	21 81       	ldd	r18, Z+1	; 0x01
    11e2:	32 81       	ldd	r19, Z+2	; 0x02
    11e4:	40 e0       	ldi	r20, 0x00	; 0
    11e6:	50 e0       	ldi	r21, 0x00	; 0
    11e8:	c5 01       	movw	r24, r10
    11ea:	b4 01       	movw	r22, r8
    11ec:	0e 94 30 19 	call	0x3260	; 0x3260 <__divmodsi4>
    11f0:	7b 01       	movw	r14, r22
    11f2:	8c 01       	movw	r16, r24
	int32_t sec_val    = value / Timebase->Config.UpdateRate;
    11f4:	ab 81       	ldd	r26, Y+3	; 0x03
    11f6:	bc 81       	ldd	r27, Y+4	; 0x04
    11f8:	11 96       	adiw	r26, 0x01	; 1
    11fa:	2d 91       	ld	r18, X+
    11fc:	3c 91       	ld	r19, X
    11fe:	12 97       	sbiw	r26, 0x02	; 2
    1200:	40 e0       	ldi	r20, 0x00	; 0
    1202:	50 e0       	ldi	r21, 0x00	; 0
    1204:	c5 01       	movw	r24, r10
    1206:	b4 01       	movw	r22, r8
    1208:	0e 94 30 19 	call	0x3260	; 0x3260 <__divmodsi4>
    120c:	c9 01       	movw	r24, r18
    120e:	da 01       	movw	r26, r20
    1210:	3c 01       	movw	r6, r24
    1212:	4d 01       	movw	r8, r26
	subsec_val += curr_ss;
    1214:	56 01       	movw	r10, r12
    1216:	cc 24       	eor	r12, r12
    1218:	dd 24       	eor	r13, r13
    121a:	ae 0c       	add	r10, r14
    121c:	bf 1c       	adc	r11, r15
    121e:	c0 1e       	adc	r12, r16
    1220:	d1 1e       	adc	r13, r17
	if(subsec_val >= Timebase->Config.UpdateRate){
    1222:	eb 81       	ldd	r30, Y+3	; 0x03
    1224:	fc 81       	ldd	r31, Y+4	; 0x04
    1226:	81 81       	ldd	r24, Z+1	; 0x01
    1228:	92 81       	ldd	r25, Z+2	; 0x02
    122a:	a0 e0       	ldi	r26, 0x00	; 0
    122c:	b0 e0       	ldi	r27, 0x00	; 0
    122e:	a8 16       	cp	r10, r24
    1230:	b9 06       	cpc	r11, r25
    1232:	ca 06       	cpc	r12, r26
    1234:	db 06       	cpc	r13, r27
    1236:	94 f0       	brlt	.+36     	; 0x125c <Timebase_UpCounter_SS_Set_Securely+0x106>
	  sec_val += 1;
    1238:	08 94       	sec
    123a:	61 1c       	adc	r6, r1
    123c:	71 1c       	adc	r7, r1
    123e:	81 1c       	adc	r8, r1
    1240:	91 1c       	adc	r9, r1
	  subsec_val %= Timebase->Config.UpdateRate;
    1242:	21 81       	ldd	r18, Z+1	; 0x01
    1244:	32 81       	ldd	r19, Z+2	; 0x02
    1246:	40 e0       	ldi	r20, 0x00	; 0
    1248:	50 e0       	ldi	r21, 0x00	; 0
    124a:	c6 01       	movw	r24, r12
    124c:	b5 01       	movw	r22, r10
    124e:	0e 94 30 19 	call	0x3260	; 0x3260 <__divmodsi4>
    1252:	ac 01       	movw	r20, r24
    1254:	cb 01       	movw	r24, r22
    1256:	da 01       	movw	r26, r20
    1258:	5c 01       	movw	r10, r24
    125a:	6d 01       	movw	r12, r26
int32_t Timebase_UpCounter_SS_Get_EndValueSubSec(uint8_t window){
  return Timebase->UpCounterSS[window].EndValueSubSec;
}

void Timebase_UpCounter_SS_Set_EndValueSec(uint8_t window, int32_t value){
  Timebase->UpCounterSS[window].EndValueSec = value;
    125c:	89 e1       	ldi	r24, 0x19	; 25
    125e:	90 e0       	ldi	r25, 0x00	; 0
    1260:	29 81       	ldd	r18, Y+1	; 0x01
    1262:	3a 81       	ldd	r19, Y+2	; 0x02
    1264:	28 9f       	mul	r18, r24
    1266:	f0 01       	movw	r30, r0
    1268:	29 9f       	mul	r18, r25
    126a:	f0 0d       	add	r31, r0
    126c:	38 9f       	mul	r19, r24
    126e:	f0 0d       	add	r31, r0
    1270:	11 24       	eor	r1, r1
    1272:	8b 81       	ldd	r24, Y+3	; 0x03
    1274:	9c 81       	ldd	r25, Y+4	; 0x04
    1276:	e8 0f       	add	r30, r24
    1278:	f9 1f       	adc	r31, r25
    127a:	26 0c       	add	r2, r6
    127c:	37 1c       	adc	r3, r7
    127e:	48 1c       	adc	r4, r8
    1280:	59 1c       	adc	r5, r9
    1282:	21 a2       	std	Z+33, r2	; 0x21
    1284:	32 a2       	std	Z+34, r3	; 0x22
    1286:	43 a2       	std	Z+35, r4	; 0x23
    1288:	54 a2       	std	Z+36, r5	; 0x24
}

void Timebase_UpCounter_SS_Set_EndValueSubSec(uint8_t window, int32_t value){
  Timebase->UpCounterSS[window].EndValueSubSec = value;
    128a:	a5 a2       	std	Z+37, r10	; 0x25
    128c:	b6 a2       	std	Z+38, r11	; 0x26
    128e:	c7 a2       	std	Z+39, r12	; 0x27
    1290:	d0 a6       	std	Z+40, r13	; 0x28
void Timebase_UpCounter_SS_Clear_All_Flags(uint8_t window){
  Timebase_UpCounter_SS_Reset( window );
}

void Timebase_UpCounter_SS_Start(uint8_t window){
  if(Timebase_UpCounter_SS_Get_Status(window) != COUNTER_STATE_STARTED){
    1292:	90 a1       	ldd	r25, Z+32	; 0x20
    1294:	89 2f       	mov	r24, r25
    1296:	86 95       	lsr	r24
    1298:	8f 70       	andi	r24, 0x0F	; 15
    129a:	81 30       	cpi	r24, 0x01	; 1
    129c:	19 f0       	breq	.+6      	; 0x12a4 <Timebase_UpCounter_SS_Set_Securely+0x14e>
uint8_t Timebase_UpCounter_SS_Get_Status(uint8_t window){
  return Timebase->UpCounterSS[window].Status.Value;
}

void Timebase_UpCounter_SS_Set_Status(uint8_t window, uint8_t value){
  Timebase->UpCounterSS[window].Status.Value = value;
    129e:	91 7e       	andi	r25, 0xE1	; 225
    12a0:	92 60       	ori	r25, 0x02	; 2
    12a2:	90 a3       	std	Z+32, r25	; 0x20
	sec_val += curr_s;
    Timebase_UpCounter_SS_Set_EndValueSec(window, sec_val);
	Timebase_UpCounter_SS_Set_EndValueSubSec(window, subsec_val);
    Timebase_UpCounter_SS_Start(window);
  }
}
    12a4:	0f 90       	pop	r0
    12a6:	0f 90       	pop	r0
    12a8:	0f 90       	pop	r0
    12aa:	0f 90       	pop	r0
    12ac:	cf 91       	pop	r28
    12ae:	df 91       	pop	r29
    12b0:	1f 91       	pop	r17
    12b2:	0f 91       	pop	r16
    12b4:	ff 90       	pop	r15
    12b6:	ef 90       	pop	r14
    12b8:	df 90       	pop	r13
    12ba:	cf 90       	pop	r12
    12bc:	bf 90       	pop	r11
    12be:	af 90       	pop	r10
    12c0:	9f 90       	pop	r9
    12c2:	8f 90       	pop	r8
    12c4:	7f 90       	pop	r7
    12c6:	6f 90       	pop	r6
    12c8:	5f 90       	pop	r5
    12ca:	4f 90       	pop	r4
    12cc:	3f 90       	pop	r3
    12ce:	2f 90       	pop	r2
    12d0:	08 95       	ret

000012d2 <Timebase_UpCounter_SS_Set_Forcefully>:

void Timebase_UpCounter_SS_Set_Forcefully(uint8_t window, int32_t value){
    12d2:	df 92       	push	r13
    12d4:	ef 92       	push	r14
    12d6:	ff 92       	push	r15
    12d8:	0f 93       	push	r16
    12da:	1f 93       	push	r17
    12dc:	d8 2e       	mov	r13, r24
    12de:	7a 01       	movw	r14, r20
    12e0:	8b 01       	movw	r16, r22
  Timebase_UpCounter_SS_Reset( window );
    12e2:	0e 94 45 08 	call	0x108a	; 0x108a <Timebase_UpCounter_SS_Reset>
  Timebase_UpCounter_SS_Set_Securely( window, value );
    12e6:	8d 2d       	mov	r24, r13
    12e8:	b8 01       	movw	r22, r16
    12ea:	a7 01       	movw	r20, r14
    12ec:	0e 94 ab 08 	call	0x1156	; 0x1156 <Timebase_UpCounter_SS_Set_Securely>
} 
    12f0:	1f 91       	pop	r17
    12f2:	0f 91       	pop	r16
    12f4:	ff 90       	pop	r15
    12f6:	ef 90       	pop	r14
    12f8:	df 90       	pop	r13
    12fa:	08 95       	ret

000012fc <Timebase_UpCounter_SS_Update>:

void Timebase_UpCounter_SS_Update(uint8_t window){
    12fc:	2f 92       	push	r2
    12fe:	3f 92       	push	r3
    1300:	4f 92       	push	r4
    1302:	5f 92       	push	r5
    1304:	6f 92       	push	r6
    1306:	7f 92       	push	r7
    1308:	8f 92       	push	r8
    130a:	9f 92       	push	r9
    130c:	af 92       	push	r10
    130e:	bf 92       	push	r11
    1310:	cf 92       	push	r12
    1312:	df 92       	push	r13
    1314:	ef 92       	push	r14
    1316:	ff 92       	push	r15
    1318:	0f 93       	push	r16
    131a:	1f 93       	push	r17
    131c:	df 93       	push	r29
    131e:	cf 93       	push	r28
    1320:	00 d0       	rcall	.+0      	; 0x1322 <Timebase_UpCounter_SS_Update+0x26>
    1322:	00 d0       	rcall	.+0      	; 0x1324 <Timebase_UpCounter_SS_Update+0x28>
    1324:	00 d0       	rcall	.+0      	; 0x1326 <Timebase_UpCounter_SS_Update+0x2a>
    1326:	cd b7       	in	r28, 0x3d	; 61
    1328:	de b7       	in	r29, 0x3e	; 62

/****************************UpCounter SS Functions Start****************************/

#ifdef TIMEBASE_UPCOUNTER_SUBSECONDS
uint8_t Timebase_UpCounter_SS_Get_Status(uint8_t window){
  return Timebase->UpCounterSS[window].Status.Value;
    132a:	20 90 43 01 	lds	r2, 0x0143
    132e:	30 90 44 01 	lds	r3, 0x0144
    1332:	28 2f       	mov	r18, r24
    1334:	30 e0       	ldi	r19, 0x00	; 0
    1336:	3e 83       	std	Y+6, r19	; 0x06
    1338:	2d 83       	std	Y+5, r18	; 0x05
    133a:	89 e1       	ldi	r24, 0x19	; 25
    133c:	90 e0       	ldi	r25, 0x00	; 0
    133e:	28 9f       	mul	r18, r24
    1340:	b0 01       	movw	r22, r0
    1342:	29 9f       	mul	r18, r25
    1344:	70 0d       	add	r23, r0
    1346:	38 9f       	mul	r19, r24
    1348:	70 0d       	add	r23, r0
    134a:	11 24       	eor	r1, r1
    134c:	62 0d       	add	r22, r2
    134e:	73 1d       	adc	r23, r3
    1350:	db 01       	movw	r26, r22
    1352:	90 96       	adiw	r26, 0x20	; 32
    1354:	8c 91       	ld	r24, X
    1356:	90 97       	sbiw	r26, 0x20	; 32
    1358:	86 95       	lsr	r24
    135a:	8f 70       	andi	r24, 0x0F	; 15
  Timebase_UpCounter_SS_Set_Securely( window, value );
} 

void Timebase_UpCounter_SS_Update(uint8_t window){
  int32_t curr_s, curr_ss;
  if( Timebase_UpCounter_SS_Get_Status( window ) == COUNTER_STATE_STARTED ){
    135c:	81 30       	cpi	r24, 0x01	; 1
    135e:	09 f0       	breq	.+2      	; 0x1362 <Timebase_UpCounter_SS_Update+0x66>
    1360:	b3 c0       	rjmp	.+358    	; 0x14c8 <Timebase_UpCounter_SS_Update+0x1cc>
  return Timebase->Time.SubSeconds;
}


int32_t Timebase_Timer_Get_Seconds(void){
  return Timebase->Time.Seconds;
    1362:	f1 01       	movw	r30, r2
    1364:	22 85       	ldd	r18, Z+10	; 0x0a
    1366:	33 85       	ldd	r19, Z+11	; 0x0b
    1368:	44 85       	ldd	r20, Z+12	; 0x0c
    136a:	55 85       	ldd	r21, Z+13	; 0x0d
  return Timebase->Time.SecondsShadow;
}


uint16_t Timebase_Timer_Get_SubSeconds(void){
  return Timebase->Time.SubSeconds;
    136c:	80 85       	ldd	r24, Z+8	; 0x08
    136e:	91 85       	ldd	r25, Z+9	; 0x09

void Timebase_UpCounter_SS_Update(uint8_t window){
  int32_t curr_s, curr_ss;
  if( Timebase_UpCounter_SS_Get_Status( window ) == COUNTER_STATE_STARTED ){
	curr_s  = Timebase_Timer_Get_Seconds();
	curr_ss = Timebase_Timer_Get_SubSeconds();
    1370:	2c 01       	movw	r4, r24
    1372:	66 24       	eor	r6, r6
    1374:	77 24       	eor	r7, r7
	curr_s  = Timebase_UpCounter_SS_Get_EndValueSec(window) - curr_s;
    1376:	91 96       	adiw	r26, 0x21	; 33
    1378:	8d 90       	ld	r8, X+
    137a:	9d 90       	ld	r9, X+
    137c:	ad 90       	ld	r10, X+
    137e:	bc 90       	ld	r11, X
    1380:	94 97       	sbiw	r26, 0x24	; 36
    1382:	82 1a       	sub	r8, r18
    1384:	93 0a       	sbc	r9, r19
    1386:	a4 0a       	sbc	r10, r20
    1388:	b5 0a       	sbc	r11, r21
    138a:	b7 fe       	sbrs	r11, 7
    138c:	03 c0       	rjmp	.+6      	; 0x1394 <Timebase_UpCounter_SS_Update+0x98>
    138e:	88 24       	eor	r8, r8
    1390:	99 24       	eor	r9, r9
    1392:	54 01       	movw	r10, r8
	if(curr_s < 0){
	  curr_s = 0;
	}
	curr_s *= Timebase->Config.UpdateRate;
    1394:	d1 01       	movw	r26, r2
    1396:	11 96       	adiw	r26, 0x01	; 1
    1398:	2d 91       	ld	r18, X+
    139a:	3c 91       	ld	r19, X
    139c:	12 97       	sbiw	r26, 0x02	; 2
	curr_ss = Timebase_UpCounter_SS_Get_EndValueSubSec(window) - curr_ss;
    139e:	89 e1       	ldi	r24, 0x19	; 25
    13a0:	90 e0       	ldi	r25, 0x00	; 0
    13a2:	4d 81       	ldd	r20, Y+5	; 0x05
    13a4:	5e 81       	ldd	r21, Y+6	; 0x06
    13a6:	48 9f       	mul	r20, r24
    13a8:	f0 01       	movw	r30, r0
    13aa:	49 9f       	mul	r20, r25
    13ac:	f0 0d       	add	r31, r0
    13ae:	58 9f       	mul	r21, r24
    13b0:	f0 0d       	add	r31, r0
    13b2:	11 24       	eor	r1, r1
    13b4:	e2 0d       	add	r30, r2
    13b6:	f3 1d       	adc	r31, r3
    13b8:	e5 a0       	ldd	r14, Z+37	; 0x25
    13ba:	f6 a0       	ldd	r15, Z+38	; 0x26
    13bc:	07 a1       	ldd	r16, Z+39	; 0x27
    13be:	10 a5       	ldd	r17, Z+40	; 0x28
    13c0:	e4 18       	sub	r14, r4
    13c2:	f5 08       	sbc	r15, r5
    13c4:	06 09       	sbc	r16, r6
    13c6:	17 09       	sbc	r17, r7
    13c8:	17 ff       	sbrs	r17, 7
    13ca:	03 c0       	rjmp	.+6      	; 0x13d2 <Timebase_UpCounter_SS_Update+0xd6>
    13cc:	ee 24       	eor	r14, r14
    13ce:	ff 24       	eor	r15, r15
    13d0:	87 01       	movw	r16, r14
	if(curr_ss < 0){
	  curr_ss = 0;
	}
	curr_ss += curr_s;
    13d2:	40 e0       	ldi	r20, 0x00	; 0
    13d4:	50 e0       	ldi	r21, 0x00	; 0
    13d6:	c5 01       	movw	r24, r10
    13d8:	b4 01       	movw	r22, r8
    13da:	0e 94 ef 18 	call	0x31de	; 0x31de <__mulsi3>
    13de:	6e 0d       	add	r22, r14
    13e0:	7f 1d       	adc	r23, r15
    13e2:	80 1f       	adc	r24, r16
    13e4:	91 1f       	adc	r25, r17

void Timebase_UpCounter_SS_Set_TemporaryValue(uint8_t window, int32_t value){
  if(value<0){
    value = 0;
  }
  Timebase->UpCounterSS[window].Temporary = value;
    13e6:	29 e1       	ldi	r18, 0x19	; 25
    13e8:	30 e0       	ldi	r19, 0x00	; 0
    13ea:	ad 81       	ldd	r26, Y+5	; 0x05
    13ec:	be 81       	ldd	r27, Y+6	; 0x06
    13ee:	a2 9f       	mul	r26, r18
    13f0:	f0 01       	movw	r30, r0
    13f2:	a3 9f       	mul	r26, r19
    13f4:	f0 0d       	add	r31, r0
    13f6:	b2 9f       	mul	r27, r18
    13f8:	f0 0d       	add	r31, r0
    13fa:	11 24       	eor	r1, r1
    13fc:	e2 0d       	add	r30, r2
    13fe:	f3 1d       	adc	r31, r3
    1400:	65 a7       	std	Z+45, r22	; 0x2d
    1402:	76 a7       	std	Z+46, r23	; 0x2e
    1404:	87 a7       	std	Z+47, r24	; 0x2f
    1406:	90 ab       	std	Z+48, r25	; 0x30
	if(curr_ss < 0){
	  curr_ss = 0;
	}
	curr_ss += curr_s;
    Timebase_UpCounter_SS_Set_TemporaryValue(window, curr_ss );
    Timebase_UpCounter_SS_Set_Value(window, Timebase_UpCounter_SS_Get_TargetValue(window) - Timebase_UpCounter_SS_Get_TemporaryValue(window) );
    1408:	21 a5       	ldd	r18, Z+41	; 0x29
    140a:	32 a5       	ldd	r19, Z+42	; 0x2a
    140c:	43 a5       	ldd	r20, Z+43	; 0x2b
    140e:	54 a5       	ldd	r21, Z+44	; 0x2c

void Timebase_UpCounter_SS_Set_Value(uint8_t window, int32_t value){
  if(value < 0){
    value = 0;
  }
  Timebase->UpCounterSS[window].Value = value;
    1410:	26 1b       	sub	r18, r22
    1412:	37 0b       	sbc	r19, r23
    1414:	48 0b       	sbc	r20, r24
    1416:	59 0b       	sbc	r21, r25
    1418:	57 ff       	sbrs	r21, 7
    141a:	04 c0       	rjmp	.+8      	; 0x1424 <Timebase_UpCounter_SS_Update+0x128>
    141c:	20 e0       	ldi	r18, 0x00	; 0
    141e:	30 e0       	ldi	r19, 0x00	; 0
    1420:	40 e0       	ldi	r20, 0x00	; 0
    1422:	50 e0       	ldi	r21, 0x00	; 0
    1424:	21 ab       	std	Z+49, r18	; 0x31
    1426:	32 ab       	std	Z+50, r19	; 0x32
    1428:	43 ab       	std	Z+51, r20	; 0x33
    142a:	54 ab       	std	Z+52, r21	; 0x34
	  curr_ss = 0;
	}
	curr_ss += curr_s;
    Timebase_UpCounter_SS_Set_TemporaryValue(window, curr_ss );
    Timebase_UpCounter_SS_Set_Value(window, Timebase_UpCounter_SS_Get_TargetValue(window) - Timebase_UpCounter_SS_Get_TemporaryValue(window) );
    if(Timebase_UpCounter_SS_Get_TemporaryValue(window) <= 0){
    142c:	89 e1       	ldi	r24, 0x19	; 25
    142e:	90 e0       	ldi	r25, 0x00	; 0
    1430:	ed 81       	ldd	r30, Y+5	; 0x05
    1432:	fe 81       	ldd	r31, Y+6	; 0x06
    1434:	e8 9f       	mul	r30, r24
    1436:	b0 01       	movw	r22, r0
    1438:	e9 9f       	mul	r30, r25
    143a:	70 0d       	add	r23, r0
    143c:	f8 9f       	mul	r31, r24
    143e:	70 0d       	add	r23, r0
    1440:	11 24       	eor	r1, r1
    1442:	62 0d       	add	r22, r2
    1444:	73 1d       	adc	r23, r3
    1446:	fb 01       	movw	r30, r22
    1448:	85 a5       	ldd	r24, Z+45	; 0x2d
    144a:	96 a5       	ldd	r25, Z+46	; 0x2e
    144c:	a7 a5       	ldd	r26, Z+47	; 0x2f
    144e:	b0 a9       	ldd	r27, Z+48	; 0x30
    1450:	18 16       	cp	r1, r24
    1452:	19 06       	cpc	r1, r25
    1454:	1a 06       	cpc	r1, r26
    1456:	1b 06       	cpc	r1, r27
    1458:	0c f4       	brge	.+2      	; 0x145c <Timebase_UpCounter_SS_Update+0x160>
    145a:	c6 c0       	rjmp	.+396    	; 0x15e8 <Timebase_UpCounter_SS_Update+0x2ec>
int32_t Timebase_UpCounter_SS_Get_EndValueSubSec(uint8_t window){
  return Timebase->UpCounterSS[window].EndValueSubSec;
}

void Timebase_UpCounter_SS_Set_EndValueSec(uint8_t window, int32_t value){
  Timebase->UpCounterSS[window].EndValueSec = value;
    145c:	db 01       	movw	r26, r22
    145e:	91 96       	adiw	r26, 0x21	; 33
    1460:	1d 92       	st	X+, r1
    1462:	1d 92       	st	X+, r1
    1464:	1d 92       	st	X+, r1
    1466:	1c 92       	st	X, r1
    1468:	94 97       	sbiw	r26, 0x24	; 36
}

void Timebase_UpCounter_SS_Set_EndValueSubSec(uint8_t window, int32_t value){
  Timebase->UpCounterSS[window].EndValueSubSec = value;
    146a:	15 a2       	std	Z+37, r1	; 0x25
    146c:	16 a2       	std	Z+38, r1	; 0x26
    146e:	17 a2       	std	Z+39, r1	; 0x27
    1470:	10 a6       	std	Z+40, r1	; 0x28

void Timebase_UpCounter_SS_Set_TemporaryValue(uint8_t window, int32_t value){
  if(value<0){
    value = 0;
  }
  Timebase->UpCounterSS[window].Temporary = value;
    1472:	9d 96       	adiw	r26, 0x2d	; 45
    1474:	1d 92       	st	X+, r1
    1476:	1d 92       	st	X+, r1
    1478:	1d 92       	st	X+, r1
    147a:	1c 92       	st	X, r1
    147c:	d0 97       	sbiw	r26, 0x30	; 48
void Timebase_UpCounter_SS_Set_EndValueSubSec(uint8_t window, int32_t value){
  Timebase->UpCounterSS[window].EndValueSubSec = value;
}

int32_t Timebase_UpCounter_SS_Get_TargetValue(uint8_t window){
  return Timebase->UpCounterSS[window].Target;
    147e:	b9 96       	adiw	r30, 0x29	; 41

void Timebase_UpCounter_SS_Set_Value(uint8_t window, int32_t value){
  if(value < 0){
    value = 0;
  }
  Timebase->UpCounterSS[window].Value = value;
    1480:	99 96       	adiw	r26, 0x29	; 41
    1482:	2c 91       	ld	r18, X
    1484:	31 81       	ldd	r19, Z+1	; 0x01
    1486:	42 81       	ldd	r20, Z+2	; 0x02
    1488:	53 81       	ldd	r21, Z+3	; 0x03
    148a:	c9 01       	movw	r24, r18
    148c:	da 01       	movw	r26, r20
    148e:	b7 ff       	sbrs	r27, 7
    1490:	04 c0       	rjmp	.+8      	; 0x149a <Timebase_UpCounter_SS_Update+0x19e>
    1492:	80 e0       	ldi	r24, 0x00	; 0
    1494:	90 e0       	ldi	r25, 0x00	; 0
    1496:	a0 e0       	ldi	r26, 0x00	; 0
    1498:	b0 e0       	ldi	r27, 0x00	; 0
    149a:	fb 01       	movw	r30, r22
    149c:	81 ab       	std	Z+49, r24	; 0x31
    149e:	92 ab       	std	Z+50, r25	; 0x32
    14a0:	a3 ab       	std	Z+51, r26	; 0x33
    14a2:	b4 ab       	std	Z+52, r27	; 0x34
uint8_t Timebase_UpCounter_SS_Get_Status(uint8_t window){
  return Timebase->UpCounterSS[window].Status.Value;
}

void Timebase_UpCounter_SS_Set_Status(uint8_t window, uint8_t value){
  Timebase->UpCounterSS[window].Status.Value = value;
    14a4:	89 e1       	ldi	r24, 0x19	; 25
    14a6:	90 e0       	ldi	r25, 0x00	; 0
    14a8:	2d 81       	ldd	r18, Y+5	; 0x05
    14aa:	3e 81       	ldd	r19, Y+6	; 0x06
    14ac:	28 9f       	mul	r18, r24
    14ae:	f0 01       	movw	r30, r0
    14b0:	29 9f       	mul	r18, r25
    14b2:	f0 0d       	add	r31, r0
    14b4:	38 9f       	mul	r19, r24
    14b6:	f0 0d       	add	r31, r0
    14b8:	11 24       	eor	r1, r1
    14ba:	e2 0d       	add	r30, r2
    14bc:	f3 1d       	adc	r31, r3
    14be:	80 a1       	ldd	r24, Z+32	; 0x20
    14c0:	81 7e       	andi	r24, 0xE1	; 225
    14c2:	88 60       	ori	r24, 0x08	; 8
    14c4:	80 a3       	std	Z+32, r24	; 0x20
    14c6:	90 c0       	rjmp	.+288    	; 0x15e8 <Timebase_UpCounter_SS_Update+0x2ec>
	  Timebase_UpCounter_SS_Set_EndValueSubSec(window, 0);
      Timebase_UpCounter_SS_Set_TemporaryValue(window, 0);
      Timebase_UpCounter_SS_Set_Value(window, Timebase_UpCounter_SS_Get_TargetValue(window));
      Timebase_UpCounter_SS_Set_Status(window, COUNTER_STATE_EXPIRED);
    }
  } else if (Timebase_UpCounter_SS_Get_Status( window ) == COUNTER_STATE_STOPPED){
    14c8:	82 30       	cpi	r24, 0x02	; 2
    14ca:	09 f0       	breq	.+2      	; 0x14ce <Timebase_UpCounter_SS_Update+0x1d2>
    14cc:	8d c0       	rjmp	.+282    	; 0x15e8 <Timebase_UpCounter_SS_Update+0x2ec>
  return Timebase->Time.SubSeconds;
}


int32_t Timebase_Timer_Get_Seconds(void){
  return Timebase->Time.Seconds;
    14ce:	d1 01       	movw	r26, r2
    14d0:	1a 96       	adiw	r26, 0x0a	; 10
    14d2:	8d 91       	ld	r24, X+
    14d4:	9d 91       	ld	r25, X+
    14d6:	0d 90       	ld	r0, X+
    14d8:	bc 91       	ld	r27, X
    14da:	a0 2d       	mov	r26, r0
    14dc:	89 83       	std	Y+1, r24	; 0x01
    14de:	9a 83       	std	Y+2, r25	; 0x02
    14e0:	ab 83       	std	Y+3, r26	; 0x03
    14e2:	bc 83       	std	Y+4, r27	; 0x04
  return Timebase->Time.SecondsShadow;
}


uint16_t Timebase_Timer_Get_SubSeconds(void){
  return Timebase->Time.SubSeconds;
    14e4:	f1 01       	movw	r30, r2
    14e6:	80 84       	ldd	r8, Z+8	; 0x08
    14e8:	91 84       	ldd	r9, Z+9	; 0x09
void Timebase_UpCounter_SS_Set_TargetValue(uint8_t window, int32_t value){
  Timebase->UpCounterSS[window].Target = value;
}

int32_t Timebase_UpCounter_SS_Get_TemporaryValue(uint8_t window){
  return Timebase->UpCounterSS[window].Temporary;
    14ea:	db 01       	movw	r26, r22
    14ec:	9d 96       	adiw	r26, 0x2d	; 45
    14ee:	ad 90       	ld	r10, X+
    14f0:	bd 90       	ld	r11, X+
    14f2:	cd 90       	ld	r12, X+
    14f4:	dc 90       	ld	r13, X
    14f6:	d0 97       	sbiw	r26, 0x30	; 48
    }
  } else if (Timebase_UpCounter_SS_Get_Status( window ) == COUNTER_STATE_STOPPED){
    curr_s  = Timebase_Timer_Get_Seconds();
	curr_ss = Timebase_Timer_Get_SubSeconds();
	int32_t value = Timebase_UpCounter_SS_Get_TemporaryValue(window);
	int32_t subsec_val = value % Timebase->Config.UpdateRate;
    14f8:	21 81       	ldd	r18, Z+1	; 0x01
    14fa:	32 81       	ldd	r19, Z+2	; 0x02
    14fc:	40 e0       	ldi	r20, 0x00	; 0
    14fe:	50 e0       	ldi	r21, 0x00	; 0
    1500:	c6 01       	movw	r24, r12
    1502:	b5 01       	movw	r22, r10
    1504:	0e 94 30 19 	call	0x3260	; 0x3260 <__divmodsi4>
    1508:	7b 01       	movw	r14, r22
    150a:	8c 01       	movw	r16, r24
	int32_t sec_val    = value / Timebase->Config.UpdateRate;
    150c:	f1 01       	movw	r30, r2
    150e:	21 81       	ldd	r18, Z+1	; 0x01
    1510:	32 81       	ldd	r19, Z+2	; 0x02
    1512:	40 e0       	ldi	r20, 0x00	; 0
    1514:	50 e0       	ldi	r21, 0x00	; 0
    1516:	c6 01       	movw	r24, r12
    1518:	b5 01       	movw	r22, r10
    151a:	0e 94 30 19 	call	0x3260	; 0x3260 <__divmodsi4>
    151e:	c9 01       	movw	r24, r18
    1520:	da 01       	movw	r26, r20
    1522:	2c 01       	movw	r4, r24
    1524:	3d 01       	movw	r6, r26
	subsec_val += curr_ss;
    1526:	aa 24       	eor	r10, r10
    1528:	bb 24       	eor	r11, r11
    152a:	8e 0c       	add	r8, r14
    152c:	9f 1c       	adc	r9, r15
    152e:	a0 1e       	adc	r10, r16
    1530:	b1 1e       	adc	r11, r17
	if(subsec_val >= Timebase->Config.UpdateRate){
    1532:	d1 01       	movw	r26, r2
    1534:	11 96       	adiw	r26, 0x01	; 1
    1536:	8d 91       	ld	r24, X+
    1538:	9c 91       	ld	r25, X
    153a:	12 97       	sbiw	r26, 0x02	; 2
    153c:	a0 e0       	ldi	r26, 0x00	; 0
    153e:	b0 e0       	ldi	r27, 0x00	; 0
    1540:	88 16       	cp	r8, r24
    1542:	99 06       	cpc	r9, r25
    1544:	aa 06       	cpc	r10, r26
    1546:	bb 06       	cpc	r11, r27
    1548:	9c f0       	brlt	.+38     	; 0x1570 <Timebase_UpCounter_SS_Update+0x274>
	  sec_val += 1;
    154a:	08 94       	sec
    154c:	41 1c       	adc	r4, r1
    154e:	51 1c       	adc	r5, r1
    1550:	61 1c       	adc	r6, r1
    1552:	71 1c       	adc	r7, r1
	  subsec_val %= Timebase->Config.UpdateRate;
    1554:	f1 01       	movw	r30, r2
    1556:	21 81       	ldd	r18, Z+1	; 0x01
    1558:	32 81       	ldd	r19, Z+2	; 0x02
    155a:	40 e0       	ldi	r20, 0x00	; 0
    155c:	50 e0       	ldi	r21, 0x00	; 0
    155e:	c5 01       	movw	r24, r10
    1560:	b4 01       	movw	r22, r8
    1562:	0e 94 30 19 	call	0x3260	; 0x3260 <__divmodsi4>
    1566:	ac 01       	movw	r20, r24
    1568:	cb 01       	movw	r24, r22
    156a:	da 01       	movw	r26, r20
    156c:	4c 01       	movw	r8, r24
    156e:	5d 01       	movw	r10, r26
int32_t Timebase_UpCounter_SS_Get_EndValueSubSec(uint8_t window){
  return Timebase->UpCounterSS[window].EndValueSubSec;
}

void Timebase_UpCounter_SS_Set_EndValueSec(uint8_t window, int32_t value){
  Timebase->UpCounterSS[window].EndValueSec = value;
    1570:	89 e1       	ldi	r24, 0x19	; 25
    1572:	90 e0       	ldi	r25, 0x00	; 0
    1574:	2d 81       	ldd	r18, Y+5	; 0x05
    1576:	3e 81       	ldd	r19, Y+6	; 0x06
    1578:	28 9f       	mul	r18, r24
    157a:	80 01       	movw	r16, r0
    157c:	29 9f       	mul	r18, r25
    157e:	10 0d       	add	r17, r0
    1580:	38 9f       	mul	r19, r24
    1582:	10 0d       	add	r17, r0
    1584:	11 24       	eor	r1, r1
    1586:	02 0d       	add	r16, r2
    1588:	13 1d       	adc	r17, r3
    158a:	89 81       	ldd	r24, Y+1	; 0x01
    158c:	9a 81       	ldd	r25, Y+2	; 0x02
    158e:	ab 81       	ldd	r26, Y+3	; 0x03
    1590:	bc 81       	ldd	r27, Y+4	; 0x04
    1592:	84 0d       	add	r24, r4
    1594:	95 1d       	adc	r25, r5
    1596:	a6 1d       	adc	r26, r6
    1598:	b7 1d       	adc	r27, r7
    159a:	f8 01       	movw	r30, r16
    159c:	81 a3       	std	Z+33, r24	; 0x21
    159e:	92 a3       	std	Z+34, r25	; 0x22
    15a0:	a3 a3       	std	Z+35, r26	; 0x23
    15a2:	b4 a3       	std	Z+36, r27	; 0x24
}

void Timebase_UpCounter_SS_Set_EndValueSubSec(uint8_t window, int32_t value){
  Timebase->UpCounterSS[window].EndValueSubSec = value;
    15a4:	d8 01       	movw	r26, r16
    15a6:	95 96       	adiw	r26, 0x25	; 37
    15a8:	8d 92       	st	X+, r8
    15aa:	9d 92       	st	X+, r9
    15ac:	ad 92       	st	X+, r10
    15ae:	bc 92       	st	X, r11
    15b0:	98 97       	sbiw	r26, 0x28	; 40
	  subsec_val %= Timebase->Config.UpdateRate;
	}
	sec_val += curr_s;
	Timebase_UpCounter_SS_Set_EndValueSec(window, sec_val);
	Timebase_UpCounter_SS_Set_EndValueSubSec(window, subsec_val);
    Timebase_UpCounter_SS_Set_Value(window, Timebase_UpCounter_SS_Get_TargetValue(window) - Timebase_UpCounter_SS_Get_TemporaryValue(window));
    15b2:	99 96       	adiw	r26, 0x29	; 41
    15b4:	2d 91       	ld	r18, X+
    15b6:	3d 91       	ld	r19, X+
    15b8:	4d 91       	ld	r20, X+
    15ba:	5c 91       	ld	r21, X
    15bc:	9c 97       	sbiw	r26, 0x2c	; 44
    15be:	9d 96       	adiw	r26, 0x2d	; 45
    15c0:	8d 91       	ld	r24, X+
    15c2:	9d 91       	ld	r25, X+
    15c4:	0d 90       	ld	r0, X+
    15c6:	bc 91       	ld	r27, X
    15c8:	a0 2d       	mov	r26, r0

void Timebase_UpCounter_SS_Set_Value(uint8_t window, int32_t value){
  if(value < 0){
    value = 0;
  }
  Timebase->UpCounterSS[window].Value = value;
    15ca:	28 1b       	sub	r18, r24
    15cc:	39 0b       	sbc	r19, r25
    15ce:	4a 0b       	sbc	r20, r26
    15d0:	5b 0b       	sbc	r21, r27
    15d2:	57 ff       	sbrs	r21, 7
    15d4:	04 c0       	rjmp	.+8      	; 0x15de <Timebase_UpCounter_SS_Update+0x2e2>
    15d6:	20 e0       	ldi	r18, 0x00	; 0
    15d8:	30 e0       	ldi	r19, 0x00	; 0
    15da:	40 e0       	ldi	r20, 0x00	; 0
    15dc:	50 e0       	ldi	r21, 0x00	; 0
    15de:	f8 01       	movw	r30, r16
    15e0:	21 ab       	std	Z+49, r18	; 0x31
    15e2:	32 ab       	std	Z+50, r19	; 0x32
    15e4:	43 ab       	std	Z+51, r20	; 0x33
    15e6:	54 ab       	std	Z+52, r21	; 0x34
	sec_val += curr_s;
	Timebase_UpCounter_SS_Set_EndValueSec(window, sec_val);
	Timebase_UpCounter_SS_Set_EndValueSubSec(window, subsec_val);
    Timebase_UpCounter_SS_Set_Value(window, Timebase_UpCounter_SS_Get_TargetValue(window) - Timebase_UpCounter_SS_Get_TemporaryValue(window));
  }
}
    15e8:	26 96       	adiw	r28, 0x06	; 6
    15ea:	0f b6       	in	r0, 0x3f	; 63
    15ec:	f8 94       	cli
    15ee:	de bf       	out	0x3e, r29	; 62
    15f0:	0f be       	out	0x3f, r0	; 63
    15f2:	cd bf       	out	0x3d, r28	; 61
    15f4:	cf 91       	pop	r28
    15f6:	df 91       	pop	r29
    15f8:	1f 91       	pop	r17
    15fa:	0f 91       	pop	r16
    15fc:	ff 90       	pop	r15
    15fe:	ef 90       	pop	r14
    1600:	df 90       	pop	r13
    1602:	cf 90       	pop	r12
    1604:	bf 90       	pop	r11
    1606:	af 90       	pop	r10
    1608:	9f 90       	pop	r9
    160a:	8f 90       	pop	r8
    160c:	7f 90       	pop	r7
    160e:	6f 90       	pop	r6
    1610:	5f 90       	pop	r5
    1612:	4f 90       	pop	r4
    1614:	3f 90       	pop	r3
    1616:	2f 90       	pop	r2
    1618:	08 95       	ret

0000161a <Timebase_UpCounter_SS_Expired>:


uint8_t Timebase_UpCounter_SS_Expired(uint8_t window){
    161a:	40 e0       	ldi	r20, 0x00	; 0
    161c:	e0 91 43 01 	lds	r30, 0x0143
    1620:	f0 91 44 01 	lds	r31, 0x0144
    1624:	90 e0       	ldi	r25, 0x00	; 0
    1626:	29 e1       	ldi	r18, 0x19	; 25
    1628:	30 e0       	ldi	r19, 0x00	; 0
    162a:	bc 01       	movw	r22, r24
    162c:	62 9f       	mul	r22, r18
    162e:	c0 01       	movw	r24, r0
    1630:	63 9f       	mul	r22, r19
    1632:	90 0d       	add	r25, r0
    1634:	72 9f       	mul	r23, r18
    1636:	90 0d       	add	r25, r0
    1638:	11 24       	eor	r1, r1
    163a:	e8 0f       	add	r30, r24
    163c:	f9 1f       	adc	r31, r25
    163e:	80 a1       	ldd	r24, Z+32	; 0x20
    1640:	86 95       	lsr	r24
    1642:	8f 70       	andi	r24, 0x0F	; 15
    1644:	84 30       	cpi	r24, 0x04	; 4
    1646:	09 f4       	brne	.+2      	; 0x164a <Timebase_UpCounter_SS_Expired+0x30>
    1648:	41 e0       	ldi	r20, 0x01	; 1
  if(Timebase_UpCounter_SS_Get_Status( window ) == COUNTER_STATE_EXPIRED){
    return TIMEBASE_TRUE;
  }else{
    return TIMEBASE_FALSE;
  }
}
    164a:	84 2f       	mov	r24, r20
    164c:	08 95       	ret

0000164e <Timebase_UpCounter_SS_Expired_Event>:

uint8_t Timebase_UpCounter_SS_Expired_Event(uint8_t window){
    164e:	48 2f       	mov	r20, r24
  if(Timebase_UpCounter_SS_Get_Status( window ) == COUNTER_STATE_EXPIRED){
    1650:	e0 91 43 01 	lds	r30, 0x0143
    1654:	f0 91 44 01 	lds	r31, 0x0144
    1658:	28 2f       	mov	r18, r24
    165a:	30 e0       	ldi	r19, 0x00	; 0
    165c:	89 e1       	ldi	r24, 0x19	; 25
    165e:	90 e0       	ldi	r25, 0x00	; 0
    1660:	bc 01       	movw	r22, r24
    1662:	26 9f       	mul	r18, r22
    1664:	c0 01       	movw	r24, r0
    1666:	27 9f       	mul	r18, r23
    1668:	90 0d       	add	r25, r0
    166a:	36 9f       	mul	r19, r22
    166c:	90 0d       	add	r25, r0
    166e:	11 24       	eor	r1, r1
    1670:	e8 0f       	add	r30, r24
    1672:	f9 1f       	adc	r31, r25
    1674:	80 a1       	ldd	r24, Z+32	; 0x20
    1676:	86 95       	lsr	r24
    1678:	8f 70       	andi	r24, 0x0F	; 15
    167a:	84 30       	cpi	r24, 0x04	; 4
    167c:	11 f0       	breq	.+4      	; 0x1682 <Timebase_UpCounter_SS_Expired_Event+0x34>
    167e:	80 e0       	ldi	r24, 0x00	; 0
    1680:	08 95       	ret
  Timebase_UpCounter_SS_Set_PeriodValue(window, 0);
  Timebase_UpCounter_SS_Clear_Period_Flag(window);
} 

void Timebase_UpCounter_SS_Clear_All_Flags(uint8_t window){
  Timebase_UpCounter_SS_Reset( window );
    1682:	84 2f       	mov	r24, r20
    1684:	0e 94 45 08 	call	0x108a	; 0x108a <Timebase_UpCounter_SS_Reset>
    1688:	81 e0       	ldi	r24, 0x01	; 1
    Timebase_UpCounter_SS_Clear_All_Flags( window );
    return TIMEBASE_TRUE;
  }else{
    return TIMEBASE_FALSE;
  }
}
    168a:	08 95       	ret

0000168c <Timebase_UpCounter_SS_Set_Period_Value_Securely>:
void Timebase_UpCounter_SS_Set_PeriodValue(uint8_t window, int32_t value){
  Timebase->UpCounterSS[window].PeriodValue = value;
}

uint8_t Timebase_UpCounter_SS_Get_Period_Flag(uint8_t window){
  return Timebase->UpCounterSS[window].Status.PeriodFlag;
    168c:	e0 91 43 01 	lds	r30, 0x0143
    1690:	f0 91 44 01 	lds	r31, 0x0144
    1694:	90 e0       	ldi	r25, 0x00	; 0
    return TIMEBASE_FALSE;
  }
}

void Timebase_UpCounter_SS_Set_Period_Value_Securely(uint8_t window, int32_t value){
  if(Timebase_UpCounter_SS_Get_Period_Flag( window ) == FLAG_STATE_RESET){
    1696:	29 e1       	ldi	r18, 0x19	; 25
    1698:	30 e0       	ldi	r19, 0x00	; 0
    169a:	dc 01       	movw	r26, r24
    169c:	a2 9f       	mul	r26, r18
    169e:	c0 01       	movw	r24, r0
    16a0:	a3 9f       	mul	r26, r19
    16a2:	90 0d       	add	r25, r0
    16a4:	b2 9f       	mul	r27, r18
    16a6:	90 0d       	add	r25, r0
    16a8:	11 24       	eor	r1, r1
    16aa:	e8 0f       	add	r30, r24
    16ac:	f9 1f       	adc	r31, r25
    16ae:	80 a1       	ldd	r24, Z+32	; 0x20
    16b0:	80 fd       	sbrc	r24, 0
    16b2:	0f c0       	rjmp	.+30     	; 0x16d2 <Timebase_UpCounter_SS_Set_Period_Value_Securely+0x46>
int32_t Timebase_UpCounter_SS_Get_PeriodValue(uint8_t window){
  return Timebase->UpCounterSS[window].PeriodValue;
}

void Timebase_UpCounter_SS_Set_PeriodValue(uint8_t window, int32_t value){
  Timebase->UpCounterSS[window].PeriodValue = value;
    16b4:	81 a9       	ldd	r24, Z+49	; 0x31
    16b6:	92 a9       	ldd	r25, Z+50	; 0x32
    16b8:	a3 a9       	ldd	r26, Z+51	; 0x33
    16ba:	b4 a9       	ldd	r27, Z+52	; 0x34
    16bc:	84 0f       	add	r24, r20
    16be:	95 1f       	adc	r25, r21
    16c0:	a6 1f       	adc	r26, r22
    16c2:	b7 1f       	adc	r27, r23
    16c4:	85 ab       	std	Z+53, r24	; 0x35
    16c6:	96 ab       	std	Z+54, r25	; 0x36
    16c8:	a7 ab       	std	Z+55, r26	; 0x37
    16ca:	b0 af       	std	Z+56, r27	; 0x38
uint8_t Timebase_UpCounter_SS_Get_Period_Flag(uint8_t window){
  return Timebase->UpCounterSS[window].Status.PeriodFlag;
}

void Timebase_UpCounter_SS_Set_Period_Flag(uint8_t window){
  Timebase->UpCounterSS[window].Status.PeriodFlag = FLAG_STATE_SET;
    16cc:	80 a1       	ldd	r24, Z+32	; 0x20
    16ce:	81 60       	ori	r24, 0x01	; 1
    16d0:	80 a3       	std	Z+32, r24	; 0x20
    16d2:	08 95       	ret

000016d4 <Timebase_UpCounter_SS_Get_Remaining_Period_Value>:
  }
  Timebase->UpCounterSS[window].Temporary = value;
}

int32_t Timebase_UpCounter_SS_Get_PeriodValue(uint8_t window){
  return Timebase->UpCounterSS[window].PeriodValue;
    16d4:	e0 91 43 01 	lds	r30, 0x0143
    16d8:	f0 91 44 01 	lds	r31, 0x0144
    16dc:	90 e0       	ldi	r25, 0x00	; 0
    16de:	29 e1       	ldi	r18, 0x19	; 25
    16e0:	30 e0       	ldi	r19, 0x00	; 0
    16e2:	ac 01       	movw	r20, r24
    16e4:	42 9f       	mul	r20, r18
    16e6:	c0 01       	movw	r24, r0
    16e8:	43 9f       	mul	r20, r19
    16ea:	90 0d       	add	r25, r0
    16ec:	52 9f       	mul	r21, r18
    16ee:	90 0d       	add	r25, r0
    16f0:	11 24       	eor	r1, r1
    16f2:	e8 0f       	add	r30, r24
    16f4:	f9 1f       	adc	r31, r25
    16f6:	25 a9       	ldd	r18, Z+53	; 0x35
    16f8:	36 a9       	ldd	r19, Z+54	; 0x36
    16fa:	47 a9       	ldd	r20, Z+55	; 0x37
    16fc:	50 ad       	ldd	r21, Z+56	; 0x38
  }
}

int32_t Timebase_UpCounter_SS_Get_Remaining_Period_Value(uint8_t window){
  int32_t temp = Timebase_UpCounter_SS_Get_PeriodValue( window );
  temp -= Timebase_UpCounter_SS_Get_Value( window );
    16fe:	81 a9       	ldd	r24, Z+49	; 0x31
    1700:	92 a9       	ldd	r25, Z+50	; 0x32
    1702:	a3 a9       	ldd	r26, Z+51	; 0x33
    1704:	b4 a9       	ldd	r27, Z+52	; 0x34
    1706:	28 1b       	sub	r18, r24
    1708:	39 0b       	sbc	r19, r25
    170a:	4a 0b       	sbc	r20, r26
    170c:	5b 0b       	sbc	r21, r27
    170e:	57 ff       	sbrs	r21, 7
    1710:	04 c0       	rjmp	.+8      	; 0x171a <Timebase_UpCounter_SS_Get_Remaining_Period_Value+0x46>
    1712:	20 e0       	ldi	r18, 0x00	; 0
    1714:	30 e0       	ldi	r19, 0x00	; 0
    1716:	40 e0       	ldi	r20, 0x00	; 0
    1718:	50 e0       	ldi	r21, 0x00	; 0
  if(temp < 0){
    temp = 0;
  }
  return temp;
}
    171a:	b9 01       	movw	r22, r18
    171c:	ca 01       	movw	r24, r20
    171e:	08 95       	ret

00001720 <Timebase_UpCounter_SS_Period_Value_Expired>:

uint8_t Timebase_UpCounter_SS_Period_Value_Expired(uint8_t window){
    1720:	cf 93       	push	r28
    1722:	df 93       	push	r29
  }
  Timebase->UpCounterSS[window].Temporary = value;
}

int32_t Timebase_UpCounter_SS_Get_PeriodValue(uint8_t window){
  return Timebase->UpCounterSS[window].PeriodValue;
    1724:	c0 91 43 01 	lds	r28, 0x0143
    1728:	d0 91 44 01 	lds	r29, 0x0144
    172c:	68 2f       	mov	r22, r24
    172e:	70 e0       	ldi	r23, 0x00	; 0
    1730:	89 e1       	ldi	r24, 0x19	; 25
    1732:	90 e0       	ldi	r25, 0x00	; 0
    1734:	68 9f       	mul	r22, r24
    1736:	f0 01       	movw	r30, r0
    1738:	69 9f       	mul	r22, r25
    173a:	f0 0d       	add	r31, r0
    173c:	78 9f       	mul	r23, r24
    173e:	f0 0d       	add	r31, r0
    1740:	11 24       	eor	r1, r1
    1742:	ec 0f       	add	r30, r28
    1744:	fd 1f       	adc	r31, r29
    1746:	25 a9       	ldd	r18, Z+53	; 0x35
    1748:	36 a9       	ldd	r19, Z+54	; 0x36
    174a:	47 a9       	ldd	r20, Z+55	; 0x37
    174c:	50 ad       	ldd	r21, Z+56	; 0x38
  }
}

int32_t Timebase_UpCounter_SS_Get_Remaining_Period_Value(uint8_t window){
  int32_t temp = Timebase_UpCounter_SS_Get_PeriodValue( window );
  temp -= Timebase_UpCounter_SS_Get_Value( window );
    174e:	81 a9       	ldd	r24, Z+49	; 0x31
    1750:	92 a9       	ldd	r25, Z+50	; 0x32
    1752:	a3 a9       	ldd	r26, Z+51	; 0x33
    1754:	b4 a9       	ldd	r27, Z+52	; 0x34
    1756:	28 1b       	sub	r18, r24
    1758:	39 0b       	sbc	r19, r25
    175a:	4a 0b       	sbc	r20, r26
    175c:	5b 0b       	sbc	r21, r27
  if(temp < 0){
    175e:	57 fd       	sbrc	r21, 7
    1760:	07 c0       	rjmp	.+14     	; 0x1770 <Timebase_UpCounter_SS_Period_Value_Expired+0x50>
  }
  return temp;
}

uint8_t Timebase_UpCounter_SS_Period_Value_Expired(uint8_t window){
  if( (Timebase_UpCounter_SS_Get_Remaining_Period_Value( window ) == 0) && (Timebase_UpCounter_SS_Get_Period_Flag( window ) == FLAG_STATE_SET) ){
    1762:	21 15       	cp	r18, r1
    1764:	31 05       	cpc	r19, r1
    1766:	41 05       	cpc	r20, r1
    1768:	51 05       	cpc	r21, r1
    176a:	11 f0       	breq	.+4      	; 0x1770 <Timebase_UpCounter_SS_Period_Value_Expired+0x50>
    176c:	20 e0       	ldi	r18, 0x00	; 0
    176e:	12 c0       	rjmp	.+36     	; 0x1794 <Timebase_UpCounter_SS_Period_Value_Expired+0x74>
    1770:	20 e0       	ldi	r18, 0x00	; 0
    1772:	89 e1       	ldi	r24, 0x19	; 25
    1774:	90 e0       	ldi	r25, 0x00	; 0
    1776:	ac 01       	movw	r20, r24
    1778:	64 9f       	mul	r22, r20
    177a:	c0 01       	movw	r24, r0
    177c:	65 9f       	mul	r22, r21
    177e:	90 0d       	add	r25, r0
    1780:	74 9f       	mul	r23, r20
    1782:	90 0d       	add	r25, r0
    1784:	11 24       	eor	r1, r1
    1786:	c8 0f       	add	r28, r24
    1788:	d9 1f       	adc	r29, r25
    178a:	88 a1       	ldd	r24, Y+32	; 0x20
    178c:	80 ff       	sbrs	r24, 0
    178e:	21 e0       	ldi	r18, 0x01	; 1
    1790:	81 e0       	ldi	r24, 0x01	; 1
    1792:	28 27       	eor	r18, r24
    return TIMEBASE_TRUE;
  }else{
    return TIMEBASE_FALSE;
  }
}
    1794:	82 2f       	mov	r24, r18
    1796:	df 91       	pop	r29
    1798:	cf 91       	pop	r28
    179a:	08 95       	ret

0000179c <Timebase_UpCounter_SS_Period_Value_Expired_Event>:

uint8_t Timebase_UpCounter_SS_Period_Value_Expired_Event(uint8_t window){
    179c:	1f 93       	push	r17
    179e:	18 2f       	mov	r17, r24
  if(Timebase_UpCounter_SS_Period_Value_Expired( window ) == TIMEBASE_TRUE){
    17a0:	0e 94 90 0b 	call	0x1720	; 0x1720 <Timebase_UpCounter_SS_Period_Value_Expired>
    17a4:	81 30       	cpi	r24, 0x01	; 1
    17a6:	11 f0       	breq	.+4      	; 0x17ac <Timebase_UpCounter_SS_Period_Value_Expired_Event+0x10>
    17a8:	80 e0       	ldi	r24, 0x00	; 0
    17aa:	16 c0       	rjmp	.+44     	; 0x17d8 <Timebase_UpCounter_SS_Period_Value_Expired_Event+0x3c>
void Timebase_UpCounter_SS_Set_Period_Flag(uint8_t window){
  Timebase->UpCounterSS[window].Status.PeriodFlag = FLAG_STATE_SET;
}

void Timebase_UpCounter_SS_Clear_Period_Flag(uint8_t window){
  Timebase->UpCounterSS[window].Status.PeriodFlag = FLAG_STATE_RESET;
    17ac:	e0 91 43 01 	lds	r30, 0x0143
    17b0:	f0 91 44 01 	lds	r31, 0x0144
    17b4:	21 2f       	mov	r18, r17
    17b6:	30 e0       	ldi	r19, 0x00	; 0
    17b8:	89 e1       	ldi	r24, 0x19	; 25
    17ba:	90 e0       	ldi	r25, 0x00	; 0
    17bc:	ac 01       	movw	r20, r24
    17be:	24 9f       	mul	r18, r20
    17c0:	c0 01       	movw	r24, r0
    17c2:	25 9f       	mul	r18, r21
    17c4:	90 0d       	add	r25, r0
    17c6:	34 9f       	mul	r19, r20
    17c8:	90 0d       	add	r25, r0
    17ca:	11 24       	eor	r1, r1
    17cc:	e8 0f       	add	r30, r24
    17ce:	f9 1f       	adc	r31, r25
    17d0:	80 a1       	ldd	r24, Z+32	; 0x20
    17d2:	8e 7f       	andi	r24, 0xFE	; 254
    17d4:	80 a3       	std	Z+32, r24	; 0x20
    17d6:	81 e0       	ldi	r24, 0x01	; 1
    Timebase_UpCounter_SS_Clear_Period_Flag( window );
    return TIMEBASE_TRUE;
  }else{
    return TIMEBASE_FALSE;
  }
}
    17d8:	1f 91       	pop	r17
    17da:	08 95       	ret

000017dc <Timebase_UpCounter_SS_Update_All>:

void Timebase_UpCounter_SS_Update_All(void){
  for(uint8_t i=0; i<TIMEBASE_UPCOUNTER; i++){
    Timebase_UpCounter_SS_Update(i);
    17dc:	80 e0       	ldi	r24, 0x00	; 0
    17de:	0e 94 7e 09 	call	0x12fc	; 0x12fc <Timebase_UpCounter_SS_Update>
  }
}
    17e2:	08 95       	ret

000017e4 <Timebase_UpCounter_SS_Reset_All>:

void Timebase_UpCounter_SS_Reset_All(void){
  for(uint8_t i=0; i<TIMEBASE_UPCOUNTER; i++){
    Timebase_UpCounter_SS_Reset(i);
    17e4:	80 e0       	ldi	r24, 0x00	; 0
    17e6:	0e 94 45 08 	call	0x108a	; 0x108a <Timebase_UpCounter_SS_Reset>
  }
}
    17ea:	08 95       	ret

000017ec <Timebase_UpCounter_Get_Status>:


/******************************UpCounter Functions Start*****************************/

#ifdef TIMEBASE_UPCOUNTER
uint8_t Timebase_UpCounter_Get_Status(uint8_t window){
    17ec:	e0 91 43 01 	lds	r30, 0x0143
    17f0:	f0 91 44 01 	lds	r31, 0x0144
    17f4:	90 e0       	ldi	r25, 0x00	; 0
    17f6:	25 e1       	ldi	r18, 0x15	; 21
    17f8:	30 e0       	ldi	r19, 0x00	; 0
    17fa:	ac 01       	movw	r20, r24
    17fc:	42 9f       	mul	r20, r18
    17fe:	c0 01       	movw	r24, r0
    1800:	43 9f       	mul	r20, r19
    1802:	90 0d       	add	r25, r0
    1804:	52 9f       	mul	r21, r18
    1806:	90 0d       	add	r25, r0
    1808:	11 24       	eor	r1, r1
    180a:	e8 0f       	add	r30, r24
    180c:	f9 1f       	adc	r31, r25
    180e:	81 ad       	ldd	r24, Z+57	; 0x39
    1810:	86 95       	lsr	r24
  return Timebase->UpCounter[window].Status.Value;
}
    1812:	8f 70       	andi	r24, 0x0F	; 15
    1814:	08 95       	ret

00001816 <Timebase_UpCounter_Set_Status>:

void Timebase_UpCounter_Set_Status(uint8_t window, uint8_t value){
  Timebase->UpCounter[window].Status.Value = value;
    1816:	e0 91 43 01 	lds	r30, 0x0143
    181a:	f0 91 44 01 	lds	r31, 0x0144
    181e:	90 e0       	ldi	r25, 0x00	; 0
    1820:	25 e1       	ldi	r18, 0x15	; 21
    1822:	30 e0       	ldi	r19, 0x00	; 0
    1824:	ac 01       	movw	r20, r24
    1826:	42 9f       	mul	r20, r18
    1828:	c0 01       	movw	r24, r0
    182a:	43 9f       	mul	r20, r19
    182c:	90 0d       	add	r25, r0
    182e:	52 9f       	mul	r21, r18
    1830:	90 0d       	add	r25, r0
    1832:	11 24       	eor	r1, r1
    1834:	e8 0f       	add	r30, r24
    1836:	f9 1f       	adc	r31, r25
    1838:	6f 70       	andi	r22, 0x0F	; 15
    183a:	66 0f       	add	r22, r22
    183c:	81 ad       	ldd	r24, Z+57	; 0x39
    183e:	81 7e       	andi	r24, 0xE1	; 225
    1840:	86 2b       	or	r24, r22
    1842:	81 af       	std	Z+57, r24	; 0x39
}
    1844:	08 95       	ret

00001846 <Timebase_UpCounter_Get_Value>:

int32_t Timebase_UpCounter_Get_Value(uint8_t window){
    1846:	e0 91 43 01 	lds	r30, 0x0143
    184a:	f0 91 44 01 	lds	r31, 0x0144
    184e:	90 e0       	ldi	r25, 0x00	; 0
    1850:	25 e1       	ldi	r18, 0x15	; 21
    1852:	30 e0       	ldi	r19, 0x00	; 0
    1854:	ac 01       	movw	r20, r24
    1856:	42 9f       	mul	r20, r18
    1858:	c0 01       	movw	r24, r0
    185a:	43 9f       	mul	r20, r19
    185c:	90 0d       	add	r25, r0
    185e:	52 9f       	mul	r21, r18
    1860:	90 0d       	add	r25, r0
    1862:	11 24       	eor	r1, r1
    1864:	e8 0f       	add	r30, r24
    1866:	f9 1f       	adc	r31, r25
    1868:	ea 5b       	subi	r30, 0xBA	; 186
    186a:	ff 4f       	sbci	r31, 0xFF	; 255
    186c:	60 81       	ld	r22, Z
    186e:	71 81       	ldd	r23, Z+1	; 0x01
  return Timebase->UpCounter[window].Value;
}
    1870:	82 81       	ldd	r24, Z+2	; 0x02
    1872:	93 81       	ldd	r25, Z+3	; 0x03
    1874:	08 95       	ret

00001876 <Timebase_UpCounter_Set_Value>:

void Timebase_UpCounter_Set_Value(uint8_t window, int32_t value){
    1876:	cf 93       	push	r28
    1878:	df 93       	push	r29
  if(value < 0){
    value = 0;
  }
  Timebase->UpCounter[window].Value = value;
    187a:	c0 91 43 01 	lds	r28, 0x0143
    187e:	d0 91 44 01 	lds	r29, 0x0144
    1882:	90 e0       	ldi	r25, 0x00	; 0
    1884:	25 e1       	ldi	r18, 0x15	; 21
    1886:	30 e0       	ldi	r19, 0x00	; 0
    1888:	fc 01       	movw	r30, r24
    188a:	e2 9f       	mul	r30, r18
    188c:	c0 01       	movw	r24, r0
    188e:	e3 9f       	mul	r30, r19
    1890:	90 0d       	add	r25, r0
    1892:	f2 9f       	mul	r31, r18
    1894:	90 0d       	add	r25, r0
    1896:	11 24       	eor	r1, r1
    1898:	c8 0f       	add	r28, r24
    189a:	d9 1f       	adc	r29, r25
    189c:	ca 5b       	subi	r28, 0xBA	; 186
    189e:	df 4f       	sbci	r29, 0xFF	; 255
    18a0:	ca 01       	movw	r24, r20
    18a2:	db 01       	movw	r26, r22
    18a4:	b7 ff       	sbrs	r27, 7
    18a6:	04 c0       	rjmp	.+8      	; 0x18b0 <Timebase_UpCounter_Set_Value+0x3a>
    18a8:	80 e0       	ldi	r24, 0x00	; 0
    18aa:	90 e0       	ldi	r25, 0x00	; 0
    18ac:	a0 e0       	ldi	r26, 0x00	; 0
    18ae:	b0 e0       	ldi	r27, 0x00	; 0
    18b0:	88 83       	st	Y, r24
    18b2:	99 83       	std	Y+1, r25	; 0x01
    18b4:	aa 83       	std	Y+2, r26	; 0x02
    18b6:	bb 83       	std	Y+3, r27	; 0x03
}
    18b8:	df 91       	pop	r29
    18ba:	cf 91       	pop	r28
    18bc:	08 95       	ret

000018be <Timebase_UpCounter_Get_EndValueSec>:

int32_t Timebase_UpCounter_Get_EndValueSec(uint8_t window){
    18be:	e0 91 43 01 	lds	r30, 0x0143
    18c2:	f0 91 44 01 	lds	r31, 0x0144
    18c6:	90 e0       	ldi	r25, 0x00	; 0
    18c8:	25 e1       	ldi	r18, 0x15	; 21
    18ca:	30 e0       	ldi	r19, 0x00	; 0
    18cc:	ac 01       	movw	r20, r24
    18ce:	42 9f       	mul	r20, r18
    18d0:	c0 01       	movw	r24, r0
    18d2:	43 9f       	mul	r20, r19
    18d4:	90 0d       	add	r25, r0
    18d6:	52 9f       	mul	r21, r18
    18d8:	90 0d       	add	r25, r0
    18da:	11 24       	eor	r1, r1
    18dc:	e8 0f       	add	r30, r24
    18de:	f9 1f       	adc	r31, r25
    18e0:	df 01       	movw	r26, r30
    18e2:	da 96       	adiw	r26, 0x3a	; 58
    18e4:	62 ad       	ldd	r22, Z+58	; 0x3a
    18e6:	11 96       	adiw	r26, 0x01	; 1
    18e8:	7c 91       	ld	r23, X
    18ea:	11 97       	sbiw	r26, 0x01	; 1
  return Timebase->UpCounter[window].EndValue;
}
    18ec:	12 96       	adiw	r26, 0x02	; 2
    18ee:	8c 91       	ld	r24, X
    18f0:	12 97       	sbiw	r26, 0x02	; 2
    18f2:	13 96       	adiw	r26, 0x03	; 3
    18f4:	9c 91       	ld	r25, X
    18f6:	08 95       	ret

000018f8 <Timebase_UpCounter_Get_EndValueSubSec>:

int32_t Timebase_UpCounter_Get_EndValueSubSec(uint8_t window){
    18f8:	e0 91 43 01 	lds	r30, 0x0143
    18fc:	f0 91 44 01 	lds	r31, 0x0144
    1900:	90 e0       	ldi	r25, 0x00	; 0
    1902:	25 e1       	ldi	r18, 0x15	; 21
    1904:	30 e0       	ldi	r19, 0x00	; 0
    1906:	ac 01       	movw	r20, r24
    1908:	42 9f       	mul	r20, r18
    190a:	c0 01       	movw	r24, r0
    190c:	43 9f       	mul	r20, r19
    190e:	90 0d       	add	r25, r0
    1910:	52 9f       	mul	r21, r18
    1912:	90 0d       	add	r25, r0
    1914:	11 24       	eor	r1, r1
    1916:	e8 0f       	add	r30, r24
    1918:	f9 1f       	adc	r31, r25
    191a:	df 01       	movw	r26, r30
    191c:	da 96       	adiw	r26, 0x3a	; 58
    191e:	62 ad       	ldd	r22, Z+58	; 0x3a
    1920:	11 96       	adiw	r26, 0x01	; 1
    1922:	7c 91       	ld	r23, X
    1924:	11 97       	sbiw	r26, 0x01	; 1
  return Timebase->UpCounter[window].EndValue;
}
    1926:	12 96       	adiw	r26, 0x02	; 2
    1928:	8c 91       	ld	r24, X
    192a:	12 97       	sbiw	r26, 0x02	; 2
    192c:	13 96       	adiw	r26, 0x03	; 3
    192e:	9c 91       	ld	r25, X
    1930:	08 95       	ret

00001932 <Timebase_UpCounter_Set_EndValueSec>:

void Timebase_UpCounter_Set_EndValueSec(uint8_t window, int32_t value){
  Timebase->UpCounter[window].EndValue = value;
    1932:	e0 91 43 01 	lds	r30, 0x0143
    1936:	f0 91 44 01 	lds	r31, 0x0144
    193a:	90 e0       	ldi	r25, 0x00	; 0
    193c:	25 e1       	ldi	r18, 0x15	; 21
    193e:	30 e0       	ldi	r19, 0x00	; 0
    1940:	dc 01       	movw	r26, r24
    1942:	a2 9f       	mul	r26, r18
    1944:	c0 01       	movw	r24, r0
    1946:	a3 9f       	mul	r26, r19
    1948:	90 0d       	add	r25, r0
    194a:	b2 9f       	mul	r27, r18
    194c:	90 0d       	add	r25, r0
    194e:	11 24       	eor	r1, r1
    1950:	e8 0f       	add	r30, r24
    1952:	f9 1f       	adc	r31, r25
    1954:	42 af       	std	Z+58, r20	; 0x3a
    1956:	53 af       	std	Z+59, r21	; 0x3b
    1958:	64 af       	std	Z+60, r22	; 0x3c
    195a:	75 af       	std	Z+61, r23	; 0x3d
}
    195c:	08 95       	ret

0000195e <Timebase_UpCounter_Set_EndValueSubSec>:

void Timebase_UpCounter_Set_EndValueSubSec(uint8_t window, int32_t value){
  Timebase->UpCounter[window].EndValue = value;
    195e:	e0 91 43 01 	lds	r30, 0x0143
    1962:	f0 91 44 01 	lds	r31, 0x0144
    1966:	90 e0       	ldi	r25, 0x00	; 0
    1968:	25 e1       	ldi	r18, 0x15	; 21
    196a:	30 e0       	ldi	r19, 0x00	; 0
    196c:	dc 01       	movw	r26, r24
    196e:	a2 9f       	mul	r26, r18
    1970:	c0 01       	movw	r24, r0
    1972:	a3 9f       	mul	r26, r19
    1974:	90 0d       	add	r25, r0
    1976:	b2 9f       	mul	r27, r18
    1978:	90 0d       	add	r25, r0
    197a:	11 24       	eor	r1, r1
    197c:	e8 0f       	add	r30, r24
    197e:	f9 1f       	adc	r31, r25
    1980:	42 af       	std	Z+58, r20	; 0x3a
    1982:	53 af       	std	Z+59, r21	; 0x3b
    1984:	64 af       	std	Z+60, r22	; 0x3c
    1986:	75 af       	std	Z+61, r23	; 0x3d
}
    1988:	08 95       	ret

0000198a <Timebase_UpCounter_Get_TargetValue>:

int32_t Timebase_UpCounter_Get_TargetValue(uint8_t window){
    198a:	e0 91 43 01 	lds	r30, 0x0143
    198e:	f0 91 44 01 	lds	r31, 0x0144
    1992:	90 e0       	ldi	r25, 0x00	; 0
    1994:	25 e1       	ldi	r18, 0x15	; 21
    1996:	30 e0       	ldi	r19, 0x00	; 0
    1998:	ac 01       	movw	r20, r24
    199a:	42 9f       	mul	r20, r18
    199c:	c0 01       	movw	r24, r0
    199e:	43 9f       	mul	r20, r19
    19a0:	90 0d       	add	r25, r0
    19a2:	52 9f       	mul	r21, r18
    19a4:	90 0d       	add	r25, r0
    19a6:	11 24       	eor	r1, r1
    19a8:	e8 0f       	add	r30, r24
    19aa:	f9 1f       	adc	r31, r25
    19ac:	fe 96       	adiw	r30, 0x3e	; 62
    19ae:	60 81       	ld	r22, Z
    19b0:	71 81       	ldd	r23, Z+1	; 0x01
  return Timebase->UpCounter[window].Target;
}
    19b2:	82 81       	ldd	r24, Z+2	; 0x02
    19b4:	93 81       	ldd	r25, Z+3	; 0x03
    19b6:	08 95       	ret

000019b8 <Timebase_UpCounter_Set_TargetValue>:

void Timebase_UpCounter_Set_TargetValue(uint8_t window, int32_t value){
  Timebase->UpCounter[window].Target = value;
    19b8:	e0 91 43 01 	lds	r30, 0x0143
    19bc:	f0 91 44 01 	lds	r31, 0x0144
    19c0:	90 e0       	ldi	r25, 0x00	; 0
    19c2:	25 e1       	ldi	r18, 0x15	; 21
    19c4:	30 e0       	ldi	r19, 0x00	; 0
    19c6:	dc 01       	movw	r26, r24
    19c8:	a2 9f       	mul	r26, r18
    19ca:	c0 01       	movw	r24, r0
    19cc:	a3 9f       	mul	r26, r19
    19ce:	90 0d       	add	r25, r0
    19d0:	b2 9f       	mul	r27, r18
    19d2:	90 0d       	add	r25, r0
    19d4:	11 24       	eor	r1, r1
    19d6:	e8 0f       	add	r30, r24
    19d8:	f9 1f       	adc	r31, r25
    19da:	fe 96       	adiw	r30, 0x3e	; 62
    19dc:	40 83       	st	Z, r20
    19de:	51 83       	std	Z+1, r21	; 0x01
    19e0:	62 83       	std	Z+2, r22	; 0x02
    19e2:	73 83       	std	Z+3, r23	; 0x03
}
    19e4:	08 95       	ret

000019e6 <Timebase_UpCounter_Get_TemporaryValue>:

int32_t Timebase_UpCounter_Get_TemporaryValue(uint8_t window){
    19e6:	e0 91 43 01 	lds	r30, 0x0143
    19ea:	f0 91 44 01 	lds	r31, 0x0144
    19ee:	90 e0       	ldi	r25, 0x00	; 0
    19f0:	25 e1       	ldi	r18, 0x15	; 21
    19f2:	30 e0       	ldi	r19, 0x00	; 0
    19f4:	ac 01       	movw	r20, r24
    19f6:	42 9f       	mul	r20, r18
    19f8:	c0 01       	movw	r24, r0
    19fa:	43 9f       	mul	r20, r19
    19fc:	90 0d       	add	r25, r0
    19fe:	52 9f       	mul	r21, r18
    1a00:	90 0d       	add	r25, r0
    1a02:	11 24       	eor	r1, r1
    1a04:	e8 0f       	add	r30, r24
    1a06:	f9 1f       	adc	r31, r25
    1a08:	ee 5b       	subi	r30, 0xBE	; 190
    1a0a:	ff 4f       	sbci	r31, 0xFF	; 255
    1a0c:	60 81       	ld	r22, Z
    1a0e:	71 81       	ldd	r23, Z+1	; 0x01
  return Timebase->UpCounter[window].Temporary;
}
    1a10:	82 81       	ldd	r24, Z+2	; 0x02
    1a12:	93 81       	ldd	r25, Z+3	; 0x03
    1a14:	08 95       	ret

00001a16 <Timebase_UpCounter_Set_TemporaryValue>:

void Timebase_UpCounter_Set_TemporaryValue(uint8_t window, int32_t value){
    1a16:	cf 93       	push	r28
    1a18:	df 93       	push	r29
  if(value < 0){
    value = 0;
  }
  Timebase->UpCounter[window].Temporary = value;
    1a1a:	c0 91 43 01 	lds	r28, 0x0143
    1a1e:	d0 91 44 01 	lds	r29, 0x0144
    1a22:	90 e0       	ldi	r25, 0x00	; 0
    1a24:	25 e1       	ldi	r18, 0x15	; 21
    1a26:	30 e0       	ldi	r19, 0x00	; 0
    1a28:	fc 01       	movw	r30, r24
    1a2a:	e2 9f       	mul	r30, r18
    1a2c:	c0 01       	movw	r24, r0
    1a2e:	e3 9f       	mul	r30, r19
    1a30:	90 0d       	add	r25, r0
    1a32:	f2 9f       	mul	r31, r18
    1a34:	90 0d       	add	r25, r0
    1a36:	11 24       	eor	r1, r1
    1a38:	c8 0f       	add	r28, r24
    1a3a:	d9 1f       	adc	r29, r25
    1a3c:	ce 5b       	subi	r28, 0xBE	; 190
    1a3e:	df 4f       	sbci	r29, 0xFF	; 255
    1a40:	ca 01       	movw	r24, r20
    1a42:	db 01       	movw	r26, r22
    1a44:	b7 ff       	sbrs	r27, 7
    1a46:	04 c0       	rjmp	.+8      	; 0x1a50 <Timebase_UpCounter_Set_TemporaryValue+0x3a>
    1a48:	80 e0       	ldi	r24, 0x00	; 0
    1a4a:	90 e0       	ldi	r25, 0x00	; 0
    1a4c:	a0 e0       	ldi	r26, 0x00	; 0
    1a4e:	b0 e0       	ldi	r27, 0x00	; 0
    1a50:	88 83       	st	Y, r24
    1a52:	99 83       	std	Y+1, r25	; 0x01
    1a54:	aa 83       	std	Y+2, r26	; 0x02
    1a56:	bb 83       	std	Y+3, r27	; 0x03
}
    1a58:	df 91       	pop	r29
    1a5a:	cf 91       	pop	r28
    1a5c:	08 95       	ret

00001a5e <Timebase_UpCounter_Get_PeriodValue>:

int32_t Timebase_UpCounter_Get_PeriodValue(uint8_t window){
    1a5e:	e0 91 43 01 	lds	r30, 0x0143
    1a62:	f0 91 44 01 	lds	r31, 0x0144
    1a66:	90 e0       	ldi	r25, 0x00	; 0
    1a68:	25 e1       	ldi	r18, 0x15	; 21
    1a6a:	30 e0       	ldi	r19, 0x00	; 0
    1a6c:	ac 01       	movw	r20, r24
    1a6e:	42 9f       	mul	r20, r18
    1a70:	c0 01       	movw	r24, r0
    1a72:	43 9f       	mul	r20, r19
    1a74:	90 0d       	add	r25, r0
    1a76:	52 9f       	mul	r21, r18
    1a78:	90 0d       	add	r25, r0
    1a7a:	11 24       	eor	r1, r1
    1a7c:	e8 0f       	add	r30, r24
    1a7e:	f9 1f       	adc	r31, r25
    1a80:	e6 5b       	subi	r30, 0xB6	; 182
    1a82:	ff 4f       	sbci	r31, 0xFF	; 255
    1a84:	60 81       	ld	r22, Z
    1a86:	71 81       	ldd	r23, Z+1	; 0x01
  return Timebase->UpCounter[window].PeriodValue;
}
    1a88:	82 81       	ldd	r24, Z+2	; 0x02
    1a8a:	93 81       	ldd	r25, Z+3	; 0x03
    1a8c:	08 95       	ret

00001a8e <Timebase_UpCounter_Set_PeriodValue>:

void Timebase_UpCounter_Set_PeriodValue(uint8_t window, int32_t value){
  Timebase->UpCounter[window].PeriodValue = value;
    1a8e:	e0 91 43 01 	lds	r30, 0x0143
    1a92:	f0 91 44 01 	lds	r31, 0x0144
    1a96:	90 e0       	ldi	r25, 0x00	; 0
    1a98:	25 e1       	ldi	r18, 0x15	; 21
    1a9a:	30 e0       	ldi	r19, 0x00	; 0
    1a9c:	dc 01       	movw	r26, r24
    1a9e:	a2 9f       	mul	r26, r18
    1aa0:	c0 01       	movw	r24, r0
    1aa2:	a3 9f       	mul	r26, r19
    1aa4:	90 0d       	add	r25, r0
    1aa6:	b2 9f       	mul	r27, r18
    1aa8:	90 0d       	add	r25, r0
    1aaa:	11 24       	eor	r1, r1
    1aac:	e8 0f       	add	r30, r24
    1aae:	f9 1f       	adc	r31, r25
    1ab0:	e6 5b       	subi	r30, 0xB6	; 182
    1ab2:	ff 4f       	sbci	r31, 0xFF	; 255
    1ab4:	40 83       	st	Z, r20
    1ab6:	51 83       	std	Z+1, r21	; 0x01
    1ab8:	62 83       	std	Z+2, r22	; 0x02
    1aba:	73 83       	std	Z+3, r23	; 0x03
}
    1abc:	08 95       	ret

00001abe <Timebase_UpCounter_Get_Period_Flag>:

uint8_t Timebase_UpCounter_Get_Period_Flag(uint8_t window){
    1abe:	e0 91 43 01 	lds	r30, 0x0143
    1ac2:	f0 91 44 01 	lds	r31, 0x0144
    1ac6:	90 e0       	ldi	r25, 0x00	; 0
    1ac8:	25 e1       	ldi	r18, 0x15	; 21
    1aca:	30 e0       	ldi	r19, 0x00	; 0
    1acc:	ac 01       	movw	r20, r24
    1ace:	42 9f       	mul	r20, r18
    1ad0:	c0 01       	movw	r24, r0
    1ad2:	43 9f       	mul	r20, r19
    1ad4:	90 0d       	add	r25, r0
    1ad6:	52 9f       	mul	r21, r18
    1ad8:	90 0d       	add	r25, r0
    1ada:	11 24       	eor	r1, r1
    1adc:	e8 0f       	add	r30, r24
    1ade:	f9 1f       	adc	r31, r25
    1ae0:	81 ad       	ldd	r24, Z+57	; 0x39
  return Timebase->UpCounter[window].Status.PeriodFlag;
}
    1ae2:	81 70       	andi	r24, 0x01	; 1
    1ae4:	08 95       	ret

00001ae6 <Timebase_UpCounter_Set_Period_Flag>:

void Timebase_UpCounter_Set_Period_Flag(uint8_t window){
  Timebase->UpCounter[window].Status.PeriodFlag = FLAG_STATE_SET;
    1ae6:	e0 91 43 01 	lds	r30, 0x0143
    1aea:	f0 91 44 01 	lds	r31, 0x0144
    1aee:	90 e0       	ldi	r25, 0x00	; 0
    1af0:	25 e1       	ldi	r18, 0x15	; 21
    1af2:	30 e0       	ldi	r19, 0x00	; 0
    1af4:	ac 01       	movw	r20, r24
    1af6:	42 9f       	mul	r20, r18
    1af8:	c0 01       	movw	r24, r0
    1afa:	43 9f       	mul	r20, r19
    1afc:	90 0d       	add	r25, r0
    1afe:	52 9f       	mul	r21, r18
    1b00:	90 0d       	add	r25, r0
    1b02:	11 24       	eor	r1, r1
    1b04:	e8 0f       	add	r30, r24
    1b06:	f9 1f       	adc	r31, r25
    1b08:	81 ad       	ldd	r24, Z+57	; 0x39
    1b0a:	81 60       	ori	r24, 0x01	; 1
    1b0c:	81 af       	std	Z+57, r24	; 0x39
}
    1b0e:	08 95       	ret

00001b10 <Timebase_UpCounter_Clear_Period_Flag>:

void Timebase_UpCounter_Clear_Period_Flag(uint8_t window){
  Timebase->UpCounter[window].Status.PeriodFlag = FLAG_STATE_RESET;
    1b10:	e0 91 43 01 	lds	r30, 0x0143
    1b14:	f0 91 44 01 	lds	r31, 0x0144
    1b18:	90 e0       	ldi	r25, 0x00	; 0
    1b1a:	25 e1       	ldi	r18, 0x15	; 21
    1b1c:	30 e0       	ldi	r19, 0x00	; 0
    1b1e:	ac 01       	movw	r20, r24
    1b20:	42 9f       	mul	r20, r18
    1b22:	c0 01       	movw	r24, r0
    1b24:	43 9f       	mul	r20, r19
    1b26:	90 0d       	add	r25, r0
    1b28:	52 9f       	mul	r21, r18
    1b2a:	90 0d       	add	r25, r0
    1b2c:	11 24       	eor	r1, r1
    1b2e:	e8 0f       	add	r30, r24
    1b30:	f9 1f       	adc	r31, r25
    1b32:	81 ad       	ldd	r24, Z+57	; 0x39
    1b34:	8e 7f       	andi	r24, 0xFE	; 254
    1b36:	81 af       	std	Z+57, r24	; 0x39
}
    1b38:	08 95       	ret

00001b3a <Timebase_UpCounter_Reset>:
uint8_t Timebase_UpCounter_Get_Status(uint8_t window){
  return Timebase->UpCounter[window].Status.Value;
}

void Timebase_UpCounter_Set_Status(uint8_t window, uint8_t value){
  Timebase->UpCounter[window].Status.Value = value;
    1b3a:	e0 91 43 01 	lds	r30, 0x0143
    1b3e:	f0 91 44 01 	lds	r31, 0x0144
    1b42:	90 e0       	ldi	r25, 0x00	; 0
    1b44:	25 e1       	ldi	r18, 0x15	; 21
    1b46:	30 e0       	ldi	r19, 0x00	; 0
    1b48:	ac 01       	movw	r20, r24
    1b4a:	42 9f       	mul	r20, r18
    1b4c:	c0 01       	movw	r24, r0
    1b4e:	43 9f       	mul	r20, r19
    1b50:	90 0d       	add	r25, r0
    1b52:	52 9f       	mul	r21, r18
    1b54:	90 0d       	add	r25, r0
    1b56:	11 24       	eor	r1, r1
    1b58:	e8 0f       	add	r30, r24
    1b5a:	f9 1f       	adc	r31, r25
    1b5c:	81 ad       	ldd	r24, Z+57	; 0x39

void Timebase_UpCounter_Set_Value(uint8_t window, int32_t value){
  if(value < 0){
    value = 0;
  }
  Timebase->UpCounter[window].Value = value;
    1b5e:	ea 5b       	subi	r30, 0xBA	; 186
    1b60:	ff 4f       	sbci	r31, 0xFF	; 255
    1b62:	10 82       	st	Z, r1
    1b64:	11 82       	std	Z+1, r1	; 0x01
    1b66:	12 82       	std	Z+2, r1	; 0x02
    1b68:	13 82       	std	Z+3, r1	; 0x03
    1b6a:	e6 54       	subi	r30, 0x46	; 70
    1b6c:	f0 40       	sbci	r31, 0x00	; 0
void Timebase_UpCounter_Set_EndValueSec(uint8_t window, int32_t value){
  Timebase->UpCounter[window].EndValue = value;
}

void Timebase_UpCounter_Set_EndValueSubSec(uint8_t window, int32_t value){
  Timebase->UpCounter[window].EndValue = value;
    1b6e:	12 ae       	std	Z+58, r1	; 0x3a
    1b70:	13 ae       	std	Z+59, r1	; 0x3b
    1b72:	14 ae       	std	Z+60, r1	; 0x3c
    1b74:	15 ae       	std	Z+61, r1	; 0x3d
int32_t Timebase_UpCounter_Get_TargetValue(uint8_t window){
  return Timebase->UpCounter[window].Target;
}

void Timebase_UpCounter_Set_TargetValue(uint8_t window, int32_t value){
  Timebase->UpCounter[window].Target = value;
    1b76:	fe 96       	adiw	r30, 0x3e	; 62
    1b78:	11 92       	st	Z+, r1
    1b7a:	11 92       	st	Z+, r1
    1b7c:	11 92       	st	Z+, r1
    1b7e:	11 92       	st	Z+, r1

void Timebase_UpCounter_Set_TemporaryValue(uint8_t window, int32_t value){
  if(value < 0){
    value = 0;
  }
  Timebase->UpCounter[window].Temporary = value;
    1b80:	10 82       	st	Z, r1
    1b82:	11 82       	std	Z+1, r1	; 0x01
    1b84:	12 82       	std	Z+2, r1	; 0x02
    1b86:	13 82       	std	Z+3, r1	; 0x03
int32_t Timebase_UpCounter_Get_PeriodValue(uint8_t window){
  return Timebase->UpCounter[window].PeriodValue;
}

void Timebase_UpCounter_Set_PeriodValue(uint8_t window, int32_t value){
  Timebase->UpCounter[window].PeriodValue = value;
    1b88:	38 96       	adiw	r30, 0x08	; 8
    1b8a:	10 82       	st	Z, r1
    1b8c:	11 82       	std	Z+1, r1	; 0x01
    1b8e:	12 82       	std	Z+2, r1	; 0x02
    1b90:	13 82       	std	Z+3, r1	; 0x03
    1b92:	ea 54       	subi	r30, 0x4A	; 74
    1b94:	f0 40       	sbci	r31, 0x00	; 0
void Timebase_UpCounter_Set_Period_Flag(uint8_t window){
  Timebase->UpCounter[window].Status.PeriodFlag = FLAG_STATE_SET;
}

void Timebase_UpCounter_Clear_Period_Flag(uint8_t window){
  Timebase->UpCounter[window].Status.PeriodFlag = FLAG_STATE_RESET;
    1b96:	80 7e       	andi	r24, 0xE0	; 224
    1b98:	81 af       	std	Z+57, r24	; 0x39
  Timebase_UpCounter_Set_EndValueSubSec(window, 0);
  Timebase_UpCounter_Set_TargetValue(window, 0);
  Timebase_UpCounter_Set_TemporaryValue(window, 0);
  Timebase_UpCounter_Set_PeriodValue(window, 0);
  Timebase_UpCounter_Clear_Period_Flag(window);
} 
    1b9a:	08 95       	ret

00001b9c <Timebase_UpCounter_Clear_All_Flags>:

void Timebase_UpCounter_Clear_All_Flags(uint8_t window){
  Timebase_UpCounter_Reset( window );
    1b9c:	0e 94 9d 0d 	call	0x1b3a	; 0x1b3a <Timebase_UpCounter_Reset>
}
    1ba0:	08 95       	ret

00001ba2 <Timebase_UpCounter_Start>:

/******************************UpCounter Functions Start*****************************/

#ifdef TIMEBASE_UPCOUNTER
uint8_t Timebase_UpCounter_Get_Status(uint8_t window){
  return Timebase->UpCounter[window].Status.Value;
    1ba2:	e0 91 43 01 	lds	r30, 0x0143
    1ba6:	f0 91 44 01 	lds	r31, 0x0144
    1baa:	90 e0       	ldi	r25, 0x00	; 0
void Timebase_UpCounter_Clear_All_Flags(uint8_t window){
  Timebase_UpCounter_Reset( window );
}

void Timebase_UpCounter_Start(uint8_t window){
  if(Timebase_UpCounter_Get_Status(window) != COUNTER_STATE_STARTED){
    1bac:	25 e1       	ldi	r18, 0x15	; 21
    1bae:	30 e0       	ldi	r19, 0x00	; 0
    1bb0:	ac 01       	movw	r20, r24
    1bb2:	42 9f       	mul	r20, r18
    1bb4:	c0 01       	movw	r24, r0
    1bb6:	43 9f       	mul	r20, r19
    1bb8:	90 0d       	add	r25, r0
    1bba:	52 9f       	mul	r21, r18
    1bbc:	90 0d       	add	r25, r0
    1bbe:	11 24       	eor	r1, r1
    1bc0:	e8 0f       	add	r30, r24
    1bc2:	f9 1f       	adc	r31, r25
    1bc4:	91 ad       	ldd	r25, Z+57	; 0x39
    1bc6:	89 2f       	mov	r24, r25
    1bc8:	86 95       	lsr	r24
    1bca:	8f 70       	andi	r24, 0x0F	; 15
    1bcc:	81 30       	cpi	r24, 0x01	; 1
    1bce:	19 f0       	breq	.+6      	; 0x1bd6 <Timebase_UpCounter_Start+0x34>
uint8_t Timebase_UpCounter_Get_Status(uint8_t window){
  return Timebase->UpCounter[window].Status.Value;
}

void Timebase_UpCounter_Set_Status(uint8_t window, uint8_t value){
  Timebase->UpCounter[window].Status.Value = value;
    1bd0:	91 7e       	andi	r25, 0xE1	; 225
    1bd2:	92 60       	ori	r25, 0x02	; 2
    1bd4:	91 af       	std	Z+57, r25	; 0x39
    1bd6:	08 95       	ret

00001bd8 <Timebase_UpCounter_Stop>:

/******************************UpCounter Functions Start*****************************/

#ifdef TIMEBASE_UPCOUNTER
uint8_t Timebase_UpCounter_Get_Status(uint8_t window){
  return Timebase->UpCounter[window].Status.Value;
    1bd8:	e0 91 43 01 	lds	r30, 0x0143
    1bdc:	f0 91 44 01 	lds	r31, 0x0144
    1be0:	90 e0       	ldi	r25, 0x00	; 0
    Timebase_UpCounter_Set_Status(window , COUNTER_STATE_START);    
  }
}

void Timebase_UpCounter_Stop(uint8_t window){
  if(Timebase_UpCounter_Get_Status(window) != COUNTER_STATE_STOPPED){
    1be2:	25 e1       	ldi	r18, 0x15	; 21
    1be4:	30 e0       	ldi	r19, 0x00	; 0
    1be6:	ac 01       	movw	r20, r24
    1be8:	42 9f       	mul	r20, r18
    1bea:	c0 01       	movw	r24, r0
    1bec:	43 9f       	mul	r20, r19
    1bee:	90 0d       	add	r25, r0
    1bf0:	52 9f       	mul	r21, r18
    1bf2:	90 0d       	add	r25, r0
    1bf4:	11 24       	eor	r1, r1
    1bf6:	e8 0f       	add	r30, r24
    1bf8:	f9 1f       	adc	r31, r25
    1bfa:	91 ad       	ldd	r25, Z+57	; 0x39
    1bfc:	89 2f       	mov	r24, r25
    1bfe:	86 95       	lsr	r24
    1c00:	8f 70       	andi	r24, 0x0F	; 15
    1c02:	82 30       	cpi	r24, 0x02	; 2
    1c04:	19 f0       	breq	.+6      	; 0x1c0c <Timebase_UpCounter_Stop+0x34>
uint8_t Timebase_UpCounter_Get_Status(uint8_t window){
  return Timebase->UpCounter[window].Status.Value;
}

void Timebase_UpCounter_Set_Status(uint8_t window, uint8_t value){
  Timebase->UpCounter[window].Status.Value = value;
    1c06:	91 7e       	andi	r25, 0xE1	; 225
    1c08:	94 60       	ori	r25, 0x04	; 4
    1c0a:	91 af       	std	Z+57, r25	; 0x39
    1c0c:	08 95       	ret

00001c0e <Timebase_UpCounter_Set_Securely>:

/******************************UpCounter Functions Start*****************************/

#ifdef TIMEBASE_UPCOUNTER
uint8_t Timebase_UpCounter_Get_Status(uint8_t window){
  return Timebase->UpCounter[window].Status.Value;
    1c0e:	a0 91 43 01 	lds	r26, 0x0143
    1c12:	b0 91 44 01 	lds	r27, 0x0144
    1c16:	90 e0       	ldi	r25, 0x00	; 0
}


void Timebase_UpCounter_Set_Securely(uint8_t window, int32_t value){
  int32_t curr_s;
  if( Timebase_UpCounter_Get_Status( window ) == COUNTER_STATE_RESET ){
    1c18:	25 e1       	ldi	r18, 0x15	; 21
    1c1a:	30 e0       	ldi	r19, 0x00	; 0
    1c1c:	82 9f       	mul	r24, r18
    1c1e:	f0 01       	movw	r30, r0
    1c20:	83 9f       	mul	r24, r19
    1c22:	f0 0d       	add	r31, r0
    1c24:	92 9f       	mul	r25, r18
    1c26:	f0 0d       	add	r31, r0
    1c28:	11 24       	eor	r1, r1
    1c2a:	ea 0f       	add	r30, r26
    1c2c:	fb 1f       	adc	r31, r27
    1c2e:	81 ad       	ldd	r24, Z+57	; 0x39
    1c30:	86 95       	lsr	r24
    1c32:	8f 70       	andi	r24, 0x0F	; 15
    1c34:	31 f5       	brne	.+76     	; 0x1c82 <Timebase_UpCounter_Set_Securely+0x74>

void Timebase_UpCounter_Set_Value(uint8_t window, int32_t value){
  if(value < 0){
    value = 0;
  }
  Timebase->UpCounter[window].Value = value;
    1c36:	ea 5b       	subi	r30, 0xBA	; 186
    1c38:	ff 4f       	sbci	r31, 0xFF	; 255
    1c3a:	10 82       	st	Z, r1
    1c3c:	11 82       	std	Z+1, r1	; 0x01
    1c3e:	12 82       	std	Z+2, r1	; 0x02
    1c40:	13 82       	std	Z+3, r1	; 0x03

void Timebase_UpCounter_Set_TemporaryValue(uint8_t window, int32_t value){
  if(value < 0){
    value = 0;
  }
  Timebase->UpCounter[window].Temporary = value;
    1c42:	12 92       	st	-Z, r1
    1c44:	12 92       	st	-Z, r1
    1c46:	12 92       	st	-Z, r1
    1c48:	12 92       	st	-Z, r1
int32_t Timebase_UpCounter_Get_TargetValue(uint8_t window){
  return Timebase->UpCounter[window].Target;
}

void Timebase_UpCounter_Set_TargetValue(uint8_t window, int32_t value){
  Timebase->UpCounter[window].Target = value;
    1c4a:	72 93       	st	-Z, r23
    1c4c:	62 93       	st	-Z, r22
    1c4e:	52 93       	st	-Z, r21
    1c50:	42 93       	st	-Z, r20
    1c52:	fe 97       	sbiw	r30, 0x3e	; 62
  return Timebase->Time.SubSeconds;
}


int32_t Timebase_Timer_Get_Seconds(void){
  return Timebase->Time.Seconds;
    1c54:	1a 96       	adiw	r26, 0x0a	; 10
    1c56:	8d 91       	ld	r24, X+
    1c58:	9d 91       	ld	r25, X+
    1c5a:	0d 90       	ld	r0, X+
    1c5c:	bc 91       	ld	r27, X
    1c5e:	a0 2d       	mov	r26, r0
int32_t Timebase_UpCounter_Get_EndValueSubSec(uint8_t window){
  return Timebase->UpCounter[window].EndValue;
}

void Timebase_UpCounter_Set_EndValueSec(uint8_t window, int32_t value){
  Timebase->UpCounter[window].EndValue = value;
    1c60:	84 0f       	add	r24, r20
    1c62:	95 1f       	adc	r25, r21
    1c64:	a6 1f       	adc	r26, r22
    1c66:	b7 1f       	adc	r27, r23
    1c68:	82 af       	std	Z+58, r24	; 0x3a
    1c6a:	93 af       	std	Z+59, r25	; 0x3b
    1c6c:	a4 af       	std	Z+60, r26	; 0x3c
    1c6e:	b5 af       	std	Z+61, r27	; 0x3d
void Timebase_UpCounter_Clear_All_Flags(uint8_t window){
  Timebase_UpCounter_Reset( window );
}

void Timebase_UpCounter_Start(uint8_t window){
  if(Timebase_UpCounter_Get_Status(window) != COUNTER_STATE_STARTED){
    1c70:	91 ad       	ldd	r25, Z+57	; 0x39
    1c72:	89 2f       	mov	r24, r25
    1c74:	86 95       	lsr	r24
    1c76:	8f 70       	andi	r24, 0x0F	; 15
    1c78:	81 30       	cpi	r24, 0x01	; 1
    1c7a:	19 f0       	breq	.+6      	; 0x1c82 <Timebase_UpCounter_Set_Securely+0x74>
uint8_t Timebase_UpCounter_Get_Status(uint8_t window){
  return Timebase->UpCounter[window].Status.Value;
}

void Timebase_UpCounter_Set_Status(uint8_t window, uint8_t value){
  Timebase->UpCounter[window].Status.Value = value;
    1c7c:	91 7e       	andi	r25, 0xE1	; 225
    1c7e:	92 60       	ori	r25, 0x02	; 2
    1c80:	91 af       	std	Z+57, r25	; 0x39
    1c82:	08 95       	ret

00001c84 <Timebase_UpCounter_Set_Forcefully>:
    Timebase_UpCounter_Set_EndValueSec(window, curr_s + value);
    Timebase_UpCounter_Start(window);
  }
}

void Timebase_UpCounter_Set_Forcefully(uint8_t window, int32_t value){
    1c84:	df 92       	push	r13
    1c86:	ef 92       	push	r14
    1c88:	ff 92       	push	r15
    1c8a:	0f 93       	push	r16
    1c8c:	1f 93       	push	r17
    1c8e:	d8 2e       	mov	r13, r24
    1c90:	7a 01       	movw	r14, r20
    1c92:	8b 01       	movw	r16, r22
  Timebase_UpCounter_Reset( window );
    1c94:	0e 94 9d 0d 	call	0x1b3a	; 0x1b3a <Timebase_UpCounter_Reset>
  Timebase_UpCounter_Set_Securely( window, value );
    1c98:	8d 2d       	mov	r24, r13
    1c9a:	b8 01       	movw	r22, r16
    1c9c:	a7 01       	movw	r20, r14
    1c9e:	0e 94 07 0e 	call	0x1c0e	; 0x1c0e <Timebase_UpCounter_Set_Securely>
} 
    1ca2:	1f 91       	pop	r17
    1ca4:	0f 91       	pop	r16
    1ca6:	ff 90       	pop	r15
    1ca8:	ef 90       	pop	r14
    1caa:	df 90       	pop	r13
    1cac:	08 95       	ret

00001cae <Timebase_UpCounter_Update>:

void Timebase_UpCounter_Update(uint8_t window){
    1cae:	0f 93       	push	r16
    1cb0:	1f 93       	push	r17
    1cb2:	cf 93       	push	r28
    1cb4:	df 93       	push	r29

/******************************UpCounter Functions Start*****************************/

#ifdef TIMEBASE_UPCOUNTER
uint8_t Timebase_UpCounter_Get_Status(uint8_t window){
  return Timebase->UpCounter[window].Status.Value;
    1cb6:	60 91 43 01 	lds	r22, 0x0143
    1cba:	70 91 44 01 	lds	r23, 0x0144
    1cbe:	08 2f       	mov	r16, r24
    1cc0:	10 e0       	ldi	r17, 0x00	; 0
    1cc2:	85 e1       	ldi	r24, 0x15	; 21
    1cc4:	90 e0       	ldi	r25, 0x00	; 0
    1cc6:	08 9f       	mul	r16, r24
    1cc8:	f0 01       	movw	r30, r0
    1cca:	09 9f       	mul	r16, r25
    1ccc:	f0 0d       	add	r31, r0
    1cce:	18 9f       	mul	r17, r24
    1cd0:	f0 0d       	add	r31, r0
    1cd2:	11 24       	eor	r1, r1
    1cd4:	e6 0f       	add	r30, r22
    1cd6:	f7 1f       	adc	r31, r23
    1cd8:	81 ad       	ldd	r24, Z+57	; 0x39
    1cda:	86 95       	lsr	r24
    1cdc:	8f 70       	andi	r24, 0x0F	; 15
  Timebase_UpCounter_Set_Securely( window, value );
} 

void Timebase_UpCounter_Update(uint8_t window){
  int32_t curr_s = 0;
  if( Timebase_UpCounter_Get_Status( window ) == COUNTER_STATE_STARTED ){
    1cde:	81 30       	cpi	r24, 0x01	; 1
    1ce0:	09 f0       	breq	.+2      	; 0x1ce4 <Timebase_UpCounter_Update+0x36>
    1ce2:	7b c0       	rjmp	.+246    	; 0x1dda <Timebase_UpCounter_Update+0x12c>
  return Timebase->Time.SubSeconds;
}


int32_t Timebase_Timer_Get_Seconds(void){
  return Timebase->Time.Seconds;
    1ce4:	eb 01       	movw	r28, r22
    1ce6:	8a 85       	ldd	r24, Y+10	; 0x0a
    1ce8:	9b 85       	ldd	r25, Y+11	; 0x0b
    1cea:	ac 85       	ldd	r26, Y+12	; 0x0c
    1cec:	bd 85       	ldd	r27, Y+13	; 0x0d

void Timebase_UpCounter_Update(uint8_t window){
  int32_t curr_s = 0;
  if( Timebase_UpCounter_Get_Status( window ) == COUNTER_STATE_STARTED ){
	curr_s = Timebase_Timer_Get_Seconds();
    Timebase_UpCounter_Set_TemporaryValue(window, Timebase_UpCounter_Get_EndValueSec(window) - curr_s );
    1cee:	22 ad       	ldd	r18, Z+58	; 0x3a
    1cf0:	33 ad       	ldd	r19, Z+59	; 0x3b
    1cf2:	44 ad       	ldd	r20, Z+60	; 0x3c
    1cf4:	55 ad       	ldd	r21, Z+61	; 0x3d
    1cf6:	28 1b       	sub	r18, r24
    1cf8:	39 0b       	sbc	r19, r25
    1cfa:	4a 0b       	sbc	r20, r26
    1cfc:	5b 0b       	sbc	r21, r27
    1cfe:	57 ff       	sbrs	r21, 7
    1d00:	04 c0       	rjmp	.+8      	; 0x1d0a <Timebase_UpCounter_Update+0x5c>
    1d02:	20 e0       	ldi	r18, 0x00	; 0
    1d04:	30 e0       	ldi	r19, 0x00	; 0
    1d06:	40 e0       	ldi	r20, 0x00	; 0
    1d08:	50 e0       	ldi	r21, 0x00	; 0

void Timebase_UpCounter_Set_TemporaryValue(uint8_t window, int32_t value){
  if(value < 0){
    value = 0;
  }
  Timebase->UpCounter[window].Temporary = value;
    1d0a:	85 e1       	ldi	r24, 0x15	; 21
    1d0c:	90 e0       	ldi	r25, 0x00	; 0
    1d0e:	08 9f       	mul	r16, r24
    1d10:	f0 01       	movw	r30, r0
    1d12:	09 9f       	mul	r16, r25
    1d14:	f0 0d       	add	r31, r0
    1d16:	18 9f       	mul	r17, r24
    1d18:	f0 0d       	add	r31, r0
    1d1a:	11 24       	eor	r1, r1
    1d1c:	e6 0f       	add	r30, r22
    1d1e:	f7 1f       	adc	r31, r23
    1d20:	ee 5b       	subi	r30, 0xBE	; 190
    1d22:	ff 4f       	sbci	r31, 0xFF	; 255
    1d24:	20 83       	st	Z, r18
    1d26:	31 83       	std	Z+1, r19	; 0x01
    1d28:	42 83       	std	Z+2, r20	; 0x02
    1d2a:	53 83       	std	Z+3, r21	; 0x03
void Timebase_UpCounter_Update(uint8_t window){
  int32_t curr_s = 0;
  if( Timebase_UpCounter_Get_Status( window ) == COUNTER_STATE_STARTED ){
	curr_s = Timebase_Timer_Get_Seconds();
    Timebase_UpCounter_Set_TemporaryValue(window, Timebase_UpCounter_Get_EndValueSec(window) - curr_s );
    Timebase_UpCounter_Set_Value(window, Timebase_UpCounter_Get_TargetValue(window) - Timebase_UpCounter_Get_TemporaryValue(window) );
    1d2c:	b2 91       	ld	r27, -Z
    1d2e:	a2 91       	ld	r26, -Z
    1d30:	92 91       	ld	r25, -Z
    1d32:	82 91       	ld	r24, -Z

void Timebase_UpCounter_Set_Value(uint8_t window, int32_t value){
  if(value < 0){
    value = 0;
  }
  Timebase->UpCounter[window].Value = value;
    1d34:	38 96       	adiw	r30, 0x08	; 8
    1d36:	82 1b       	sub	r24, r18
    1d38:	93 0b       	sbc	r25, r19
    1d3a:	a4 0b       	sbc	r26, r20
    1d3c:	b5 0b       	sbc	r27, r21
    1d3e:	b7 ff       	sbrs	r27, 7
    1d40:	04 c0       	rjmp	.+8      	; 0x1d4a <Timebase_UpCounter_Update+0x9c>
    1d42:	80 e0       	ldi	r24, 0x00	; 0
    1d44:	90 e0       	ldi	r25, 0x00	; 0
    1d46:	a0 e0       	ldi	r26, 0x00	; 0
    1d48:	b0 e0       	ldi	r27, 0x00	; 0
    1d4a:	80 83       	st	Z, r24
    1d4c:	91 83       	std	Z+1, r25	; 0x01
    1d4e:	a2 83       	std	Z+2, r26	; 0x02
    1d50:	b3 83       	std	Z+3, r27	; 0x03
  int32_t curr_s = 0;
  if( Timebase_UpCounter_Get_Status( window ) == COUNTER_STATE_STARTED ){
	curr_s = Timebase_Timer_Get_Seconds();
    Timebase_UpCounter_Set_TemporaryValue(window, Timebase_UpCounter_Get_EndValueSec(window) - curr_s );
    Timebase_UpCounter_Set_Value(window, Timebase_UpCounter_Get_TargetValue(window) - Timebase_UpCounter_Get_TemporaryValue(window) );
    if(Timebase_UpCounter_Get_TemporaryValue(window) <= 0){
    1d52:	85 e1       	ldi	r24, 0x15	; 21
    1d54:	90 e0       	ldi	r25, 0x00	; 0
    1d56:	08 9f       	mul	r16, r24
    1d58:	e0 01       	movw	r28, r0
    1d5a:	09 9f       	mul	r16, r25
    1d5c:	d0 0d       	add	r29, r0
    1d5e:	18 9f       	mul	r17, r24
    1d60:	d0 0d       	add	r29, r0
    1d62:	11 24       	eor	r1, r1
    1d64:	c6 0f       	add	r28, r22
    1d66:	d7 1f       	adc	r29, r23
    1d68:	fe 01       	movw	r30, r28
    1d6a:	ee 5b       	subi	r30, 0xBE	; 190
    1d6c:	ff 4f       	sbci	r31, 0xFF	; 255
    1d6e:	80 81       	ld	r24, Z
    1d70:	91 81       	ldd	r25, Z+1	; 0x01
    1d72:	a2 81       	ldd	r26, Z+2	; 0x02
    1d74:	b3 81       	ldd	r27, Z+3	; 0x03
    1d76:	18 16       	cp	r1, r24
    1d78:	19 06       	cpc	r1, r25
    1d7a:	1a 06       	cpc	r1, r26
    1d7c:	1b 06       	cpc	r1, r27
    1d7e:	0c f4       	brge	.+2      	; 0x1d82 <Timebase_UpCounter_Update+0xd4>
    1d80:	57 c0       	rjmp	.+174    	; 0x1e30 <Timebase_UpCounter_Update+0x182>
int32_t Timebase_UpCounter_Get_EndValueSubSec(uint8_t window){
  return Timebase->UpCounter[window].EndValue;
}

void Timebase_UpCounter_Set_EndValueSec(uint8_t window, int32_t value){
  Timebase->UpCounter[window].EndValue = value;
    1d82:	1a ae       	std	Y+58, r1	; 0x3a
    1d84:	1b ae       	std	Y+59, r1	; 0x3b
    1d86:	1c ae       	std	Y+60, r1	; 0x3c
    1d88:	1d ae       	std	Y+61, r1	; 0x3d

void Timebase_UpCounter_Set_TemporaryValue(uint8_t window, int32_t value){
  if(value < 0){
    value = 0;
  }
  Timebase->UpCounter[window].Temporary = value;
    1d8a:	10 82       	st	Z, r1
    1d8c:	11 82       	std	Z+1, r1	; 0x01
    1d8e:	12 82       	std	Z+2, r1	; 0x02
    1d90:	13 82       	std	Z+3, r1	; 0x03
void Timebase_UpCounter_Set_EndValueSubSec(uint8_t window, int32_t value){
  Timebase->UpCounter[window].EndValue = value;
}

int32_t Timebase_UpCounter_Get_TargetValue(uint8_t window){
  return Timebase->UpCounter[window].Target;
    1d92:	fe 01       	movw	r30, r28
    1d94:	fe 96       	adiw	r30, 0x3e	; 62

void Timebase_UpCounter_Set_Value(uint8_t window, int32_t value){
  if(value < 0){
    value = 0;
  }
  Timebase->UpCounter[window].Value = value;
    1d96:	ca 5b       	subi	r28, 0xBA	; 186
    1d98:	df 4f       	sbci	r29, 0xFF	; 255
    1d9a:	20 81       	ld	r18, Z
    1d9c:	31 81       	ldd	r19, Z+1	; 0x01
    1d9e:	42 81       	ldd	r20, Z+2	; 0x02
    1da0:	53 81       	ldd	r21, Z+3	; 0x03
    1da2:	c9 01       	movw	r24, r18
    1da4:	da 01       	movw	r26, r20
    1da6:	b7 ff       	sbrs	r27, 7
    1da8:	04 c0       	rjmp	.+8      	; 0x1db2 <Timebase_UpCounter_Update+0x104>
    1daa:	80 e0       	ldi	r24, 0x00	; 0
    1dac:	90 e0       	ldi	r25, 0x00	; 0
    1dae:	a0 e0       	ldi	r26, 0x00	; 0
    1db0:	b0 e0       	ldi	r27, 0x00	; 0
    1db2:	88 83       	st	Y, r24
    1db4:	99 83       	std	Y+1, r25	; 0x01
    1db6:	aa 83       	std	Y+2, r26	; 0x02
    1db8:	bb 83       	std	Y+3, r27	; 0x03
uint8_t Timebase_UpCounter_Get_Status(uint8_t window){
  return Timebase->UpCounter[window].Status.Value;
}

void Timebase_UpCounter_Set_Status(uint8_t window, uint8_t value){
  Timebase->UpCounter[window].Status.Value = value;
    1dba:	85 e1       	ldi	r24, 0x15	; 21
    1dbc:	90 e0       	ldi	r25, 0x00	; 0
    1dbe:	08 9f       	mul	r16, r24
    1dc0:	f0 01       	movw	r30, r0
    1dc2:	09 9f       	mul	r16, r25
    1dc4:	f0 0d       	add	r31, r0
    1dc6:	18 9f       	mul	r17, r24
    1dc8:	f0 0d       	add	r31, r0
    1dca:	11 24       	eor	r1, r1
    1dcc:	e6 0f       	add	r30, r22
    1dce:	f7 1f       	adc	r31, r23
    1dd0:	81 ad       	ldd	r24, Z+57	; 0x39
    1dd2:	81 7e       	andi	r24, 0xE1	; 225
    1dd4:	88 60       	ori	r24, 0x08	; 8
    1dd6:	81 af       	std	Z+57, r24	; 0x39
    1dd8:	2b c0       	rjmp	.+86     	; 0x1e30 <Timebase_UpCounter_Update+0x182>
      Timebase_UpCounter_Set_EndValueSec(window, 0);
      Timebase_UpCounter_Set_TemporaryValue(window, 0);
      Timebase_UpCounter_Set_Value(window, Timebase_UpCounter_Get_TargetValue(window));
      Timebase_UpCounter_Set_Status(window, COUNTER_STATE_EXPIRED);
    }
  } else if (Timebase_UpCounter_Get_Status( window ) == COUNTER_STATE_STOPPED){
    1dda:	82 30       	cpi	r24, 0x02	; 2
    1ddc:	49 f5       	brne	.+82     	; 0x1e30 <Timebase_UpCounter_Update+0x182>
  return Timebase->Time.SubSeconds;
}


int32_t Timebase_Timer_Get_Seconds(void){
  return Timebase->Time.Seconds;
    1dde:	eb 01       	movw	r28, r22
    1de0:	8a 85       	ldd	r24, Y+10	; 0x0a
    1de2:	9b 85       	ldd	r25, Y+11	; 0x0b
    1de4:	ac 85       	ldd	r26, Y+12	; 0x0c
    1de6:	bd 85       	ldd	r27, Y+13	; 0x0d
int32_t Timebase_UpCounter_Get_EndValueSubSec(uint8_t window){
  return Timebase->UpCounter[window].EndValue;
}

void Timebase_UpCounter_Set_EndValueSec(uint8_t window, int32_t value){
  Timebase->UpCounter[window].EndValue = value;
    1de8:	ee 5b       	subi	r30, 0xBE	; 190
    1dea:	ff 4f       	sbci	r31, 0xFF	; 255
    1dec:	20 81       	ld	r18, Z
    1dee:	31 81       	ldd	r19, Z+1	; 0x01
    1df0:	42 81       	ldd	r20, Z+2	; 0x02
    1df2:	53 81       	ldd	r21, Z+3	; 0x03
    1df4:	e2 54       	subi	r30, 0x42	; 66
    1df6:	f0 40       	sbci	r31, 0x00	; 0
    1df8:	82 0f       	add	r24, r18
    1dfa:	93 1f       	adc	r25, r19
    1dfc:	a4 1f       	adc	r26, r20
    1dfe:	b5 1f       	adc	r27, r21
    1e00:	82 af       	std	Z+58, r24	; 0x3a
    1e02:	93 af       	std	Z+59, r25	; 0x3b
    1e04:	a4 af       	std	Z+60, r26	; 0x3c
    1e06:	b5 af       	std	Z+61, r27	; 0x3d
      Timebase_UpCounter_Set_Status(window, COUNTER_STATE_EXPIRED);
    }
  } else if (Timebase_UpCounter_Get_Status( window ) == COUNTER_STATE_STOPPED){
    curr_s = Timebase_Timer_Get_Seconds();
    Timebase_UpCounter_Set_EndValueSec(window, Timebase_UpCounter_Get_TemporaryValue(window) + curr_s);
    Timebase_UpCounter_Set_Value(window, Timebase_UpCounter_Get_TargetValue(window) - Timebase_UpCounter_Get_TemporaryValue(window));
    1e08:	fe 96       	adiw	r30, 0x3e	; 62
    1e0a:	80 81       	ld	r24, Z
    1e0c:	91 81       	ldd	r25, Z+1	; 0x01
    1e0e:	a2 81       	ldd	r26, Z+2	; 0x02
    1e10:	b3 81       	ldd	r27, Z+3	; 0x03

void Timebase_UpCounter_Set_Value(uint8_t window, int32_t value){
  if(value < 0){
    value = 0;
  }
  Timebase->UpCounter[window].Value = value;
    1e12:	38 96       	adiw	r30, 0x08	; 8
    1e14:	82 1b       	sub	r24, r18
    1e16:	93 0b       	sbc	r25, r19
    1e18:	a4 0b       	sbc	r26, r20
    1e1a:	b5 0b       	sbc	r27, r21
    1e1c:	b7 ff       	sbrs	r27, 7
    1e1e:	04 c0       	rjmp	.+8      	; 0x1e28 <Timebase_UpCounter_Update+0x17a>
    1e20:	80 e0       	ldi	r24, 0x00	; 0
    1e22:	90 e0       	ldi	r25, 0x00	; 0
    1e24:	a0 e0       	ldi	r26, 0x00	; 0
    1e26:	b0 e0       	ldi	r27, 0x00	; 0
    1e28:	80 83       	st	Z, r24
    1e2a:	91 83       	std	Z+1, r25	; 0x01
    1e2c:	a2 83       	std	Z+2, r26	; 0x02
    1e2e:	b3 83       	std	Z+3, r27	; 0x03
  } else if (Timebase_UpCounter_Get_Status( window ) == COUNTER_STATE_STOPPED){
    curr_s = Timebase_Timer_Get_Seconds();
    Timebase_UpCounter_Set_EndValueSec(window, Timebase_UpCounter_Get_TemporaryValue(window) + curr_s);
    Timebase_UpCounter_Set_Value(window, Timebase_UpCounter_Get_TargetValue(window) - Timebase_UpCounter_Get_TemporaryValue(window));
  }
}
    1e30:	df 91       	pop	r29
    1e32:	cf 91       	pop	r28
    1e34:	1f 91       	pop	r17
    1e36:	0f 91       	pop	r16
    1e38:	08 95       	ret

00001e3a <Timebase_UpCounter_Expired>:


uint8_t Timebase_UpCounter_Expired(uint8_t window){
    1e3a:	40 e0       	ldi	r20, 0x00	; 0
    1e3c:	e0 91 43 01 	lds	r30, 0x0143
    1e40:	f0 91 44 01 	lds	r31, 0x0144
    1e44:	90 e0       	ldi	r25, 0x00	; 0
    1e46:	25 e1       	ldi	r18, 0x15	; 21
    1e48:	30 e0       	ldi	r19, 0x00	; 0
    1e4a:	bc 01       	movw	r22, r24
    1e4c:	62 9f       	mul	r22, r18
    1e4e:	c0 01       	movw	r24, r0
    1e50:	63 9f       	mul	r22, r19
    1e52:	90 0d       	add	r25, r0
    1e54:	72 9f       	mul	r23, r18
    1e56:	90 0d       	add	r25, r0
    1e58:	11 24       	eor	r1, r1
    1e5a:	e8 0f       	add	r30, r24
    1e5c:	f9 1f       	adc	r31, r25
    1e5e:	81 ad       	ldd	r24, Z+57	; 0x39
    1e60:	86 95       	lsr	r24
    1e62:	8f 70       	andi	r24, 0x0F	; 15
    1e64:	84 30       	cpi	r24, 0x04	; 4
    1e66:	09 f4       	brne	.+2      	; 0x1e6a <Timebase_UpCounter_Expired+0x30>
    1e68:	41 e0       	ldi	r20, 0x01	; 1
  if(Timebase_UpCounter_Get_Status( window ) == COUNTER_STATE_EXPIRED){
    return TIMEBASE_TRUE;
  }else{
    return TIMEBASE_FALSE;
  }
}
    1e6a:	84 2f       	mov	r24, r20
    1e6c:	08 95       	ret

00001e6e <Timebase_UpCounter_Expired_Event>:

uint8_t Timebase_UpCounter_Expired_Event(uint8_t window){
    1e6e:	48 2f       	mov	r20, r24
  if(Timebase_UpCounter_Get_Status( window ) == COUNTER_STATE_EXPIRED){
    1e70:	e0 91 43 01 	lds	r30, 0x0143
    1e74:	f0 91 44 01 	lds	r31, 0x0144
    1e78:	28 2f       	mov	r18, r24
    1e7a:	30 e0       	ldi	r19, 0x00	; 0
    1e7c:	85 e1       	ldi	r24, 0x15	; 21
    1e7e:	90 e0       	ldi	r25, 0x00	; 0
    1e80:	bc 01       	movw	r22, r24
    1e82:	26 9f       	mul	r18, r22
    1e84:	c0 01       	movw	r24, r0
    1e86:	27 9f       	mul	r18, r23
    1e88:	90 0d       	add	r25, r0
    1e8a:	36 9f       	mul	r19, r22
    1e8c:	90 0d       	add	r25, r0
    1e8e:	11 24       	eor	r1, r1
    1e90:	e8 0f       	add	r30, r24
    1e92:	f9 1f       	adc	r31, r25
    1e94:	81 ad       	ldd	r24, Z+57	; 0x39
    1e96:	86 95       	lsr	r24
    1e98:	8f 70       	andi	r24, 0x0F	; 15
    1e9a:	84 30       	cpi	r24, 0x04	; 4
    1e9c:	11 f0       	breq	.+4      	; 0x1ea2 <Timebase_UpCounter_Expired_Event+0x34>
    1e9e:	80 e0       	ldi	r24, 0x00	; 0
    1ea0:	08 95       	ret
  Timebase_UpCounter_Set_PeriodValue(window, 0);
  Timebase_UpCounter_Clear_Period_Flag(window);
} 

void Timebase_UpCounter_Clear_All_Flags(uint8_t window){
  Timebase_UpCounter_Reset( window );
    1ea2:	84 2f       	mov	r24, r20
    1ea4:	0e 94 9d 0d 	call	0x1b3a	; 0x1b3a <Timebase_UpCounter_Reset>
    1ea8:	81 e0       	ldi	r24, 0x01	; 1
    Timebase_UpCounter_Clear_All_Flags( window );
    return TIMEBASE_TRUE;
  }else{
    return TIMEBASE_FALSE;
  }
}
    1eaa:	08 95       	ret

00001eac <Timebase_UpCounter_Set_Period_Value_Securely>:

void Timebase_UpCounter_Set_Period_Value_Securely(uint8_t window, int32_t value){
    1eac:	cf 93       	push	r28
    1eae:	df 93       	push	r29
void Timebase_UpCounter_Set_PeriodValue(uint8_t window, int32_t value){
  Timebase->UpCounter[window].PeriodValue = value;
}

uint8_t Timebase_UpCounter_Get_Period_Flag(uint8_t window){
  return Timebase->UpCounter[window].Status.PeriodFlag;
    1eb0:	c0 91 43 01 	lds	r28, 0x0143
    1eb4:	d0 91 44 01 	lds	r29, 0x0144
    1eb8:	90 e0       	ldi	r25, 0x00	; 0
    return TIMEBASE_FALSE;
  }
}

void Timebase_UpCounter_Set_Period_Value_Securely(uint8_t window, int32_t value){
  if(Timebase_UpCounter_Get_Period_Flag( window ) == FLAG_STATE_RESET){
    1eba:	25 e1       	ldi	r18, 0x15	; 21
    1ebc:	30 e0       	ldi	r19, 0x00	; 0
    1ebe:	fc 01       	movw	r30, r24
    1ec0:	e2 9f       	mul	r30, r18
    1ec2:	c0 01       	movw	r24, r0
    1ec4:	e3 9f       	mul	r30, r19
    1ec6:	90 0d       	add	r25, r0
    1ec8:	f2 9f       	mul	r31, r18
    1eca:	90 0d       	add	r25, r0
    1ecc:	11 24       	eor	r1, r1
    1ece:	c8 0f       	add	r28, r24
    1ed0:	d9 1f       	adc	r29, r25
    1ed2:	89 ad       	ldd	r24, Y+57	; 0x39
    1ed4:	80 fd       	sbrc	r24, 0
    1ed6:	16 c0       	rjmp	.+44     	; 0x1f04 <Timebase_UpCounter_Set_Period_Value_Securely+0x58>
int32_t Timebase_UpCounter_Get_PeriodValue(uint8_t window){
  return Timebase->UpCounter[window].PeriodValue;
}

void Timebase_UpCounter_Set_PeriodValue(uint8_t window, int32_t value){
  Timebase->UpCounter[window].PeriodValue = value;
    1ed8:	fe 01       	movw	r30, r28
    1eda:	e6 5b       	subi	r30, 0xB6	; 182
    1edc:	ff 4f       	sbci	r31, 0xFF	; 255
    1ede:	ca 5b       	subi	r28, 0xBA	; 186
    1ee0:	df 4f       	sbci	r29, 0xFF	; 255
    1ee2:	88 81       	ld	r24, Y
    1ee4:	99 81       	ldd	r25, Y+1	; 0x01
    1ee6:	aa 81       	ldd	r26, Y+2	; 0x02
    1ee8:	bb 81       	ldd	r27, Y+3	; 0x03
    1eea:	c6 54       	subi	r28, 0x46	; 70
    1eec:	d0 40       	sbci	r29, 0x00	; 0
    1eee:	84 0f       	add	r24, r20
    1ef0:	95 1f       	adc	r25, r21
    1ef2:	a6 1f       	adc	r26, r22
    1ef4:	b7 1f       	adc	r27, r23
    1ef6:	80 83       	st	Z, r24
    1ef8:	91 83       	std	Z+1, r25	; 0x01
    1efa:	a2 83       	std	Z+2, r26	; 0x02
    1efc:	b3 83       	std	Z+3, r27	; 0x03
uint8_t Timebase_UpCounter_Get_Period_Flag(uint8_t window){
  return Timebase->UpCounter[window].Status.PeriodFlag;
}

void Timebase_UpCounter_Set_Period_Flag(uint8_t window){
  Timebase->UpCounter[window].Status.PeriodFlag = FLAG_STATE_SET;
    1efe:	89 ad       	ldd	r24, Y+57	; 0x39
    1f00:	81 60       	ori	r24, 0x01	; 1
    1f02:	89 af       	std	Y+57, r24	; 0x39
void Timebase_UpCounter_Set_Period_Value_Securely(uint8_t window, int32_t value){
  if(Timebase_UpCounter_Get_Period_Flag( window ) == FLAG_STATE_RESET){
    Timebase_UpCounter_Set_PeriodValue( window, Timebase_UpCounter_Get_Value( window ) + value);
    Timebase_UpCounter_Set_Period_Flag( window);
  }
}
    1f04:	df 91       	pop	r29
    1f06:	cf 91       	pop	r28
    1f08:	08 95       	ret

00001f0a <Timebase_UpCounter_Get_Remaining_Period_Value>:
  }
  Timebase->UpCounter[window].Temporary = value;
}

int32_t Timebase_UpCounter_Get_PeriodValue(uint8_t window){
  return Timebase->UpCounter[window].PeriodValue;
    1f0a:	e0 91 43 01 	lds	r30, 0x0143
    1f0e:	f0 91 44 01 	lds	r31, 0x0144
    1f12:	90 e0       	ldi	r25, 0x00	; 0
    Timebase_UpCounter_Set_Period_Flag( window);
  }
}

int32_t Timebase_UpCounter_Get_Remaining_Period_Value(uint8_t window){
  int32_t temp = Timebase_UpCounter_Get_PeriodValue( window ) - Timebase_UpCounter_Get_Value( window );
    1f14:	25 e1       	ldi	r18, 0x15	; 21
    1f16:	30 e0       	ldi	r19, 0x00	; 0
    1f18:	ac 01       	movw	r20, r24
    1f1a:	42 9f       	mul	r20, r18
    1f1c:	c0 01       	movw	r24, r0
    1f1e:	43 9f       	mul	r20, r19
    1f20:	90 0d       	add	r25, r0
    1f22:	52 9f       	mul	r21, r18
    1f24:	90 0d       	add	r25, r0
    1f26:	11 24       	eor	r1, r1
    1f28:	e8 0f       	add	r30, r24
    1f2a:	f9 1f       	adc	r31, r25
    1f2c:	df 01       	movw	r26, r30
    1f2e:	aa 5b       	subi	r26, 0xBA	; 186
    1f30:	bf 4f       	sbci	r27, 0xFF	; 255
    1f32:	e6 5b       	subi	r30, 0xB6	; 182
    1f34:	ff 4f       	sbci	r31, 0xFF	; 255
    1f36:	20 81       	ld	r18, Z
    1f38:	31 81       	ldd	r19, Z+1	; 0x01
    1f3a:	42 81       	ldd	r20, Z+2	; 0x02
    1f3c:	53 81       	ldd	r21, Z+3	; 0x03
    1f3e:	8d 91       	ld	r24, X+
    1f40:	9d 91       	ld	r25, X+
    1f42:	0d 90       	ld	r0, X+
    1f44:	bc 91       	ld	r27, X
    1f46:	a0 2d       	mov	r26, r0
    1f48:	28 1b       	sub	r18, r24
    1f4a:	39 0b       	sbc	r19, r25
    1f4c:	4a 0b       	sbc	r20, r26
    1f4e:	5b 0b       	sbc	r21, r27
    1f50:	57 ff       	sbrs	r21, 7
    1f52:	04 c0       	rjmp	.+8      	; 0x1f5c <Timebase_UpCounter_Get_Remaining_Period_Value+0x52>
    1f54:	20 e0       	ldi	r18, 0x00	; 0
    1f56:	30 e0       	ldi	r19, 0x00	; 0
    1f58:	40 e0       	ldi	r20, 0x00	; 0
    1f5a:	50 e0       	ldi	r21, 0x00	; 0
  if(temp < 0){
    temp = 0;
  }
  return temp;
}
    1f5c:	b9 01       	movw	r22, r18
    1f5e:	ca 01       	movw	r24, r20
    1f60:	08 95       	ret

00001f62 <Timebase_UpCounter_Period_Value_Expired>:

uint8_t Timebase_UpCounter_Period_Value_Expired(uint8_t window){
    1f62:	cf 93       	push	r28
    1f64:	df 93       	push	r29
  }
  Timebase->UpCounter[window].Temporary = value;
}

int32_t Timebase_UpCounter_Get_PeriodValue(uint8_t window){
  return Timebase->UpCounter[window].PeriodValue;
    1f66:	c0 91 43 01 	lds	r28, 0x0143
    1f6a:	d0 91 44 01 	lds	r29, 0x0144
    1f6e:	68 2f       	mov	r22, r24
    1f70:	70 e0       	ldi	r23, 0x00	; 0
    Timebase_UpCounter_Set_Period_Flag( window);
  }
}

int32_t Timebase_UpCounter_Get_Remaining_Period_Value(uint8_t window){
  int32_t temp = Timebase_UpCounter_Get_PeriodValue( window ) - Timebase_UpCounter_Get_Value( window );
    1f72:	85 e1       	ldi	r24, 0x15	; 21
    1f74:	90 e0       	ldi	r25, 0x00	; 0
    1f76:	68 9f       	mul	r22, r24
    1f78:	f0 01       	movw	r30, r0
    1f7a:	69 9f       	mul	r22, r25
    1f7c:	f0 0d       	add	r31, r0
    1f7e:	78 9f       	mul	r23, r24
    1f80:	f0 0d       	add	r31, r0
    1f82:	11 24       	eor	r1, r1
    1f84:	ec 0f       	add	r30, r28
    1f86:	fd 1f       	adc	r31, r29
    1f88:	df 01       	movw	r26, r30
    1f8a:	aa 5b       	subi	r26, 0xBA	; 186
    1f8c:	bf 4f       	sbci	r27, 0xFF	; 255
    1f8e:	e6 5b       	subi	r30, 0xB6	; 182
    1f90:	ff 4f       	sbci	r31, 0xFF	; 255
    1f92:	20 81       	ld	r18, Z
    1f94:	31 81       	ldd	r19, Z+1	; 0x01
    1f96:	42 81       	ldd	r20, Z+2	; 0x02
    1f98:	53 81       	ldd	r21, Z+3	; 0x03
    1f9a:	8d 91       	ld	r24, X+
    1f9c:	9d 91       	ld	r25, X+
    1f9e:	0d 90       	ld	r0, X+
    1fa0:	bc 91       	ld	r27, X
    1fa2:	a0 2d       	mov	r26, r0
    1fa4:	28 1b       	sub	r18, r24
    1fa6:	39 0b       	sbc	r19, r25
    1fa8:	4a 0b       	sbc	r20, r26
    1faa:	5b 0b       	sbc	r21, r27
  if(temp < 0){
    1fac:	57 fd       	sbrc	r21, 7
    1fae:	07 c0       	rjmp	.+14     	; 0x1fbe <Timebase_UpCounter_Period_Value_Expired+0x5c>
  }
  return temp;
}

uint8_t Timebase_UpCounter_Period_Value_Expired(uint8_t window){
  if( (Timebase_UpCounter_Get_Remaining_Period_Value( window ) == 0) && (Timebase_UpCounter_Get_Period_Flag( window ) == FLAG_STATE_SET) ){
    1fb0:	21 15       	cp	r18, r1
    1fb2:	31 05       	cpc	r19, r1
    1fb4:	41 05       	cpc	r20, r1
    1fb6:	51 05       	cpc	r21, r1
    1fb8:	11 f0       	breq	.+4      	; 0x1fbe <Timebase_UpCounter_Period_Value_Expired+0x5c>
    1fba:	20 e0       	ldi	r18, 0x00	; 0
    1fbc:	12 c0       	rjmp	.+36     	; 0x1fe2 <Timebase_UpCounter_Period_Value_Expired+0x80>
    1fbe:	20 e0       	ldi	r18, 0x00	; 0
    1fc0:	85 e1       	ldi	r24, 0x15	; 21
    1fc2:	90 e0       	ldi	r25, 0x00	; 0
    1fc4:	ac 01       	movw	r20, r24
    1fc6:	64 9f       	mul	r22, r20
    1fc8:	c0 01       	movw	r24, r0
    1fca:	65 9f       	mul	r22, r21
    1fcc:	90 0d       	add	r25, r0
    1fce:	74 9f       	mul	r23, r20
    1fd0:	90 0d       	add	r25, r0
    1fd2:	11 24       	eor	r1, r1
    1fd4:	c8 0f       	add	r28, r24
    1fd6:	d9 1f       	adc	r29, r25
    1fd8:	89 ad       	ldd	r24, Y+57	; 0x39
    1fda:	80 ff       	sbrs	r24, 0
    1fdc:	21 e0       	ldi	r18, 0x01	; 1
    1fde:	81 e0       	ldi	r24, 0x01	; 1
    1fe0:	28 27       	eor	r18, r24
    return TIMEBASE_TRUE;
  }else{
    return TIMEBASE_FALSE;
  }
}
    1fe2:	82 2f       	mov	r24, r18
    1fe4:	df 91       	pop	r29
    1fe6:	cf 91       	pop	r28
    1fe8:	08 95       	ret

00001fea <Timebase_UpCounter_Period_Value_Expired_Event>:

uint8_t Timebase_UpCounter_Period_Value_Expired_Event(uint8_t window){
    1fea:	1f 93       	push	r17
    1fec:	18 2f       	mov	r17, r24
  if(Timebase_UpCounter_Period_Value_Expired( window ) == TIMEBASE_TRUE){
    1fee:	0e 94 b1 0f 	call	0x1f62	; 0x1f62 <Timebase_UpCounter_Period_Value_Expired>
    1ff2:	81 30       	cpi	r24, 0x01	; 1
    1ff4:	11 f0       	breq	.+4      	; 0x1ffa <Timebase_UpCounter_Period_Value_Expired_Event+0x10>
    1ff6:	80 e0       	ldi	r24, 0x00	; 0
    1ff8:	16 c0       	rjmp	.+44     	; 0x2026 <Timebase_UpCounter_Period_Value_Expired_Event+0x3c>
void Timebase_UpCounter_Set_Period_Flag(uint8_t window){
  Timebase->UpCounter[window].Status.PeriodFlag = FLAG_STATE_SET;
}

void Timebase_UpCounter_Clear_Period_Flag(uint8_t window){
  Timebase->UpCounter[window].Status.PeriodFlag = FLAG_STATE_RESET;
    1ffa:	e0 91 43 01 	lds	r30, 0x0143
    1ffe:	f0 91 44 01 	lds	r31, 0x0144
    2002:	21 2f       	mov	r18, r17
    2004:	30 e0       	ldi	r19, 0x00	; 0
    2006:	85 e1       	ldi	r24, 0x15	; 21
    2008:	90 e0       	ldi	r25, 0x00	; 0
    200a:	ac 01       	movw	r20, r24
    200c:	24 9f       	mul	r18, r20
    200e:	c0 01       	movw	r24, r0
    2010:	25 9f       	mul	r18, r21
    2012:	90 0d       	add	r25, r0
    2014:	34 9f       	mul	r19, r20
    2016:	90 0d       	add	r25, r0
    2018:	11 24       	eor	r1, r1
    201a:	e8 0f       	add	r30, r24
    201c:	f9 1f       	adc	r31, r25
    201e:	81 ad       	ldd	r24, Z+57	; 0x39
    2020:	8e 7f       	andi	r24, 0xFE	; 254
    2022:	81 af       	std	Z+57, r24	; 0x39
    2024:	81 e0       	ldi	r24, 0x01	; 1
    Timebase_UpCounter_Clear_Period_Flag( window );
    return TIMEBASE_TRUE;
  }else{
    return TIMEBASE_FALSE;
  }
}
    2026:	1f 91       	pop	r17
    2028:	08 95       	ret

0000202a <Timebase_UpCounter_Update_All>:

void Timebase_UpCounter_Update_All(void){
  for(uint8_t i=0; i<TIMEBASE_UPCOUNTER; i++){
    Timebase_UpCounter_Update(i);
    202a:	80 e0       	ldi	r24, 0x00	; 0
    202c:	0e 94 57 0e 	call	0x1cae	; 0x1cae <Timebase_UpCounter_Update>
  }
}
    2030:	08 95       	ret

00002032 <Timebase_UpCounter_Reset_All>:

void Timebase_UpCounter_Reset_All(void){
  for(uint8_t i=0; i<TIMEBASE_UPCOUNTER; i++){
    Timebase_UpCounter_Reset(i);
    2032:	80 e0       	ldi	r24, 0x00	; 0
    2034:	0e 94 9d 0d 	call	0x1b3a	; 0x1b3a <Timebase_UpCounter_Reset>
  }
}
    2038:	08 95       	ret

0000203a <Timebase_DownCounter_SS_Get_Status>:


/***************************DownCounter SS Functions Start**************************/

#ifdef TIMEBASE_DOWNCOUNTER_SUBSECONDS
uint8_t Timebase_DownCounter_SS_Get_Status(uint8_t window){
    203a:	e0 91 43 01 	lds	r30, 0x0143
    203e:	f0 91 44 01 	lds	r31, 0x0144
    2042:	90 e0       	ldi	r25, 0x00	; 0
    2044:	9c 01       	movw	r18, r24
    2046:	44 e0       	ldi	r20, 0x04	; 4
    2048:	22 0f       	add	r18, r18
    204a:	33 1f       	adc	r19, r19
    204c:	4a 95       	dec	r20
    204e:	e1 f7       	brne	.-8      	; 0x2048 <Timebase_DownCounter_SS_Get_Status+0xe>
    2050:	28 0f       	add	r18, r24
    2052:	39 1f       	adc	r19, r25
    2054:	e2 0f       	add	r30, r18
    2056:	f3 1f       	adc	r31, r19
    2058:	e2 5b       	subi	r30, 0xB2	; 178
    205a:	ff 4f       	sbci	r31, 0xFF	; 255
    205c:	80 81       	ld	r24, Z
    205e:	86 95       	lsr	r24
  return Timebase->DownCounterSS[window].Status.Value;
}
    2060:	8f 70       	andi	r24, 0x0F	; 15
    2062:	08 95       	ret

00002064 <Timebase_DownCounter_SS_Set_Status>:

void Timebase_DownCounter_SS_Set_Status(uint8_t window, uint8_t value){
  Timebase->DownCounterSS[window].Status.Value = value;
    2064:	e0 91 43 01 	lds	r30, 0x0143
    2068:	f0 91 44 01 	lds	r31, 0x0144
    206c:	90 e0       	ldi	r25, 0x00	; 0
    206e:	9c 01       	movw	r18, r24
    2070:	54 e0       	ldi	r21, 0x04	; 4
    2072:	22 0f       	add	r18, r18
    2074:	33 1f       	adc	r19, r19
    2076:	5a 95       	dec	r21
    2078:	e1 f7       	brne	.-8      	; 0x2072 <Timebase_DownCounter_SS_Set_Status+0xe>
    207a:	28 0f       	add	r18, r24
    207c:	39 1f       	adc	r19, r25
    207e:	e2 0f       	add	r30, r18
    2080:	f3 1f       	adc	r31, r19
    2082:	e2 5b       	subi	r30, 0xB2	; 178
    2084:	ff 4f       	sbci	r31, 0xFF	; 255
    2086:	6f 70       	andi	r22, 0x0F	; 15
    2088:	66 0f       	add	r22, r22
    208a:	80 81       	ld	r24, Z
    208c:	81 7e       	andi	r24, 0xE1	; 225
    208e:	86 2b       	or	r24, r22
    2090:	80 83       	st	Z, r24
}
    2092:	08 95       	ret

00002094 <Timebase_DownCounter_SS_Get_Value>:

int32_t Timebase_DownCounter_SS_Get_Value(uint8_t window){
    2094:	e0 91 43 01 	lds	r30, 0x0143
    2098:	f0 91 44 01 	lds	r31, 0x0144
    209c:	90 e0       	ldi	r25, 0x00	; 0
    209e:	9c 01       	movw	r18, r24
    20a0:	64 e0       	ldi	r22, 0x04	; 4
    20a2:	22 0f       	add	r18, r18
    20a4:	33 1f       	adc	r19, r19
    20a6:	6a 95       	dec	r22
    20a8:	e1 f7       	brne	.-8      	; 0x20a2 <Timebase_DownCounter_SS_Get_Value+0xe>
    20aa:	28 0f       	add	r18, r24
    20ac:	39 1f       	adc	r19, r25
    20ae:	e2 0f       	add	r30, r18
    20b0:	f3 1f       	adc	r31, r19
    20b2:	e9 5a       	subi	r30, 0xA9	; 169
    20b4:	ff 4f       	sbci	r31, 0xFF	; 255
    20b6:	60 81       	ld	r22, Z
    20b8:	71 81       	ldd	r23, Z+1	; 0x01
  return Timebase->DownCounterSS[window].Value;
}
    20ba:	82 81       	ldd	r24, Z+2	; 0x02
    20bc:	93 81       	ldd	r25, Z+3	; 0x03
    20be:	08 95       	ret

000020c0 <Timebase_DownCounter_SS_Set_Value>:

void Timebase_DownCounter_SS_Set_Value(uint8_t window, int32_t value){
  Timebase->DownCounterSS[window].Value = value;
    20c0:	e0 91 43 01 	lds	r30, 0x0143
    20c4:	f0 91 44 01 	lds	r31, 0x0144
    20c8:	90 e0       	ldi	r25, 0x00	; 0
    20ca:	9c 01       	movw	r18, r24
    20cc:	a4 e0       	ldi	r26, 0x04	; 4
    20ce:	22 0f       	add	r18, r18
    20d0:	33 1f       	adc	r19, r19
    20d2:	aa 95       	dec	r26
    20d4:	e1 f7       	brne	.-8      	; 0x20ce <Timebase_DownCounter_SS_Set_Value+0xe>
    20d6:	28 0f       	add	r18, r24
    20d8:	39 1f       	adc	r19, r25
    20da:	e2 0f       	add	r30, r18
    20dc:	f3 1f       	adc	r31, r19
    20de:	e9 5a       	subi	r30, 0xA9	; 169
    20e0:	ff 4f       	sbci	r31, 0xFF	; 255
    20e2:	40 83       	st	Z, r20
    20e4:	51 83       	std	Z+1, r21	; 0x01
    20e6:	62 83       	std	Z+2, r22	; 0x02
    20e8:	73 83       	std	Z+3, r23	; 0x03
}
    20ea:	08 95       	ret

000020ec <Timebase_DownCounter_SS_Get_EndValueSec>:

int32_t Timebase_DownCounter_SS_Get_EndValueSec(uint8_t window){
    20ec:	e0 91 43 01 	lds	r30, 0x0143
    20f0:	f0 91 44 01 	lds	r31, 0x0144
    20f4:	90 e0       	ldi	r25, 0x00	; 0
    20f6:	9c 01       	movw	r18, r24
    20f8:	b4 e0       	ldi	r27, 0x04	; 4
    20fa:	22 0f       	add	r18, r18
    20fc:	33 1f       	adc	r19, r19
    20fe:	ba 95       	dec	r27
    2100:	e1 f7       	brne	.-8      	; 0x20fa <Timebase_DownCounter_SS_Get_EndValueSec+0xe>
    2102:	28 0f       	add	r18, r24
    2104:	39 1f       	adc	r19, r25
    2106:	e2 0f       	add	r30, r18
    2108:	f3 1f       	adc	r31, r19
    210a:	e1 5b       	subi	r30, 0xB1	; 177
    210c:	ff 4f       	sbci	r31, 0xFF	; 255
    210e:	60 81       	ld	r22, Z
    2110:	71 81       	ldd	r23, Z+1	; 0x01
  return Timebase->DownCounterSS[window].EndValueSec;
}
    2112:	82 81       	ldd	r24, Z+2	; 0x02
    2114:	93 81       	ldd	r25, Z+3	; 0x03
    2116:	08 95       	ret

00002118 <Timebase_DownCounter_SS_Get_EndValueSubSec>:

int32_t Timebase_DownCounter_SS_Get_EndValueSubSec(uint8_t window){
    2118:	e0 91 43 01 	lds	r30, 0x0143
    211c:	f0 91 44 01 	lds	r31, 0x0144
    2120:	90 e0       	ldi	r25, 0x00	; 0
    2122:	9c 01       	movw	r18, r24
    2124:	44 e0       	ldi	r20, 0x04	; 4
    2126:	22 0f       	add	r18, r18
    2128:	33 1f       	adc	r19, r19
    212a:	4a 95       	dec	r20
    212c:	e1 f7       	brne	.-8      	; 0x2126 <Timebase_DownCounter_SS_Get_EndValueSubSec+0xe>
    212e:	28 0f       	add	r18, r24
    2130:	39 1f       	adc	r19, r25
    2132:	e2 0f       	add	r30, r18
    2134:	f3 1f       	adc	r31, r19
    2136:	ed 5a       	subi	r30, 0xAD	; 173
    2138:	ff 4f       	sbci	r31, 0xFF	; 255
    213a:	60 81       	ld	r22, Z
    213c:	71 81       	ldd	r23, Z+1	; 0x01
  return Timebase->DownCounterSS[window].EndValueSubSec;
}
    213e:	82 81       	ldd	r24, Z+2	; 0x02
    2140:	93 81       	ldd	r25, Z+3	; 0x03
    2142:	08 95       	ret

00002144 <Timebase_DownCounter_SS_Set_EndValueSec>:

void Timebase_DownCounter_SS_Set_EndValueSec(uint8_t window, int32_t value){
  Timebase->DownCounterSS[window].EndValueSec = value;
    2144:	e0 91 43 01 	lds	r30, 0x0143
    2148:	f0 91 44 01 	lds	r31, 0x0144
    214c:	90 e0       	ldi	r25, 0x00	; 0
    214e:	9c 01       	movw	r18, r24
    2150:	a4 e0       	ldi	r26, 0x04	; 4
    2152:	22 0f       	add	r18, r18
    2154:	33 1f       	adc	r19, r19
    2156:	aa 95       	dec	r26
    2158:	e1 f7       	brne	.-8      	; 0x2152 <Timebase_DownCounter_SS_Set_EndValueSec+0xe>
    215a:	28 0f       	add	r18, r24
    215c:	39 1f       	adc	r19, r25
    215e:	e2 0f       	add	r30, r18
    2160:	f3 1f       	adc	r31, r19
    2162:	e1 5b       	subi	r30, 0xB1	; 177
    2164:	ff 4f       	sbci	r31, 0xFF	; 255
    2166:	40 83       	st	Z, r20
    2168:	51 83       	std	Z+1, r21	; 0x01
    216a:	62 83       	std	Z+2, r22	; 0x02
    216c:	73 83       	std	Z+3, r23	; 0x03
}
    216e:	08 95       	ret

00002170 <Timebase_DownCounter_SS_Set_EndValueSubSec>:

void Timebase_DownCounter_SS_Set_EndValueSubSec(uint8_t window, int32_t value){
  Timebase->DownCounterSS[window].EndValueSubSec = value;
    2170:	e0 91 43 01 	lds	r30, 0x0143
    2174:	f0 91 44 01 	lds	r31, 0x0144
    2178:	90 e0       	ldi	r25, 0x00	; 0
    217a:	9c 01       	movw	r18, r24
    217c:	b4 e0       	ldi	r27, 0x04	; 4
    217e:	22 0f       	add	r18, r18
    2180:	33 1f       	adc	r19, r19
    2182:	ba 95       	dec	r27
    2184:	e1 f7       	brne	.-8      	; 0x217e <Timebase_DownCounter_SS_Set_EndValueSubSec+0xe>
    2186:	28 0f       	add	r18, r24
    2188:	39 1f       	adc	r19, r25
    218a:	e2 0f       	add	r30, r18
    218c:	f3 1f       	adc	r31, r19
    218e:	ed 5a       	subi	r30, 0xAD	; 173
    2190:	ff 4f       	sbci	r31, 0xFF	; 255
    2192:	40 83       	st	Z, r20
    2194:	51 83       	std	Z+1, r21	; 0x01
    2196:	62 83       	std	Z+2, r22	; 0x02
    2198:	73 83       	std	Z+3, r23	; 0x03
}
    219a:	08 95       	ret

0000219c <Timebase_DownCounter_SS_Get_PeriodValue>:


int32_t Timebase_DownCounter_SS_Get_PeriodValue(uint8_t window){
    219c:	e0 91 43 01 	lds	r30, 0x0143
    21a0:	f0 91 44 01 	lds	r31, 0x0144
    21a4:	90 e0       	ldi	r25, 0x00	; 0
    21a6:	9c 01       	movw	r18, r24
    21a8:	44 e0       	ldi	r20, 0x04	; 4
    21aa:	22 0f       	add	r18, r18
    21ac:	33 1f       	adc	r19, r19
    21ae:	4a 95       	dec	r20
    21b0:	e1 f7       	brne	.-8      	; 0x21aa <Timebase_DownCounter_SS_Get_PeriodValue+0xe>
    21b2:	28 0f       	add	r18, r24
    21b4:	39 1f       	adc	r19, r25
    21b6:	e2 0f       	add	r30, r18
    21b8:	f3 1f       	adc	r31, r19
    21ba:	e5 5a       	subi	r30, 0xA5	; 165
    21bc:	ff 4f       	sbci	r31, 0xFF	; 255
    21be:	60 81       	ld	r22, Z
    21c0:	71 81       	ldd	r23, Z+1	; 0x01
  return Timebase->DownCounterSS[window].PeriodValue;
}
    21c2:	82 81       	ldd	r24, Z+2	; 0x02
    21c4:	93 81       	ldd	r25, Z+3	; 0x03
    21c6:	08 95       	ret

000021c8 <Timebase_DownCounter_SS_Set_PeriodValue>:

void Timebase_DownCounter_SS_Set_PeriodValue(uint8_t window, int32_t value){
    21c8:	e0 91 43 01 	lds	r30, 0x0143
    21cc:	f0 91 44 01 	lds	r31, 0x0144
    21d0:	28 2f       	mov	r18, r24
    21d2:	30 e0       	ldi	r19, 0x00	; 0
  if(value < 0){
    21d4:	77 ff       	sbrs	r23, 7
    21d6:	11 c0       	rjmp	.+34     	; 0x21fa <Timebase_DownCounter_SS_Set_PeriodValue+0x32>
    Timebase->DownCounterSS[window].PeriodValue = 0;
    21d8:	c9 01       	movw	r24, r18
    21da:	b4 e0       	ldi	r27, 0x04	; 4
    21dc:	88 0f       	add	r24, r24
    21de:	99 1f       	adc	r25, r25
    21e0:	ba 95       	dec	r27
    21e2:	e1 f7       	brne	.-8      	; 0x21dc <Timebase_DownCounter_SS_Set_PeriodValue+0x14>
    21e4:	82 0f       	add	r24, r18
    21e6:	93 1f       	adc	r25, r19
    21e8:	e8 0f       	add	r30, r24
    21ea:	f9 1f       	adc	r31, r25
    21ec:	e5 5a       	subi	r30, 0xA5	; 165
    21ee:	ff 4f       	sbci	r31, 0xFF	; 255
    21f0:	10 82       	st	Z, r1
    21f2:	11 82       	std	Z+1, r1	; 0x01
    21f4:	12 82       	std	Z+2, r1	; 0x02
    21f6:	13 82       	std	Z+3, r1	; 0x03
    21f8:	08 95       	ret
  }else{
    Timebase->DownCounterSS[window].PeriodValue = value;
    21fa:	c9 01       	movw	r24, r18
    21fc:	a4 e0       	ldi	r26, 0x04	; 4
    21fe:	88 0f       	add	r24, r24
    2200:	99 1f       	adc	r25, r25
    2202:	aa 95       	dec	r26
    2204:	e1 f7       	brne	.-8      	; 0x21fe <Timebase_DownCounter_SS_Set_PeriodValue+0x36>
    2206:	82 0f       	add	r24, r18
    2208:	93 1f       	adc	r25, r19
    220a:	e8 0f       	add	r30, r24
    220c:	f9 1f       	adc	r31, r25
    220e:	e5 5a       	subi	r30, 0xA5	; 165
    2210:	ff 4f       	sbci	r31, 0xFF	; 255
    2212:	40 83       	st	Z, r20
    2214:	51 83       	std	Z+1, r21	; 0x01
    2216:	62 83       	std	Z+2, r22	; 0x02
    2218:	73 83       	std	Z+3, r23	; 0x03
    221a:	08 95       	ret

0000221c <Timebase_DownCounter_SS_Get_Period_Flag>:
  }
  
}

uint8_t Timebase_DownCounter_SS_Get_Period_Flag(uint8_t window){
    221c:	e0 91 43 01 	lds	r30, 0x0143
    2220:	f0 91 44 01 	lds	r31, 0x0144
    2224:	90 e0       	ldi	r25, 0x00	; 0
    2226:	9c 01       	movw	r18, r24
    2228:	44 e0       	ldi	r20, 0x04	; 4
    222a:	22 0f       	add	r18, r18
    222c:	33 1f       	adc	r19, r19
    222e:	4a 95       	dec	r20
    2230:	e1 f7       	brne	.-8      	; 0x222a <Timebase_DownCounter_SS_Get_Period_Flag+0xe>
    2232:	28 0f       	add	r18, r24
    2234:	39 1f       	adc	r19, r25
    2236:	e2 0f       	add	r30, r18
    2238:	f3 1f       	adc	r31, r19
    223a:	e2 5b       	subi	r30, 0xB2	; 178
    223c:	ff 4f       	sbci	r31, 0xFF	; 255
    223e:	80 81       	ld	r24, Z
  return Timebase->DownCounterSS[window].Status.PeriodFlag;
}
    2240:	81 70       	andi	r24, 0x01	; 1
    2242:	08 95       	ret

00002244 <Timebase_DownCounter_SS_Set_Period_Flag>:

void Timebase_DownCounter_SS_Set_Period_Flag(uint8_t window){
  Timebase->DownCounterSS[window].Status.PeriodFlag = FLAG_STATE_SET;
    2244:	e0 91 43 01 	lds	r30, 0x0143
    2248:	f0 91 44 01 	lds	r31, 0x0144
    224c:	90 e0       	ldi	r25, 0x00	; 0
    224e:	9c 01       	movw	r18, r24
    2250:	54 e0       	ldi	r21, 0x04	; 4
    2252:	22 0f       	add	r18, r18
    2254:	33 1f       	adc	r19, r19
    2256:	5a 95       	dec	r21
    2258:	e1 f7       	brne	.-8      	; 0x2252 <Timebase_DownCounter_SS_Set_Period_Flag+0xe>
    225a:	28 0f       	add	r18, r24
    225c:	39 1f       	adc	r19, r25
    225e:	e2 0f       	add	r30, r18
    2260:	f3 1f       	adc	r31, r19
    2262:	e2 5b       	subi	r30, 0xB2	; 178
    2264:	ff 4f       	sbci	r31, 0xFF	; 255
    2266:	80 81       	ld	r24, Z
    2268:	81 60       	ori	r24, 0x01	; 1
    226a:	80 83       	st	Z, r24
}
    226c:	08 95       	ret

0000226e <Timebase_DownCounter_SS_Clear_Period_Flag>:

void Timebase_DownCounter_SS_Clear_Period_Flag(uint8_t window){
  Timebase->DownCounterSS[window].Status.PeriodFlag = FLAG_STATE_RESET;
    226e:	e0 91 43 01 	lds	r30, 0x0143
    2272:	f0 91 44 01 	lds	r31, 0x0144
    2276:	90 e0       	ldi	r25, 0x00	; 0
    2278:	9c 01       	movw	r18, r24
    227a:	64 e0       	ldi	r22, 0x04	; 4
    227c:	22 0f       	add	r18, r18
    227e:	33 1f       	adc	r19, r19
    2280:	6a 95       	dec	r22
    2282:	e1 f7       	brne	.-8      	; 0x227c <Timebase_DownCounter_SS_Clear_Period_Flag+0xe>
    2284:	28 0f       	add	r18, r24
    2286:	39 1f       	adc	r19, r25
    2288:	e2 0f       	add	r30, r18
    228a:	f3 1f       	adc	r31, r19
    228c:	e2 5b       	subi	r30, 0xB2	; 178
    228e:	ff 4f       	sbci	r31, 0xFF	; 255
    2290:	80 81       	ld	r24, Z
    2292:	8e 7f       	andi	r24, 0xFE	; 254
    2294:	80 83       	st	Z, r24
}
    2296:	08 95       	ret

00002298 <Timebase_DownCounter_SS_Reset>:
void Timebase_DownCounter_SS_Set_EndValueSec(uint8_t window, int32_t value){
  Timebase->DownCounterSS[window].EndValueSec = value;
}

void Timebase_DownCounter_SS_Set_EndValueSubSec(uint8_t window, int32_t value){
  Timebase->DownCounterSS[window].EndValueSubSec = value;
    2298:	e0 91 43 01 	lds	r30, 0x0143
    229c:	f0 91 44 01 	lds	r31, 0x0144
    22a0:	90 e0       	ldi	r25, 0x00	; 0
    22a2:	9c 01       	movw	r18, r24
    22a4:	74 e0       	ldi	r23, 0x04	; 4
    22a6:	22 0f       	add	r18, r18
    22a8:	33 1f       	adc	r19, r19
    22aa:	7a 95       	dec	r23
    22ac:	e1 f7       	brne	.-8      	; 0x22a6 <Timebase_DownCounter_SS_Reset+0xe>
    22ae:	28 0f       	add	r18, r24
    22b0:	39 1f       	adc	r19, r25
    22b2:	e2 0f       	add	r30, r18
    22b4:	f3 1f       	adc	r31, r19
    22b6:	ed 5a       	subi	r30, 0xAD	; 173
    22b8:	ff 4f       	sbci	r31, 0xFF	; 255
    22ba:	10 82       	st	Z, r1
    22bc:	11 82       	std	Z+1, r1	; 0x01
    22be:	12 82       	std	Z+2, r1	; 0x02
    22c0:	13 82       	std	Z+3, r1	; 0x03
int32_t Timebase_DownCounter_SS_Get_EndValueSubSec(uint8_t window){
  return Timebase->DownCounterSS[window].EndValueSubSec;
}

void Timebase_DownCounter_SS_Set_EndValueSec(uint8_t window, int32_t value){
  Timebase->DownCounterSS[window].EndValueSec = value;
    22c2:	12 92       	st	-Z, r1
    22c4:	12 92       	st	-Z, r1
    22c6:	12 92       	st	-Z, r1
    22c8:	12 92       	st	-Z, r1
int32_t Timebase_DownCounter_SS_Get_Value(uint8_t window){
  return Timebase->DownCounterSS[window].Value;
}

void Timebase_DownCounter_SS_Set_Value(uint8_t window, int32_t value){
  Timebase->DownCounterSS[window].Value = value;
    22ca:	38 96       	adiw	r30, 0x08	; 8
    22cc:	10 82       	st	Z, r1
    22ce:	11 82       	std	Z+1, r1	; 0x01
    22d0:	12 82       	std	Z+2, r1	; 0x02
    22d2:	13 82       	std	Z+3, r1	; 0x03
uint8_t Timebase_DownCounter_SS_Get_Status(uint8_t window){
  return Timebase->DownCounterSS[window].Status.Value;
}

void Timebase_DownCounter_SS_Set_Status(uint8_t window, uint8_t value){
  Timebase->DownCounterSS[window].Status.Value = value;
    22d4:	39 97       	sbiw	r30, 0x09	; 9
    22d6:	80 81       	ld	r24, Z
void Timebase_DownCounter_SS_Set_Period_Flag(uint8_t window){
  Timebase->DownCounterSS[window].Status.PeriodFlag = FLAG_STATE_SET;
}

void Timebase_DownCounter_SS_Clear_Period_Flag(uint8_t window){
  Timebase->DownCounterSS[window].Status.PeriodFlag = FLAG_STATE_RESET;
    22d8:	80 7e       	andi	r24, 0xE0	; 224
    22da:	80 83       	st	Z, r24
  Timebase_DownCounter_SS_Set_EndValueSubSec(window, 0);
  Timebase_DownCounter_SS_Set_EndValueSec(window, 0);
  Timebase_DownCounter_SS_Set_Value(window, 0);
  Timebase_DownCounter_SS_Set_Status(window, COUNTER_STATE_RESET);
  Timebase_DownCounter_SS_Clear_Period_Flag(window);
} 
    22dc:	08 95       	ret

000022de <Timebase_DownCounter_SS_Clear_All_Flags>:
void Timebase_DownCounter_SS_Set_EndValueSec(uint8_t window, int32_t value){
  Timebase->DownCounterSS[window].EndValueSec = value;
}

void Timebase_DownCounter_SS_Set_EndValueSubSec(uint8_t window, int32_t value){
  Timebase->DownCounterSS[window].EndValueSubSec = value;
    22de:	e0 91 43 01 	lds	r30, 0x0143
    22e2:	f0 91 44 01 	lds	r31, 0x0144
    22e6:	90 e0       	ldi	r25, 0x00	; 0
    22e8:	9c 01       	movw	r18, r24
    22ea:	a4 e0       	ldi	r26, 0x04	; 4
    22ec:	22 0f       	add	r18, r18
    22ee:	33 1f       	adc	r19, r19
    22f0:	aa 95       	dec	r26
    22f2:	e1 f7       	brne	.-8      	; 0x22ec <Timebase_DownCounter_SS_Clear_All_Flags+0xe>
    22f4:	28 0f       	add	r18, r24
    22f6:	39 1f       	adc	r19, r25
    22f8:	e2 0f       	add	r30, r18
    22fa:	f3 1f       	adc	r31, r19
    22fc:	ed 5a       	subi	r30, 0xAD	; 173
    22fe:	ff 4f       	sbci	r31, 0xFF	; 255
    2300:	10 82       	st	Z, r1
    2302:	11 82       	std	Z+1, r1	; 0x01
    2304:	12 82       	std	Z+2, r1	; 0x02
    2306:	13 82       	std	Z+3, r1	; 0x03
int32_t Timebase_DownCounter_SS_Get_EndValueSubSec(uint8_t window){
  return Timebase->DownCounterSS[window].EndValueSubSec;
}

void Timebase_DownCounter_SS_Set_EndValueSec(uint8_t window, int32_t value){
  Timebase->DownCounterSS[window].EndValueSec = value;
    2308:	12 92       	st	-Z, r1
    230a:	12 92       	st	-Z, r1
    230c:	12 92       	st	-Z, r1
    230e:	12 92       	st	-Z, r1
int32_t Timebase_DownCounter_SS_Get_Value(uint8_t window){
  return Timebase->DownCounterSS[window].Value;
}

void Timebase_DownCounter_SS_Set_Value(uint8_t window, int32_t value){
  Timebase->DownCounterSS[window].Value = value;
    2310:	38 96       	adiw	r30, 0x08	; 8
    2312:	10 82       	st	Z, r1
    2314:	11 82       	std	Z+1, r1	; 0x01
    2316:	12 82       	std	Z+2, r1	; 0x02
    2318:	13 82       	std	Z+3, r1	; 0x03
uint8_t Timebase_DownCounter_SS_Get_Status(uint8_t window){
  return Timebase->DownCounterSS[window].Status.Value;
}

void Timebase_DownCounter_SS_Set_Status(uint8_t window, uint8_t value){
  Timebase->DownCounterSS[window].Status.Value = value;
    231a:	39 97       	sbiw	r30, 0x09	; 9
    231c:	80 81       	ld	r24, Z
void Timebase_DownCounter_SS_Set_Period_Flag(uint8_t window){
  Timebase->DownCounterSS[window].Status.PeriodFlag = FLAG_STATE_SET;
}

void Timebase_DownCounter_SS_Clear_Period_Flag(uint8_t window){
  Timebase->DownCounterSS[window].Status.PeriodFlag = FLAG_STATE_RESET;
    231e:	80 7e       	andi	r24, 0xE0	; 224
    2320:	80 83       	st	Z, r24
  Timebase_DownCounter_SS_Clear_Period_Flag(window);
} 

void Timebase_DownCounter_SS_Clear_All_Flags(uint8_t window){
  Timebase_DownCounter_SS_Reset( window );
}
    2322:	08 95       	ret

00002324 <Timebase_DownCounter_SS_Start>:

/***************************DownCounter SS Functions Start**************************/

#ifdef TIMEBASE_DOWNCOUNTER_SUBSECONDS
uint8_t Timebase_DownCounter_SS_Get_Status(uint8_t window){
  return Timebase->DownCounterSS[window].Status.Value;
    2324:	e0 91 43 01 	lds	r30, 0x0143
    2328:	f0 91 44 01 	lds	r31, 0x0144
    232c:	90 e0       	ldi	r25, 0x00	; 0
void Timebase_DownCounter_SS_Clear_All_Flags(uint8_t window){
  Timebase_DownCounter_SS_Reset( window );
}

void Timebase_DownCounter_SS_Start(uint8_t window){
  if(Timebase_DownCounter_SS_Get_Status(window) != COUNTER_STATE_STARTED){
    232e:	9c 01       	movw	r18, r24
    2330:	b4 e0       	ldi	r27, 0x04	; 4
    2332:	22 0f       	add	r18, r18
    2334:	33 1f       	adc	r19, r19
    2336:	ba 95       	dec	r27
    2338:	e1 f7       	brne	.-8      	; 0x2332 <Timebase_DownCounter_SS_Start+0xe>
    233a:	28 0f       	add	r18, r24
    233c:	39 1f       	adc	r19, r25
    233e:	e2 0f       	add	r30, r18
    2340:	f3 1f       	adc	r31, r19
    2342:	e2 5b       	subi	r30, 0xB2	; 178
    2344:	ff 4f       	sbci	r31, 0xFF	; 255
    2346:	90 81       	ld	r25, Z
    2348:	89 2f       	mov	r24, r25
    234a:	86 95       	lsr	r24
    234c:	8f 70       	andi	r24, 0x0F	; 15
    234e:	81 30       	cpi	r24, 0x01	; 1
    2350:	19 f0       	breq	.+6      	; 0x2358 <Timebase_DownCounter_SS_Start+0x34>
uint8_t Timebase_DownCounter_SS_Get_Status(uint8_t window){
  return Timebase->DownCounterSS[window].Status.Value;
}

void Timebase_DownCounter_SS_Set_Status(uint8_t window, uint8_t value){
  Timebase->DownCounterSS[window].Status.Value = value;
    2352:	91 7e       	andi	r25, 0xE1	; 225
    2354:	92 60       	ori	r25, 0x02	; 2
    2356:	90 83       	st	Z, r25
    2358:	08 95       	ret

0000235a <Timebase_DownCounter_SS_Stop>:

/***************************DownCounter SS Functions Start**************************/

#ifdef TIMEBASE_DOWNCOUNTER_SUBSECONDS
uint8_t Timebase_DownCounter_SS_Get_Status(uint8_t window){
  return Timebase->DownCounterSS[window].Status.Value;
    235a:	e0 91 43 01 	lds	r30, 0x0143
    235e:	f0 91 44 01 	lds	r31, 0x0144
    2362:	90 e0       	ldi	r25, 0x00	; 0
    Timebase_DownCounter_SS_Set_Status(window, COUNTER_STATE_START); 
  }
}

void Timebase_DownCounter_SS_Stop(uint8_t window){
  if(Timebase_DownCounter_SS_Get_Status(window) != COUNTER_STATE_STOPPED){
    2364:	9c 01       	movw	r18, r24
    2366:	44 e0       	ldi	r20, 0x04	; 4
    2368:	22 0f       	add	r18, r18
    236a:	33 1f       	adc	r19, r19
    236c:	4a 95       	dec	r20
    236e:	e1 f7       	brne	.-8      	; 0x2368 <Timebase_DownCounter_SS_Stop+0xe>
    2370:	28 0f       	add	r18, r24
    2372:	39 1f       	adc	r19, r25
    2374:	e2 0f       	add	r30, r18
    2376:	f3 1f       	adc	r31, r19
    2378:	e2 5b       	subi	r30, 0xB2	; 178
    237a:	ff 4f       	sbci	r31, 0xFF	; 255
    237c:	90 81       	ld	r25, Z
    237e:	89 2f       	mov	r24, r25
    2380:	86 95       	lsr	r24
    2382:	8f 70       	andi	r24, 0x0F	; 15
    2384:	82 30       	cpi	r24, 0x02	; 2
    2386:	19 f0       	breq	.+6      	; 0x238e <Timebase_DownCounter_SS_Stop+0x34>
uint8_t Timebase_DownCounter_SS_Get_Status(uint8_t window){
  return Timebase->DownCounterSS[window].Status.Value;
}

void Timebase_DownCounter_SS_Set_Status(uint8_t window, uint8_t value){
  Timebase->DownCounterSS[window].Status.Value = value;
    2388:	91 7e       	andi	r25, 0xE1	; 225
    238a:	94 60       	ori	r25, 0x04	; 4
    238c:	90 83       	st	Z, r25
    238e:	08 95       	ret

00002390 <Timebase_DownCounter_SS_Set_Securely>:
    Timebase_DownCounter_SS_Set_Status(window, COUNTER_STATE_STOP);    
  }
}


void Timebase_DownCounter_SS_Set_Securely(uint8_t window, int32_t value){
    2390:	2f 92       	push	r2
    2392:	3f 92       	push	r3
    2394:	4f 92       	push	r4
    2396:	5f 92       	push	r5
    2398:	6f 92       	push	r6
    239a:	7f 92       	push	r7
    239c:	8f 92       	push	r8
    239e:	9f 92       	push	r9
    23a0:	af 92       	push	r10
    23a2:	bf 92       	push	r11
    23a4:	cf 92       	push	r12
    23a6:	df 92       	push	r13
    23a8:	ef 92       	push	r14
    23aa:	ff 92       	push	r15
    23ac:	0f 93       	push	r16
    23ae:	1f 93       	push	r17
    23b0:	df 93       	push	r29
    23b2:	cf 93       	push	r28
    23b4:	00 d0       	rcall	.+0      	; 0x23b6 <Timebase_DownCounter_SS_Set_Securely+0x26>
    23b6:	00 d0       	rcall	.+0      	; 0x23b8 <Timebase_DownCounter_SS_Set_Securely+0x28>
    23b8:	cd b7       	in	r28, 0x3d	; 61
    23ba:	de b7       	in	r29, 0x3e	; 62
    23bc:	4a 01       	movw	r8, r20
    23be:	5b 01       	movw	r10, r22

/***************************DownCounter SS Functions Start**************************/

#ifdef TIMEBASE_DOWNCOUNTER_SUBSECONDS
uint8_t Timebase_DownCounter_SS_Get_Status(uint8_t window){
  return Timebase->DownCounterSS[window].Status.Value;
    23c0:	20 91 43 01 	lds	r18, 0x0143
    23c4:	30 91 44 01 	lds	r19, 0x0144
    23c8:	3c 83       	std	Y+4, r19	; 0x04
    23ca:	2b 83       	std	Y+3, r18	; 0x03
    23cc:	a8 2f       	mov	r26, r24
    23ce:	b0 e0       	ldi	r27, 0x00	; 0
    23d0:	ba 83       	std	Y+2, r27	; 0x02
    23d2:	a9 83       	std	Y+1, r26	; 0x01
  }
}


void Timebase_DownCounter_SS_Set_Securely(uint8_t window, int32_t value){
  if( Timebase_DownCounter_SS_Get_Status( window ) == COUNTER_STATE_RESET ){
    23d4:	fd 01       	movw	r30, r26
    23d6:	64 e0       	ldi	r22, 0x04	; 4
    23d8:	ee 0f       	add	r30, r30
    23da:	ff 1f       	adc	r31, r31
    23dc:	6a 95       	dec	r22
    23de:	e1 f7       	brne	.-8      	; 0x23d8 <Timebase_DownCounter_SS_Set_Securely+0x48>
    23e0:	ea 0f       	add	r30, r26
    23e2:	fb 1f       	adc	r31, r27
    23e4:	e2 0f       	add	r30, r18
    23e6:	f3 1f       	adc	r31, r19
    23e8:	e2 5b       	subi	r30, 0xB2	; 178
    23ea:	ff 4f       	sbci	r31, 0xFF	; 255
    23ec:	80 81       	ld	r24, Z
    23ee:	ee 54       	subi	r30, 0x4E	; 78
    23f0:	f0 40       	sbci	r31, 0x00	; 0
    23f2:	86 95       	lsr	r24
    23f4:	8f 70       	andi	r24, 0x0F	; 15
    23f6:	09 f0       	breq	.+2      	; 0x23fa <Timebase_DownCounter_SS_Set_Securely+0x6a>
    23f8:	72 c0       	rjmp	.+228    	; 0x24de <Timebase_DownCounter_SS_Set_Securely+0x14e>
int32_t Timebase_DownCounter_SS_Get_Value(uint8_t window){
  return Timebase->DownCounterSS[window].Value;
}

void Timebase_DownCounter_SS_Set_Value(uint8_t window, int32_t value){
  Timebase->DownCounterSS[window].Value = value;
    23fa:	e9 5a       	subi	r30, 0xA9	; 169
    23fc:	ff 4f       	sbci	r31, 0xFF	; 255
    23fe:	80 82       	st	Z, r8
    2400:	91 82       	std	Z+1, r9	; 0x01
    2402:	a2 82       	std	Z+2, r10	; 0x02
    2404:	b3 82       	std	Z+3, r11	; 0x03
  return Timebase->Time.SecondsShadow;
}


uint16_t Timebase_Timer_Get_SubSeconds(void){
  return Timebase->Time.SubSeconds;
    2406:	f9 01       	movw	r30, r18
    2408:	c0 84       	ldd	r12, Z+8	; 0x08
    240a:	d1 84       	ldd	r13, Z+9	; 0x09
}


int32_t Timebase_Timer_Get_Seconds(void){
  return Timebase->Time.Seconds;
    240c:	22 84       	ldd	r2, Z+10	; 0x0a
    240e:	33 84       	ldd	r3, Z+11	; 0x0b
    2410:	44 84       	ldd	r4, Z+12	; 0x0c
    2412:	55 84       	ldd	r5, Z+13	; 0x0d
void Timebase_DownCounter_SS_Set_Securely(uint8_t window, int32_t value){
  if( Timebase_DownCounter_SS_Get_Status( window ) == COUNTER_STATE_RESET ){
    Timebase_DownCounter_SS_Set_Value(window, value);
	int32_t temp_ss = Timebase_Timer_Get_SubSeconds();
	int32_t temp_s  = Timebase_Timer_Get_Seconds();
	int32_t subsec_val = value % Timebase->Config.UpdateRate;
    2414:	21 81       	ldd	r18, Z+1	; 0x01
    2416:	32 81       	ldd	r19, Z+2	; 0x02
    2418:	40 e0       	ldi	r20, 0x00	; 0
    241a:	50 e0       	ldi	r21, 0x00	; 0
    241c:	c5 01       	movw	r24, r10
    241e:	b4 01       	movw	r22, r8
    2420:	0e 94 30 19 	call	0x3260	; 0x3260 <__divmodsi4>
    2424:	7b 01       	movw	r14, r22
    2426:	8c 01       	movw	r16, r24
	int32_t sec_val    = value / Timebase->Config.UpdateRate;
    2428:	ab 81       	ldd	r26, Y+3	; 0x03
    242a:	bc 81       	ldd	r27, Y+4	; 0x04
    242c:	11 96       	adiw	r26, 0x01	; 1
    242e:	2d 91       	ld	r18, X+
    2430:	3c 91       	ld	r19, X
    2432:	12 97       	sbiw	r26, 0x02	; 2
    2434:	40 e0       	ldi	r20, 0x00	; 0
    2436:	50 e0       	ldi	r21, 0x00	; 0
    2438:	c5 01       	movw	r24, r10
    243a:	b4 01       	movw	r22, r8
    243c:	0e 94 30 19 	call	0x3260	; 0x3260 <__divmodsi4>
    2440:	c9 01       	movw	r24, r18
    2442:	da 01       	movw	r26, r20
    2444:	3c 01       	movw	r6, r24
    2446:	4d 01       	movw	r8, r26
	subsec_val += temp_ss;
    2448:	56 01       	movw	r10, r12
    244a:	cc 24       	eor	r12, r12
    244c:	dd 24       	eor	r13, r13
    244e:	ae 0c       	add	r10, r14
    2450:	bf 1c       	adc	r11, r15
    2452:	c0 1e       	adc	r12, r16
    2454:	d1 1e       	adc	r13, r17
	if(subsec_val >= Timebase->Config.UpdateRate){
    2456:	eb 81       	ldd	r30, Y+3	; 0x03
    2458:	fc 81       	ldd	r31, Y+4	; 0x04
    245a:	81 81       	ldd	r24, Z+1	; 0x01
    245c:	92 81       	ldd	r25, Z+2	; 0x02
    245e:	a0 e0       	ldi	r26, 0x00	; 0
    2460:	b0 e0       	ldi	r27, 0x00	; 0
    2462:	a8 16       	cp	r10, r24
    2464:	b9 06       	cpc	r11, r25
    2466:	ca 06       	cpc	r12, r26
    2468:	db 06       	cpc	r13, r27
    246a:	94 f0       	brlt	.+36     	; 0x2490 <Timebase_DownCounter_SS_Set_Securely+0x100>
	  sec_val += 1;
    246c:	08 94       	sec
    246e:	61 1c       	adc	r6, r1
    2470:	71 1c       	adc	r7, r1
    2472:	81 1c       	adc	r8, r1
    2474:	91 1c       	adc	r9, r1
	  subsec_val = subsec_val % Timebase->Config.UpdateRate;
    2476:	21 81       	ldd	r18, Z+1	; 0x01
    2478:	32 81       	ldd	r19, Z+2	; 0x02
    247a:	40 e0       	ldi	r20, 0x00	; 0
    247c:	50 e0       	ldi	r21, 0x00	; 0
    247e:	c6 01       	movw	r24, r12
    2480:	b5 01       	movw	r22, r10
    2482:	0e 94 30 19 	call	0x3260	; 0x3260 <__divmodsi4>
    2486:	ac 01       	movw	r20, r24
    2488:	cb 01       	movw	r24, r22
    248a:	da 01       	movw	r26, r20
    248c:	5c 01       	movw	r10, r24
    248e:	6d 01       	movw	r12, r26
int32_t Timebase_DownCounter_SS_Get_EndValueSubSec(uint8_t window){
  return Timebase->DownCounterSS[window].EndValueSubSec;
}

void Timebase_DownCounter_SS_Set_EndValueSec(uint8_t window, int32_t value){
  Timebase->DownCounterSS[window].EndValueSec = value;
    2490:	e9 81       	ldd	r30, Y+1	; 0x01
    2492:	fa 81       	ldd	r31, Y+2	; 0x02
    2494:	54 e0       	ldi	r21, 0x04	; 4
    2496:	ee 0f       	add	r30, r30
    2498:	ff 1f       	adc	r31, r31
    249a:	5a 95       	dec	r21
    249c:	e1 f7       	brne	.-8      	; 0x2496 <Timebase_DownCounter_SS_Set_Securely+0x106>
    249e:	29 81       	ldd	r18, Y+1	; 0x01
    24a0:	3a 81       	ldd	r19, Y+2	; 0x02
    24a2:	e2 0f       	add	r30, r18
    24a4:	f3 1f       	adc	r31, r19
    24a6:	8b 81       	ldd	r24, Y+3	; 0x03
    24a8:	9c 81       	ldd	r25, Y+4	; 0x04
    24aa:	e8 0f       	add	r30, r24
    24ac:	f9 1f       	adc	r31, r25
    24ae:	e1 5b       	subi	r30, 0xB1	; 177
    24b0:	ff 4f       	sbci	r31, 0xFF	; 255
    24b2:	26 0c       	add	r2, r6
    24b4:	37 1c       	adc	r3, r7
    24b6:	48 1c       	adc	r4, r8
    24b8:	59 1c       	adc	r5, r9
    24ba:	21 92       	st	Z+, r2
    24bc:	31 92       	st	Z+, r3
    24be:	41 92       	st	Z+, r4
    24c0:	51 92       	st	Z+, r5
}

void Timebase_DownCounter_SS_Set_EndValueSubSec(uint8_t window, int32_t value){
  Timebase->DownCounterSS[window].EndValueSubSec = value;
    24c2:	a0 82       	st	Z, r10
    24c4:	b1 82       	std	Z+1, r11	; 0x01
    24c6:	c2 82       	std	Z+2, r12	; 0x02
    24c8:	d3 82       	std	Z+3, r13	; 0x03
void Timebase_DownCounter_SS_Clear_All_Flags(uint8_t window){
  Timebase_DownCounter_SS_Reset( window );
}

void Timebase_DownCounter_SS_Start(uint8_t window){
  if(Timebase_DownCounter_SS_Get_Status(window) != COUNTER_STATE_STARTED){
    24ca:	35 97       	sbiw	r30, 0x05	; 5
    24cc:	90 81       	ld	r25, Z
    24ce:	89 2f       	mov	r24, r25
    24d0:	86 95       	lsr	r24
    24d2:	8f 70       	andi	r24, 0x0F	; 15
    24d4:	81 30       	cpi	r24, 0x01	; 1
    24d6:	19 f0       	breq	.+6      	; 0x24de <Timebase_DownCounter_SS_Set_Securely+0x14e>
uint8_t Timebase_DownCounter_SS_Get_Status(uint8_t window){
  return Timebase->DownCounterSS[window].Status.Value;
}

void Timebase_DownCounter_SS_Set_Status(uint8_t window, uint8_t value){
  Timebase->DownCounterSS[window].Status.Value = value;
    24d8:	91 7e       	andi	r25, 0xE1	; 225
    24da:	92 60       	ori	r25, 0x02	; 2
    24dc:	90 83       	st	Z, r25
	sec_val += temp_s;
    Timebase_DownCounter_SS_Set_EndValueSec(window, sec_val);
	Timebase_DownCounter_SS_Set_EndValueSubSec(window, subsec_val);
    Timebase_DownCounter_SS_Start(window);
  }
}
    24de:	0f 90       	pop	r0
    24e0:	0f 90       	pop	r0
    24e2:	0f 90       	pop	r0
    24e4:	0f 90       	pop	r0
    24e6:	cf 91       	pop	r28
    24e8:	df 91       	pop	r29
    24ea:	1f 91       	pop	r17
    24ec:	0f 91       	pop	r16
    24ee:	ff 90       	pop	r15
    24f0:	ef 90       	pop	r14
    24f2:	df 90       	pop	r13
    24f4:	cf 90       	pop	r12
    24f6:	bf 90       	pop	r11
    24f8:	af 90       	pop	r10
    24fa:	9f 90       	pop	r9
    24fc:	8f 90       	pop	r8
    24fe:	7f 90       	pop	r7
    2500:	6f 90       	pop	r6
    2502:	5f 90       	pop	r5
    2504:	4f 90       	pop	r4
    2506:	3f 90       	pop	r3
    2508:	2f 90       	pop	r2
    250a:	08 95       	ret

0000250c <Timebase_DownCounter_SS_Set_Forcefully>:
void Timebase_DownCounter_SS_Set_EndValueSec(uint8_t window, int32_t value){
  Timebase->DownCounterSS[window].EndValueSec = value;
}

void Timebase_DownCounter_SS_Set_EndValueSubSec(uint8_t window, int32_t value){
  Timebase->DownCounterSS[window].EndValueSubSec = value;
    250c:	e0 91 43 01 	lds	r30, 0x0143
    2510:	f0 91 44 01 	lds	r31, 0x0144
    2514:	a8 2f       	mov	r26, r24
    2516:	b0 e0       	ldi	r27, 0x00	; 0
    2518:	9d 01       	movw	r18, r26
    251a:	94 e0       	ldi	r25, 0x04	; 4
    251c:	22 0f       	add	r18, r18
    251e:	33 1f       	adc	r19, r19
    2520:	9a 95       	dec	r25
    2522:	e1 f7       	brne	.-8      	; 0x251c <Timebase_DownCounter_SS_Set_Forcefully+0x10>
    2524:	2a 0f       	add	r18, r26
    2526:	3b 1f       	adc	r19, r27
    2528:	e2 0f       	add	r30, r18
    252a:	f3 1f       	adc	r31, r19
    252c:	ed 5a       	subi	r30, 0xAD	; 173
    252e:	ff 4f       	sbci	r31, 0xFF	; 255
    2530:	10 82       	st	Z, r1
    2532:	11 82       	std	Z+1, r1	; 0x01
    2534:	12 82       	std	Z+2, r1	; 0x02
    2536:	13 82       	std	Z+3, r1	; 0x03
int32_t Timebase_DownCounter_SS_Get_EndValueSubSec(uint8_t window){
  return Timebase->DownCounterSS[window].EndValueSubSec;
}

void Timebase_DownCounter_SS_Set_EndValueSec(uint8_t window, int32_t value){
  Timebase->DownCounterSS[window].EndValueSec = value;
    2538:	12 92       	st	-Z, r1
    253a:	12 92       	st	-Z, r1
    253c:	12 92       	st	-Z, r1
    253e:	12 92       	st	-Z, r1
int32_t Timebase_DownCounter_SS_Get_Value(uint8_t window){
  return Timebase->DownCounterSS[window].Value;
}

void Timebase_DownCounter_SS_Set_Value(uint8_t window, int32_t value){
  Timebase->DownCounterSS[window].Value = value;
    2540:	38 96       	adiw	r30, 0x08	; 8
    2542:	10 82       	st	Z, r1
    2544:	11 82       	std	Z+1, r1	; 0x01
    2546:	12 82       	std	Z+2, r1	; 0x02
    2548:	13 82       	std	Z+3, r1	; 0x03
uint8_t Timebase_DownCounter_SS_Get_Status(uint8_t window){
  return Timebase->DownCounterSS[window].Status.Value;
}

void Timebase_DownCounter_SS_Set_Status(uint8_t window, uint8_t value){
  Timebase->DownCounterSS[window].Status.Value = value;
    254a:	39 97       	sbiw	r30, 0x09	; 9
    254c:	90 81       	ld	r25, Z
void Timebase_DownCounter_SS_Set_Period_Flag(uint8_t window){
  Timebase->DownCounterSS[window].Status.PeriodFlag = FLAG_STATE_SET;
}

void Timebase_DownCounter_SS_Clear_Period_Flag(uint8_t window){
  Timebase->DownCounterSS[window].Status.PeriodFlag = FLAG_STATE_RESET;
    254e:	90 7e       	andi	r25, 0xE0	; 224
    2550:	90 83       	st	Z, r25
  }
}

void Timebase_DownCounter_SS_Set_Forcefully(uint8_t window, int32_t value){
  Timebase_DownCounter_SS_Reset( window );
  Timebase_DownCounter_SS_Set_Securely( window, value );
    2552:	0e 94 c8 11 	call	0x2390	; 0x2390 <Timebase_DownCounter_SS_Set_Securely>
} 
    2556:	08 95       	ret

00002558 <Timebase_DownCounter_SS_Update>:

void Timebase_DownCounter_SS_Update(uint8_t window){
    2558:	2f 92       	push	r2
    255a:	3f 92       	push	r3
    255c:	4f 92       	push	r4
    255e:	5f 92       	push	r5
    2560:	6f 92       	push	r6
    2562:	7f 92       	push	r7
    2564:	8f 92       	push	r8
    2566:	9f 92       	push	r9
    2568:	af 92       	push	r10
    256a:	bf 92       	push	r11
    256c:	cf 92       	push	r12
    256e:	df 92       	push	r13
    2570:	ef 92       	push	r14
    2572:	ff 92       	push	r15
    2574:	0f 93       	push	r16
    2576:	1f 93       	push	r17
    2578:	cf 93       	push	r28
    257a:	df 93       	push	r29

/***************************DownCounter SS Functions Start**************************/

#ifdef TIMEBASE_DOWNCOUNTER_SUBSECONDS
uint8_t Timebase_DownCounter_SS_Get_Status(uint8_t window){
  return Timebase->DownCounterSS[window].Status.Value;
    257c:	c0 90 43 01 	lds	r12, 0x0143
    2580:	d0 90 44 01 	lds	r13, 0x0144
    2584:	08 2f       	mov	r16, r24
    2586:	10 e0       	ldi	r17, 0x00	; 0
    2588:	e8 01       	movw	r28, r16
    258a:	34 e0       	ldi	r19, 0x04	; 4
    258c:	cc 0f       	add	r28, r28
    258e:	dd 1f       	adc	r29, r29
    2590:	3a 95       	dec	r19
    2592:	e1 f7       	brne	.-8      	; 0x258c <Timebase_DownCounter_SS_Update+0x34>
    2594:	c0 0f       	add	r28, r16
    2596:	d1 1f       	adc	r29, r17
    2598:	cc 0d       	add	r28, r12
    259a:	dd 1d       	adc	r29, r13
    259c:	c2 5b       	subi	r28, 0xB2	; 178
    259e:	df 4f       	sbci	r29, 0xFF	; 255
    25a0:	88 81       	ld	r24, Y
    25a2:	ce 54       	subi	r28, 0x4E	; 78
    25a4:	d0 40       	sbci	r29, 0x00	; 0
    25a6:	86 95       	lsr	r24
    25a8:	8f 70       	andi	r24, 0x0F	; 15
  Timebase_DownCounter_SS_Reset( window );
  Timebase_DownCounter_SS_Set_Securely( window, value );
} 

void Timebase_DownCounter_SS_Update(uint8_t window){
  if( Timebase_DownCounter_SS_Get_Status( window ) == COUNTER_STATE_STARTED ){
    25aa:	81 30       	cpi	r24, 0x01	; 1
    25ac:	09 f0       	breq	.+2      	; 0x25b0 <Timebase_DownCounter_SS_Update+0x58>
    25ae:	5d c0       	rjmp	.+186    	; 0x266a <Timebase_DownCounter_SS_Update+0x112>
  return Timebase->Time.SecondsShadow;
}


uint16_t Timebase_Timer_Get_SubSeconds(void){
  return Timebase->Time.SubSeconds;
    25b0:	f6 01       	movw	r30, r12
    25b2:	80 85       	ldd	r24, Z+8	; 0x08
    25b4:	91 85       	ldd	r25, Z+9	; 0x09
  Timebase_DownCounter_SS_Set_Securely( window, value );
} 

void Timebase_DownCounter_SS_Update(uint8_t window){
  if( Timebase_DownCounter_SS_Get_Status( window ) == COUNTER_STATE_STARTED ){
    int32_t temp_ss = Timebase_Timer_Get_SubSeconds();
    25b6:	4c 01       	movw	r8, r24
    25b8:	aa 24       	eor	r10, r10
    25ba:	bb 24       	eor	r11, r11
  return Timebase->Time.SubSeconds;
}


int32_t Timebase_Timer_Get_Seconds(void){
  return Timebase->Time.Seconds;
    25bc:	82 85       	ldd	r24, Z+10	; 0x0a
    25be:	93 85       	ldd	r25, Z+11	; 0x0b
    25c0:	a4 85       	ldd	r26, Z+12	; 0x0c
    25c2:	b5 85       	ldd	r27, Z+13	; 0x0d
void Timebase_DownCounter_SS_Update(uint8_t window){
  if( Timebase_DownCounter_SS_Get_Status( window ) == COUNTER_STATE_STARTED ){
    int32_t temp_ss = Timebase_Timer_Get_SubSeconds();
	int32_t temp_s  = Timebase_Timer_Get_Seconds();
	temp_ss = Timebase_DownCounter_SS_Get_EndValueSubSec(window) - temp_ss;
	temp_s = Timebase_DownCounter_SS_Get_EndValueSec(window) - temp_s;
    25c4:	c1 5b       	subi	r28, 0xB1	; 177
    25c6:	df 4f       	sbci	r29, 0xFF	; 255
    25c8:	28 80       	ld	r2, Y
    25ca:	39 80       	ldd	r3, Y+1	; 0x01
    25cc:	4a 80       	ldd	r4, Y+2	; 0x02
    25ce:	5b 80       	ldd	r5, Y+3	; 0x03
    25d0:	28 1a       	sub	r2, r24
    25d2:	39 0a       	sbc	r3, r25
    25d4:	4a 0a       	sbc	r4, r26
    25d6:	5b 0a       	sbc	r5, r27
    25d8:	57 fe       	sbrs	r5, 7
    25da:	03 c0       	rjmp	.+6      	; 0x25e2 <Timebase_DownCounter_SS_Update+0x8a>
    25dc:	22 24       	eor	r2, r2
    25de:	33 24       	eor	r3, r3
    25e0:	21 01       	movw	r4, r2
	if(temp_s < 0){
	  temp_s = 0;
	}
	temp_s *= Timebase->Config.UpdateRate;
    25e2:	f6 01       	movw	r30, r12
    25e4:	21 81       	ldd	r18, Z+1	; 0x01
    25e6:	32 81       	ldd	r19, Z+2	; 0x02
    25e8:	40 e0       	ldi	r20, 0x00	; 0
    25ea:	50 e0       	ldi	r21, 0x00	; 0
    25ec:	c2 01       	movw	r24, r4
    25ee:	b1 01       	movw	r22, r2
    25f0:	0e 94 ef 18 	call	0x31de	; 0x31de <__mulsi3>
	temp_s += temp_ss;
    25f4:	f8 01       	movw	r30, r16
    25f6:	24 e0       	ldi	r18, 0x04	; 4
    25f8:	ee 0f       	add	r30, r30
    25fa:	ff 1f       	adc	r31, r31
    25fc:	2a 95       	dec	r18
    25fe:	e1 f7       	brne	.-8      	; 0x25f8 <Timebase_DownCounter_SS_Update+0xa0>
    2600:	e0 0f       	add	r30, r16
    2602:	f1 1f       	adc	r31, r17
    2604:	ec 0d       	add	r30, r12
    2606:	fd 1d       	adc	r31, r13
    2608:	ef 01       	movw	r28, r30
    260a:	cd 5a       	subi	r28, 0xAD	; 173
    260c:	df 4f       	sbci	r29, 0xFF	; 255
    260e:	28 81       	ld	r18, Y
    2610:	39 81       	ldd	r19, Y+1	; 0x01
    2612:	4a 81       	ldd	r20, Y+2	; 0x02
    2614:	5b 81       	ldd	r21, Y+3	; 0x03
    2616:	28 19       	sub	r18, r8
    2618:	39 09       	sbc	r19, r9
    261a:	4a 09       	sbc	r20, r10
    261c:	5b 09       	sbc	r21, r11
    261e:	26 0f       	add	r18, r22
    2620:	37 1f       	adc	r19, r23
    2622:	48 1f       	adc	r20, r24
    2624:	59 1f       	adc	r21, r25
int32_t Timebase_DownCounter_SS_Get_Value(uint8_t window){
  return Timebase->DownCounterSS[window].Value;
}

void Timebase_DownCounter_SS_Set_Value(uint8_t window, int32_t value){
  Timebase->DownCounterSS[window].Value = value;
    2626:	df 01       	movw	r26, r30
    2628:	a9 5a       	subi	r26, 0xA9	; 169
    262a:	bf 4f       	sbci	r27, 0xFF	; 255
    262c:	2d 93       	st	X+, r18
    262e:	3d 93       	st	X+, r19
    2630:	4d 93       	st	X+, r20
    2632:	5c 93       	st	X, r21
    2634:	13 97       	sbiw	r26, 0x03	; 3
	  temp_s = 0;
	}
	temp_s *= Timebase->Config.UpdateRate;
	temp_s += temp_ss;
	Timebase_DownCounter_SS_Set_Value(window, temp_s);
    if(Timebase_DownCounter_SS_Get_Value(window) <= 0){
    2636:	12 16       	cp	r1, r18
    2638:	13 06       	cpc	r1, r19
    263a:	14 06       	cpc	r1, r20
    263c:	15 06       	cpc	r1, r21
    263e:	0c f4       	brge	.+2      	; 0x2642 <Timebase_DownCounter_SS_Update+0xea>
    2640:	48 c0       	rjmp	.+144    	; 0x26d2 <Timebase_DownCounter_SS_Update+0x17a>
void Timebase_DownCounter_SS_Set_EndValueSec(uint8_t window, int32_t value){
  Timebase->DownCounterSS[window].EndValueSec = value;
}

void Timebase_DownCounter_SS_Set_EndValueSubSec(uint8_t window, int32_t value){
  Timebase->DownCounterSS[window].EndValueSubSec = value;
    2642:	18 82       	st	Y, r1
    2644:	19 82       	std	Y+1, r1	; 0x01
    2646:	1a 82       	std	Y+2, r1	; 0x02
    2648:	1b 82       	std	Y+3, r1	; 0x03
int32_t Timebase_DownCounter_SS_Get_EndValueSubSec(uint8_t window){
  return Timebase->DownCounterSS[window].EndValueSubSec;
}

void Timebase_DownCounter_SS_Set_EndValueSec(uint8_t window, int32_t value){
  Timebase->DownCounterSS[window].EndValueSec = value;
    264a:	e1 5b       	subi	r30, 0xB1	; 177
    264c:	ff 4f       	sbci	r31, 0xFF	; 255
    264e:	10 82       	st	Z, r1
    2650:	11 82       	std	Z+1, r1	; 0x01
    2652:	12 82       	std	Z+2, r1	; 0x02
    2654:	13 82       	std	Z+3, r1	; 0x03
int32_t Timebase_DownCounter_SS_Get_Value(uint8_t window){
  return Timebase->DownCounterSS[window].Value;
}

void Timebase_DownCounter_SS_Set_Value(uint8_t window, int32_t value){
  Timebase->DownCounterSS[window].Value = value;
    2656:	1d 92       	st	X+, r1
    2658:	1d 92       	st	X+, r1
    265a:	1d 92       	st	X+, r1
    265c:	1c 92       	st	X, r1
    265e:	13 97       	sbiw	r26, 0x03	; 3
void Timebase_DownCounter_SS_Set_Period_Flag(uint8_t window){
  Timebase->DownCounterSS[window].Status.PeriodFlag = FLAG_STATE_SET;
}

void Timebase_DownCounter_SS_Clear_Period_Flag(uint8_t window){
  Timebase->DownCounterSS[window].Status.PeriodFlag = FLAG_STATE_RESET;
    2660:	82 91       	ld	r24, -Z
uint8_t Timebase_DownCounter_SS_Get_Status(uint8_t window){
  return Timebase->DownCounterSS[window].Status.Value;
}

void Timebase_DownCounter_SS_Set_Status(uint8_t window, uint8_t value){
  Timebase->DownCounterSS[window].Status.Value = value;
    2662:	80 7e       	andi	r24, 0xE0	; 224
    2664:	88 60       	ori	r24, 0x08	; 8
    2666:	80 83       	st	Z, r24
    2668:	34 c0       	rjmp	.+104    	; 0x26d2 <Timebase_DownCounter_SS_Update+0x17a>
	Timebase_DownCounter_SS_Set_Value(window, temp_s);
    if(Timebase_DownCounter_SS_Get_Value(window) <= 0){
      Timebase_DownCounter_SS_Reset(window);
      Timebase_DownCounter_SS_Set_Status(window, COUNTER_STATE_EXPIRED);
    }
  } else if (Timebase_DownCounter_SS_Get_Status( window ) == COUNTER_STATE_STOPPED){
    266a:	82 30       	cpi	r24, 0x02	; 2
    266c:	91 f5       	brne	.+100    	; 0x26d2 <Timebase_DownCounter_SS_Update+0x17a>
  return Timebase->Time.SecondsShadow;
}


uint16_t Timebase_Timer_Get_SubSeconds(void){
  return Timebase->Time.SubSeconds;
    266e:	f6 01       	movw	r30, r12
    2670:	60 84       	ldd	r6, Z+8	; 0x08
    2672:	71 84       	ldd	r7, Z+9	; 0x09
}


int32_t Timebase_Timer_Get_Seconds(void){
  return Timebase->Time.Seconds;
    2674:	e2 84       	ldd	r14, Z+10	; 0x0a
    2676:	f3 84       	ldd	r15, Z+11	; 0x0b
    2678:	04 85       	ldd	r16, Z+12	; 0x0c
    267a:	15 85       	ldd	r17, Z+13	; 0x0d
void Timebase_DownCounter_SS_Set_Status(uint8_t window, uint8_t value){
  Timebase->DownCounterSS[window].Status.Value = value;
}

int32_t Timebase_DownCounter_SS_Get_Value(uint8_t window){
  return Timebase->DownCounterSS[window].Value;
    267c:	c9 5a       	subi	r28, 0xA9	; 169
    267e:	df 4f       	sbci	r29, 0xFF	; 255
    2680:	28 80       	ld	r2, Y
    2682:	39 80       	ldd	r3, Y+1	; 0x01
    2684:	4a 80       	ldd	r4, Y+2	; 0x02
    2686:	5b 80       	ldd	r5, Y+3	; 0x03
    }
  } else if (Timebase_DownCounter_SS_Get_Status( window ) == COUNTER_STATE_STOPPED){
    int32_t temp_ss  = Timebase_Timer_Get_SubSeconds();
	int32_t temp_s   = Timebase_Timer_Get_Seconds();
	int32_t curr_val = Timebase_DownCounter_SS_Get_Value(window);
	int32_t curr_s   = curr_val / Timebase->Config.UpdateRate;
    2688:	21 81       	ldd	r18, Z+1	; 0x01
    268a:	32 81       	ldd	r19, Z+2	; 0x02
	int32_t curr_ss  = curr_val % Timebase->Config.UpdateRate;
    268c:	a1 80       	ldd	r10, Z+1	; 0x01
    268e:	b2 80       	ldd	r11, Z+2	; 0x02
int32_t Timebase_DownCounter_SS_Get_EndValueSubSec(uint8_t window){
  return Timebase->DownCounterSS[window].EndValueSubSec;
}

void Timebase_DownCounter_SS_Set_EndValueSec(uint8_t window, int32_t value){
  Timebase->DownCounterSS[window].EndValueSec = value;
    2690:	28 97       	sbiw	r28, 0x08	; 8
    2692:	40 e0       	ldi	r20, 0x00	; 0
    2694:	50 e0       	ldi	r21, 0x00	; 0
    2696:	c2 01       	movw	r24, r4
    2698:	b1 01       	movw	r22, r2
    269a:	0e 94 30 19 	call	0x3260	; 0x3260 <__divmodsi4>
    269e:	e2 0e       	add	r14, r18
    26a0:	f3 1e       	adc	r15, r19
    26a2:	04 1f       	adc	r16, r20
    26a4:	15 1f       	adc	r17, r21
    26a6:	e9 92       	st	Y+, r14
    26a8:	f9 92       	st	Y+, r15
    26aa:	09 93       	st	Y+, r16
    26ac:	19 93       	st	Y+, r17
}

void Timebase_DownCounter_SS_Set_EndValueSubSec(uint8_t window, int32_t value){
  Timebase->DownCounterSS[window].EndValueSubSec = value;
    26ae:	cc 24       	eor	r12, r12
    26b0:	dd 24       	eor	r13, r13
    26b2:	c2 01       	movw	r24, r4
    26b4:	b1 01       	movw	r22, r2
    26b6:	a6 01       	movw	r20, r12
    26b8:	95 01       	movw	r18, r10
    26ba:	0e 94 30 19 	call	0x3260	; 0x3260 <__divmodsi4>
    26be:	88 24       	eor	r8, r8
    26c0:	99 24       	eor	r9, r9
    26c2:	66 0e       	add	r6, r22
    26c4:	77 1e       	adc	r7, r23
    26c6:	88 1e       	adc	r8, r24
    26c8:	99 1e       	adc	r9, r25
    26ca:	68 82       	st	Y, r6
    26cc:	79 82       	std	Y+1, r7	; 0x01
    26ce:	8a 82       	std	Y+2, r8	; 0x02
    26d0:	9b 82       	std	Y+3, r9	; 0x03
	int32_t curr_s   = curr_val / Timebase->Config.UpdateRate;
	int32_t curr_ss  = curr_val % Timebase->Config.UpdateRate;
	Timebase_DownCounter_SS_Set_EndValueSec(window, curr_s + temp_s );
	Timebase_DownCounter_SS_Set_EndValueSubSec(window, curr_ss + temp_ss);
  }
}
    26d2:	df 91       	pop	r29
    26d4:	cf 91       	pop	r28
    26d6:	1f 91       	pop	r17
    26d8:	0f 91       	pop	r16
    26da:	ff 90       	pop	r15
    26dc:	ef 90       	pop	r14
    26de:	df 90       	pop	r13
    26e0:	cf 90       	pop	r12
    26e2:	bf 90       	pop	r11
    26e4:	af 90       	pop	r10
    26e6:	9f 90       	pop	r9
    26e8:	8f 90       	pop	r8
    26ea:	7f 90       	pop	r7
    26ec:	6f 90       	pop	r6
    26ee:	5f 90       	pop	r5
    26f0:	4f 90       	pop	r4
    26f2:	3f 90       	pop	r3
    26f4:	2f 90       	pop	r2
    26f6:	08 95       	ret

000026f8 <Timebase_DownCounter_SS_Expired>:

uint8_t Timebase_DownCounter_SS_Expired(uint8_t window){
    26f8:	40 e0       	ldi	r20, 0x00	; 0
    26fa:	e0 91 43 01 	lds	r30, 0x0143
    26fe:	f0 91 44 01 	lds	r31, 0x0144
    2702:	90 e0       	ldi	r25, 0x00	; 0
    2704:	9c 01       	movw	r18, r24
    2706:	54 e0       	ldi	r21, 0x04	; 4
    2708:	22 0f       	add	r18, r18
    270a:	33 1f       	adc	r19, r19
    270c:	5a 95       	dec	r21
    270e:	e1 f7       	brne	.-8      	; 0x2708 <Timebase_DownCounter_SS_Expired+0x10>
    2710:	28 0f       	add	r18, r24
    2712:	39 1f       	adc	r19, r25
    2714:	e2 0f       	add	r30, r18
    2716:	f3 1f       	adc	r31, r19
    2718:	e2 5b       	subi	r30, 0xB2	; 178
    271a:	ff 4f       	sbci	r31, 0xFF	; 255
    271c:	80 81       	ld	r24, Z
    271e:	86 95       	lsr	r24
    2720:	8f 70       	andi	r24, 0x0F	; 15
    2722:	84 30       	cpi	r24, 0x04	; 4
    2724:	09 f4       	brne	.+2      	; 0x2728 <Timebase_DownCounter_SS_Expired+0x30>
    2726:	41 e0       	ldi	r20, 0x01	; 1
  if(Timebase_DownCounter_SS_Get_Status( window ) == COUNTER_STATE_EXPIRED){
    return TIMEBASE_TRUE;
  }else{
    return TIMEBASE_FALSE;
  }
}
    2728:	84 2f       	mov	r24, r20
    272a:	08 95       	ret

0000272c <Timebase_DownCounter_SS_Expired_Event>:

/***************************DownCounter SS Functions Start**************************/

#ifdef TIMEBASE_DOWNCOUNTER_SUBSECONDS
uint8_t Timebase_DownCounter_SS_Get_Status(uint8_t window){
  return Timebase->DownCounterSS[window].Status.Value;
    272c:	e0 91 43 01 	lds	r30, 0x0143
    2730:	f0 91 44 01 	lds	r31, 0x0144
    2734:	90 e0       	ldi	r25, 0x00	; 0
    return TIMEBASE_FALSE;
  }
}

uint8_t Timebase_DownCounter_SS_Expired_Event(uint8_t window){
  if(Timebase_DownCounter_SS_Get_Status( window ) == COUNTER_STATE_EXPIRED){
    2736:	9c 01       	movw	r18, r24
    2738:	64 e0       	ldi	r22, 0x04	; 4
    273a:	22 0f       	add	r18, r18
    273c:	33 1f       	adc	r19, r19
    273e:	6a 95       	dec	r22
    2740:	e1 f7       	brne	.-8      	; 0x273a <Timebase_DownCounter_SS_Expired_Event+0xe>
    2742:	28 0f       	add	r18, r24
    2744:	39 1f       	adc	r19, r25
    2746:	e2 0f       	add	r30, r18
    2748:	f3 1f       	adc	r31, r19
    274a:	df 01       	movw	r26, r30
    274c:	a2 5b       	subi	r26, 0xB2	; 178
    274e:	bf 4f       	sbci	r27, 0xFF	; 255
    2750:	8c 91       	ld	r24, X
    2752:	86 95       	lsr	r24
    2754:	8f 70       	andi	r24, 0x0F	; 15
    2756:	84 30       	cpi	r24, 0x04	; 4
    2758:	11 f0       	breq	.+4      	; 0x275e <Timebase_DownCounter_SS_Expired_Event+0x32>
    275a:	80 e0       	ldi	r24, 0x00	; 0
    275c:	08 95       	ret
void Timebase_DownCounter_SS_Set_EndValueSec(uint8_t window, int32_t value){
  Timebase->DownCounterSS[window].EndValueSec = value;
}

void Timebase_DownCounter_SS_Set_EndValueSubSec(uint8_t window, int32_t value){
  Timebase->DownCounterSS[window].EndValueSubSec = value;
    275e:	ed 5a       	subi	r30, 0xAD	; 173
    2760:	ff 4f       	sbci	r31, 0xFF	; 255
    2762:	10 82       	st	Z, r1
    2764:	11 82       	std	Z+1, r1	; 0x01
    2766:	12 82       	std	Z+2, r1	; 0x02
    2768:	13 82       	std	Z+3, r1	; 0x03
int32_t Timebase_DownCounter_SS_Get_EndValueSubSec(uint8_t window){
  return Timebase->DownCounterSS[window].EndValueSubSec;
}

void Timebase_DownCounter_SS_Set_EndValueSec(uint8_t window, int32_t value){
  Timebase->DownCounterSS[window].EndValueSec = value;
    276a:	12 92       	st	-Z, r1
    276c:	12 92       	st	-Z, r1
    276e:	12 92       	st	-Z, r1
    2770:	12 92       	st	-Z, r1
int32_t Timebase_DownCounter_SS_Get_Value(uint8_t window){
  return Timebase->DownCounterSS[window].Value;
}

void Timebase_DownCounter_SS_Set_Value(uint8_t window, int32_t value){
  Timebase->DownCounterSS[window].Value = value;
    2772:	38 96       	adiw	r30, 0x08	; 8
    2774:	10 82       	st	Z, r1
    2776:	11 82       	std	Z+1, r1	; 0x01
    2778:	12 82       	std	Z+2, r1	; 0x02
    277a:	13 82       	std	Z+3, r1	; 0x03
uint8_t Timebase_DownCounter_SS_Get_Status(uint8_t window){
  return Timebase->DownCounterSS[window].Status.Value;
}

void Timebase_DownCounter_SS_Set_Status(uint8_t window, uint8_t value){
  Timebase->DownCounterSS[window].Status.Value = value;
    277c:	8c 91       	ld	r24, X
void Timebase_DownCounter_SS_Set_Period_Flag(uint8_t window){
  Timebase->DownCounterSS[window].Status.PeriodFlag = FLAG_STATE_SET;
}

void Timebase_DownCounter_SS_Clear_Period_Flag(uint8_t window){
  Timebase->DownCounterSS[window].Status.PeriodFlag = FLAG_STATE_RESET;
    277e:	80 7e       	andi	r24, 0xE0	; 224
    2780:	8c 93       	st	X, r24
    2782:	81 e0       	ldi	r24, 0x01	; 1
    Timebase_DownCounter_SS_Clear_All_Flags( window );
    return TIMEBASE_TRUE;
  }else{
    return TIMEBASE_FALSE;
  }
}
    2784:	08 95       	ret

00002786 <Timebase_DownCounter_SS_Set_Period_Value_Securely>:


void Timebase_DownCounter_SS_Set_Period_Value_Securely(uint8_t window, int32_t value){
    2786:	cf 93       	push	r28
    2788:	df 93       	push	r29
  }
  
}

uint8_t Timebase_DownCounter_SS_Get_Period_Flag(uint8_t window){
  return Timebase->DownCounterSS[window].Status.PeriodFlag;
    278a:	c0 91 43 01 	lds	r28, 0x0143
    278e:	d0 91 44 01 	lds	r29, 0x0144
    2792:	28 2f       	mov	r18, r24
    2794:	30 e0       	ldi	r19, 0x00	; 0
  }
}


void Timebase_DownCounter_SS_Set_Period_Value_Securely(uint8_t window, int32_t value){
  if(Timebase_DownCounter_SS_Get_Period_Flag( window ) == FLAG_STATE_RESET){
    2796:	f9 01       	movw	r30, r18
    2798:	a4 e0       	ldi	r26, 0x04	; 4
    279a:	ee 0f       	add	r30, r30
    279c:	ff 1f       	adc	r31, r31
    279e:	aa 95       	dec	r26
    27a0:	e1 f7       	brne	.-8      	; 0x279a <Timebase_DownCounter_SS_Set_Period_Value_Securely+0x14>
    27a2:	e2 0f       	add	r30, r18
    27a4:	f3 1f       	adc	r31, r19
    27a6:	ec 0f       	add	r30, r28
    27a8:	fd 1f       	adc	r31, r29
    27aa:	e2 5b       	subi	r30, 0xB2	; 178
    27ac:	ff 4f       	sbci	r31, 0xFF	; 255
    27ae:	80 81       	ld	r24, Z
    27b0:	ee 54       	subi	r30, 0x4E	; 78
    27b2:	f0 40       	sbci	r31, 0x00	; 0
    27b4:	80 fd       	sbrc	r24, 0
    27b6:	24 c0       	rjmp	.+72     	; 0x2800 <Timebase_DownCounter_SS_Set_Period_Value_Securely+0x7a>
    Timebase_DownCounter_SS_Set_PeriodValue(window, Timebase_DownCounter_SS_Get_Value(window) - value);
    27b8:	e9 5a       	subi	r30, 0xA9	; 169
    27ba:	ff 4f       	sbci	r31, 0xFF	; 255
    27bc:	81 91       	ld	r24, Z+
    27be:	91 91       	ld	r25, Z+
    27c0:	a1 91       	ld	r26, Z+
    27c2:	b1 91       	ld	r27, Z+
    27c4:	84 1b       	sub	r24, r20
    27c6:	95 0b       	sbc	r25, r21
    27c8:	a6 0b       	sbc	r26, r22
    27ca:	b7 0b       	sbc	r27, r23
int32_t Timebase_DownCounter_SS_Get_PeriodValue(uint8_t window){
  return Timebase->DownCounterSS[window].PeriodValue;
}

void Timebase_DownCounter_SS_Set_PeriodValue(uint8_t window, int32_t value){
  if(value < 0){
    27cc:	b7 ff       	sbrs	r27, 7
    27ce:	05 c0       	rjmp	.+10     	; 0x27da <Timebase_DownCounter_SS_Set_Period_Value_Securely+0x54>
    Timebase->DownCounterSS[window].PeriodValue = 0;
    27d0:	10 82       	st	Z, r1
    27d2:	11 82       	std	Z+1, r1	; 0x01
    27d4:	12 82       	std	Z+2, r1	; 0x02
    27d6:	13 82       	std	Z+3, r1	; 0x03
    27d8:	04 c0       	rjmp	.+8      	; 0x27e2 <Timebase_DownCounter_SS_Set_Period_Value_Securely+0x5c>
  }else{
    Timebase->DownCounterSS[window].PeriodValue = value;
    27da:	80 83       	st	Z, r24
    27dc:	91 83       	std	Z+1, r25	; 0x01
    27de:	a2 83       	std	Z+2, r26	; 0x02
    27e0:	b3 83       	std	Z+3, r27	; 0x03
uint8_t Timebase_DownCounter_SS_Get_Period_Flag(uint8_t window){
  return Timebase->DownCounterSS[window].Status.PeriodFlag;
}

void Timebase_DownCounter_SS_Set_Period_Flag(uint8_t window){
  Timebase->DownCounterSS[window].Status.PeriodFlag = FLAG_STATE_SET;
    27e2:	f9 01       	movw	r30, r18
    27e4:	74 e0       	ldi	r23, 0x04	; 4
    27e6:	ee 0f       	add	r30, r30
    27e8:	ff 1f       	adc	r31, r31
    27ea:	7a 95       	dec	r23
    27ec:	e1 f7       	brne	.-8      	; 0x27e6 <Timebase_DownCounter_SS_Set_Period_Value_Securely+0x60>
    27ee:	e2 0f       	add	r30, r18
    27f0:	f3 1f       	adc	r31, r19
    27f2:	ec 0f       	add	r30, r28
    27f4:	fd 1f       	adc	r31, r29
    27f6:	e2 5b       	subi	r30, 0xB2	; 178
    27f8:	ff 4f       	sbci	r31, 0xFF	; 255
    27fa:	80 81       	ld	r24, Z
    27fc:	81 60       	ori	r24, 0x01	; 1
    27fe:	80 83       	st	Z, r24
void Timebase_DownCounter_SS_Set_Period_Value_Securely(uint8_t window, int32_t value){
  if(Timebase_DownCounter_SS_Get_Period_Flag( window ) == FLAG_STATE_RESET){
    Timebase_DownCounter_SS_Set_PeriodValue(window, Timebase_DownCounter_SS_Get_Value(window) - value);
    Timebase_DownCounter_SS_Set_Period_Flag(window);
  }
}
    2800:	df 91       	pop	r29
    2802:	cf 91       	pop	r28
    2804:	08 95       	ret

00002806 <Timebase_DownCounter_SS_Get_Remaining_Period_Value>:
void Timebase_DownCounter_SS_Set_Status(uint8_t window, uint8_t value){
  Timebase->DownCounterSS[window].Status.Value = value;
}

int32_t Timebase_DownCounter_SS_Get_Value(uint8_t window){
  return Timebase->DownCounterSS[window].Value;
    2806:	e0 91 43 01 	lds	r30, 0x0143
    280a:	f0 91 44 01 	lds	r31, 0x0144
    280e:	90 e0       	ldi	r25, 0x00	; 0
    Timebase_DownCounter_SS_Set_Period_Flag(window);
  }
}

int32_t Timebase_DownCounter_SS_Get_Remaining_Period_Value(uint8_t window){
  int32_t temp = Timebase_DownCounter_SS_Get_Value(window) - Timebase_DownCounter_SS_Get_PeriodValue(window) ;
    2810:	9c 01       	movw	r18, r24
    2812:	b4 e0       	ldi	r27, 0x04	; 4
    2814:	22 0f       	add	r18, r18
    2816:	33 1f       	adc	r19, r19
    2818:	ba 95       	dec	r27
    281a:	e1 f7       	brne	.-8      	; 0x2814 <Timebase_DownCounter_SS_Get_Remaining_Period_Value+0xe>
    281c:	28 0f       	add	r18, r24
    281e:	39 1f       	adc	r19, r25
    2820:	e2 0f       	add	r30, r18
    2822:	f3 1f       	adc	r31, r19
    2824:	df 01       	movw	r26, r30
    2826:	a5 5a       	subi	r26, 0xA5	; 165
    2828:	bf 4f       	sbci	r27, 0xFF	; 255
    282a:	e9 5a       	subi	r30, 0xA9	; 169
    282c:	ff 4f       	sbci	r31, 0xFF	; 255
    282e:	20 81       	ld	r18, Z
    2830:	31 81       	ldd	r19, Z+1	; 0x01
    2832:	42 81       	ldd	r20, Z+2	; 0x02
    2834:	53 81       	ldd	r21, Z+3	; 0x03
    2836:	8d 91       	ld	r24, X+
    2838:	9d 91       	ld	r25, X+
    283a:	0d 90       	ld	r0, X+
    283c:	bc 91       	ld	r27, X
    283e:	a0 2d       	mov	r26, r0
    2840:	28 1b       	sub	r18, r24
    2842:	39 0b       	sbc	r19, r25
    2844:	4a 0b       	sbc	r20, r26
    2846:	5b 0b       	sbc	r21, r27
    2848:	57 ff       	sbrs	r21, 7
    284a:	04 c0       	rjmp	.+8      	; 0x2854 <Timebase_DownCounter_SS_Get_Remaining_Period_Value+0x4e>
    284c:	20 e0       	ldi	r18, 0x00	; 0
    284e:	30 e0       	ldi	r19, 0x00	; 0
    2850:	40 e0       	ldi	r20, 0x00	; 0
    2852:	50 e0       	ldi	r21, 0x00	; 0
  if(temp < 0){
    temp = 0;
  }
  return temp;
}
    2854:	b9 01       	movw	r22, r18
    2856:	ca 01       	movw	r24, r20
    2858:	08 95       	ret

0000285a <Timebase_DownCounter_SS_Period_Value_Expired>:

uint8_t Timebase_DownCounter_SS_Period_Value_Expired(uint8_t window){
    285a:	cf 93       	push	r28
    285c:	df 93       	push	r29
void Timebase_DownCounter_SS_Set_Status(uint8_t window, uint8_t value){
  Timebase->DownCounterSS[window].Status.Value = value;
}

int32_t Timebase_DownCounter_SS_Get_Value(uint8_t window){
  return Timebase->DownCounterSS[window].Value;
    285e:	c0 91 43 01 	lds	r28, 0x0143
    2862:	d0 91 44 01 	lds	r29, 0x0144
    2866:	68 2f       	mov	r22, r24
    2868:	70 e0       	ldi	r23, 0x00	; 0
    Timebase_DownCounter_SS_Set_Period_Flag(window);
  }
}

int32_t Timebase_DownCounter_SS_Get_Remaining_Period_Value(uint8_t window){
  int32_t temp = Timebase_DownCounter_SS_Get_Value(window) - Timebase_DownCounter_SS_Get_PeriodValue(window) ;
    286a:	fb 01       	movw	r30, r22
    286c:	44 e0       	ldi	r20, 0x04	; 4
    286e:	ee 0f       	add	r30, r30
    2870:	ff 1f       	adc	r31, r31
    2872:	4a 95       	dec	r20
    2874:	e1 f7       	brne	.-8      	; 0x286e <Timebase_DownCounter_SS_Period_Value_Expired+0x14>
    2876:	e6 0f       	add	r30, r22
    2878:	f7 1f       	adc	r31, r23
    287a:	ec 0f       	add	r30, r28
    287c:	fd 1f       	adc	r31, r29
    287e:	df 01       	movw	r26, r30
    2880:	a5 5a       	subi	r26, 0xA5	; 165
    2882:	bf 4f       	sbci	r27, 0xFF	; 255
    2884:	e9 5a       	subi	r30, 0xA9	; 169
    2886:	ff 4f       	sbci	r31, 0xFF	; 255
    2888:	20 81       	ld	r18, Z
    288a:	31 81       	ldd	r19, Z+1	; 0x01
    288c:	42 81       	ldd	r20, Z+2	; 0x02
    288e:	53 81       	ldd	r21, Z+3	; 0x03
    2890:	8d 91       	ld	r24, X+
    2892:	9d 91       	ld	r25, X+
    2894:	0d 90       	ld	r0, X+
    2896:	bc 91       	ld	r27, X
    2898:	a0 2d       	mov	r26, r0
    289a:	28 1b       	sub	r18, r24
    289c:	39 0b       	sbc	r19, r25
    289e:	4a 0b       	sbc	r20, r26
    28a0:	5b 0b       	sbc	r21, r27
  if(temp < 0){
    28a2:	57 fd       	sbrc	r21, 7
    28a4:	07 c0       	rjmp	.+14     	; 0x28b4 <Timebase_DownCounter_SS_Period_Value_Expired+0x5a>
  }
  return temp;
}

uint8_t Timebase_DownCounter_SS_Period_Value_Expired(uint8_t window){
  if( (Timebase_DownCounter_SS_Get_Remaining_Period_Value( window ) == 0) && (Timebase_DownCounter_SS_Get_Period_Flag( window ) == FLAG_STATE_SET) ){
    28a6:	21 15       	cp	r18, r1
    28a8:	31 05       	cpc	r19, r1
    28aa:	41 05       	cpc	r20, r1
    28ac:	51 05       	cpc	r21, r1
    28ae:	11 f0       	breq	.+4      	; 0x28b4 <Timebase_DownCounter_SS_Period_Value_Expired+0x5a>
    28b0:	20 e0       	ldi	r18, 0x00	; 0
    28b2:	12 c0       	rjmp	.+36     	; 0x28d8 <Timebase_DownCounter_SS_Period_Value_Expired+0x7e>
    28b4:	20 e0       	ldi	r18, 0x00	; 0
    28b6:	cb 01       	movw	r24, r22
    28b8:	34 e0       	ldi	r19, 0x04	; 4
    28ba:	88 0f       	add	r24, r24
    28bc:	99 1f       	adc	r25, r25
    28be:	3a 95       	dec	r19
    28c0:	e1 f7       	brne	.-8      	; 0x28ba <Timebase_DownCounter_SS_Period_Value_Expired+0x60>
    28c2:	86 0f       	add	r24, r22
    28c4:	97 1f       	adc	r25, r23
    28c6:	c8 0f       	add	r28, r24
    28c8:	d9 1f       	adc	r29, r25
    28ca:	c2 5b       	subi	r28, 0xB2	; 178
    28cc:	df 4f       	sbci	r29, 0xFF	; 255
    28ce:	88 81       	ld	r24, Y
    28d0:	80 ff       	sbrs	r24, 0
    28d2:	21 e0       	ldi	r18, 0x01	; 1
    28d4:	81 e0       	ldi	r24, 0x01	; 1
    28d6:	28 27       	eor	r18, r24
    return TIMEBASE_TRUE;
  }else{
    return TIMEBASE_FALSE;
  }
}
    28d8:	82 2f       	mov	r24, r18
    28da:	df 91       	pop	r29
    28dc:	cf 91       	pop	r28
    28de:	08 95       	ret

000028e0 <Timebase_DownCounter_SS_Period_Value_Expired_Event>:

uint8_t Timebase_DownCounter_SS_Period_Value_Expired_Event(uint8_t window){
    28e0:	1f 93       	push	r17
    28e2:	18 2f       	mov	r17, r24
  if(Timebase_DownCounter_SS_Period_Value_Expired( window ) == TIMEBASE_TRUE){
    28e4:	0e 94 2d 14 	call	0x285a	; 0x285a <Timebase_DownCounter_SS_Period_Value_Expired>
    28e8:	81 30       	cpi	r24, 0x01	; 1
    28ea:	11 f0       	breq	.+4      	; 0x28f0 <Timebase_DownCounter_SS_Period_Value_Expired_Event+0x10>
    28ec:	80 e0       	ldi	r24, 0x00	; 0
    28ee:	16 c0       	rjmp	.+44     	; 0x291c <Timebase_DownCounter_SS_Period_Value_Expired_Event+0x3c>
void Timebase_DownCounter_SS_Set_Period_Flag(uint8_t window){
  Timebase->DownCounterSS[window].Status.PeriodFlag = FLAG_STATE_SET;
}

void Timebase_DownCounter_SS_Clear_Period_Flag(uint8_t window){
  Timebase->DownCounterSS[window].Status.PeriodFlag = FLAG_STATE_RESET;
    28f0:	e0 91 43 01 	lds	r30, 0x0143
    28f4:	f0 91 44 01 	lds	r31, 0x0144
    28f8:	21 2f       	mov	r18, r17
    28fa:	30 e0       	ldi	r19, 0x00	; 0
    28fc:	c9 01       	movw	r24, r18
    28fe:	54 e0       	ldi	r21, 0x04	; 4
    2900:	88 0f       	add	r24, r24
    2902:	99 1f       	adc	r25, r25
    2904:	5a 95       	dec	r21
    2906:	e1 f7       	brne	.-8      	; 0x2900 <Timebase_DownCounter_SS_Period_Value_Expired_Event+0x20>
    2908:	82 0f       	add	r24, r18
    290a:	93 1f       	adc	r25, r19
    290c:	e8 0f       	add	r30, r24
    290e:	f9 1f       	adc	r31, r25
    2910:	e2 5b       	subi	r30, 0xB2	; 178
    2912:	ff 4f       	sbci	r31, 0xFF	; 255
    2914:	80 81       	ld	r24, Z
    2916:	8e 7f       	andi	r24, 0xFE	; 254
    2918:	80 83       	st	Z, r24
    291a:	81 e0       	ldi	r24, 0x01	; 1
    Timebase_DownCounter_SS_Clear_Period_Flag( window );
    return TIMEBASE_TRUE;
  }else{
    return TIMEBASE_FALSE;
  }
}
    291c:	1f 91       	pop	r17
    291e:	08 95       	ret

00002920 <Timebase_DownCounter_SS_Update_All>:


void Timebase_DownCounter_SS_Update_All(void){
  for(uint8_t i=0; i<TIMEBASE_DOWNCOUNTER_SUBSECONDS; i++){
    Timebase_DownCounter_SS_Update(i);
    2920:	80 e0       	ldi	r24, 0x00	; 0
    2922:	0e 94 ac 12 	call	0x2558	; 0x2558 <Timebase_DownCounter_SS_Update>
  }
}
    2926:	08 95       	ret

00002928 <Timebase_DownCounter_SS_Reset_All>:
void Timebase_DownCounter_SS_Set_EndValueSec(uint8_t window, int32_t value){
  Timebase->DownCounterSS[window].EndValueSec = value;
}

void Timebase_DownCounter_SS_Set_EndValueSubSec(uint8_t window, int32_t value){
  Timebase->DownCounterSS[window].EndValueSubSec = value;
    2928:	e0 91 43 01 	lds	r30, 0x0143
    292c:	f0 91 44 01 	lds	r31, 0x0144
    2930:	ed 5a       	subi	r30, 0xAD	; 173
    2932:	ff 4f       	sbci	r31, 0xFF	; 255
    2934:	10 82       	st	Z, r1
    2936:	11 82       	std	Z+1, r1	; 0x01
    2938:	12 82       	std	Z+2, r1	; 0x02
    293a:	13 82       	std	Z+3, r1	; 0x03
int32_t Timebase_DownCounter_SS_Get_EndValueSubSec(uint8_t window){
  return Timebase->DownCounterSS[window].EndValueSubSec;
}

void Timebase_DownCounter_SS_Set_EndValueSec(uint8_t window, int32_t value){
  Timebase->DownCounterSS[window].EndValueSec = value;
    293c:	12 92       	st	-Z, r1
    293e:	12 92       	st	-Z, r1
    2940:	12 92       	st	-Z, r1
    2942:	12 92       	st	-Z, r1
int32_t Timebase_DownCounter_SS_Get_Value(uint8_t window){
  return Timebase->DownCounterSS[window].Value;
}

void Timebase_DownCounter_SS_Set_Value(uint8_t window, int32_t value){
  Timebase->DownCounterSS[window].Value = value;
    2944:	38 96       	adiw	r30, 0x08	; 8
    2946:	10 82       	st	Z, r1
    2948:	11 82       	std	Z+1, r1	; 0x01
    294a:	12 82       	std	Z+2, r1	; 0x02
    294c:	13 82       	std	Z+3, r1	; 0x03
uint8_t Timebase_DownCounter_SS_Get_Status(uint8_t window){
  return Timebase->DownCounterSS[window].Status.Value;
}

void Timebase_DownCounter_SS_Set_Status(uint8_t window, uint8_t value){
  Timebase->DownCounterSS[window].Status.Value = value;
    294e:	39 97       	sbiw	r30, 0x09	; 9
    2950:	80 81       	ld	r24, Z
void Timebase_DownCounter_SS_Set_Period_Flag(uint8_t window){
  Timebase->DownCounterSS[window].Status.PeriodFlag = FLAG_STATE_SET;
}

void Timebase_DownCounter_SS_Clear_Period_Flag(uint8_t window){
  Timebase->DownCounterSS[window].Status.PeriodFlag = FLAG_STATE_RESET;
    2952:	80 7e       	andi	r24, 0xE0	; 224
    2954:	80 83       	st	Z, r24

void Timebase_DownCounter_SS_Reset_All(void){
  for(uint8_t i=0; i<TIMEBASE_DOWNCOUNTER_SUBSECONDS; i++){
    Timebase_DownCounter_SS_Reset(i);
  }
}
    2956:	08 95       	ret

00002958 <Timebase_DownCounter_Get_Status>:


/*****************************DownCounter Functions Start****************************/

#ifdef TIMEBASE_DOWNCOUNTER
uint8_t Timebase_DownCounter_Get_Status(uint8_t window){
    2958:	e0 91 43 01 	lds	r30, 0x0143
    295c:	f0 91 44 01 	lds	r31, 0x0144
    2960:	90 e0       	ldi	r25, 0x00	; 0
    2962:	2d e0       	ldi	r18, 0x0D	; 13
    2964:	30 e0       	ldi	r19, 0x00	; 0
    2966:	ac 01       	movw	r20, r24
    2968:	42 9f       	mul	r20, r18
    296a:	c0 01       	movw	r24, r0
    296c:	43 9f       	mul	r20, r19
    296e:	90 0d       	add	r25, r0
    2970:	52 9f       	mul	r21, r18
    2972:	90 0d       	add	r25, r0
    2974:	11 24       	eor	r1, r1
    2976:	e8 0f       	add	r30, r24
    2978:	f9 1f       	adc	r31, r25
    297a:	e1 5a       	subi	r30, 0xA1	; 161
    297c:	ff 4f       	sbci	r31, 0xFF	; 255
    297e:	80 81       	ld	r24, Z
    2980:	86 95       	lsr	r24
  return Timebase->DownCounter[window].Status.Value;
}
    2982:	8f 70       	andi	r24, 0x0F	; 15
    2984:	08 95       	ret

00002986 <Timebase_DownCounter_Set_Status>:

void Timebase_DownCounter_Set_Status(uint8_t window, uint8_t value){
  Timebase->DownCounter[window].Status.Value = value;
    2986:	e0 91 43 01 	lds	r30, 0x0143
    298a:	f0 91 44 01 	lds	r31, 0x0144
    298e:	90 e0       	ldi	r25, 0x00	; 0
    2990:	2d e0       	ldi	r18, 0x0D	; 13
    2992:	30 e0       	ldi	r19, 0x00	; 0
    2994:	ac 01       	movw	r20, r24
    2996:	42 9f       	mul	r20, r18
    2998:	c0 01       	movw	r24, r0
    299a:	43 9f       	mul	r20, r19
    299c:	90 0d       	add	r25, r0
    299e:	52 9f       	mul	r21, r18
    29a0:	90 0d       	add	r25, r0
    29a2:	11 24       	eor	r1, r1
    29a4:	e8 0f       	add	r30, r24
    29a6:	f9 1f       	adc	r31, r25
    29a8:	e1 5a       	subi	r30, 0xA1	; 161
    29aa:	ff 4f       	sbci	r31, 0xFF	; 255
    29ac:	6f 70       	andi	r22, 0x0F	; 15
    29ae:	66 0f       	add	r22, r22
    29b0:	80 81       	ld	r24, Z
    29b2:	81 7e       	andi	r24, 0xE1	; 225
    29b4:	86 2b       	or	r24, r22
    29b6:	80 83       	st	Z, r24
}
    29b8:	08 95       	ret

000029ba <Timebase_DownCounter_Get_Value>:

int32_t Timebase_DownCounter_Get_Value(uint8_t window){
    29ba:	e0 91 43 01 	lds	r30, 0x0143
    29be:	f0 91 44 01 	lds	r31, 0x0144
    29c2:	90 e0       	ldi	r25, 0x00	; 0
    29c4:	2d e0       	ldi	r18, 0x0D	; 13
    29c6:	30 e0       	ldi	r19, 0x00	; 0
    29c8:	ac 01       	movw	r20, r24
    29ca:	42 9f       	mul	r20, r18
    29cc:	c0 01       	movw	r24, r0
    29ce:	43 9f       	mul	r20, r19
    29d0:	90 0d       	add	r25, r0
    29d2:	52 9f       	mul	r21, r18
    29d4:	90 0d       	add	r25, r0
    29d6:	11 24       	eor	r1, r1
    29d8:	e8 0f       	add	r30, r24
    29da:	f9 1f       	adc	r31, r25
    29dc:	ec 59       	subi	r30, 0x9C	; 156
    29de:	ff 4f       	sbci	r31, 0xFF	; 255
    29e0:	60 81       	ld	r22, Z
    29e2:	71 81       	ldd	r23, Z+1	; 0x01
  return Timebase->DownCounter[window].Value;
}
    29e4:	82 81       	ldd	r24, Z+2	; 0x02
    29e6:	93 81       	ldd	r25, Z+3	; 0x03
    29e8:	08 95       	ret

000029ea <Timebase_DownCounter_Set_Value>:

void Timebase_DownCounter_Set_Value(uint8_t window, int32_t value){
  Timebase->DownCounter[window].Value = value;
    29ea:	e0 91 43 01 	lds	r30, 0x0143
    29ee:	f0 91 44 01 	lds	r31, 0x0144
    29f2:	90 e0       	ldi	r25, 0x00	; 0
    29f4:	2d e0       	ldi	r18, 0x0D	; 13
    29f6:	30 e0       	ldi	r19, 0x00	; 0
    29f8:	dc 01       	movw	r26, r24
    29fa:	a2 9f       	mul	r26, r18
    29fc:	c0 01       	movw	r24, r0
    29fe:	a3 9f       	mul	r26, r19
    2a00:	90 0d       	add	r25, r0
    2a02:	b2 9f       	mul	r27, r18
    2a04:	90 0d       	add	r25, r0
    2a06:	11 24       	eor	r1, r1
    2a08:	e8 0f       	add	r30, r24
    2a0a:	f9 1f       	adc	r31, r25
    2a0c:	ec 59       	subi	r30, 0x9C	; 156
    2a0e:	ff 4f       	sbci	r31, 0xFF	; 255
    2a10:	40 83       	st	Z, r20
    2a12:	51 83       	std	Z+1, r21	; 0x01
    2a14:	62 83       	std	Z+2, r22	; 0x02
    2a16:	73 83       	std	Z+3, r23	; 0x03
}
    2a18:	08 95       	ret

00002a1a <Timebase_DownCounter_Get_EndValue>:

int32_t Timebase_DownCounter_Get_EndValue(uint8_t window){
    2a1a:	e0 91 43 01 	lds	r30, 0x0143
    2a1e:	f0 91 44 01 	lds	r31, 0x0144
    2a22:	90 e0       	ldi	r25, 0x00	; 0
    2a24:	2d e0       	ldi	r18, 0x0D	; 13
    2a26:	30 e0       	ldi	r19, 0x00	; 0
    2a28:	ac 01       	movw	r20, r24
    2a2a:	42 9f       	mul	r20, r18
    2a2c:	c0 01       	movw	r24, r0
    2a2e:	43 9f       	mul	r20, r19
    2a30:	90 0d       	add	r25, r0
    2a32:	52 9f       	mul	r21, r18
    2a34:	90 0d       	add	r25, r0
    2a36:	11 24       	eor	r1, r1
    2a38:	e8 0f       	add	r30, r24
    2a3a:	f9 1f       	adc	r31, r25
    2a3c:	e0 5a       	subi	r30, 0xA0	; 160
    2a3e:	ff 4f       	sbci	r31, 0xFF	; 255
    2a40:	60 81       	ld	r22, Z
    2a42:	71 81       	ldd	r23, Z+1	; 0x01
  return Timebase->DownCounter[window].EndValue;
}
    2a44:	82 81       	ldd	r24, Z+2	; 0x02
    2a46:	93 81       	ldd	r25, Z+3	; 0x03
    2a48:	08 95       	ret

00002a4a <Timebase_DownCounter_Set_EndValue>:

void Timebase_DownCounter_Set_EndValue(uint8_t window, int32_t value){
  Timebase->DownCounter[window].EndValue = value;
    2a4a:	e0 91 43 01 	lds	r30, 0x0143
    2a4e:	f0 91 44 01 	lds	r31, 0x0144
    2a52:	90 e0       	ldi	r25, 0x00	; 0
    2a54:	2d e0       	ldi	r18, 0x0D	; 13
    2a56:	30 e0       	ldi	r19, 0x00	; 0
    2a58:	dc 01       	movw	r26, r24
    2a5a:	a2 9f       	mul	r26, r18
    2a5c:	c0 01       	movw	r24, r0
    2a5e:	a3 9f       	mul	r26, r19
    2a60:	90 0d       	add	r25, r0
    2a62:	b2 9f       	mul	r27, r18
    2a64:	90 0d       	add	r25, r0
    2a66:	11 24       	eor	r1, r1
    2a68:	e8 0f       	add	r30, r24
    2a6a:	f9 1f       	adc	r31, r25
    2a6c:	e0 5a       	subi	r30, 0xA0	; 160
    2a6e:	ff 4f       	sbci	r31, 0xFF	; 255
    2a70:	40 83       	st	Z, r20
    2a72:	51 83       	std	Z+1, r21	; 0x01
    2a74:	62 83       	std	Z+2, r22	; 0x02
    2a76:	73 83       	std	Z+3, r23	; 0x03
}
    2a78:	08 95       	ret

00002a7a <Timebase_DownCounter_Get_PeriodValue>:


int32_t Timebase_DownCounter_Get_PeriodValue(uint8_t window){
    2a7a:	e0 91 43 01 	lds	r30, 0x0143
    2a7e:	f0 91 44 01 	lds	r31, 0x0144
    2a82:	90 e0       	ldi	r25, 0x00	; 0
    2a84:	2d e0       	ldi	r18, 0x0D	; 13
    2a86:	30 e0       	ldi	r19, 0x00	; 0
    2a88:	ac 01       	movw	r20, r24
    2a8a:	42 9f       	mul	r20, r18
    2a8c:	c0 01       	movw	r24, r0
    2a8e:	43 9f       	mul	r20, r19
    2a90:	90 0d       	add	r25, r0
    2a92:	52 9f       	mul	r21, r18
    2a94:	90 0d       	add	r25, r0
    2a96:	11 24       	eor	r1, r1
    2a98:	e8 0f       	add	r30, r24
    2a9a:	f9 1f       	adc	r31, r25
    2a9c:	e8 59       	subi	r30, 0x98	; 152
    2a9e:	ff 4f       	sbci	r31, 0xFF	; 255
    2aa0:	60 81       	ld	r22, Z
    2aa2:	71 81       	ldd	r23, Z+1	; 0x01
  return Timebase->DownCounter[window].PeriodValue;
}
    2aa4:	82 81       	ldd	r24, Z+2	; 0x02
    2aa6:	93 81       	ldd	r25, Z+3	; 0x03
    2aa8:	08 95       	ret

00002aaa <Timebase_DownCounter_Set_PeriodValue>:

void Timebase_DownCounter_Set_PeriodValue(uint8_t window, int32_t value){
    2aaa:	e0 91 43 01 	lds	r30, 0x0143
    2aae:	f0 91 44 01 	lds	r31, 0x0144
    2ab2:	28 2f       	mov	r18, r24
    2ab4:	30 e0       	ldi	r19, 0x00	; 0
  if(value < 0){
    2ab6:	77 ff       	sbrs	r23, 7
    2ab8:	13 c0       	rjmp	.+38     	; 0x2ae0 <Timebase_DownCounter_Set_PeriodValue+0x36>
    Timebase->DownCounter[window].PeriodValue = 0;
    2aba:	8d e0       	ldi	r24, 0x0D	; 13
    2abc:	90 e0       	ldi	r25, 0x00	; 0
    2abe:	ac 01       	movw	r20, r24
    2ac0:	24 9f       	mul	r18, r20
    2ac2:	c0 01       	movw	r24, r0
    2ac4:	25 9f       	mul	r18, r21
    2ac6:	90 0d       	add	r25, r0
    2ac8:	34 9f       	mul	r19, r20
    2aca:	90 0d       	add	r25, r0
    2acc:	11 24       	eor	r1, r1
    2ace:	e8 0f       	add	r30, r24
    2ad0:	f9 1f       	adc	r31, r25
    2ad2:	e8 59       	subi	r30, 0x98	; 152
    2ad4:	ff 4f       	sbci	r31, 0xFF	; 255
    2ad6:	10 82       	st	Z, r1
    2ad8:	11 82       	std	Z+1, r1	; 0x01
    2ada:	12 82       	std	Z+2, r1	; 0x02
    2adc:	13 82       	std	Z+3, r1	; 0x03
    2ade:	08 95       	ret
  }else{
    Timebase->DownCounter[window].PeriodValue = value;
    2ae0:	8d e0       	ldi	r24, 0x0D	; 13
    2ae2:	90 e0       	ldi	r25, 0x00	; 0
    2ae4:	dc 01       	movw	r26, r24
    2ae6:	2a 9f       	mul	r18, r26
    2ae8:	c0 01       	movw	r24, r0
    2aea:	2b 9f       	mul	r18, r27
    2aec:	90 0d       	add	r25, r0
    2aee:	3a 9f       	mul	r19, r26
    2af0:	90 0d       	add	r25, r0
    2af2:	11 24       	eor	r1, r1
    2af4:	e8 0f       	add	r30, r24
    2af6:	f9 1f       	adc	r31, r25
    2af8:	e8 59       	subi	r30, 0x98	; 152
    2afa:	ff 4f       	sbci	r31, 0xFF	; 255
    2afc:	40 83       	st	Z, r20
    2afe:	51 83       	std	Z+1, r21	; 0x01
    2b00:	62 83       	std	Z+2, r22	; 0x02
    2b02:	73 83       	std	Z+3, r23	; 0x03
    2b04:	08 95       	ret

00002b06 <Timebase_DownCounter_Get_Period_Flag>:
  }
  
}

uint8_t Timebase_DownCounter_Get_Period_Flag(uint8_t window){
    2b06:	e0 91 43 01 	lds	r30, 0x0143
    2b0a:	f0 91 44 01 	lds	r31, 0x0144
    2b0e:	90 e0       	ldi	r25, 0x00	; 0
    2b10:	2d e0       	ldi	r18, 0x0D	; 13
    2b12:	30 e0       	ldi	r19, 0x00	; 0
    2b14:	ac 01       	movw	r20, r24
    2b16:	42 9f       	mul	r20, r18
    2b18:	c0 01       	movw	r24, r0
    2b1a:	43 9f       	mul	r20, r19
    2b1c:	90 0d       	add	r25, r0
    2b1e:	52 9f       	mul	r21, r18
    2b20:	90 0d       	add	r25, r0
    2b22:	11 24       	eor	r1, r1
    2b24:	e8 0f       	add	r30, r24
    2b26:	f9 1f       	adc	r31, r25
    2b28:	e1 5a       	subi	r30, 0xA1	; 161
    2b2a:	ff 4f       	sbci	r31, 0xFF	; 255
    2b2c:	80 81       	ld	r24, Z
  return Timebase->DownCounter[window].Status.PeriodFlag;
}
    2b2e:	81 70       	andi	r24, 0x01	; 1
    2b30:	08 95       	ret

00002b32 <Timebase_DownCounter_Set_Period_Flag>:

void Timebase_DownCounter_Set_Period_Flag(uint8_t window){
  Timebase->DownCounter[window].Status.PeriodFlag = FLAG_STATE_SET;
    2b32:	e0 91 43 01 	lds	r30, 0x0143
    2b36:	f0 91 44 01 	lds	r31, 0x0144
    2b3a:	90 e0       	ldi	r25, 0x00	; 0
    2b3c:	2d e0       	ldi	r18, 0x0D	; 13
    2b3e:	30 e0       	ldi	r19, 0x00	; 0
    2b40:	ac 01       	movw	r20, r24
    2b42:	42 9f       	mul	r20, r18
    2b44:	c0 01       	movw	r24, r0
    2b46:	43 9f       	mul	r20, r19
    2b48:	90 0d       	add	r25, r0
    2b4a:	52 9f       	mul	r21, r18
    2b4c:	90 0d       	add	r25, r0
    2b4e:	11 24       	eor	r1, r1
    2b50:	e8 0f       	add	r30, r24
    2b52:	f9 1f       	adc	r31, r25
    2b54:	e1 5a       	subi	r30, 0xA1	; 161
    2b56:	ff 4f       	sbci	r31, 0xFF	; 255
    2b58:	80 81       	ld	r24, Z
    2b5a:	81 60       	ori	r24, 0x01	; 1
    2b5c:	80 83       	st	Z, r24
}
    2b5e:	08 95       	ret

00002b60 <Timebase_DownCounter_Clear_Period_Flag>:

void Timebase_DownCounter_Clear_Period_Flag(uint8_t window){
  Timebase->DownCounter[window].Status.PeriodFlag = FLAG_STATE_RESET;
    2b60:	e0 91 43 01 	lds	r30, 0x0143
    2b64:	f0 91 44 01 	lds	r31, 0x0144
    2b68:	90 e0       	ldi	r25, 0x00	; 0
    2b6a:	2d e0       	ldi	r18, 0x0D	; 13
    2b6c:	30 e0       	ldi	r19, 0x00	; 0
    2b6e:	ac 01       	movw	r20, r24
    2b70:	42 9f       	mul	r20, r18
    2b72:	c0 01       	movw	r24, r0
    2b74:	43 9f       	mul	r20, r19
    2b76:	90 0d       	add	r25, r0
    2b78:	52 9f       	mul	r21, r18
    2b7a:	90 0d       	add	r25, r0
    2b7c:	11 24       	eor	r1, r1
    2b7e:	e8 0f       	add	r30, r24
    2b80:	f9 1f       	adc	r31, r25
    2b82:	e1 5a       	subi	r30, 0xA1	; 161
    2b84:	ff 4f       	sbci	r31, 0xFF	; 255
    2b86:	80 81       	ld	r24, Z
    2b88:	8e 7f       	andi	r24, 0xFE	; 254
    2b8a:	80 83       	st	Z, r24
}
    2b8c:	08 95       	ret

00002b8e <Timebase_DownCounter_Reset>:
int32_t Timebase_DownCounter_Get_EndValue(uint8_t window){
  return Timebase->DownCounter[window].EndValue;
}

void Timebase_DownCounter_Set_EndValue(uint8_t window, int32_t value){
  Timebase->DownCounter[window].EndValue = value;
    2b8e:	e0 91 43 01 	lds	r30, 0x0143
    2b92:	f0 91 44 01 	lds	r31, 0x0144
    2b96:	90 e0       	ldi	r25, 0x00	; 0
    2b98:	2d e0       	ldi	r18, 0x0D	; 13
    2b9a:	30 e0       	ldi	r19, 0x00	; 0
    2b9c:	ac 01       	movw	r20, r24
    2b9e:	42 9f       	mul	r20, r18
    2ba0:	c0 01       	movw	r24, r0
    2ba2:	43 9f       	mul	r20, r19
    2ba4:	90 0d       	add	r25, r0
    2ba6:	52 9f       	mul	r21, r18
    2ba8:	90 0d       	add	r25, r0
    2baa:	11 24       	eor	r1, r1
    2bac:	e8 0f       	add	r30, r24
    2bae:	f9 1f       	adc	r31, r25
    2bb0:	e0 5a       	subi	r30, 0xA0	; 160
    2bb2:	ff 4f       	sbci	r31, 0xFF	; 255
    2bb4:	11 92       	st	Z+, r1
    2bb6:	11 92       	st	Z+, r1
    2bb8:	11 92       	st	Z+, r1
    2bba:	11 92       	st	Z+, r1
int32_t Timebase_DownCounter_Get_Value(uint8_t window){
  return Timebase->DownCounter[window].Value;
}

void Timebase_DownCounter_Set_Value(uint8_t window, int32_t value){
  Timebase->DownCounter[window].Value = value;
    2bbc:	10 82       	st	Z, r1
    2bbe:	11 82       	std	Z+1, r1	; 0x01
    2bc0:	12 82       	std	Z+2, r1	; 0x02
    2bc2:	13 82       	std	Z+3, r1	; 0x03
uint8_t Timebase_DownCounter_Get_Status(uint8_t window){
  return Timebase->DownCounter[window].Status.Value;
}

void Timebase_DownCounter_Set_Status(uint8_t window, uint8_t value){
  Timebase->DownCounter[window].Status.Value = value;
    2bc4:	35 97       	sbiw	r30, 0x05	; 5
    2bc6:	80 81       	ld	r24, Z
void Timebase_DownCounter_Set_Period_Flag(uint8_t window){
  Timebase->DownCounter[window].Status.PeriodFlag = FLAG_STATE_SET;
}

void Timebase_DownCounter_Clear_Period_Flag(uint8_t window){
  Timebase->DownCounter[window].Status.PeriodFlag = FLAG_STATE_RESET;
    2bc8:	80 7e       	andi	r24, 0xE0	; 224
    2bca:	80 83       	st	Z, r24
void Timebase_DownCounter_Reset(uint8_t window){
  Timebase_DownCounter_Set_EndValue(window, 0);
  Timebase_DownCounter_Set_Value(window, 0);
  Timebase_DownCounter_Set_Status(window, COUNTER_STATE_RESET);
  Timebase_DownCounter_Clear_Period_Flag(window);
} 
    2bcc:	08 95       	ret

00002bce <Timebase_DownCounter_Clear_All_Flags>:
int32_t Timebase_DownCounter_Get_EndValue(uint8_t window){
  return Timebase->DownCounter[window].EndValue;
}

void Timebase_DownCounter_Set_EndValue(uint8_t window, int32_t value){
  Timebase->DownCounter[window].EndValue = value;
    2bce:	e0 91 43 01 	lds	r30, 0x0143
    2bd2:	f0 91 44 01 	lds	r31, 0x0144
    2bd6:	90 e0       	ldi	r25, 0x00	; 0
    2bd8:	2d e0       	ldi	r18, 0x0D	; 13
    2bda:	30 e0       	ldi	r19, 0x00	; 0
    2bdc:	ac 01       	movw	r20, r24
    2bde:	42 9f       	mul	r20, r18
    2be0:	c0 01       	movw	r24, r0
    2be2:	43 9f       	mul	r20, r19
    2be4:	90 0d       	add	r25, r0
    2be6:	52 9f       	mul	r21, r18
    2be8:	90 0d       	add	r25, r0
    2bea:	11 24       	eor	r1, r1
    2bec:	e8 0f       	add	r30, r24
    2bee:	f9 1f       	adc	r31, r25
    2bf0:	e0 5a       	subi	r30, 0xA0	; 160
    2bf2:	ff 4f       	sbci	r31, 0xFF	; 255
    2bf4:	11 92       	st	Z+, r1
    2bf6:	11 92       	st	Z+, r1
    2bf8:	11 92       	st	Z+, r1
    2bfa:	11 92       	st	Z+, r1
int32_t Timebase_DownCounter_Get_Value(uint8_t window){
  return Timebase->DownCounter[window].Value;
}

void Timebase_DownCounter_Set_Value(uint8_t window, int32_t value){
  Timebase->DownCounter[window].Value = value;
    2bfc:	10 82       	st	Z, r1
    2bfe:	11 82       	std	Z+1, r1	; 0x01
    2c00:	12 82       	std	Z+2, r1	; 0x02
    2c02:	13 82       	std	Z+3, r1	; 0x03
uint8_t Timebase_DownCounter_Get_Status(uint8_t window){
  return Timebase->DownCounter[window].Status.Value;
}

void Timebase_DownCounter_Set_Status(uint8_t window, uint8_t value){
  Timebase->DownCounter[window].Status.Value = value;
    2c04:	35 97       	sbiw	r30, 0x05	; 5
    2c06:	80 81       	ld	r24, Z
void Timebase_DownCounter_Set_Period_Flag(uint8_t window){
  Timebase->DownCounter[window].Status.PeriodFlag = FLAG_STATE_SET;
}

void Timebase_DownCounter_Clear_Period_Flag(uint8_t window){
  Timebase->DownCounter[window].Status.PeriodFlag = FLAG_STATE_RESET;
    2c08:	80 7e       	andi	r24, 0xE0	; 224
    2c0a:	80 83       	st	Z, r24
  Timebase_DownCounter_Clear_Period_Flag(window);
} 

void Timebase_DownCounter_Clear_All_Flags(uint8_t window){
  Timebase_DownCounter_Reset( window );
}
    2c0c:	08 95       	ret

00002c0e <Timebase_DownCounter_Start>:

/*****************************DownCounter Functions Start****************************/

#ifdef TIMEBASE_DOWNCOUNTER
uint8_t Timebase_DownCounter_Get_Status(uint8_t window){
  return Timebase->DownCounter[window].Status.Value;
    2c0e:	e0 91 43 01 	lds	r30, 0x0143
    2c12:	f0 91 44 01 	lds	r31, 0x0144
    2c16:	90 e0       	ldi	r25, 0x00	; 0
void Timebase_DownCounter_Clear_All_Flags(uint8_t window){
  Timebase_DownCounter_Reset( window );
}

void Timebase_DownCounter_Start(uint8_t window){
  if(Timebase_DownCounter_Get_Status(window) != COUNTER_STATE_STARTED){
    2c18:	2d e0       	ldi	r18, 0x0D	; 13
    2c1a:	30 e0       	ldi	r19, 0x00	; 0
    2c1c:	ac 01       	movw	r20, r24
    2c1e:	42 9f       	mul	r20, r18
    2c20:	c0 01       	movw	r24, r0
    2c22:	43 9f       	mul	r20, r19
    2c24:	90 0d       	add	r25, r0
    2c26:	52 9f       	mul	r21, r18
    2c28:	90 0d       	add	r25, r0
    2c2a:	11 24       	eor	r1, r1
    2c2c:	e8 0f       	add	r30, r24
    2c2e:	f9 1f       	adc	r31, r25
    2c30:	e1 5a       	subi	r30, 0xA1	; 161
    2c32:	ff 4f       	sbci	r31, 0xFF	; 255
    2c34:	90 81       	ld	r25, Z
    2c36:	89 2f       	mov	r24, r25
    2c38:	86 95       	lsr	r24
    2c3a:	8f 70       	andi	r24, 0x0F	; 15
    2c3c:	81 30       	cpi	r24, 0x01	; 1
    2c3e:	19 f0       	breq	.+6      	; 0x2c46 <Timebase_DownCounter_Start+0x38>
uint8_t Timebase_DownCounter_Get_Status(uint8_t window){
  return Timebase->DownCounter[window].Status.Value;
}

void Timebase_DownCounter_Set_Status(uint8_t window, uint8_t value){
  Timebase->DownCounter[window].Status.Value = value;
    2c40:	91 7e       	andi	r25, 0xE1	; 225
    2c42:	92 60       	ori	r25, 0x02	; 2
    2c44:	90 83       	st	Z, r25
    2c46:	08 95       	ret

00002c48 <Timebase_DownCounter_Stop>:

/*****************************DownCounter Functions Start****************************/

#ifdef TIMEBASE_DOWNCOUNTER
uint8_t Timebase_DownCounter_Get_Status(uint8_t window){
  return Timebase->DownCounter[window].Status.Value;
    2c48:	e0 91 43 01 	lds	r30, 0x0143
    2c4c:	f0 91 44 01 	lds	r31, 0x0144
    2c50:	90 e0       	ldi	r25, 0x00	; 0
    Timebase_DownCounter_Set_Status(window, COUNTER_STATE_START); 
  }
}

void Timebase_DownCounter_Stop(uint8_t window){
  if(Timebase_DownCounter_Get_Status(window) != COUNTER_STATE_STOPPED){
    2c52:	2d e0       	ldi	r18, 0x0D	; 13
    2c54:	30 e0       	ldi	r19, 0x00	; 0
    2c56:	ac 01       	movw	r20, r24
    2c58:	42 9f       	mul	r20, r18
    2c5a:	c0 01       	movw	r24, r0
    2c5c:	43 9f       	mul	r20, r19
    2c5e:	90 0d       	add	r25, r0
    2c60:	52 9f       	mul	r21, r18
    2c62:	90 0d       	add	r25, r0
    2c64:	11 24       	eor	r1, r1
    2c66:	e8 0f       	add	r30, r24
    2c68:	f9 1f       	adc	r31, r25
    2c6a:	e1 5a       	subi	r30, 0xA1	; 161
    2c6c:	ff 4f       	sbci	r31, 0xFF	; 255
    2c6e:	90 81       	ld	r25, Z
    2c70:	89 2f       	mov	r24, r25
    2c72:	86 95       	lsr	r24
    2c74:	8f 70       	andi	r24, 0x0F	; 15
    2c76:	82 30       	cpi	r24, 0x02	; 2
    2c78:	19 f0       	breq	.+6      	; 0x2c80 <Timebase_DownCounter_Stop+0x38>
uint8_t Timebase_DownCounter_Get_Status(uint8_t window){
  return Timebase->DownCounter[window].Status.Value;
}

void Timebase_DownCounter_Set_Status(uint8_t window, uint8_t value){
  Timebase->DownCounter[window].Status.Value = value;
    2c7a:	91 7e       	andi	r25, 0xE1	; 225
    2c7c:	94 60       	ori	r25, 0x04	; 4
    2c7e:	90 83       	st	Z, r25
    2c80:	08 95       	ret

00002c82 <Timebase_DownCounter_Set_Securely>:
    Timebase_DownCounter_Set_Status(window, COUNTER_STATE_STOP);    
  }
}


void Timebase_DownCounter_Set_Securely(uint8_t window, int32_t value){
    2c82:	cf 93       	push	r28
    2c84:	df 93       	push	r29

/*****************************DownCounter Functions Start****************************/

#ifdef TIMEBASE_DOWNCOUNTER
uint8_t Timebase_DownCounter_Get_Status(uint8_t window){
  return Timebase->DownCounter[window].Status.Value;
    2c86:	a0 91 43 01 	lds	r26, 0x0143
    2c8a:	b0 91 44 01 	lds	r27, 0x0144
    2c8e:	90 e0       	ldi	r25, 0x00	; 0
  }
}


void Timebase_DownCounter_Set_Securely(uint8_t window, int32_t value){
  if( Timebase_DownCounter_Get_Status( window ) == COUNTER_STATE_RESET ){
    2c90:	2d e0       	ldi	r18, 0x0D	; 13
    2c92:	30 e0       	ldi	r19, 0x00	; 0
    2c94:	82 9f       	mul	r24, r18
    2c96:	f0 01       	movw	r30, r0
    2c98:	83 9f       	mul	r24, r19
    2c9a:	f0 0d       	add	r31, r0
    2c9c:	92 9f       	mul	r25, r18
    2c9e:	f0 0d       	add	r31, r0
    2ca0:	11 24       	eor	r1, r1
    2ca2:	ea 0f       	add	r30, r26
    2ca4:	fb 1f       	adc	r31, r27
    2ca6:	ef 01       	movw	r28, r30
    2ca8:	c1 5a       	subi	r28, 0xA1	; 161
    2caa:	df 4f       	sbci	r29, 0xFF	; 255
    2cac:	88 81       	ld	r24, Y
    2cae:	86 95       	lsr	r24
    2cb0:	8f 70       	andi	r24, 0x0F	; 15
    2cb2:	e9 f4       	brne	.+58     	; 0x2cee <Timebase_DownCounter_Set_Securely+0x6c>
int32_t Timebase_DownCounter_Get_Value(uint8_t window){
  return Timebase->DownCounter[window].Value;
}

void Timebase_DownCounter_Set_Value(uint8_t window, int32_t value){
  Timebase->DownCounter[window].Value = value;
    2cb4:	ec 59       	subi	r30, 0x9C	; 156
    2cb6:	ff 4f       	sbci	r31, 0xFF	; 255
    2cb8:	40 83       	st	Z, r20
    2cba:	51 83       	std	Z+1, r21	; 0x01
    2cbc:	62 83       	std	Z+2, r22	; 0x02
    2cbe:	73 83       	std	Z+3, r23	; 0x03
  return Timebase->Time.SubSeconds;
}


int32_t Timebase_Timer_Get_Seconds(void){
  return Timebase->Time.Seconds;
    2cc0:	1a 96       	adiw	r26, 0x0a	; 10
    2cc2:	8d 91       	ld	r24, X+
    2cc4:	9d 91       	ld	r25, X+
    2cc6:	0d 90       	ld	r0, X+
    2cc8:	bc 91       	ld	r27, X
    2cca:	a0 2d       	mov	r26, r0
int32_t Timebase_DownCounter_Get_EndValue(uint8_t window){
  return Timebase->DownCounter[window].EndValue;
}

void Timebase_DownCounter_Set_EndValue(uint8_t window, int32_t value){
  Timebase->DownCounter[window].EndValue = value;
    2ccc:	84 0f       	add	r24, r20
    2cce:	95 1f       	adc	r25, r21
    2cd0:	a6 1f       	adc	r26, r22
    2cd2:	b7 1f       	adc	r27, r23
    2cd4:	b2 93       	st	-Z, r27
    2cd6:	a2 93       	st	-Z, r26
    2cd8:	92 93       	st	-Z, r25
    2cda:	82 93       	st	-Z, r24
void Timebase_DownCounter_Clear_All_Flags(uint8_t window){
  Timebase_DownCounter_Reset( window );
}

void Timebase_DownCounter_Start(uint8_t window){
  if(Timebase_DownCounter_Get_Status(window) != COUNTER_STATE_STARTED){
    2cdc:	98 81       	ld	r25, Y
    2cde:	89 2f       	mov	r24, r25
    2ce0:	86 95       	lsr	r24
    2ce2:	8f 70       	andi	r24, 0x0F	; 15
    2ce4:	81 30       	cpi	r24, 0x01	; 1
    2ce6:	19 f0       	breq	.+6      	; 0x2cee <Timebase_DownCounter_Set_Securely+0x6c>
uint8_t Timebase_DownCounter_Get_Status(uint8_t window){
  return Timebase->DownCounter[window].Status.Value;
}

void Timebase_DownCounter_Set_Status(uint8_t window, uint8_t value){
  Timebase->DownCounter[window].Status.Value = value;
    2ce8:	91 7e       	andi	r25, 0xE1	; 225
    2cea:	92 60       	ori	r25, 0x02	; 2
    2cec:	98 83       	st	Y, r25
  if( Timebase_DownCounter_Get_Status( window ) == COUNTER_STATE_RESET ){
    Timebase_DownCounter_Set_Value(window, value);
    Timebase_DownCounter_Set_EndValue(window, Timebase_Timer_Get_Seconds() + value);
    Timebase_DownCounter_Start(window);
  }
}
    2cee:	df 91       	pop	r29
    2cf0:	cf 91       	pop	r28
    2cf2:	08 95       	ret

00002cf4 <Timebase_DownCounter_Set_Forcefully>:

void Timebase_DownCounter_Set_Forcefully(uint8_t window, int32_t value){
    2cf4:	cf 93       	push	r28
    2cf6:	df 93       	push	r29
int32_t Timebase_DownCounter_Get_EndValue(uint8_t window){
  return Timebase->DownCounter[window].EndValue;
}

void Timebase_DownCounter_Set_EndValue(uint8_t window, int32_t value){
  Timebase->DownCounter[window].EndValue = value;
    2cf8:	e0 91 43 01 	lds	r30, 0x0143
    2cfc:	f0 91 44 01 	lds	r31, 0x0144
    2d00:	a8 2f       	mov	r26, r24
    2d02:	b0 e0       	ldi	r27, 0x00	; 0
    2d04:	2d e0       	ldi	r18, 0x0D	; 13
    2d06:	30 e0       	ldi	r19, 0x00	; 0
    2d08:	e9 01       	movw	r28, r18
    2d0a:	ac 9f       	mul	r26, r28
    2d0c:	90 01       	movw	r18, r0
    2d0e:	ad 9f       	mul	r26, r29
    2d10:	30 0d       	add	r19, r0
    2d12:	bc 9f       	mul	r27, r28
    2d14:	30 0d       	add	r19, r0
    2d16:	11 24       	eor	r1, r1
    2d18:	e2 0f       	add	r30, r18
    2d1a:	f3 1f       	adc	r31, r19
    2d1c:	e0 5a       	subi	r30, 0xA0	; 160
    2d1e:	ff 4f       	sbci	r31, 0xFF	; 255
    2d20:	11 92       	st	Z+, r1
    2d22:	11 92       	st	Z+, r1
    2d24:	11 92       	st	Z+, r1
    2d26:	11 92       	st	Z+, r1
int32_t Timebase_DownCounter_Get_Value(uint8_t window){
  return Timebase->DownCounter[window].Value;
}

void Timebase_DownCounter_Set_Value(uint8_t window, int32_t value){
  Timebase->DownCounter[window].Value = value;
    2d28:	10 82       	st	Z, r1
    2d2a:	11 82       	std	Z+1, r1	; 0x01
    2d2c:	12 82       	std	Z+2, r1	; 0x02
    2d2e:	13 82       	std	Z+3, r1	; 0x03
uint8_t Timebase_DownCounter_Get_Status(uint8_t window){
  return Timebase->DownCounter[window].Status.Value;
}

void Timebase_DownCounter_Set_Status(uint8_t window, uint8_t value){
  Timebase->DownCounter[window].Status.Value = value;
    2d30:	35 97       	sbiw	r30, 0x05	; 5
    2d32:	90 81       	ld	r25, Z
void Timebase_DownCounter_Set_Period_Flag(uint8_t window){
  Timebase->DownCounter[window].Status.PeriodFlag = FLAG_STATE_SET;
}

void Timebase_DownCounter_Clear_Period_Flag(uint8_t window){
  Timebase->DownCounter[window].Status.PeriodFlag = FLAG_STATE_RESET;
    2d34:	90 7e       	andi	r25, 0xE0	; 224
    2d36:	90 83       	st	Z, r25
  }
}

void Timebase_DownCounter_Set_Forcefully(uint8_t window, int32_t value){
  Timebase_DownCounter_Reset( window );
  Timebase_DownCounter_Set_Securely( window, value );
    2d38:	0e 94 41 16 	call	0x2c82	; 0x2c82 <Timebase_DownCounter_Set_Securely>
} 
    2d3c:	df 91       	pop	r29
    2d3e:	cf 91       	pop	r28
    2d40:	08 95       	ret

00002d42 <Timebase_DownCounter_Update>:

void Timebase_DownCounter_Update(uint8_t window){
    2d42:	0f 93       	push	r16
    2d44:	1f 93       	push	r17
    2d46:	cf 93       	push	r28
    2d48:	df 93       	push	r29

/*****************************DownCounter Functions Start****************************/

#ifdef TIMEBASE_DOWNCOUNTER
uint8_t Timebase_DownCounter_Get_Status(uint8_t window){
  return Timebase->DownCounter[window].Status.Value;
    2d4a:	a0 91 43 01 	lds	r26, 0x0143
    2d4e:	b0 91 44 01 	lds	r27, 0x0144
    2d52:	90 e0       	ldi	r25, 0x00	; 0
    2d54:	2d e0       	ldi	r18, 0x0D	; 13
    2d56:	30 e0       	ldi	r19, 0x00	; 0
    2d58:	82 9f       	mul	r24, r18
    2d5a:	f0 01       	movw	r30, r0
    2d5c:	83 9f       	mul	r24, r19
    2d5e:	f0 0d       	add	r31, r0
    2d60:	92 9f       	mul	r25, r18
    2d62:	f0 0d       	add	r31, r0
    2d64:	11 24       	eor	r1, r1
    2d66:	ea 0f       	add	r30, r26
    2d68:	fb 1f       	adc	r31, r27
    2d6a:	8f 01       	movw	r16, r30
    2d6c:	01 5a       	subi	r16, 0xA1	; 161
    2d6e:	1f 4f       	sbci	r17, 0xFF	; 255
    2d70:	e8 01       	movw	r28, r16
    2d72:	88 81       	ld	r24, Y
    2d74:	86 95       	lsr	r24
    2d76:	8f 70       	andi	r24, 0x0F	; 15
  Timebase_DownCounter_Reset( window );
  Timebase_DownCounter_Set_Securely( window, value );
} 

void Timebase_DownCounter_Update(uint8_t window){
  if( Timebase_DownCounter_Get_Status( window ) == COUNTER_STATE_STARTED ){ 
    2d78:	81 30       	cpi	r24, 0x01	; 1
    2d7a:	69 f5       	brne	.+90     	; 0x2dd6 <Timebase_DownCounter_Update+0x94>
  return Timebase->Time.SubSeconds;
}


int32_t Timebase_Timer_Get_Seconds(void){
  return Timebase->Time.Seconds;
    2d7c:	1a 96       	adiw	r26, 0x0a	; 10
    2d7e:	2d 91       	ld	r18, X+
    2d80:	3d 91       	ld	r19, X+
    2d82:	4d 91       	ld	r20, X+
    2d84:	5c 91       	ld	r21, X
    2d86:	1d 97       	sbiw	r26, 0x0d	; 13
  Timebase_DownCounter_Set_Securely( window, value );
} 

void Timebase_DownCounter_Update(uint8_t window){
  if( Timebase_DownCounter_Get_Status( window ) == COUNTER_STATE_STARTED ){ 
    Timebase_DownCounter_Set_Value(window, Timebase_DownCounter_Get_EndValue(window) - Timebase_Timer_Get_Seconds());
    2d88:	bf 01       	movw	r22, r30
    2d8a:	60 5a       	subi	r22, 0xA0	; 160
    2d8c:	7f 4f       	sbci	r23, 0xFF	; 255
    2d8e:	eb 01       	movw	r28, r22
    2d90:	88 81       	ld	r24, Y
    2d92:	99 81       	ldd	r25, Y+1	; 0x01
    2d94:	aa 81       	ldd	r26, Y+2	; 0x02
    2d96:	bb 81       	ldd	r27, Y+3	; 0x03
    2d98:	82 1b       	sub	r24, r18
    2d9a:	93 0b       	sbc	r25, r19
    2d9c:	a4 0b       	sbc	r26, r20
    2d9e:	b5 0b       	sbc	r27, r21
int32_t Timebase_DownCounter_Get_Value(uint8_t window){
  return Timebase->DownCounter[window].Value;
}

void Timebase_DownCounter_Set_Value(uint8_t window, int32_t value){
  Timebase->DownCounter[window].Value = value;
    2da0:	ec 59       	subi	r30, 0x9C	; 156
    2da2:	ff 4f       	sbci	r31, 0xFF	; 255
    2da4:	80 83       	st	Z, r24
    2da6:	91 83       	std	Z+1, r25	; 0x01
    2da8:	a2 83       	std	Z+2, r26	; 0x02
    2daa:	b3 83       	std	Z+3, r27	; 0x03
} 

void Timebase_DownCounter_Update(uint8_t window){
  if( Timebase_DownCounter_Get_Status( window ) == COUNTER_STATE_STARTED ){ 
    Timebase_DownCounter_Set_Value(window, Timebase_DownCounter_Get_EndValue(window) - Timebase_Timer_Get_Seconds());
    if(Timebase_DownCounter_Get_Value(window) <= 0){
    2dac:	18 16       	cp	r1, r24
    2dae:	19 06       	cpc	r1, r25
    2db0:	1a 06       	cpc	r1, r26
    2db2:	1b 06       	cpc	r1, r27
    2db4:	34 f1       	brlt	.+76     	; 0x2e02 <Timebase_DownCounter_Update+0xc0>
int32_t Timebase_DownCounter_Get_EndValue(uint8_t window){
  return Timebase->DownCounter[window].EndValue;
}

void Timebase_DownCounter_Set_EndValue(uint8_t window, int32_t value){
  Timebase->DownCounter[window].EndValue = value;
    2db6:	db 01       	movw	r26, r22
    2db8:	1d 92       	st	X+, r1
    2dba:	1d 92       	st	X+, r1
    2dbc:	1d 92       	st	X+, r1
    2dbe:	1c 92       	st	X, r1
    2dc0:	13 97       	sbiw	r26, 0x03	; 3
int32_t Timebase_DownCounter_Get_Value(uint8_t window){
  return Timebase->DownCounter[window].Value;
}

void Timebase_DownCounter_Set_Value(uint8_t window, int32_t value){
  Timebase->DownCounter[window].Value = value;
    2dc2:	10 82       	st	Z, r1
    2dc4:	11 82       	std	Z+1, r1	; 0x01
    2dc6:	12 82       	std	Z+2, r1	; 0x02
    2dc8:	13 82       	std	Z+3, r1	; 0x03
void Timebase_DownCounter_Set_Period_Flag(uint8_t window){
  Timebase->DownCounter[window].Status.PeriodFlag = FLAG_STATE_SET;
}

void Timebase_DownCounter_Clear_Period_Flag(uint8_t window){
  Timebase->DownCounter[window].Status.PeriodFlag = FLAG_STATE_RESET;
    2dca:	e8 01       	movw	r28, r16
    2dcc:	88 81       	ld	r24, Y
uint8_t Timebase_DownCounter_Get_Status(uint8_t window){
  return Timebase->DownCounter[window].Status.Value;
}

void Timebase_DownCounter_Set_Status(uint8_t window, uint8_t value){
  Timebase->DownCounter[window].Status.Value = value;
    2dce:	80 7e       	andi	r24, 0xE0	; 224
    2dd0:	88 60       	ori	r24, 0x08	; 8
    2dd2:	88 83       	st	Y, r24
    2dd4:	16 c0       	rjmp	.+44     	; 0x2e02 <Timebase_DownCounter_Update+0xc0>
    Timebase_DownCounter_Set_Value(window, Timebase_DownCounter_Get_EndValue(window) - Timebase_Timer_Get_Seconds());
    if(Timebase_DownCounter_Get_Value(window) <= 0){
      Timebase_DownCounter_Reset(window);
      Timebase_DownCounter_Set_Status(window, COUNTER_STATE_EXPIRED);
    }
  } else if (Timebase_DownCounter_Get_Status( window ) == COUNTER_STATE_STOPPED){
    2dd6:	82 30       	cpi	r24, 0x02	; 2
    2dd8:	a1 f4       	brne	.+40     	; 0x2e02 <Timebase_DownCounter_Update+0xc0>
  return Timebase->Time.SubSeconds;
}


int32_t Timebase_Timer_Get_Seconds(void){
  return Timebase->Time.Seconds;
    2dda:	1a 96       	adiw	r26, 0x0a	; 10
    2ddc:	8d 91       	ld	r24, X+
    2dde:	9d 91       	ld	r25, X+
    2de0:	0d 90       	ld	r0, X+
    2de2:	bc 91       	ld	r27, X
    2de4:	a0 2d       	mov	r26, r0
int32_t Timebase_DownCounter_Get_EndValue(uint8_t window){
  return Timebase->DownCounter[window].EndValue;
}

void Timebase_DownCounter_Set_EndValue(uint8_t window, int32_t value){
  Timebase->DownCounter[window].EndValue = value;
    2de6:	ec 59       	subi	r30, 0x9C	; 156
    2de8:	ff 4f       	sbci	r31, 0xFF	; 255
    2dea:	20 81       	ld	r18, Z
    2dec:	31 81       	ldd	r19, Z+1	; 0x01
    2dee:	42 81       	ldd	r20, Z+2	; 0x02
    2df0:	53 81       	ldd	r21, Z+3	; 0x03
    2df2:	82 0f       	add	r24, r18
    2df4:	93 1f       	adc	r25, r19
    2df6:	a4 1f       	adc	r26, r20
    2df8:	b5 1f       	adc	r27, r21
    2dfa:	b2 93       	st	-Z, r27
    2dfc:	a2 93       	st	-Z, r26
    2dfe:	92 93       	st	-Z, r25
    2e00:	82 93       	st	-Z, r24
      Timebase_DownCounter_Set_Status(window, COUNTER_STATE_EXPIRED);
    }
  } else if (Timebase_DownCounter_Get_Status( window ) == COUNTER_STATE_STOPPED){
    Timebase_DownCounter_Set_EndValue(window, Timebase_DownCounter_Get_Value(window) + Timebase_Timer_Get_Seconds());
  }
}
    2e02:	df 91       	pop	r29
    2e04:	cf 91       	pop	r28
    2e06:	1f 91       	pop	r17
    2e08:	0f 91       	pop	r16
    2e0a:	08 95       	ret

00002e0c <Timebase_DownCounter_Expired>:

uint8_t Timebase_DownCounter_Expired(uint8_t window){
    2e0c:	40 e0       	ldi	r20, 0x00	; 0
    2e0e:	e0 91 43 01 	lds	r30, 0x0143
    2e12:	f0 91 44 01 	lds	r31, 0x0144
    2e16:	90 e0       	ldi	r25, 0x00	; 0
    2e18:	2d e0       	ldi	r18, 0x0D	; 13
    2e1a:	30 e0       	ldi	r19, 0x00	; 0
    2e1c:	bc 01       	movw	r22, r24
    2e1e:	62 9f       	mul	r22, r18
    2e20:	c0 01       	movw	r24, r0
    2e22:	63 9f       	mul	r22, r19
    2e24:	90 0d       	add	r25, r0
    2e26:	72 9f       	mul	r23, r18
    2e28:	90 0d       	add	r25, r0
    2e2a:	11 24       	eor	r1, r1
    2e2c:	e8 0f       	add	r30, r24
    2e2e:	f9 1f       	adc	r31, r25
    2e30:	e1 5a       	subi	r30, 0xA1	; 161
    2e32:	ff 4f       	sbci	r31, 0xFF	; 255
    2e34:	80 81       	ld	r24, Z
    2e36:	86 95       	lsr	r24
    2e38:	8f 70       	andi	r24, 0x0F	; 15
    2e3a:	84 30       	cpi	r24, 0x04	; 4
    2e3c:	09 f4       	brne	.+2      	; 0x2e40 <Timebase_DownCounter_Expired+0x34>
    2e3e:	41 e0       	ldi	r20, 0x01	; 1
  if(Timebase_DownCounter_Get_Status( window ) == COUNTER_STATE_EXPIRED){
    return TIMEBASE_TRUE;
  }else{
    return TIMEBASE_FALSE;
  }
}
    2e40:	84 2f       	mov	r24, r20
    2e42:	08 95       	ret

00002e44 <Timebase_DownCounter_Expired_Event>:

/*****************************DownCounter Functions Start****************************/

#ifdef TIMEBASE_DOWNCOUNTER
uint8_t Timebase_DownCounter_Get_Status(uint8_t window){
  return Timebase->DownCounter[window].Status.Value;
    2e44:	e0 91 43 01 	lds	r30, 0x0143
    2e48:	f0 91 44 01 	lds	r31, 0x0144
    2e4c:	90 e0       	ldi	r25, 0x00	; 0
    return TIMEBASE_FALSE;
  }
}

uint8_t Timebase_DownCounter_Expired_Event(uint8_t window){
  if(Timebase_DownCounter_Get_Status( window ) == COUNTER_STATE_EXPIRED){
    2e4e:	2d e0       	ldi	r18, 0x0D	; 13
    2e50:	30 e0       	ldi	r19, 0x00	; 0
    2e52:	ac 01       	movw	r20, r24
    2e54:	42 9f       	mul	r20, r18
    2e56:	c0 01       	movw	r24, r0
    2e58:	43 9f       	mul	r20, r19
    2e5a:	90 0d       	add	r25, r0
    2e5c:	52 9f       	mul	r21, r18
    2e5e:	90 0d       	add	r25, r0
    2e60:	11 24       	eor	r1, r1
    2e62:	e8 0f       	add	r30, r24
    2e64:	f9 1f       	adc	r31, r25
    2e66:	df 01       	movw	r26, r30
    2e68:	a1 5a       	subi	r26, 0xA1	; 161
    2e6a:	bf 4f       	sbci	r27, 0xFF	; 255
    2e6c:	8c 91       	ld	r24, X
    2e6e:	86 95       	lsr	r24
    2e70:	8f 70       	andi	r24, 0x0F	; 15
    2e72:	84 30       	cpi	r24, 0x04	; 4
    2e74:	11 f0       	breq	.+4      	; 0x2e7a <Timebase_DownCounter_Expired_Event+0x36>
    2e76:	80 e0       	ldi	r24, 0x00	; 0
    2e78:	08 95       	ret
int32_t Timebase_DownCounter_Get_EndValue(uint8_t window){
  return Timebase->DownCounter[window].EndValue;
}

void Timebase_DownCounter_Set_EndValue(uint8_t window, int32_t value){
  Timebase->DownCounter[window].EndValue = value;
    2e7a:	e0 5a       	subi	r30, 0xA0	; 160
    2e7c:	ff 4f       	sbci	r31, 0xFF	; 255
    2e7e:	11 92       	st	Z+, r1
    2e80:	11 92       	st	Z+, r1
    2e82:	11 92       	st	Z+, r1
    2e84:	11 92       	st	Z+, r1
int32_t Timebase_DownCounter_Get_Value(uint8_t window){
  return Timebase->DownCounter[window].Value;
}

void Timebase_DownCounter_Set_Value(uint8_t window, int32_t value){
  Timebase->DownCounter[window].Value = value;
    2e86:	10 82       	st	Z, r1
    2e88:	11 82       	std	Z+1, r1	; 0x01
    2e8a:	12 82       	std	Z+2, r1	; 0x02
    2e8c:	13 82       	std	Z+3, r1	; 0x03
uint8_t Timebase_DownCounter_Get_Status(uint8_t window){
  return Timebase->DownCounter[window].Status.Value;
}

void Timebase_DownCounter_Set_Status(uint8_t window, uint8_t value){
  Timebase->DownCounter[window].Status.Value = value;
    2e8e:	8c 91       	ld	r24, X
void Timebase_DownCounter_Set_Period_Flag(uint8_t window){
  Timebase->DownCounter[window].Status.PeriodFlag = FLAG_STATE_SET;
}

void Timebase_DownCounter_Clear_Period_Flag(uint8_t window){
  Timebase->DownCounter[window].Status.PeriodFlag = FLAG_STATE_RESET;
    2e90:	80 7e       	andi	r24, 0xE0	; 224
    2e92:	8c 93       	st	X, r24
    2e94:	81 e0       	ldi	r24, 0x01	; 1
    Timebase_DownCounter_Clear_All_Flags( window );
    return TIMEBASE_TRUE;
  }else{
    return TIMEBASE_FALSE;
  }
}
    2e96:	08 95       	ret

00002e98 <Timebase_DownCounter_Set_Period_Value_Securely>:


void Timebase_DownCounter_Set_Period_Value_Securely(uint8_t window, int32_t value){
    2e98:	cf 93       	push	r28
    2e9a:	df 93       	push	r29
  }
  
}

uint8_t Timebase_DownCounter_Get_Period_Flag(uint8_t window){
  return Timebase->DownCounter[window].Status.PeriodFlag;
    2e9c:	c0 91 43 01 	lds	r28, 0x0143
    2ea0:	d0 91 44 01 	lds	r29, 0x0144
    2ea4:	28 2f       	mov	r18, r24
    2ea6:	30 e0       	ldi	r19, 0x00	; 0
  }
}


void Timebase_DownCounter_Set_Period_Value_Securely(uint8_t window, int32_t value){
  if(Timebase_DownCounter_Get_Period_Flag( window ) == FLAG_STATE_RESET){
    2ea8:	8d e0       	ldi	r24, 0x0D	; 13
    2eaa:	90 e0       	ldi	r25, 0x00	; 0
    2eac:	28 9f       	mul	r18, r24
    2eae:	f0 01       	movw	r30, r0
    2eb0:	29 9f       	mul	r18, r25
    2eb2:	f0 0d       	add	r31, r0
    2eb4:	38 9f       	mul	r19, r24
    2eb6:	f0 0d       	add	r31, r0
    2eb8:	11 24       	eor	r1, r1
    2eba:	ec 0f       	add	r30, r28
    2ebc:	fd 1f       	adc	r31, r29
    2ebe:	e1 5a       	subi	r30, 0xA1	; 161
    2ec0:	ff 4f       	sbci	r31, 0xFF	; 255
    2ec2:	80 81       	ld	r24, Z
    2ec4:	ef 55       	subi	r30, 0x5F	; 95
    2ec6:	f0 40       	sbci	r31, 0x00	; 0
    2ec8:	80 fd       	sbrc	r24, 0
    2eca:	25 c0       	rjmp	.+74     	; 0x2f16 <Timebase_DownCounter_Set_Period_Value_Securely+0x7e>
    Timebase_DownCounter_Set_PeriodValue(window, Timebase_DownCounter_Get_Value(window) - value);
    2ecc:	ec 59       	subi	r30, 0x9C	; 156
    2ece:	ff 4f       	sbci	r31, 0xFF	; 255
    2ed0:	81 91       	ld	r24, Z+
    2ed2:	91 91       	ld	r25, Z+
    2ed4:	a1 91       	ld	r26, Z+
    2ed6:	b1 91       	ld	r27, Z+
    2ed8:	84 1b       	sub	r24, r20
    2eda:	95 0b       	sbc	r25, r21
    2edc:	a6 0b       	sbc	r26, r22
    2ede:	b7 0b       	sbc	r27, r23
int32_t Timebase_DownCounter_Get_PeriodValue(uint8_t window){
  return Timebase->DownCounter[window].PeriodValue;
}

void Timebase_DownCounter_Set_PeriodValue(uint8_t window, int32_t value){
  if(value < 0){
    2ee0:	b7 ff       	sbrs	r27, 7
    2ee2:	05 c0       	rjmp	.+10     	; 0x2eee <Timebase_DownCounter_Set_Period_Value_Securely+0x56>
    Timebase->DownCounter[window].PeriodValue = 0;
    2ee4:	10 82       	st	Z, r1
    2ee6:	11 82       	std	Z+1, r1	; 0x01
    2ee8:	12 82       	std	Z+2, r1	; 0x02
    2eea:	13 82       	std	Z+3, r1	; 0x03
    2eec:	04 c0       	rjmp	.+8      	; 0x2ef6 <Timebase_DownCounter_Set_Period_Value_Securely+0x5e>
  }else{
    Timebase->DownCounter[window].PeriodValue = value;
    2eee:	80 83       	st	Z, r24
    2ef0:	91 83       	std	Z+1, r25	; 0x01
    2ef2:	a2 83       	std	Z+2, r26	; 0x02
    2ef4:	b3 83       	std	Z+3, r27	; 0x03
uint8_t Timebase_DownCounter_Get_Period_Flag(uint8_t window){
  return Timebase->DownCounter[window].Status.PeriodFlag;
}

void Timebase_DownCounter_Set_Period_Flag(uint8_t window){
  Timebase->DownCounter[window].Status.PeriodFlag = FLAG_STATE_SET;
    2ef6:	8d e0       	ldi	r24, 0x0D	; 13
    2ef8:	90 e0       	ldi	r25, 0x00	; 0
    2efa:	28 9f       	mul	r18, r24
    2efc:	f0 01       	movw	r30, r0
    2efe:	29 9f       	mul	r18, r25
    2f00:	f0 0d       	add	r31, r0
    2f02:	38 9f       	mul	r19, r24
    2f04:	f0 0d       	add	r31, r0
    2f06:	11 24       	eor	r1, r1
    2f08:	ec 0f       	add	r30, r28
    2f0a:	fd 1f       	adc	r31, r29
    2f0c:	e1 5a       	subi	r30, 0xA1	; 161
    2f0e:	ff 4f       	sbci	r31, 0xFF	; 255
    2f10:	80 81       	ld	r24, Z
    2f12:	81 60       	ori	r24, 0x01	; 1
    2f14:	80 83       	st	Z, r24
void Timebase_DownCounter_Set_Period_Value_Securely(uint8_t window, int32_t value){
  if(Timebase_DownCounter_Get_Period_Flag( window ) == FLAG_STATE_RESET){
    Timebase_DownCounter_Set_PeriodValue(window, Timebase_DownCounter_Get_Value(window) - value);
    Timebase_DownCounter_Set_Period_Flag(window);
  }
}
    2f16:	df 91       	pop	r29
    2f18:	cf 91       	pop	r28
    2f1a:	08 95       	ret

00002f1c <Timebase_DownCounter_Get_Remaining_Period_Value>:
void Timebase_DownCounter_Set_Status(uint8_t window, uint8_t value){
  Timebase->DownCounter[window].Status.Value = value;
}

int32_t Timebase_DownCounter_Get_Value(uint8_t window){
  return Timebase->DownCounter[window].Value;
    2f1c:	e0 91 43 01 	lds	r30, 0x0143
    2f20:	f0 91 44 01 	lds	r31, 0x0144
    2f24:	90 e0       	ldi	r25, 0x00	; 0
    Timebase_DownCounter_Set_Period_Flag(window);
  }
}

int32_t Timebase_DownCounter_Get_Remaining_Period_Value(uint8_t window){
  int32_t temp = Timebase_DownCounter_Get_Value(window) - Timebase_DownCounter_Get_PeriodValue(window) ;
    2f26:	2d e0       	ldi	r18, 0x0D	; 13
    2f28:	30 e0       	ldi	r19, 0x00	; 0
    2f2a:	ac 01       	movw	r20, r24
    2f2c:	42 9f       	mul	r20, r18
    2f2e:	c0 01       	movw	r24, r0
    2f30:	43 9f       	mul	r20, r19
    2f32:	90 0d       	add	r25, r0
    2f34:	52 9f       	mul	r21, r18
    2f36:	90 0d       	add	r25, r0
    2f38:	11 24       	eor	r1, r1
    2f3a:	e8 0f       	add	r30, r24
    2f3c:	f9 1f       	adc	r31, r25
    2f3e:	df 01       	movw	r26, r30
    2f40:	a8 59       	subi	r26, 0x98	; 152
    2f42:	bf 4f       	sbci	r27, 0xFF	; 255
    2f44:	ec 59       	subi	r30, 0x9C	; 156
    2f46:	ff 4f       	sbci	r31, 0xFF	; 255
    2f48:	20 81       	ld	r18, Z
    2f4a:	31 81       	ldd	r19, Z+1	; 0x01
    2f4c:	42 81       	ldd	r20, Z+2	; 0x02
    2f4e:	53 81       	ldd	r21, Z+3	; 0x03
    2f50:	8d 91       	ld	r24, X+
    2f52:	9d 91       	ld	r25, X+
    2f54:	0d 90       	ld	r0, X+
    2f56:	bc 91       	ld	r27, X
    2f58:	a0 2d       	mov	r26, r0
    2f5a:	28 1b       	sub	r18, r24
    2f5c:	39 0b       	sbc	r19, r25
    2f5e:	4a 0b       	sbc	r20, r26
    2f60:	5b 0b       	sbc	r21, r27
    2f62:	57 ff       	sbrs	r21, 7
    2f64:	04 c0       	rjmp	.+8      	; 0x2f6e <Timebase_DownCounter_Get_Remaining_Period_Value+0x52>
    2f66:	20 e0       	ldi	r18, 0x00	; 0
    2f68:	30 e0       	ldi	r19, 0x00	; 0
    2f6a:	40 e0       	ldi	r20, 0x00	; 0
    2f6c:	50 e0       	ldi	r21, 0x00	; 0
  if(temp < 0){
    temp = 0;
  }
  return temp;
}
    2f6e:	b9 01       	movw	r22, r18
    2f70:	ca 01       	movw	r24, r20
    2f72:	08 95       	ret

00002f74 <Timebase_DownCounter_Period_Value_Expired>:

uint8_t Timebase_DownCounter_Period_Value_Expired(uint8_t window){
    2f74:	cf 93       	push	r28
    2f76:	df 93       	push	r29
void Timebase_DownCounter_Set_Status(uint8_t window, uint8_t value){
  Timebase->DownCounter[window].Status.Value = value;
}

int32_t Timebase_DownCounter_Get_Value(uint8_t window){
  return Timebase->DownCounter[window].Value;
    2f78:	c0 91 43 01 	lds	r28, 0x0143
    2f7c:	d0 91 44 01 	lds	r29, 0x0144
    2f80:	68 2f       	mov	r22, r24
    2f82:	70 e0       	ldi	r23, 0x00	; 0
    Timebase_DownCounter_Set_Period_Flag(window);
  }
}

int32_t Timebase_DownCounter_Get_Remaining_Period_Value(uint8_t window){
  int32_t temp = Timebase_DownCounter_Get_Value(window) - Timebase_DownCounter_Get_PeriodValue(window) ;
    2f84:	8d e0       	ldi	r24, 0x0D	; 13
    2f86:	90 e0       	ldi	r25, 0x00	; 0
    2f88:	68 9f       	mul	r22, r24
    2f8a:	f0 01       	movw	r30, r0
    2f8c:	69 9f       	mul	r22, r25
    2f8e:	f0 0d       	add	r31, r0
    2f90:	78 9f       	mul	r23, r24
    2f92:	f0 0d       	add	r31, r0
    2f94:	11 24       	eor	r1, r1
    2f96:	ec 0f       	add	r30, r28
    2f98:	fd 1f       	adc	r31, r29
    2f9a:	df 01       	movw	r26, r30
    2f9c:	a8 59       	subi	r26, 0x98	; 152
    2f9e:	bf 4f       	sbci	r27, 0xFF	; 255
    2fa0:	ec 59       	subi	r30, 0x9C	; 156
    2fa2:	ff 4f       	sbci	r31, 0xFF	; 255
    2fa4:	20 81       	ld	r18, Z
    2fa6:	31 81       	ldd	r19, Z+1	; 0x01
    2fa8:	42 81       	ldd	r20, Z+2	; 0x02
    2faa:	53 81       	ldd	r21, Z+3	; 0x03
    2fac:	8d 91       	ld	r24, X+
    2fae:	9d 91       	ld	r25, X+
    2fb0:	0d 90       	ld	r0, X+
    2fb2:	bc 91       	ld	r27, X
    2fb4:	a0 2d       	mov	r26, r0
    2fb6:	28 1b       	sub	r18, r24
    2fb8:	39 0b       	sbc	r19, r25
    2fba:	4a 0b       	sbc	r20, r26
    2fbc:	5b 0b       	sbc	r21, r27
  if(temp < 0){
    2fbe:	57 fd       	sbrc	r21, 7
    2fc0:	07 c0       	rjmp	.+14     	; 0x2fd0 <Timebase_DownCounter_Period_Value_Expired+0x5c>
  }
  return temp;
}

uint8_t Timebase_DownCounter_Period_Value_Expired(uint8_t window){
  if( (Timebase_DownCounter_Get_Remaining_Period_Value( window ) == 0) && (Timebase_DownCounter_Get_Period_Flag( window ) == FLAG_STATE_SET) ){
    2fc2:	21 15       	cp	r18, r1
    2fc4:	31 05       	cpc	r19, r1
    2fc6:	41 05       	cpc	r20, r1
    2fc8:	51 05       	cpc	r21, r1
    2fca:	11 f0       	breq	.+4      	; 0x2fd0 <Timebase_DownCounter_Period_Value_Expired+0x5c>
    2fcc:	20 e0       	ldi	r18, 0x00	; 0
    2fce:	14 c0       	rjmp	.+40     	; 0x2ff8 <Timebase_DownCounter_Period_Value_Expired+0x84>
    2fd0:	20 e0       	ldi	r18, 0x00	; 0
    2fd2:	8d e0       	ldi	r24, 0x0D	; 13
    2fd4:	90 e0       	ldi	r25, 0x00	; 0
    2fd6:	ac 01       	movw	r20, r24
    2fd8:	64 9f       	mul	r22, r20
    2fda:	c0 01       	movw	r24, r0
    2fdc:	65 9f       	mul	r22, r21
    2fde:	90 0d       	add	r25, r0
    2fe0:	74 9f       	mul	r23, r20
    2fe2:	90 0d       	add	r25, r0
    2fe4:	11 24       	eor	r1, r1
    2fe6:	c8 0f       	add	r28, r24
    2fe8:	d9 1f       	adc	r29, r25
    2fea:	c1 5a       	subi	r28, 0xA1	; 161
    2fec:	df 4f       	sbci	r29, 0xFF	; 255
    2fee:	88 81       	ld	r24, Y
    2ff0:	80 ff       	sbrs	r24, 0
    2ff2:	21 e0       	ldi	r18, 0x01	; 1
    2ff4:	81 e0       	ldi	r24, 0x01	; 1
    2ff6:	28 27       	eor	r18, r24
    return TIMEBASE_TRUE;
  }else{
    return TIMEBASE_FALSE;
  }
}
    2ff8:	82 2f       	mov	r24, r18
    2ffa:	df 91       	pop	r29
    2ffc:	cf 91       	pop	r28
    2ffe:	08 95       	ret

00003000 <Timebase_DownCounter_Period_Value_Expired_Event>:

uint8_t Timebase_DownCounter_Period_Value_Expired_Event(uint8_t window){
    3000:	1f 93       	push	r17
    3002:	18 2f       	mov	r17, r24
  if(Timebase_DownCounter_Period_Value_Expired( window ) == TIMEBASE_TRUE){
    3004:	0e 94 ba 17 	call	0x2f74	; 0x2f74 <Timebase_DownCounter_Period_Value_Expired>
    3008:	81 30       	cpi	r24, 0x01	; 1
    300a:	11 f0       	breq	.+4      	; 0x3010 <Timebase_DownCounter_Period_Value_Expired_Event+0x10>
    300c:	80 e0       	ldi	r24, 0x00	; 0
    300e:	18 c0       	rjmp	.+48     	; 0x3040 <Timebase_DownCounter_Period_Value_Expired_Event+0x40>
void Timebase_DownCounter_Set_Period_Flag(uint8_t window){
  Timebase->DownCounter[window].Status.PeriodFlag = FLAG_STATE_SET;
}

void Timebase_DownCounter_Clear_Period_Flag(uint8_t window){
  Timebase->DownCounter[window].Status.PeriodFlag = FLAG_STATE_RESET;
    3010:	e0 91 43 01 	lds	r30, 0x0143
    3014:	f0 91 44 01 	lds	r31, 0x0144
    3018:	21 2f       	mov	r18, r17
    301a:	30 e0       	ldi	r19, 0x00	; 0
    301c:	8d e0       	ldi	r24, 0x0D	; 13
    301e:	90 e0       	ldi	r25, 0x00	; 0
    3020:	ac 01       	movw	r20, r24
    3022:	24 9f       	mul	r18, r20
    3024:	c0 01       	movw	r24, r0
    3026:	25 9f       	mul	r18, r21
    3028:	90 0d       	add	r25, r0
    302a:	34 9f       	mul	r19, r20
    302c:	90 0d       	add	r25, r0
    302e:	11 24       	eor	r1, r1
    3030:	e8 0f       	add	r30, r24
    3032:	f9 1f       	adc	r31, r25
    3034:	e1 5a       	subi	r30, 0xA1	; 161
    3036:	ff 4f       	sbci	r31, 0xFF	; 255
    3038:	80 81       	ld	r24, Z
    303a:	8e 7f       	andi	r24, 0xFE	; 254
    303c:	80 83       	st	Z, r24
    303e:	81 e0       	ldi	r24, 0x01	; 1
    Timebase_DownCounter_Clear_Period_Flag( window );
    return TIMEBASE_TRUE;
  }else{
    return TIMEBASE_FALSE;
  }
}
    3040:	1f 91       	pop	r17
    3042:	08 95       	ret

00003044 <Timebase_DownCounter_Update_All>:


void Timebase_DownCounter_Update_All(void){
  for(uint8_t i=0; i<TIMEBASE_DOWNCOUNTER; i++){
    Timebase_DownCounter_Update(i);
    3044:	80 e0       	ldi	r24, 0x00	; 0
    3046:	0e 94 a1 16 	call	0x2d42	; 0x2d42 <Timebase_DownCounter_Update>
  }
}
    304a:	08 95       	ret

0000304c <Timebase_DownCounter_Reset_All>:
int32_t Timebase_DownCounter_Get_EndValue(uint8_t window){
  return Timebase->DownCounter[window].EndValue;
}

void Timebase_DownCounter_Set_EndValue(uint8_t window, int32_t value){
  Timebase->DownCounter[window].EndValue = value;
    304c:	e0 91 43 01 	lds	r30, 0x0143
    3050:	f0 91 44 01 	lds	r31, 0x0144
    3054:	e0 5a       	subi	r30, 0xA0	; 160
    3056:	ff 4f       	sbci	r31, 0xFF	; 255
    3058:	11 92       	st	Z+, r1
    305a:	11 92       	st	Z+, r1
    305c:	11 92       	st	Z+, r1
    305e:	11 92       	st	Z+, r1
int32_t Timebase_DownCounter_Get_Value(uint8_t window){
  return Timebase->DownCounter[window].Value;
}

void Timebase_DownCounter_Set_Value(uint8_t window, int32_t value){
  Timebase->DownCounter[window].Value = value;
    3060:	10 82       	st	Z, r1
    3062:	11 82       	std	Z+1, r1	; 0x01
    3064:	12 82       	std	Z+2, r1	; 0x02
    3066:	13 82       	std	Z+3, r1	; 0x03
uint8_t Timebase_DownCounter_Get_Status(uint8_t window){
  return Timebase->DownCounter[window].Status.Value;
}

void Timebase_DownCounter_Set_Status(uint8_t window, uint8_t value){
  Timebase->DownCounter[window].Status.Value = value;
    3068:	35 97       	sbiw	r30, 0x05	; 5
    306a:	80 81       	ld	r24, Z
void Timebase_DownCounter_Set_Period_Flag(uint8_t window){
  Timebase->DownCounter[window].Status.PeriodFlag = FLAG_STATE_SET;
}

void Timebase_DownCounter_Clear_Period_Flag(uint8_t window){
  Timebase->DownCounter[window].Status.PeriodFlag = FLAG_STATE_RESET;
    306c:	80 7e       	andi	r24, 0xE0	; 224
    306e:	80 83       	st	Z, r24

void Timebase_DownCounter_Reset_All(void){
  for(uint8_t i=0; i<TIMEBASE_DOWNCOUNTER; i++){
    Timebase_DownCounter_Reset(i);
  }
}
    3070:	08 95       	ret

00003072 <Timebase_Reset>:

/*******************************Common Functions Start******************************/

void Timebase_Reset(void){
  #ifdef TIMEBASE_UPCOUNTER
  Timebase_UpCounter_Reset_All();
    3072:	0e 94 19 10 	call	0x2032	; 0x2032 <Timebase_UpCounter_Reset_All>
  #endif
  #ifdef TIMEBASE_DOWNCOUNTER_SUBSECONDS
  Timebase_DownCounter_SS_Reset_All();
    3076:	0e 94 94 14 	call	0x2928	; 0x2928 <Timebase_DownCounter_SS_Reset_All>
  #endif
  #ifdef TIMEBASE_DOWNCOUNTER
  Timebase_DownCounter_Reset_All();
    307a:	0e 94 26 18 	call	0x304c	; 0x304c <Timebase_DownCounter_Reset_All>
  #endif
  
}
    307e:	08 95       	ret

00003080 <Timebase_Init>:

void Timebase_Init(uint16_t UpdateRateHz){
    3080:	0f 93       	push	r16
    3082:	1f 93       	push	r17
    3084:	8c 01       	movw	r16, r24
  Timebase_Struct_Init();
    3086:	0e 94 1c 03 	call	0x638	; 0x638 <Timebase_Struct_Init>
  Timebase_Timer_Config(UpdateRateHz);
    308a:	c8 01       	movw	r24, r16
    308c:	0e 94 07 04 	call	0x80e	; 0x80e <Timebase_Timer_Config>
  Timebase_Reset();
    3090:	0e 94 39 18 	call	0x3072	; 0x3072 <Timebase_Reset>
}
    3094:	1f 91       	pop	r17
    3096:	0f 91       	pop	r16
    3098:	08 95       	ret

0000309a <Timebase_Main_Loop_Executables>:

void Timebase_Main_Loop_Executables(void){
  
  #ifdef TIMEBASE_UPCOUNTER_SUBSECONDS
  if(Timebase->UpdateRequest & UPCOUNTER_SS_UPDATE_REQ){
    309a:	e0 91 43 01 	lds	r30, 0x0143
    309e:	f0 91 44 01 	lds	r31, 0x0144
    30a2:	86 8d       	ldd	r24, Z+30	; 0x1e
    30a4:	82 ff       	sbrs	r24, 2
    30a6:	0b c0       	rjmp	.+22     	; 0x30be <Timebase_Main_Loop_Executables+0x24>
    Timebase_Timer_Sync_With_Shadow_Variables();
    30a8:	0e 94 30 05 	call	0xa60	; 0xa60 <Timebase_Timer_Sync_With_Shadow_Variables>
    Timebase_UpCounter_SS_Update_All();
    30ac:	0e 94 ee 0b 	call	0x17dc	; 0x17dc <Timebase_UpCounter_SS_Update_All>
	Timebase->UpdateRequest &=~ UPCOUNTER_SS_UPDATE_REQ;
    30b0:	e0 91 43 01 	lds	r30, 0x0143
    30b4:	f0 91 44 01 	lds	r31, 0x0144
    30b8:	86 8d       	ldd	r24, Z+30	; 0x1e
    30ba:	8b 7f       	andi	r24, 0xFB	; 251
    30bc:	86 8f       	std	Z+30, r24	; 0x1e
  }
  #endif

  #ifdef TIMEBASE_UPCOUNTER
  if(Timebase->UpdateRequest & UPCOUNTER_UPDATE_REQ){
    30be:	e0 91 43 01 	lds	r30, 0x0143
    30c2:	f0 91 44 01 	lds	r31, 0x0144
    30c6:	86 8d       	ldd	r24, Z+30	; 0x1e
    30c8:	80 ff       	sbrs	r24, 0
    30ca:	0b c0       	rjmp	.+22     	; 0x30e2 <Timebase_Main_Loop_Executables+0x48>
    Timebase_Timer_Sync_With_Shadow_Variables();
    30cc:	0e 94 30 05 	call	0xa60	; 0xa60 <Timebase_Timer_Sync_With_Shadow_Variables>
    Timebase_UpCounter_Update_All();
    30d0:	0e 94 15 10 	call	0x202a	; 0x202a <Timebase_UpCounter_Update_All>
	Timebase->UpdateRequest &=~ UPCOUNTER_UPDATE_REQ;
    30d4:	e0 91 43 01 	lds	r30, 0x0143
    30d8:	f0 91 44 01 	lds	r31, 0x0144
    30dc:	86 8d       	ldd	r24, Z+30	; 0x1e
    30de:	8e 7f       	andi	r24, 0xFE	; 254
    30e0:	86 8f       	std	Z+30, r24	; 0x1e
  #endif
  
  
  
  #ifdef TIMEBASE_DOWNCOUNTER_SUBSECONDS
  if(Timebase->UpdateRequest & DOWNCOUNTER_SS_UPDATE_REQ){
    30e2:	e0 91 43 01 	lds	r30, 0x0143
    30e6:	f0 91 44 01 	lds	r31, 0x0144
    30ea:	86 8d       	ldd	r24, Z+30	; 0x1e
    30ec:	83 ff       	sbrs	r24, 3
    30ee:	0b c0       	rjmp	.+22     	; 0x3106 <Timebase_Main_Loop_Executables+0x6c>
    Timebase_Timer_Sync_With_Shadow_Variables();
    30f0:	0e 94 30 05 	call	0xa60	; 0xa60 <Timebase_Timer_Sync_With_Shadow_Variables>
    Timebase_DownCounter_SS_Update_All();
    30f4:	0e 94 90 14 	call	0x2920	; 0x2920 <Timebase_DownCounter_SS_Update_All>
	Timebase->UpdateRequest &=~ DOWNCOUNTER_SS_UPDATE_REQ;
    30f8:	e0 91 43 01 	lds	r30, 0x0143
    30fc:	f0 91 44 01 	lds	r31, 0x0144
    3100:	86 8d       	ldd	r24, Z+30	; 0x1e
    3102:	87 7f       	andi	r24, 0xF7	; 247
    3104:	86 8f       	std	Z+30, r24	; 0x1e
  }
  #endif
  
  #ifdef TIMEBASE_DOWNCOUNTER
  if(Timebase->UpdateRequest & DOWNCOUNTER_UPDATE_REQ){
    3106:	e0 91 43 01 	lds	r30, 0x0143
    310a:	f0 91 44 01 	lds	r31, 0x0144
    310e:	86 8d       	ldd	r24, Z+30	; 0x1e
    3110:	81 ff       	sbrs	r24, 1
    3112:	0b c0       	rjmp	.+22     	; 0x312a <Timebase_Main_Loop_Executables+0x90>
    Timebase_Timer_Sync_With_Shadow_Variables();
    3114:	0e 94 30 05 	call	0xa60	; 0xa60 <Timebase_Timer_Sync_With_Shadow_Variables>
    Timebase_DownCounter_Update_All();
    3118:	0e 94 22 18 	call	0x3044	; 0x3044 <Timebase_DownCounter_Update_All>
	Timebase->UpdateRequest &=~ DOWNCOUNTER_UPDATE_REQ;
    311c:	e0 91 43 01 	lds	r30, 0x0143
    3120:	f0 91 44 01 	lds	r31, 0x0144
    3124:	86 8d       	ldd	r24, Z+30	; 0x1e
    3126:	8d 7f       	andi	r24, 0xFD	; 253
    3128:	86 8f       	std	Z+30, r24	; 0x1e
  }
  #endif
  Timebase->Time.VariablesSync = TIMEBASE_FALSE;
    312a:	e0 91 43 01 	lds	r30, 0x0143
    312e:	f0 91 44 01 	lds	r31, 0x0144
    3132:	14 8a       	std	Z+20, r1	; 0x14
}
    3134:	08 95       	ret

00003136 <Timebase_ISR_Executables>:

void Timebase_ISR_Executables(void){
  Timebase->Time.SubSecondsShadow++;
    3136:	e0 91 43 01 	lds	r30, 0x0143
    313a:	f0 91 44 01 	lds	r31, 0x0144
    313e:	86 85       	ldd	r24, Z+14	; 0x0e
    3140:	97 85       	ldd	r25, Z+15	; 0x0f
    3142:	01 96       	adiw	r24, 0x01	; 1
    3144:	97 87       	std	Z+15, r25	; 0x0f
    3146:	86 87       	std	Z+14, r24	; 0x0e
  
  #ifdef TIMEBASE_UPCOUNTER_SUBSECONDS
  Timebase->UpdateRequest |= UPCOUNTER_SS_UPDATE_REQ;
    3148:	86 8d       	ldd	r24, Z+30	; 0x1e
    314a:	84 60       	ori	r24, 0x04	; 4
    314c:	86 8f       	std	Z+30, r24	; 0x1e
  #endif
  
  #ifdef TIMEBASE_DOWNCOUNTER_SUBSECONDS
  Timebase->UpdateRequest |= DOWNCOUNTER_SS_UPDATE_REQ;
    314e:	86 8d       	ldd	r24, Z+30	; 0x1e
    3150:	88 60       	ori	r24, 0x08	; 8
    3152:	86 8f       	std	Z+30, r24	; 0x1e
  #endif
  
  if(Timebase->Time.SubSecondsShadow >= Timebase->Config.UpdateRate){
    3154:	26 85       	ldd	r18, Z+14	; 0x0e
    3156:	37 85       	ldd	r19, Z+15	; 0x0f
    3158:	81 81       	ldd	r24, Z+1	; 0x01
    315a:	92 81       	ldd	r25, Z+2	; 0x02
    315c:	28 17       	cp	r18, r24
    315e:	39 07       	cpc	r19, r25
    3160:	98 f0       	brcs	.+38     	; 0x3188 <Timebase_ISR_Executables+0x52>
    Timebase->Time.SecondsShadow++;
    3162:	80 89       	ldd	r24, Z+16	; 0x10
    3164:	91 89       	ldd	r25, Z+17	; 0x11
    3166:	a2 89       	ldd	r26, Z+18	; 0x12
    3168:	b3 89       	ldd	r27, Z+19	; 0x13
    316a:	01 96       	adiw	r24, 0x01	; 1
    316c:	a1 1d       	adc	r26, r1
    316e:	b1 1d       	adc	r27, r1
    3170:	80 8b       	std	Z+16, r24	; 0x10
    3172:	91 8b       	std	Z+17, r25	; 0x11
    3174:	a2 8b       	std	Z+18, r26	; 0x12
    3176:	b3 8b       	std	Z+19, r27	; 0x13
    Timebase->Time.SubSecondsShadow = 0;
    3178:	17 86       	std	Z+15, r1	; 0x0f
    317a:	16 86       	std	Z+14, r1	; 0x0e
	
	#ifdef TIMEBASE_UPCOUNTER
    Timebase->UpdateRequest |= UPCOUNTER_UPDATE_REQ;
    317c:	86 8d       	ldd	r24, Z+30	; 0x1e
    317e:	81 60       	ori	r24, 0x01	; 1
    3180:	86 8f       	std	Z+30, r24	; 0x1e
    #endif
	
	#ifdef TIMEBASE_DOWNCOUNTER
    Timebase->UpdateRequest |= DOWNCOUNTER_UPDATE_REQ;
    3182:	86 8d       	ldd	r24, Z+30	; 0x1e
    3184:	82 60       	ori	r24, 0x02	; 2
    3186:	86 8f       	std	Z+30, r24	; 0x1e
    3188:	08 95       	ret

0000318a <__vector_16>:



/*************************************ISR Start************************************/

ISR(TIMER0_OVF_vect){
    318a:	1f 92       	push	r1
    318c:	0f 92       	push	r0
    318e:	0f b6       	in	r0, 0x3f	; 63
    3190:	0f 92       	push	r0
    3192:	11 24       	eor	r1, r1
    3194:	2f 93       	push	r18
    3196:	3f 93       	push	r19
    3198:	4f 93       	push	r20
    319a:	5f 93       	push	r21
    319c:	6f 93       	push	r22
    319e:	7f 93       	push	r23
    31a0:	8f 93       	push	r24
    31a2:	9f 93       	push	r25
    31a4:	af 93       	push	r26
    31a6:	bf 93       	push	r27
    31a8:	ef 93       	push	r30
    31aa:	ff 93       	push	r31
  TCNT0  = Timebase->Time.OVFUpdateValue;
    31ac:	e0 91 43 01 	lds	r30, 0x0143
    31b0:	f0 91 44 01 	lds	r31, 0x0144
    31b4:	83 81       	ldd	r24, Z+3	; 0x03
    31b6:	86 bd       	out	0x26, r24	; 38
  Timebase_ISR_Executables();
    31b8:	0e 94 9b 18 	call	0x3136	; 0x3136 <Timebase_ISR_Executables>
}
    31bc:	ff 91       	pop	r31
    31be:	ef 91       	pop	r30
    31c0:	bf 91       	pop	r27
    31c2:	af 91       	pop	r26
    31c4:	9f 91       	pop	r25
    31c6:	8f 91       	pop	r24
    31c8:	7f 91       	pop	r23
    31ca:	6f 91       	pop	r22
    31cc:	5f 91       	pop	r21
    31ce:	4f 91       	pop	r20
    31d0:	3f 91       	pop	r19
    31d2:	2f 91       	pop	r18
    31d4:	0f 90       	pop	r0
    31d6:	0f be       	out	0x3f, r0	; 63
    31d8:	0f 90       	pop	r0
    31da:	1f 90       	pop	r1
    31dc:	18 95       	reti

000031de <__mulsi3>:
    31de:	62 9f       	mul	r22, r18
    31e0:	d0 01       	movw	r26, r0
    31e2:	73 9f       	mul	r23, r19
    31e4:	f0 01       	movw	r30, r0
    31e6:	82 9f       	mul	r24, r18
    31e8:	e0 0d       	add	r30, r0
    31ea:	f1 1d       	adc	r31, r1
    31ec:	64 9f       	mul	r22, r20
    31ee:	e0 0d       	add	r30, r0
    31f0:	f1 1d       	adc	r31, r1
    31f2:	92 9f       	mul	r25, r18
    31f4:	f0 0d       	add	r31, r0
    31f6:	83 9f       	mul	r24, r19
    31f8:	f0 0d       	add	r31, r0
    31fa:	74 9f       	mul	r23, r20
    31fc:	f0 0d       	add	r31, r0
    31fe:	65 9f       	mul	r22, r21
    3200:	f0 0d       	add	r31, r0
    3202:	99 27       	eor	r25, r25
    3204:	72 9f       	mul	r23, r18
    3206:	b0 0d       	add	r27, r0
    3208:	e1 1d       	adc	r30, r1
    320a:	f9 1f       	adc	r31, r25
    320c:	63 9f       	mul	r22, r19
    320e:	b0 0d       	add	r27, r0
    3210:	e1 1d       	adc	r30, r1
    3212:	f9 1f       	adc	r31, r25
    3214:	bd 01       	movw	r22, r26
    3216:	cf 01       	movw	r24, r30
    3218:	11 24       	eor	r1, r1
    321a:	08 95       	ret

0000321c <__udivmodsi4>:
    321c:	a1 e2       	ldi	r26, 0x21	; 33
    321e:	1a 2e       	mov	r1, r26
    3220:	aa 1b       	sub	r26, r26
    3222:	bb 1b       	sub	r27, r27
    3224:	fd 01       	movw	r30, r26
    3226:	0d c0       	rjmp	.+26     	; 0x3242 <__udivmodsi4_ep>

00003228 <__udivmodsi4_loop>:
    3228:	aa 1f       	adc	r26, r26
    322a:	bb 1f       	adc	r27, r27
    322c:	ee 1f       	adc	r30, r30
    322e:	ff 1f       	adc	r31, r31
    3230:	a2 17       	cp	r26, r18
    3232:	b3 07       	cpc	r27, r19
    3234:	e4 07       	cpc	r30, r20
    3236:	f5 07       	cpc	r31, r21
    3238:	20 f0       	brcs	.+8      	; 0x3242 <__udivmodsi4_ep>
    323a:	a2 1b       	sub	r26, r18
    323c:	b3 0b       	sbc	r27, r19
    323e:	e4 0b       	sbc	r30, r20
    3240:	f5 0b       	sbc	r31, r21

00003242 <__udivmodsi4_ep>:
    3242:	66 1f       	adc	r22, r22
    3244:	77 1f       	adc	r23, r23
    3246:	88 1f       	adc	r24, r24
    3248:	99 1f       	adc	r25, r25
    324a:	1a 94       	dec	r1
    324c:	69 f7       	brne	.-38     	; 0x3228 <__udivmodsi4_loop>
    324e:	60 95       	com	r22
    3250:	70 95       	com	r23
    3252:	80 95       	com	r24
    3254:	90 95       	com	r25
    3256:	9b 01       	movw	r18, r22
    3258:	ac 01       	movw	r20, r24
    325a:	bd 01       	movw	r22, r26
    325c:	cf 01       	movw	r24, r30
    325e:	08 95       	ret

00003260 <__divmodsi4>:
    3260:	97 fb       	bst	r25, 7
    3262:	09 2e       	mov	r0, r25
    3264:	05 26       	eor	r0, r21
    3266:	0e d0       	rcall	.+28     	; 0x3284 <__divmodsi4_neg1>
    3268:	57 fd       	sbrc	r21, 7
    326a:	04 d0       	rcall	.+8      	; 0x3274 <__divmodsi4_neg2>
    326c:	d7 df       	rcall	.-82     	; 0x321c <__udivmodsi4>
    326e:	0a d0       	rcall	.+20     	; 0x3284 <__divmodsi4_neg1>
    3270:	00 1c       	adc	r0, r0
    3272:	38 f4       	brcc	.+14     	; 0x3282 <__divmodsi4_exit>

00003274 <__divmodsi4_neg2>:
    3274:	50 95       	com	r21
    3276:	40 95       	com	r20
    3278:	30 95       	com	r19
    327a:	21 95       	neg	r18
    327c:	3f 4f       	sbci	r19, 0xFF	; 255
    327e:	4f 4f       	sbci	r20, 0xFF	; 255
    3280:	5f 4f       	sbci	r21, 0xFF	; 255

00003282 <__divmodsi4_exit>:
    3282:	08 95       	ret

00003284 <__divmodsi4_neg1>:
    3284:	f6 f7       	brtc	.-4      	; 0x3282 <__divmodsi4_exit>
    3286:	90 95       	com	r25
    3288:	80 95       	com	r24
    328a:	70 95       	com	r23
    328c:	61 95       	neg	r22
    328e:	7f 4f       	sbci	r23, 0xFF	; 255
    3290:	8f 4f       	sbci	r24, 0xFF	; 255
    3292:	9f 4f       	sbci	r25, 0xFF	; 255
    3294:	08 95       	ret

00003296 <_exit>:
    3296:	f8 94       	cli

00003298 <__stop_program>:
    3298:	ff cf       	rjmp	.-2      	; 0x3298 <__stop_program>
