   1               		.file	"timebase.c"
   2               	__SREG__ = 0x3f
   3               	__SP_H__ = 0x3e
   4               	__SP_L__ = 0x3d
   5               	__CCP__  = 0x34
   6               	__tmp_reg__ = 0
   7               	__zero_reg__ = 1
  15               	.Ltext0:
  16               	.global	Timebase_Struct_Init
  18               	Timebase_Struct_Init:
  19               	.LFB6:
  20               	.LM1:
  21               	/* prologue: function */
  22               	/* frame size = 0 */
  23               	.LM2:
  24 0000 80E0      		ldi r24,lo8(Timebase_type)
  25 0002 90E0      		ldi r25,hi8(Timebase_type)
  26 0004 9093 0000 		sts (Timebase)+1,r25
  27 0008 8093 0000 		sts Timebase,r24
  28               	.LM3:
  29 000c 1092 0000 		sts Timebase_type,__zero_reg__
  30               	.LM4:
  31 0010 8091 0000 		lds r24,Timebase_type
  32 0014 8460      		ori r24,lo8(4)
  33 0016 8093 0000 		sts Timebase_type,r24
  34               	.LM5:
  35 001a 8091 0000 		lds r24,Timebase_type
  36 001e 8770      		andi r24,lo8(7)
  37 0020 8093 0000 		sts Timebase_type,r24
  38               	.LM6:
  39 0024 81E0      		ldi r24,lo8(1)
  40 0026 90E0      		ldi r25,hi8(1)
  41 0028 9093 0000 		sts (Timebase_type+1)+1,r25
  42 002c 8093 0000 		sts Timebase_type+1,r24
  43               	.LM7:
  44 0030 1092 0000 		sts Timebase_type+3,__zero_reg__
  45               	.LM8:
  46 0034 1092 0000 		sts (Timebase_type+8)+1,__zero_reg__
  47 0038 1092 0000 		sts Timebase_type+8,__zero_reg__
  48               	.LM9:
  49 003c 1092 0000 		sts Timebase_type+10,__zero_reg__
  50 0040 1092 0000 		sts (Timebase_type+10)+1,__zero_reg__
  51 0044 1092 0000 		sts (Timebase_type+10)+2,__zero_reg__
  52 0048 1092 0000 		sts (Timebase_type+10)+3,__zero_reg__
  53               	.LM10:
  54 004c 1092 0000 		sts Timebase_type+4,__zero_reg__
  55 0050 1092 0000 		sts (Timebase_type+4)+1,__zero_reg__
  56 0054 1092 0000 		sts (Timebase_type+4)+2,__zero_reg__
  57 0058 1092 0000 		sts (Timebase_type+4)+3,__zero_reg__
  58               	.LM11:
  59 005c 1092 0000 		sts Timebase_type+14,__zero_reg__
  60 0060 1092 0000 		sts (Timebase_type+14)+1,__zero_reg__
  61 0064 1092 0000 		sts (Timebase_type+14)+2,__zero_reg__
  62 0068 1092 0000 		sts (Timebase_type+14)+3,__zero_reg__
  63               	.LM12:
  64 006c 1092 0000 		sts Timebase_type+18,__zero_reg__
  65 0070 1092 0000 		sts (Timebase_type+18)+1,__zero_reg__
  66 0074 1092 0000 		sts (Timebase_type+18)+2,__zero_reg__
  67 0078 1092 0000 		sts (Timebase_type+18)+3,__zero_reg__
  68               	.LM13:
  69 007c 1092 0000 		sts Timebase_type+22,__zero_reg__
  70               	.LM14:
  71 0080 1092 0000 		sts Timebase_type+23,__zero_reg__
  72               	.LM15:
  73 0084 1092 0000 		sts Timebase_type+24,__zero_reg__
  74               	.LBB647:
  75               	.LM16:
  76 0088 1092 0000 		sts Timebase_type+50,__zero_reg__
  77               	.LM17:
  78 008c 1092 0000 		sts Timebase_type+51,__zero_reg__
  79 0090 1092 0000 		sts (Timebase_type+51)+1,__zero_reg__
  80 0094 1092 0000 		sts (Timebase_type+51)+2,__zero_reg__
  81 0098 1092 0000 		sts (Timebase_type+51)+3,__zero_reg__
  82               	.LM18:
  83 009c 1092 0000 		sts Timebase_type+55,__zero_reg__
  84 00a0 1092 0000 		sts (Timebase_type+55)+1,__zero_reg__
  85 00a4 1092 0000 		sts (Timebase_type+55)+2,__zero_reg__
  86 00a8 1092 0000 		sts (Timebase_type+55)+3,__zero_reg__
  87               	.LM19:
  88 00ac 1092 0000 		sts Timebase_type+59,__zero_reg__
  89 00b0 1092 0000 		sts (Timebase_type+59)+1,__zero_reg__
  90 00b4 1092 0000 		sts (Timebase_type+59)+2,__zero_reg__
  91 00b8 1092 0000 		sts (Timebase_type+59)+3,__zero_reg__
  92               	.LM20:
  93 00bc 1092 0000 		sts Timebase_type+63,__zero_reg__
  94 00c0 1092 0000 		sts (Timebase_type+63)+1,__zero_reg__
  95 00c4 1092 0000 		sts (Timebase_type+63)+2,__zero_reg__
  96 00c8 1092 0000 		sts (Timebase_type+63)+3,__zero_reg__
  97               	.LM21:
  98 00cc 1092 0000 		sts Timebase_type+67,__zero_reg__
  99 00d0 1092 0000 		sts (Timebase_type+67)+1,__zero_reg__
 100 00d4 1092 0000 		sts (Timebase_type+67)+2,__zero_reg__
 101 00d8 1092 0000 		sts (Timebase_type+67)+3,__zero_reg__
 102               	.LBE647:
 103               	.LBB648:
 104               	.LM22:
 105 00dc 1092 0000 		sts Timebase_type+25,__zero_reg__
 106               	.LM23:
 107 00e0 1092 0000 		sts Timebase_type+26,__zero_reg__
 108 00e4 1092 0000 		sts (Timebase_type+26)+1,__zero_reg__
 109 00e8 1092 0000 		sts (Timebase_type+26)+2,__zero_reg__
 110 00ec 1092 0000 		sts (Timebase_type+26)+3,__zero_reg__
 111               	.LM24:
 112 00f0 1092 0000 		sts Timebase_type+30,__zero_reg__
 113 00f4 1092 0000 		sts (Timebase_type+30)+1,__zero_reg__
 114 00f8 1092 0000 		sts (Timebase_type+30)+2,__zero_reg__
 115 00fc 1092 0000 		sts (Timebase_type+30)+3,__zero_reg__
 116               	.LM25:
 117 0100 1092 0000 		sts Timebase_type+34,__zero_reg__
 118 0104 1092 0000 		sts (Timebase_type+34)+1,__zero_reg__
 119 0108 1092 0000 		sts (Timebase_type+34)+2,__zero_reg__
 120 010c 1092 0000 		sts (Timebase_type+34)+3,__zero_reg__
 121               	.LM26:
 122 0110 1092 0000 		sts Timebase_type+38,__zero_reg__
 123 0114 1092 0000 		sts (Timebase_type+38)+1,__zero_reg__
 124 0118 1092 0000 		sts (Timebase_type+38)+2,__zero_reg__
 125 011c 1092 0000 		sts (Timebase_type+38)+3,__zero_reg__
 126               	.LM27:
 127 0120 1092 0000 		sts Timebase_type+42,__zero_reg__
 128 0124 1092 0000 		sts (Timebase_type+42)+1,__zero_reg__
 129 0128 1092 0000 		sts (Timebase_type+42)+2,__zero_reg__
 130 012c 1092 0000 		sts (Timebase_type+42)+3,__zero_reg__
 131               	.LM28:
 132 0130 1092 0000 		sts Timebase_type+46,__zero_reg__
 133 0134 1092 0000 		sts (Timebase_type+46)+1,__zero_reg__
 134 0138 1092 0000 		sts (Timebase_type+46)+2,__zero_reg__
 135 013c 1092 0000 		sts (Timebase_type+46)+3,__zero_reg__
 136               	.LBE648:
 137               	.LBB649:
 138               	.LM29:
 139 0140 1092 0000 		sts Timebase_type+88,__zero_reg__
 140               	.LM30:
 141 0144 1092 0000 		sts Timebase_type+89,__zero_reg__
 142 0148 1092 0000 		sts (Timebase_type+89)+1,__zero_reg__
 143 014c 1092 0000 		sts (Timebase_type+89)+2,__zero_reg__
 144 0150 1092 0000 		sts (Timebase_type+89)+3,__zero_reg__
 145               	.LM31:
 146 0154 1092 0000 		sts Timebase_type+93,__zero_reg__
 147 0158 1092 0000 		sts (Timebase_type+93)+1,__zero_reg__
 148 015c 1092 0000 		sts (Timebase_type+93)+2,__zero_reg__
 149 0160 1092 0000 		sts (Timebase_type+93)+3,__zero_reg__
 150               	.LM32:
 151 0164 1092 0000 		sts Timebase_type+97,__zero_reg__
 152 0168 1092 0000 		sts (Timebase_type+97)+1,__zero_reg__
 153 016c 1092 0000 		sts (Timebase_type+97)+2,__zero_reg__
 154 0170 1092 0000 		sts (Timebase_type+97)+3,__zero_reg__
 155               	.LBE649:
 156               	.LBB650:
 157               	.LM33:
 158 0174 1092 0000 		sts Timebase_type+71,__zero_reg__
 159               	.LM34:
 160 0178 1092 0000 		sts Timebase_type+72,__zero_reg__
 161 017c 1092 0000 		sts (Timebase_type+72)+1,__zero_reg__
 162 0180 1092 0000 		sts (Timebase_type+72)+2,__zero_reg__
 163 0184 1092 0000 		sts (Timebase_type+72)+3,__zero_reg__
 164               	.LM35:
 165 0188 1092 0000 		sts Timebase_type+76,__zero_reg__
 166 018c 1092 0000 		sts (Timebase_type+76)+1,__zero_reg__
 167 0190 1092 0000 		sts (Timebase_type+76)+2,__zero_reg__
 168 0194 1092 0000 		sts (Timebase_type+76)+3,__zero_reg__
 169               	.LM36:
 170 0198 1092 0000 		sts Timebase_type+80,__zero_reg__
 171 019c 1092 0000 		sts (Timebase_type+80)+1,__zero_reg__
 172 01a0 1092 0000 		sts (Timebase_type+80)+2,__zero_reg__
 173 01a4 1092 0000 		sts (Timebase_type+80)+3,__zero_reg__
 174               	.LM37:
 175 01a8 1092 0000 		sts Timebase_type+84,__zero_reg__
 176 01ac 1092 0000 		sts (Timebase_type+84)+1,__zero_reg__
 177 01b0 1092 0000 		sts (Timebase_type+84)+2,__zero_reg__
 178 01b4 1092 0000 		sts (Timebase_type+84)+3,__zero_reg__
 179               	/* epilogue start */
 180               	.LBE650:
 181               	.LM38:
 182 01b8 0895      		ret
 183               	.LFE6:
 185               	.global	Timebase_Timer_Config
 187               	Timebase_Timer_Config:
 188               	.LFB7:
 189               	.LM39:
 190               	.LVL0:
 191 01ba 7F92      		push r7
 192 01bc 8F92      		push r8
 193 01be 9F92      		push r9
 194 01c0 AF92      		push r10
 195 01c2 BF92      		push r11
 196 01c4 CF92      		push r12
 197 01c6 DF92      		push r13
 198 01c8 EF92      		push r14
 199 01ca FF92      		push r15
 200 01cc 0F93      		push r16
 201 01ce 1F93      		push r17
 202 01d0 DF93      		push r29
 203 01d2 CF93      		push r28
 204 01d4 CDB7      		in r28,__SP_L__
 205 01d6 DEB7      		in r29,__SP_H__
 206 01d8 2A97      		sbiw r28,10
 207 01da 0FB6      		in __tmp_reg__,__SREG__
 208 01dc F894      		cli
 209 01de DEBF      		out __SP_H__,r29
 210 01e0 0FBE      		out __SREG__,__tmp_reg__
 211 01e2 CDBF      		out __SP_L__,r28
 212               	/* prologue: function */
 213               	/* frame size = 10 */
 214 01e4 8C01      		movw r16,r24
 215               	.LM40:
 216 01e6 C090 0000 		lds r12,Timebase
 217 01ea D090 0000 		lds r13,(Timebase)+1
 218 01ee F601      		movw r30,r12
 219 01f0 8081      		ld r24,Z
 220               	.LVL1:
 221 01f2 80FF      		sbrs r24,0
 222 01f4 00C0      		rjmp .L4
 223               	.LBB651:
 224               	.LM41:
 225 01f6 0130      		cpi r16,1
 226 01f8 1105      		cpc r17,__zero_reg__
 227 01fa 01F4      		brne .L5
 228 01fc 96E0      		ldi r25,lo8(6)
 229               	.LVL2:
 230 01fe 00C0      		rjmp .L6
 231               	.LVL3:
 232               	.L5:
 233               	.LM42:
 234 0200 0230      		cpi r16,2
 235 0202 1105      		cpc r17,__zero_reg__
 236 0204 01F4      		brne .L7
 237 0206 95E0      		ldi r25,lo8(5)
 238               	.LVL4:
 239 0208 00C0      		rjmp .L6
 240               	.LVL5:
 241               	.L7:
 242               	.LM43:
 243 020a 0430      		cpi r16,4
 244 020c 1105      		cpc r17,__zero_reg__
 245 020e 01F4      		brne .L8
 246 0210 94E0      		ldi r25,lo8(4)
 247               	.LVL6:
 248 0212 00C0      		rjmp .L6
 249               	.LVL7:
 250               	.L8:
 251               	.LM44:
 252 0214 0830      		cpi r16,8
 253 0216 1105      		cpc r17,__zero_reg__
 254 0218 01F4      		brne .L9
 255 021a 93E0      		ldi r25,lo8(3)
 256               	.LVL8:
 257 021c 00C0      		rjmp .L6
 258               	.LVL9:
 259               	.L9:
 260               	.LM45:
 261 021e 0031      		cpi r16,16
 262 0220 1105      		cpc r17,__zero_reg__
 263 0222 01F4      		brne .L10
 264 0224 92E0      		ldi r25,lo8(2)
 265               	.LVL10:
 266 0226 00C0      		rjmp .L6
 267               	.LVL11:
 268               	.L10:
 269 0228 90E0      		ldi r25,lo8(0)
 270               	.LVL12:
 271 022a 0032      		cpi r16,32
 272 022c 1105      		cpc r17,__zero_reg__
 273 022e 01F4      		brne .L6
 274 0230 91E0      		ldi r25,lo8(1)
 275               	.L6:
 276               	.LM46:
 277               	/* #APP */
 278               	 ;  268 "timebase.c" 1
 279 0232 F894      		cli
 280               	 ;  0 "" 2
 281               	.LM47:
 282               	/* #NOAPP */
 283 0234 84B7      		in r24,84-32
 284 0236 877F      		andi r24,lo8(-9)
 285 0238 84BF      		out 84-32,r24
 286               	.LM48:
 287 023a 8091 6000 		lds r24,96
 288 023e 8068      		ori r24,lo8(-128)
 289 0240 8093 6000 		sts 96,r24
 290               	.LM49:
 291 0244 8091 6000 		lds r24,96
 292 0248 8861      		ori r24,lo8(24)
 293 024a 8093 6000 		sts 96,r24
 294               	.LM50:
 295 024e 9064      		ori r25,lo8(64)
 296 0250 9093 6000 		sts 96,r25
 297               	.LM51:
 298               	/* #APP */
 299               	 ;  273 "timebase.c" 1
 300 0254 7894      		sei
 301               	 ;  0 "" 2
 302               	/* #NOAPP */
 303 0256 00C0      		rjmp .L12
 304               	.LVL13:
 305               	.L4:
 306               	.LBE651:
 307               	.LM52:
 308 0258 81FD      		sbrc r24,1
 309 025a 00C0      		rjmp .L12
 310               	.LM53:
 311 025c 82FF      		sbrs r24,2
 312 025e 00C0      		rjmp .L12
 313               	.LBB652:
 314               	.LM54:
 315 0260 DE01      		movw r26,r28
 316 0262 1196      		adiw r26,1
 317 0264 E0E0      		ldi r30,lo8(C.2.1694)
 318 0266 F0E0      		ldi r31,hi8(C.2.1694)
 319 0268 8AE0      		ldi r24,lo8(10)
 320               	.L13:
 321 026a 0190      		ld r0,Z+
 322 026c 0D92      		st X+,r0
 323 026e 8150      		subi r24,lo8(-(-1))
 324 0270 01F4      		brne .L13
 325               	.LM55:
 326 0272 9801      		movw r18,r16
 327 0274 40E0      		ldi r20,lo8(0)
 328 0276 50E0      		ldi r21,hi8(0)
 329               	.LVL14:
 330 0278 60E0      		ldi r22,lo8(12000000)
 331 027a 7BE1      		ldi r23,hi8(12000000)
 332 027c 87EB      		ldi r24,hlo8(12000000)
 333 027e 90E0      		ldi r25,hhi8(12000000)
 334 0280 0E94 0000 		call __divmodsi4
 335 0284 722E      		mov r7,r18
 336 0286 832E      		mov r8,r19
 337 0288 942E      		mov r9,r20
 338               	.LVL15:
 339 028a E52E      		mov r14,r21
 340 028c 5E01      		movw r10,r28
 341 028e 0894      		sec
 342 0290 A11C      		adc r10,__zero_reg__
 343 0292 B11C      		adc r11,__zero_reg__
 344 0294 C901      		movw r24,r18
 345 0296 DA01      		movw r26,r20
 346 0298 9C01      		movw r18,r24
 347 029a AD01      		movw r20,r26
 348               	.LVL16:
 349 029c FF24      		clr r15
 350               	.LVL17:
 351 029e 00C0      		rjmp .L14
 352               	.LVL18:
 353               	.L16:
 354               	.LM56:
 355 02a0 F501      		movw r30,r10
 356 02a2 2191      		ld r18,Z+
 357 02a4 3191      		ld r19,Z+
 358               	.LVL19:
 359 02a6 5F01      		movw r10,r30
 360 02a8 40E0      		ldi r20,lo8(0)
 361 02aa 50E0      		ldi r21,hi8(0)
 362 02ac 672D      		mov r22,r7
 363 02ae 782D      		mov r23,r8
 364 02b0 892D      		mov r24,r9
 365               	.LVL20:
 366 02b2 9E2D      		mov r25,r14
 367 02b4 0E94 0000 		call __divmodsi4
 368 02b8 C901      		movw r24,r18
 369 02ba DA01      		movw r26,r20
 370 02bc 9C01      		movw r18,r24
 371 02be AD01      		movw r20,r26
 372               	.LVL21:
 373               	.LM57:
 374 02c0 F394      		inc r15
 375               	.LM58:
 376 02c2 F5E0      		ldi r31,lo8(5)
 377 02c4 FF16      		cp r15,r31
 378 02c6 01F0      		breq .L15
 379               	.LVL22:
 380               	.L14:
 381               	.LM59:
 382 02c8 2F3F      		cpi r18,lo8(255)
 383 02ca 3105      		cpc r19,__zero_reg__
 384 02cc 4105      		cpc r20,__zero_reg__
 385 02ce 5105      		cpc r21,__zero_reg__
 386 02d0 01F0      		breq .+2
 387 02d2 04F4      		brge .L16
 388               	.L15:
 389               	.LM60:
 390 02d4 8F2D      		mov r24,r15
 391 02d6 8150      		subi r24,lo8(-(-1))
 392               	.LVL23:
 393               	.LM61:
 394 02d8 14BC      		out 68-32,__zero_reg__
 395               	.LM62:
 396 02da 15BC      		out 69-32,__zero_reg__
 397               	.LM63:
 398 02dc 1092 6E00 		sts 110,__zero_reg__
 399               	.LM64:
 400 02e0 15BA      		out 53-32,__zero_reg__
 401               	.LM65:
 402 02e2 17BC      		out 71-32,__zero_reg__
 403               	.LM66:
 404 02e4 18BC      		out 72-32,__zero_reg__
 405               	.LM67:
 406 02e6 16BC      		out 70-32,__zero_reg__
 407               	.LM68:
 408 02e8 17BC      		out 71-32,__zero_reg__
 409               	.LM69:
 410 02ea 8823      		tst r24
 411 02ec 01F4      		brne .L17
 412               	.LM70:
 413 02ee 81E0      		ldi r24,lo8(1)
 414               	.LVL24:
 415 02f0 00C0      		rjmp .L24
 416               	.LVL25:
 417               	.L17:
 418               	.LM71:
 419 02f2 8130      		cpi r24,lo8(1)
 420 02f4 01F4      		brne .L19
 421               	.LM72:
 422 02f6 82E0      		ldi r24,lo8(2)
 423               	.LVL26:
 424 02f8 00C0      		rjmp .L24
 425               	.LVL27:
 426               	.L19:
 427               	.LM73:
 428 02fa 8230      		cpi r24,lo8(2)
 429 02fc 01F4      		brne .L20
 430               	.LM74:
 431 02fe 83E0      		ldi r24,lo8(3)
 432               	.LVL28:
 433 0300 00C0      		rjmp .L24
 434               	.LVL29:
 435               	.L20:
 436               	.LM75:
 437 0302 8330      		cpi r24,lo8(3)
 438 0304 01F4      		brne .L21
 439               	.LM76:
 440 0306 84E0      		ldi r24,lo8(4)
 441               	.LVL30:
 442 0308 00C0      		rjmp .L24
 443               	.LVL31:
 444               	.L21:
 445               	.LM77:
 446 030a 8430      		cpi r24,lo8(4)
 447 030c 01F4      		brne .L18
 448               	.LM78:
 449 030e 85E0      		ldi r24,lo8(5)
 450               	.LVL32:
 451               	.L24:
 452 0310 85BD      		out 69-32,r24
 453               	.LVL33:
 454               	.L18:
 455               	.LM79:
 456 0312 822F      		mov r24,r18
 457               	.LVL34:
 458 0314 8095      		com r24
 459 0316 F601      		movw r30,r12
 460 0318 8383      		std Z+3,r24
 461               	.LM80:
 462 031a 8381      		ldd r24,Z+3
 463 031c 86BD      		out 70-32,r24
 464               	.LM81:
 465 031e 81E0      		ldi r24,lo8(1)
 466 0320 8093 6E00 		sts 110,r24
 467               	.LM82:
 468               	/* #APP */
 469               	 ;  321 "timebase.c" 1
 470 0324 7894      		sei
 471               	 ;  0 "" 2
 472               	.LVL35:
 473               	/* #NOAPP */
 474               	.L12:
 475               	.LBE652:
 476               	.LM83:
 477 0326 F601      		movw r30,r12
 478 0328 1283      		std Z+2,r17
 479 032a 0183      		std Z+1,r16
 480               	/* epilogue start */
 481               	.LM84:
 482 032c 2A96      		adiw r28,10
 483 032e 0FB6      		in __tmp_reg__,__SREG__
 484 0330 F894      		cli
 485 0332 DEBF      		out __SP_H__,r29
 486 0334 0FBE      		out __SREG__,__tmp_reg__
 487 0336 CDBF      		out __SP_L__,r28
 488 0338 CF91      		pop r28
 489 033a DF91      		pop r29
 490 033c 1F91      		pop r17
 491 033e 0F91      		pop r16
 492               	.LVL36:
 493 0340 FF90      		pop r15
 494 0342 EF90      		pop r14
 495 0344 DF90      		pop r13
 496 0346 CF90      		pop r12
 497 0348 BF90      		pop r11
 498 034a AF90      		pop r10
 499 034c 9F90      		pop r9
 500 034e 8F90      		pop r8
 501 0350 7F90      		pop r7
 502 0352 0895      		ret
 503               	.LFE7:
 505               	.global	Timebase_Atomic_Operation_Start
 507               	Timebase_Atomic_Operation_Start:
 508               	.LFB8:
 509               	.LM85:
 510               	/* prologue: function */
 511               	/* frame size = 0 */
 512               	.LM86:
 513               	/* #APP */
 514               	 ;  341 "timebase.c" 1
 515 0354 F894      		cli
 516               	 ;  0 "" 2
 517               	/* epilogue start */
 518               	.LM87:
 519               	/* #NOAPP */
 520 0356 0895      		ret
 521               	.LFE8:
 523               	.global	Timebase_Atomic_Operation_End
 525               	Timebase_Atomic_Operation_End:
 526               	.LFB9:
 527               	.LM88:
 528               	/* prologue: function */
 529               	/* frame size = 0 */
 530               	.LM89:
 531               	/* #APP */
 532               	 ;  345 "timebase.c" 1
 533 0358 7894      		sei
 534               	 ;  0 "" 2
 535               	/* epilogue start */
 536               	.LM90:
 537               	/* #NOAPP */
 538 035a 0895      		ret
 539               	.LFE9:
 541               	.global	Timebase_Token_Executing
 543               	Timebase_Token_Executing:
 544               	.LFB10:
 545               	.LM91:
 546               	/* prologue: function */
 547               	/* frame size = 0 */
 548               	.LM92:
 549 035c E091 0000 		lds r30,Timebase
 550 0360 F091 0000 		lds r31,(Timebase)+1
 551 0364 808D      		ldd r24,Z+24
 552               	/* epilogue start */
 553               	.LM93:
 554 0366 0895      		ret
 555               	.LFE10:
 557               	.global	Timebase_Token_Add
 559               	Timebase_Token_Add:
 560               	.LFB11:
 561               	.LM94:
 562               	/* prologue: function */
 563               	/* frame size = 0 */
 564               	.LBB653:
 565               	.LBB654:
 566               	.LM95:
 567 0368 E091 0000 		lds r30,Timebase
 568 036c F091 0000 		lds r31,(Timebase)+1
 569 0370 808D      		ldd r24,Z+24
 570               	.LBE654:
 571               	.LBE653:
 572               	.LM96:
 573 0372 8F33      		cpi r24,lo8(63)
 574 0374 00F4      		brsh .L33
 575               	.LM97:
 576 0376 808D      		ldd r24,Z+24
 577 0378 8F5F      		subi r24,lo8(-(1))
 578 037a 808F      		std Z+24,r24
 579               	.L33:
 580 037c 0895      		ret
 581               	.LFE11:
 583               	.global	Timebase_Token_Remove
 585               	Timebase_Token_Remove:
 586               	.LFB12:
 587               	.LM98:
 588               	/* prologue: function */
 589               	/* frame size = 0 */
 590               	.LBB655:
 591               	.LBB656:
 592               	.LM99:
 593 037e E091 0000 		lds r30,Timebase
 594 0382 F091 0000 		lds r31,(Timebase)+1
 595 0386 808D      		ldd r24,Z+24
 596               	.LBE656:
 597               	.LBE655:
 598               	.LM100:
 599 0388 8823      		tst r24
 600 038a 01F0      		breq .L36
 601               	.LM101:
 602 038c 808D      		ldd r24,Z+24
 603 038e 8150      		subi r24,lo8(-(-1))
 604 0390 808F      		std Z+24,r24
 605               	.L36:
 606 0392 0895      		ret
 607               	.LFE12:
 609               	.global	Timebase_Token_Remove_All
 611               	Timebase_Token_Remove_All:
 612               	.LFB13:
 613               	.LM102:
 614               	/* prologue: function */
 615               	/* frame size = 0 */
 616               	.LM103:
 617 0394 E091 0000 		lds r30,Timebase
 618 0398 F091 0000 		lds r31,(Timebase)+1
 619 039c 108E      		std Z+24,__zero_reg__
 620               	/* epilogue start */
 621               	.LM104:
 622 039e 0895      		ret
 623               	.LFE13:
 625               	.global	Timebase_Timer_Get_SubSeconds
 627               	Timebase_Timer_Get_SubSeconds:
 628               	.LFB14:
 629               	.LM105:
 630               	/* prologue: function */
 631               	/* frame size = 0 */
 632               	.LBB657:
 633               	.LBB658:
 634               	.LM106:
 635               	/* #APP */
 636               	 ;  341 "timebase.c" 1
 637 03a0 F894      		cli
 638               	 ;  0 "" 2
 639               	/* #NOAPP */
 640               	.LBE658:
 641               	.LBE657:
 642               	.LM107:
 643 03a2 E091 0000 		lds r30,Timebase
 644 03a6 F091 0000 		lds r31,(Timebase)+1
 645 03aa 2085      		ldd r18,Z+8
 646 03ac 3185      		ldd r19,Z+9
 647               	.LVL37:
 648               	.LBB659:
 649               	.LBB660:
 650               	.LM108:
 651               	/* #APP */
 652               	 ;  345 "timebase.c" 1
 653 03ae 7894      		sei
 654               	 ;  0 "" 2
 655               	/* #NOAPP */
 656               	.LBE660:
 657               	.LBE659:
 658               	.LM109:
 659 03b0 C901      		movw r24,r18
 660               	.LVL38:
 661               	/* epilogue start */
 662 03b2 0895      		ret
 663               	.LFE14:
 665               	.global	Timebase_Timer_Get_Seconds
 667               	Timebase_Timer_Get_Seconds:
 668               	.LFB15:
 669               	.LM110:
 670               	/* prologue: function */
 671               	/* frame size = 0 */
 672               	.LBB661:
 673               	.LBB662:
 674               	.LM111:
 675               	/* #APP */
 676               	 ;  341 "timebase.c" 1
 677 03b4 F894      		cli
 678               	 ;  0 "" 2
 679               	/* #NOAPP */
 680               	.LBE662:
 681               	.LBE661:
 682               	.LM112:
 683 03b6 E091 0000 		lds r30,Timebase
 684 03ba F091 0000 		lds r31,(Timebase)+1
 685 03be 2285      		ldd r18,Z+10
 686 03c0 3385      		ldd r19,Z+11
 687 03c2 4485      		ldd r20,Z+12
 688 03c4 5585      		ldd r21,Z+13
 689               	.LVL39:
 690               	.LBB663:
 691               	.LBB664:
 692               	.LM113:
 693               	/* #APP */
 694               	 ;  345 "timebase.c" 1
 695 03c6 7894      		sei
 696               	 ;  0 "" 2
 697               	/* #NOAPP */
 698               	.LBE664:
 699               	.LBE663:
 700               	.LM114:
 701 03c8 B901      		movw r22,r18
 702               	.LVL40:
 703 03ca CA01      		movw r24,r20
 704               	/* epilogue start */
 705 03cc 0895      		ret
 706               	.LFE15:
 708               	.global	Timebase_Timer_Set_SubSeconds
 710               	Timebase_Timer_Set_SubSeconds:
 711               	.LFB16:
 712               	.LM115:
 713               	.LVL41:
 714               	/* prologue: function */
 715               	/* frame size = 0 */
 716               	.LBB665:
 717               	.LBB666:
 718               	.LM116:
 719               	/* #APP */
 720               	 ;  341 "timebase.c" 1
 721 03ce F894      		cli
 722               	 ;  0 "" 2
 723               	/* #NOAPP */
 724               	.LBE666:
 725               	.LBE665:
 726               	.LM117:
 727 03d0 E091 0000 		lds r30,Timebase
 728 03d4 F091 0000 		lds r31,(Timebase)+1
 729 03d8 9187      		std Z+9,r25
 730 03da 8087      		std Z+8,r24
 731               	.LBB667:
 732               	.LBB668:
 733               	.LM118:
 734               	/* #APP */
 735               	 ;  345 "timebase.c" 1
 736 03dc 7894      		sei
 737               	 ;  0 "" 2
 738               	/* epilogue start */
 739               	/* #NOAPP */
 740               	.LBE668:
 741               	.LBE667:
 742               	.LM119:
 743 03de 0895      		ret
 744               	.LFE16:
 746               	.global	Timebase_Timer_Set_Seconds
 748               	Timebase_Timer_Set_Seconds:
 749               	.LFB17:
 750               	.LM120:
 751               	.LVL42:
 752               	/* prologue: function */
 753               	/* frame size = 0 */
 754               	.LBB669:
 755               	.LBB670:
 756               	.LM121:
 757               	/* #APP */
 758               	 ;  341 "timebase.c" 1
 759 03e0 F894      		cli
 760               	 ;  0 "" 2
 761               	/* #NOAPP */
 762               	.LBE670:
 763               	.LBE669:
 764               	.LM122:
 765 03e2 E091 0000 		lds r30,Timebase
 766 03e6 F091 0000 		lds r31,(Timebase)+1
 767 03ea 6287      		std Z+10,r22
 768 03ec 7387      		std Z+11,r23
 769 03ee 8487      		std Z+12,r24
 770 03f0 9587      		std Z+13,r25
 771               	.LBB671:
 772               	.LBB672:
 773               	.LM123:
 774               	/* #APP */
 775               	 ;  345 "timebase.c" 1
 776 03f2 7894      		sei
 777               	 ;  0 "" 2
 778               	/* epilogue start */
 779               	/* #NOAPP */
 780               	.LBE672:
 781               	.LBE671:
 782               	.LM124:
 783 03f4 0895      		ret
 784               	.LFE17:
 786               	.global	Timebase_Timer_Delay_SubSeconds
 788               	Timebase_Timer_Delay_SubSeconds:
 789               	.LFB18:
 790               	.LM125:
 791               	.LVL43:
 792 03f6 6F92      		push r6
 793 03f8 7F92      		push r7
 794 03fa 8F92      		push r8
 795 03fc 9F92      		push r9
 796 03fe AF92      		push r10
 797 0400 BF92      		push r11
 798 0402 CF92      		push r12
 799 0404 DF92      		push r13
 800 0406 EF92      		push r14
 801 0408 FF92      		push r15
 802 040a 0F93      		push r16
 803 040c 1F93      		push r17
 804 040e CF93      		push r28
 805 0410 DF93      		push r29
 806               	/* prologue: function */
 807               	/* frame size = 0 */
 808 0412 5C01      		movw r10,r24
 809               	.LBB673:
 810               	.LBB674:
 811               	.LBB675:
 812               	.LBB676:
 813               	.LM126:
 814               	/* #APP */
 815               	 ;  341 "timebase.c" 1
 816 0414 F894      		cli
 817               	 ;  0 "" 2
 818               	/* #NOAPP */
 819               	.LBE676:
 820               	.LBE675:
 821               	.LM127:
 822 0416 C091 0000 		lds r28,Timebase
 823 041a D091 0000 		lds r29,(Timebase)+1
 824 041e E884      		ldd r14,Y+8
 825 0420 F984      		ldd r15,Y+9
 826               	.LVL44:
 827               	.LBB677:
 828               	.LBB678:
 829               	.LM128:
 830               	/* #APP */
 831               	 ;  345 "timebase.c" 1
 832 0422 7894      		sei
 833               	 ;  0 "" 2
 834               	/* #NOAPP */
 835               	.LBE678:
 836               	.LBE677:
 837               	.LBE674:
 838               	.LBE673:
 839               	.LBB679:
 840               	.LBB680:
 841               	.LBB681:
 842               	.LBB682:
 843               	.LM129:
 844               	/* #APP */
 845               	 ;  341 "timebase.c" 1
 846 0424 F894      		cli
 847               	 ;  0 "" 2
 848               	/* #NOAPP */
 849               	.LBE682:
 850               	.LBE681:
 851               	.LM130:
 852 0426 2A85      		ldd r18,Y+10
 853 0428 3B85      		ldd r19,Y+11
 854 042a 4C85      		ldd r20,Y+12
 855 042c 5D85      		ldd r21,Y+13
 856               	.LVL45:
 857               	.LBB683:
 858               	.LBB684:
 859               	.LM131:
 860               	/* #APP */
 861               	 ;  345 "timebase.c" 1
 862 042e 7894      		sei
 863               	 ;  0 "" 2
 864               	/* #NOAPP */
 865               	.LBE684:
 866               	.LBE683:
 867               	.LBE680:
 868               	.LBE679:
 869               	.LM132:
 870 0430 6981      		ldd r22,Y+1
 871 0432 7A81      		ldd r23,Y+2
 872 0434 80E0      		ldi r24,lo8(0)
 873 0436 90E0      		ldi r25,hi8(0)
 874               	.LVL46:
 875 0438 0E94 0000 		call __mulsi3
 876               	.LVL47:
 877 043c 3B01      		movw r6,r22
 878 043e 4C01      		movw r8,r24
 879               	.LVL48:
 880               	.LM133:
 881 0440 00E0      		ldi r16,lo8(0)
 882 0442 10E0      		ldi r17,hi8(0)
 883               	.LVL49:
 884 0444 6E0C      		add r6,r14
 885 0446 7F1C      		adc r7,r15
 886 0448 801E      		adc r8,r16
 887 044a 911E      		adc r9,r17
 888               	.LM134:
 889 044c CC24      		clr r12
 890 044e DD24      		clr r13
 891               	.LVL50:
 892 0450 6A0C      		add r6,r10
 893 0452 7B1C      		adc r7,r11
 894 0454 8C1C      		adc r8,r12
 895 0456 9D1C      		adc r9,r13
 896 0458 60E0      		ldi r22,lo8(0)
 897 045a 70E0      		ldi r23,hi8(0)
 898 045c 80E0      		ldi r24,hlo8(0)
 899 045e 90E0      		ldi r25,hhi8(0)
 900               	.LVL51:
 901 0460 00C0      		rjmp .L48
 902               	.LVL52:
 903               	.L49:
 904               	.LBB685:
 905               	.LBB686:
 906               	.LBB687:
 907               	.LBB688:
 908               	.LM135:
 909               	/* #APP */
 910               	 ;  341 "timebase.c" 1
 911 0462 F894      		cli
 912               	 ;  0 "" 2
 913               	/* #NOAPP */
 914               	.LBE688:
 915               	.LBE687:
 916               	.LM136:
 917 0464 E884      		ldd r14,Y+8
 918 0466 F984      		ldd r15,Y+9
 919               	.LVL53:
 920               	.LBB689:
 921               	.LBB690:
 922               	.LM137:
 923               	/* #APP */
 924               	 ;  345 "timebase.c" 1
 925 0468 7894      		sei
 926               	 ;  0 "" 2
 927               	/* #NOAPP */
 928               	.LBE690:
 929               	.LBE689:
 930               	.LBE686:
 931               	.LBE685:
 932               	.LBB691:
 933               	.LBB692:
 934               	.LBB693:
 935               	.LBB694:
 936               	.LM138:
 937               	/* #APP */
 938               	 ;  341 "timebase.c" 1
 939 046a F894      		cli
 940               	 ;  0 "" 2
 941               	/* #NOAPP */
 942               	.LBE694:
 943               	.LBE693:
 944               	.LM139:
 945 046c 2A85      		ldd r18,Y+10
 946 046e 3B85      		ldd r19,Y+11
 947 0470 4C85      		ldd r20,Y+12
 948 0472 5D85      		ldd r21,Y+13
 949               	.LVL54:
 950               	.LBB695:
 951               	.LBB696:
 952               	.LM140:
 953               	/* #APP */
 954               	 ;  345 "timebase.c" 1
 955 0474 7894      		sei
 956               	 ;  0 "" 2
 957               	/* #NOAPP */
 958               	.LBE696:
 959               	.LBE695:
 960               	.LBE692:
 961               	.LBE691:
 962               	.LM141:
 963 0476 6981      		ldd r22,Y+1
 964 0478 7A81      		ldd r23,Y+2
 965               	.LVL55:
 966 047a 80E0      		ldi r24,lo8(0)
 967 047c 90E0      		ldi r25,hi8(0)
 968 047e 0E94 0000 		call __mulsi3
 969               	.LVL56:
 970               	.LM142:
 971 0482 00E0      		ldi r16,lo8(0)
 972 0484 10E0      		ldi r17,hi8(0)
 973               	.LVL57:
 974 0486 6E0D      		add r22,r14
 975 0488 7F1D      		adc r23,r15
 976 048a 801F      		adc r24,r16
 977 048c 911F      		adc r25,r17
 978               	.LVL58:
 979               	.L48:
 980               	.LM143:
 981 048e 6615      		cp r22,r6
 982 0490 7705      		cpc r23,r7
 983 0492 8805      		cpc r24,r8
 984 0494 9905      		cpc r25,r9
 985 0496 04F0      		brlt .L49
 986               	/* epilogue start */
 987               	.LM144:
 988 0498 DF91      		pop r29
 989 049a CF91      		pop r28
 990 049c 1F91      		pop r17
 991 049e 0F91      		pop r16
 992               	.LVL59:
 993 04a0 FF90      		pop r15
 994 04a2 EF90      		pop r14
 995               	.LVL60:
 996 04a4 DF90      		pop r13
 997 04a6 CF90      		pop r12
 998               	.LVL61:
 999 04a8 BF90      		pop r11
 1000 04aa AF90      		pop r10
 1001               	.LVL62:
 1002 04ac 9F90      		pop r9
 1003 04ae 8F90      		pop r8
 1004 04b0 7F90      		pop r7
 1005 04b2 6F90      		pop r6
 1006               	.LVL63:
 1007 04b4 0895      		ret
 1008               	.LFE18:
 1010               	.global	Timebase_Timer_Await_SubSeconds
 1012               	Timebase_Timer_Await_SubSeconds:
 1013               	.LFB19:
 1014               	.LM145:
 1015               	.LVL64:
 1016               	/* prologue: function */
 1017               	/* frame size = 0 */
 1018 04b6 BC01      		movw r22,r24
 1019               	.LBB697:
 1020               	.LBB698:
 1021               	.LM146:
 1022 04b8 E091 0000 		lds r30,Timebase
 1023 04bc F091 0000 		lds r31,(Timebase)+1
 1024               	.LVL65:
 1025               	.L52:
 1026               	.LBB699:
 1027               	.LBB700:
 1028               	.LM147:
 1029               	/* #APP */
 1030               	 ;  341 "timebase.c" 1
 1031 04c0 F894      		cli
 1032               	 ;  0 "" 2
 1033               	/* #NOAPP */
 1034               	.LBE700:
 1035               	.LBE699:
 1036               	.LM148:
 1037 04c2 8085      		ldd r24,Z+8
 1038 04c4 9185      		ldd r25,Z+9
 1039               	.LVL66:
 1040               	.LBB701:
 1041               	.LBB702:
 1042               	.LM149:
 1043               	/* #APP */
 1044               	 ;  345 "timebase.c" 1
 1045 04c6 7894      		sei
 1046               	 ;  0 "" 2
 1047               	/* #NOAPP */
 1048               	.LBE702:
 1049               	.LBE701:
 1050               	.LBE698:
 1051               	.LBE697:
 1052               	.LM150:
 1053 04c8 2481      		ldd r18,Z+4
 1054 04ca 3581      		ldd r19,Z+5
 1055 04cc 4681      		ldd r20,Z+6
 1056 04ce 5781      		ldd r21,Z+7
 1057 04d0 A0E0      		ldi r26,lo8(0)
 1058 04d2 B0E0      		ldi r27,hi8(0)
 1059               	.LVL67:
 1060 04d4 8217      		cp r24,r18
 1061 04d6 9307      		cpc r25,r19
 1062 04d8 A407      		cpc r26,r20
 1063 04da B507      		cpc r27,r21
 1064 04dc 01F4      		brne .L52
 1065               	.LBB703:
 1066               	.LBB704:
 1067               	.LBB705:
 1068               	.LBB706:
 1069               	.LM151:
 1070               	/* #APP */
 1071               	 ;  341 "timebase.c" 1
 1072 04de F894      		cli
 1073               	 ;  0 "" 2
 1074               	/* #NOAPP */
 1075               	.LBE706:
 1076               	.LBE705:
 1077               	.LM152:
 1078 04e0 8085      		ldd r24,Z+8
 1079 04e2 9185      		ldd r25,Z+9
 1080               	.LVL68:
 1081               	.LBB707:
 1082               	.LBB708:
 1083               	.LM153:
 1084               	/* #APP */
 1085               	 ;  345 "timebase.c" 1
 1086 04e4 7894      		sei
 1087               	 ;  0 "" 2
 1088               	/* #NOAPP */
 1089               	.LBE708:
 1090               	.LBE707:
 1091               	.LBE704:
 1092               	.LBE703:
 1093               	.LM154:
 1094 04e6 860F      		add r24,r22
 1095 04e8 971F      		adc r25,r23
 1096 04ea A0E0      		ldi r26,lo8(0)
 1097 04ec B0E0      		ldi r27,hi8(0)
 1098               	.LVL69:
 1099 04ee 8483      		std Z+4,r24
 1100 04f0 9583      		std Z+5,r25
 1101 04f2 A683      		std Z+6,r26
 1102 04f4 B783      		std Z+7,r27
 1103               	.LVL70:
 1104               	.LM155:
 1105 04f6 2481      		ldd r18,Z+4
 1106 04f8 3581      		ldd r19,Z+5
 1107 04fa 4681      		ldd r20,Z+6
 1108 04fc 5781      		ldd r21,Z+7
 1109 04fe 8181      		ldd r24,Z+1
 1110 0500 9281      		ldd r25,Z+2
 1111 0502 A0E0      		ldi r26,lo8(0)
 1112 0504 B0E0      		ldi r27,hi8(0)
 1113 0506 2817      		cp r18,r24
 1114 0508 3907      		cpc r19,r25
 1115 050a 4A07      		cpc r20,r26
 1116 050c 5B07      		cpc r21,r27
 1117 050e 04F0      		brlt .L54
 1118               	.LM156:
 1119 0510 2481      		ldd r18,Z+4
 1120 0512 3581      		ldd r19,Z+5
 1121 0514 4681      		ldd r20,Z+6
 1122 0516 5781      		ldd r21,Z+7
 1123 0518 8181      		ldd r24,Z+1
 1124 051a 9281      		ldd r25,Z+2
 1125 051c A0E0      		ldi r26,lo8(0)
 1126 051e B0E0      		ldi r27,hi8(0)
 1127 0520 281B      		sub r18,r24
 1128 0522 390B      		sbc r19,r25
 1129 0524 4A0B      		sbc r20,r26
 1130 0526 5B0B      		sbc r21,r27
 1131 0528 2483      		std Z+4,r18
 1132 052a 3583      		std Z+5,r19
 1133 052c 4683      		std Z+6,r20
 1134 052e 5783      		std Z+7,r21
 1135               	.L54:
 1136 0530 0895      		ret
 1137               	.LFE19:
 1139               	.global	Timebase_Timer_Delay_Seconds
 1141               	Timebase_Timer_Delay_Seconds:
 1142               	.LFB20:
 1143               	.LM157:
 1144               	.LVL71:
 1145               	/* prologue: function */
 1146               	/* frame size = 0 */
 1147               	.LBB709:
 1148               	.LBB710:
 1149               	.LBB711:
 1150               	.LBB712:
 1151               	.LM158:
 1152               	/* #APP */
 1153               	 ;  341 "timebase.c" 1
 1154 0532 F894      		cli
 1155               	 ;  0 "" 2
 1156               	/* #NOAPP */
 1157               	.LBE712:
 1158               	.LBE711:
 1159               	.LM159:
 1160 0534 E091 0000 		lds r30,Timebase
 1161 0538 F091 0000 		lds r31,(Timebase)+1
 1162 053c 2285      		ldd r18,Z+10
 1163 053e 3385      		ldd r19,Z+11
 1164 0540 4485      		ldd r20,Z+12
 1165 0542 5585      		ldd r21,Z+13
 1166               	.LVL72:
 1167               	.LBB713:
 1168               	.LBB714:
 1169               	.LM160:
 1170               	/* #APP */
 1171               	 ;  345 "timebase.c" 1
 1172 0544 7894      		sei
 1173               	 ;  0 "" 2
 1174               	/* #NOAPP */
 1175               	.LBE714:
 1176               	.LBE713:
 1177               	.LBE710:
 1178               	.LBE709:
 1179               	.LM161:
 1180 0546 A0E0      		ldi r26,lo8(0)
 1181 0548 B0E0      		ldi r27,hi8(0)
 1182               	.LVL73:
 1183 054a 820F      		add r24,r18
 1184 054c 931F      		adc r25,r19
 1185 054e A41F      		adc r26,r20
 1186 0550 B51F      		adc r27,r21
 1187               	.LVL74:
 1188 0552 20E0      		ldi r18,lo8(0)
 1189 0554 30E0      		ldi r19,hi8(0)
 1190 0556 40E0      		ldi r20,hlo8(0)
 1191 0558 50E0      		ldi r21,hhi8(0)
 1192               	.LVL75:
 1193 055a 00C0      		rjmp .L57
 1194               	.L58:
 1195               	.LBB715:
 1196               	.LBB716:
 1197               	.LBB717:
 1198               	.LBB718:
 1199               	.LM162:
 1200               	/* #APP */
 1201               	 ;  341 "timebase.c" 1
 1202 055c F894      		cli
 1203               	 ;  0 "" 2
 1204               	/* #NOAPP */
 1205               	.LBE718:
 1206               	.LBE717:
 1207               	.LM163:
 1208 055e 2285      		ldd r18,Z+10
 1209 0560 3385      		ldd r19,Z+11
 1210 0562 4485      		ldd r20,Z+12
 1211 0564 5585      		ldd r21,Z+13
 1212               	.LBB719:
 1213               	.LBB720:
 1214               	.LM164:
 1215               	/* #APP */
 1216               	 ;  345 "timebase.c" 1
 1217 0566 7894      		sei
 1218               	 ;  0 "" 2
 1219               	/* #NOAPP */
 1220               	.L57:
 1221               	.LBE720:
 1222               	.LBE719:
 1223               	.LBE716:
 1224               	.LBE715:
 1225               	.LM165:
 1226 0568 2817      		cp r18,r24
 1227 056a 3907      		cpc r19,r25
 1228 056c 4A07      		cpc r20,r26
 1229 056e 5B07      		cpc r21,r27
 1230 0570 04F0      		brlt .L58
 1231               	/* epilogue start */
 1232               	.LM166:
 1233 0572 0895      		ret
 1234               	.LFE20:
 1236               	.global	Timebase_Window_Timer_Reset
 1238               	Timebase_Window_Timer_Reset:
 1239               	.LFB21:
 1240               	.LM167:
 1241               	/* prologue: function */
 1242               	/* frame size = 0 */
 1243               	.LM168:
 1244 0574 E091 0000 		lds r30,Timebase
 1245 0578 F091 0000 		lds r31,(Timebase)+1
 1246 057c 1686      		std Z+14,__zero_reg__
 1247 057e 1786      		std Z+15,__zero_reg__
 1248 0580 108A      		std Z+16,__zero_reg__
 1249 0582 118A      		std Z+17,__zero_reg__
 1250               	.LM169:
 1251 0584 128A      		std Z+18,__zero_reg__
 1252 0586 138A      		std Z+19,__zero_reg__
 1253 0588 148A      		std Z+20,__zero_reg__
 1254 058a 158A      		std Z+21,__zero_reg__
 1255               	.LM170:
 1256 058c 168A      		std Z+22,__zero_reg__
 1257               	/* epilogue start */
 1258               	.LM171:
 1259 058e 0895      		ret
 1260               	.LFE21:
 1262               	.global	Timebase_Window_Timer_Start
 1264               	Timebase_Window_Timer_Start:
 1265               	.LFB22:
 1266               	.LM172:
 1267               	/* prologue: function */
 1268               	/* frame size = 0 */
 1269               	.LM173:
 1270 0590 E091 0000 		lds r30,Timebase
 1271 0594 F091 0000 		lds r31,(Timebase)+1
 1272 0598 8689      		ldd r24,Z+22
 1273 059a 8823      		tst r24
 1274 059c 01F4      		brne .L64
 1275               	.LBB721:
 1276               	.LBB722:
 1277               	.LBB723:
 1278               	.LBB724:
 1279               	.LM174:
 1280               	/* #APP */
 1281               	 ;  341 "timebase.c" 1
 1282 059e F894      		cli
 1283               	 ;  0 "" 2
 1284               	/* #NOAPP */
 1285               	.LBE724:
 1286               	.LBE723:
 1287               	.LM175:
 1288 05a0 8285      		ldd r24,Z+10
 1289 05a2 9385      		ldd r25,Z+11
 1290 05a4 A485      		ldd r26,Z+12
 1291 05a6 B585      		ldd r27,Z+13
 1292               	.LVL76:
 1293               	.LBB725:
 1294               	.LBB726:
 1295               	.LM176:
 1296               	/* #APP */
 1297               	 ;  345 "timebase.c" 1
 1298 05a8 7894      		sei
 1299               	 ;  0 "" 2
 1300               	/* #NOAPP */
 1301               	.LBE726:
 1302               	.LBE725:
 1303               	.LBE722:
 1304               	.LBE721:
 1305               	.LM177:
 1306 05aa 8687      		std Z+14,r24
 1307 05ac 9787      		std Z+15,r25
 1308 05ae A08B      		std Z+16,r26
 1309 05b0 B18B      		std Z+17,r27
 1310               	.LBB727:
 1311               	.LBB728:
 1312               	.LBB729:
 1313               	.LBB730:
 1314               	.LM178:
 1315               	/* #APP */
 1316               	 ;  341 "timebase.c" 1
 1317 05b2 F894      		cli
 1318               	 ;  0 "" 2
 1319               	/* #NOAPP */
 1320               	.LBE730:
 1321               	.LBE729:
 1322               	.LM179:
 1323 05b4 8085      		ldd r24,Z+8
 1324 05b6 9185      		ldd r25,Z+9
 1325               	.LVL77:
 1326               	.LBB731:
 1327               	.LBB732:
 1328               	.LM180:
 1329               	/* #APP */
 1330               	 ;  345 "timebase.c" 1
 1331 05b8 7894      		sei
 1332               	 ;  0 "" 2
 1333               	/* #NOAPP */
 1334               	.LBE732:
 1335               	.LBE731:
 1336               	.LBE728:
 1337               	.LBE727:
 1338               	.LM181:
 1339 05ba A0E0      		ldi r26,lo8(0)
 1340 05bc B0E0      		ldi r27,hi8(0)
 1341               	.LVL78:
 1342 05be 828B      		std Z+18,r24
 1343 05c0 938B      		std Z+19,r25
 1344 05c2 A48B      		std Z+20,r26
 1345 05c4 B58B      		std Z+21,r27
 1346               	.LM182:
 1347 05c6 81E0      		ldi r24,lo8(1)
 1348               	.LVL79:
 1349 05c8 868B      		std Z+22,r24
 1350               	.L64:
 1351 05ca 0895      		ret
 1352               	.LFE22:
 1354               	.global	Timebase_Window_Timer_Get_Interval
 1356               	Timebase_Window_Timer_Get_Interval:
 1357               	.LFB23:
 1358               	.LM183:
 1359 05cc EF92      		push r14
 1360 05ce FF92      		push r15
 1361 05d0 0F93      		push r16
 1362 05d2 1F93      		push r17
 1363 05d4 CF93      		push r28
 1364 05d6 DF93      		push r29
 1365               	/* prologue: function */
 1366               	/* frame size = 0 */
 1367               	.LM184:
 1368 05d8 C091 0000 		lds r28,Timebase
 1369 05dc D091 0000 		lds r29,(Timebase)+1
 1370 05e0 8E89      		ldd r24,Y+22
 1371 05e2 8130      		cpi r24,lo8(1)
 1372 05e4 01F0      		breq .L66
 1373 05e6 EE24      		clr r14
 1374 05e8 FF24      		clr r15
 1375 05ea 8701      		movw r16,r14
 1376               	.LVL80:
 1377 05ec 00C0      		rjmp .L67
 1378               	.LVL81:
 1379               	.L66:
 1380               	.LBB733:
 1381               	.LBB734:
 1382               	.LBB735:
 1383               	.LBB736:
 1384               	.LM185:
 1385               	/* #APP */
 1386               	 ;  341 "timebase.c" 1
 1387 05ee F894      		cli
 1388               	 ;  0 "" 2
 1389               	/* #NOAPP */
 1390               	.LBE736:
 1391               	.LBE735:
 1392               	.LM186:
 1393 05f0 2A85      		ldd r18,Y+10
 1394 05f2 3B85      		ldd r19,Y+11
 1395 05f4 4C85      		ldd r20,Y+12
 1396 05f6 5D85      		ldd r21,Y+13
 1397               	.LVL82:
 1398               	.LBB737:
 1399               	.LBB738:
 1400               	.LM187:
 1401               	/* #APP */
 1402               	 ;  345 "timebase.c" 1
 1403 05f8 7894      		sei
 1404               	 ;  0 "" 2
 1405               	/* #NOAPP */
 1406               	.LBE738:
 1407               	.LBE737:
 1408               	.LBE734:
 1409               	.LBE733:
 1410               	.LBB739:
 1411               	.LBB740:
 1412               	.LBB741:
 1413               	.LBB742:
 1414               	.LM188:
 1415               	/* #APP */
 1416               	 ;  341 "timebase.c" 1
 1417 05fa F894      		cli
 1418               	 ;  0 "" 2
 1419               	/* #NOAPP */
 1420               	.LBE742:
 1421               	.LBE741:
 1422               	.LM189:
 1423 05fc 8885      		ldd r24,Y+8
 1424 05fe 9985      		ldd r25,Y+9
 1425               	.LVL83:
 1426               	.LBB743:
 1427               	.LBB744:
 1428               	.LM190:
 1429               	/* #APP */
 1430               	 ;  345 "timebase.c" 1
 1431 0600 7894      		sei
 1432               	 ;  0 "" 2
 1433               	/* #NOAPP */
 1434               	.LBE744:
 1435               	.LBE743:
 1436               	.LBE740:
 1437               	.LBE739:
 1438               	.LM191:
 1439 0602 7C01      		movw r14,r24
 1440               	.LVL84:
 1441 0604 00E0      		ldi r16,lo8(0)
 1442 0606 10E0      		ldi r17,hi8(0)
 1443               	.LVL85:
 1444               	.LM192:
 1445 0608 8E85      		ldd r24,Y+14
 1446 060a 9F85      		ldd r25,Y+15
 1447 060c A889      		ldd r26,Y+16
 1448 060e B989      		ldd r27,Y+17
 1449               	.LVL86:
 1450 0610 281B      		sub r18,r24
 1451 0612 390B      		sbc r19,r25
 1452 0614 4A0B      		sbc r20,r26
 1453 0616 5B0B      		sbc r21,r27
 1454               	.LVL87:
 1455               	.LM193:
 1456 0618 6981      		ldd r22,Y+1
 1457 061a 7A81      		ldd r23,Y+2
 1458 061c 80E0      		ldi r24,lo8(0)
 1459 061e 90E0      		ldi r25,hi8(0)
 1460 0620 0E94 0000 		call __mulsi3
 1461               	.LVL88:
 1462               	.LM194:
 1463 0624 2A89      		ldd r18,Y+18
 1464 0626 3B89      		ldd r19,Y+19
 1465 0628 4C89      		ldd r20,Y+20
 1466 062a 5D89      		ldd r21,Y+21
 1467 062c E21A      		sub r14,r18
 1468 062e F30A      		sbc r15,r19
 1469 0630 040B      		sbc r16,r20
 1470 0632 150B      		sbc r17,r21
 1471               	.LVL89:
 1472 0634 E60E      		add r14,r22
 1473 0636 F71E      		adc r15,r23
 1474 0638 081F      		adc r16,r24
 1475 063a 191F      		adc r17,r25
 1476               	.L67:
 1477               	.LM195:
 1478 063c B701      		movw r22,r14
 1479               	.LVL90:
 1480 063e C801      		movw r24,r16
 1481               	.LVL91:
 1482               	/* epilogue start */
 1483 0640 DF91      		pop r29
 1484 0642 CF91      		pop r28
 1485 0644 1F91      		pop r17
 1486 0646 0F91      		pop r16
 1487 0648 FF90      		pop r15
 1488 064a EF90      		pop r14
 1489 064c 0895      		ret
 1490               	.LFE23:
 1492               	.global	Timebase_Window_Timer_Get_Interval_Reset
 1494               	Timebase_Window_Timer_Get_Interval_Reset:
 1495               	.LFB24:
 1496               	.LM196:
 1497               	/* prologue: function */
 1498               	/* frame size = 0 */
 1499               	.LM197:
 1500 064e 0E94 0000 		call Timebase_Window_Timer_Get_Interval
 1501 0652 282F      		mov r18,r24
 1502               	.LVL92:
 1503               	.LM198:
 1504 0654 E091 0000 		lds r30,Timebase
 1505 0658 F091 0000 		lds r31,(Timebase)+1
 1506 065c 8689      		ldd r24,Z+22
 1507 065e 8130      		cpi r24,lo8(1)
 1508 0660 01F4      		brne .L70
 1509               	.LBB745:
 1510               	.LBB746:
 1511               	.LM199:
 1512 0662 1686      		std Z+14,__zero_reg__
 1513 0664 1786      		std Z+15,__zero_reg__
 1514 0666 108A      		std Z+16,__zero_reg__
 1515 0668 118A      		std Z+17,__zero_reg__
 1516               	.LM200:
 1517 066a 128A      		std Z+18,__zero_reg__
 1518 066c 138A      		std Z+19,__zero_reg__
 1519 066e 148A      		std Z+20,__zero_reg__
 1520 0670 158A      		std Z+21,__zero_reg__
 1521               	.LM201:
 1522 0672 168A      		std Z+22,__zero_reg__
 1523               	.L70:
 1524               	.LBE746:
 1525               	.LBE745:
 1526               	.LM202:
 1527 0674 822F      		mov r24,r18
 1528               	/* epilogue start */
 1529 0676 0895      		ret
 1530               	.LFE24:
 1532               	.global	Timebase_UpCounter_SS_Get_Status
 1534               	Timebase_UpCounter_SS_Get_Status:
 1535               	.LFB25:
 1536               	.LM203:
 1537               	.LVL93:
 1538               	/* prologue: function */
 1539               	/* frame size = 0 */
 1540               	.LM204:
 1541 0678 E091 0000 		lds r30,Timebase
 1542 067c F091 0000 		lds r31,(Timebase)+1
 1543 0680 90E0      		ldi r25,lo8(0)
 1544               	.LVL94:
 1545 0682 0196      		adiw r24,1
 1546               	.LVL95:
 1547 0684 29E1      		ldi r18,lo8(25)
 1548 0686 30E0      		ldi r19,hi8(25)
 1549 0688 AC01      		movw r20,r24
 1550 068a 429F      		mul r20,r18
 1551 068c C001      		movw r24,r0
 1552 068e 439F      		mul r20,r19
 1553 0690 900D      		add r25,r0
 1554 0692 529F      		mul r21,r18
 1555 0694 900D      		add r25,r0
 1556 0696 1124      		clr r1
 1557               	.LVL96:
 1558 0698 E80F      		add r30,r24
 1559 069a F91F      		adc r31,r25
 1560 069c 8081      		ld r24,Z
 1561 069e 8695      		lsr r24
 1562               	.LM205:
 1563 06a0 8F70      		andi r24,lo8(15)
 1564               	/* epilogue start */
 1565 06a2 0895      		ret
 1566               	.LFE25:
 1568               	.global	Timebase_UpCounter_SS_Set_Status
 1570               	Timebase_UpCounter_SS_Set_Status:
 1571               	.LFB26:
 1572               	.LM206:
 1573               	.LVL97:
 1574               	/* prologue: function */
 1575               	/* frame size = 0 */
 1576               	.LM207:
 1577 06a4 E091 0000 		lds r30,Timebase
 1578 06a8 F091 0000 		lds r31,(Timebase)+1
 1579 06ac 90E0      		ldi r25,lo8(0)
 1580               	.LVL98:
 1581 06ae 0196      		adiw r24,1
 1582               	.LVL99:
 1583 06b0 29E1      		ldi r18,lo8(25)
 1584 06b2 30E0      		ldi r19,hi8(25)
 1585 06b4 AC01      		movw r20,r24
 1586 06b6 429F      		mul r20,r18
 1587 06b8 C001      		movw r24,r0
 1588 06ba 439F      		mul r20,r19
 1589 06bc 900D      		add r25,r0
 1590 06be 529F      		mul r21,r18
 1591 06c0 900D      		add r25,r0
 1592 06c2 1124      		clr r1
 1593               	.LVL100:
 1594 06c4 E80F      		add r30,r24
 1595 06c6 F91F      		adc r31,r25
 1596 06c8 6F70      		andi r22,lo8(15)
 1597               	.LVL101:
 1598 06ca 660F      		lsl r22
 1599 06cc 8081      		ld r24,Z
 1600 06ce 817E      		andi r24,lo8(-31)
 1601 06d0 862B      		or r24,r22
 1602 06d2 8083      		st Z,r24
 1603               	/* epilogue start */
 1604               	.LM208:
 1605 06d4 0895      		ret
 1606               	.LFE26:
 1608               	.global	Timebase_UpCounter_SS_Get_Value
 1610               	Timebase_UpCounter_SS_Get_Value:
 1611               	.LFB27:
 1612               	.LM209:
 1613               	.LVL102:
 1614               	/* prologue: function */
 1615               	/* frame size = 0 */
 1616               	.LM210:
 1617 06d6 E091 0000 		lds r30,Timebase
 1618 06da F091 0000 		lds r31,(Timebase)+1
 1619 06de 90E0      		ldi r25,lo8(0)
 1620               	.LVL103:
 1621 06e0 29E1      		ldi r18,lo8(25)
 1622 06e2 30E0      		ldi r19,hi8(25)
 1623 06e4 AC01      		movw r20,r24
 1624 06e6 429F      		mul r20,r18
 1625 06e8 C001      		movw r24,r0
 1626 06ea 439F      		mul r20,r19
 1627 06ec 900D      		add r25,r0
 1628 06ee 529F      		mul r21,r18
 1629 06f0 900D      		add r25,r0
 1630 06f2 1124      		clr r1
 1631               	.LVL104:
 1632 06f4 E80F      		add r30,r24
 1633 06f6 F91F      		adc r31,r25
 1634 06f8 DF01      		movw r26,r30
 1635 06fa 9A96      		adiw r26,42
 1636 06fc 62A5      		ldd r22,Z+42
 1637 06fe 1196      		adiw r26,1
 1638 0700 7C91      		ld r23,X
 1639 0702 1197      		sbiw r26,1
 1640               	.LM211:
 1641 0704 1296      		adiw r26,2
 1642 0706 8C91      		ld r24,X
 1643 0708 1297      		sbiw r26,2
 1644 070a 1396      		adiw r26,3
 1645 070c 9C91      		ld r25,X
 1646               	.LVL105:
 1647               	/* epilogue start */
 1648 070e 0895      		ret
 1649               	.LFE27:
 1651               	.global	Timebase_UpCounter_SS_Set_Value
 1653               	Timebase_UpCounter_SS_Set_Value:
 1654               	.LFB28:
 1655               	.LM212:
 1656               	.LVL106:
 1657               	/* prologue: function */
 1658               	/* frame size = 0 */
 1659               	.LM213:
 1660 0710 E091 0000 		lds r30,Timebase
 1661 0714 F091 0000 		lds r31,(Timebase)+1
 1662 0718 90E0      		ldi r25,lo8(0)
 1663               	.LVL107:
 1664 071a 29E1      		ldi r18,lo8(25)
 1665 071c 30E0      		ldi r19,hi8(25)
 1666 071e DC01      		movw r26,r24
 1667 0720 A29F      		mul r26,r18
 1668 0722 C001      		movw r24,r0
 1669 0724 A39F      		mul r26,r19
 1670 0726 900D      		add r25,r0
 1671 0728 B29F      		mul r27,r18
 1672 072a 900D      		add r25,r0
 1673 072c 1124      		clr r1
 1674               	.LVL108:
 1675 072e E80F      		add r30,r24
 1676 0730 F91F      		adc r31,r25
 1677 0732 42A7      		std Z+42,r20
 1678 0734 53A7      		std Z+43,r21
 1679 0736 64A7      		std Z+44,r22
 1680 0738 75A7      		std Z+45,r23
 1681               	/* epilogue start */
 1682               	.LM214:
 1683 073a 0895      		ret
 1684               	.LFE28:
 1686               	.global	Timebase_UpCounter_SS_Get_EndValueSec
 1688               	Timebase_UpCounter_SS_Get_EndValueSec:
 1689               	.LFB29:
 1690               	.LM215:
 1691               	.LVL109:
 1692               	/* prologue: function */
 1693               	/* frame size = 0 */
 1694               	.LM216:
 1695 073c E091 0000 		lds r30,Timebase
 1696 0740 F091 0000 		lds r31,(Timebase)+1
 1697 0744 90E0      		ldi r25,lo8(0)
 1698               	.LVL110:
 1699 0746 29E1      		ldi r18,lo8(25)
 1700 0748 30E0      		ldi r19,hi8(25)
 1701 074a AC01      		movw r20,r24
 1702 074c 429F      		mul r20,r18
 1703 074e C001      		movw r24,r0
 1704 0750 439F      		mul r20,r19
 1705 0752 900D      		add r25,r0
 1706 0754 529F      		mul r21,r18
 1707 0756 900D      		add r25,r0
 1708 0758 1124      		clr r1
 1709               	.LVL111:
 1710 075a E80F      		add r30,r24
 1711 075c F91F      		adc r31,r25
 1712 075e DF01      		movw r26,r30
 1713 0760 5A96      		adiw r26,26
 1714 0762 628D      		ldd r22,Z+26
 1715 0764 1196      		adiw r26,1
 1716 0766 7C91      		ld r23,X
 1717 0768 1197      		sbiw r26,1
 1718               	.LM217:
 1719 076a 1296      		adiw r26,2
 1720 076c 8C91      		ld r24,X
 1721 076e 1297      		sbiw r26,2
 1722 0770 1396      		adiw r26,3
 1723 0772 9C91      		ld r25,X
 1724               	.LVL112:
 1725               	/* epilogue start */
 1726 0774 0895      		ret
 1727               	.LFE29:
 1729               	.global	Timebase_UpCounter_SS_Get_EndValueSubSec
 1731               	Timebase_UpCounter_SS_Get_EndValueSubSec:
 1732               	.LFB30:
 1733               	.LM218:
 1734               	.LVL113:
 1735               	/* prologue: function */
 1736               	/* frame size = 0 */
 1737               	.LM219:
 1738 0776 E091 0000 		lds r30,Timebase
 1739 077a F091 0000 		lds r31,(Timebase)+1
 1740 077e 90E0      		ldi r25,lo8(0)
 1741               	.LVL114:
 1742 0780 29E1      		ldi r18,lo8(25)
 1743 0782 30E0      		ldi r19,hi8(25)
 1744 0784 AC01      		movw r20,r24
 1745 0786 429F      		mul r20,r18
 1746 0788 C001      		movw r24,r0
 1747 078a 439F      		mul r20,r19
 1748 078c 900D      		add r25,r0
 1749 078e 529F      		mul r21,r18
 1750 0790 900D      		add r25,r0
 1751 0792 1124      		clr r1
 1752               	.LVL115:
 1753 0794 E80F      		add r30,r24
 1754 0796 F91F      		adc r31,r25
 1755 0798 DF01      		movw r26,r30
 1756 079a 5E96      		adiw r26,30
 1757 079c 668D      		ldd r22,Z+30
 1758 079e 1196      		adiw r26,1
 1759 07a0 7C91      		ld r23,X
 1760 07a2 1197      		sbiw r26,1
 1761               	.LM220:
 1762 07a4 1296      		adiw r26,2
 1763 07a6 8C91      		ld r24,X
 1764 07a8 1297      		sbiw r26,2
 1765 07aa 1396      		adiw r26,3
 1766 07ac 9C91      		ld r25,X
 1767               	.LVL116:
 1768               	/* epilogue start */
 1769 07ae 0895      		ret
 1770               	.LFE30:
 1772               	.global	Timebase_UpCounter_SS_Set_EndValueSec
 1774               	Timebase_UpCounter_SS_Set_EndValueSec:
 1775               	.LFB31:
 1776               	.LM221:
 1777               	.LVL117:
 1778               	/* prologue: function */
 1779               	/* frame size = 0 */
 1780               	.LM222:
 1781 07b0 E091 0000 		lds r30,Timebase
 1782 07b4 F091 0000 		lds r31,(Timebase)+1
 1783 07b8 90E0      		ldi r25,lo8(0)
 1784               	.LVL118:
 1785 07ba 29E1      		ldi r18,lo8(25)
 1786 07bc 30E0      		ldi r19,hi8(25)
 1787 07be DC01      		movw r26,r24
 1788 07c0 A29F      		mul r26,r18
 1789 07c2 C001      		movw r24,r0
 1790 07c4 A39F      		mul r26,r19
 1791 07c6 900D      		add r25,r0
 1792 07c8 B29F      		mul r27,r18
 1793 07ca 900D      		add r25,r0
 1794 07cc 1124      		clr r1
 1795               	.LVL119:
 1796 07ce E80F      		add r30,r24
 1797 07d0 F91F      		adc r31,r25
 1798 07d2 428F      		std Z+26,r20
 1799 07d4 538F      		std Z+27,r21
 1800 07d6 648F      		std Z+28,r22
 1801 07d8 758F      		std Z+29,r23
 1802               	/* epilogue start */
 1803               	.LM223:
 1804 07da 0895      		ret
 1805               	.LFE31:
 1807               	.global	Timebase_UpCounter_SS_Set_EndValueSubSec
 1809               	Timebase_UpCounter_SS_Set_EndValueSubSec:
 1810               	.LFB32:
 1811               	.LM224:
 1812               	.LVL120:
 1813               	/* prologue: function */
 1814               	/* frame size = 0 */
 1815               	.LM225:
 1816 07dc E091 0000 		lds r30,Timebase
 1817 07e0 F091 0000 		lds r31,(Timebase)+1
 1818 07e4 90E0      		ldi r25,lo8(0)
 1819               	.LVL121:
 1820 07e6 29E1      		ldi r18,lo8(25)
 1821 07e8 30E0      		ldi r19,hi8(25)
 1822 07ea DC01      		movw r26,r24
 1823 07ec A29F      		mul r26,r18
 1824 07ee C001      		movw r24,r0
 1825 07f0 A39F      		mul r26,r19
 1826 07f2 900D      		add r25,r0
 1827 07f4 B29F      		mul r27,r18
 1828 07f6 900D      		add r25,r0
 1829 07f8 1124      		clr r1
 1830               	.LVL122:
 1831 07fa E80F      		add r30,r24
 1832 07fc F91F      		adc r31,r25
 1833 07fe 468F      		std Z+30,r20
 1834 0800 578F      		std Z+31,r21
 1835 0802 60A3      		std Z+32,r22
 1836 0804 71A3      		std Z+33,r23
 1837               	/* epilogue start */
 1838               	.LM226:
 1839 0806 0895      		ret
 1840               	.LFE32:
 1842               	.global	Timebase_UpCounter_SS_Get_TargetValue
 1844               	Timebase_UpCounter_SS_Get_TargetValue:
 1845               	.LFB33:
 1846               	.LM227:
 1847               	.LVL123:
 1848               	/* prologue: function */
 1849               	/* frame size = 0 */
 1850               	.LM228:
 1851 0808 E091 0000 		lds r30,Timebase
 1852 080c F091 0000 		lds r31,(Timebase)+1
 1853 0810 90E0      		ldi r25,lo8(0)
 1854               	.LVL124:
 1855 0812 29E1      		ldi r18,lo8(25)
 1856 0814 30E0      		ldi r19,hi8(25)
 1857 0816 AC01      		movw r20,r24
 1858 0818 429F      		mul r20,r18
 1859 081a C001      		movw r24,r0
 1860 081c 439F      		mul r20,r19
 1861 081e 900D      		add r25,r0
 1862 0820 529F      		mul r21,r18
 1863 0822 900D      		add r25,r0
 1864 0824 1124      		clr r1
 1865               	.LVL125:
 1866 0826 E80F      		add r30,r24
 1867 0828 F91F      		adc r31,r25
 1868 082a DF01      		movw r26,r30
 1869 082c 9296      		adiw r26,34
 1870 082e 62A1      		ldd r22,Z+34
 1871 0830 1196      		adiw r26,1
 1872 0832 7C91      		ld r23,X
 1873 0834 1197      		sbiw r26,1
 1874               	.LM229:
 1875 0836 1296      		adiw r26,2
 1876 0838 8C91      		ld r24,X
 1877 083a 1297      		sbiw r26,2
 1878 083c 1396      		adiw r26,3
 1879 083e 9C91      		ld r25,X
 1880               	.LVL126:
 1881               	/* epilogue start */
 1882 0840 0895      		ret
 1883               	.LFE33:
 1885               	.global	Timebase_UpCounter_SS_Set_TargetValue
 1887               	Timebase_UpCounter_SS_Set_TargetValue:
 1888               	.LFB34:
 1889               	.LM230:
 1890               	.LVL127:
 1891               	/* prologue: function */
 1892               	/* frame size = 0 */
 1893               	.LM231:
 1894 0842 E091 0000 		lds r30,Timebase
 1895 0846 F091 0000 		lds r31,(Timebase)+1
 1896 084a 90E0      		ldi r25,lo8(0)
 1897               	.LVL128:
 1898 084c 29E1      		ldi r18,lo8(25)
 1899 084e 30E0      		ldi r19,hi8(25)
 1900 0850 DC01      		movw r26,r24
 1901 0852 A29F      		mul r26,r18
 1902 0854 C001      		movw r24,r0
 1903 0856 A39F      		mul r26,r19
 1904 0858 900D      		add r25,r0
 1905 085a B29F      		mul r27,r18
 1906 085c 900D      		add r25,r0
 1907 085e 1124      		clr r1
 1908               	.LVL129:
 1909 0860 E80F      		add r30,r24
 1910 0862 F91F      		adc r31,r25
 1911 0864 42A3      		std Z+34,r20
 1912 0866 53A3      		std Z+35,r21
 1913 0868 64A3      		std Z+36,r22
 1914 086a 75A3      		std Z+37,r23
 1915               	/* epilogue start */
 1916               	.LM232:
 1917 086c 0895      		ret
 1918               	.LFE34:
 1920               	.global	Timebase_UpCounter_SS_Get_TemporaryValue
 1922               	Timebase_UpCounter_SS_Get_TemporaryValue:
 1923               	.LFB35:
 1924               	.LM233:
 1925               	.LVL130:
 1926               	/* prologue: function */
 1927               	/* frame size = 0 */
 1928               	.LM234:
 1929 086e E091 0000 		lds r30,Timebase
 1930 0872 F091 0000 		lds r31,(Timebase)+1
 1931 0876 90E0      		ldi r25,lo8(0)
 1932               	.LVL131:
 1933 0878 29E1      		ldi r18,lo8(25)
 1934 087a 30E0      		ldi r19,hi8(25)
 1935 087c AC01      		movw r20,r24
 1936 087e 429F      		mul r20,r18
 1937 0880 C001      		movw r24,r0
 1938 0882 439F      		mul r20,r19
 1939 0884 900D      		add r25,r0
 1940 0886 529F      		mul r21,r18
 1941 0888 900D      		add r25,r0
 1942 088a 1124      		clr r1
 1943               	.LVL132:
 1944 088c E80F      		add r30,r24
 1945 088e F91F      		adc r31,r25
 1946 0890 DF01      		movw r26,r30
 1947 0892 9696      		adiw r26,38
 1948 0894 66A1      		ldd r22,Z+38
 1949 0896 1196      		adiw r26,1
 1950 0898 7C91      		ld r23,X
 1951 089a 1197      		sbiw r26,1
 1952               	.LM235:
 1953 089c 1296      		adiw r26,2
 1954 089e 8C91      		ld r24,X
 1955 08a0 1297      		sbiw r26,2
 1956 08a2 1396      		adiw r26,3
 1957 08a4 9C91      		ld r25,X
 1958               	.LVL133:
 1959               	/* epilogue start */
 1960 08a6 0895      		ret
 1961               	.LFE35:
 1963               	.global	Timebase_UpCounter_SS_Set_TemporaryValue
 1965               	Timebase_UpCounter_SS_Set_TemporaryValue:
 1966               	.LFB36:
 1967               	.LM236:
 1968               	.LVL134:
 1969               	/* prologue: function */
 1970               	/* frame size = 0 */
 1971               	.LM237:
 1972 08a8 E091 0000 		lds r30,Timebase
 1973 08ac F091 0000 		lds r31,(Timebase)+1
 1974 08b0 90E0      		ldi r25,lo8(0)
 1975               	.LVL135:
 1976 08b2 29E1      		ldi r18,lo8(25)
 1977 08b4 30E0      		ldi r19,hi8(25)
 1978 08b6 DC01      		movw r26,r24
 1979 08b8 A29F      		mul r26,r18
 1980 08ba C001      		movw r24,r0
 1981 08bc A39F      		mul r26,r19
 1982 08be 900D      		add r25,r0
 1983 08c0 B29F      		mul r27,r18
 1984 08c2 900D      		add r25,r0
 1985 08c4 1124      		clr r1
 1986               	.LVL136:
 1987 08c6 E80F      		add r30,r24
 1988 08c8 F91F      		adc r31,r25
 1989 08ca 46A3      		std Z+38,r20
 1990 08cc 57A3      		std Z+39,r21
 1991 08ce 60A7      		std Z+40,r22
 1992 08d0 71A7      		std Z+41,r23
 1993               	/* epilogue start */
 1994               	.LM238:
 1995 08d2 0895      		ret
 1996               	.LFE36:
 1998               	.global	Timebase_UpCounter_SS_Get_PeriodValue
 2000               	Timebase_UpCounter_SS_Get_PeriodValue:
 2001               	.LFB37:
 2002               	.LM239:
 2003               	.LVL137:
 2004               	/* prologue: function */
 2005               	/* frame size = 0 */
 2006               	.LM240:
 2007 08d4 E091 0000 		lds r30,Timebase
 2008 08d8 F091 0000 		lds r31,(Timebase)+1
 2009 08dc 90E0      		ldi r25,lo8(0)
 2010               	.LVL138:
 2011 08de 29E1      		ldi r18,lo8(25)
 2012 08e0 30E0      		ldi r19,hi8(25)
 2013 08e2 AC01      		movw r20,r24
 2014 08e4 429F      		mul r20,r18
 2015 08e6 C001      		movw r24,r0
 2016 08e8 439F      		mul r20,r19
 2017 08ea 900D      		add r25,r0
 2018 08ec 529F      		mul r21,r18
 2019 08ee 900D      		add r25,r0
 2020 08f0 1124      		clr r1
 2021               	.LVL139:
 2022 08f2 E80F      		add r30,r24
 2023 08f4 F91F      		adc r31,r25
 2024 08f6 DF01      		movw r26,r30
 2025 08f8 9E96      		adiw r26,46
 2026 08fa 66A5      		ldd r22,Z+46
 2027 08fc 1196      		adiw r26,1
 2028 08fe 7C91      		ld r23,X
 2029 0900 1197      		sbiw r26,1
 2030               	.LM241:
 2031 0902 1296      		adiw r26,2
 2032 0904 8C91      		ld r24,X
 2033 0906 1297      		sbiw r26,2
 2034 0908 1396      		adiw r26,3
 2035 090a 9C91      		ld r25,X
 2036               	.LVL140:
 2037               	/* epilogue start */
 2038 090c 0895      		ret
 2039               	.LFE37:
 2041               	.global	Timebase_UpCounter_SS_Set_PeriodValue
 2043               	Timebase_UpCounter_SS_Set_PeriodValue:
 2044               	.LFB38:
 2045               	.LM242:
 2046               	.LVL141:
 2047               	/* prologue: function */
 2048               	/* frame size = 0 */
 2049               	.LM243:
 2050 090e E091 0000 		lds r30,Timebase
 2051 0912 F091 0000 		lds r31,(Timebase)+1
 2052 0916 90E0      		ldi r25,lo8(0)
 2053               	.LVL142:
 2054 0918 29E1      		ldi r18,lo8(25)
 2055 091a 30E0      		ldi r19,hi8(25)
 2056 091c DC01      		movw r26,r24
 2057 091e A29F      		mul r26,r18
 2058 0920 C001      		movw r24,r0
 2059 0922 A39F      		mul r26,r19
 2060 0924 900D      		add r25,r0
 2061 0926 B29F      		mul r27,r18
 2062 0928 900D      		add r25,r0
 2063 092a 1124      		clr r1
 2064               	.LVL143:
 2065 092c E80F      		add r30,r24
 2066 092e F91F      		adc r31,r25
 2067 0930 46A7      		std Z+46,r20
 2068 0932 57A7      		std Z+47,r21
 2069 0934 60AB      		std Z+48,r22
 2070 0936 71AB      		std Z+49,r23
 2071               	/* epilogue start */
 2072               	.LM244:
 2073 0938 0895      		ret
 2074               	.LFE38:
 2076               	.global	Timebase_UpCounter_SS_Get_Period_Flag
 2078               	Timebase_UpCounter_SS_Get_Period_Flag:
 2079               	.LFB39:
 2080               	.LM245:
 2081               	.LVL144:
 2082               	/* prologue: function */
 2083               	/* frame size = 0 */
 2084               	.LM246:
 2085 093a E091 0000 		lds r30,Timebase
 2086 093e F091 0000 		lds r31,(Timebase)+1
 2087 0942 90E0      		ldi r25,lo8(0)
 2088               	.LVL145:
 2089 0944 0196      		adiw r24,1
 2090               	.LVL146:
 2091 0946 29E1      		ldi r18,lo8(25)
 2092 0948 30E0      		ldi r19,hi8(25)
 2093 094a AC01      		movw r20,r24
 2094 094c 429F      		mul r20,r18
 2095 094e C001      		movw r24,r0
 2096 0950 439F      		mul r20,r19
 2097 0952 900D      		add r25,r0
 2098 0954 529F      		mul r21,r18
 2099 0956 900D      		add r25,r0
 2100 0958 1124      		clr r1
 2101               	.LVL147:
 2102 095a E80F      		add r30,r24
 2103 095c F91F      		adc r31,r25
 2104 095e 8081      		ld r24,Z
 2105               	.LM247:
 2106 0960 8170      		andi r24,lo8(1)
 2107               	/* epilogue start */
 2108 0962 0895      		ret
 2109               	.LFE39:
 2111               	.global	Timebase_UpCounter_SS_Set_Period_Flag
 2113               	Timebase_UpCounter_SS_Set_Period_Flag:
 2114               	.LFB40:
 2115               	.LM248:
 2116               	.LVL148:
 2117               	/* prologue: function */
 2118               	/* frame size = 0 */
 2119               	.LM249:
 2120 0964 E091 0000 		lds r30,Timebase
 2121 0968 F091 0000 		lds r31,(Timebase)+1
 2122 096c 90E0      		ldi r25,lo8(0)
 2123               	.LVL149:
 2124 096e 0196      		adiw r24,1
 2125               	.LVL150:
 2126 0970 29E1      		ldi r18,lo8(25)
 2127 0972 30E0      		ldi r19,hi8(25)
 2128 0974 AC01      		movw r20,r24
 2129 0976 429F      		mul r20,r18
 2130 0978 C001      		movw r24,r0
 2131 097a 439F      		mul r20,r19
 2132 097c 900D      		add r25,r0
 2133 097e 529F      		mul r21,r18
 2134 0980 900D      		add r25,r0
 2135 0982 1124      		clr r1
 2136               	.LVL151:
 2137 0984 E80F      		add r30,r24
 2138 0986 F91F      		adc r31,r25
 2139 0988 8081      		ld r24,Z
 2140 098a 8160      		ori r24,lo8(1)
 2141 098c 8083      		st Z,r24
 2142               	/* epilogue start */
 2143               	.LM250:
 2144 098e 0895      		ret
 2145               	.LFE40:
 2147               	.global	Timebase_UpCounter_SS_Clear_Period_Flag
 2149               	Timebase_UpCounter_SS_Clear_Period_Flag:
 2150               	.LFB41:
 2151               	.LM251:
 2152               	.LVL152:
 2153               	/* prologue: function */
 2154               	/* frame size = 0 */
 2155               	.LM252:
 2156 0990 E091 0000 		lds r30,Timebase
 2157 0994 F091 0000 		lds r31,(Timebase)+1
 2158 0998 90E0      		ldi r25,lo8(0)
 2159               	.LVL153:
 2160 099a 0196      		adiw r24,1
 2161               	.LVL154:
 2162 099c 29E1      		ldi r18,lo8(25)
 2163 099e 30E0      		ldi r19,hi8(25)
 2164 09a0 AC01      		movw r20,r24
 2165 09a2 429F      		mul r20,r18
 2166 09a4 C001      		movw r24,r0
 2167 09a6 439F      		mul r20,r19
 2168 09a8 900D      		add r25,r0
 2169 09aa 529F      		mul r21,r18
 2170 09ac 900D      		add r25,r0
 2171 09ae 1124      		clr r1
 2172               	.LVL155:
 2173 09b0 E80F      		add r30,r24
 2174 09b2 F91F      		adc r31,r25
 2175 09b4 8081      		ld r24,Z
 2176 09b6 8E7F      		andi r24,lo8(-2)
 2177 09b8 8083      		st Z,r24
 2178               	/* epilogue start */
 2179               	.LM253:
 2180 09ba 0895      		ret
 2181               	.LFE41:
 2183               	.global	Timebase_UpCounter_SS_Reset
 2185               	Timebase_UpCounter_SS_Reset:
 2186               	.LFB42:
 2187               	.LM254:
 2188               	.LVL156:
 2189               	/* prologue: function */
 2190               	/* frame size = 0 */
 2191               	.LBB747:
 2192               	.LBB748:
 2193               	.LM255:
 2194 09bc 6091 0000 		lds r22,Timebase
 2195 09c0 7091 0000 		lds r23,(Timebase)+1
 2196 09c4 90E0      		ldi r25,lo8(0)
 2197 09c6 0196      		adiw r24,1
 2198               	.LVL157:
 2199 09c8 49E1      		ldi r20,lo8(25)
 2200 09ca 50E0      		ldi r21,hi8(25)
 2201 09cc 849F      		mul r24,r20
 2202 09ce D001      		movw r26,r0
 2203 09d0 859F      		mul r24,r21
 2204 09d2 B00D      		add r27,r0
 2205 09d4 949F      		mul r25,r20
 2206 09d6 B00D      		add r27,r0
 2207 09d8 1124      		clr r1
 2208 09da 0197      		sbiw r24,1
 2209 09dc A60F      		add r26,r22
 2210 09de B71F      		adc r27,r23
 2211 09e0 2C91      		ld r18,X
 2212 09e2 217E      		andi r18,lo8(-31)
 2213 09e4 2C93      		st X,r18
 2214               	.LBE748:
 2215               	.LBE747:
 2216               	.LBB749:
 2217               	.LBB750:
 2218               	.LM256:
 2219 09e6 849F      		mul r24,r20
 2220 09e8 F001      		movw r30,r0
 2221 09ea 859F      		mul r24,r21
 2222 09ec F00D      		add r31,r0
 2223 09ee 949F      		mul r25,r20
 2224 09f0 F00D      		add r31,r0
 2225 09f2 1124      		clr r1
 2226 09f4 E60F      		add r30,r22
 2227 09f6 F71F      		adc r31,r23
 2228 09f8 12A6      		std Z+42,__zero_reg__
 2229 09fa 13A6      		std Z+43,__zero_reg__
 2230 09fc 14A6      		std Z+44,__zero_reg__
 2231 09fe 15A6      		std Z+45,__zero_reg__
 2232               	.LBE750:
 2233               	.LBE749:
 2234               	.LBB751:
 2235               	.LBB752:
 2236               	.LM257:
 2237 0a00 128E      		std Z+26,__zero_reg__
 2238 0a02 138E      		std Z+27,__zero_reg__
 2239 0a04 148E      		std Z+28,__zero_reg__
 2240 0a06 158E      		std Z+29,__zero_reg__
 2241               	.LBE752:
 2242               	.LBE751:
 2243               	.LBB753:
 2244               	.LBB754:
 2245               	.LM258:
 2246 0a08 168E      		std Z+30,__zero_reg__
 2247 0a0a 178E      		std Z+31,__zero_reg__
 2248 0a0c 10A2      		std Z+32,__zero_reg__
 2249 0a0e 11A2      		std Z+33,__zero_reg__
 2250               	.LBE754:
 2251               	.LBE753:
 2252               	.LBB755:
 2253               	.LBB756:
 2254               	.LM259:
 2255 0a10 12A2      		std Z+34,__zero_reg__
 2256 0a12 13A2      		std Z+35,__zero_reg__
 2257 0a14 14A2      		std Z+36,__zero_reg__
 2258 0a16 15A2      		std Z+37,__zero_reg__
 2259               	.LBE756:
 2260               	.LBE755:
 2261               	.LBB757:
 2262               	.LBB758:
 2263               	.LM260:
 2264 0a18 16A2      		std Z+38,__zero_reg__
 2265 0a1a 17A2      		std Z+39,__zero_reg__
 2266 0a1c 10A6      		std Z+40,__zero_reg__
 2267 0a1e 11A6      		std Z+41,__zero_reg__
 2268               	.LBE758:
 2269               	.LBE757:
 2270               	.LBB759:
 2271               	.LBB760:
 2272               	.LM261:
 2273 0a20 16A6      		std Z+46,__zero_reg__
 2274 0a22 17A6      		std Z+47,__zero_reg__
 2275 0a24 10AA      		std Z+48,__zero_reg__
 2276 0a26 11AA      		std Z+49,__zero_reg__
 2277               	.LBE760:
 2278               	.LBE759:
 2279               	.LBB761:
 2280               	.LBB762:
 2281               	.LM262:
 2282 0a28 8C91      		ld r24,X
 2283 0a2a 8E7F      		andi r24,lo8(-2)
 2284 0a2c 8C93      		st X,r24
 2285               	/* epilogue start */
 2286               	.LBE762:
 2287               	.LBE761:
 2288               	.LM263:
 2289 0a2e 0895      		ret
 2290               	.LFE42:
 2292               	.global	Timebase_UpCounter_SS_Clear_All_Flags
 2294               	Timebase_UpCounter_SS_Clear_All_Flags:
 2295               	.LFB43:
 2296               	.LM264:
 2297               	.LVL158:
 2298               	/* prologue: function */
 2299               	/* frame size = 0 */
 2300               	.LM265:
 2301 0a30 0E94 0000 		call Timebase_UpCounter_SS_Reset
 2302               	.LVL159:
 2303               	/* epilogue start */
 2304               	.LM266:
 2305 0a34 0895      		ret
 2306               	.LFE43:
 2308               	.global	Timebase_UpCounter_SS_Start
 2310               	Timebase_UpCounter_SS_Start:
 2311               	.LFB44:
 2312               	.LM267:
 2313               	.LVL160:
 2314               	/* prologue: function */
 2315               	/* frame size = 0 */
 2316               	.LBB763:
 2317               	.LBB764:
 2318               	.LM268:
 2319 0a36 E091 0000 		lds r30,Timebase
 2320 0a3a F091 0000 		lds r31,(Timebase)+1
 2321 0a3e 90E0      		ldi r25,lo8(0)
 2322               	.LBE764:
 2323               	.LBE763:
 2324               	.LM269:
 2325 0a40 0196      		adiw r24,1
 2326               	.LVL161:
 2327 0a42 29E1      		ldi r18,lo8(25)
 2328 0a44 30E0      		ldi r19,hi8(25)
 2329 0a46 AC01      		movw r20,r24
 2330 0a48 429F      		mul r20,r18
 2331 0a4a C001      		movw r24,r0
 2332 0a4c 439F      		mul r20,r19
 2333 0a4e 900D      		add r25,r0
 2334 0a50 529F      		mul r21,r18
 2335 0a52 900D      		add r25,r0
 2336 0a54 1124      		clr r1
 2337 0a56 E80F      		add r30,r24
 2338 0a58 F91F      		adc r31,r25
 2339 0a5a 9081      		ld r25,Z
 2340 0a5c 892F      		mov r24,r25
 2341 0a5e 8695      		lsr r24
 2342 0a60 8F70      		andi r24,lo8(15)
 2343 0a62 8130      		cpi r24,lo8(1)
 2344 0a64 01F0      		breq .L112
 2345               	.LBB765:
 2346               	.LBB766:
 2347               	.LM270:
 2348 0a66 917E      		andi r25,lo8(-31)
 2349 0a68 9260      		ori r25,lo8(2)
 2350 0a6a 9083      		st Z,r25
 2351               	.L112:
 2352 0a6c 0895      		ret
 2353               	.LBE766:
 2354               	.LBE765:
 2355               	.LFE44:
 2357               	.global	Timebase_UpCounter_SS_Stop
 2359               	Timebase_UpCounter_SS_Stop:
 2360               	.LFB45:
 2361               	.LM271:
 2362               	.LVL162:
 2363               	/* prologue: function */
 2364               	/* frame size = 0 */
 2365               	.LBB767:
 2366               	.LBB768:
 2367               	.LM272:
 2368 0a6e E091 0000 		lds r30,Timebase
 2369 0a72 F091 0000 		lds r31,(Timebase)+1
 2370 0a76 90E0      		ldi r25,lo8(0)
 2371               	.LBE768:
 2372               	.LBE767:
 2373               	.LM273:
 2374 0a78 0196      		adiw r24,1
 2375               	.LVL163:
 2376 0a7a 29E1      		ldi r18,lo8(25)
 2377 0a7c 30E0      		ldi r19,hi8(25)
 2378 0a7e AC01      		movw r20,r24
 2379 0a80 429F      		mul r20,r18
 2380 0a82 C001      		movw r24,r0
 2381 0a84 439F      		mul r20,r19
 2382 0a86 900D      		add r25,r0
 2383 0a88 529F      		mul r21,r18
 2384 0a8a 900D      		add r25,r0
 2385 0a8c 1124      		clr r1
 2386 0a8e E80F      		add r30,r24
 2387 0a90 F91F      		adc r31,r25
 2388 0a92 9081      		ld r25,Z
 2389 0a94 892F      		mov r24,r25
 2390 0a96 8695      		lsr r24
 2391 0a98 8F70      		andi r24,lo8(15)
 2392 0a9a 8230      		cpi r24,lo8(2)
 2393 0a9c 01F0      		breq .L115
 2394               	.LBB769:
 2395               	.LBB770:
 2396               	.LM274:
 2397 0a9e 917E      		andi r25,lo8(-31)
 2398 0aa0 9460      		ori r25,lo8(4)
 2399 0aa2 9083      		st Z,r25
 2400               	.L115:
 2401 0aa4 0895      		ret
 2402               	.LBE770:
 2403               	.LBE769:
 2404               	.LFE45:
 2406               	.global	Timebase_UpCounter_SS_Set_Securely
 2408               	Timebase_UpCounter_SS_Set_Securely:
 2409               	.LFB46:
 2410               	.LM275:
 2411               	.LVL164:
 2412 0aa6 CF93      		push r28
 2413 0aa8 DF93      		push r29
 2414               	/* prologue: function */
 2415               	/* frame size = 0 */
 2416               	.LBB771:
 2417               	.LBB772:
 2418               	.LM276:
 2419 0aaa A091 0000 		lds r26,Timebase
 2420 0aae B091 0000 		lds r27,(Timebase)+1
 2421 0ab2 282F      		mov r18,r24
 2422 0ab4 30E0      		ldi r19,lo8(0)
 2423               	.LBE772:
 2424               	.LBE771:
 2425               	.LM277:
 2426 0ab6 2F5F      		subi r18,lo8(-(1))
 2427 0ab8 3F4F      		sbci r19,hi8(-(1))
 2428 0aba C9E1      		ldi r28,lo8(25)
 2429 0abc D0E0      		ldi r29,hi8(25)
 2430 0abe 2C9F      		mul r18,r28
 2431 0ac0 F001      		movw r30,r0
 2432 0ac2 2D9F      		mul r18,r29
 2433 0ac4 F00D      		add r31,r0
 2434 0ac6 3C9F      		mul r19,r28
 2435 0ac8 F00D      		add r31,r0
 2436 0aca 1124      		clr r1
 2437 0acc 2150      		subi r18,lo8(-(-1))
 2438 0ace 3040      		sbci r19,hi8(-(-1))
 2439 0ad0 EA0F      		add r30,r26
 2440 0ad2 FB1F      		adc r31,r27
 2441 0ad4 8081      		ld r24,Z
 2442               	.LVL165:
 2443 0ad6 8695      		lsr r24
 2444 0ad8 8F70      		andi r24,lo8(15)
 2445 0ada 01F4      		brne .L118
 2446               	.LBB773:
 2447               	.LBB774:
 2448               	.LM278:
 2449 0adc 2C9F      		mul r18,r28
 2450 0ade F001      		movw r30,r0
 2451 0ae0 2D9F      		mul r18,r29
 2452 0ae2 F00D      		add r31,r0
 2453 0ae4 3C9F      		mul r19,r28
 2454 0ae6 F00D      		add r31,r0
 2455 0ae8 1124      		clr r1
 2456 0aea EA0F      		add r30,r26
 2457 0aec FB1F      		adc r31,r27
 2458 0aee 12A6      		std Z+42,__zero_reg__
 2459 0af0 13A6      		std Z+43,__zero_reg__
 2460 0af2 14A6      		std Z+44,__zero_reg__
 2461 0af4 15A6      		std Z+45,__zero_reg__
 2462               	.LBE774:
 2463               	.LBE773:
 2464               	.LBB775:
 2465               	.LBB776:
 2466               	.LM279:
 2467 0af6 16A2      		std Z+38,__zero_reg__
 2468 0af8 17A2      		std Z+39,__zero_reg__
 2469 0afa 10A6      		std Z+40,__zero_reg__
 2470 0afc 11A6      		std Z+41,__zero_reg__
 2471               	.LBE776:
 2472               	.LBE775:
 2473               	.LBB777:
 2474               	.LBB778:
 2475               	.LM280:
 2476 0afe 42A3      		std Z+34,r20
 2477 0b00 53A3      		std Z+35,r21
 2478 0b02 64A3      		std Z+36,r22
 2479 0b04 75A3      		std Z+37,r23
 2480               	.LBE778:
 2481               	.LBE777:
 2482               	.LBB779:
 2483               	.LBB780:
 2484               	.LBB781:
 2485               	.LBB782:
 2486               	.LM281:
 2487               	/* #APP */
 2488               	 ;  341 "timebase.c" 1
 2489 0b06 F894      		cli
 2490               	 ;  0 "" 2
 2491               	/* #NOAPP */
 2492               	.LBE782:
 2493               	.LBE781:
 2494               	.LM282:
 2495 0b08 1A96      		adiw r26,10
 2496 0b0a 4D91      		ld r20,X+
 2497 0b0c 5D91      		ld r21,X+
 2498 0b0e 6D91      		ld r22,X+
 2499 0b10 7C91      		ld r23,X
 2500 0b12 1D97      		sbiw r26,10+3
 2501               	.LVL166:
 2502               	.LBB783:
 2503               	.LBB784:
 2504               	.LM283:
 2505               	/* #APP */
 2506               	 ;  345 "timebase.c" 1
 2507 0b14 7894      		sei
 2508               	 ;  0 "" 2
 2509               	/* #NOAPP */
 2510               	.LBE784:
 2511               	.LBE783:
 2512               	.LBE780:
 2513               	.LBE779:
 2514               	.LBB785:
 2515               	.LBB786:
 2516               	.LM284:
 2517 0b16 2F5F      		subi r18,lo8(-(1))
 2518 0b18 3F4F      		sbci r19,hi8(-(1))
 2519 0b1a 89E1      		ldi r24,lo8(25)
 2520 0b1c 90E0      		ldi r25,hi8(25)
 2521 0b1e 289F      		mul r18,r24
 2522 0b20 F001      		movw r30,r0
 2523 0b22 299F      		mul r18,r25
 2524 0b24 F00D      		add r31,r0
 2525 0b26 389F      		mul r19,r24
 2526 0b28 F00D      		add r31,r0
 2527 0b2a 1124      		clr r1
 2528 0b2c EA0F      		add r30,r26
 2529 0b2e FB1F      		adc r31,r27
 2530 0b30 9081      		ld r25,Z
 2531 0b32 892F      		mov r24,r25
 2532 0b34 8695      		lsr r24
 2533 0b36 8F70      		andi r24,lo8(15)
 2534 0b38 8130      		cpi r24,lo8(1)
 2535 0b3a 01F0      		breq .L118
 2536               	.LBB787:
 2537               	.LBB788:
 2538               	.LM285:
 2539 0b3c 917E      		andi r25,lo8(-31)
 2540 0b3e 9260      		ori r25,lo8(2)
 2541 0b40 9083      		st Z,r25
 2542               	.LVL167:
 2543               	.L118:
 2544               	/* epilogue start */
 2545               	.LBE788:
 2546               	.LBE787:
 2547               	.LBE786:
 2548               	.LBE785:
 2549               	.LM286:
 2550 0b42 DF91      		pop r29
 2551 0b44 CF91      		pop r28
 2552 0b46 0895      		ret
 2553               	.LFE46:
 2555               	.global	Timebase_UpCounter_SS_Set_Forcefully
 2557               	Timebase_UpCounter_SS_Set_Forcefully:
 2558               	.LFB47:
 2559               	.LM287:
 2560               	.LVL168:
 2561 0b48 DF92      		push r13
 2562 0b4a EF92      		push r14
 2563 0b4c FF92      		push r15
 2564 0b4e 0F93      		push r16
 2565 0b50 1F93      		push r17
 2566               	/* prologue: function */
 2567               	/* frame size = 0 */
 2568 0b52 D82E      		mov r13,r24
 2569 0b54 7A01      		movw r14,r20
 2570 0b56 8B01      		movw r16,r22
 2571               	.LM288:
 2572 0b58 0E94 0000 		call Timebase_UpCounter_SS_Reset
 2573               	.LVL169:
 2574               	.LM289:
 2575 0b5c 8D2D      		mov r24,r13
 2576 0b5e B801      		movw r22,r16
 2577 0b60 A701      		movw r20,r14
 2578 0b62 0E94 0000 		call Timebase_UpCounter_SS_Set_Securely
 2579               	/* epilogue start */
 2580               	.LM290:
 2581 0b66 1F91      		pop r17
 2582 0b68 0F91      		pop r16
 2583 0b6a FF90      		pop r15
 2584 0b6c EF90      		pop r14
 2585               	.LVL170:
 2586 0b6e DF90      		pop r13
 2587               	.LVL171:
 2588 0b70 0895      		ret
 2589               	.LFE47:
 2591               	.global	Timebase_UpCounter_SS_Update
 2593               	Timebase_UpCounter_SS_Update:
 2594               	.LFB48:
 2595               	.LM291:
 2596               	.LVL172:
 2597 0b72 CF92      		push r12
 2598 0b74 DF92      		push r13
 2599 0b76 EF92      		push r14
 2600 0b78 FF92      		push r15
 2601 0b7a 0F93      		push r16
 2602 0b7c 1F93      		push r17
 2603 0b7e CF93      		push r28
 2604 0b80 DF93      		push r29
 2605               	/* prologue: function */
 2606               	/* frame size = 0 */
 2607               	.LBB789:
 2608               	.LBB790:
 2609               	.LM292:
 2610 0b82 C091 0000 		lds r28,Timebase
 2611 0b86 D091 0000 		lds r29,(Timebase)+1
 2612 0b8a 682F      		mov r22,r24
 2613 0b8c 70E0      		ldi r23,lo8(0)
 2614 0b8e 6F5F      		subi r22,lo8(-(1))
 2615 0b90 7F4F      		sbci r23,hi8(-(1))
 2616 0b92 89E1      		ldi r24,lo8(25)
 2617 0b94 90E0      		ldi r25,hi8(25)
 2618               	.LVL173:
 2619 0b96 689F      		mul r22,r24
 2620 0b98 F001      		movw r30,r0
 2621 0b9a 699F      		mul r22,r25
 2622 0b9c F00D      		add r31,r0
 2623 0b9e 789F      		mul r23,r24
 2624 0ba0 F00D      		add r31,r0
 2625 0ba2 1124      		clr r1
 2626 0ba4 6150      		subi r22,lo8(-(-1))
 2627 0ba6 7040      		sbci r23,hi8(-(-1))
 2628 0ba8 EC0F      		add r30,r28
 2629 0baa FD1F      		adc r31,r29
 2630 0bac E081      		ld r30,Z
 2631 0bae E695      		lsr r30
 2632 0bb0 EF70      		andi r30,lo8(15)
 2633               	.LBE790:
 2634               	.LBE789:
 2635               	.LM293:
 2636 0bb2 E130      		cpi r30,lo8(1)
 2637 0bb4 01F0      		breq .+2
 2638 0bb6 00C0      		rjmp .L122
 2639               	.LBB791:
 2640               	.LBB792:
 2641               	.LBB793:
 2642               	.LBB794:
 2643               	.LM294:
 2644               	/* #APP */
 2645               	 ;  341 "timebase.c" 1
 2646 0bb8 F894      		cli
 2647               	 ;  0 "" 2
 2648               	/* #NOAPP */
 2649               	.LBE794:
 2650               	.LBE793:
 2651               	.LM295:
 2652 0bba 8A85      		ldd r24,Y+10
 2653 0bbc 9B85      		ldd r25,Y+11
 2654 0bbe AC85      		ldd r26,Y+12
 2655 0bc0 BD85      		ldd r27,Y+13
 2656               	.LVL174:
 2657               	.LBB795:
 2658               	.LBB796:
 2659               	.LM296:
 2660               	/* #APP */
 2661               	 ;  345 "timebase.c" 1
 2662 0bc2 7894      		sei
 2663               	 ;  0 "" 2
 2664               	/* #NOAPP */
 2665               	.LBE796:
 2666               	.LBE795:
 2667               	.LBE792:
 2668               	.LBE791:
 2669               	.LBB797:
 2670               	.LBB798:
 2671               	.LM297:
 2672 0bc4 89E1      		ldi r24,lo8(25)
 2673 0bc6 C82E      		mov r12,r24
 2674 0bc8 D12C      		mov r13,__zero_reg__
 2675               	.LVL175:
 2676 0bca 6C9D      		mul r22,r12
 2677 0bcc F001      		movw r30,r0
 2678 0bce 6D9D      		mul r22,r13
 2679 0bd0 F00D      		add r31,r0
 2680 0bd2 7C9D      		mul r23,r12
 2681 0bd4 F00D      		add r31,r0
 2682 0bd6 1124      		clr r1
 2683 0bd8 EC0F      		add r30,r28
 2684 0bda FD1F      		adc r31,r29
 2685 0bdc E2A0      		ldd r14,Z+34
 2686 0bde F3A0      		ldd r15,Z+35
 2687 0be0 04A1      		ldd r16,Z+36
 2688 0be2 15A1      		ldd r17,Z+37
 2689 0be4 26A1      		ldd r18,Z+38
 2690 0be6 37A1      		ldd r19,Z+39
 2691 0be8 40A5      		ldd r20,Z+40
 2692 0bea 51A5      		ldd r21,Z+41
 2693 0bec D801      		movw r26,r16
 2694 0bee C701      		movw r24,r14
 2695 0bf0 821B      		sub r24,r18
 2696 0bf2 930B      		sbc r25,r19
 2697 0bf4 A40B      		sbc r26,r20
 2698 0bf6 B50B      		sbc r27,r21
 2699 0bf8 82A7      		std Z+42,r24
 2700 0bfa 93A7      		std Z+43,r25
 2701 0bfc A4A7      		std Z+44,r26
 2702 0bfe B5A7      		std Z+45,r27
 2703               	.LBE798:
 2704               	.LBE797:
 2705               	.LM298:
 2706 0c00 1216      		cp __zero_reg__,r18
 2707 0c02 1306      		cpc __zero_reg__,r19
 2708 0c04 1406      		cpc __zero_reg__,r20
 2709 0c06 1506      		cpc __zero_reg__,r21
 2710 0c08 04F0      		brlt .L124
 2711               	.LBB799:
 2712               	.LBB800:
 2713               	.LM299:
 2714 0c0a 16A2      		std Z+38,__zero_reg__
 2715 0c0c 17A2      		std Z+39,__zero_reg__
 2716 0c0e 10A6      		std Z+40,__zero_reg__
 2717 0c10 11A6      		std Z+41,__zero_reg__
 2718               	.LBE800:
 2719               	.LBE799:
 2720               	.LBB801:
 2721               	.LBB802:
 2722               	.LM300:
 2723 0c12 E2A6      		std Z+42,r14
 2724 0c14 F3A6      		std Z+43,r15
 2725 0c16 04A7      		std Z+44,r16
 2726 0c18 15A7      		std Z+45,r17
 2727               	.LBE802:
 2728               	.LBE801:
 2729               	.LBB803:
 2730               	.LBB804:
 2731               	.LM301:
 2732 0c1a 6F5F      		subi r22,lo8(-(1))
 2733 0c1c 7F4F      		sbci r23,hi8(-(1))
 2734 0c1e 6C9D      		mul r22,r12
 2735 0c20 F001      		movw r30,r0
 2736 0c22 6D9D      		mul r22,r13
 2737 0c24 F00D      		add r31,r0
 2738 0c26 7C9D      		mul r23,r12
 2739 0c28 F00D      		add r31,r0
 2740 0c2a 1124      		clr r1
 2741 0c2c EC0F      		add r30,r28
 2742 0c2e FD1F      		adc r31,r29
 2743 0c30 8081      		ld r24,Z
 2744 0c32 817E      		andi r24,lo8(-31)
 2745 0c34 8860      		ori r24,lo8(8)
 2746 0c36 8083      		st Z,r24
 2747 0c38 00C0      		rjmp .L124
 2748               	.L122:
 2749               	.LBE804:
 2750               	.LBE803:
 2751               	.LM302:
 2752 0c3a E230      		cpi r30,lo8(2)
 2753 0c3c 01F4      		brne .L124
 2754               	.LBB805:
 2755               	.LBB806:
 2756               	.LBB807:
 2757               	.LBB808:
 2758               	.LM303:
 2759               	/* #APP */
 2760               	 ;  341 "timebase.c" 1
 2761 0c3e F894      		cli
 2762               	 ;  0 "" 2
 2763               	/* #NOAPP */
 2764               	.LBE808:
 2765               	.LBE807:
 2766               	.LM304:
 2767 0c40 8A85      		ldd r24,Y+10
 2768 0c42 9B85      		ldd r25,Y+11
 2769 0c44 AC85      		ldd r26,Y+12
 2770 0c46 BD85      		ldd r27,Y+13
 2771               	.LVL176:
 2772               	.LBB809:
 2773               	.LBB810:
 2774               	.LM305:
 2775               	/* #APP */
 2776               	 ;  345 "timebase.c" 1
 2777 0c48 7894      		sei
 2778               	 ;  0 "" 2
 2779               	/* #NOAPP */
 2780               	.LBE810:
 2781               	.LBE809:
 2782               	.LBE806:
 2783               	.LBE805:
 2784               	.LBB811:
 2785               	.LBB812:
 2786               	.LM306:
 2787 0c4a 89E1      		ldi r24,lo8(25)
 2788 0c4c 90E0      		ldi r25,hi8(25)
 2789               	.LVL177:
 2790 0c4e 689F      		mul r22,r24
 2791 0c50 F001      		movw r30,r0
 2792 0c52 699F      		mul r22,r25
 2793 0c54 F00D      		add r31,r0
 2794 0c56 789F      		mul r23,r24
 2795 0c58 F00D      		add r31,r0
 2796 0c5a 1124      		clr r1
 2797 0c5c EC0F      		add r30,r28
 2798 0c5e FD1F      		adc r31,r29
 2799 0c60 82A1      		ldd r24,Z+34
 2800 0c62 93A1      		ldd r25,Z+35
 2801 0c64 A4A1      		ldd r26,Z+36
 2802 0c66 B5A1      		ldd r27,Z+37
 2803 0c68 26A1      		ldd r18,Z+38
 2804 0c6a 37A1      		ldd r19,Z+39
 2805 0c6c 40A5      		ldd r20,Z+40
 2806 0c6e 51A5      		ldd r21,Z+41
 2807 0c70 821B      		sub r24,r18
 2808 0c72 930B      		sbc r25,r19
 2809 0c74 A40B      		sbc r26,r20
 2810 0c76 B50B      		sbc r27,r21
 2811 0c78 82A7      		std Z+42,r24
 2812 0c7a 93A7      		std Z+43,r25
 2813 0c7c A4A7      		std Z+44,r26
 2814 0c7e B5A7      		std Z+45,r27
 2815               	.L124:
 2816               	/* epilogue start */
 2817               	.LBE812:
 2818               	.LBE811:
 2819               	.LM307:
 2820 0c80 DF91      		pop r29
 2821 0c82 CF91      		pop r28
 2822 0c84 1F91      		pop r17
 2823 0c86 0F91      		pop r16
 2824 0c88 FF90      		pop r15
 2825 0c8a EF90      		pop r14
 2826 0c8c DF90      		pop r13
 2827 0c8e CF90      		pop r12
 2828 0c90 0895      		ret
 2829               	.LFE48:
 2831               	.global	Timebase_UpCounter_SS_Expired
 2833               	Timebase_UpCounter_SS_Expired:
 2834               	.LFB49:
 2835               	.LM308:
 2836               	.LVL178:
 2837               	/* prologue: function */
 2838               	/* frame size = 0 */
 2839               	.LM309:
 2840 0c92 40E0      		ldi r20,lo8(0)
 2841 0c94 E091 0000 		lds r30,Timebase
 2842 0c98 F091 0000 		lds r31,(Timebase)+1
 2843 0c9c 90E0      		ldi r25,lo8(0)
 2844               	.LVL179:
 2845 0c9e 0196      		adiw r24,1
 2846               	.LVL180:
 2847 0ca0 29E1      		ldi r18,lo8(25)
 2848 0ca2 30E0      		ldi r19,hi8(25)
 2849 0ca4 BC01      		movw r22,r24
 2850 0ca6 629F      		mul r22,r18
 2851 0ca8 C001      		movw r24,r0
 2852 0caa 639F      		mul r22,r19
 2853 0cac 900D      		add r25,r0
 2854 0cae 729F      		mul r23,r18
 2855 0cb0 900D      		add r25,r0
 2856 0cb2 1124      		clr r1
 2857               	.LVL181:
 2858 0cb4 E80F      		add r30,r24
 2859 0cb6 F91F      		adc r31,r25
 2860 0cb8 8081      		ld r24,Z
 2861 0cba 8695      		lsr r24
 2862 0cbc 8F70      		andi r24,lo8(15)
 2863 0cbe 8430      		cpi r24,lo8(4)
 2864 0cc0 01F4      		brne .L126
 2865 0cc2 41E0      		ldi r20,lo8(1)
 2866               	.L126:
 2867               	.LM310:
 2868 0cc4 842F      		mov r24,r20
 2869               	/* epilogue start */
 2870 0cc6 0895      		ret
 2871               	.LFE49:
 2873               	.global	Timebase_UpCounter_SS_Expired_Event
 2875               	Timebase_UpCounter_SS_Expired_Event:
 2876               	.LFB50:
 2877               	.LM311:
 2878               	.LVL182:
 2879               	/* prologue: function */
 2880               	/* frame size = 0 */
 2881 0cc8 482F      		mov r20,r24
 2882               	.LM312:
 2883 0cca E091 0000 		lds r30,Timebase
 2884 0cce F091 0000 		lds r31,(Timebase)+1
 2885 0cd2 90E0      		ldi r25,lo8(0)
 2886               	.LVL183:
 2887 0cd4 0196      		adiw r24,1
 2888               	.LVL184:
 2889 0cd6 29E1      		ldi r18,lo8(25)
 2890 0cd8 30E0      		ldi r19,hi8(25)
 2891 0cda BC01      		movw r22,r24
 2892 0cdc 629F      		mul r22,r18
 2893 0cde C001      		movw r24,r0
 2894 0ce0 639F      		mul r22,r19
 2895 0ce2 900D      		add r25,r0
 2896 0ce4 729F      		mul r23,r18
 2897 0ce6 900D      		add r25,r0
 2898 0ce8 1124      		clr r1
 2899               	.LVL185:
 2900 0cea E80F      		add r30,r24
 2901 0cec F91F      		adc r31,r25
 2902 0cee 8081      		ld r24,Z
 2903 0cf0 8695      		lsr r24
 2904 0cf2 8F70      		andi r24,lo8(15)
 2905 0cf4 8430      		cpi r24,lo8(4)
 2906 0cf6 01F0      		breq .L129
 2907 0cf8 80E0      		ldi r24,lo8(0)
 2908 0cfa 0895      		ret
 2909               	.L129:
 2910               	.LBB813:
 2911               	.LBB814:
 2912               	.LM313:
 2913 0cfc 842F      		mov r24,r20
 2914               	.LVL186:
 2915 0cfe 0E94 0000 		call Timebase_UpCounter_SS_Reset
 2916               	.LVL187:
 2917 0d02 81E0      		ldi r24,lo8(1)
 2918               	.LBE814:
 2919               	.LBE813:
 2920               	.LM314:
 2921 0d04 0895      		ret
 2922               	.LFE50:
 2924               	.global	Timebase_UpCounter_SS_Set_Period_Value_Securely
 2926               	Timebase_UpCounter_SS_Set_Period_Value_Securely:
 2927               	.LFB51:
 2928               	.LM315:
 2929               	.LVL188:
 2930 0d06 0F93      		push r16
 2931 0d08 1F93      		push r17
 2932 0d0a CF93      		push r28
 2933 0d0c DF93      		push r29
 2934               	/* prologue: function */
 2935               	/* frame size = 0 */
 2936               	.LBB815:
 2937               	.LBB816:
 2938               	.LM316:
 2939 0d0e A091 0000 		lds r26,Timebase
 2940 0d12 B091 0000 		lds r27,(Timebase)+1
 2941 0d16 282F      		mov r18,r24
 2942 0d18 30E0      		ldi r19,lo8(0)
 2943               	.LBE816:
 2944               	.LBE815:
 2945               	.LM317:
 2946 0d1a 2F5F      		subi r18,lo8(-(1))
 2947 0d1c 3F4F      		sbci r19,hi8(-(1))
 2948 0d1e 09E1      		ldi r16,lo8(25)
 2949 0d20 10E0      		ldi r17,hi8(25)
 2950 0d22 209F      		mul r18,r16
 2951 0d24 E001      		movw r28,r0
 2952 0d26 219F      		mul r18,r17
 2953 0d28 D00D      		add r29,r0
 2954 0d2a 309F      		mul r19,r16
 2955 0d2c D00D      		add r29,r0
 2956 0d2e 1124      		clr r1
 2957 0d30 2150      		subi r18,lo8(-(-1))
 2958 0d32 3040      		sbci r19,hi8(-(-1))
 2959 0d34 CA0F      		add r28,r26
 2960 0d36 DB1F      		adc r29,r27
 2961 0d38 8881      		ld r24,Y
 2962               	.LVL189:
 2963 0d3a 80FD      		sbrc r24,0
 2964 0d3c 00C0      		rjmp .L134
 2965               	.LBB817:
 2966               	.LBB818:
 2967               	.LM318:
 2968 0d3e 209F      		mul r18,r16
 2969 0d40 F001      		movw r30,r0
 2970 0d42 219F      		mul r18,r17
 2971 0d44 F00D      		add r31,r0
 2972 0d46 309F      		mul r19,r16
 2973 0d48 F00D      		add r31,r0
 2974 0d4a 1124      		clr r1
 2975 0d4c EA0F      		add r30,r26
 2976 0d4e FB1F      		adc r31,r27
 2977 0d50 82A5      		ldd r24,Z+42
 2978 0d52 93A5      		ldd r25,Z+43
 2979 0d54 A4A5      		ldd r26,Z+44
 2980 0d56 B5A5      		ldd r27,Z+45
 2981 0d58 840F      		add r24,r20
 2982 0d5a 951F      		adc r25,r21
 2983 0d5c A61F      		adc r26,r22
 2984 0d5e B71F      		adc r27,r23
 2985 0d60 86A7      		std Z+46,r24
 2986 0d62 97A7      		std Z+47,r25
 2987 0d64 A0AB      		std Z+48,r26
 2988 0d66 B1AB      		std Z+49,r27
 2989               	.LBE818:
 2990               	.LBE817:
 2991               	.LBB819:
 2992               	.LBB820:
 2993               	.LM319:
 2994 0d68 8881      		ld r24,Y
 2995 0d6a 8160      		ori r24,lo8(1)
 2996 0d6c 8883      		st Y,r24
 2997               	.L134:
 2998               	/* epilogue start */
 2999               	.LBE820:
 3000               	.LBE819:
 3001               	.LM320:
 3002 0d6e DF91      		pop r29
 3003 0d70 CF91      		pop r28
 3004 0d72 1F91      		pop r17
 3005 0d74 0F91      		pop r16
 3006 0d76 0895      		ret
 3007               	.LFE51:
 3009               	.global	Timebase_UpCounter_SS_Get_Remaining_Period_Value
 3011               	Timebase_UpCounter_SS_Get_Remaining_Period_Value:
 3012               	.LFB52:
 3013               	.LM321:
 3014               	.LVL190:
 3015               	/* prologue: function */
 3016               	/* frame size = 0 */
 3017               	.LBB821:
 3018               	.LBB822:
 3019               	.LM322:
 3020 0d78 E091 0000 		lds r30,Timebase
 3021 0d7c F091 0000 		lds r31,(Timebase)+1
 3022 0d80 90E0      		ldi r25,lo8(0)
 3023               	.LBE822:
 3024               	.LBE821:
 3025               	.LM323:
 3026 0d82 29E1      		ldi r18,lo8(25)
 3027 0d84 30E0      		ldi r19,hi8(25)
 3028 0d86 AC01      		movw r20,r24
 3029               	.LVL191:
 3030 0d88 429F      		mul r20,r18
 3031 0d8a C001      		movw r24,r0
 3032 0d8c 439F      		mul r20,r19
 3033 0d8e 900D      		add r25,r0
 3034 0d90 529F      		mul r21,r18
 3035 0d92 900D      		add r25,r0
 3036 0d94 1124      		clr r1
 3037 0d96 E80F      		add r30,r24
 3038 0d98 F91F      		adc r31,r25
 3039 0d9a 26A5      		ldd r18,Z+46
 3040 0d9c 37A5      		ldd r19,Z+47
 3041 0d9e 40A9      		ldd r20,Z+48
 3042 0da0 51A9      		ldd r21,Z+49
 3043               	.LVL192:
 3044 0da2 82A5      		ldd r24,Z+42
 3045 0da4 93A5      		ldd r25,Z+43
 3046 0da6 A4A5      		ldd r26,Z+44
 3047 0da8 B5A5      		ldd r27,Z+45
 3048 0daa 281B      		sub r18,r24
 3049 0dac 390B      		sbc r19,r25
 3050 0dae 4A0B      		sbc r20,r26
 3051 0db0 5B0B      		sbc r21,r27
 3052 0db2 57FF      		sbrs r21,7
 3053 0db4 00C0      		rjmp .L136
 3054 0db6 20E0      		ldi r18,lo8(0)
 3055 0db8 30E0      		ldi r19,hi8(0)
 3056 0dba 40E0      		ldi r20,hlo8(0)
 3057 0dbc 50E0      		ldi r21,hhi8(0)
 3058               	.L136:
 3059               	.LM324:
 3060 0dbe B901      		movw r22,r18
 3061               	.LVL193:
 3062 0dc0 CA01      		movw r24,r20
 3063               	/* epilogue start */
 3064 0dc2 0895      		ret
 3065               	.LFE52:
 3067               	.global	Timebase_UpCounter_SS_Period_Value_Expired
 3069               	Timebase_UpCounter_SS_Period_Value_Expired:
 3070               	.LFB53:
 3071               	.LM325:
 3072               	.LVL194:
 3073 0dc4 CF93      		push r28
 3074 0dc6 DF93      		push r29
 3075               	/* prologue: function */
 3076               	/* frame size = 0 */
 3077               	.LBB823:
 3078               	.LBB824:
 3079               	.LBB825:
 3080               	.LBB826:
 3081               	.LM326:
 3082 0dc8 C091 0000 		lds r28,Timebase
 3083 0dcc D091 0000 		lds r29,(Timebase)+1
 3084 0dd0 682F      		mov r22,r24
 3085 0dd2 70E0      		ldi r23,lo8(0)
 3086               	.LBE826:
 3087               	.LBE825:
 3088               	.LM327:
 3089 0dd4 89E1      		ldi r24,lo8(25)
 3090 0dd6 90E0      		ldi r25,hi8(25)
 3091               	.LVL195:
 3092 0dd8 689F      		mul r22,r24
 3093 0dda F001      		movw r30,r0
 3094 0ddc 699F      		mul r22,r25
 3095 0dde F00D      		add r31,r0
 3096 0de0 789F      		mul r23,r24
 3097 0de2 F00D      		add r31,r0
 3098 0de4 1124      		clr r1
 3099 0de6 EC0F      		add r30,r28
 3100 0de8 FD1F      		adc r31,r29
 3101 0dea 26A5      		ldd r18,Z+46
 3102 0dec 37A5      		ldd r19,Z+47
 3103 0dee 40A9      		ldd r20,Z+48
 3104 0df0 51A9      		ldd r21,Z+49
 3105               	.LVL196:
 3106 0df2 82A5      		ldd r24,Z+42
 3107 0df4 93A5      		ldd r25,Z+43
 3108 0df6 A4A5      		ldd r26,Z+44
 3109 0df8 B5A5      		ldd r27,Z+45
 3110 0dfa 281B      		sub r18,r24
 3111 0dfc 390B      		sbc r19,r25
 3112 0dfe 4A0B      		sbc r20,r26
 3113 0e00 5B0B      		sbc r21,r27
 3114               	.LM328:
 3115 0e02 57FD      		sbrc r21,7
 3116 0e04 00C0      		rjmp .L139
 3117               	.LBE824:
 3118               	.LBE823:
 3119               	.LM329:
 3120 0e06 2115      		cp r18,__zero_reg__
 3121 0e08 3105      		cpc r19,__zero_reg__
 3122 0e0a 4105      		cpc r20,__zero_reg__
 3123 0e0c 5105      		cpc r21,__zero_reg__
 3124 0e0e 01F0      		breq .L139
 3125 0e10 20E0      		ldi r18,lo8(0)
 3126               	.LVL197:
 3127 0e12 00C0      		rjmp .L140
 3128               	.LVL198:
 3129               	.L139:
 3130 0e14 20E0      		ldi r18,lo8(0)
 3131               	.LVL199:
 3132 0e16 6F5F      		subi r22,lo8(-(1))
 3133 0e18 7F4F      		sbci r23,hi8(-(1))
 3134 0e1a 89E1      		ldi r24,lo8(25)
 3135 0e1c 90E0      		ldi r25,hi8(25)
 3136 0e1e AC01      		movw r20,r24
 3137 0e20 649F      		mul r22,r20
 3138 0e22 C001      		movw r24,r0
 3139 0e24 659F      		mul r22,r21
 3140 0e26 900D      		add r25,r0
 3141 0e28 749F      		mul r23,r20
 3142 0e2a 900D      		add r25,r0
 3143 0e2c 1124      		clr r1
 3144 0e2e C80F      		add r28,r24
 3145 0e30 D91F      		adc r29,r25
 3146 0e32 8881      		ld r24,Y
 3147 0e34 80FF      		sbrs r24,0
 3148 0e36 21E0      		ldi r18,lo8(1)
 3149               	.L141:
 3150 0e38 81E0      		ldi r24,lo8(1)
 3151 0e3a 2827      		eor r18,r24
 3152               	.L140:
 3153               	.LM330:
 3154 0e3c 822F      		mov r24,r18
 3155               	/* epilogue start */
 3156 0e3e DF91      		pop r29
 3157 0e40 CF91      		pop r28
 3158 0e42 0895      		ret
 3159               	.LFE53:
 3161               	.global	Timebase_UpCounter_SS_Period_Value_Expired_Event
 3163               	Timebase_UpCounter_SS_Period_Value_Expired_Event:
 3164               	.LFB54:
 3165               	.LM331:
 3166               	.LVL200:
 3167 0e44 1F93      		push r17
 3168               	/* prologue: function */
 3169               	/* frame size = 0 */
 3170 0e46 182F      		mov r17,r24
 3171               	.LM332:
 3172 0e48 0E94 0000 		call Timebase_UpCounter_SS_Period_Value_Expired
 3173               	.LVL201:
 3174 0e4c 8130      		cpi r24,lo8(1)
 3175 0e4e 01F0      		breq .L144
 3176 0e50 80E0      		ldi r24,lo8(0)
 3177 0e52 00C0      		rjmp .L145
 3178               	.L144:
 3179               	.LBB827:
 3180               	.LBB828:
 3181               	.LM333:
 3182 0e54 E091 0000 		lds r30,Timebase
 3183 0e58 F091 0000 		lds r31,(Timebase)+1
 3184 0e5c 812F      		mov r24,r17
 3185 0e5e 90E0      		ldi r25,lo8(0)
 3186               	.LVL202:
 3187 0e60 0196      		adiw r24,1
 3188               	.LVL203:
 3189 0e62 29E1      		ldi r18,lo8(25)
 3190 0e64 30E0      		ldi r19,hi8(25)
 3191 0e66 AC01      		movw r20,r24
 3192 0e68 429F      		mul r20,r18
 3193 0e6a C001      		movw r24,r0
 3194 0e6c 439F      		mul r20,r19
 3195 0e6e 900D      		add r25,r0
 3196 0e70 529F      		mul r21,r18
 3197 0e72 900D      		add r25,r0
 3198 0e74 1124      		clr r1
 3199               	.LVL204:
 3200 0e76 E80F      		add r30,r24
 3201 0e78 F91F      		adc r31,r25
 3202 0e7a 8081      		ld r24,Z
 3203 0e7c 8E7F      		andi r24,lo8(-2)
 3204 0e7e 8083      		st Z,r24
 3205 0e80 81E0      		ldi r24,lo8(1)
 3206               	.LVL205:
 3207               	.L145:
 3208               	/* epilogue start */
 3209               	.LBE828:
 3210               	.LBE827:
 3211               	.LM334:
 3212 0e82 1F91      		pop r17
 3213               	.LVL206:
 3214 0e84 0895      		ret
 3215               	.LFE54:
 3217               	.global	Timebase_UpCounter_SS_Update_All
 3219               	Timebase_UpCounter_SS_Update_All:
 3220               	.LFB55:
 3221               	.LM335:
 3222               	/* prologue: function */
 3223               	/* frame size = 0 */
 3224               	.LBB829:
 3225               	.LM336:
 3226 0e86 80E0      		ldi r24,lo8(0)
 3227 0e88 0E94 0000 		call Timebase_UpCounter_SS_Update
 3228               	/* epilogue start */
 3229               	.LBE829:
 3230               	.LM337:
 3231 0e8c 0895      		ret
 3232               	.LFE55:
 3234               	.global	Timebase_UpCounter_SS_Reset_All
 3236               	Timebase_UpCounter_SS_Reset_All:
 3237               	.LFB56:
 3238               	.LM338:
 3239               	/* prologue: function */
 3240               	/* frame size = 0 */
 3241               	.LBB830:
 3242               	.LM339:
 3243 0e8e 80E0      		ldi r24,lo8(0)
 3244 0e90 0E94 0000 		call Timebase_UpCounter_SS_Reset
 3245               	/* epilogue start */
 3246               	.LBE830:
 3247               	.LM340:
 3248 0e94 0895      		ret
 3249               	.LFE56:
 3251               	.global	Timebase_UpCounter_Get_Status
 3253               	Timebase_UpCounter_Get_Status:
 3254               	.LFB57:
 3255               	.LM341:
 3256               	.LVL207:
 3257               	/* prologue: function */
 3258               	/* frame size = 0 */
 3259               	.LM342:
 3260 0e96 E091 0000 		lds r30,Timebase
 3261 0e9a F091 0000 		lds r31,(Timebase)+1
 3262 0e9e 90E0      		ldi r25,lo8(0)
 3263               	.LVL208:
 3264 0ea0 25E1      		ldi r18,lo8(21)
 3265 0ea2 30E0      		ldi r19,hi8(21)
 3266 0ea4 AC01      		movw r20,r24
 3267 0ea6 429F      		mul r20,r18
 3268 0ea8 C001      		movw r24,r0
 3269 0eaa 439F      		mul r20,r19
 3270 0eac 900D      		add r25,r0
 3271 0eae 529F      		mul r21,r18
 3272 0eb0 900D      		add r25,r0
 3273 0eb2 1124      		clr r1
 3274               	.LVL209:
 3275 0eb4 E80F      		add r30,r24
 3276 0eb6 F91F      		adc r31,r25
 3277 0eb8 82A9      		ldd r24,Z+50
 3278 0eba 8695      		lsr r24
 3279               	.LM343:
 3280 0ebc 8F70      		andi r24,lo8(15)
 3281               	/* epilogue start */
 3282 0ebe 0895      		ret
 3283               	.LFE57:
 3285               	.global	Timebase_UpCounter_Set_Status
 3287               	Timebase_UpCounter_Set_Status:
 3288               	.LFB58:
 3289               	.LM344:
 3290               	.LVL210:
 3291               	/* prologue: function */
 3292               	/* frame size = 0 */
 3293               	.LM345:
 3294 0ec0 E091 0000 		lds r30,Timebase
 3295 0ec4 F091 0000 		lds r31,(Timebase)+1
 3296 0ec8 90E0      		ldi r25,lo8(0)
 3297               	.LVL211:
 3298 0eca 25E1      		ldi r18,lo8(21)
 3299 0ecc 30E0      		ldi r19,hi8(21)
 3300 0ece AC01      		movw r20,r24
 3301 0ed0 429F      		mul r20,r18
 3302 0ed2 C001      		movw r24,r0
 3303 0ed4 439F      		mul r20,r19
 3304 0ed6 900D      		add r25,r0
 3305 0ed8 529F      		mul r21,r18
 3306 0eda 900D      		add r25,r0
 3307 0edc 1124      		clr r1
 3308               	.LVL212:
 3309 0ede E80F      		add r30,r24
 3310 0ee0 F91F      		adc r31,r25
 3311 0ee2 6F70      		andi r22,lo8(15)
 3312               	.LVL213:
 3313 0ee4 660F      		lsl r22
 3314 0ee6 82A9      		ldd r24,Z+50
 3315 0ee8 817E      		andi r24,lo8(-31)
 3316 0eea 862B      		or r24,r22
 3317 0eec 82AB      		std Z+50,r24
 3318               	/* epilogue start */
 3319               	.LM346:
 3320 0eee 0895      		ret
 3321               	.LFE58:
 3323               	.global	Timebase_UpCounter_Get_Value
 3325               	Timebase_UpCounter_Get_Value:
 3326               	.LFB59:
 3327               	.LM347:
 3328               	.LVL214:
 3329               	/* prologue: function */
 3330               	/* frame size = 0 */
 3331               	.LM348:
 3332 0ef0 E091 0000 		lds r30,Timebase
 3333 0ef4 F091 0000 		lds r31,(Timebase)+1
 3334 0ef8 90E0      		ldi r25,lo8(0)
 3335               	.LVL215:
 3336 0efa 25E1      		ldi r18,lo8(21)
 3337 0efc 30E0      		ldi r19,hi8(21)
 3338 0efe AC01      		movw r20,r24
 3339 0f00 429F      		mul r20,r18
 3340 0f02 C001      		movw r24,r0
 3341 0f04 439F      		mul r20,r19
 3342 0f06 900D      		add r25,r0
 3343 0f08 529F      		mul r21,r18
 3344 0f0a 900D      		add r25,r0
 3345 0f0c 1124      		clr r1
 3346               	.LVL216:
 3347 0f0e E80F      		add r30,r24
 3348 0f10 F91F      		adc r31,r25
 3349 0f12 FF96      		adiw r30,63
 3350 0f14 6081      		ld r22,Z
 3351 0f16 7181      		ldd r23,Z+1
 3352               	.LM349:
 3353 0f18 8281      		ldd r24,Z+2
 3354 0f1a 9381      		ldd r25,Z+3
 3355               	.LVL217:
 3356               	/* epilogue start */
 3357 0f1c 0895      		ret
 3358               	.LFE59:
 3360               	.global	Timebase_UpCounter_Set_Value
 3362               	Timebase_UpCounter_Set_Value:
 3363               	.LFB60:
 3364               	.LM350:
 3365               	.LVL218:
 3366               	/* prologue: function */
 3367               	/* frame size = 0 */
 3368               	.LM351:
 3369 0f1e E091 0000 		lds r30,Timebase
 3370 0f22 F091 0000 		lds r31,(Timebase)+1
 3371 0f26 90E0      		ldi r25,lo8(0)
 3372               	.LVL219:
 3373 0f28 25E1      		ldi r18,lo8(21)
 3374 0f2a 30E0      		ldi r19,hi8(21)
 3375 0f2c DC01      		movw r26,r24
 3376 0f2e A29F      		mul r26,r18
 3377 0f30 C001      		movw r24,r0
 3378 0f32 A39F      		mul r26,r19
 3379 0f34 900D      		add r25,r0
 3380 0f36 B29F      		mul r27,r18
 3381 0f38 900D      		add r25,r0
 3382 0f3a 1124      		clr r1
 3383               	.LVL220:
 3384 0f3c E80F      		add r30,r24
 3385 0f3e F91F      		adc r31,r25
 3386 0f40 FF96      		adiw r30,63
 3387 0f42 4083      		st Z,r20
 3388 0f44 5183      		std Z+1,r21
 3389 0f46 6283      		std Z+2,r22
 3390 0f48 7383      		std Z+3,r23
 3391               	/* epilogue start */
 3392               	.LM352:
 3393 0f4a 0895      		ret
 3394               	.LFE60:
 3396               	.global	Timebase_UpCounter_Get_EndValue
 3398               	Timebase_UpCounter_Get_EndValue:
 3399               	.LFB61:
 3400               	.LM353:
 3401               	.LVL221:
 3402               	/* prologue: function */
 3403               	/* frame size = 0 */
 3404               	.LM354:
 3405 0f4c E091 0000 		lds r30,Timebase
 3406 0f50 F091 0000 		lds r31,(Timebase)+1
 3407 0f54 90E0      		ldi r25,lo8(0)
 3408               	.LVL222:
 3409 0f56 25E1      		ldi r18,lo8(21)
 3410 0f58 30E0      		ldi r19,hi8(21)
 3411 0f5a AC01      		movw r20,r24
 3412 0f5c 429F      		mul r20,r18
 3413 0f5e C001      		movw r24,r0
 3414 0f60 439F      		mul r20,r19
 3415 0f62 900D      		add r25,r0
 3416 0f64 529F      		mul r21,r18
 3417 0f66 900D      		add r25,r0
 3418 0f68 1124      		clr r1
 3419               	.LVL223:
 3420 0f6a E80F      		add r30,r24
 3421 0f6c F91F      		adc r31,r25
 3422 0f6e DF01      		movw r26,r30
 3423 0f70 D396      		adiw r26,51
 3424 0f72 63A9      		ldd r22,Z+51
 3425 0f74 1196      		adiw r26,1
 3426 0f76 7C91      		ld r23,X
 3427 0f78 1197      		sbiw r26,1
 3428               	.LM355:
 3429 0f7a 1296      		adiw r26,2
 3430 0f7c 8C91      		ld r24,X
 3431 0f7e 1297      		sbiw r26,2
 3432 0f80 1396      		adiw r26,3
 3433 0f82 9C91      		ld r25,X
 3434               	.LVL224:
 3435               	/* epilogue start */
 3436 0f84 0895      		ret
 3437               	.LFE61:
 3439               	.global	Timebase_UpCounter_Set_EndValue
 3441               	Timebase_UpCounter_Set_EndValue:
 3442               	.LFB62:
 3443               	.LM356:
 3444               	.LVL225:
 3445               	/* prologue: function */
 3446               	/* frame size = 0 */
 3447               	.LM357:
 3448 0f86 E091 0000 		lds r30,Timebase
 3449 0f8a F091 0000 		lds r31,(Timebase)+1
 3450 0f8e 90E0      		ldi r25,lo8(0)
 3451               	.LVL226:
 3452 0f90 25E1      		ldi r18,lo8(21)
 3453 0f92 30E0      		ldi r19,hi8(21)
 3454 0f94 DC01      		movw r26,r24
 3455 0f96 A29F      		mul r26,r18
 3456 0f98 C001      		movw r24,r0
 3457 0f9a A39F      		mul r26,r19
 3458 0f9c 900D      		add r25,r0
 3459 0f9e B29F      		mul r27,r18
 3460 0fa0 900D      		add r25,r0
 3461 0fa2 1124      		clr r1
 3462               	.LVL227:
 3463 0fa4 E80F      		add r30,r24
 3464 0fa6 F91F      		adc r31,r25
 3465 0fa8 43AB      		std Z+51,r20
 3466 0faa 54AB      		std Z+52,r21
 3467 0fac 65AB      		std Z+53,r22
 3468 0fae 76AB      		std Z+54,r23
 3469               	/* epilogue start */
 3470               	.LM358:
 3471 0fb0 0895      		ret
 3472               	.LFE62:
 3474               	.global	Timebase_UpCounter_Get_TargetValue
 3476               	Timebase_UpCounter_Get_TargetValue:
 3477               	.LFB63:
 3478               	.LM359:
 3479               	.LVL228:
 3480               	/* prologue: function */
 3481               	/* frame size = 0 */
 3482               	.LM360:
 3483 0fb2 E091 0000 		lds r30,Timebase
 3484 0fb6 F091 0000 		lds r31,(Timebase)+1
 3485 0fba 90E0      		ldi r25,lo8(0)
 3486               	.LVL229:
 3487 0fbc 25E1      		ldi r18,lo8(21)
 3488 0fbe 30E0      		ldi r19,hi8(21)
 3489 0fc0 AC01      		movw r20,r24
 3490 0fc2 429F      		mul r20,r18
 3491 0fc4 C001      		movw r24,r0
 3492 0fc6 439F      		mul r20,r19
 3493 0fc8 900D      		add r25,r0
 3494 0fca 529F      		mul r21,r18
 3495 0fcc 900D      		add r25,r0
 3496 0fce 1124      		clr r1
 3497               	.LVL230:
 3498 0fd0 E80F      		add r30,r24
 3499 0fd2 F91F      		adc r31,r25
 3500 0fd4 DF01      		movw r26,r30
 3501 0fd6 D796      		adiw r26,55
 3502 0fd8 67A9      		ldd r22,Z+55
 3503 0fda 1196      		adiw r26,1
 3504 0fdc 7C91      		ld r23,X
 3505 0fde 1197      		sbiw r26,1
 3506               	.LM361:
 3507 0fe0 1296      		adiw r26,2
 3508 0fe2 8C91      		ld r24,X
 3509 0fe4 1297      		sbiw r26,2
 3510 0fe6 1396      		adiw r26,3
 3511 0fe8 9C91      		ld r25,X
 3512               	.LVL231:
 3513               	/* epilogue start */
 3514 0fea 0895      		ret
 3515               	.LFE63:
 3517               	.global	Timebase_UpCounter_Set_TargetValue
 3519               	Timebase_UpCounter_Set_TargetValue:
 3520               	.LFB64:
 3521               	.LM362:
 3522               	.LVL232:
 3523               	/* prologue: function */
 3524               	/* frame size = 0 */
 3525               	.LM363:
 3526 0fec E091 0000 		lds r30,Timebase
 3527 0ff0 F091 0000 		lds r31,(Timebase)+1
 3528 0ff4 90E0      		ldi r25,lo8(0)
 3529               	.LVL233:
 3530 0ff6 25E1      		ldi r18,lo8(21)
 3531 0ff8 30E0      		ldi r19,hi8(21)
 3532 0ffa DC01      		movw r26,r24
 3533 0ffc A29F      		mul r26,r18
 3534 0ffe C001      		movw r24,r0
 3535 1000 A39F      		mul r26,r19
 3536 1002 900D      		add r25,r0
 3537 1004 B29F      		mul r27,r18
 3538 1006 900D      		add r25,r0
 3539 1008 1124      		clr r1
 3540               	.LVL234:
 3541 100a E80F      		add r30,r24
 3542 100c F91F      		adc r31,r25
 3543 100e 47AB      		std Z+55,r20
 3544 1010 50AF      		std Z+56,r21
 3545 1012 61AF      		std Z+57,r22
 3546 1014 72AF      		std Z+58,r23
 3547               	/* epilogue start */
 3548               	.LM364:
 3549 1016 0895      		ret
 3550               	.LFE64:
 3552               	.global	Timebase_UpCounter_Get_TemporaryValue
 3554               	Timebase_UpCounter_Get_TemporaryValue:
 3555               	.LFB65:
 3556               	.LM365:
 3557               	.LVL235:
 3558               	/* prologue: function */
 3559               	/* frame size = 0 */
 3560               	.LM366:
 3561 1018 E091 0000 		lds r30,Timebase
 3562 101c F091 0000 		lds r31,(Timebase)+1
 3563 1020 90E0      		ldi r25,lo8(0)
 3564               	.LVL236:
 3565 1022 25E1      		ldi r18,lo8(21)
 3566 1024 30E0      		ldi r19,hi8(21)
 3567 1026 AC01      		movw r20,r24
 3568 1028 429F      		mul r20,r18
 3569 102a C001      		movw r24,r0
 3570 102c 439F      		mul r20,r19
 3571 102e 900D      		add r25,r0
 3572 1030 529F      		mul r21,r18
 3573 1032 900D      		add r25,r0
 3574 1034 1124      		clr r1
 3575               	.LVL237:
 3576 1036 E80F      		add r30,r24
 3577 1038 F91F      		adc r31,r25
 3578 103a DF01      		movw r26,r30
 3579 103c DB96      		adiw r26,59
 3580 103e 63AD      		ldd r22,Z+59
 3581 1040 1196      		adiw r26,1
 3582 1042 7C91      		ld r23,X
 3583 1044 1197      		sbiw r26,1
 3584               	.LM367:
 3585 1046 1296      		adiw r26,2
 3586 1048 8C91      		ld r24,X
 3587 104a 1297      		sbiw r26,2
 3588 104c 1396      		adiw r26,3
 3589 104e 9C91      		ld r25,X
 3590               	.LVL238:
 3591               	/* epilogue start */
 3592 1050 0895      		ret
 3593               	.LFE65:
 3595               	.global	Timebase_UpCounter_Set_TemporaryValue
 3597               	Timebase_UpCounter_Set_TemporaryValue:
 3598               	.LFB66:
 3599               	.LM368:
 3600               	.LVL239:
 3601               	/* prologue: function */
 3602               	/* frame size = 0 */
 3603               	.LM369:
 3604 1052 E091 0000 		lds r30,Timebase
 3605 1056 F091 0000 		lds r31,(Timebase)+1
 3606 105a 90E0      		ldi r25,lo8(0)
 3607               	.LVL240:
 3608 105c 25E1      		ldi r18,lo8(21)
 3609 105e 30E0      		ldi r19,hi8(21)
 3610 1060 DC01      		movw r26,r24
 3611 1062 A29F      		mul r26,r18
 3612 1064 C001      		movw r24,r0
 3613 1066 A39F      		mul r26,r19
 3614 1068 900D      		add r25,r0
 3615 106a B29F      		mul r27,r18
 3616 106c 900D      		add r25,r0
 3617 106e 1124      		clr r1
 3618               	.LVL241:
 3619 1070 E80F      		add r30,r24
 3620 1072 F91F      		adc r31,r25
 3621 1074 43AF      		std Z+59,r20
 3622 1076 54AF      		std Z+60,r21
 3623 1078 65AF      		std Z+61,r22
 3624 107a 76AF      		std Z+62,r23
 3625               	/* epilogue start */
 3626               	.LM370:
 3627 107c 0895      		ret
 3628               	.LFE66:
 3630               	.global	Timebase_UpCounter_Get_PeriodValue
 3632               	Timebase_UpCounter_Get_PeriodValue:
 3633               	.LFB67:
 3634               	.LM371:
 3635               	.LVL242:
 3636               	/* prologue: function */
 3637               	/* frame size = 0 */
 3638               	.LM372:
 3639 107e E091 0000 		lds r30,Timebase
 3640 1082 F091 0000 		lds r31,(Timebase)+1
 3641 1086 90E0      		ldi r25,lo8(0)
 3642               	.LVL243:
 3643 1088 25E1      		ldi r18,lo8(21)
 3644 108a 30E0      		ldi r19,hi8(21)
 3645 108c AC01      		movw r20,r24
 3646 108e 429F      		mul r20,r18
 3647 1090 C001      		movw r24,r0
 3648 1092 439F      		mul r20,r19
 3649 1094 900D      		add r25,r0
 3650 1096 529F      		mul r21,r18
 3651 1098 900D      		add r25,r0
 3652 109a 1124      		clr r1
 3653               	.LVL244:
 3654 109c E80F      		add r30,r24
 3655 109e F91F      		adc r31,r25
 3656 10a0 ED5B      		subi r30,lo8(-(67))
 3657 10a2 FF4F      		sbci r31,hi8(-(67))
 3658 10a4 6081      		ld r22,Z
 3659 10a6 7181      		ldd r23,Z+1
 3660               	.LM373:
 3661 10a8 8281      		ldd r24,Z+2
 3662 10aa 9381      		ldd r25,Z+3
 3663               	.LVL245:
 3664               	/* epilogue start */
 3665 10ac 0895      		ret
 3666               	.LFE67:
 3668               	.global	Timebase_UpCounter_Set_PeriodValue
 3670               	Timebase_UpCounter_Set_PeriodValue:
 3671               	.LFB68:
 3672               	.LM374:
 3673               	.LVL246:
 3674               	/* prologue: function */
 3675               	/* frame size = 0 */
 3676               	.LM375:
 3677 10ae E091 0000 		lds r30,Timebase
 3678 10b2 F091 0000 		lds r31,(Timebase)+1
 3679 10b6 90E0      		ldi r25,lo8(0)
 3680               	.LVL247:
 3681 10b8 25E1      		ldi r18,lo8(21)
 3682 10ba 30E0      		ldi r19,hi8(21)
 3683 10bc DC01      		movw r26,r24
 3684 10be A29F      		mul r26,r18
 3685 10c0 C001      		movw r24,r0
 3686 10c2 A39F      		mul r26,r19
 3687 10c4 900D      		add r25,r0
 3688 10c6 B29F      		mul r27,r18
 3689 10c8 900D      		add r25,r0
 3690 10ca 1124      		clr r1
 3691               	.LVL248:
 3692 10cc E80F      		add r30,r24
 3693 10ce F91F      		adc r31,r25
 3694 10d0 ED5B      		subi r30,lo8(-(67))
 3695 10d2 FF4F      		sbci r31,hi8(-(67))
 3696 10d4 4083      		st Z,r20
 3697 10d6 5183      		std Z+1,r21
 3698 10d8 6283      		std Z+2,r22
 3699 10da 7383      		std Z+3,r23
 3700               	/* epilogue start */
 3701               	.LM376:
 3702 10dc 0895      		ret
 3703               	.LFE68:
 3705               	.global	Timebase_UpCounter_Get_Period_Flag
 3707               	Timebase_UpCounter_Get_Period_Flag:
 3708               	.LFB69:
 3709               	.LM377:
 3710               	.LVL249:
 3711               	/* prologue: function */
 3712               	/* frame size = 0 */
 3713               	.LM378:
 3714 10de E091 0000 		lds r30,Timebase
 3715 10e2 F091 0000 		lds r31,(Timebase)+1
 3716 10e6 90E0      		ldi r25,lo8(0)
 3717               	.LVL250:
 3718 10e8 25E1      		ldi r18,lo8(21)
 3719 10ea 30E0      		ldi r19,hi8(21)
 3720 10ec AC01      		movw r20,r24
 3721 10ee 429F      		mul r20,r18
 3722 10f0 C001      		movw r24,r0
 3723 10f2 439F      		mul r20,r19
 3724 10f4 900D      		add r25,r0
 3725 10f6 529F      		mul r21,r18
 3726 10f8 900D      		add r25,r0
 3727 10fa 1124      		clr r1
 3728               	.LVL251:
 3729 10fc E80F      		add r30,r24
 3730 10fe F91F      		adc r31,r25
 3731 1100 82A9      		ldd r24,Z+50
 3732               	.LM379:
 3733 1102 8170      		andi r24,lo8(1)
 3734               	/* epilogue start */
 3735 1104 0895      		ret
 3736               	.LFE69:
 3738               	.global	Timebase_UpCounter_Set_Period_Flag
 3740               	Timebase_UpCounter_Set_Period_Flag:
 3741               	.LFB70:
 3742               	.LM380:
 3743               	.LVL252:
 3744               	/* prologue: function */
 3745               	/* frame size = 0 */
 3746               	.LM381:
 3747 1106 E091 0000 		lds r30,Timebase
 3748 110a F091 0000 		lds r31,(Timebase)+1
 3749 110e 90E0      		ldi r25,lo8(0)
 3750               	.LVL253:
 3751 1110 25E1      		ldi r18,lo8(21)
 3752 1112 30E0      		ldi r19,hi8(21)
 3753 1114 AC01      		movw r20,r24
 3754 1116 429F      		mul r20,r18
 3755 1118 C001      		movw r24,r0
 3756 111a 439F      		mul r20,r19
 3757 111c 900D      		add r25,r0
 3758 111e 529F      		mul r21,r18
 3759 1120 900D      		add r25,r0
 3760 1122 1124      		clr r1
 3761               	.LVL254:
 3762 1124 E80F      		add r30,r24
 3763 1126 F91F      		adc r31,r25
 3764 1128 82A9      		ldd r24,Z+50
 3765 112a 8160      		ori r24,lo8(1)
 3766 112c 82AB      		std Z+50,r24
 3767               	/* epilogue start */
 3768               	.LM382:
 3769 112e 0895      		ret
 3770               	.LFE70:
 3772               	.global	Timebase_UpCounter_Clear_Period_Flag
 3774               	Timebase_UpCounter_Clear_Period_Flag:
 3775               	.LFB71:
 3776               	.LM383:
 3777               	.LVL255:
 3778               	/* prologue: function */
 3779               	/* frame size = 0 */
 3780               	.LM384:
 3781 1130 E091 0000 		lds r30,Timebase
 3782 1134 F091 0000 		lds r31,(Timebase)+1
 3783 1138 90E0      		ldi r25,lo8(0)
 3784               	.LVL256:
 3785 113a 25E1      		ldi r18,lo8(21)
 3786 113c 30E0      		ldi r19,hi8(21)
 3787 113e AC01      		movw r20,r24
 3788 1140 429F      		mul r20,r18
 3789 1142 C001      		movw r24,r0
 3790 1144 439F      		mul r20,r19
 3791 1146 900D      		add r25,r0
 3792 1148 529F      		mul r21,r18
 3793 114a 900D      		add r25,r0
 3794 114c 1124      		clr r1
 3795               	.LVL257:
 3796 114e E80F      		add r30,r24
 3797 1150 F91F      		adc r31,r25
 3798 1152 82A9      		ldd r24,Z+50
 3799 1154 8E7F      		andi r24,lo8(-2)
 3800 1156 82AB      		std Z+50,r24
 3801               	/* epilogue start */
 3802               	.LM385:
 3803 1158 0895      		ret
 3804               	.LFE71:
 3806               	.global	Timebase_UpCounter_Reset
 3808               	Timebase_UpCounter_Reset:
 3809               	.LFB72:
 3810               	.LM386:
 3811               	.LVL258:
 3812               	/* prologue: function */
 3813               	/* frame size = 0 */
 3814               	.LBB831:
 3815               	.LBB832:
 3816               	.LM387:
 3817 115a E091 0000 		lds r30,Timebase
 3818 115e F091 0000 		lds r31,(Timebase)+1
 3819 1162 90E0      		ldi r25,lo8(0)
 3820 1164 25E1      		ldi r18,lo8(21)
 3821 1166 30E0      		ldi r19,hi8(21)
 3822 1168 AC01      		movw r20,r24
 3823               	.LVL259:
 3824 116a 429F      		mul r20,r18
 3825 116c C001      		movw r24,r0
 3826 116e 439F      		mul r20,r19
 3827 1170 900D      		add r25,r0
 3828 1172 529F      		mul r21,r18
 3829 1174 900D      		add r25,r0
 3830 1176 1124      		clr r1
 3831 1178 E80F      		add r30,r24
 3832 117a F91F      		adc r31,r25
 3833 117c 82A9      		ldd r24,Z+50
 3834               	.LBE832:
 3835               	.LBE831:
 3836               	.LBB833:
 3837               	.LBB834:
 3838               	.LM388:
 3839 117e FF96      		adiw r30,63
 3840 1180 1082      		st Z,__zero_reg__
 3841 1182 1182      		std Z+1,__zero_reg__
 3842 1184 1282      		std Z+2,__zero_reg__
 3843 1186 1382      		std Z+3,__zero_reg__
 3844 1188 FF97      		sbiw r30,63
 3845               	.LBE834:
 3846               	.LBE833:
 3847               	.LBB835:
 3848               	.LBB836:
 3849               	.LM389:
 3850 118a 13AA      		std Z+51,__zero_reg__
 3851 118c 14AA      		std Z+52,__zero_reg__
 3852 118e 15AA      		std Z+53,__zero_reg__
 3853 1190 16AA      		std Z+54,__zero_reg__
 3854               	.LBE836:
 3855               	.LBE835:
 3856               	.LBB837:
 3857               	.LBB838:
 3858               	.LM390:
 3859 1192 17AA      		std Z+55,__zero_reg__
 3860 1194 10AE      		std Z+56,__zero_reg__
 3861 1196 11AE      		std Z+57,__zero_reg__
 3862 1198 12AE      		std Z+58,__zero_reg__
 3863               	.LBE838:
 3864               	.LBE837:
 3865               	.LBB839:
 3866               	.LBB840:
 3867               	.LM391:
 3868 119a 13AE      		std Z+59,__zero_reg__
 3869 119c 14AE      		std Z+60,__zero_reg__
 3870 119e 15AE      		std Z+61,__zero_reg__
 3871 11a0 16AE      		std Z+62,__zero_reg__
 3872               	.LBE840:
 3873               	.LBE839:
 3874               	.LBB841:
 3875               	.LBB842:
 3876               	.LM392:
 3877 11a2 ED5B      		subi r30,lo8(-(67))
 3878 11a4 FF4F      		sbci r31,hi8(-(67))
 3879 11a6 1082      		st Z,__zero_reg__
 3880 11a8 1182      		std Z+1,__zero_reg__
 3881 11aa 1282      		std Z+2,__zero_reg__
 3882 11ac 1382      		std Z+3,__zero_reg__
 3883 11ae E354      		subi r30,lo8(-(-67))
 3884 11b0 F040      		sbci r31,hi8(-(-67))
 3885               	.LBE842:
 3886               	.LBE841:
 3887               	.LBB843:
 3888               	.LBB844:
 3889               	.LM393:
 3890 11b2 807E      		andi r24,lo8(-32)
 3891 11b4 82AB      		std Z+50,r24
 3892               	/* epilogue start */
 3893               	.LBE844:
 3894               	.LBE843:
 3895               	.LM394:
 3896 11b6 0895      		ret
 3897               	.LFE72:
 3899               	.global	Timebase_UpCounter_Clear_All_Flags
 3901               	Timebase_UpCounter_Clear_All_Flags:
 3902               	.LFB73:
 3903               	.LM395:
 3904               	.LVL260:
 3905               	/* prologue: function */
 3906               	/* frame size = 0 */
 3907               	.LM396:
 3908 11b8 0E94 0000 		call Timebase_UpCounter_Reset
 3909               	.LVL261:
 3910               	/* epilogue start */
 3911               	.LM397:
 3912 11bc 0895      		ret
 3913               	.LFE73:
 3915               	.global	Timebase_UpCounter_Start
 3917               	Timebase_UpCounter_Start:
 3918               	.LFB74:
 3919               	.LM398:
 3920               	.LVL262:
 3921               	/* prologue: function */
 3922               	/* frame size = 0 */
 3923               	.LBB845:
 3924               	.LBB846:
 3925               	.LM399:
 3926 11be E091 0000 		lds r30,Timebase
 3927 11c2 F091 0000 		lds r31,(Timebase)+1
 3928 11c6 90E0      		ldi r25,lo8(0)
 3929               	.LBE846:
 3930               	.LBE845:
 3931               	.LM400:
 3932 11c8 25E1      		ldi r18,lo8(21)
 3933 11ca 30E0      		ldi r19,hi8(21)
 3934 11cc AC01      		movw r20,r24
 3935               	.LVL263:
 3936 11ce 429F      		mul r20,r18
 3937 11d0 C001      		movw r24,r0
 3938 11d2 439F      		mul r20,r19
 3939 11d4 900D      		add r25,r0
 3940 11d6 529F      		mul r21,r18
 3941 11d8 900D      		add r25,r0
 3942 11da 1124      		clr r1
 3943 11dc E80F      		add r30,r24
 3944 11de F91F      		adc r31,r25
 3945 11e0 92A9      		ldd r25,Z+50
 3946 11e2 892F      		mov r24,r25
 3947 11e4 8695      		lsr r24
 3948 11e6 8F70      		andi r24,lo8(15)
 3949 11e8 8130      		cpi r24,lo8(1)
 3950 11ea 01F0      		breq .L187
 3951               	.LBB847:
 3952               	.LBB848:
 3953               	.LM401:
 3954 11ec 917E      		andi r25,lo8(-31)
 3955 11ee 9260      		ori r25,lo8(2)
 3956 11f0 92AB      		std Z+50,r25
 3957               	.L187:
 3958 11f2 0895      		ret
 3959               	.LBE848:
 3960               	.LBE847:
 3961               	.LFE74:
 3963               	.global	Timebase_UpCounter_Stop
 3965               	Timebase_UpCounter_Stop:
 3966               	.LFB75:
 3967               	.LM402:
 3968               	.LVL264:
 3969               	/* prologue: function */
 3970               	/* frame size = 0 */
 3971               	.LBB849:
 3972               	.LBB850:
 3973               	.LM403:
 3974 11f4 E091 0000 		lds r30,Timebase
 3975 11f8 F091 0000 		lds r31,(Timebase)+1
 3976 11fc 90E0      		ldi r25,lo8(0)
 3977               	.LBE850:
 3978               	.LBE849:
 3979               	.LM404:
 3980 11fe 25E1      		ldi r18,lo8(21)
 3981 1200 30E0      		ldi r19,hi8(21)
 3982 1202 AC01      		movw r20,r24
 3983               	.LVL265:
 3984 1204 429F      		mul r20,r18
 3985 1206 C001      		movw r24,r0
 3986 1208 439F      		mul r20,r19
 3987 120a 900D      		add r25,r0
 3988 120c 529F      		mul r21,r18
 3989 120e 900D      		add r25,r0
 3990 1210 1124      		clr r1
 3991 1212 E80F      		add r30,r24
 3992 1214 F91F      		adc r31,r25
 3993 1216 92A9      		ldd r25,Z+50
 3994 1218 892F      		mov r24,r25
 3995 121a 8695      		lsr r24
 3996 121c 8F70      		andi r24,lo8(15)
 3997 121e 8230      		cpi r24,lo8(2)
 3998 1220 01F0      		breq .L190
 3999               	.LBB851:
 4000               	.LBB852:
 4001               	.LM405:
 4002 1222 917E      		andi r25,lo8(-31)
 4003 1224 9460      		ori r25,lo8(4)
 4004 1226 92AB      		std Z+50,r25
 4005               	.L190:
 4006 1228 0895      		ret
 4007               	.LBE852:
 4008               	.LBE851:
 4009               	.LFE75:
 4011               	.global	Timebase_UpCounter_Set_Securely
 4013               	Timebase_UpCounter_Set_Securely:
 4014               	.LFB76:
 4015               	.LM406:
 4016               	.LVL266:
 4017 122a 0F93      		push r16
 4018 122c 1F93      		push r17
 4019 122e CF93      		push r28
 4020 1230 DF93      		push r29
 4021               	/* prologue: function */
 4022               	/* frame size = 0 */
 4023               	.LBB853:
 4024               	.LBB854:
 4025               	.LM407:
 4026 1232 C091 0000 		lds r28,Timebase
 4027 1236 D091 0000 		lds r29,(Timebase)+1
 4028 123a 082F      		mov r16,r24
 4029 123c 10E0      		ldi r17,lo8(0)
 4030               	.LBE854:
 4031               	.LBE853:
 4032               	.LM408:
 4033 123e 85E1      		ldi r24,lo8(21)
 4034 1240 90E0      		ldi r25,hi8(21)
 4035               	.LVL267:
 4036 1242 089F      		mul r16,r24
 4037 1244 F001      		movw r30,r0
 4038 1246 099F      		mul r16,r25
 4039 1248 F00D      		add r31,r0
 4040 124a 189F      		mul r17,r24
 4041 124c F00D      		add r31,r0
 4042 124e 1124      		clr r1
 4043 1250 EC0F      		add r30,r28
 4044 1252 FD1F      		adc r31,r29
 4045 1254 82A9      		ldd r24,Z+50
 4046 1256 8695      		lsr r24
 4047 1258 8F70      		andi r24,lo8(15)
 4048 125a 01F4      		brne .L193
 4049               	.LBB855:
 4050               	.LBB856:
 4051               	.LM409:
 4052 125c FF96      		adiw r30,63
 4053 125e 1082      		st Z,__zero_reg__
 4054 1260 1182      		std Z+1,__zero_reg__
 4055 1262 1282      		std Z+2,__zero_reg__
 4056 1264 1382      		std Z+3,__zero_reg__
 4057 1266 FF97      		sbiw r30,63
 4058               	.LBE856:
 4059               	.LBE855:
 4060               	.LBB857:
 4061               	.LBB858:
 4062               	.LM410:
 4063 1268 13AE      		std Z+59,__zero_reg__
 4064 126a 14AE      		std Z+60,__zero_reg__
 4065 126c 15AE      		std Z+61,__zero_reg__
 4066 126e 16AE      		std Z+62,__zero_reg__
 4067               	.LBE858:
 4068               	.LBE857:
 4069               	.LBB859:
 4070               	.LBB860:
 4071               	.LM411:
 4072 1270 47AB      		std Z+55,r20
 4073 1272 50AF      		std Z+56,r21
 4074 1274 61AF      		std Z+57,r22
 4075 1276 72AF      		std Z+58,r23
 4076               	.LBE860:
 4077               	.LBE859:
 4078               	.LBB861:
 4079               	.LBB862:
 4080               	.LBB863:
 4081               	.LBB864:
 4082               	.LM412:
 4083               	/* #APP */
 4084               	 ;  341 "timebase.c" 1
 4085 1278 F894      		cli
 4086               	 ;  0 "" 2
 4087               	/* #NOAPP */
 4088               	.LBE864:
 4089               	.LBE863:
 4090               	.LM413:
 4091 127a 8A85      		ldd r24,Y+10
 4092 127c 9B85      		ldd r25,Y+11
 4093 127e AC85      		ldd r26,Y+12
 4094 1280 BD85      		ldd r27,Y+13
 4095               	.LVL268:
 4096               	.LBB865:
 4097               	.LBB866:
 4098               	.LM414:
 4099               	/* #APP */
 4100               	 ;  345 "timebase.c" 1
 4101 1282 7894      		sei
 4102               	 ;  0 "" 2
 4103               	/* #NOAPP */
 4104               	.LBE866:
 4105               	.LBE865:
 4106               	.LBE862:
 4107               	.LBE861:
 4108               	.LBB867:
 4109               	.LBB868:
 4110               	.LM415:
 4111 1284 25E1      		ldi r18,lo8(21)
 4112 1286 30E0      		ldi r19,hi8(21)
 4113 1288 029F      		mul r16,r18
 4114 128a F001      		movw r30,r0
 4115 128c 039F      		mul r16,r19
 4116 128e F00D      		add r31,r0
 4117 1290 129F      		mul r17,r18
 4118 1292 F00D      		add r31,r0
 4119 1294 1124      		clr r1
 4120 1296 EC0F      		add r30,r28
 4121 1298 FD1F      		adc r31,r29
 4122 129a 840F      		add r24,r20
 4123 129c 951F      		adc r25,r21
 4124 129e A61F      		adc r26,r22
 4125 12a0 B71F      		adc r27,r23
 4126 12a2 83AB      		std Z+51,r24
 4127 12a4 94AB      		std Z+52,r25
 4128 12a6 A5AB      		std Z+53,r26
 4129 12a8 B6AB      		std Z+54,r27
 4130               	.LBE868:
 4131               	.LBE867:
 4132               	.LBB869:
 4133               	.LBB870:
 4134               	.LM416:
 4135 12aa 92A9      		ldd r25,Z+50
 4136 12ac 892F      		mov r24,r25
 4137               	.LVL269:
 4138 12ae 8695      		lsr r24
 4139 12b0 8F70      		andi r24,lo8(15)
 4140 12b2 8130      		cpi r24,lo8(1)
 4141 12b4 01F0      		breq .L193
 4142               	.LBB871:
 4143               	.LBB872:
 4144               	.LM417:
 4145 12b6 917E      		andi r25,lo8(-31)
 4146 12b8 9260      		ori r25,lo8(2)
 4147 12ba 92AB      		std Z+50,r25
 4148               	.L193:
 4149               	/* epilogue start */
 4150               	.LBE872:
 4151               	.LBE871:
 4152               	.LBE870:
 4153               	.LBE869:
 4154               	.LM418:
 4155 12bc DF91      		pop r29
 4156 12be CF91      		pop r28
 4157 12c0 1F91      		pop r17
 4158 12c2 0F91      		pop r16
 4159 12c4 0895      		ret
 4160               	.LFE76:
 4162               	.global	Timebase_UpCounter_Set_Forcefully
 4164               	Timebase_UpCounter_Set_Forcefully:
 4165               	.LFB77:
 4166               	.LM419:
 4167               	.LVL270:
 4168 12c6 DF92      		push r13
 4169 12c8 EF92      		push r14
 4170 12ca FF92      		push r15
 4171 12cc 0F93      		push r16
 4172 12ce 1F93      		push r17
 4173               	/* prologue: function */
 4174               	/* frame size = 0 */
 4175 12d0 D82E      		mov r13,r24
 4176 12d2 7A01      		movw r14,r20
 4177 12d4 8B01      		movw r16,r22
 4178               	.LM420:
 4179 12d6 0E94 0000 		call Timebase_UpCounter_Reset
 4180               	.LVL271:
 4181               	.LM421:
 4182 12da 8D2D      		mov r24,r13
 4183 12dc B801      		movw r22,r16
 4184 12de A701      		movw r20,r14
 4185 12e0 0E94 0000 		call Timebase_UpCounter_Set_Securely
 4186               	/* epilogue start */
 4187               	.LM422:
 4188 12e4 1F91      		pop r17
 4189 12e6 0F91      		pop r16
 4190 12e8 FF90      		pop r15
 4191 12ea EF90      		pop r14
 4192               	.LVL272:
 4193 12ec DF90      		pop r13
 4194               	.LVL273:
 4195 12ee 0895      		ret
 4196               	.LFE77:
 4198               	.global	Timebase_UpCounter_Update
 4200               	Timebase_UpCounter_Update:
 4201               	.LFB78:
 4202               	.LM423:
 4203               	.LVL274:
 4204 12f0 EF92      		push r14
 4205 12f2 FF92      		push r15
 4206 12f4 0F93      		push r16
 4207 12f6 1F93      		push r17
 4208 12f8 CF93      		push r28
 4209 12fa DF93      		push r29
 4210               	/* prologue: function */
 4211               	/* frame size = 0 */
 4212               	.LBB873:
 4213               	.LBB874:
 4214               	.LM424:
 4215 12fc C091 0000 		lds r28,Timebase
 4216 1300 D091 0000 		lds r29,(Timebase)+1
 4217 1304 482F      		mov r20,r24
 4218 1306 50E0      		ldi r21,lo8(0)
 4219 1308 85E1      		ldi r24,lo8(21)
 4220 130a 90E0      		ldi r25,hi8(21)
 4221               	.LVL275:
 4222 130c 489F      		mul r20,r24
 4223 130e F001      		movw r30,r0
 4224 1310 499F      		mul r20,r25
 4225 1312 F00D      		add r31,r0
 4226 1314 589F      		mul r21,r24
 4227 1316 F00D      		add r31,r0
 4228 1318 1124      		clr r1
 4229 131a EC0F      		add r30,r28
 4230 131c FD1F      		adc r31,r29
 4231 131e 82A9      		ldd r24,Z+50
 4232 1320 8695      		lsr r24
 4233 1322 8F70      		andi r24,lo8(15)
 4234               	.LBE874:
 4235               	.LBE873:
 4236               	.LM425:
 4237 1324 8130      		cpi r24,lo8(1)
 4238 1326 01F0      		breq .+2
 4239 1328 00C0      		rjmp .L197
 4240               	.LBB875:
 4241               	.LBB876:
 4242               	.LBB877:
 4243               	.LBB878:
 4244               	.LM426:
 4245               	/* #APP */
 4246               	 ;  341 "timebase.c" 1
 4247 132a F894      		cli
 4248               	 ;  0 "" 2
 4249               	/* #NOAPP */
 4250               	.LBE878:
 4251               	.LBE877:
 4252               	.LM427:
 4253 132c EA84      		ldd r14,Y+10
 4254 132e FB84      		ldd r15,Y+11
 4255 1330 0C85      		ldd r16,Y+12
 4256 1332 1D85      		ldd r17,Y+13
 4257               	.LVL276:
 4258               	.LBB879:
 4259               	.LBB880:
 4260               	.LM428:
 4261               	/* #APP */
 4262               	 ;  345 "timebase.c" 1
 4263 1334 7894      		sei
 4264               	 ;  0 "" 2
 4265               	/* #NOAPP */
 4266               	.LBE880:
 4267               	.LBE879:
 4268               	.LBE876:
 4269               	.LBE875:
 4270               	.LM429:
 4271 1336 85E1      		ldi r24,lo8(21)
 4272 1338 90E0      		ldi r25,hi8(21)
 4273 133a 489F      		mul r20,r24
 4274 133c F001      		movw r30,r0
 4275 133e 499F      		mul r20,r25
 4276 1340 F00D      		add r31,r0
 4277 1342 589F      		mul r21,r24
 4278 1344 F00D      		add r31,r0
 4279 1346 1124      		clr r1
 4280 1348 EC0F      		add r30,r28
 4281 134a FD1F      		adc r31,r29
 4282 134c 23A9      		ldd r18,Z+51
 4283 134e 34A9      		ldd r19,Z+52
 4284 1350 45A9      		ldd r20,Z+53
 4285 1352 56A9      		ldd r21,Z+54
 4286 1354 2E19      		sub r18,r14
 4287 1356 3F09      		sbc r19,r15
 4288 1358 400B      		sbc r20,r16
 4289 135a 510B      		sbc r21,r17
 4290               	.LBB881:
 4291               	.LBB882:
 4292               	.LM430:
 4293 135c 23AF      		std Z+59,r18
 4294 135e 34AF      		std Z+60,r19
 4295 1360 45AF      		std Z+61,r20
 4296 1362 56AF      		std Z+62,r21
 4297               	.LBE882:
 4298               	.LBE881:
 4299               	.LBB883:
 4300               	.LBB884:
 4301               	.LM431:
 4302 1364 EF01      		movw r28,r30
 4303 1366 EF96      		adiw r28,63
 4304 1368 E7A8      		ldd r14,Z+55
 4305 136a F0AC      		ldd r15,Z+56
 4306 136c 01AD      		ldd r16,Z+57
 4307 136e 12AD      		ldd r17,Z+58
 4308               	.LVL277:
 4309 1370 D801      		movw r26,r16
 4310 1372 C701      		movw r24,r14
 4311 1374 821B      		sub r24,r18
 4312 1376 930B      		sbc r25,r19
 4313 1378 A40B      		sbc r26,r20
 4314 137a B50B      		sbc r27,r21
 4315 137c 8883      		st Y,r24
 4316 137e 9983      		std Y+1,r25
 4317 1380 AA83      		std Y+2,r26
 4318 1382 BB83      		std Y+3,r27
 4319               	.LBE884:
 4320               	.LBE883:
 4321               	.LM432:
 4322 1384 1216      		cp __zero_reg__,r18
 4323 1386 1306      		cpc __zero_reg__,r19
 4324 1388 1406      		cpc __zero_reg__,r20
 4325 138a 1506      		cpc __zero_reg__,r21
 4326 138c 04F4      		brge .+2
 4327 138e 00C0      		rjmp .L199
 4328               	.LBB885:
 4329               	.LBB886:
 4330               	.LM433:
 4331 1390 13AA      		std Z+51,__zero_reg__
 4332 1392 14AA      		std Z+52,__zero_reg__
 4333 1394 15AA      		std Z+53,__zero_reg__
 4334 1396 16AA      		std Z+54,__zero_reg__
 4335               	.LBE886:
 4336               	.LBE885:
 4337               	.LBB887:
 4338               	.LBB888:
 4339               	.LM434:
 4340 1398 13AE      		std Z+59,__zero_reg__
 4341 139a 14AE      		std Z+60,__zero_reg__
 4342 139c 15AE      		std Z+61,__zero_reg__
 4343 139e 16AE      		std Z+62,__zero_reg__
 4344               	.LBE888:
 4345               	.LBE887:
 4346               	.LBB889:
 4347               	.LBB890:
 4348               	.LM435:
 4349 13a0 E882      		st Y,r14
 4350 13a2 F982      		std Y+1,r15
 4351 13a4 0A83      		std Y+2,r16
 4352 13a6 1B83      		std Y+3,r17
 4353               	.LBE890:
 4354               	.LBE889:
 4355               	.LBB891:
 4356               	.LBB892:
 4357               	.LM436:
 4358 13a8 82A9      		ldd r24,Z+50
 4359 13aa 817E      		andi r24,lo8(-31)
 4360 13ac 8860      		ori r24,lo8(8)
 4361 13ae 82AB      		std Z+50,r24
 4362 13b0 00C0      		rjmp .L199
 4363               	.L197:
 4364               	.LBE892:
 4365               	.LBE891:
 4366               	.LM437:
 4367 13b2 8230      		cpi r24,lo8(2)
 4368 13b4 01F4      		brne .L199
 4369               	.LBB893:
 4370               	.LBB894:
 4371               	.LBB895:
 4372               	.LBB896:
 4373               	.LM438:
 4374               	/* #APP */
 4375               	 ;  341 "timebase.c" 1
 4376 13b6 F894      		cli
 4377               	 ;  0 "" 2
 4378               	/* #NOAPP */
 4379               	.LBE896:
 4380               	.LBE895:
 4381               	.LM439:
 4382 13b8 8A85      		ldd r24,Y+10
 4383 13ba 9B85      		ldd r25,Y+11
 4384 13bc AC85      		ldd r26,Y+12
 4385 13be BD85      		ldd r27,Y+13
 4386               	.LVL278:
 4387               	.LBB897:
 4388               	.LBB898:
 4389               	.LM440:
 4390               	/* #APP */
 4391               	 ;  345 "timebase.c" 1
 4392 13c0 7894      		sei
 4393               	 ;  0 "" 2
 4394               	/* #NOAPP */
 4395               	.LBE898:
 4396               	.LBE897:
 4397               	.LBE894:
 4398               	.LBE893:
 4399               	.LBB899:
 4400               	.LBB900:
 4401               	.LM441:
 4402 13c2 25E1      		ldi r18,lo8(21)
 4403 13c4 30E0      		ldi r19,hi8(21)
 4404 13c6 429F      		mul r20,r18
 4405 13c8 F001      		movw r30,r0
 4406 13ca 439F      		mul r20,r19
 4407 13cc F00D      		add r31,r0
 4408 13ce 529F      		mul r21,r18
 4409 13d0 F00D      		add r31,r0
 4410 13d2 1124      		clr r1
 4411 13d4 EC0F      		add r30,r28
 4412 13d6 FD1F      		adc r31,r29
 4413 13d8 23AD      		ldd r18,Z+59
 4414 13da 34AD      		ldd r19,Z+60
 4415 13dc 45AD      		ldd r20,Z+61
 4416 13de 56AD      		ldd r21,Z+62
 4417 13e0 820F      		add r24,r18
 4418 13e2 931F      		adc r25,r19
 4419 13e4 A41F      		adc r26,r20
 4420 13e6 B51F      		adc r27,r21
 4421 13e8 83AB      		std Z+51,r24
 4422 13ea 94AB      		std Z+52,r25
 4423 13ec A5AB      		std Z+53,r26
 4424 13ee B6AB      		std Z+54,r27
 4425               	.LBE900:
 4426               	.LBE899:
 4427               	.LBB901:
 4428               	.LBB902:
 4429               	.LM442:
 4430 13f0 87A9      		ldd r24,Z+55
 4431 13f2 90AD      		ldd r25,Z+56
 4432 13f4 A1AD      		ldd r26,Z+57
 4433 13f6 B2AD      		ldd r27,Z+58
 4434               	.LVL279:
 4435 13f8 821B      		sub r24,r18
 4436 13fa 930B      		sbc r25,r19
 4437 13fc A40B      		sbc r26,r20
 4438 13fe B50B      		sbc r27,r21
 4439 1400 FF96      		adiw r30,63
 4440 1402 8083      		st Z,r24
 4441 1404 9183      		std Z+1,r25
 4442 1406 A283      		std Z+2,r26
 4443 1408 B383      		std Z+3,r27
 4444               	.L199:
 4445               	/* epilogue start */
 4446               	.LBE902:
 4447               	.LBE901:
 4448               	.LM443:
 4449 140a DF91      		pop r29
 4450 140c CF91      		pop r28
 4451 140e 1F91      		pop r17
 4452 1410 0F91      		pop r16
 4453 1412 FF90      		pop r15
 4454 1414 EF90      		pop r14
 4455 1416 0895      		ret
 4456               	.LFE78:
 4458               	.global	Timebase_UpCounter_Expired
 4460               	Timebase_UpCounter_Expired:
 4461               	.LFB79:
 4462               	.LM444:
 4463               	.LVL280:
 4464               	/* prologue: function */
 4465               	/* frame size = 0 */
 4466               	.LM445:
 4467 1418 40E0      		ldi r20,lo8(0)
 4468 141a E091 0000 		lds r30,Timebase
 4469 141e F091 0000 		lds r31,(Timebase)+1
 4470 1422 90E0      		ldi r25,lo8(0)
 4471               	.LVL281:
 4472 1424 25E1      		ldi r18,lo8(21)
 4473 1426 30E0      		ldi r19,hi8(21)
 4474 1428 BC01      		movw r22,r24
 4475 142a 629F      		mul r22,r18
 4476 142c C001      		movw r24,r0
 4477 142e 639F      		mul r22,r19
 4478 1430 900D      		add r25,r0
 4479 1432 729F      		mul r23,r18
 4480 1434 900D      		add r25,r0
 4481 1436 1124      		clr r1
 4482               	.LVL282:
 4483 1438 E80F      		add r30,r24
 4484 143a F91F      		adc r31,r25
 4485 143c 82A9      		ldd r24,Z+50
 4486 143e 8695      		lsr r24
 4487 1440 8F70      		andi r24,lo8(15)
 4488 1442 8430      		cpi r24,lo8(4)
 4489 1444 01F4      		brne .L201
 4490 1446 41E0      		ldi r20,lo8(1)
 4491               	.L201:
 4492               	.LM446:
 4493 1448 842F      		mov r24,r20
 4494               	/* epilogue start */
 4495 144a 0895      		ret
 4496               	.LFE79:
 4498               	.global	Timebase_UpCounter_Expired_Event
 4500               	Timebase_UpCounter_Expired_Event:
 4501               	.LFB80:
 4502               	.LM447:
 4503               	.LVL283:
 4504               	/* prologue: function */
 4505               	/* frame size = 0 */
 4506 144c 482F      		mov r20,r24
 4507               	.LM448:
 4508 144e E091 0000 		lds r30,Timebase
 4509 1452 F091 0000 		lds r31,(Timebase)+1
 4510 1456 282F      		mov r18,r24
 4511 1458 30E0      		ldi r19,lo8(0)
 4512               	.LVL284:
 4513 145a 85E1      		ldi r24,lo8(21)
 4514 145c 90E0      		ldi r25,hi8(21)
 4515               	.LVL285:
 4516 145e BC01      		movw r22,r24
 4517 1460 269F      		mul r18,r22
 4518 1462 C001      		movw r24,r0
 4519 1464 279F      		mul r18,r23
 4520 1466 900D      		add r25,r0
 4521 1468 369F      		mul r19,r22
 4522 146a 900D      		add r25,r0
 4523 146c 1124      		clr r1
 4524 146e E80F      		add r30,r24
 4525 1470 F91F      		adc r31,r25
 4526 1472 82A9      		ldd r24,Z+50
 4527 1474 8695      		lsr r24
 4528 1476 8F70      		andi r24,lo8(15)
 4529 1478 8430      		cpi r24,lo8(4)
 4530 147a 01F0      		breq .L204
 4531 147c 80E0      		ldi r24,lo8(0)
 4532 147e 0895      		ret
 4533               	.L204:
 4534               	.LBB903:
 4535               	.LBB904:
 4536               	.LM449:
 4537 1480 842F      		mov r24,r20
 4538 1482 0E94 0000 		call Timebase_UpCounter_Reset
 4539               	.LVL286:
 4540 1486 81E0      		ldi r24,lo8(1)
 4541               	.LBE904:
 4542               	.LBE903:
 4543               	.LM450:
 4544 1488 0895      		ret
 4545               	.LFE80:
 4547               	.global	Timebase_UpCounter_Set_Period_Value_Securely
 4549               	Timebase_UpCounter_Set_Period_Value_Securely:
 4550               	.LFB81:
 4551               	.LM451:
 4552               	.LVL287:
 4553 148a CF93      		push r28
 4554 148c DF93      		push r29
 4555               	/* prologue: function */
 4556               	/* frame size = 0 */
 4557               	.LBB905:
 4558               	.LBB906:
 4559               	.LM452:
 4560 148e C091 0000 		lds r28,Timebase
 4561 1492 D091 0000 		lds r29,(Timebase)+1
 4562 1496 90E0      		ldi r25,lo8(0)
 4563               	.LBE906:
 4564               	.LBE905:
 4565               	.LM453:
 4566 1498 25E1      		ldi r18,lo8(21)
 4567 149a 30E0      		ldi r19,hi8(21)
 4568 149c FC01      		movw r30,r24
 4569               	.LVL288:
 4570 149e E29F      		mul r30,r18
 4571 14a0 C001      		movw r24,r0
 4572 14a2 E39F      		mul r30,r19
 4573 14a4 900D      		add r25,r0
 4574 14a6 F29F      		mul r31,r18
 4575 14a8 900D      		add r25,r0
 4576 14aa 1124      		clr r1
 4577 14ac C80F      		add r28,r24
 4578 14ae D91F      		adc r29,r25
 4579 14b0 8AA9      		ldd r24,Y+50
 4580 14b2 80FD      		sbrc r24,0
 4581 14b4 00C0      		rjmp .L209
 4582               	.LBB907:
 4583               	.LBB908:
 4584               	.LM454:
 4585 14b6 FE01      		movw r30,r28
 4586 14b8 ED5B      		subi r30,lo8(-(67))
 4587 14ba FF4F      		sbci r31,hi8(-(67))
 4588 14bc EF96      		adiw r28,63
 4589 14be 8881      		ld r24,Y
 4590 14c0 9981      		ldd r25,Y+1
 4591 14c2 AA81      		ldd r26,Y+2
 4592 14c4 BB81      		ldd r27,Y+3
 4593 14c6 EF97      		sbiw r28,63
 4594 14c8 840F      		add r24,r20
 4595 14ca 951F      		adc r25,r21
 4596 14cc A61F      		adc r26,r22
 4597 14ce B71F      		adc r27,r23
 4598 14d0 8083      		st Z,r24
 4599 14d2 9183      		std Z+1,r25
 4600 14d4 A283      		std Z+2,r26
 4601 14d6 B383      		std Z+3,r27
 4602               	.LBE908:
 4603               	.LBE907:
 4604               	.LBB909:
 4605               	.LBB910:
 4606               	.LM455:
 4607 14d8 8AA9      		ldd r24,Y+50
 4608 14da 8160      		ori r24,lo8(1)
 4609 14dc 8AAB      		std Y+50,r24
 4610               	.L209:
 4611               	/* epilogue start */
 4612               	.LBE910:
 4613               	.LBE909:
 4614               	.LM456:
 4615 14de DF91      		pop r29
 4616 14e0 CF91      		pop r28
 4617 14e2 0895      		ret
 4618               	.LFE81:
 4620               	.global	Timebase_UpCounter_Get_Remaining_Period_Value
 4622               	Timebase_UpCounter_Get_Remaining_Period_Value:
 4623               	.LFB82:
 4624               	.LM457:
 4625               	.LVL289:
 4626               	/* prologue: function */
 4627               	/* frame size = 0 */
 4628               	.LBB911:
 4629               	.LBB912:
 4630               	.LM458:
 4631 14e4 E091 0000 		lds r30,Timebase
 4632 14e8 F091 0000 		lds r31,(Timebase)+1
 4633 14ec 90E0      		ldi r25,lo8(0)
 4634               	.LBE912:
 4635               	.LBE911:
 4636               	.LM459:
 4637 14ee 25E1      		ldi r18,lo8(21)
 4638 14f0 30E0      		ldi r19,hi8(21)
 4639 14f2 AC01      		movw r20,r24
 4640               	.LVL290:
 4641 14f4 429F      		mul r20,r18
 4642 14f6 C001      		movw r24,r0
 4643 14f8 439F      		mul r20,r19
 4644 14fa 900D      		add r25,r0
 4645 14fc 529F      		mul r21,r18
 4646 14fe 900D      		add r25,r0
 4647 1500 1124      		clr r1
 4648 1502 E80F      		add r30,r24
 4649 1504 F91F      		adc r31,r25
 4650 1506 DF01      		movw r26,r30
 4651 1508 DF96      		adiw r26,63
 4652 150a ED5B      		subi r30,lo8(-(67))
 4653 150c FF4F      		sbci r31,hi8(-(67))
 4654 150e 2081      		ld r18,Z
 4655 1510 3181      		ldd r19,Z+1
 4656 1512 4281      		ldd r20,Z+2
 4657 1514 5381      		ldd r21,Z+3
 4658               	.LVL291:
 4659 1516 8D91      		ld r24,X+
 4660 1518 9D91      		ld r25,X+
 4661 151a 0D90      		ld __tmp_reg__,X+
 4662 151c BC91      		ld r27,X
 4663 151e A02D      		mov r26,__tmp_reg__
 4664 1520 281B      		sub r18,r24
 4665 1522 390B      		sbc r19,r25
 4666 1524 4A0B      		sbc r20,r26
 4667 1526 5B0B      		sbc r21,r27
 4668 1528 57FF      		sbrs r21,7
 4669 152a 00C0      		rjmp .L211
 4670 152c 20E0      		ldi r18,lo8(0)
 4671 152e 30E0      		ldi r19,hi8(0)
 4672 1530 40E0      		ldi r20,hlo8(0)
 4673 1532 50E0      		ldi r21,hhi8(0)
 4674               	.L211:
 4675               	.LM460:
 4676 1534 B901      		movw r22,r18
 4677               	.LVL292:
 4678 1536 CA01      		movw r24,r20
 4679               	/* epilogue start */
 4680 1538 0895      		ret
 4681               	.LFE82:
 4683               	.global	Timebase_UpCounter_Period_Value_Expired
 4685               	Timebase_UpCounter_Period_Value_Expired:
 4686               	.LFB83:
 4687               	.LM461:
 4688               	.LVL293:
 4689 153a CF93      		push r28
 4690 153c DF93      		push r29
 4691               	/* prologue: function */
 4692               	/* frame size = 0 */
 4693               	.LBB913:
 4694               	.LBB914:
 4695               	.LBB915:
 4696               	.LBB916:
 4697               	.LM462:
 4698 153e C091 0000 		lds r28,Timebase
 4699 1542 D091 0000 		lds r29,(Timebase)+1
 4700 1546 682F      		mov r22,r24
 4701 1548 70E0      		ldi r23,lo8(0)
 4702               	.LBE916:
 4703               	.LBE915:
 4704               	.LM463:
 4705 154a 85E1      		ldi r24,lo8(21)
 4706 154c 90E0      		ldi r25,hi8(21)
 4707               	.LVL294:
 4708 154e 689F      		mul r22,r24
 4709 1550 F001      		movw r30,r0
 4710 1552 699F      		mul r22,r25
 4711 1554 F00D      		add r31,r0
 4712 1556 789F      		mul r23,r24
 4713 1558 F00D      		add r31,r0
 4714 155a 1124      		clr r1
 4715 155c EC0F      		add r30,r28
 4716 155e FD1F      		adc r31,r29
 4717 1560 DF01      		movw r26,r30
 4718 1562 DF96      		adiw r26,63
 4719 1564 ED5B      		subi r30,lo8(-(67))
 4720 1566 FF4F      		sbci r31,hi8(-(67))
 4721 1568 2081      		ld r18,Z
 4722 156a 3181      		ldd r19,Z+1
 4723 156c 4281      		ldd r20,Z+2
 4724 156e 5381      		ldd r21,Z+3
 4725               	.LVL295:
 4726 1570 8D91      		ld r24,X+
 4727 1572 9D91      		ld r25,X+
 4728 1574 0D90      		ld __tmp_reg__,X+
 4729 1576 BC91      		ld r27,X
 4730 1578 A02D      		mov r26,__tmp_reg__
 4731 157a 281B      		sub r18,r24
 4732 157c 390B      		sbc r19,r25
 4733 157e 4A0B      		sbc r20,r26
 4734 1580 5B0B      		sbc r21,r27
 4735               	.LM464:
 4736 1582 57FD      		sbrc r21,7
 4737 1584 00C0      		rjmp .L214
 4738               	.LBE914:
 4739               	.LBE913:
 4740               	.LM465:
 4741 1586 2115      		cp r18,__zero_reg__
 4742 1588 3105      		cpc r19,__zero_reg__
 4743 158a 4105      		cpc r20,__zero_reg__
 4744 158c 5105      		cpc r21,__zero_reg__
 4745 158e 01F0      		breq .L214
 4746 1590 20E0      		ldi r18,lo8(0)
 4747               	.LVL296:
 4748 1592 00C0      		rjmp .L215
 4749               	.LVL297:
 4750               	.L214:
 4751 1594 20E0      		ldi r18,lo8(0)
 4752               	.LVL298:
 4753 1596 85E1      		ldi r24,lo8(21)
 4754 1598 90E0      		ldi r25,hi8(21)
 4755 159a AC01      		movw r20,r24
 4756 159c 649F      		mul r22,r20
 4757 159e C001      		movw r24,r0
 4758 15a0 659F      		mul r22,r21
 4759 15a2 900D      		add r25,r0
 4760 15a4 749F      		mul r23,r20
 4761 15a6 900D      		add r25,r0
 4762 15a8 1124      		clr r1
 4763 15aa C80F      		add r28,r24
 4764 15ac D91F      		adc r29,r25
 4765 15ae 8AA9      		ldd r24,Y+50
 4766 15b0 80FF      		sbrs r24,0
 4767 15b2 21E0      		ldi r18,lo8(1)
 4768               	.L216:
 4769 15b4 81E0      		ldi r24,lo8(1)
 4770 15b6 2827      		eor r18,r24
 4771               	.L215:
 4772               	.LM466:
 4773 15b8 822F      		mov r24,r18
 4774               	/* epilogue start */
 4775 15ba DF91      		pop r29
 4776 15bc CF91      		pop r28
 4777 15be 0895      		ret
 4778               	.LFE83:
 4780               	.global	Timebase_UpCounter_Period_Value_Expired_Event
 4782               	Timebase_UpCounter_Period_Value_Expired_Event:
 4783               	.LFB84:
 4784               	.LM467:
 4785               	.LVL299:
 4786 15c0 1F93      		push r17
 4787               	/* prologue: function */
 4788               	/* frame size = 0 */
 4789 15c2 182F      		mov r17,r24
 4790               	.LM468:
 4791 15c4 0E94 0000 		call Timebase_UpCounter_Period_Value_Expired
 4792               	.LVL300:
 4793 15c8 8130      		cpi r24,lo8(1)
 4794 15ca 01F0      		breq .L219
 4795 15cc 80E0      		ldi r24,lo8(0)
 4796 15ce 00C0      		rjmp .L220
 4797               	.L219:
 4798               	.LBB917:
 4799               	.LBB918:
 4800               	.LM469:
 4801 15d0 E091 0000 		lds r30,Timebase
 4802 15d4 F091 0000 		lds r31,(Timebase)+1
 4803 15d8 212F      		mov r18,r17
 4804 15da 30E0      		ldi r19,lo8(0)
 4805               	.LVL301:
 4806 15dc 85E1      		ldi r24,lo8(21)
 4807 15de 90E0      		ldi r25,hi8(21)
 4808 15e0 AC01      		movw r20,r24
 4809 15e2 249F      		mul r18,r20
 4810 15e4 C001      		movw r24,r0
 4811 15e6 259F      		mul r18,r21
 4812 15e8 900D      		add r25,r0
 4813 15ea 349F      		mul r19,r20
 4814 15ec 900D      		add r25,r0
 4815 15ee 1124      		clr r1
 4816 15f0 E80F      		add r30,r24
 4817 15f2 F91F      		adc r31,r25
 4818 15f4 82A9      		ldd r24,Z+50
 4819 15f6 8E7F      		andi r24,lo8(-2)
 4820 15f8 82AB      		std Z+50,r24
 4821 15fa 81E0      		ldi r24,lo8(1)
 4822               	.L220:
 4823               	/* epilogue start */
 4824               	.LBE918:
 4825               	.LBE917:
 4826               	.LM470:
 4827 15fc 1F91      		pop r17
 4828               	.LVL302:
 4829 15fe 0895      		ret
 4830               	.LFE84:
 4832               	.global	Timebase_UpCounter_Update_All
 4834               	Timebase_UpCounter_Update_All:
 4835               	.LFB85:
 4836               	.LM471:
 4837               	/* prologue: function */
 4838               	/* frame size = 0 */
 4839               	.LBB919:
 4840               	.LM472:
 4841 1600 80E0      		ldi r24,lo8(0)
 4842 1602 0E94 0000 		call Timebase_UpCounter_Update
 4843               	/* epilogue start */
 4844               	.LBE919:
 4845               	.LM473:
 4846 1606 0895      		ret
 4847               	.LFE85:
 4849               	.global	Timebase_UpCounter_Reset_All
 4851               	Timebase_UpCounter_Reset_All:
 4852               	.LFB86:
 4853               	.LM474:
 4854               	/* prologue: function */
 4855               	/* frame size = 0 */
 4856               	.LBB920:
 4857               	.LM475:
 4858 1608 80E0      		ldi r24,lo8(0)
 4859 160a 0E94 0000 		call Timebase_UpCounter_Reset
 4860               	/* epilogue start */
 4861               	.LBE920:
 4862               	.LM476:
 4863 160e 0895      		ret
 4864               	.LFE86:
 4866               	.global	Timebase_DownCounter_SS_Get_Status
 4868               	Timebase_DownCounter_SS_Get_Status:
 4869               	.LFB87:
 4870               	.LM477:
 4871               	.LVL303:
 4872               	/* prologue: function */
 4873               	/* frame size = 0 */
 4874               	.LM478:
 4875 1610 E091 0000 		lds r30,Timebase
 4876 1614 F091 0000 		lds r31,(Timebase)+1
 4877 1618 90E0      		ldi r25,lo8(0)
 4878               	.LVL304:
 4879 161a 9C01      		movw r18,r24
 4880 161c 44E0      		ldi r20,4
 4881 161e 220F      	1:	lsl r18
 4882 1620 331F      		rol r19
 4883 1622 4A95      		dec r20
 4884 1624 01F4      		brne 1b
 4885 1626 280F      		add r18,r24
 4886 1628 391F      		adc r19,r25
 4887 162a E20F      		add r30,r18
 4888 162c F31F      		adc r31,r19
 4889 162e E95B      		subi r30,lo8(-(71))
 4890 1630 FF4F      		sbci r31,hi8(-(71))
 4891 1632 8081      		ld r24,Z
 4892               	.LVL305:
 4893 1634 8695      		lsr r24
 4894               	.LM479:
 4895 1636 8F70      		andi r24,lo8(15)
 4896               	/* epilogue start */
 4897 1638 0895      		ret
 4898               	.LFE87:
 4900               	.global	Timebase_DownCounter_SS_Set_Status
 4902               	Timebase_DownCounter_SS_Set_Status:
 4903               	.LFB88:
 4904               	.LM480:
 4905               	.LVL306:
 4906               	/* prologue: function */
 4907               	/* frame size = 0 */
 4908               	.LM481:
 4909 163a E091 0000 		lds r30,Timebase
 4910 163e F091 0000 		lds r31,(Timebase)+1
 4911 1642 90E0      		ldi r25,lo8(0)
 4912               	.LVL307:
 4913 1644 9C01      		movw r18,r24
 4914 1646 54E0      		ldi r21,4
 4915 1648 220F      	1:	lsl r18
 4916 164a 331F      		rol r19
 4917 164c 5A95      		dec r21
 4918 164e 01F4      		brne 1b
 4919 1650 280F      		add r18,r24
 4920 1652 391F      		adc r19,r25
 4921 1654 E20F      		add r30,r18
 4922 1656 F31F      		adc r31,r19
 4923 1658 E95B      		subi r30,lo8(-(71))
 4924 165a FF4F      		sbci r31,hi8(-(71))
 4925 165c 6F70      		andi r22,lo8(15)
 4926               	.LVL308:
 4927 165e 660F      		lsl r22
 4928 1660 8081      		ld r24,Z
 4929               	.LVL309:
 4930 1662 817E      		andi r24,lo8(-31)
 4931 1664 862B      		or r24,r22
 4932 1666 8083      		st Z,r24
 4933               	/* epilogue start */
 4934               	.LM482:
 4935 1668 0895      		ret
 4936               	.LFE88:
 4938               	.global	Timebase_DownCounter_SS_Get_Value
 4940               	Timebase_DownCounter_SS_Get_Value:
 4941               	.LFB89:
 4942               	.LM483:
 4943               	.LVL310:
 4944               	/* prologue: function */
 4945               	/* frame size = 0 */
 4946               	.LM484:
 4947 166a E091 0000 		lds r30,Timebase
 4948 166e F091 0000 		lds r31,(Timebase)+1
 4949 1672 90E0      		ldi r25,lo8(0)
 4950               	.LVL311:
 4951 1674 9C01      		movw r18,r24
 4952 1676 64E0      		ldi r22,4
 4953 1678 220F      	1:	lsl r18
 4954 167a 331F      		rol r19
 4955 167c 6A95      		dec r22
 4956 167e 01F4      		brne 1b
 4957 1680 280F      		add r18,r24
 4958 1682 391F      		adc r19,r25
 4959 1684 E20F      		add r30,r18
 4960 1686 F31F      		adc r31,r19
 4961 1688 E05B      		subi r30,lo8(-(80))
 4962 168a FF4F      		sbci r31,hi8(-(80))
 4963 168c 6081      		ld r22,Z
 4964 168e 7181      		ldd r23,Z+1
 4965               	.LM485:
 4966 1690 8281      		ldd r24,Z+2
 4967               	.LVL312:
 4968 1692 9381      		ldd r25,Z+3
 4969               	.LVL313:
 4970               	/* epilogue start */
 4971 1694 0895      		ret
 4972               	.LFE89:
 4974               	.global	Timebase_DownCounter_SS_Set_Value
 4976               	Timebase_DownCounter_SS_Set_Value:
 4977               	.LFB90:
 4978               	.LM486:
 4979               	.LVL314:
 4980               	/* prologue: function */
 4981               	/* frame size = 0 */
 4982               	.LM487:
 4983 1696 E091 0000 		lds r30,Timebase
 4984 169a F091 0000 		lds r31,(Timebase)+1
 4985 169e 90E0      		ldi r25,lo8(0)
 4986               	.LVL315:
 4987 16a0 9C01      		movw r18,r24
 4988 16a2 A4E0      		ldi r26,4
 4989 16a4 220F      	1:	lsl r18
 4990 16a6 331F      		rol r19
 4991 16a8 AA95      		dec r26
 4992 16aa 01F4      		brne 1b
 4993 16ac 280F      		add r18,r24
 4994 16ae 391F      		adc r19,r25
 4995 16b0 E20F      		add r30,r18
 4996 16b2 F31F      		adc r31,r19
 4997 16b4 E05B      		subi r30,lo8(-(80))
 4998 16b6 FF4F      		sbci r31,hi8(-(80))
 4999 16b8 4083      		st Z,r20
 5000 16ba 5183      		std Z+1,r21
 5001 16bc 6283      		std Z+2,r22
 5002 16be 7383      		std Z+3,r23
 5003               	/* epilogue start */
 5004               	.LM488:
 5005 16c0 0895      		ret
 5006               	.LFE90:
 5008               	.global	Timebase_DownCounter_SS_Get_EndValueSec
 5010               	Timebase_DownCounter_SS_Get_EndValueSec:
 5011               	.LFB91:
 5012               	.LM489:
 5013               	.LVL316:
 5014               	/* prologue: function */
 5015               	/* frame size = 0 */
 5016               	.LM490:
 5017 16c2 E091 0000 		lds r30,Timebase
 5018 16c6 F091 0000 		lds r31,(Timebase)+1
 5019 16ca 90E0      		ldi r25,lo8(0)
 5020               	.LVL317:
 5021 16cc 9C01      		movw r18,r24
 5022 16ce B4E0      		ldi r27,4
 5023 16d0 220F      	1:	lsl r18
 5024 16d2 331F      		rol r19
 5025 16d4 BA95      		dec r27
 5026 16d6 01F4      		brne 1b
 5027 16d8 280F      		add r18,r24
 5028 16da 391F      		adc r19,r25
 5029 16dc E20F      		add r30,r18
 5030 16de F31F      		adc r31,r19
 5031 16e0 E85B      		subi r30,lo8(-(72))
 5032 16e2 FF4F      		sbci r31,hi8(-(72))
 5033 16e4 6081      		ld r22,Z
 5034 16e6 7181      		ldd r23,Z+1
 5035               	.LM491:
 5036 16e8 8281      		ldd r24,Z+2
 5037               	.LVL318:
 5038 16ea 9381      		ldd r25,Z+3
 5039               	.LVL319:
 5040               	/* epilogue start */
 5041 16ec 0895      		ret
 5042               	.LFE91:
 5044               	.global	Timebase_DownCounter_SS_Get_EndValueSubSec
 5046               	Timebase_DownCounter_SS_Get_EndValueSubSec:
 5047               	.LFB92:
 5048               	.LM492:
 5049               	.LVL320:
 5050               	/* prologue: function */
 5051               	/* frame size = 0 */
 5052               	.LM493:
 5053 16ee E091 0000 		lds r30,Timebase
 5054 16f2 F091 0000 		lds r31,(Timebase)+1
 5055 16f6 90E0      		ldi r25,lo8(0)
 5056               	.LVL321:
 5057 16f8 9C01      		movw r18,r24
 5058 16fa 44E0      		ldi r20,4
 5059 16fc 220F      	1:	lsl r18
 5060 16fe 331F      		rol r19
 5061 1700 4A95      		dec r20
 5062 1702 01F4      		brne 1b
 5063 1704 280F      		add r18,r24
 5064 1706 391F      		adc r19,r25
 5065 1708 E20F      		add r30,r18
 5066 170a F31F      		adc r31,r19
 5067 170c E45B      		subi r30,lo8(-(76))
 5068 170e FF4F      		sbci r31,hi8(-(76))
 5069 1710 6081      		ld r22,Z
 5070 1712 7181      		ldd r23,Z+1
 5071               	.LM494:
 5072 1714 8281      		ldd r24,Z+2
 5073               	.LVL322:
 5074 1716 9381      		ldd r25,Z+3
 5075               	.LVL323:
 5076               	/* epilogue start */
 5077 1718 0895      		ret
 5078               	.LFE92:
 5080               	.global	Timebase_DownCounter_SS_Set_EndValueSec
 5082               	Timebase_DownCounter_SS_Set_EndValueSec:
 5083               	.LFB93:
 5084               	.LM495:
 5085               	.LVL324:
 5086               	/* prologue: function */
 5087               	/* frame size = 0 */
 5088               	.LM496:
 5089 171a E091 0000 		lds r30,Timebase
 5090 171e F091 0000 		lds r31,(Timebase)+1
 5091 1722 90E0      		ldi r25,lo8(0)
 5092               	.LVL325:
 5093 1724 9C01      		movw r18,r24
 5094 1726 A4E0      		ldi r26,4
 5095 1728 220F      	1:	lsl r18
 5096 172a 331F      		rol r19
 5097 172c AA95      		dec r26
 5098 172e 01F4      		brne 1b
 5099 1730 280F      		add r18,r24
 5100 1732 391F      		adc r19,r25
 5101 1734 E20F      		add r30,r18
 5102 1736 F31F      		adc r31,r19
 5103 1738 E85B      		subi r30,lo8(-(72))
 5104 173a FF4F      		sbci r31,hi8(-(72))
 5105 173c 4083      		st Z,r20
 5106 173e 5183      		std Z+1,r21
 5107 1740 6283      		std Z+2,r22
 5108 1742 7383      		std Z+3,r23
 5109               	/* epilogue start */
 5110               	.LM497:
 5111 1744 0895      		ret
 5112               	.LFE93:
 5114               	.global	Timebase_DownCounter_SS_Set_EndValueSubSec
 5116               	Timebase_DownCounter_SS_Set_EndValueSubSec:
 5117               	.LFB94:
 5118               	.LM498:
 5119               	.LVL326:
 5120               	/* prologue: function */
 5121               	/* frame size = 0 */
 5122               	.LM499:
 5123 1746 E091 0000 		lds r30,Timebase
 5124 174a F091 0000 		lds r31,(Timebase)+1
 5125 174e 90E0      		ldi r25,lo8(0)
 5126               	.LVL327:
 5127 1750 9C01      		movw r18,r24
 5128 1752 B4E0      		ldi r27,4
 5129 1754 220F      	1:	lsl r18
 5130 1756 331F      		rol r19
 5131 1758 BA95      		dec r27
 5132 175a 01F4      		brne 1b
 5133 175c 280F      		add r18,r24
 5134 175e 391F      		adc r19,r25
 5135 1760 E20F      		add r30,r18
 5136 1762 F31F      		adc r31,r19
 5137 1764 E45B      		subi r30,lo8(-(76))
 5138 1766 FF4F      		sbci r31,hi8(-(76))
 5139 1768 4083      		st Z,r20
 5140 176a 5183      		std Z+1,r21
 5141 176c 6283      		std Z+2,r22
 5142 176e 7383      		std Z+3,r23
 5143               	/* epilogue start */
 5144               	.LM500:
 5145 1770 0895      		ret
 5146               	.LFE94:
 5148               	.global	Timebase_DownCounter_SS_Get_PeriodValue
 5150               	Timebase_DownCounter_SS_Get_PeriodValue:
 5151               	.LFB95:
 5152               	.LM501:
 5153               	.LVL328:
 5154               	/* prologue: function */
 5155               	/* frame size = 0 */
 5156               	.LM502:
 5157 1772 E091 0000 		lds r30,Timebase
 5158 1776 F091 0000 		lds r31,(Timebase)+1
 5159 177a 90E0      		ldi r25,lo8(0)
 5160               	.LVL329:
 5161 177c 9C01      		movw r18,r24
 5162 177e 44E0      		ldi r20,4
 5163 1780 220F      	1:	lsl r18
 5164 1782 331F      		rol r19
 5165 1784 4A95      		dec r20
 5166 1786 01F4      		brne 1b
 5167 1788 280F      		add r18,r24
 5168 178a 391F      		adc r19,r25
 5169 178c E20F      		add r30,r18
 5170 178e F31F      		adc r31,r19
 5171 1790 EC5A      		subi r30,lo8(-(84))
 5172 1792 FF4F      		sbci r31,hi8(-(84))
 5173 1794 6081      		ld r22,Z
 5174 1796 7181      		ldd r23,Z+1
 5175               	.LM503:
 5176 1798 8281      		ldd r24,Z+2
 5177               	.LVL330:
 5178 179a 9381      		ldd r25,Z+3
 5179               	.LVL331:
 5180               	/* epilogue start */
 5181 179c 0895      		ret
 5182               	.LFE95:
 5184               	.global	Timebase_DownCounter_SS_Set_PeriodValue
 5186               	Timebase_DownCounter_SS_Set_PeriodValue:
 5187               	.LFB96:
 5188               	.LM504:
 5189               	.LVL332:
 5190               	/* prologue: function */
 5191               	/* frame size = 0 */
 5192 179e E091 0000 		lds r30,Timebase
 5193 17a2 F091 0000 		lds r31,(Timebase)+1
 5194 17a6 282F      		mov r18,r24
 5195 17a8 30E0      		ldi r19,lo8(0)
 5196               	.LVL333:
 5197               	.LM505:
 5198 17aa 77FF      		sbrs r23,7
 5199 17ac 00C0      		rjmp .L245
 5200               	.LVL334:
 5201               	.LM506:
 5202 17ae C901      		movw r24,r18
 5203 17b0 B4E0      		ldi r27,4
 5204 17b2 880F      	1:	lsl r24
 5205 17b4 991F      		rol r25
 5206 17b6 BA95      		dec r27
 5207 17b8 01F4      		brne 1b
 5208 17ba 820F      		add r24,r18
 5209 17bc 931F      		adc r25,r19
 5210 17be E80F      		add r30,r24
 5211 17c0 F91F      		adc r31,r25
 5212 17c2 EC5A      		subi r30,lo8(-(84))
 5213 17c4 FF4F      		sbci r31,hi8(-(84))
 5214 17c6 1082      		st Z,__zero_reg__
 5215 17c8 1182      		std Z+1,__zero_reg__
 5216 17ca 1282      		std Z+2,__zero_reg__
 5217 17cc 1382      		std Z+3,__zero_reg__
 5218 17ce 0895      		ret
 5219               	.LVL335:
 5220               	.L245:
 5221               	.LM507:
 5222 17d0 C901      		movw r24,r18
 5223 17d2 A4E0      		ldi r26,4
 5224 17d4 880F      	1:	lsl r24
 5225 17d6 991F      		rol r25
 5226 17d8 AA95      		dec r26
 5227 17da 01F4      		brne 1b
 5228 17dc 820F      		add r24,r18
 5229 17de 931F      		adc r25,r19
 5230 17e0 E80F      		add r30,r24
 5231 17e2 F91F      		adc r31,r25
 5232 17e4 EC5A      		subi r30,lo8(-(84))
 5233 17e6 FF4F      		sbci r31,hi8(-(84))
 5234 17e8 4083      		st Z,r20
 5235 17ea 5183      		std Z+1,r21
 5236 17ec 6283      		std Z+2,r22
 5237 17ee 7383      		std Z+3,r23
 5238 17f0 0895      		ret
 5239               	.LFE96:
 5241               	.global	Timebase_DownCounter_SS_Get_Period_Flag
 5243               	Timebase_DownCounter_SS_Get_Period_Flag:
 5244               	.LFB97:
 5245               	.LM508:
 5246               	.LVL336:
 5247               	/* prologue: function */
 5248               	/* frame size = 0 */
 5249               	.LM509:
 5250 17f2 E091 0000 		lds r30,Timebase
 5251 17f6 F091 0000 		lds r31,(Timebase)+1
 5252 17fa 90E0      		ldi r25,lo8(0)
 5253               	.LVL337:
 5254 17fc 9C01      		movw r18,r24
 5255 17fe 44E0      		ldi r20,4
 5256 1800 220F      	1:	lsl r18
 5257 1802 331F      		rol r19
 5258 1804 4A95      		dec r20
 5259 1806 01F4      		brne 1b
 5260 1808 280F      		add r18,r24
 5261 180a 391F      		adc r19,r25
 5262 180c E20F      		add r30,r18
 5263 180e F31F      		adc r31,r19
 5264 1810 E95B      		subi r30,lo8(-(71))
 5265 1812 FF4F      		sbci r31,hi8(-(71))
 5266 1814 8081      		ld r24,Z
 5267               	.LVL338:
 5268               	.LM510:
 5269 1816 8170      		andi r24,lo8(1)
 5270               	/* epilogue start */
 5271 1818 0895      		ret
 5272               	.LFE97:
 5274               	.global	Timebase_DownCounter_SS_Set_Period_Flag
 5276               	Timebase_DownCounter_SS_Set_Period_Flag:
 5277               	.LFB98:
 5278               	.LM511:
 5279               	.LVL339:
 5280               	/* prologue: function */
 5281               	/* frame size = 0 */
 5282               	.LM512:
 5283 181a E091 0000 		lds r30,Timebase
 5284 181e F091 0000 		lds r31,(Timebase)+1
 5285 1822 90E0      		ldi r25,lo8(0)
 5286               	.LVL340:
 5287 1824 9C01      		movw r18,r24
 5288 1826 54E0      		ldi r21,4
 5289 1828 220F      	1:	lsl r18
 5290 182a 331F      		rol r19
 5291 182c 5A95      		dec r21
 5292 182e 01F4      		brne 1b
 5293 1830 280F      		add r18,r24
 5294 1832 391F      		adc r19,r25
 5295 1834 E20F      		add r30,r18
 5296 1836 F31F      		adc r31,r19
 5297 1838 E95B      		subi r30,lo8(-(71))
 5298 183a FF4F      		sbci r31,hi8(-(71))
 5299 183c 8081      		ld r24,Z
 5300               	.LVL341:
 5301 183e 8160      		ori r24,lo8(1)
 5302 1840 8083      		st Z,r24
 5303               	/* epilogue start */
 5304               	.LM513:
 5305 1842 0895      		ret
 5306               	.LFE98:
 5308               	.global	Timebase_DownCounter_SS_Clear_Period_Flag
 5310               	Timebase_DownCounter_SS_Clear_Period_Flag:
 5311               	.LFB99:
 5312               	.LM514:
 5313               	.LVL342:
 5314               	/* prologue: function */
 5315               	/* frame size = 0 */
 5316               	.LM515:
 5317 1844 E091 0000 		lds r30,Timebase
 5318 1848 F091 0000 		lds r31,(Timebase)+1
 5319 184c 90E0      		ldi r25,lo8(0)
 5320               	.LVL343:
 5321 184e 9C01      		movw r18,r24
 5322 1850 64E0      		ldi r22,4
 5323 1852 220F      	1:	lsl r18
 5324 1854 331F      		rol r19
 5325 1856 6A95      		dec r22
 5326 1858 01F4      		brne 1b
 5327 185a 280F      		add r18,r24
 5328 185c 391F      		adc r19,r25
 5329 185e E20F      		add r30,r18
 5330 1860 F31F      		adc r31,r19
 5331 1862 E95B      		subi r30,lo8(-(71))
 5332 1864 FF4F      		sbci r31,hi8(-(71))
 5333 1866 8081      		ld r24,Z
 5334               	.LVL344:
 5335 1868 8E7F      		andi r24,lo8(-2)
 5336 186a 8083      		st Z,r24
 5337               	/* epilogue start */
 5338               	.LM516:
 5339 186c 0895      		ret
 5340               	.LFE99:
 5342               	.global	Timebase_DownCounter_SS_Reset
 5344               	Timebase_DownCounter_SS_Reset:
 5345               	.LFB100:
 5346               	.LM517:
 5347               	.LVL345:
 5348               	/* prologue: function */
 5349               	/* frame size = 0 */
 5350               	.LBB921:
 5351               	.LBB922:
 5352               	.LM518:
 5353 186e E091 0000 		lds r30,Timebase
 5354 1872 F091 0000 		lds r31,(Timebase)+1
 5355 1876 90E0      		ldi r25,lo8(0)
 5356 1878 9C01      		movw r18,r24
 5357               	.LVL346:
 5358 187a 74E0      		ldi r23,4
 5359 187c 220F      	1:	lsl r18
 5360 187e 331F      		rol r19
 5361 1880 7A95      		dec r23
 5362 1882 01F4      		brne 1b
 5363 1884 280F      		add r18,r24
 5364 1886 391F      		adc r19,r25
 5365 1888 E20F      		add r30,r18
 5366 188a F31F      		adc r31,r19
 5367 188c E45B      		subi r30,lo8(-(76))
 5368 188e FF4F      		sbci r31,hi8(-(76))
 5369 1890 1082      		st Z,__zero_reg__
 5370 1892 1182      		std Z+1,__zero_reg__
 5371 1894 1282      		std Z+2,__zero_reg__
 5372 1896 1382      		std Z+3,__zero_reg__
 5373               	.LBE922:
 5374               	.LBE921:
 5375               	.LBB923:
 5376               	.LBB924:
 5377               	.LM519:
 5378 1898 1292      		st -Z,__zero_reg__
 5379 189a 1292      		st -Z,__zero_reg__
 5380 189c 1292      		st -Z,__zero_reg__
 5381 189e 1292      		st -Z,__zero_reg__
 5382               	.LBE924:
 5383               	.LBE923:
 5384               	.LBB925:
 5385               	.LBB926:
 5386               	.LM520:
 5387 18a0 3896      		adiw r30,8
 5388 18a2 1082      		st Z,__zero_reg__
 5389 18a4 1182      		std Z+1,__zero_reg__
 5390 18a6 1282      		std Z+2,__zero_reg__
 5391 18a8 1382      		std Z+3,__zero_reg__
 5392               	.LBE926:
 5393               	.LBE925:
 5394               	.LBB927:
 5395               	.LBB928:
 5396               	.LM521:
 5397 18aa 3997      		sbiw r30,9
 5398 18ac 8081      		ld r24,Z
 5399               	.LBE928:
 5400               	.LBE927:
 5401               	.LBB929:
 5402               	.LBB930:
 5403               	.LM522:
 5404 18ae 807E      		andi r24,lo8(-32)
 5405 18b0 8083      		st Z,r24
 5406               	/* epilogue start */
 5407               	.LBE930:
 5408               	.LBE929:
 5409               	.LM523:
 5410 18b2 0895      		ret
 5411               	.LFE100:
 5413               	.global	Timebase_DownCounter_SS_Clear_All_Flags
 5415               	Timebase_DownCounter_SS_Clear_All_Flags:
 5416               	.LFB101:
 5417               	.LM524:
 5418               	.LVL347:
 5419               	/* prologue: function */
 5420               	/* frame size = 0 */
 5421               	.LBB931:
 5422               	.LBB932:
 5423               	.LBB933:
 5424               	.LBB934:
 5425               	.LM525:
 5426 18b4 E091 0000 		lds r30,Timebase
 5427 18b8 F091 0000 		lds r31,(Timebase)+1
 5428 18bc 90E0      		ldi r25,lo8(0)
 5429 18be 9C01      		movw r18,r24
 5430               	.LVL348:
 5431 18c0 A4E0      		ldi r26,4
 5432 18c2 220F      	1:	lsl r18
 5433 18c4 331F      		rol r19
 5434 18c6 AA95      		dec r26
 5435 18c8 01F4      		brne 1b
 5436 18ca 280F      		add r18,r24
 5437 18cc 391F      		adc r19,r25
 5438 18ce E20F      		add r30,r18
 5439 18d0 F31F      		adc r31,r19
 5440 18d2 E45B      		subi r30,lo8(-(76))
 5441 18d4 FF4F      		sbci r31,hi8(-(76))
 5442 18d6 1082      		st Z,__zero_reg__
 5443 18d8 1182      		std Z+1,__zero_reg__
 5444 18da 1282      		std Z+2,__zero_reg__
 5445 18dc 1382      		std Z+3,__zero_reg__
 5446               	.LBE934:
 5447               	.LBE933:
 5448               	.LBB935:
 5449               	.LBB936:
 5450               	.LM526:
 5451 18de 1292      		st -Z,__zero_reg__
 5452 18e0 1292      		st -Z,__zero_reg__
 5453 18e2 1292      		st -Z,__zero_reg__
 5454 18e4 1292      		st -Z,__zero_reg__
 5455               	.LBE936:
 5456               	.LBE935:
 5457               	.LBB937:
 5458               	.LBB938:
 5459               	.LM527:
 5460 18e6 3896      		adiw r30,8
 5461 18e8 1082      		st Z,__zero_reg__
 5462 18ea 1182      		std Z+1,__zero_reg__
 5463 18ec 1282      		std Z+2,__zero_reg__
 5464 18ee 1382      		std Z+3,__zero_reg__
 5465               	.LBE938:
 5466               	.LBE937:
 5467               	.LBB939:
 5468               	.LBB940:
 5469               	.LM528:
 5470 18f0 3997      		sbiw r30,9
 5471 18f2 8081      		ld r24,Z
 5472               	.LBE940:
 5473               	.LBE939:
 5474               	.LBB941:
 5475               	.LBB942:
 5476               	.LM529:
 5477 18f4 807E      		andi r24,lo8(-32)
 5478 18f6 8083      		st Z,r24
 5479               	/* epilogue start */
 5480               	.LBE942:
 5481               	.LBE941:
 5482               	.LBE932:
 5483               	.LBE931:
 5484               	.LM530:
 5485 18f8 0895      		ret
 5486               	.LFE101:
 5488               	.global	Timebase_DownCounter_SS_Start
 5490               	Timebase_DownCounter_SS_Start:
 5491               	.LFB102:
 5492               	.LM531:
 5493               	.LVL349:
 5494               	/* prologue: function */
 5495               	/* frame size = 0 */
 5496               	.LBB943:
 5497               	.LBB944:
 5498               	.LM532:
 5499 18fa E091 0000 		lds r30,Timebase
 5500 18fe F091 0000 		lds r31,(Timebase)+1
 5501 1902 90E0      		ldi r25,lo8(0)
 5502               	.LBE944:
 5503               	.LBE943:
 5504               	.LM533:
 5505 1904 9C01      		movw r18,r24
 5506               	.LVL350:
 5507 1906 B4E0      		ldi r27,4
 5508 1908 220F      	1:	lsl r18
 5509 190a 331F      		rol r19
 5510 190c BA95      		dec r27
 5511 190e 01F4      		brne 1b
 5512 1910 280F      		add r18,r24
 5513 1912 391F      		adc r19,r25
 5514 1914 E20F      		add r30,r18
 5515 1916 F31F      		adc r31,r19
 5516 1918 E95B      		subi r30,lo8(-(71))
 5517 191a FF4F      		sbci r31,hi8(-(71))
 5518 191c 9081      		ld r25,Z
 5519 191e 892F      		mov r24,r25
 5520 1920 8695      		lsr r24
 5521 1922 8F70      		andi r24,lo8(15)
 5522 1924 8130      		cpi r24,lo8(1)
 5523 1926 01F0      		breq .L260
 5524               	.LBB945:
 5525               	.LBB946:
 5526               	.LM534:
 5527 1928 917E      		andi r25,lo8(-31)
 5528 192a 9260      		ori r25,lo8(2)
 5529 192c 9083      		st Z,r25
 5530               	.L260:
 5531 192e 0895      		ret
 5532               	.LBE946:
 5533               	.LBE945:
 5534               	.LFE102:
 5536               	.global	Timebase_DownCounter_SS_Stop
 5538               	Timebase_DownCounter_SS_Stop:
 5539               	.LFB103:
 5540               	.LM535:
 5541               	.LVL351:
 5542               	/* prologue: function */
 5543               	/* frame size = 0 */
 5544               	.LBB947:
 5545               	.LBB948:
 5546               	.LM536:
 5547 1930 E091 0000 		lds r30,Timebase
 5548 1934 F091 0000 		lds r31,(Timebase)+1
 5549 1938 90E0      		ldi r25,lo8(0)
 5550               	.LBE948:
 5551               	.LBE947:
 5552               	.LM537:
 5553 193a 9C01      		movw r18,r24
 5554               	.LVL352:
 5555 193c 44E0      		ldi r20,4
 5556 193e 220F      	1:	lsl r18
 5557 1940 331F      		rol r19
 5558 1942 4A95      		dec r20
 5559 1944 01F4      		brne 1b
 5560 1946 280F      		add r18,r24
 5561 1948 391F      		adc r19,r25
 5562 194a E20F      		add r30,r18
 5563 194c F31F      		adc r31,r19
 5564 194e E95B      		subi r30,lo8(-(71))
 5565 1950 FF4F      		sbci r31,hi8(-(71))
 5566 1952 9081      		ld r25,Z
 5567 1954 892F      		mov r24,r25
 5568 1956 8695      		lsr r24
 5569 1958 8F70      		andi r24,lo8(15)
 5570 195a 8230      		cpi r24,lo8(2)
 5571 195c 01F0      		breq .L263
 5572               	.LBB949:
 5573               	.LBB950:
 5574               	.LM538:
 5575 195e 917E      		andi r25,lo8(-31)
 5576 1960 9460      		ori r25,lo8(4)
 5577 1962 9083      		st Z,r25
 5578               	.L263:
 5579 1964 0895      		ret
 5580               	.LBE950:
 5581               	.LBE949:
 5582               	.LFE103:
 5584               	.global	Timebase_DownCounter_SS_Set_Securely
 5586               	Timebase_DownCounter_SS_Set_Securely:
 5587               	.LFB104:
 5588               	.LM539:
 5589               	.LVL353:
 5590 1966 2F92      		push r2
 5591 1968 3F92      		push r3
 5592 196a 4F92      		push r4
 5593 196c 5F92      		push r5
 5594 196e 6F92      		push r6
 5595 1970 7F92      		push r7
 5596 1972 8F92      		push r8
 5597 1974 9F92      		push r9
 5598 1976 AF92      		push r10
 5599 1978 BF92      		push r11
 5600 197a CF92      		push r12
 5601 197c DF92      		push r13
 5602 197e EF92      		push r14
 5603 1980 FF92      		push r15
 5604 1982 0F93      		push r16
 5605 1984 1F93      		push r17
 5606 1986 DF93      		push r29
 5607 1988 CF93      		push r28
 5608 198a 00D0      		rcall .
 5609 198c 00D0      		rcall .
 5610 198e CDB7      		in r28,__SP_L__
 5611 1990 DEB7      		in r29,__SP_H__
 5612               	/* prologue: function */
 5613               	/* frame size = 4 */
 5614 1992 4A01      		movw r8,r20
 5615 1994 5B01      		movw r10,r22
 5616               	.LBB951:
 5617               	.LBB952:
 5618               	.LM540:
 5619 1996 2091 0000 		lds r18,Timebase
 5620 199a 3091 0000 		lds r19,(Timebase)+1
 5621 199e 3C83      		std Y+4,r19
 5622 19a0 2B83      		std Y+3,r18
 5623 19a2 A82F      		mov r26,r24
 5624 19a4 B0E0      		ldi r27,lo8(0)
 5625 19a6 BA83      		std Y+2,r27
 5626 19a8 A983      		std Y+1,r26
 5627               	.LBE952:
 5628               	.LBE951:
 5629               	.LM541:
 5630 19aa FD01      		movw r30,r26
 5631 19ac 64E0      		ldi r22,4
 5632 19ae EE0F      	1:	lsl r30
 5633 19b0 FF1F      		rol r31
 5634 19b2 6A95      		dec r22
 5635 19b4 01F4      		brne 1b
 5636 19b6 EA0F      		add r30,r26
 5637 19b8 FB1F      		adc r31,r27
 5638 19ba E20F      		add r30,r18
 5639 19bc F31F      		adc r31,r19
 5640 19be E95B      		subi r30,lo8(-(71))
 5641 19c0 FF4F      		sbci r31,hi8(-(71))
 5642 19c2 8081      		ld r24,Z
 5643               	.LVL354:
 5644 19c4 E754      		subi r30,lo8(-(-71))
 5645 19c6 F040      		sbci r31,hi8(-(-71))
 5646 19c8 8695      		lsr r24
 5647 19ca 8F70      		andi r24,lo8(15)
 5648 19cc 01F0      		breq .+2
 5649 19ce 00C0      		rjmp .L267
 5650               	.LVL355:
 5651               	.LBB953:
 5652               	.LBB954:
 5653               	.LBB955:
 5654               	.LM542:
 5655 19d0 E05B      		subi r30,lo8(-(80))
 5656 19d2 FF4F      		sbci r31,hi8(-(80))
 5657 19d4 8082      		st Z,r8
 5658 19d6 9182      		std Z+1,r9
 5659 19d8 A282      		std Z+2,r10
 5660 19da B382      		std Z+3,r11
 5661               	.LBE955:
 5662               	.LBE954:
 5663               	.LBB956:
 5664               	.LBB957:
 5665               	.LBB958:
 5666               	.LBB959:
 5667               	.LM543:
 5668               	/* #APP */
 5669               	 ;  341 "timebase.c" 1
 5670 19dc F894      		cli
 5671               	 ;  0 "" 2
 5672               	/* #NOAPP */
 5673               	.LBE959:
 5674               	.LBE958:
 5675               	.LM544:
 5676 19de F901      		movw r30,r18
 5677 19e0 C084      		ldd r12,Z+8
 5678 19e2 D184      		ldd r13,Z+9
 5679               	.LVL356:
 5680               	.LBB960:
 5681               	.LBB961:
 5682               	.LM545:
 5683               	/* #APP */
 5684               	 ;  345 "timebase.c" 1
 5685 19e4 7894      		sei
 5686               	 ;  0 "" 2
 5687               	/* #NOAPP */
 5688               	.LBE961:
 5689               	.LBE960:
 5690               	.LBE957:
 5691               	.LBE956:
 5692               	.LBB962:
 5693               	.LBB963:
 5694               	.LBB964:
 5695               	.LBB965:
 5696               	.LM546:
 5697               	/* #APP */
 5698               	 ;  341 "timebase.c" 1
 5699 19e6 F894      		cli
 5700               	 ;  0 "" 2
 5701               	/* #NOAPP */
 5702               	.LBE965:
 5703               	.LBE964:
 5704               	.LM547:
 5705 19e8 2284      		ldd r2,Z+10
 5706 19ea 3384      		ldd r3,Z+11
 5707 19ec 4484      		ldd r4,Z+12
 5708 19ee 5584      		ldd r5,Z+13
 5709               	.LVL357:
 5710               	.LBB966:
 5711               	.LBB967:
 5712               	.LM548:
 5713               	/* #APP */
 5714               	 ;  345 "timebase.c" 1
 5715 19f0 7894      		sei
 5716               	 ;  0 "" 2
 5717               	/* #NOAPP */
 5718               	.LBE967:
 5719               	.LBE966:
 5720               	.LBE963:
 5721               	.LBE962:
 5722               	.LM549:
 5723 19f2 2181      		ldd r18,Z+1
 5724 19f4 3281      		ldd r19,Z+2
 5725 19f6 40E0      		ldi r20,lo8(0)
 5726 19f8 50E0      		ldi r21,hi8(0)
 5727 19fa C501      		movw r24,r10
 5728 19fc B401      		movw r22,r8
 5729 19fe 0E94 0000 		call __divmodsi4
 5730 1a02 7B01      		movw r14,r22
 5731 1a04 8C01      		movw r16,r24
 5732               	.LM550:
 5733 1a06 AB81      		ldd r26,Y+3
 5734 1a08 BC81      		ldd r27,Y+4
 5735 1a0a 1196      		adiw r26,1
 5736 1a0c 2D91      		ld r18,X+
 5737 1a0e 3C91      		ld r19,X
 5738 1a10 1297      		sbiw r26,1+1
 5739 1a12 40E0      		ldi r20,lo8(0)
 5740 1a14 50E0      		ldi r21,hi8(0)
 5741 1a16 C501      		movw r24,r10
 5742 1a18 B401      		movw r22,r8
 5743 1a1a 0E94 0000 		call __divmodsi4
 5744 1a1e C901      		movw r24,r18
 5745 1a20 DA01      		movw r26,r20
 5746 1a22 3C01      		movw r6,r24
 5747 1a24 4D01      		movw r8,r26
 5748               	.LVL358:
 5749               	.LM551:
 5750 1a26 5601      		movw r10,r12
 5751               	.LVL359:
 5752 1a28 CC24      		clr r12
 5753 1a2a DD24      		clr r13
 5754               	.LVL360:
 5755 1a2c AE0C      		add r10,r14
 5756 1a2e BF1C      		adc r11,r15
 5757 1a30 C01E      		adc r12,r16
 5758 1a32 D11E      		adc r13,r17
 5759               	.LVL361:
 5760               	.LM552:
 5761 1a34 EB81      		ldd r30,Y+3
 5762 1a36 FC81      		ldd r31,Y+4
 5763 1a38 8181      		ldd r24,Z+1
 5764 1a3a 9281      		ldd r25,Z+2
 5765               	.LVL362:
 5766 1a3c A0E0      		ldi r26,lo8(0)
 5767 1a3e B0E0      		ldi r27,hi8(0)
 5768 1a40 A816      		cp r10,r24
 5769 1a42 B906      		cpc r11,r25
 5770 1a44 CA06      		cpc r12,r26
 5771 1a46 DB06      		cpc r13,r27
 5772 1a48 04F0      		brlt .L266
 5773               	.LM553:
 5774 1a4a 0894      		sec
 5775 1a4c 611C      		adc r6,__zero_reg__
 5776 1a4e 711C      		adc r7,__zero_reg__
 5777 1a50 811C      		adc r8,__zero_reg__
 5778 1a52 911C      		adc r9,__zero_reg__
 5779               	.LM554:
 5780 1a54 2181      		ldd r18,Z+1
 5781 1a56 3281      		ldd r19,Z+2
 5782 1a58 40E0      		ldi r20,lo8(0)
 5783 1a5a 50E0      		ldi r21,hi8(0)
 5784 1a5c C601      		movw r24,r12
 5785 1a5e B501      		movw r22,r10
 5786 1a60 0E94 0000 		call __divmodsi4
 5787 1a64 AC01      		movw r20,r24
 5788 1a66 CB01      		movw r24,r22
 5789 1a68 DA01      		movw r26,r20
 5790 1a6a 5C01      		movw r10,r24
 5791 1a6c 6D01      		movw r12,r26
 5792               	.L266:
 5793               	.LBB968:
 5794               	.LBB969:
 5795               	.LM555:
 5796 1a6e E981      		ldd r30,Y+1
 5797 1a70 FA81      		ldd r31,Y+2
 5798 1a72 54E0      		ldi r21,4
 5799 1a74 EE0F      	1:	lsl r30
 5800 1a76 FF1F      		rol r31
 5801 1a78 5A95      		dec r21
 5802 1a7a 01F4      		brne 1b
 5803 1a7c 2981      		ldd r18,Y+1
 5804 1a7e 3A81      		ldd r19,Y+2
 5805 1a80 E20F      		add r30,r18
 5806 1a82 F31F      		adc r31,r19
 5807 1a84 8B81      		ldd r24,Y+3
 5808 1a86 9C81      		ldd r25,Y+4
 5809 1a88 E80F      		add r30,r24
 5810 1a8a F91F      		adc r31,r25
 5811 1a8c E85B      		subi r30,lo8(-(72))
 5812 1a8e FF4F      		sbci r31,hi8(-(72))
 5813 1a90 260C      		add r2,r6
 5814 1a92 371C      		adc r3,r7
 5815 1a94 481C      		adc r4,r8
 5816 1a96 591C      		adc r5,r9
 5817 1a98 2192      		st Z+,r2
 5818 1a9a 3192      		st Z+,r3
 5819 1a9c 4192      		st Z+,r4
 5820 1a9e 5192      		st Z+,r5
 5821               	.LBE969:
 5822               	.LBE968:
 5823               	.LBB970:
 5824               	.LBB971:
 5825               	.LM556:
 5826 1aa0 A082      		st Z,r10
 5827 1aa2 B182      		std Z+1,r11
 5828 1aa4 C282      		std Z+2,r12
 5829 1aa6 D382      		std Z+3,r13
 5830               	.LBE971:
 5831               	.LBE970:
 5832               	.LBB972:
 5833               	.LBB973:
 5834               	.LM557:
 5835 1aa8 3597      		sbiw r30,5
 5836 1aaa 9081      		ld r25,Z
 5837 1aac 892F      		mov r24,r25
 5838 1aae 8695      		lsr r24
 5839 1ab0 8F70      		andi r24,lo8(15)
 5840 1ab2 8130      		cpi r24,lo8(1)
 5841 1ab4 01F0      		breq .L267
 5842               	.LBB974:
 5843               	.LBB975:
 5844               	.LM558:
 5845 1ab6 917E      		andi r25,lo8(-31)
 5846 1ab8 9260      		ori r25,lo8(2)
 5847 1aba 9083      		st Z,r25
 5848               	.LVL363:
 5849               	.L267:
 5850               	/* epilogue start */
 5851               	.LBE975:
 5852               	.LBE974:
 5853               	.LBE973:
 5854               	.LBE972:
 5855               	.LBE953:
 5856               	.LM559:
 5857 1abc 0F90      		pop __tmp_reg__
 5858 1abe 0F90      		pop __tmp_reg__
 5859 1ac0 0F90      		pop __tmp_reg__
 5860 1ac2 0F90      		pop __tmp_reg__
 5861 1ac4 CF91      		pop r28
 5862 1ac6 DF91      		pop r29
 5863 1ac8 1F91      		pop r17
 5864 1aca 0F91      		pop r16
 5865 1acc FF90      		pop r15
 5866 1ace EF90      		pop r14
 5867 1ad0 DF90      		pop r13
 5868 1ad2 CF90      		pop r12
 5869               	.LVL364:
 5870 1ad4 BF90      		pop r11
 5871 1ad6 AF90      		pop r10
 5872               	.LVL365:
 5873 1ad8 9F90      		pop r9
 5874 1ada 8F90      		pop r8
 5875               	.LVL366:
 5876 1adc 7F90      		pop r7
 5877 1ade 6F90      		pop r6
 5878               	.LVL367:
 5879 1ae0 5F90      		pop r5
 5880 1ae2 4F90      		pop r4
 5881 1ae4 3F90      		pop r3
 5882 1ae6 2F90      		pop r2
 5883               	.LVL368:
 5884 1ae8 0895      		ret
 5885               	.LFE104:
 5887               	.global	Timebase_DownCounter_SS_Set_Forcefully
 5889               	Timebase_DownCounter_SS_Set_Forcefully:
 5890               	.LFB105:
 5891               	.LM560:
 5892               	.LVL369:
 5893               	/* prologue: function */
 5894               	/* frame size = 0 */
 5895               	.LBB976:
 5896               	.LBB977:
 5897               	.LBB978:
 5898               	.LBB979:
 5899               	.LM561:
 5900 1aea E091 0000 		lds r30,Timebase
 5901 1aee F091 0000 		lds r31,(Timebase)+1
 5902 1af2 A82F      		mov r26,r24
 5903 1af4 B0E0      		ldi r27,lo8(0)
 5904 1af6 9D01      		movw r18,r26
 5905 1af8 94E0      		ldi r25,4
 5906 1afa 220F      	1:	lsl r18
 5907 1afc 331F      		rol r19
 5908 1afe 9A95      		dec r25
 5909 1b00 01F4      		brne 1b
 5910 1b02 2A0F      		add r18,r26
 5911 1b04 3B1F      		adc r19,r27
 5912 1b06 E20F      		add r30,r18
 5913 1b08 F31F      		adc r31,r19
 5914 1b0a E45B      		subi r30,lo8(-(76))
 5915 1b0c FF4F      		sbci r31,hi8(-(76))
 5916 1b0e 1082      		st Z,__zero_reg__
 5917 1b10 1182      		std Z+1,__zero_reg__
 5918 1b12 1282      		std Z+2,__zero_reg__
 5919 1b14 1382      		std Z+3,__zero_reg__
 5920               	.LBE979:
 5921               	.LBE978:
 5922               	.LBB980:
 5923               	.LBB981:
 5924               	.LM562:
 5925 1b16 1292      		st -Z,__zero_reg__
 5926 1b18 1292      		st -Z,__zero_reg__
 5927 1b1a 1292      		st -Z,__zero_reg__
 5928 1b1c 1292      		st -Z,__zero_reg__
 5929               	.LBE981:
 5930               	.LBE980:
 5931               	.LBB982:
 5932               	.LBB983:
 5933               	.LM563:
 5934 1b1e 3896      		adiw r30,8
 5935 1b20 1082      		st Z,__zero_reg__
 5936 1b22 1182      		std Z+1,__zero_reg__
 5937 1b24 1282      		std Z+2,__zero_reg__
 5938 1b26 1382      		std Z+3,__zero_reg__
 5939               	.LBE983:
 5940               	.LBE982:
 5941               	.LBB984:
 5942               	.LBB985:
 5943               	.LM564:
 5944 1b28 3997      		sbiw r30,9
 5945 1b2a 9081      		ld r25,Z
 5946               	.LBE985:
 5947               	.LBE984:
 5948               	.LBB986:
 5949               	.LBB987:
 5950               	.LM565:
 5951 1b2c 907E      		andi r25,lo8(-32)
 5952 1b2e 9083      		st Z,r25
 5953               	.LBE987:
 5954               	.LBE986:
 5955               	.LBE977:
 5956               	.LBE976:
 5957               	.LM566:
 5958 1b30 0E94 0000 		call Timebase_DownCounter_SS_Set_Securely
 5959               	.LVL370:
 5960               	/* epilogue start */
 5961               	.LM567:
 5962 1b34 0895      		ret
 5963               	.LFE105:
 5965               	.global	Timebase_DownCounter_SS_Update
 5967               	Timebase_DownCounter_SS_Update:
 5968               	.LFB106:
 5969               	.LM568:
 5970               	.LVL371:
 5971 1b36 4F92      		push r4
 5972 1b38 5F92      		push r5
 5973 1b3a 6F92      		push r6
 5974 1b3c 7F92      		push r7
 5975 1b3e 8F92      		push r8
 5976 1b40 9F92      		push r9
 5977 1b42 AF92      		push r10
 5978 1b44 BF92      		push r11
 5979 1b46 CF92      		push r12
 5980 1b48 DF92      		push r13
 5981 1b4a EF92      		push r14
 5982 1b4c FF92      		push r15
 5983 1b4e 0F93      		push r16
 5984 1b50 1F93      		push r17
 5985 1b52 DF93      		push r29
 5986 1b54 CF93      		push r28
 5987 1b56 00D0      		rcall .
 5988 1b58 00D0      		rcall .
 5989 1b5a CDB7      		in r28,__SP_L__
 5990 1b5c DEB7      		in r29,__SP_H__
 5991               	/* prologue: function */
 5992               	/* frame size = 4 */
 5993               	.LBB988:
 5994               	.LBB989:
 5995               	.LM569:
 5996 1b5e 6090 0000 		lds r6,Timebase
 5997 1b62 7090 0000 		lds r7,(Timebase)+1
 5998 1b66 C82E      		mov r12,r24
 5999 1b68 DD24      		clr r13
 6000 1b6a F601      		movw r30,r12
 6001 1b6c 54E0      		ldi r21,4
 6002 1b6e EE0F      	1:	lsl r30
 6003 1b70 FF1F      		rol r31
 6004 1b72 5A95      		dec r21
 6005 1b74 01F4      		brne 1b
 6006 1b76 EC0D      		add r30,r12
 6007 1b78 FD1D      		adc r31,r13
 6008 1b7a E60D      		add r30,r6
 6009 1b7c F71D      		adc r31,r7
 6010 1b7e E95B      		subi r30,lo8(-(71))
 6011 1b80 FF4F      		sbci r31,hi8(-(71))
 6012 1b82 E081      		ld r30,Z
 6013 1b84 E695      		lsr r30
 6014 1b86 EF70      		andi r30,lo8(15)
 6015               	.LBE989:
 6016               	.LBE988:
 6017               	.LM570:
 6018 1b88 E130      		cpi r30,lo8(1)
 6019 1b8a 01F0      		breq .+2
 6020 1b8c 00C0      		rjmp .L271
 6021               	.LBB990:
 6022               	.LBB991:
 6023               	.LBB992:
 6024               	.LBB993:
 6025               	.LBB994:
 6026               	.LM571:
 6027               	/* #APP */
 6028               	 ;  341 "timebase.c" 1
 6029 1b8e F894      		cli
 6030               	 ;  0 "" 2
 6031               	/* #NOAPP */
 6032               	.LBE994:
 6033               	.LBE993:
 6034               	.LM572:
 6035 1b90 D301      		movw r26,r6
 6036 1b92 1896      		adiw r26,8
 6037 1b94 8D91      		ld r24,X+
 6038 1b96 9C91      		ld r25,X
 6039 1b98 1997      		sbiw r26,8+1
 6040               	.LVL372:
 6041               	.LBB995:
 6042               	.LBB996:
 6043               	.LM573:
 6044               	/* #APP */
 6045               	 ;  345 "timebase.c" 1
 6046 1b9a 7894      		sei
 6047               	 ;  0 "" 2
 6048               	/* #NOAPP */
 6049               	.LBE996:
 6050               	.LBE995:
 6051               	.LBE992:
 6052               	.LBE991:
 6053               	.LM574:
 6054 1b9c 4C01      		movw r8,r24
 6055               	.LVL373:
 6056 1b9e AA24      		clr r10
 6057 1ba0 BB24      		clr r11
 6058               	.LVL374:
 6059               	.LBB997:
 6060               	.LBB998:
 6061               	.LBB999:
 6062               	.LBB1000:
 6063               	.LM575:
 6064               	/* #APP */
 6065               	 ;  341 "timebase.c" 1
 6066 1ba2 F894      		cli
 6067               	 ;  0 "" 2
 6068               	/* #NOAPP */
 6069               	.LBE1000:
 6070               	.LBE999:
 6071               	.LM576:
 6072 1ba4 F301      		movw r30,r6
 6073 1ba6 8285      		ldd r24,Z+10
 6074 1ba8 9385      		ldd r25,Z+11
 6075 1baa A485      		ldd r26,Z+12
 6076 1bac B585      		ldd r27,Z+13
 6077               	.LVL375:
 6078               	.LBB1001:
 6079               	.LBB1002:
 6080               	.LM577:
 6081               	/* #APP */
 6082               	 ;  345 "timebase.c" 1
 6083 1bae 7894      		sei
 6084               	 ;  0 "" 2
 6085               	/* #NOAPP */
 6086               	.LBE1002:
 6087               	.LBE1001:
 6088               	.LBE998:
 6089               	.LBE997:
 6090               	.LM578:
 6091 1bb0 F601      		movw r30,r12
 6092 1bb2 44E0      		ldi r20,4
 6093 1bb4 EE0F      	1:	lsl r30
 6094 1bb6 FF1F      		rol r31
 6095 1bb8 4A95      		dec r20
 6096 1bba 01F4      		brne 1b
 6097 1bbc EC0D      		add r30,r12
 6098 1bbe FD1D      		adc r31,r13
 6099 1bc0 E60D      		add r30,r6
 6100 1bc2 F71D      		adc r31,r7
 6101 1bc4 E85B      		subi r30,lo8(-(72))
 6102 1bc6 FF4F      		sbci r31,hi8(-(72))
 6103 1bc8 E080      		ld r14,Z
 6104 1bca F180      		ldd r15,Z+1
 6105 1bcc 0281      		ldd r16,Z+2
 6106 1bce 1381      		ldd r17,Z+3
 6107               	.LVL376:
 6108 1bd0 E81A      		sub r14,r24
 6109 1bd2 F90A      		sbc r15,r25
 6110 1bd4 0A0B      		sbc r16,r26
 6111 1bd6 1B0B      		sbc r17,r27
 6112 1bd8 17FF      		sbrs r17,7
 6113 1bda 00C0      		rjmp .L272
 6114 1bdc EE24      		clr r14
 6115 1bde FF24      		clr r15
 6116 1be0 8701      		movw r16,r14
 6117               	.L272:
 6118               	.LM579:
 6119 1be2 D301      		movw r26,r6
 6120 1be4 1196      		adiw r26,1
 6121 1be6 2D91      		ld r18,X+
 6122 1be8 3C91      		ld r19,X
 6123 1bea 1297      		sbiw r26,1+1
 6124 1bec 40E0      		ldi r20,lo8(0)
 6125 1bee 50E0      		ldi r21,hi8(0)
 6126 1bf0 C801      		movw r24,r16
 6127 1bf2 B701      		movw r22,r14
 6128 1bf4 0E94 0000 		call __mulsi3
 6129               	.LM580:
 6130 1bf8 F601      		movw r30,r12
 6131 1bfa 34E0      		ldi r19,4
 6132 1bfc EE0F      	1:	lsl r30
 6133 1bfe FF1F      		rol r31
 6134 1c00 3A95      		dec r19
 6135 1c02 01F4      		brne 1b
 6136 1c04 EC0D      		add r30,r12
 6137 1c06 FD1D      		adc r31,r13
 6138 1c08 E60D      		add r30,r6
 6139 1c0a F71D      		adc r31,r7
 6140 1c0c 8F01      		movw r16,r30
 6141 1c0e 045B      		subi r16,lo8(-(76))
 6142 1c10 1F4F      		sbci r17,hi8(-(76))
 6143 1c12 D801      		movw r26,r16
 6144 1c14 2D91      		ld r18,X+
 6145 1c16 3D91      		ld r19,X+
 6146 1c18 4D91      		ld r20,X+
 6147 1c1a 5C91      		ld r21,X
 6148               	.LVL377:
 6149 1c1c 2819      		sub r18,r8
 6150 1c1e 3909      		sbc r19,r9
 6151 1c20 4A09      		sbc r20,r10
 6152 1c22 5B09      		sbc r21,r11
 6153 1c24 260F      		add r18,r22
 6154 1c26 371F      		adc r19,r23
 6155 1c28 481F      		adc r20,r24
 6156 1c2a 591F      		adc r21,r25
 6157               	.LBB1003:
 6158               	.LBB1004:
 6159               	.LM581:
 6160 1c2c CF01      		movw r24,r30
 6161 1c2e 805B      		subi r24,lo8(-(80))
 6162 1c30 9F4F      		sbci r25,hi8(-(80))
 6163 1c32 DC01      		movw r26,r24
 6164 1c34 2D93      		st X+,r18
 6165 1c36 3D93      		st X+,r19
 6166 1c38 4D93      		st X+,r20
 6167 1c3a 5C93      		st X,r21
 6168 1c3c 1397      		sbiw r26,3
 6169               	.LBE1004:
 6170               	.LBE1003:
 6171               	.LM582:
 6172 1c3e 1216      		cp __zero_reg__,r18
 6173 1c40 1306      		cpc __zero_reg__,r19
 6174 1c42 1406      		cpc __zero_reg__,r20
 6175 1c44 1506      		cpc __zero_reg__,r21
 6176 1c46 04F4      		brge .+2
 6177 1c48 00C0      		rjmp .L274
 6178               	.LBB1005:
 6179               	.LBB1006:
 6180               	.LBB1007:
 6181               	.LBB1008:
 6182               	.LM583:
 6183 1c4a D801      		movw r26,r16
 6184 1c4c 1D92      		st X+,__zero_reg__
 6185 1c4e 1D92      		st X+,__zero_reg__
 6186 1c50 1D92      		st X+,__zero_reg__
 6187 1c52 1C92      		st X,__zero_reg__
 6188 1c54 1397      		sbiw r26,3
 6189               	.LBE1008:
 6190               	.LBE1007:
 6191               	.LBB1009:
 6192               	.LBB1010:
 6193               	.LM584:
 6194 1c56 E85B      		subi r30,lo8(-(72))
 6195 1c58 FF4F      		sbci r31,hi8(-(72))
 6196 1c5a 1082      		st Z,__zero_reg__
 6197 1c5c 1182      		std Z+1,__zero_reg__
 6198 1c5e 1282      		std Z+2,__zero_reg__
 6199 1c60 1382      		std Z+3,__zero_reg__
 6200               	.LBE1010:
 6201               	.LBE1009:
 6202               	.LBB1011:
 6203               	.LBB1012:
 6204               	.LM585:
 6205 1c62 DC01      		movw r26,r24
 6206 1c64 1D92      		st X+,__zero_reg__
 6207 1c66 1D92      		st X+,__zero_reg__
 6208 1c68 1D92      		st X+,__zero_reg__
 6209 1c6a 1C92      		st X,__zero_reg__
 6210 1c6c 1397      		sbiw r26,3
 6211               	.LBE1012:
 6212               	.LBE1011:
 6213               	.LBB1013:
 6214               	.LBB1014:
 6215               	.LM586:
 6216 1c6e 8291      		ld r24,-Z
 6217               	.LBE1014:
 6218               	.LBE1013:
 6219               	.LBE1006:
 6220               	.LBE1005:
 6221               	.LBB1015:
 6222               	.LBB1016:
 6223               	.LM587:
 6224 1c70 807E      		andi r24,lo8(-32)
 6225 1c72 8860      		ori r24,lo8(8)
 6226 1c74 8083      		st Z,r24
 6227 1c76 00C0      		rjmp .L274
 6228               	.LVL378:
 6229               	.L271:
 6230               	.LBE1016:
 6231               	.LBE1015:
 6232               	.LBE990:
 6233               	.LM588:
 6234 1c78 E230      		cpi r30,lo8(2)
 6235 1c7a 01F0      		breq .+2
 6236 1c7c 00C0      		rjmp .L274
 6237               	.LBB1017:
 6238               	.LBB1018:
 6239               	.LBB1019:
 6240               	.LBB1020:
 6241               	.LBB1021:
 6242               	.LM589:
 6243               	/* #APP */
 6244               	 ;  341 "timebase.c" 1
 6245 1c7e F894      		cli
 6246               	 ;  0 "" 2
 6247               	/* #NOAPP */
 6248               	.LBE1021:
 6249               	.LBE1020:
 6250               	.LM590:
 6251 1c80 F301      		movw r30,r6
 6252 1c82 4084      		ldd r4,Z+8
 6253 1c84 5184      		ldd r5,Z+9
 6254               	.LVL379:
 6255               	.LBB1022:
 6256               	.LBB1023:
 6257               	.LM591:
 6258               	/* #APP */
 6259               	 ;  345 "timebase.c" 1
 6260 1c86 7894      		sei
 6261               	 ;  0 "" 2
 6262               	/* #NOAPP */
 6263               	.LBE1023:
 6264               	.LBE1022:
 6265               	.LBE1019:
 6266               	.LBE1018:
 6267               	.LBB1024:
 6268               	.LBB1025:
 6269               	.LBB1026:
 6270               	.LBB1027:
 6271               	.LM592:
 6272               	/* #APP */
 6273               	 ;  341 "timebase.c" 1
 6274 1c88 F894      		cli
 6275               	 ;  0 "" 2
 6276               	/* #NOAPP */
 6277               	.LBE1027:
 6278               	.LBE1026:
 6279               	.LM593:
 6280 1c8a D301      		movw r26,r6
 6281 1c8c 1A96      		adiw r26,10
 6282 1c8e 8D90      		ld r8,X+
 6283 1c90 9D90      		ld r9,X+
 6284 1c92 AD90      		ld r10,X+
 6285 1c94 BC90      		ld r11,X
 6286 1c96 1D97      		sbiw r26,10+3
 6287               	.LVL380:
 6288               	.LBB1028:
 6289               	.LBB1029:
 6290               	.LM594:
 6291               	/* #APP */
 6292               	 ;  345 "timebase.c" 1
 6293 1c98 7894      		sei
 6294               	 ;  0 "" 2
 6295               	/* #NOAPP */
 6296               	.LBE1029:
 6297               	.LBE1028:
 6298               	.LBE1025:
 6299               	.LBE1024:
 6300               	.LBB1030:
 6301               	.LBB1031:
 6302               	.LM595:
 6303 1c9a 8601      		movw r16,r12
 6304 1c9c 24E0      		ldi r18,4
 6305 1c9e 000F      	1:	lsl r16
 6306 1ca0 111F      		rol r17
 6307 1ca2 2A95      		dec r18
 6308 1ca4 01F4      		brne 1b
 6309 1ca6 0C0D      		add r16,r12
 6310 1ca8 1D1D      		adc r17,r13
 6311 1caa 060D      		add r16,r6
 6312 1cac 171D      		adc r17,r7
 6313 1cae 005B      		subi r16,lo8(-(80))
 6314 1cb0 1F4F      		sbci r17,hi8(-(80))
 6315 1cb2 D801      		movw r26,r16
 6316 1cb4 8D91      		ld r24,X+
 6317 1cb6 9D91      		ld r25,X+
 6318 1cb8 0D90      		ld __tmp_reg__,X+
 6319 1cba BC91      		ld r27,X
 6320 1cbc A02D      		mov r26,__tmp_reg__
 6321               	.LVL381:
 6322 1cbe 8983      		std Y+1,r24
 6323 1cc0 9A83      		std Y+2,r25
 6324 1cc2 AB83      		std Y+3,r26
 6325 1cc4 BC83      		std Y+4,r27
 6326               	.LVL382:
 6327               	.LBE1031:
 6328               	.LBE1030:
 6329               	.LM596:
 6330 1cc6 F301      		movw r30,r6
 6331 1cc8 2181      		ldd r18,Z+1
 6332 1cca 3281      		ldd r19,Z+2
 6333               	.LM597:
 6334 1ccc C180      		ldd r12,Z+1
 6335 1cce D280      		ldd r13,Z+2
 6336               	.LBB1032:
 6337               	.LBB1033:
 6338               	.LM598:
 6339 1cd0 0850      		subi r16,lo8(-(-8))
 6340 1cd2 1040      		sbci r17,hi8(-(-8))
 6341 1cd4 40E0      		ldi r20,lo8(0)
 6342 1cd6 50E0      		ldi r21,hi8(0)
 6343 1cd8 BC01      		movw r22,r24
 6344 1cda CD01      		movw r24,r26
 6345 1cdc 0E94 0000 		call __divmodsi4
 6346 1ce0 820E      		add r8,r18
 6347 1ce2 931E      		adc r9,r19
 6348 1ce4 A41E      		adc r10,r20
 6349 1ce6 B51E      		adc r11,r21
 6350 1ce8 D801      		movw r26,r16
 6351 1cea 8D92      		st X+,r8
 6352 1cec 9D92      		st X+,r9
 6353 1cee AD92      		st X+,r10
 6354 1cf0 BD92      		st X+,r11
 6355 1cf2 8D01      		movw r16,r26
 6356               	.LBE1033:
 6357               	.LBE1032:
 6358               	.LBB1034:
 6359               	.LBB1035:
 6360               	.LM599:
 6361 1cf4 EE24      		clr r14
 6362 1cf6 FF24      		clr r15
 6363 1cf8 6981      		ldd r22,Y+1
 6364 1cfa 7A81      		ldd r23,Y+2
 6365 1cfc 8B81      		ldd r24,Y+3
 6366 1cfe 9C81      		ldd r25,Y+4
 6367 1d00 A701      		movw r20,r14
 6368 1d02 9601      		movw r18,r12
 6369 1d04 0E94 0000 		call __divmodsi4
 6370 1d08 6624      		clr r6
 6371 1d0a 7724      		clr r7
 6372               	.LVL383:
 6373 1d0c 460E      		add r4,r22
 6374 1d0e 571E      		adc r5,r23
 6375 1d10 681E      		adc r6,r24
 6376 1d12 791E      		adc r7,r25
 6377               	.LVL384:
 6378 1d14 F801      		movw r30,r16
 6379 1d16 4082      		st Z,r4
 6380 1d18 5182      		std Z+1,r5
 6381 1d1a 6282      		std Z+2,r6
 6382 1d1c 7382      		std Z+3,r7
 6383               	.LVL385:
 6384               	.L274:
 6385               	/* epilogue start */
 6386               	.LBE1035:
 6387               	.LBE1034:
 6388               	.LBE1017:
 6389               	.LM600:
 6390 1d1e 0F90      		pop __tmp_reg__
 6391 1d20 0F90      		pop __tmp_reg__
 6392 1d22 0F90      		pop __tmp_reg__
 6393 1d24 0F90      		pop __tmp_reg__
 6394 1d26 CF91      		pop r28
 6395 1d28 DF91      		pop r29
 6396 1d2a 1F91      		pop r17
 6397 1d2c 0F91      		pop r16
 6398 1d2e FF90      		pop r15
 6399 1d30 EF90      		pop r14
 6400 1d32 DF90      		pop r13
 6401 1d34 CF90      		pop r12
 6402 1d36 BF90      		pop r11
 6403 1d38 AF90      		pop r10
 6404               	.LVL386:
 6405 1d3a 9F90      		pop r9
 6406 1d3c 8F90      		pop r8
 6407               	.LVL387:
 6408 1d3e 7F90      		pop r7
 6409 1d40 6F90      		pop r6
 6410               	.LVL388:
 6411 1d42 5F90      		pop r5
 6412 1d44 4F90      		pop r4
 6413               	.LVL389:
 6414 1d46 0895      		ret
 6415               	.LFE106:
 6417               	.global	Timebase_DownCounter_SS_Expired
 6419               	Timebase_DownCounter_SS_Expired:
 6420               	.LFB107:
 6421               	.LM601:
 6422               	.LVL390:
 6423               	/* prologue: function */
 6424               	/* frame size = 0 */
 6425               	.LM602:
 6426 1d48 40E0      		ldi r20,lo8(0)
 6427 1d4a E091 0000 		lds r30,Timebase
 6428 1d4e F091 0000 		lds r31,(Timebase)+1
 6429 1d52 90E0      		ldi r25,lo8(0)
 6430               	.LVL391:
 6431 1d54 9C01      		movw r18,r24
 6432 1d56 64E0      		ldi r22,4
 6433 1d58 220F      	1:	lsl r18
 6434 1d5a 331F      		rol r19
 6435 1d5c 6A95      		dec r22
 6436 1d5e 01F4      		brne 1b
 6437 1d60 280F      		add r18,r24
 6438 1d62 391F      		adc r19,r25
 6439 1d64 E20F      		add r30,r18
 6440 1d66 F31F      		adc r31,r19
 6441 1d68 E95B      		subi r30,lo8(-(71))
 6442 1d6a FF4F      		sbci r31,hi8(-(71))
 6443 1d6c 8081      		ld r24,Z
 6444               	.LVL392:
 6445 1d6e 8695      		lsr r24
 6446 1d70 8F70      		andi r24,lo8(15)
 6447 1d72 8430      		cpi r24,lo8(4)
 6448 1d74 01F4      		brne .L276
 6449 1d76 41E0      		ldi r20,lo8(1)
 6450               	.L276:
 6451               	.LM603:
 6452 1d78 842F      		mov r24,r20
 6453               	/* epilogue start */
 6454 1d7a 0895      		ret
 6455               	.LFE107:
 6457               	.global	Timebase_DownCounter_SS_Expired_Event
 6459               	Timebase_DownCounter_SS_Expired_Event:
 6460               	.LFB108:
 6461               	.LM604:
 6462               	.LVL393:
 6463               	/* prologue: function */
 6464               	/* frame size = 0 */
 6465               	.LBB1036:
 6466               	.LBB1037:
 6467               	.LM605:
 6468 1d7c E091 0000 		lds r30,Timebase
 6469 1d80 F091 0000 		lds r31,(Timebase)+1
 6470 1d84 90E0      		ldi r25,lo8(0)
 6471               	.LBE1037:
 6472               	.LBE1036:
 6473               	.LM606:
 6474 1d86 9C01      		movw r18,r24
 6475               	.LVL394:
 6476 1d88 74E0      		ldi r23,4
 6477 1d8a 220F      	1:	lsl r18
 6478 1d8c 331F      		rol r19
 6479 1d8e 7A95      		dec r23
 6480 1d90 01F4      		brne 1b
 6481 1d92 280F      		add r18,r24
 6482 1d94 391F      		adc r19,r25
 6483 1d96 E20F      		add r30,r18
 6484 1d98 F31F      		adc r31,r19
 6485 1d9a DF01      		movw r26,r30
 6486 1d9c A95B      		subi r26,lo8(-(71))
 6487 1d9e BF4F      		sbci r27,hi8(-(71))
 6488 1da0 8C91      		ld r24,X
 6489 1da2 8695      		lsr r24
 6490 1da4 8F70      		andi r24,lo8(15)
 6491 1da6 8430      		cpi r24,lo8(4)
 6492 1da8 01F0      		breq .L279
 6493 1daa 80E0      		ldi r24,lo8(0)
 6494 1dac 0895      		ret
 6495               	.L279:
 6496               	.LBB1038:
 6497               	.LBB1039:
 6498               	.LBB1040:
 6499               	.LBB1041:
 6500               	.LBB1042:
 6501               	.LBB1043:
 6502               	.LM607:
 6503 1dae E45B      		subi r30,lo8(-(76))
 6504 1db0 FF4F      		sbci r31,hi8(-(76))
 6505 1db2 1082      		st Z,__zero_reg__
 6506 1db4 1182      		std Z+1,__zero_reg__
 6507 1db6 1282      		std Z+2,__zero_reg__
 6508 1db8 1382      		std Z+3,__zero_reg__
 6509               	.LBE1043:
 6510               	.LBE1042:
 6511               	.LBB1044:
 6512               	.LBB1045:
 6513               	.LM608:
 6514 1dba 1292      		st -Z,__zero_reg__
 6515 1dbc 1292      		st -Z,__zero_reg__
 6516 1dbe 1292      		st -Z,__zero_reg__
 6517 1dc0 1292      		st -Z,__zero_reg__
 6518               	.LBE1045:
 6519               	.LBE1044:
 6520               	.LBB1046:
 6521               	.LBB1047:
 6522               	.LM609:
 6523 1dc2 3896      		adiw r30,8
 6524 1dc4 1082      		st Z,__zero_reg__
 6525 1dc6 1182      		std Z+1,__zero_reg__
 6526 1dc8 1282      		std Z+2,__zero_reg__
 6527 1dca 1382      		std Z+3,__zero_reg__
 6528               	.LBE1047:
 6529               	.LBE1046:
 6530               	.LBB1048:
 6531               	.LBB1049:
 6532               	.LM610:
 6533 1dcc 8C91      		ld r24,X
 6534               	.LBE1049:
 6535               	.LBE1048:
 6536               	.LBB1050:
 6537               	.LBB1051:
 6538               	.LM611:
 6539 1dce 807E      		andi r24,lo8(-32)
 6540 1dd0 8C93      		st X,r24
 6541 1dd2 81E0      		ldi r24,lo8(1)
 6542               	.LBE1051:
 6543               	.LBE1050:
 6544               	.LBE1041:
 6545               	.LBE1040:
 6546               	.LBE1039:
 6547               	.LBE1038:
 6548               	.LM612:
 6549 1dd4 0895      		ret
 6550               	.LFE108:
 6552               	.global	Timebase_DownCounter_SS_Set_Period_Value_Securely
 6554               	Timebase_DownCounter_SS_Set_Period_Value_Securely:
 6555               	.LFB109:
 6556               	.LM613:
 6557               	.LVL395:
 6558 1dd6 CF93      		push r28
 6559 1dd8 DF93      		push r29
 6560               	/* prologue: function */
 6561               	/* frame size = 0 */
 6562               	.LBB1052:
 6563               	.LBB1053:
 6564               	.LM614:
 6565 1dda C091 0000 		lds r28,Timebase
 6566 1dde D091 0000 		lds r29,(Timebase)+1
 6567 1de2 282F      		mov r18,r24
 6568 1de4 30E0      		ldi r19,lo8(0)
 6569               	.LBE1053:
 6570               	.LBE1052:
 6571               	.LM615:
 6572 1de6 F901      		movw r30,r18
 6573 1de8 B4E0      		ldi r27,4
 6574 1dea EE0F      	1:	lsl r30
 6575 1dec FF1F      		rol r31
 6576 1dee BA95      		dec r27
 6577 1df0 01F4      		brne 1b
 6578 1df2 E20F      		add r30,r18
 6579 1df4 F31F      		adc r31,r19
 6580 1df6 EC0F      		add r30,r28
 6581 1df8 FD1F      		adc r31,r29
 6582 1dfa E95B      		subi r30,lo8(-(71))
 6583 1dfc FF4F      		sbci r31,hi8(-(71))
 6584 1dfe 8081      		ld r24,Z
 6585               	.LVL396:
 6586 1e00 E754      		subi r30,lo8(-(-71))
 6587 1e02 F040      		sbci r31,hi8(-(-71))
 6588 1e04 80FD      		sbrc r24,0
 6589 1e06 00C0      		rjmp .L286
 6590               	.LM616:
 6591 1e08 E05B      		subi r30,lo8(-(80))
 6592 1e0a FF4F      		sbci r31,hi8(-(80))
 6593 1e0c 8191      		ld r24,Z+
 6594 1e0e 9191      		ld r25,Z+
 6595 1e10 A191      		ld r26,Z+
 6596 1e12 B191      		ld r27,Z+
 6597 1e14 841B      		sub r24,r20
 6598 1e16 950B      		sbc r25,r21
 6599 1e18 A60B      		sbc r26,r22
 6600 1e1a B70B      		sbc r27,r23
 6601               	.LBB1054:
 6602               	.LBB1055:
 6603               	.LM617:
 6604 1e1c B7FF      		sbrs r27,7
 6605 1e1e 00C0      		rjmp .L284
 6606               	.LM618:
 6607 1e20 1082      		st Z,__zero_reg__
 6608 1e22 1182      		std Z+1,__zero_reg__
 6609 1e24 1282      		std Z+2,__zero_reg__
 6610 1e26 1382      		std Z+3,__zero_reg__
 6611 1e28 00C0      		rjmp .L285
 6612               	.L284:
 6613               	.LM619:
 6614 1e2a 8083      		st Z,r24
 6615 1e2c 9183      		std Z+1,r25
 6616 1e2e A283      		std Z+2,r26
 6617 1e30 B383      		std Z+3,r27
 6618               	.L285:
 6619               	.LBE1055:
 6620               	.LBE1054:
 6621               	.LBB1056:
 6622               	.LBB1057:
 6623               	.LM620:
 6624 1e32 F901      		movw r30,r18
 6625 1e34 A4E0      		ldi r26,4
 6626 1e36 EE0F      	1:	lsl r30
 6627 1e38 FF1F      		rol r31
 6628 1e3a AA95      		dec r26
 6629 1e3c 01F4      		brne 1b
 6630 1e3e E20F      		add r30,r18
 6631 1e40 F31F      		adc r31,r19
 6632 1e42 EC0F      		add r30,r28
 6633 1e44 FD1F      		adc r31,r29
 6634 1e46 E95B      		subi r30,lo8(-(71))
 6635 1e48 FF4F      		sbci r31,hi8(-(71))
 6636 1e4a 8081      		ld r24,Z
 6637 1e4c 8160      		ori r24,lo8(1)
 6638 1e4e 8083      		st Z,r24
 6639               	.L286:
 6640               	/* epilogue start */
 6641               	.LBE1057:
 6642               	.LBE1056:
 6643               	.LM621:
 6644 1e50 DF91      		pop r29
 6645 1e52 CF91      		pop r28
 6646 1e54 0895      		ret
 6647               	.LFE109:
 6649               	.global	Timebase_DownCounter_SS_Get_Remaining_Period_Value
 6651               	Timebase_DownCounter_SS_Get_Remaining_Period_Value:
 6652               	.LFB110:
 6653               	.LM622:
 6654               	.LVL397:
 6655               	/* prologue: function */
 6656               	/* frame size = 0 */
 6657               	.LBB1058:
 6658               	.LBB1059:
 6659               	.LM623:
 6660 1e56 E091 0000 		lds r30,Timebase
 6661 1e5a F091 0000 		lds r31,(Timebase)+1
 6662 1e5e 90E0      		ldi r25,lo8(0)
 6663               	.LBE1059:
 6664               	.LBE1058:
 6665               	.LM624:
 6666 1e60 9C01      		movw r18,r24
 6667               	.LVL398:
 6668 1e62 44E0      		ldi r20,4
 6669 1e64 220F      	1:	lsl r18
 6670 1e66 331F      		rol r19
 6671 1e68 4A95      		dec r20
 6672 1e6a 01F4      		brne 1b
 6673 1e6c 280F      		add r18,r24
 6674 1e6e 391F      		adc r19,r25
 6675 1e70 E20F      		add r30,r18
 6676 1e72 F31F      		adc r31,r19
 6677 1e74 DF01      		movw r26,r30
 6678 1e76 AC5A      		subi r26,lo8(-(84))
 6679 1e78 BF4F      		sbci r27,hi8(-(84))
 6680 1e7a E05B      		subi r30,lo8(-(80))
 6681 1e7c FF4F      		sbci r31,hi8(-(80))
 6682 1e7e 2081      		ld r18,Z
 6683 1e80 3181      		ldd r19,Z+1
 6684 1e82 4281      		ldd r20,Z+2
 6685 1e84 5381      		ldd r21,Z+3
 6686               	.LVL399:
 6687 1e86 8D91      		ld r24,X+
 6688 1e88 9D91      		ld r25,X+
 6689 1e8a 0D90      		ld __tmp_reg__,X+
 6690 1e8c BC91      		ld r27,X
 6691 1e8e A02D      		mov r26,__tmp_reg__
 6692 1e90 281B      		sub r18,r24
 6693 1e92 390B      		sbc r19,r25
 6694 1e94 4A0B      		sbc r20,r26
 6695 1e96 5B0B      		sbc r21,r27
 6696 1e98 57FF      		sbrs r21,7
 6697 1e9a 00C0      		rjmp .L288
 6698 1e9c 20E0      		ldi r18,lo8(0)
 6699 1e9e 30E0      		ldi r19,hi8(0)
 6700 1ea0 40E0      		ldi r20,hlo8(0)
 6701 1ea2 50E0      		ldi r21,hhi8(0)
 6702               	.L288:
 6703               	.LM625:
 6704 1ea4 B901      		movw r22,r18
 6705               	.LVL400:
 6706 1ea6 CA01      		movw r24,r20
 6707               	/* epilogue start */
 6708 1ea8 0895      		ret
 6709               	.LFE110:
 6711               	.global	Timebase_DownCounter_SS_Period_Value_Expired
 6713               	Timebase_DownCounter_SS_Period_Value_Expired:
 6714               	.LFB111:
 6715               	.LM626:
 6716               	.LVL401:
 6717 1eaa CF93      		push r28
 6718 1eac DF93      		push r29
 6719               	/* prologue: function */
 6720               	/* frame size = 0 */
 6721               	.LBB1060:
 6722               	.LBB1061:
 6723               	.LBB1062:
 6724               	.LBB1063:
 6725               	.LM627:
 6726 1eae C091 0000 		lds r28,Timebase
 6727 1eb2 D091 0000 		lds r29,(Timebase)+1
 6728 1eb6 682F      		mov r22,r24
 6729 1eb8 70E0      		ldi r23,lo8(0)
 6730               	.LBE1063:
 6731               	.LBE1062:
 6732               	.LM628:
 6733 1eba FB01      		movw r30,r22
 6734 1ebc A4E0      		ldi r26,4
 6735 1ebe EE0F      	1:	lsl r30
 6736 1ec0 FF1F      		rol r31
 6737 1ec2 AA95      		dec r26
 6738 1ec4 01F4      		brne 1b
 6739 1ec6 E60F      		add r30,r22
 6740 1ec8 F71F      		adc r31,r23
 6741 1eca EC0F      		add r30,r28
 6742 1ecc FD1F      		adc r31,r29
 6743 1ece DF01      		movw r26,r30
 6744 1ed0 AC5A      		subi r26,lo8(-(84))
 6745 1ed2 BF4F      		sbci r27,hi8(-(84))
 6746 1ed4 E05B      		subi r30,lo8(-(80))
 6747 1ed6 FF4F      		sbci r31,hi8(-(80))
 6748 1ed8 2081      		ld r18,Z
 6749 1eda 3181      		ldd r19,Z+1
 6750 1edc 4281      		ldd r20,Z+2
 6751 1ede 5381      		ldd r21,Z+3
 6752               	.LVL402:
 6753 1ee0 8D91      		ld r24,X+
 6754 1ee2 9D91      		ld r25,X+
 6755 1ee4 0D90      		ld __tmp_reg__,X+
 6756 1ee6 BC91      		ld r27,X
 6757 1ee8 A02D      		mov r26,__tmp_reg__
 6758               	.LVL403:
 6759 1eea 281B      		sub r18,r24
 6760 1eec 390B      		sbc r19,r25
 6761 1eee 4A0B      		sbc r20,r26
 6762 1ef0 5B0B      		sbc r21,r27
 6763               	.LM629:
 6764 1ef2 57FD      		sbrc r21,7
 6765 1ef4 00C0      		rjmp .L291
 6766               	.LBE1061:
 6767               	.LBE1060:
 6768               	.LM630:
 6769 1ef6 2115      		cp r18,__zero_reg__
 6770 1ef8 3105      		cpc r19,__zero_reg__
 6771 1efa 4105      		cpc r20,__zero_reg__
 6772 1efc 5105      		cpc r21,__zero_reg__
 6773 1efe 01F0      		breq .L291
 6774 1f00 20E0      		ldi r18,lo8(0)
 6775               	.LVL404:
 6776 1f02 00C0      		rjmp .L292
 6777               	.LVL405:
 6778               	.L291:
 6779 1f04 20E0      		ldi r18,lo8(0)
 6780               	.LVL406:
 6781 1f06 CB01      		movw r24,r22
 6782 1f08 54E0      		ldi r21,4
 6783 1f0a 880F      	1:	lsl r24
 6784 1f0c 991F      		rol r25
 6785 1f0e 5A95      		dec r21
 6786 1f10 01F4      		brne 1b
 6787 1f12 860F      		add r24,r22
 6788 1f14 971F      		adc r25,r23
 6789 1f16 C80F      		add r28,r24
 6790 1f18 D91F      		adc r29,r25
 6791 1f1a C95B      		subi r28,lo8(-(71))
 6792 1f1c DF4F      		sbci r29,hi8(-(71))
 6793 1f1e 8881      		ld r24,Y
 6794 1f20 80FF      		sbrs r24,0
 6795 1f22 21E0      		ldi r18,lo8(1)
 6796               	.L293:
 6797 1f24 81E0      		ldi r24,lo8(1)
 6798 1f26 2827      		eor r18,r24
 6799               	.L292:
 6800               	.LM631:
 6801 1f28 822F      		mov r24,r18
 6802               	/* epilogue start */
 6803 1f2a DF91      		pop r29
 6804 1f2c CF91      		pop r28
 6805 1f2e 0895      		ret
 6806               	.LFE111:
 6808               	.global	Timebase_DownCounter_SS_Period_Value_Expired_Event
 6810               	Timebase_DownCounter_SS_Period_Value_Expired_Event:
 6811               	.LFB112:
 6812               	.LM632:
 6813               	.LVL407:
 6814 1f30 1F93      		push r17
 6815               	/* prologue: function */
 6816               	/* frame size = 0 */
 6817 1f32 182F      		mov r17,r24
 6818               	.LM633:
 6819 1f34 0E94 0000 		call Timebase_DownCounter_SS_Period_Value_Expired
 6820               	.LVL408:
 6821 1f38 8130      		cpi r24,lo8(1)
 6822 1f3a 01F0      		breq .L296
 6823 1f3c 80E0      		ldi r24,lo8(0)
 6824 1f3e 00C0      		rjmp .L297
 6825               	.L296:
 6826               	.LBB1064:
 6827               	.LBB1065:
 6828               	.LM634:
 6829 1f40 E091 0000 		lds r30,Timebase
 6830 1f44 F091 0000 		lds r31,(Timebase)+1
 6831 1f48 212F      		mov r18,r17
 6832 1f4a 30E0      		ldi r19,lo8(0)
 6833               	.LVL409:
 6834 1f4c C901      		movw r24,r18
 6835 1f4e B4E0      		ldi r27,4
 6836 1f50 880F      	1:	lsl r24
 6837 1f52 991F      		rol r25
 6838 1f54 BA95      		dec r27
 6839 1f56 01F4      		brne 1b
 6840 1f58 820F      		add r24,r18
 6841 1f5a 931F      		adc r25,r19
 6842 1f5c E80F      		add r30,r24
 6843 1f5e F91F      		adc r31,r25
 6844 1f60 E95B      		subi r30,lo8(-(71))
 6845 1f62 FF4F      		sbci r31,hi8(-(71))
 6846 1f64 8081      		ld r24,Z
 6847 1f66 8E7F      		andi r24,lo8(-2)
 6848 1f68 8083      		st Z,r24
 6849 1f6a 81E0      		ldi r24,lo8(1)
 6850               	.L297:
 6851               	/* epilogue start */
 6852               	.LBE1065:
 6853               	.LBE1064:
 6854               	.LM635:
 6855 1f6c 1F91      		pop r17
 6856               	.LVL410:
 6857 1f6e 0895      		ret
 6858               	.LFE112:
 6860               	.global	Timebase_DownCounter_SS_Update_All
 6862               	Timebase_DownCounter_SS_Update_All:
 6863               	.LFB113:
 6864               	.LM636:
 6865               	/* prologue: function */
 6866               	/* frame size = 0 */
 6867               	.LBB1066:
 6868               	.LM637:
 6869 1f70 80E0      		ldi r24,lo8(0)
 6870 1f72 0E94 0000 		call Timebase_DownCounter_SS_Update
 6871               	/* epilogue start */
 6872               	.LBE1066:
 6873               	.LM638:
 6874 1f76 0895      		ret
 6875               	.LFE113:
 6877               	.global	Timebase_DownCounter_SS_Reset_All
 6879               	Timebase_DownCounter_SS_Reset_All:
 6880               	.LFB114:
 6881               	.LM639:
 6882               	/* prologue: function */
 6883               	/* frame size = 0 */
 6884               	.LBB1067:
 6885               	.LBB1068:
 6886               	.LBB1069:
 6887               	.LBB1070:
 6888               	.LBB1071:
 6889               	.LM640:
 6890 1f78 E091 0000 		lds r30,Timebase
 6891 1f7c F091 0000 		lds r31,(Timebase)+1
 6892 1f80 E45B      		subi r30,lo8(-(76))
 6893 1f82 FF4F      		sbci r31,hi8(-(76))
 6894 1f84 1082      		st Z,__zero_reg__
 6895 1f86 1182      		std Z+1,__zero_reg__
 6896 1f88 1282      		std Z+2,__zero_reg__
 6897 1f8a 1382      		std Z+3,__zero_reg__
 6898               	.LBE1071:
 6899               	.LBE1070:
 6900               	.LBB1072:
 6901               	.LBB1073:
 6902               	.LM641:
 6903 1f8c 1292      		st -Z,__zero_reg__
 6904 1f8e 1292      		st -Z,__zero_reg__
 6905 1f90 1292      		st -Z,__zero_reg__
 6906 1f92 1292      		st -Z,__zero_reg__
 6907               	.LBE1073:
 6908               	.LBE1072:
 6909               	.LBB1074:
 6910               	.LBB1075:
 6911               	.LM642:
 6912 1f94 3896      		adiw r30,8
 6913 1f96 1082      		st Z,__zero_reg__
 6914 1f98 1182      		std Z+1,__zero_reg__
 6915 1f9a 1282      		std Z+2,__zero_reg__
 6916 1f9c 1382      		std Z+3,__zero_reg__
 6917               	.LBE1075:
 6918               	.LBE1074:
 6919               	.LBB1076:
 6920               	.LBB1077:
 6921               	.LM643:
 6922 1f9e 3997      		sbiw r30,9
 6923 1fa0 8081      		ld r24,Z
 6924               	.LBE1077:
 6925               	.LBE1076:
 6926               	.LBB1078:
 6927               	.LBB1079:
 6928               	.LM644:
 6929 1fa2 807E      		andi r24,lo8(-32)
 6930 1fa4 8083      		st Z,r24
 6931               	/* epilogue start */
 6932               	.LBE1079:
 6933               	.LBE1078:
 6934               	.LBE1069:
 6935               	.LBE1068:
 6936               	.LBE1067:
 6937               	.LM645:
 6938 1fa6 0895      		ret
 6939               	.LFE114:
 6941               	.global	Timebase_DownCounter_Get_Status
 6943               	Timebase_DownCounter_Get_Status:
 6944               	.LFB115:
 6945               	.LM646:
 6946               	.LVL411:
 6947               	/* prologue: function */
 6948               	/* frame size = 0 */
 6949               	.LM647:
 6950 1fa8 E091 0000 		lds r30,Timebase
 6951 1fac F091 0000 		lds r31,(Timebase)+1
 6952 1fb0 90E0      		ldi r25,lo8(0)
 6953               	.LVL412:
 6954 1fb2 2DE0      		ldi r18,lo8(13)
 6955 1fb4 30E0      		ldi r19,hi8(13)
 6956 1fb6 AC01      		movw r20,r24
 6957 1fb8 429F      		mul r20,r18
 6958 1fba C001      		movw r24,r0
 6959 1fbc 439F      		mul r20,r19
 6960 1fbe 900D      		add r25,r0
 6961 1fc0 529F      		mul r21,r18
 6962 1fc2 900D      		add r25,r0
 6963 1fc4 1124      		clr r1
 6964               	.LVL413:
 6965 1fc6 E80F      		add r30,r24
 6966 1fc8 F91F      		adc r31,r25
 6967 1fca E85A      		subi r30,lo8(-(88))
 6968 1fcc FF4F      		sbci r31,hi8(-(88))
 6969 1fce 8081      		ld r24,Z
 6970 1fd0 8695      		lsr r24
 6971               	.LM648:
 6972 1fd2 8F70      		andi r24,lo8(15)
 6973               	/* epilogue start */
 6974 1fd4 0895      		ret
 6975               	.LFE115:
 6977               	.global	Timebase_DownCounter_Set_Status
 6979               	Timebase_DownCounter_Set_Status:
 6980               	.LFB116:
 6981               	.LM649:
 6982               	.LVL414:
 6983               	/* prologue: function */
 6984               	/* frame size = 0 */
 6985               	.LM650:
 6986 1fd6 E091 0000 		lds r30,Timebase
 6987 1fda F091 0000 		lds r31,(Timebase)+1
 6988 1fde 90E0      		ldi r25,lo8(0)
 6989               	.LVL415:
 6990 1fe0 2DE0      		ldi r18,lo8(13)
 6991 1fe2 30E0      		ldi r19,hi8(13)
 6992 1fe4 AC01      		movw r20,r24
 6993 1fe6 429F      		mul r20,r18
 6994 1fe8 C001      		movw r24,r0
 6995 1fea 439F      		mul r20,r19
 6996 1fec 900D      		add r25,r0
 6997 1fee 529F      		mul r21,r18
 6998 1ff0 900D      		add r25,r0
 6999 1ff2 1124      		clr r1
 7000               	.LVL416:
 7001 1ff4 E80F      		add r30,r24
 7002 1ff6 F91F      		adc r31,r25
 7003 1ff8 E85A      		subi r30,lo8(-(88))
 7004 1ffa FF4F      		sbci r31,hi8(-(88))
 7005 1ffc 6F70      		andi r22,lo8(15)
 7006               	.LVL417:
 7007 1ffe 660F      		lsl r22
 7008 2000 8081      		ld r24,Z
 7009 2002 817E      		andi r24,lo8(-31)
 7010 2004 862B      		or r24,r22
 7011 2006 8083      		st Z,r24
 7012               	/* epilogue start */
 7013               	.LM651:
 7014 2008 0895      		ret
 7015               	.LFE116:
 7017               	.global	Timebase_DownCounter_Get_Value
 7019               	Timebase_DownCounter_Get_Value:
 7020               	.LFB117:
 7021               	.LM652:
 7022               	.LVL418:
 7023               	/* prologue: function */
 7024               	/* frame size = 0 */
 7025               	.LM653:
 7026 200a E091 0000 		lds r30,Timebase
 7027 200e F091 0000 		lds r31,(Timebase)+1
 7028 2012 90E0      		ldi r25,lo8(0)
 7029               	.LVL419:
 7030 2014 2DE0      		ldi r18,lo8(13)
 7031 2016 30E0      		ldi r19,hi8(13)
 7032 2018 AC01      		movw r20,r24
 7033 201a 429F      		mul r20,r18
 7034 201c C001      		movw r24,r0
 7035 201e 439F      		mul r20,r19
 7036 2020 900D      		add r25,r0
 7037 2022 529F      		mul r21,r18
 7038 2024 900D      		add r25,r0
 7039 2026 1124      		clr r1
 7040               	.LVL420:
 7041 2028 E80F      		add r30,r24
 7042 202a F91F      		adc r31,r25
 7043 202c E35A      		subi r30,lo8(-(93))
 7044 202e FF4F      		sbci r31,hi8(-(93))
 7045 2030 6081      		ld r22,Z
 7046 2032 7181      		ldd r23,Z+1
 7047               	.LM654:
 7048 2034 8281      		ldd r24,Z+2
 7049 2036 9381      		ldd r25,Z+3
 7050               	.LVL421:
 7051               	/* epilogue start */
 7052 2038 0895      		ret
 7053               	.LFE117:
 7055               	.global	Timebase_DownCounter_Set_Value
 7057               	Timebase_DownCounter_Set_Value:
 7058               	.LFB118:
 7059               	.LM655:
 7060               	.LVL422:
 7061               	/* prologue: function */
 7062               	/* frame size = 0 */
 7063               	.LM656:
 7064 203a E091 0000 		lds r30,Timebase
 7065 203e F091 0000 		lds r31,(Timebase)+1
 7066 2042 90E0      		ldi r25,lo8(0)
 7067               	.LVL423:
 7068 2044 2DE0      		ldi r18,lo8(13)
 7069 2046 30E0      		ldi r19,hi8(13)
 7070 2048 DC01      		movw r26,r24
 7071 204a A29F      		mul r26,r18
 7072 204c C001      		movw r24,r0
 7073 204e A39F      		mul r26,r19
 7074 2050 900D      		add r25,r0
 7075 2052 B29F      		mul r27,r18
 7076 2054 900D      		add r25,r0
 7077 2056 1124      		clr r1
 7078               	.LVL424:
 7079 2058 E80F      		add r30,r24
 7080 205a F91F      		adc r31,r25
 7081 205c E35A      		subi r30,lo8(-(93))
 7082 205e FF4F      		sbci r31,hi8(-(93))
 7083 2060 4083      		st Z,r20
 7084 2062 5183      		std Z+1,r21
 7085 2064 6283      		std Z+2,r22
 7086 2066 7383      		std Z+3,r23
 7087               	/* epilogue start */
 7088               	.LM657:
 7089 2068 0895      		ret
 7090               	.LFE118:
 7092               	.global	Timebase_DownCounter_Get_EndValue
 7094               	Timebase_DownCounter_Get_EndValue:
 7095               	.LFB119:
 7096               	.LM658:
 7097               	.LVL425:
 7098               	/* prologue: function */
 7099               	/* frame size = 0 */
 7100               	.LM659:
 7101 206a E091 0000 		lds r30,Timebase
 7102 206e F091 0000 		lds r31,(Timebase)+1
 7103 2072 90E0      		ldi r25,lo8(0)
 7104               	.LVL426:
 7105 2074 2DE0      		ldi r18,lo8(13)
 7106 2076 30E0      		ldi r19,hi8(13)
 7107 2078 AC01      		movw r20,r24
 7108 207a 429F      		mul r20,r18
 7109 207c C001      		movw r24,r0
 7110 207e 439F      		mul r20,r19
 7111 2080 900D      		add r25,r0
 7112 2082 529F      		mul r21,r18
 7113 2084 900D      		add r25,r0
 7114 2086 1124      		clr r1
 7115               	.LVL427:
 7116 2088 E80F      		add r30,r24
 7117 208a F91F      		adc r31,r25
 7118 208c E75A      		subi r30,lo8(-(89))
 7119 208e FF4F      		sbci r31,hi8(-(89))
 7120 2090 6081      		ld r22,Z
 7121 2092 7181      		ldd r23,Z+1
 7122               	.LM660:
 7123 2094 8281      		ldd r24,Z+2
 7124 2096 9381      		ldd r25,Z+3
 7125               	.LVL428:
 7126               	/* epilogue start */
 7127 2098 0895      		ret
 7128               	.LFE119:
 7130               	.global	Timebase_DownCounter_Set_EndValue
 7132               	Timebase_DownCounter_Set_EndValue:
 7133               	.LFB120:
 7134               	.LM661:
 7135               	.LVL429:
 7136               	/* prologue: function */
 7137               	/* frame size = 0 */
 7138               	.LM662:
 7139 209a E091 0000 		lds r30,Timebase
 7140 209e F091 0000 		lds r31,(Timebase)+1
 7141 20a2 90E0      		ldi r25,lo8(0)
 7142               	.LVL430:
 7143 20a4 2DE0      		ldi r18,lo8(13)
 7144 20a6 30E0      		ldi r19,hi8(13)
 7145 20a8 DC01      		movw r26,r24
 7146 20aa A29F      		mul r26,r18
 7147 20ac C001      		movw r24,r0
 7148 20ae A39F      		mul r26,r19
 7149 20b0 900D      		add r25,r0
 7150 20b2 B29F      		mul r27,r18
 7151 20b4 900D      		add r25,r0
 7152 20b6 1124      		clr r1
 7153               	.LVL431:
 7154 20b8 E80F      		add r30,r24
 7155 20ba F91F      		adc r31,r25
 7156 20bc E75A      		subi r30,lo8(-(89))
 7157 20be FF4F      		sbci r31,hi8(-(89))
 7158 20c0 4083      		st Z,r20
 7159 20c2 5183      		std Z+1,r21
 7160 20c4 6283      		std Z+2,r22
 7161 20c6 7383      		std Z+3,r23
 7162               	/* epilogue start */
 7163               	.LM663:
 7164 20c8 0895      		ret
 7165               	.LFE120:
 7167               	.global	Timebase_DownCounter_Get_PeriodValue
 7169               	Timebase_DownCounter_Get_PeriodValue:
 7170               	.LFB121:
 7171               	.LM664:
 7172               	.LVL432:
 7173               	/* prologue: function */
 7174               	/* frame size = 0 */
 7175               	.LM665:
 7176 20ca E091 0000 		lds r30,Timebase
 7177 20ce F091 0000 		lds r31,(Timebase)+1
 7178 20d2 90E0      		ldi r25,lo8(0)
 7179               	.LVL433:
 7180 20d4 2DE0      		ldi r18,lo8(13)
 7181 20d6 30E0      		ldi r19,hi8(13)
 7182 20d8 AC01      		movw r20,r24
 7183 20da 429F      		mul r20,r18
 7184 20dc C001      		movw r24,r0
 7185 20de 439F      		mul r20,r19
 7186 20e0 900D      		add r25,r0
 7187 20e2 529F      		mul r21,r18
 7188 20e4 900D      		add r25,r0
 7189 20e6 1124      		clr r1
 7190               	.LVL434:
 7191 20e8 E80F      		add r30,r24
 7192 20ea F91F      		adc r31,r25
 7193 20ec EF59      		subi r30,lo8(-(97))
 7194 20ee FF4F      		sbci r31,hi8(-(97))
 7195 20f0 6081      		ld r22,Z
 7196 20f2 7181      		ldd r23,Z+1
 7197               	.LM666:
 7198 20f4 8281      		ldd r24,Z+2
 7199 20f6 9381      		ldd r25,Z+3
 7200               	.LVL435:
 7201               	/* epilogue start */
 7202 20f8 0895      		ret
 7203               	.LFE121:
 7205               	.global	Timebase_DownCounter_Set_PeriodValue
 7207               	Timebase_DownCounter_Set_PeriodValue:
 7208               	.LFB122:
 7209               	.LM667:
 7210               	.LVL436:
 7211               	/* prologue: function */
 7212               	/* frame size = 0 */
 7213 20fa E091 0000 		lds r30,Timebase
 7214 20fe F091 0000 		lds r31,(Timebase)+1
 7215 2102 282F      		mov r18,r24
 7216 2104 30E0      		ldi r19,lo8(0)
 7217               	.LVL437:
 7218               	.LM668:
 7219 2106 77FF      		sbrs r23,7
 7220 2108 00C0      		rjmp .L318
 7221               	.LVL438:
 7222               	.LM669:
 7223 210a 8DE0      		ldi r24,lo8(13)
 7224 210c 90E0      		ldi r25,hi8(13)
 7225 210e AC01      		movw r20,r24
 7226               	.LVL439:
 7227 2110 249F      		mul r18,r20
 7228 2112 C001      		movw r24,r0
 7229 2114 259F      		mul r18,r21
 7230 2116 900D      		add r25,r0
 7231 2118 349F      		mul r19,r20
 7232 211a 900D      		add r25,r0
 7233 211c 1124      		clr r1
 7234 211e E80F      		add r30,r24
 7235 2120 F91F      		adc r31,r25
 7236 2122 EF59      		subi r30,lo8(-(97))
 7237 2124 FF4F      		sbci r31,hi8(-(97))
 7238 2126 1082      		st Z,__zero_reg__
 7239 2128 1182      		std Z+1,__zero_reg__
 7240 212a 1282      		std Z+2,__zero_reg__
 7241 212c 1382      		std Z+3,__zero_reg__
 7242 212e 0895      		ret
 7243               	.LVL440:
 7244               	.L318:
 7245               	.LM670:
 7246 2130 8DE0      		ldi r24,lo8(13)
 7247 2132 90E0      		ldi r25,hi8(13)
 7248 2134 DC01      		movw r26,r24
 7249 2136 2A9F      		mul r18,r26
 7250 2138 C001      		movw r24,r0
 7251 213a 2B9F      		mul r18,r27
 7252 213c 900D      		add r25,r0
 7253 213e 3A9F      		mul r19,r26
 7254 2140 900D      		add r25,r0
 7255 2142 1124      		clr r1
 7256 2144 E80F      		add r30,r24
 7257 2146 F91F      		adc r31,r25
 7258 2148 EF59      		subi r30,lo8(-(97))
 7259 214a FF4F      		sbci r31,hi8(-(97))
 7260 214c 4083      		st Z,r20
 7261 214e 5183      		std Z+1,r21
 7262 2150 6283      		std Z+2,r22
 7263 2152 7383      		std Z+3,r23
 7264 2154 0895      		ret
 7265               	.LFE122:
 7267               	.global	Timebase_DownCounter_Get_Period_Flag
 7269               	Timebase_DownCounter_Get_Period_Flag:
 7270               	.LFB123:
 7271               	.LM671:
 7272               	.LVL441:
 7273               	/* prologue: function */
 7274               	/* frame size = 0 */
 7275               	.LM672:
 7276 2156 E091 0000 		lds r30,Timebase
 7277 215a F091 0000 		lds r31,(Timebase)+1
 7278 215e 90E0      		ldi r25,lo8(0)
 7279               	.LVL442:
 7280 2160 2DE0      		ldi r18,lo8(13)
 7281 2162 30E0      		ldi r19,hi8(13)
 7282 2164 AC01      		movw r20,r24
 7283 2166 429F      		mul r20,r18
 7284 2168 C001      		movw r24,r0
 7285 216a 439F      		mul r20,r19
 7286 216c 900D      		add r25,r0
 7287 216e 529F      		mul r21,r18
 7288 2170 900D      		add r25,r0
 7289 2172 1124      		clr r1
 7290               	.LVL443:
 7291 2174 E80F      		add r30,r24
 7292 2176 F91F      		adc r31,r25
 7293 2178 E85A      		subi r30,lo8(-(88))
 7294 217a FF4F      		sbci r31,hi8(-(88))
 7295 217c 8081      		ld r24,Z
 7296               	.LM673:
 7297 217e 8170      		andi r24,lo8(1)
 7298               	/* epilogue start */
 7299 2180 0895      		ret
 7300               	.LFE123:
 7302               	.global	Timebase_DownCounter_Set_Period_Flag
 7304               	Timebase_DownCounter_Set_Period_Flag:
 7305               	.LFB124:
 7306               	.LM674:
 7307               	.LVL444:
 7308               	/* prologue: function */
 7309               	/* frame size = 0 */
 7310               	.LM675:
 7311 2182 E091 0000 		lds r30,Timebase
 7312 2186 F091 0000 		lds r31,(Timebase)+1
 7313 218a 90E0      		ldi r25,lo8(0)
 7314               	.LVL445:
 7315 218c 2DE0      		ldi r18,lo8(13)
 7316 218e 30E0      		ldi r19,hi8(13)
 7317 2190 AC01      		movw r20,r24
 7318 2192 429F      		mul r20,r18
 7319 2194 C001      		movw r24,r0
 7320 2196 439F      		mul r20,r19
 7321 2198 900D      		add r25,r0
 7322 219a 529F      		mul r21,r18
 7323 219c 900D      		add r25,r0
 7324 219e 1124      		clr r1
 7325               	.LVL446:
 7326 21a0 E80F      		add r30,r24
 7327 21a2 F91F      		adc r31,r25
 7328 21a4 E85A      		subi r30,lo8(-(88))
 7329 21a6 FF4F      		sbci r31,hi8(-(88))
 7330 21a8 8081      		ld r24,Z
 7331 21aa 8160      		ori r24,lo8(1)
 7332 21ac 8083      		st Z,r24
 7333               	/* epilogue start */
 7334               	.LM676:
 7335 21ae 0895      		ret
 7336               	.LFE124:
 7338               	.global	Timebase_DownCounter_Clear_Period_Flag
 7340               	Timebase_DownCounter_Clear_Period_Flag:
 7341               	.LFB125:
 7342               	.LM677:
 7343               	.LVL447:
 7344               	/* prologue: function */
 7345               	/* frame size = 0 */
 7346               	.LM678:
 7347 21b0 E091 0000 		lds r30,Timebase
 7348 21b4 F091 0000 		lds r31,(Timebase)+1
 7349 21b8 90E0      		ldi r25,lo8(0)
 7350               	.LVL448:
 7351 21ba 2DE0      		ldi r18,lo8(13)
 7352 21bc 30E0      		ldi r19,hi8(13)
 7353 21be AC01      		movw r20,r24
 7354 21c0 429F      		mul r20,r18
 7355 21c2 C001      		movw r24,r0
 7356 21c4 439F      		mul r20,r19
 7357 21c6 900D      		add r25,r0
 7358 21c8 529F      		mul r21,r18
 7359 21ca 900D      		add r25,r0
 7360 21cc 1124      		clr r1
 7361               	.LVL449:
 7362 21ce E80F      		add r30,r24
 7363 21d0 F91F      		adc r31,r25
 7364 21d2 E85A      		subi r30,lo8(-(88))
 7365 21d4 FF4F      		sbci r31,hi8(-(88))
 7366 21d6 8081      		ld r24,Z
 7367 21d8 8E7F      		andi r24,lo8(-2)
 7368 21da 8083      		st Z,r24
 7369               	/* epilogue start */
 7370               	.LM679:
 7371 21dc 0895      		ret
 7372               	.LFE125:
 7374               	.global	Timebase_DownCounter_Reset
 7376               	Timebase_DownCounter_Reset:
 7377               	.LFB126:
 7378               	.LM680:
 7379               	.LVL450:
 7380               	/* prologue: function */
 7381               	/* frame size = 0 */
 7382               	.LBB1080:
 7383               	.LBB1081:
 7384               	.LM681:
 7385 21de E091 0000 		lds r30,Timebase
 7386 21e2 F091 0000 		lds r31,(Timebase)+1
 7387 21e6 90E0      		ldi r25,lo8(0)
 7388 21e8 2DE0      		ldi r18,lo8(13)
 7389 21ea 30E0      		ldi r19,hi8(13)
 7390 21ec AC01      		movw r20,r24
 7391               	.LVL451:
 7392 21ee 429F      		mul r20,r18
 7393 21f0 C001      		movw r24,r0
 7394 21f2 439F      		mul r20,r19
 7395 21f4 900D      		add r25,r0
 7396 21f6 529F      		mul r21,r18
 7397 21f8 900D      		add r25,r0
 7398 21fa 1124      		clr r1
 7399 21fc E80F      		add r30,r24
 7400 21fe F91F      		adc r31,r25
 7401 2200 E75A      		subi r30,lo8(-(89))
 7402 2202 FF4F      		sbci r31,hi8(-(89))
 7403 2204 1192      		st Z+,__zero_reg__
 7404 2206 1192      		st Z+,__zero_reg__
 7405 2208 1192      		st Z+,__zero_reg__
 7406 220a 1192      		st Z+,__zero_reg__
 7407               	.LBE1081:
 7408               	.LBE1080:
 7409               	.LBB1082:
 7410               	.LBB1083:
 7411               	.LM682:
 7412 220c 1082      		st Z,__zero_reg__
 7413 220e 1182      		std Z+1,__zero_reg__
 7414 2210 1282      		std Z+2,__zero_reg__
 7415 2212 1382      		std Z+3,__zero_reg__
 7416               	.LBE1083:
 7417               	.LBE1082:
 7418               	.LBB1084:
 7419               	.LBB1085:
 7420               	.LM683:
 7421 2214 3597      		sbiw r30,5
 7422 2216 8081      		ld r24,Z
 7423               	.LBE1085:
 7424               	.LBE1084:
 7425               	.LBB1086:
 7426               	.LBB1087:
 7427               	.LM684:
 7428 2218 807E      		andi r24,lo8(-32)
 7429 221a 8083      		st Z,r24
 7430               	/* epilogue start */
 7431               	.LBE1087:
 7432               	.LBE1086:
 7433               	.LM685:
 7434 221c 0895      		ret
 7435               	.LFE126:
 7437               	.global	Timebase_DownCounter_Clear_All_Flags
 7439               	Timebase_DownCounter_Clear_All_Flags:
 7440               	.LFB127:
 7441               	.LM686:
 7442               	.LVL452:
 7443               	/* prologue: function */
 7444               	/* frame size = 0 */
 7445               	.LBB1088:
 7446               	.LBB1089:
 7447               	.LBB1090:
 7448               	.LBB1091:
 7449               	.LM687:
 7450 221e E091 0000 		lds r30,Timebase
 7451 2222 F091 0000 		lds r31,(Timebase)+1
 7452 2226 90E0      		ldi r25,lo8(0)
 7453 2228 2DE0      		ldi r18,lo8(13)
 7454 222a 30E0      		ldi r19,hi8(13)
 7455 222c AC01      		movw r20,r24
 7456               	.LVL453:
 7457 222e 429F      		mul r20,r18
 7458 2230 C001      		movw r24,r0
 7459 2232 439F      		mul r20,r19
 7460 2234 900D      		add r25,r0
 7461 2236 529F      		mul r21,r18
 7462 2238 900D      		add r25,r0
 7463 223a 1124      		clr r1
 7464 223c E80F      		add r30,r24
 7465 223e F91F      		adc r31,r25
 7466 2240 E75A      		subi r30,lo8(-(89))
 7467 2242 FF4F      		sbci r31,hi8(-(89))
 7468 2244 1192      		st Z+,__zero_reg__
 7469 2246 1192      		st Z+,__zero_reg__
 7470 2248 1192      		st Z+,__zero_reg__
 7471 224a 1192      		st Z+,__zero_reg__
 7472               	.LBE1091:
 7473               	.LBE1090:
 7474               	.LBB1092:
 7475               	.LBB1093:
 7476               	.LM688:
 7477 224c 1082      		st Z,__zero_reg__
 7478 224e 1182      		std Z+1,__zero_reg__
 7479 2250 1282      		std Z+2,__zero_reg__
 7480 2252 1382      		std Z+3,__zero_reg__
 7481               	.LBE1093:
 7482               	.LBE1092:
 7483               	.LBB1094:
 7484               	.LBB1095:
 7485               	.LM689:
 7486 2254 3597      		sbiw r30,5
 7487 2256 8081      		ld r24,Z
 7488               	.LBE1095:
 7489               	.LBE1094:
 7490               	.LBB1096:
 7491               	.LBB1097:
 7492               	.LM690:
 7493 2258 807E      		andi r24,lo8(-32)
 7494 225a 8083      		st Z,r24
 7495               	/* epilogue start */
 7496               	.LBE1097:
 7497               	.LBE1096:
 7498               	.LBE1089:
 7499               	.LBE1088:
 7500               	.LM691:
 7501 225c 0895      		ret
 7502               	.LFE127:
 7504               	.global	Timebase_DownCounter_Start
 7506               	Timebase_DownCounter_Start:
 7507               	.LFB128:
 7508               	.LM692:
 7509               	.LVL454:
 7510               	/* prologue: function */
 7511               	/* frame size = 0 */
 7512               	.LBB1098:
 7513               	.LBB1099:
 7514               	.LM693:
 7515 225e E091 0000 		lds r30,Timebase
 7516 2262 F091 0000 		lds r31,(Timebase)+1
 7517 2266 90E0      		ldi r25,lo8(0)
 7518               	.LBE1099:
 7519               	.LBE1098:
 7520               	.LM694:
 7521 2268 2DE0      		ldi r18,lo8(13)
 7522 226a 30E0      		ldi r19,hi8(13)
 7523 226c AC01      		movw r20,r24
 7524               	.LVL455:
 7525 226e 429F      		mul r20,r18
 7526 2270 C001      		movw r24,r0
 7527 2272 439F      		mul r20,r19
 7528 2274 900D      		add r25,r0
 7529 2276 529F      		mul r21,r18
 7530 2278 900D      		add r25,r0
 7531 227a 1124      		clr r1
 7532 227c E80F      		add r30,r24
 7533 227e F91F      		adc r31,r25
 7534 2280 E85A      		subi r30,lo8(-(88))
 7535 2282 FF4F      		sbci r31,hi8(-(88))
 7536 2284 9081      		ld r25,Z
 7537 2286 892F      		mov r24,r25
 7538 2288 8695      		lsr r24
 7539 228a 8F70      		andi r24,lo8(15)
 7540 228c 8130      		cpi r24,lo8(1)
 7541 228e 01F0      		breq .L333
 7542               	.LBB1100:
 7543               	.LBB1101:
 7544               	.LM695:
 7545 2290 917E      		andi r25,lo8(-31)
 7546 2292 9260      		ori r25,lo8(2)
 7547 2294 9083      		st Z,r25
 7548               	.L333:
 7549 2296 0895      		ret
 7550               	.LBE1101:
 7551               	.LBE1100:
 7552               	.LFE128:
 7554               	.global	Timebase_DownCounter_Stop
 7556               	Timebase_DownCounter_Stop:
 7557               	.LFB129:
 7558               	.LM696:
 7559               	.LVL456:
 7560               	/* prologue: function */
 7561               	/* frame size = 0 */
 7562               	.LBB1102:
 7563               	.LBB1103:
 7564               	.LM697:
 7565 2298 E091 0000 		lds r30,Timebase
 7566 229c F091 0000 		lds r31,(Timebase)+1
 7567 22a0 90E0      		ldi r25,lo8(0)
 7568               	.LBE1103:
 7569               	.LBE1102:
 7570               	.LM698:
 7571 22a2 2DE0      		ldi r18,lo8(13)
 7572 22a4 30E0      		ldi r19,hi8(13)
 7573 22a6 AC01      		movw r20,r24
 7574               	.LVL457:
 7575 22a8 429F      		mul r20,r18
 7576 22aa C001      		movw r24,r0
 7577 22ac 439F      		mul r20,r19
 7578 22ae 900D      		add r25,r0
 7579 22b0 529F      		mul r21,r18
 7580 22b2 900D      		add r25,r0
 7581 22b4 1124      		clr r1
 7582 22b6 E80F      		add r30,r24
 7583 22b8 F91F      		adc r31,r25
 7584 22ba E85A      		subi r30,lo8(-(88))
 7585 22bc FF4F      		sbci r31,hi8(-(88))
 7586 22be 9081      		ld r25,Z
 7587 22c0 892F      		mov r24,r25
 7588 22c2 8695      		lsr r24
 7589 22c4 8F70      		andi r24,lo8(15)
 7590 22c6 8230      		cpi r24,lo8(2)
 7591 22c8 01F0      		breq .L336
 7592               	.LBB1104:
 7593               	.LBB1105:
 7594               	.LM699:
 7595 22ca 917E      		andi r25,lo8(-31)
 7596 22cc 9460      		ori r25,lo8(4)
 7597 22ce 9083      		st Z,r25
 7598               	.L336:
 7599 22d0 0895      		ret
 7600               	.LBE1105:
 7601               	.LBE1104:
 7602               	.LFE129:
 7604               	.global	Timebase_DownCounter_Set_Securely
 7606               	Timebase_DownCounter_Set_Securely:
 7607               	.LFB130:
 7608               	.LM700:
 7609               	.LVL458:
 7610 22d2 0F93      		push r16
 7611 22d4 1F93      		push r17
 7612 22d6 CF93      		push r28
 7613 22d8 DF93      		push r29
 7614               	/* prologue: function */
 7615               	/* frame size = 0 */
 7616               	.LBB1106:
 7617               	.LBB1107:
 7618               	.LM701:
 7619 22da C091 0000 		lds r28,Timebase
 7620 22de D091 0000 		lds r29,(Timebase)+1
 7621 22e2 082F      		mov r16,r24
 7622 22e4 10E0      		ldi r17,lo8(0)
 7623               	.LBE1107:
 7624               	.LBE1106:
 7625               	.LM702:
 7626 22e6 8DE0      		ldi r24,lo8(13)
 7627 22e8 90E0      		ldi r25,hi8(13)
 7628               	.LVL459:
 7629 22ea 089F      		mul r16,r24
 7630 22ec F001      		movw r30,r0
 7631 22ee 099F      		mul r16,r25
 7632 22f0 F00D      		add r31,r0
 7633 22f2 189F      		mul r17,r24
 7634 22f4 F00D      		add r31,r0
 7635 22f6 1124      		clr r1
 7636 22f8 EC0F      		add r30,r28
 7637 22fa FD1F      		adc r31,r29
 7638 22fc E85A      		subi r30,lo8(-(88))
 7639 22fe FF4F      		sbci r31,hi8(-(88))
 7640 2300 8081      		ld r24,Z
 7641 2302 E855      		subi r30,lo8(-(-88))
 7642 2304 F040      		sbci r31,hi8(-(-88))
 7643 2306 8695      		lsr r24
 7644 2308 8F70      		andi r24,lo8(15)
 7645 230a 01F4      		brne .L339
 7646               	.LBB1108:
 7647               	.LBB1109:
 7648               	.LM703:
 7649 230c E35A      		subi r30,lo8(-(93))
 7650 230e FF4F      		sbci r31,hi8(-(93))
 7651 2310 4083      		st Z,r20
 7652 2312 5183      		std Z+1,r21
 7653 2314 6283      		std Z+2,r22
 7654 2316 7383      		std Z+3,r23
 7655               	.LBE1109:
 7656               	.LBE1108:
 7657               	.LBB1110:
 7658               	.LBB1111:
 7659               	.LBB1112:
 7660               	.LBB1113:
 7661               	.LM704:
 7662               	/* #APP */
 7663               	 ;  341 "timebase.c" 1
 7664 2318 F894      		cli
 7665               	 ;  0 "" 2
 7666               	/* #NOAPP */
 7667               	.LBE1113:
 7668               	.LBE1112:
 7669               	.LM705:
 7670 231a 8A85      		ldd r24,Y+10
 7671 231c 9B85      		ldd r25,Y+11
 7672 231e AC85      		ldd r26,Y+12
 7673 2320 BD85      		ldd r27,Y+13
 7674               	.LVL460:
 7675               	.LBB1114:
 7676               	.LBB1115:
 7677               	.LM706:
 7678               	/* #APP */
 7679               	 ;  345 "timebase.c" 1
 7680 2322 7894      		sei
 7681               	 ;  0 "" 2
 7682               	/* #NOAPP */
 7683               	.LBE1115:
 7684               	.LBE1114:
 7685               	.LBE1111:
 7686               	.LBE1110:
 7687               	.LBB1116:
 7688               	.LBB1117:
 7689               	.LM707:
 7690 2324 2DE0      		ldi r18,lo8(13)
 7691 2326 30E0      		ldi r19,hi8(13)
 7692 2328 029F      		mul r16,r18
 7693 232a F001      		movw r30,r0
 7694 232c 039F      		mul r16,r19
 7695 232e F00D      		add r31,r0
 7696 2330 129F      		mul r17,r18
 7697 2332 F00D      		add r31,r0
 7698 2334 1124      		clr r1
 7699 2336 EC0F      		add r30,r28
 7700 2338 FD1F      		adc r31,r29
 7701 233a E75A      		subi r30,lo8(-(89))
 7702 233c FF4F      		sbci r31,hi8(-(89))
 7703 233e 840F      		add r24,r20
 7704 2340 951F      		adc r25,r21
 7705 2342 A61F      		adc r26,r22
 7706 2344 B71F      		adc r27,r23
 7707 2346 8083      		st Z,r24
 7708 2348 9183      		std Z+1,r25
 7709 234a A283      		std Z+2,r26
 7710 234c B383      		std Z+3,r27
 7711               	.LBE1117:
 7712               	.LBE1116:
 7713               	.LBB1118:
 7714               	.LBB1119:
 7715               	.LM708:
 7716 234e 9291      		ld r25,-Z
 7717 2350 892F      		mov r24,r25
 7718               	.LVL461:
 7719 2352 8695      		lsr r24
 7720 2354 8F70      		andi r24,lo8(15)
 7721 2356 8130      		cpi r24,lo8(1)
 7722 2358 01F0      		breq .L339
 7723               	.LBB1120:
 7724               	.LBB1121:
 7725               	.LM709:
 7726 235a 917E      		andi r25,lo8(-31)
 7727 235c 9260      		ori r25,lo8(2)
 7728 235e 9083      		st Z,r25
 7729               	.L339:
 7730               	/* epilogue start */
 7731               	.LBE1121:
 7732               	.LBE1120:
 7733               	.LBE1119:
 7734               	.LBE1118:
 7735               	.LM710:
 7736 2360 DF91      		pop r29
 7737 2362 CF91      		pop r28
 7738 2364 1F91      		pop r17
 7739 2366 0F91      		pop r16
 7740 2368 0895      		ret
 7741               	.LFE130:
 7743               	.global	Timebase_DownCounter_Set_Forcefully
 7745               	Timebase_DownCounter_Set_Forcefully:
 7746               	.LFB131:
 7747               	.LM711:
 7748               	.LVL462:
 7749 236a CF93      		push r28
 7750 236c DF93      		push r29
 7751               	/* prologue: function */
 7752               	/* frame size = 0 */
 7753               	.LBB1122:
 7754               	.LBB1123:
 7755               	.LBB1124:
 7756               	.LBB1125:
 7757               	.LM712:
 7758 236e E091 0000 		lds r30,Timebase
 7759 2372 F091 0000 		lds r31,(Timebase)+1
 7760 2376 A82F      		mov r26,r24
 7761 2378 B0E0      		ldi r27,lo8(0)
 7762 237a 2DE0      		ldi r18,lo8(13)
 7763 237c 30E0      		ldi r19,hi8(13)
 7764 237e E901      		movw r28,r18
 7765 2380 AC9F      		mul r26,r28
 7766 2382 9001      		movw r18,r0
 7767 2384 AD9F      		mul r26,r29
 7768 2386 300D      		add r19,r0
 7769 2388 BC9F      		mul r27,r28
 7770 238a 300D      		add r19,r0
 7771 238c 1124      		clr r1
 7772 238e E20F      		add r30,r18
 7773 2390 F31F      		adc r31,r19
 7774 2392 E75A      		subi r30,lo8(-(89))
 7775 2394 FF4F      		sbci r31,hi8(-(89))
 7776 2396 1192      		st Z+,__zero_reg__
 7777 2398 1192      		st Z+,__zero_reg__
 7778 239a 1192      		st Z+,__zero_reg__
 7779 239c 1192      		st Z+,__zero_reg__
 7780               	.LBE1125:
 7781               	.LBE1124:
 7782               	.LBB1126:
 7783               	.LBB1127:
 7784               	.LM713:
 7785 239e 1082      		st Z,__zero_reg__
 7786 23a0 1182      		std Z+1,__zero_reg__
 7787 23a2 1282      		std Z+2,__zero_reg__
 7788 23a4 1382      		std Z+3,__zero_reg__
 7789               	.LBE1127:
 7790               	.LBE1126:
 7791               	.LBB1128:
 7792               	.LBB1129:
 7793               	.LM714:
 7794 23a6 3597      		sbiw r30,5
 7795 23a8 9081      		ld r25,Z
 7796               	.LBE1129:
 7797               	.LBE1128:
 7798               	.LBB1130:
 7799               	.LBB1131:
 7800               	.LM715:
 7801 23aa 907E      		andi r25,lo8(-32)
 7802 23ac 9083      		st Z,r25
 7803               	.LBE1131:
 7804               	.LBE1130:
 7805               	.LBE1123:
 7806               	.LBE1122:
 7807               	.LM716:
 7808 23ae 0E94 0000 		call Timebase_DownCounter_Set_Securely
 7809               	.LVL463:
 7810               	/* epilogue start */
 7811               	.LM717:
 7812 23b2 DF91      		pop r29
 7813 23b4 CF91      		pop r28
 7814 23b6 0895      		ret
 7815               	.LFE131:
 7817               	.global	Timebase_DownCounter_Update
 7819               	Timebase_DownCounter_Update:
 7820               	.LFB132:
 7821               	.LM718:
 7822               	.LVL464:
 7823 23b8 CF93      		push r28
 7824 23ba DF93      		push r29
 7825               	/* prologue: function */
 7826               	/* frame size = 0 */
 7827               	.LBB1132:
 7828               	.LBB1133:
 7829               	.LM719:
 7830 23bc C091 0000 		lds r28,Timebase
 7831 23c0 D091 0000 		lds r29,(Timebase)+1
 7832 23c4 682F      		mov r22,r24
 7833 23c6 70E0      		ldi r23,lo8(0)
 7834 23c8 8DE0      		ldi r24,lo8(13)
 7835 23ca 90E0      		ldi r25,hi8(13)
 7836               	.LVL465:
 7837 23cc 689F      		mul r22,r24
 7838 23ce F001      		movw r30,r0
 7839 23d0 699F      		mul r22,r25
 7840 23d2 F00D      		add r31,r0
 7841 23d4 789F      		mul r23,r24
 7842 23d6 F00D      		add r31,r0
 7843 23d8 1124      		clr r1
 7844 23da EC0F      		add r30,r28
 7845 23dc FD1F      		adc r31,r29
 7846 23de E85A      		subi r30,lo8(-(88))
 7847 23e0 FF4F      		sbci r31,hi8(-(88))
 7848 23e2 E081      		ld r30,Z
 7849 23e4 E695      		lsr r30
 7850 23e6 EF70      		andi r30,lo8(15)
 7851               	.LBE1133:
 7852               	.LBE1132:
 7853               	.LM720:
 7854 23e8 E130      		cpi r30,lo8(1)
 7855 23ea 01F4      		brne .L343
 7856               	.LBB1134:
 7857               	.LBB1135:
 7858               	.LBB1136:
 7859               	.LBB1137:
 7860               	.LM721:
 7861               	/* #APP */
 7862               	 ;  341 "timebase.c" 1
 7863 23ec F894      		cli
 7864               	 ;  0 "" 2
 7865               	/* #NOAPP */
 7866               	.LBE1137:
 7867               	.LBE1136:
 7868               	.LM722:
 7869 23ee 2A85      		ldd r18,Y+10
 7870 23f0 3B85      		ldd r19,Y+11
 7871 23f2 4C85      		ldd r20,Y+12
 7872 23f4 5D85      		ldd r21,Y+13
 7873               	.LVL466:
 7874               	.LBB1138:
 7875               	.LBB1139:
 7876               	.LM723:
 7877               	/* #APP */
 7878               	 ;  345 "timebase.c" 1
 7879 23f6 7894      		sei
 7880               	 ;  0 "" 2
 7881               	/* #NOAPP */
 7882               	.LBE1139:
 7883               	.LBE1138:
 7884               	.LBE1135:
 7885               	.LBE1134:
 7886               	.LM724:
 7887 23f8 8DE0      		ldi r24,lo8(13)
 7888 23fa 90E0      		ldi r25,hi8(13)
 7889 23fc 689F      		mul r22,r24
 7890 23fe F001      		movw r30,r0
 7891 2400 699F      		mul r22,r25
 7892 2402 F00D      		add r31,r0
 7893 2404 789F      		mul r23,r24
 7894 2406 F00D      		add r31,r0
 7895 2408 1124      		clr r1
 7896 240a EC0F      		add r30,r28
 7897 240c FD1F      		adc r31,r29
 7898 240e BF01      		movw r22,r30
 7899 2410 675A      		subi r22,lo8(-(89))
 7900 2412 7F4F      		sbci r23,hi8(-(89))
 7901 2414 EB01      		movw r28,r22
 7902 2416 8881      		ld r24,Y
 7903 2418 9981      		ldd r25,Y+1
 7904 241a AA81      		ldd r26,Y+2
 7905 241c BB81      		ldd r27,Y+3
 7906 241e 821B      		sub r24,r18
 7907 2420 930B      		sbc r25,r19
 7908 2422 A40B      		sbc r26,r20
 7909 2424 B50B      		sbc r27,r21
 7910               	.LBB1140:
 7911               	.LBB1141:
 7912               	.LM725:
 7913 2426 EF01      		movw r28,r30
 7914 2428 C35A      		subi r28,lo8(-(93))
 7915 242a DF4F      		sbci r29,hi8(-(93))
 7916 242c 8883      		st Y,r24
 7917 242e 9983      		std Y+1,r25
 7918 2430 AA83      		std Y+2,r26
 7919 2432 BB83      		std Y+3,r27
 7920               	.LBE1141:
 7921               	.LBE1140:
 7922               	.LM726:
 7923 2434 1816      		cp __zero_reg__,r24
 7924 2436 1906      		cpc __zero_reg__,r25
 7925 2438 1A06      		cpc __zero_reg__,r26
 7926 243a 1B06      		cpc __zero_reg__,r27
 7927 243c 04F0      		brlt .L345
 7928               	.LBB1142:
 7929               	.LBB1143:
 7930               	.LBB1144:
 7931               	.LBB1145:
 7932               	.LM727:
 7933 243e DB01      		movw r26,r22
 7934 2440 1D92      		st X+,__zero_reg__
 7935 2442 1D92      		st X+,__zero_reg__
 7936 2444 1D92      		st X+,__zero_reg__
 7937 2446 1C92      		st X,__zero_reg__
 7938 2448 1397      		sbiw r26,3
 7939               	.LBE1145:
 7940               	.LBE1144:
 7941               	.LBB1146:
 7942               	.LBB1147:
 7943               	.LM728:
 7944 244a 1882      		st Y,__zero_reg__
 7945 244c 1982      		std Y+1,__zero_reg__
 7946 244e 1A82      		std Y+2,__zero_reg__
 7947 2450 1B82      		std Y+3,__zero_reg__
 7948               	.LBE1147:
 7949               	.LBE1146:
 7950               	.LBB1148:
 7951               	.LBB1149:
 7952               	.LM729:
 7953 2452 E85A      		subi r30,lo8(-(88))
 7954 2454 FF4F      		sbci r31,hi8(-(88))
 7955 2456 8081      		ld r24,Z
 7956               	.LBE1149:
 7957               	.LBE1148:
 7958               	.LBE1143:
 7959               	.LBE1142:
 7960               	.LBB1150:
 7961               	.LBB1151:
 7962               	.LM730:
 7963 2458 807E      		andi r24,lo8(-32)
 7964 245a 8860      		ori r24,lo8(8)
 7965 245c 8083      		st Z,r24
 7966 245e 00C0      		rjmp .L345
 7967               	.LVL467:
 7968               	.L343:
 7969               	.LBE1151:
 7970               	.LBE1150:
 7971               	.LM731:
 7972 2460 E230      		cpi r30,lo8(2)
 7973 2462 01F4      		brne .L345
 7974               	.LBB1152:
 7975               	.LBB1153:
 7976               	.LBB1154:
 7977               	.LBB1155:
 7978               	.LM732:
 7979               	/* #APP */
 7980               	 ;  341 "timebase.c" 1
 7981 2464 F894      		cli
 7982               	 ;  0 "" 2
 7983               	/* #NOAPP */
 7984               	.LBE1155:
 7985               	.LBE1154:
 7986               	.LM733:
 7987 2466 8A85      		ldd r24,Y+10
 7988 2468 9B85      		ldd r25,Y+11
 7989 246a AC85      		ldd r26,Y+12
 7990 246c BD85      		ldd r27,Y+13
 7991               	.LVL468:
 7992               	.LBB1156:
 7993               	.LBB1157:
 7994               	.LM734:
 7995               	/* #APP */
 7996               	 ;  345 "timebase.c" 1
 7997 246e 7894      		sei
 7998               	 ;  0 "" 2
 7999               	/* #NOAPP */
 8000               	.LBE1157:
 8001               	.LBE1156:
 8002               	.LBE1153:
 8003               	.LBE1152:
 8004               	.LBB1158:
 8005               	.LBB1159:
 8006               	.LM735:
 8007 2470 2DE0      		ldi r18,lo8(13)
 8008 2472 30E0      		ldi r19,hi8(13)
 8009 2474 629F      		mul r22,r18
 8010 2476 F001      		movw r30,r0
 8011 2478 639F      		mul r22,r19
 8012 247a F00D      		add r31,r0
 8013 247c 729F      		mul r23,r18
 8014 247e F00D      		add r31,r0
 8015 2480 1124      		clr r1
 8016 2482 EC0F      		add r30,r28
 8017 2484 FD1F      		adc r31,r29
 8018 2486 E35A      		subi r30,lo8(-(93))
 8019 2488 FF4F      		sbci r31,hi8(-(93))
 8020 248a 2081      		ld r18,Z
 8021 248c 3181      		ldd r19,Z+1
 8022 248e 4281      		ldd r20,Z+2
 8023 2490 5381      		ldd r21,Z+3
 8024 2492 820F      		add r24,r18
 8025 2494 931F      		adc r25,r19
 8026 2496 A41F      		adc r26,r20
 8027 2498 B51F      		adc r27,r21
 8028 249a B293      		st -Z,r27
 8029 249c A293      		st -Z,r26
 8030 249e 9293      		st -Z,r25
 8031 24a0 8293      		st -Z,r24
 8032               	.LVL469:
 8033               	.L345:
 8034               	/* epilogue start */
 8035               	.LBE1159:
 8036               	.LBE1158:
 8037               	.LM736:
 8038 24a2 DF91      		pop r29
 8039 24a4 CF91      		pop r28
 8040 24a6 0895      		ret
 8041               	.LFE132:
 8043               	.global	Timebase_DownCounter_Expired
 8045               	Timebase_DownCounter_Expired:
 8046               	.LFB133:
 8047               	.LM737:
 8048               	.LVL470:
 8049               	/* prologue: function */
 8050               	/* frame size = 0 */
 8051               	.LM738:
 8052 24a8 40E0      		ldi r20,lo8(0)
 8053 24aa E091 0000 		lds r30,Timebase
 8054 24ae F091 0000 		lds r31,(Timebase)+1
 8055 24b2 90E0      		ldi r25,lo8(0)
 8056               	.LVL471:
 8057 24b4 2DE0      		ldi r18,lo8(13)
 8058 24b6 30E0      		ldi r19,hi8(13)
 8059 24b8 BC01      		movw r22,r24
 8060 24ba 629F      		mul r22,r18
 8061 24bc C001      		movw r24,r0
 8062 24be 639F      		mul r22,r19
 8063 24c0 900D      		add r25,r0
 8064 24c2 729F      		mul r23,r18
 8065 24c4 900D      		add r25,r0
 8066 24c6 1124      		clr r1
 8067               	.LVL472:
 8068 24c8 E80F      		add r30,r24
 8069 24ca F91F      		adc r31,r25
 8070 24cc E85A      		subi r30,lo8(-(88))
 8071 24ce FF4F      		sbci r31,hi8(-(88))
 8072 24d0 8081      		ld r24,Z
 8073 24d2 8695      		lsr r24
 8074 24d4 8F70      		andi r24,lo8(15)
 8075 24d6 8430      		cpi r24,lo8(4)
 8076 24d8 01F4      		brne .L347
 8077 24da 41E0      		ldi r20,lo8(1)
 8078               	.L347:
 8079               	.LM739:
 8080 24dc 842F      		mov r24,r20
 8081               	/* epilogue start */
 8082 24de 0895      		ret
 8083               	.LFE133:
 8085               	.global	Timebase_DownCounter_Expired_Event
 8087               	Timebase_DownCounter_Expired_Event:
 8088               	.LFB134:
 8089               	.LM740:
 8090               	.LVL473:
 8091               	/* prologue: function */
 8092               	/* frame size = 0 */
 8093               	.LBB1160:
 8094               	.LBB1161:
 8095               	.LM741:
 8096 24e0 E091 0000 		lds r30,Timebase
 8097 24e4 F091 0000 		lds r31,(Timebase)+1
 8098 24e8 90E0      		ldi r25,lo8(0)
 8099               	.LBE1161:
 8100               	.LBE1160:
 8101               	.LM742:
 8102 24ea 2DE0      		ldi r18,lo8(13)
 8103 24ec 30E0      		ldi r19,hi8(13)
 8104 24ee AC01      		movw r20,r24
 8105               	.LVL474:
 8106 24f0 429F      		mul r20,r18
 8107 24f2 C001      		movw r24,r0
 8108 24f4 439F      		mul r20,r19
 8109 24f6 900D      		add r25,r0
 8110 24f8 529F      		mul r21,r18
 8111 24fa 900D      		add r25,r0
 8112 24fc 1124      		clr r1
 8113 24fe E80F      		add r30,r24
 8114 2500 F91F      		adc r31,r25
 8115 2502 DF01      		movw r26,r30
 8116 2504 A85A      		subi r26,lo8(-(88))
 8117 2506 BF4F      		sbci r27,hi8(-(88))
 8118 2508 8C91      		ld r24,X
 8119 250a 8695      		lsr r24
 8120 250c 8F70      		andi r24,lo8(15)
 8121 250e 8430      		cpi r24,lo8(4)
 8122 2510 01F0      		breq .L350
 8123 2512 80E0      		ldi r24,lo8(0)
 8124 2514 0895      		ret
 8125               	.L350:
 8126               	.LBB1162:
 8127               	.LBB1163:
 8128               	.LBB1164:
 8129               	.LBB1165:
 8130               	.LBB1166:
 8131               	.LBB1167:
 8132               	.LM743:
 8133 2516 E75A      		subi r30,lo8(-(89))
 8134 2518 FF4F      		sbci r31,hi8(-(89))
 8135 251a 1192      		st Z+,__zero_reg__
 8136 251c 1192      		st Z+,__zero_reg__
 8137 251e 1192      		st Z+,__zero_reg__
 8138 2520 1192      		st Z+,__zero_reg__
 8139               	.LBE1167:
 8140               	.LBE1166:
 8141               	.LBB1168:
 8142               	.LBB1169:
 8143               	.LM744:
 8144 2522 1082      		st Z,__zero_reg__
 8145 2524 1182      		std Z+1,__zero_reg__
 8146 2526 1282      		std Z+2,__zero_reg__
 8147 2528 1382      		std Z+3,__zero_reg__
 8148               	.LBE1169:
 8149               	.LBE1168:
 8150               	.LBB1170:
 8151               	.LBB1171:
 8152               	.LM745:
 8153 252a 8C91      		ld r24,X
 8154               	.LBE1171:
 8155               	.LBE1170:
 8156               	.LBB1172:
 8157               	.LBB1173:
 8158               	.LM746:
 8159 252c 807E      		andi r24,lo8(-32)
 8160 252e 8C93      		st X,r24
 8161 2530 81E0      		ldi r24,lo8(1)
 8162               	.LBE1173:
 8163               	.LBE1172:
 8164               	.LBE1165:
 8165               	.LBE1164:
 8166               	.LBE1163:
 8167               	.LBE1162:
 8168               	.LM747:
 8169 2532 0895      		ret
 8170               	.LFE134:
 8172               	.global	Timebase_DownCounter_Set_Period_Value_Securely
 8174               	Timebase_DownCounter_Set_Period_Value_Securely:
 8175               	.LFB135:
 8176               	.LM748:
 8177               	.LVL475:
 8178 2534 CF93      		push r28
 8179 2536 DF93      		push r29
 8180               	/* prologue: function */
 8181               	/* frame size = 0 */
 8182               	.LBB1174:
 8183               	.LBB1175:
 8184               	.LM749:
 8185 2538 C091 0000 		lds r28,Timebase
 8186 253c D091 0000 		lds r29,(Timebase)+1
 8187 2540 282F      		mov r18,r24
 8188 2542 30E0      		ldi r19,lo8(0)
 8189               	.LBE1175:
 8190               	.LBE1174:
 8191               	.LM750:
 8192 2544 8DE0      		ldi r24,lo8(13)
 8193 2546 90E0      		ldi r25,hi8(13)
 8194               	.LVL476:
 8195 2548 289F      		mul r18,r24
 8196 254a F001      		movw r30,r0
 8197 254c 299F      		mul r18,r25
 8198 254e F00D      		add r31,r0
 8199 2550 389F      		mul r19,r24
 8200 2552 F00D      		add r31,r0
 8201 2554 1124      		clr r1
 8202 2556 EC0F      		add r30,r28
 8203 2558 FD1F      		adc r31,r29
 8204 255a E85A      		subi r30,lo8(-(88))
 8205 255c FF4F      		sbci r31,hi8(-(88))
 8206 255e 8081      		ld r24,Z
 8207 2560 E855      		subi r30,lo8(-(-88))
 8208 2562 F040      		sbci r31,hi8(-(-88))
 8209 2564 80FD      		sbrc r24,0
 8210 2566 00C0      		rjmp .L357
 8211               	.LM751:
 8212 2568 E35A      		subi r30,lo8(-(93))
 8213 256a FF4F      		sbci r31,hi8(-(93))
 8214 256c 8191      		ld r24,Z+
 8215 256e 9191      		ld r25,Z+
 8216 2570 A191      		ld r26,Z+
 8217 2572 B191      		ld r27,Z+
 8218 2574 841B      		sub r24,r20
 8219 2576 950B      		sbc r25,r21
 8220 2578 A60B      		sbc r26,r22
 8221 257a B70B      		sbc r27,r23
 8222               	.LBB1176:
 8223               	.LBB1177:
 8224               	.LM752:
 8225 257c B7FF      		sbrs r27,7
 8226 257e 00C0      		rjmp .L355
 8227               	.LM753:
 8228 2580 1082      		st Z,__zero_reg__
 8229 2582 1182      		std Z+1,__zero_reg__
 8230 2584 1282      		std Z+2,__zero_reg__
 8231 2586 1382      		std Z+3,__zero_reg__
 8232 2588 00C0      		rjmp .L356
 8233               	.L355:
 8234               	.LM754:
 8235 258a 8083      		st Z,r24
 8236 258c 9183      		std Z+1,r25
 8237 258e A283      		std Z+2,r26
 8238 2590 B383      		std Z+3,r27
 8239               	.L356:
 8240               	.LBE1177:
 8241               	.LBE1176:
 8242               	.LBB1178:
 8243               	.LBB1179:
 8244               	.LM755:
 8245 2592 8DE0      		ldi r24,lo8(13)
 8246 2594 90E0      		ldi r25,hi8(13)
 8247 2596 289F      		mul r18,r24
 8248 2598 F001      		movw r30,r0
 8249 259a 299F      		mul r18,r25
 8250 259c F00D      		add r31,r0
 8251 259e 389F      		mul r19,r24
 8252 25a0 F00D      		add r31,r0
 8253 25a2 1124      		clr r1
 8254 25a4 EC0F      		add r30,r28
 8255 25a6 FD1F      		adc r31,r29
 8256 25a8 E85A      		subi r30,lo8(-(88))
 8257 25aa FF4F      		sbci r31,hi8(-(88))
 8258 25ac 8081      		ld r24,Z
 8259 25ae 8160      		ori r24,lo8(1)
 8260 25b0 8083      		st Z,r24
 8261               	.L357:
 8262               	/* epilogue start */
 8263               	.LBE1179:
 8264               	.LBE1178:
 8265               	.LM756:
 8266 25b2 DF91      		pop r29
 8267 25b4 CF91      		pop r28
 8268 25b6 0895      		ret
 8269               	.LFE135:
 8271               	.global	Timebase_DownCounter_Get_Remaining_Period_Value
 8273               	Timebase_DownCounter_Get_Remaining_Period_Value:
 8274               	.LFB136:
 8275               	.LM757:
 8276               	.LVL477:
 8277               	/* prologue: function */
 8278               	/* frame size = 0 */
 8279               	.LBB1180:
 8280               	.LBB1181:
 8281               	.LM758:
 8282 25b8 E091 0000 		lds r30,Timebase
 8283 25bc F091 0000 		lds r31,(Timebase)+1
 8284 25c0 90E0      		ldi r25,lo8(0)
 8285               	.LBE1181:
 8286               	.LBE1180:
 8287               	.LM759:
 8288 25c2 2DE0      		ldi r18,lo8(13)
 8289 25c4 30E0      		ldi r19,hi8(13)
 8290 25c6 AC01      		movw r20,r24
 8291               	.LVL478:
 8292 25c8 429F      		mul r20,r18
 8293 25ca C001      		movw r24,r0
 8294 25cc 439F      		mul r20,r19
 8295 25ce 900D      		add r25,r0
 8296 25d0 529F      		mul r21,r18
 8297 25d2 900D      		add r25,r0
 8298 25d4 1124      		clr r1
 8299 25d6 E80F      		add r30,r24
 8300 25d8 F91F      		adc r31,r25
 8301 25da DF01      		movw r26,r30
 8302 25dc AF59      		subi r26,lo8(-(97))
 8303 25de BF4F      		sbci r27,hi8(-(97))
 8304 25e0 E35A      		subi r30,lo8(-(93))
 8305 25e2 FF4F      		sbci r31,hi8(-(93))
 8306 25e4 2081      		ld r18,Z
 8307 25e6 3181      		ldd r19,Z+1
 8308 25e8 4281      		ldd r20,Z+2
 8309 25ea 5381      		ldd r21,Z+3
 8310               	.LVL479:
 8311 25ec 8D91      		ld r24,X+
 8312 25ee 9D91      		ld r25,X+
 8313 25f0 0D90      		ld __tmp_reg__,X+
 8314 25f2 BC91      		ld r27,X
 8315 25f4 A02D      		mov r26,__tmp_reg__
 8316 25f6 281B      		sub r18,r24
 8317 25f8 390B      		sbc r19,r25
 8318 25fa 4A0B      		sbc r20,r26
 8319 25fc 5B0B      		sbc r21,r27
 8320 25fe 57FF      		sbrs r21,7
 8321 2600 00C0      		rjmp .L359
 8322 2602 20E0      		ldi r18,lo8(0)
 8323 2604 30E0      		ldi r19,hi8(0)
 8324 2606 40E0      		ldi r20,hlo8(0)
 8325 2608 50E0      		ldi r21,hhi8(0)
 8326               	.L359:
 8327               	.LM760:
 8328 260a B901      		movw r22,r18
 8329               	.LVL480:
 8330 260c CA01      		movw r24,r20
 8331               	/* epilogue start */
 8332 260e 0895      		ret
 8333               	.LFE136:
 8335               	.global	Timebase_DownCounter_Period_Value_Expired
 8337               	Timebase_DownCounter_Period_Value_Expired:
 8338               	.LFB137:
 8339               	.LM761:
 8340               	.LVL481:
 8341 2610 CF93      		push r28
 8342 2612 DF93      		push r29
 8343               	/* prologue: function */
 8344               	/* frame size = 0 */
 8345               	.LBB1182:
 8346               	.LBB1183:
 8347               	.LBB1184:
 8348               	.LBB1185:
 8349               	.LM762:
 8350 2614 C091 0000 		lds r28,Timebase
 8351 2618 D091 0000 		lds r29,(Timebase)+1
 8352 261c 682F      		mov r22,r24
 8353 261e 70E0      		ldi r23,lo8(0)
 8354               	.LBE1185:
 8355               	.LBE1184:
 8356               	.LM763:
 8357 2620 8DE0      		ldi r24,lo8(13)
 8358 2622 90E0      		ldi r25,hi8(13)
 8359               	.LVL482:
 8360 2624 689F      		mul r22,r24
 8361 2626 F001      		movw r30,r0
 8362 2628 699F      		mul r22,r25
 8363 262a F00D      		add r31,r0
 8364 262c 789F      		mul r23,r24
 8365 262e F00D      		add r31,r0
 8366 2630 1124      		clr r1
 8367 2632 EC0F      		add r30,r28
 8368 2634 FD1F      		adc r31,r29
 8369 2636 DF01      		movw r26,r30
 8370 2638 AF59      		subi r26,lo8(-(97))
 8371 263a BF4F      		sbci r27,hi8(-(97))
 8372 263c E35A      		subi r30,lo8(-(93))
 8373 263e FF4F      		sbci r31,hi8(-(93))
 8374 2640 2081      		ld r18,Z
 8375 2642 3181      		ldd r19,Z+1
 8376 2644 4281      		ldd r20,Z+2
 8377 2646 5381      		ldd r21,Z+3
 8378               	.LVL483:
 8379 2648 8D91      		ld r24,X+
 8380 264a 9D91      		ld r25,X+
 8381 264c 0D90      		ld __tmp_reg__,X+
 8382 264e BC91      		ld r27,X
 8383 2650 A02D      		mov r26,__tmp_reg__
 8384 2652 281B      		sub r18,r24
 8385 2654 390B      		sbc r19,r25
 8386 2656 4A0B      		sbc r20,r26
 8387 2658 5B0B      		sbc r21,r27
 8388               	.LM764:
 8389 265a 57FD      		sbrc r21,7
 8390 265c 00C0      		rjmp .L362
 8391               	.LBE1183:
 8392               	.LBE1182:
 8393               	.LM765:
 8394 265e 2115      		cp r18,__zero_reg__
 8395 2660 3105      		cpc r19,__zero_reg__
 8396 2662 4105      		cpc r20,__zero_reg__
 8397 2664 5105      		cpc r21,__zero_reg__
 8398 2666 01F0      		breq .L362
 8399 2668 20E0      		ldi r18,lo8(0)
 8400               	.LVL484:
 8401 266a 00C0      		rjmp .L363
 8402               	.LVL485:
 8403               	.L362:
 8404 266c 20E0      		ldi r18,lo8(0)
 8405               	.LVL486:
 8406 266e 8DE0      		ldi r24,lo8(13)
 8407 2670 90E0      		ldi r25,hi8(13)
 8408 2672 AC01      		movw r20,r24
 8409 2674 649F      		mul r22,r20
 8410 2676 C001      		movw r24,r0
 8411 2678 659F      		mul r22,r21
 8412 267a 900D      		add r25,r0
 8413 267c 749F      		mul r23,r20
 8414 267e 900D      		add r25,r0
 8415 2680 1124      		clr r1
 8416 2682 C80F      		add r28,r24
 8417 2684 D91F      		adc r29,r25
 8418 2686 C85A      		subi r28,lo8(-(88))
 8419 2688 DF4F      		sbci r29,hi8(-(88))
 8420 268a 8881      		ld r24,Y
 8421 268c 80FF      		sbrs r24,0
 8422 268e 21E0      		ldi r18,lo8(1)
 8423               	.L364:
 8424 2690 81E0      		ldi r24,lo8(1)
 8425 2692 2827      		eor r18,r24
 8426               	.L363:
 8427               	.LM766:
 8428 2694 822F      		mov r24,r18
 8429               	/* epilogue start */
 8430 2696 DF91      		pop r29
 8431 2698 CF91      		pop r28
 8432 269a 0895      		ret
 8433               	.LFE137:
 8435               	.global	Timebase_DownCounter_Period_Value_Expired_Event
 8437               	Timebase_DownCounter_Period_Value_Expired_Event:
 8438               	.LFB138:
 8439               	.LM767:
 8440               	.LVL487:
 8441 269c 1F93      		push r17
 8442               	/* prologue: function */
 8443               	/* frame size = 0 */
 8444 269e 182F      		mov r17,r24
 8445               	.LM768:
 8446 26a0 0E94 0000 		call Timebase_DownCounter_Period_Value_Expired
 8447               	.LVL488:
 8448 26a4 8130      		cpi r24,lo8(1)
 8449 26a6 01F0      		breq .L367
 8450 26a8 80E0      		ldi r24,lo8(0)
 8451 26aa 00C0      		rjmp .L368
 8452               	.L367:
 8453               	.LBB1186:
 8454               	.LBB1187:
 8455               	.LM769:
 8456 26ac E091 0000 		lds r30,Timebase
 8457 26b0 F091 0000 		lds r31,(Timebase)+1
 8458 26b4 212F      		mov r18,r17
 8459 26b6 30E0      		ldi r19,lo8(0)
 8460               	.LVL489:
 8461 26b8 8DE0      		ldi r24,lo8(13)
 8462 26ba 90E0      		ldi r25,hi8(13)
 8463 26bc AC01      		movw r20,r24
 8464 26be 249F      		mul r18,r20
 8465 26c0 C001      		movw r24,r0
 8466 26c2 259F      		mul r18,r21
 8467 26c4 900D      		add r25,r0
 8468 26c6 349F      		mul r19,r20
 8469 26c8 900D      		add r25,r0
 8470 26ca 1124      		clr r1
 8471 26cc E80F      		add r30,r24
 8472 26ce F91F      		adc r31,r25
 8473 26d0 E85A      		subi r30,lo8(-(88))
 8474 26d2 FF4F      		sbci r31,hi8(-(88))
 8475 26d4 8081      		ld r24,Z
 8476 26d6 8E7F      		andi r24,lo8(-2)
 8477 26d8 8083      		st Z,r24
 8478 26da 81E0      		ldi r24,lo8(1)
 8479               	.L368:
 8480               	/* epilogue start */
 8481               	.LBE1187:
 8482               	.LBE1186:
 8483               	.LM770:
 8484 26dc 1F91      		pop r17
 8485               	.LVL490:
 8486 26de 0895      		ret
 8487               	.LFE138:
 8489               	.global	Timebase_DownCounter_Update_All
 8491               	Timebase_DownCounter_Update_All:
 8492               	.LFB139:
 8493               	.LM771:
 8494               	/* prologue: function */
 8495               	/* frame size = 0 */
 8496               	.LBB1188:
 8497               	.LM772:
 8498 26e0 80E0      		ldi r24,lo8(0)
 8499 26e2 0E94 0000 		call Timebase_DownCounter_Update
 8500               	/* epilogue start */
 8501               	.LBE1188:
 8502               	.LM773:
 8503 26e6 0895      		ret
 8504               	.LFE139:
 8506               	.global	Timebase_DownCounter_Reset_All
 8508               	Timebase_DownCounter_Reset_All:
 8509               	.LFB140:
 8510               	.LM774:
 8511               	/* prologue: function */
 8512               	/* frame size = 0 */
 8513               	.LBB1189:
 8514               	.LBB1190:
 8515               	.LBB1191:
 8516               	.LBB1192:
 8517               	.LBB1193:
 8518               	.LM775:
 8519 26e8 E091 0000 		lds r30,Timebase
 8520 26ec F091 0000 		lds r31,(Timebase)+1
 8521 26f0 E75A      		subi r30,lo8(-(89))
 8522 26f2 FF4F      		sbci r31,hi8(-(89))
 8523 26f4 1192      		st Z+,__zero_reg__
 8524 26f6 1192      		st Z+,__zero_reg__
 8525 26f8 1192      		st Z+,__zero_reg__
 8526 26fa 1192      		st Z+,__zero_reg__
 8527               	.LBE1193:
 8528               	.LBE1192:
 8529               	.LBB1194:
 8530               	.LBB1195:
 8531               	.LM776:
 8532 26fc 1082      		st Z,__zero_reg__
 8533 26fe 1182      		std Z+1,__zero_reg__
 8534 2700 1282      		std Z+2,__zero_reg__
 8535 2702 1382      		std Z+3,__zero_reg__
 8536               	.LBE1195:
 8537               	.LBE1194:
 8538               	.LBB1196:
 8539               	.LBB1197:
 8540               	.LM777:
 8541 2704 3597      		sbiw r30,5
 8542 2706 8081      		ld r24,Z
 8543               	.LBE1197:
 8544               	.LBE1196:
 8545               	.LBB1198:
 8546               	.LBB1199:
 8547               	.LM778:
 8548 2708 807E      		andi r24,lo8(-32)
 8549 270a 8083      		st Z,r24
 8550               	/* epilogue start */
 8551               	.LBE1199:
 8552               	.LBE1198:
 8553               	.LBE1191:
 8554               	.LBE1190:
 8555               	.LBE1189:
 8556               	.LM779:
 8557 270c 0895      		ret
 8558               	.LFE140:
 8560               	.global	Timebase_Reset
 8562               	Timebase_Reset:
 8563               	.LFB141:
 8564               	.LM780:
 8565               	/* prologue: function */
 8566               	/* frame size = 0 */
 8567               	.LM781:
 8568 270e 0E94 0000 		call Timebase_UpCounter_Reset_All
 8569               	.LM782:
 8570 2712 0E94 0000 		call Timebase_DownCounter_SS_Reset_All
 8571               	.LM783:
 8572 2716 0E94 0000 		call Timebase_DownCounter_Reset_All
 8573               	/* epilogue start */
 8574               	.LM784:
 8575 271a 0895      		ret
 8576               	.LFE141:
 8578               	.global	Timebase_Init
 8580               	Timebase_Init:
 8581               	.LFB142:
 8582               	.LM785:
 8583               	.LVL491:
 8584 271c 0F93      		push r16
 8585 271e 1F93      		push r17
 8586               	/* prologue: function */
 8587               	/* frame size = 0 */
 8588 2720 8C01      		movw r16,r24
 8589               	.LM786:
 8590 2722 0E94 0000 		call Timebase_Struct_Init
 8591               	.LVL492:
 8592               	.LM787:
 8593 2726 C801      		movw r24,r16
 8594 2728 0E94 0000 		call Timebase_Timer_Config
 8595               	.LM788:
 8596 272c 0E94 0000 		call Timebase_Reset
 8597               	/* epilogue start */
 8598               	.LM789:
 8599 2730 1F91      		pop r17
 8600 2732 0F91      		pop r16
 8601               	.LVL493:
 8602 2734 0895      		ret
 8603               	.LFE142:
 8605               	.global	Timebase_Main_Loop_Executables
 8607               	Timebase_Main_Loop_Executables:
 8608               	.LFB143:
 8609               	.LM790:
 8610               	/* prologue: function */
 8611               	/* frame size = 0 */
 8612               	.LM791:
 8613 2736 E091 0000 		lds r30,Timebase
 8614 273a F091 0000 		lds r31,(Timebase)+1
 8615 273e 8789      		ldd r24,Z+23
 8616 2740 82FF      		sbrs r24,2
 8617 2742 00C0      		rjmp .L379
 8618               	.LM792:
 8619 2744 8789      		ldd r24,Z+23
 8620 2746 8B7F      		andi r24,lo8(-5)
 8621 2748 878B      		std Z+23,r24
 8622               	.L379:
 8623               	.LM793:
 8624 274a 8789      		ldd r24,Z+23
 8625 274c 80FF      		sbrs r24,0
 8626 274e 00C0      		rjmp .L380
 8627               	.LM794:
 8628 2750 0E94 0000 		call Timebase_UpCounter_Update_All
 8629               	.LM795:
 8630 2754 E091 0000 		lds r30,Timebase
 8631 2758 F091 0000 		lds r31,(Timebase)+1
 8632 275c 8789      		ldd r24,Z+23
 8633 275e 8E7F      		andi r24,lo8(-2)
 8634 2760 878B      		std Z+23,r24
 8635               	.L380:
 8636               	.LM796:
 8637 2762 E091 0000 		lds r30,Timebase
 8638 2766 F091 0000 		lds r31,(Timebase)+1
 8639 276a 8789      		ldd r24,Z+23
 8640 276c 83FF      		sbrs r24,3
 8641 276e 00C0      		rjmp .L381
 8642               	.LM797:
 8643 2770 0E94 0000 		call Timebase_DownCounter_SS_Update_All
 8644               	.LM798:
 8645 2774 E091 0000 		lds r30,Timebase
 8646 2778 F091 0000 		lds r31,(Timebase)+1
 8647 277c 8789      		ldd r24,Z+23
 8648 277e 877F      		andi r24,lo8(-9)
 8649 2780 878B      		std Z+23,r24
 8650               	.L381:
 8651               	.LM799:
 8652 2782 E091 0000 		lds r30,Timebase
 8653 2786 F091 0000 		lds r31,(Timebase)+1
 8654 278a 8789      		ldd r24,Z+23
 8655 278c 81FF      		sbrs r24,1
 8656 278e 00C0      		rjmp .L383
 8657               	.LM800:
 8658 2790 0E94 0000 		call Timebase_DownCounter_Update_All
 8659               	.LM801:
 8660 2794 E091 0000 		lds r30,Timebase
 8661 2798 F091 0000 		lds r31,(Timebase)+1
 8662 279c 8789      		ldd r24,Z+23
 8663 279e 8D7F      		andi r24,lo8(-3)
 8664 27a0 878B      		std Z+23,r24
 8665               	.L383:
 8666 27a2 0895      		ret
 8667               	.LFE143:
 8669               	.global	Timebase_ISR_Executables
 8671               	Timebase_ISR_Executables:
 8672               	.LFB144:
 8673               	.LM802:
 8674               	/* prologue: function */
 8675               	/* frame size = 0 */
 8676               	.LM803:
 8677 27a4 E091 0000 		lds r30,Timebase
 8678 27a8 F091 0000 		lds r31,(Timebase)+1
 8679 27ac 8085      		ldd r24,Z+8
 8680 27ae 9185      		ldd r25,Z+9
 8681 27b0 0196      		adiw r24,1
 8682 27b2 9187      		std Z+9,r25
 8683 27b4 8087      		std Z+8,r24
 8684               	.LM804:
 8685 27b6 8789      		ldd r24,Z+23
 8686 27b8 8460      		ori r24,lo8(4)
 8687 27ba 878B      		std Z+23,r24
 8688               	.LM805:
 8689 27bc 8789      		ldd r24,Z+23
 8690 27be 8860      		ori r24,lo8(8)
 8691 27c0 878B      		std Z+23,r24
 8692               	.LM806:
 8693 27c2 8085      		ldd r24,Z+8
 8694 27c4 9185      		ldd r25,Z+9
 8695 27c6 6181      		ldd r22,Z+1
 8696 27c8 7281      		ldd r23,Z+2
 8697 27ca 0E94 0000 		call __udivmodhi4
 8698 27ce 892B      		or r24,r25
 8699 27d0 01F4      		brne .L386
 8700               	.LM807:
 8701 27d2 8285      		ldd r24,Z+10
 8702 27d4 9385      		ldd r25,Z+11
 8703 27d6 A485      		ldd r26,Z+12
 8704 27d8 B585      		ldd r27,Z+13
 8705 27da 0196      		adiw r24,1
 8706 27dc A11D      		adc r26,__zero_reg__
 8707 27de B11D      		adc r27,__zero_reg__
 8708 27e0 8287      		std Z+10,r24
 8709 27e2 9387      		std Z+11,r25
 8710 27e4 A487      		std Z+12,r26
 8711 27e6 B587      		std Z+13,r27
 8712               	.LM808:
 8713 27e8 1186      		std Z+9,__zero_reg__
 8714 27ea 1086      		std Z+8,__zero_reg__
 8715               	.LM809:
 8716 27ec 8789      		ldd r24,Z+23
 8717 27ee 8160      		ori r24,lo8(1)
 8718 27f0 878B      		std Z+23,r24
 8719               	.LM810:
 8720 27f2 8789      		ldd r24,Z+23
 8721 27f4 8260      		ori r24,lo8(2)
 8722 27f6 878B      		std Z+23,r24
 8723               	.L386:
 8724 27f8 0895      		ret
 8725               	.LFE144:
 8727               	.global	__vector_16
 8729               	__vector_16:
 8730               	.LFB145:
 8731               	.LM811:
 8732 27fa 1F92      		push __zero_reg__
 8733 27fc 0F92      		push r0
 8734 27fe 0FB6      		in r0,__SREG__
 8735 2800 0F92      		push r0
 8736 2802 1124      		clr __zero_reg__
 8737 2804 2F93      		push r18
 8738 2806 3F93      		push r19
 8739 2808 4F93      		push r20
 8740 280a 5F93      		push r21
 8741 280c 6F93      		push r22
 8742 280e 7F93      		push r23
 8743 2810 8F93      		push r24
 8744 2812 9F93      		push r25
 8745 2814 AF93      		push r26
 8746 2816 BF93      		push r27
 8747 2818 EF93      		push r30
 8748 281a FF93      		push r31
 8749               	/* prologue: Signal */
 8750               	/* frame size = 0 */
 8751               	.LM812:
 8752 281c E091 0000 		lds r30,Timebase
 8753 2820 F091 0000 		lds r31,(Timebase)+1
 8754 2824 8381      		ldd r24,Z+3
 8755 2826 86BD      		out 70-32,r24
 8756               	.LM813:
 8757 2828 0E94 0000 		call Timebase_ISR_Executables
 8758               	/* epilogue start */
 8759               	.LM814:
 8760 282c FF91      		pop r31
 8761 282e EF91      		pop r30
 8762 2830 BF91      		pop r27
 8763 2832 AF91      		pop r26
 8764 2834 9F91      		pop r25
 8765 2836 8F91      		pop r24
 8766 2838 7F91      		pop r23
 8767 283a 6F91      		pop r22
 8768 283c 5F91      		pop r21
 8769 283e 4F91      		pop r20
 8770 2840 3F91      		pop r19
 8771 2842 2F91      		pop r18
 8772 2844 0F90      		pop r0
 8773 2846 0FBE      		out __SREG__,r0
 8774 2848 0F90      		pop r0
 8775 284a 1F90      		pop __zero_reg__
 8776 284c 1895      		reti
 8777               	.LFE145:
 8779               		.data
 8782               	C.2.1694:
 8783 0000 0100      		.word	1
 8784 0002 0800      		.word	8
 8785 0004 4000      		.word	64
 8786 0006 0001      		.word	256
 8787 0008 0004      		.word	1024
 8788               		.comm Timebase_type,101,1
 8789               		.comm Timebase,2,1
 9926               	.Letext0:
DEFINED SYMBOLS
                            *ABS*:00000000 timebase.c
C:\Users\farid\AppData\Local\Temp/cc8MlAXR.s:2      *ABS*:0000003f __SREG__
C:\Users\farid\AppData\Local\Temp/cc8MlAXR.s:3      *ABS*:0000003e __SP_H__
C:\Users\farid\AppData\Local\Temp/cc8MlAXR.s:4      *ABS*:0000003d __SP_L__
C:\Users\farid\AppData\Local\Temp/cc8MlAXR.s:5      *ABS*:00000034 __CCP__
C:\Users\farid\AppData\Local\Temp/cc8MlAXR.s:6      *ABS*:00000000 __tmp_reg__
C:\Users\farid\AppData\Local\Temp/cc8MlAXR.s:7      *ABS*:00000001 __zero_reg__
C:\Users\farid\AppData\Local\Temp/cc8MlAXR.s:18     .text:00000000 Timebase_Struct_Init
                            *COM*:00000065 Timebase_type
                            *COM*:00000002 Timebase
C:\Users\farid\AppData\Local\Temp/cc8MlAXR.s:187    .text:000001ba Timebase_Timer_Config
C:\Users\farid\AppData\Local\Temp/cc8MlAXR.s:8782   .data:00000000 C.2.1694
C:\Users\farid\AppData\Local\Temp/cc8MlAXR.s:507    .text:00000354 Timebase_Atomic_Operation_Start
C:\Users\farid\AppData\Local\Temp/cc8MlAXR.s:525    .text:00000358 Timebase_Atomic_Operation_End
C:\Users\farid\AppData\Local\Temp/cc8MlAXR.s:543    .text:0000035c Timebase_Token_Executing
C:\Users\farid\AppData\Local\Temp/cc8MlAXR.s:559    .text:00000368 Timebase_Token_Add
C:\Users\farid\AppData\Local\Temp/cc8MlAXR.s:585    .text:0000037e Timebase_Token_Remove
C:\Users\farid\AppData\Local\Temp/cc8MlAXR.s:611    .text:00000394 Timebase_Token_Remove_All
C:\Users\farid\AppData\Local\Temp/cc8MlAXR.s:627    .text:000003a0 Timebase_Timer_Get_SubSeconds
C:\Users\farid\AppData\Local\Temp/cc8MlAXR.s:667    .text:000003b4 Timebase_Timer_Get_Seconds
C:\Users\farid\AppData\Local\Temp/cc8MlAXR.s:710    .text:000003ce Timebase_Timer_Set_SubSeconds
C:\Users\farid\AppData\Local\Temp/cc8MlAXR.s:748    .text:000003e0 Timebase_Timer_Set_Seconds
C:\Users\farid\AppData\Local\Temp/cc8MlAXR.s:788    .text:000003f6 Timebase_Timer_Delay_SubSeconds
C:\Users\farid\AppData\Local\Temp/cc8MlAXR.s:1012   .text:000004b6 Timebase_Timer_Await_SubSeconds
C:\Users\farid\AppData\Local\Temp/cc8MlAXR.s:1141   .text:00000532 Timebase_Timer_Delay_Seconds
C:\Users\farid\AppData\Local\Temp/cc8MlAXR.s:1238   .text:00000574 Timebase_Window_Timer_Reset
C:\Users\farid\AppData\Local\Temp/cc8MlAXR.s:1264   .text:00000590 Timebase_Window_Timer_Start
C:\Users\farid\AppData\Local\Temp/cc8MlAXR.s:1356   .text:000005cc Timebase_Window_Timer_Get_Interval
C:\Users\farid\AppData\Local\Temp/cc8MlAXR.s:1494   .text:0000064e Timebase_Window_Timer_Get_Interval_Reset
C:\Users\farid\AppData\Local\Temp/cc8MlAXR.s:1534   .text:00000678 Timebase_UpCounter_SS_Get_Status
C:\Users\farid\AppData\Local\Temp/cc8MlAXR.s:1570   .text:000006a4 Timebase_UpCounter_SS_Set_Status
C:\Users\farid\AppData\Local\Temp/cc8MlAXR.s:1610   .text:000006d6 Timebase_UpCounter_SS_Get_Value
C:\Users\farid\AppData\Local\Temp/cc8MlAXR.s:1653   .text:00000710 Timebase_UpCounter_SS_Set_Value
C:\Users\farid\AppData\Local\Temp/cc8MlAXR.s:1688   .text:0000073c Timebase_UpCounter_SS_Get_EndValueSec
C:\Users\farid\AppData\Local\Temp/cc8MlAXR.s:1731   .text:00000776 Timebase_UpCounter_SS_Get_EndValueSubSec
C:\Users\farid\AppData\Local\Temp/cc8MlAXR.s:1774   .text:000007b0 Timebase_UpCounter_SS_Set_EndValueSec
C:\Users\farid\AppData\Local\Temp/cc8MlAXR.s:1809   .text:000007dc Timebase_UpCounter_SS_Set_EndValueSubSec
C:\Users\farid\AppData\Local\Temp/cc8MlAXR.s:1844   .text:00000808 Timebase_UpCounter_SS_Get_TargetValue
C:\Users\farid\AppData\Local\Temp/cc8MlAXR.s:1887   .text:00000842 Timebase_UpCounter_SS_Set_TargetValue
C:\Users\farid\AppData\Local\Temp/cc8MlAXR.s:1922   .text:0000086e Timebase_UpCounter_SS_Get_TemporaryValue
C:\Users\farid\AppData\Local\Temp/cc8MlAXR.s:1965   .text:000008a8 Timebase_UpCounter_SS_Set_TemporaryValue
C:\Users\farid\AppData\Local\Temp/cc8MlAXR.s:2000   .text:000008d4 Timebase_UpCounter_SS_Get_PeriodValue
C:\Users\farid\AppData\Local\Temp/cc8MlAXR.s:2043   .text:0000090e Timebase_UpCounter_SS_Set_PeriodValue
C:\Users\farid\AppData\Local\Temp/cc8MlAXR.s:2078   .text:0000093a Timebase_UpCounter_SS_Get_Period_Flag
C:\Users\farid\AppData\Local\Temp/cc8MlAXR.s:2113   .text:00000964 Timebase_UpCounter_SS_Set_Period_Flag
C:\Users\farid\AppData\Local\Temp/cc8MlAXR.s:2149   .text:00000990 Timebase_UpCounter_SS_Clear_Period_Flag
C:\Users\farid\AppData\Local\Temp/cc8MlAXR.s:2185   .text:000009bc Timebase_UpCounter_SS_Reset
C:\Users\farid\AppData\Local\Temp/cc8MlAXR.s:2294   .text:00000a30 Timebase_UpCounter_SS_Clear_All_Flags
C:\Users\farid\AppData\Local\Temp/cc8MlAXR.s:2310   .text:00000a36 Timebase_UpCounter_SS_Start
C:\Users\farid\AppData\Local\Temp/cc8MlAXR.s:2359   .text:00000a6e Timebase_UpCounter_SS_Stop
C:\Users\farid\AppData\Local\Temp/cc8MlAXR.s:2408   .text:00000aa6 Timebase_UpCounter_SS_Set_Securely
C:\Users\farid\AppData\Local\Temp/cc8MlAXR.s:2557   .text:00000b48 Timebase_UpCounter_SS_Set_Forcefully
C:\Users\farid\AppData\Local\Temp/cc8MlAXR.s:2593   .text:00000b72 Timebase_UpCounter_SS_Update
C:\Users\farid\AppData\Local\Temp/cc8MlAXR.s:2833   .text:00000c92 Timebase_UpCounter_SS_Expired
C:\Users\farid\AppData\Local\Temp/cc8MlAXR.s:2875   .text:00000cc8 Timebase_UpCounter_SS_Expired_Event
C:\Users\farid\AppData\Local\Temp/cc8MlAXR.s:2926   .text:00000d06 Timebase_UpCounter_SS_Set_Period_Value_Securely
C:\Users\farid\AppData\Local\Temp/cc8MlAXR.s:3011   .text:00000d78 Timebase_UpCounter_SS_Get_Remaining_Period_Value
C:\Users\farid\AppData\Local\Temp/cc8MlAXR.s:3069   .text:00000dc4 Timebase_UpCounter_SS_Period_Value_Expired
C:\Users\farid\AppData\Local\Temp/cc8MlAXR.s:3163   .text:00000e44 Timebase_UpCounter_SS_Period_Value_Expired_Event
C:\Users\farid\AppData\Local\Temp/cc8MlAXR.s:3219   .text:00000e86 Timebase_UpCounter_SS_Update_All
C:\Users\farid\AppData\Local\Temp/cc8MlAXR.s:3236   .text:00000e8e Timebase_UpCounter_SS_Reset_All
C:\Users\farid\AppData\Local\Temp/cc8MlAXR.s:3253   .text:00000e96 Timebase_UpCounter_Get_Status
C:\Users\farid\AppData\Local\Temp/cc8MlAXR.s:3287   .text:00000ec0 Timebase_UpCounter_Set_Status
C:\Users\farid\AppData\Local\Temp/cc8MlAXR.s:3325   .text:00000ef0 Timebase_UpCounter_Get_Value
C:\Users\farid\AppData\Local\Temp/cc8MlAXR.s:3362   .text:00000f1e Timebase_UpCounter_Set_Value
C:\Users\farid\AppData\Local\Temp/cc8MlAXR.s:3398   .text:00000f4c Timebase_UpCounter_Get_EndValue
C:\Users\farid\AppData\Local\Temp/cc8MlAXR.s:3441   .text:00000f86 Timebase_UpCounter_Set_EndValue
C:\Users\farid\AppData\Local\Temp/cc8MlAXR.s:3476   .text:00000fb2 Timebase_UpCounter_Get_TargetValue
C:\Users\farid\AppData\Local\Temp/cc8MlAXR.s:3519   .text:00000fec Timebase_UpCounter_Set_TargetValue
C:\Users\farid\AppData\Local\Temp/cc8MlAXR.s:3554   .text:00001018 Timebase_UpCounter_Get_TemporaryValue
C:\Users\farid\AppData\Local\Temp/cc8MlAXR.s:3597   .text:00001052 Timebase_UpCounter_Set_TemporaryValue
C:\Users\farid\AppData\Local\Temp/cc8MlAXR.s:3632   .text:0000107e Timebase_UpCounter_Get_PeriodValue
C:\Users\farid\AppData\Local\Temp/cc8MlAXR.s:3670   .text:000010ae Timebase_UpCounter_Set_PeriodValue
C:\Users\farid\AppData\Local\Temp/cc8MlAXR.s:3707   .text:000010de Timebase_UpCounter_Get_Period_Flag
C:\Users\farid\AppData\Local\Temp/cc8MlAXR.s:3740   .text:00001106 Timebase_UpCounter_Set_Period_Flag
C:\Users\farid\AppData\Local\Temp/cc8MlAXR.s:3774   .text:00001130 Timebase_UpCounter_Clear_Period_Flag
C:\Users\farid\AppData\Local\Temp/cc8MlAXR.s:3808   .text:0000115a Timebase_UpCounter_Reset
C:\Users\farid\AppData\Local\Temp/cc8MlAXR.s:3901   .text:000011b8 Timebase_UpCounter_Clear_All_Flags
C:\Users\farid\AppData\Local\Temp/cc8MlAXR.s:3917   .text:000011be Timebase_UpCounter_Start
C:\Users\farid\AppData\Local\Temp/cc8MlAXR.s:3965   .text:000011f4 Timebase_UpCounter_Stop
C:\Users\farid\AppData\Local\Temp/cc8MlAXR.s:4013   .text:0000122a Timebase_UpCounter_Set_Securely
C:\Users\farid\AppData\Local\Temp/cc8MlAXR.s:4164   .text:000012c6 Timebase_UpCounter_Set_Forcefully
C:\Users\farid\AppData\Local\Temp/cc8MlAXR.s:4200   .text:000012f0 Timebase_UpCounter_Update
C:\Users\farid\AppData\Local\Temp/cc8MlAXR.s:4460   .text:00001418 Timebase_UpCounter_Expired
C:\Users\farid\AppData\Local\Temp/cc8MlAXR.s:4500   .text:0000144c Timebase_UpCounter_Expired_Event
C:\Users\farid\AppData\Local\Temp/cc8MlAXR.s:4549   .text:0000148a Timebase_UpCounter_Set_Period_Value_Securely
C:\Users\farid\AppData\Local\Temp/cc8MlAXR.s:4622   .text:000014e4 Timebase_UpCounter_Get_Remaining_Period_Value
C:\Users\farid\AppData\Local\Temp/cc8MlAXR.s:4685   .text:0000153a Timebase_UpCounter_Period_Value_Expired
C:\Users\farid\AppData\Local\Temp/cc8MlAXR.s:4782   .text:000015c0 Timebase_UpCounter_Period_Value_Expired_Event
C:\Users\farid\AppData\Local\Temp/cc8MlAXR.s:4834   .text:00001600 Timebase_UpCounter_Update_All
C:\Users\farid\AppData\Local\Temp/cc8MlAXR.s:4851   .text:00001608 Timebase_UpCounter_Reset_All
C:\Users\farid\AppData\Local\Temp/cc8MlAXR.s:4868   .text:00001610 Timebase_DownCounter_SS_Get_Status
C:\Users\farid\AppData\Local\Temp/cc8MlAXR.s:4902   .text:0000163a Timebase_DownCounter_SS_Set_Status
C:\Users\farid\AppData\Local\Temp/cc8MlAXR.s:4940   .text:0000166a Timebase_DownCounter_SS_Get_Value
C:\Users\farid\AppData\Local\Temp/cc8MlAXR.s:4976   .text:00001696 Timebase_DownCounter_SS_Set_Value
C:\Users\farid\AppData\Local\Temp/cc8MlAXR.s:5010   .text:000016c2 Timebase_DownCounter_SS_Get_EndValueSec
C:\Users\farid\AppData\Local\Temp/cc8MlAXR.s:5046   .text:000016ee Timebase_DownCounter_SS_Get_EndValueSubSec
C:\Users\farid\AppData\Local\Temp/cc8MlAXR.s:5082   .text:0000171a Timebase_DownCounter_SS_Set_EndValueSec
C:\Users\farid\AppData\Local\Temp/cc8MlAXR.s:5116   .text:00001746 Timebase_DownCounter_SS_Set_EndValueSubSec
C:\Users\farid\AppData\Local\Temp/cc8MlAXR.s:5150   .text:00001772 Timebase_DownCounter_SS_Get_PeriodValue
C:\Users\farid\AppData\Local\Temp/cc8MlAXR.s:5186   .text:0000179e Timebase_DownCounter_SS_Set_PeriodValue
C:\Users\farid\AppData\Local\Temp/cc8MlAXR.s:5243   .text:000017f2 Timebase_DownCounter_SS_Get_Period_Flag
C:\Users\farid\AppData\Local\Temp/cc8MlAXR.s:5276   .text:0000181a Timebase_DownCounter_SS_Set_Period_Flag
C:\Users\farid\AppData\Local\Temp/cc8MlAXR.s:5310   .text:00001844 Timebase_DownCounter_SS_Clear_Period_Flag
C:\Users\farid\AppData\Local\Temp/cc8MlAXR.s:5344   .text:0000186e Timebase_DownCounter_SS_Reset
C:\Users\farid\AppData\Local\Temp/cc8MlAXR.s:5415   .text:000018b4 Timebase_DownCounter_SS_Clear_All_Flags
C:\Users\farid\AppData\Local\Temp/cc8MlAXR.s:5490   .text:000018fa Timebase_DownCounter_SS_Start
C:\Users\farid\AppData\Local\Temp/cc8MlAXR.s:5538   .text:00001930 Timebase_DownCounter_SS_Stop
C:\Users\farid\AppData\Local\Temp/cc8MlAXR.s:5586   .text:00001966 Timebase_DownCounter_SS_Set_Securely
C:\Users\farid\AppData\Local\Temp/cc8MlAXR.s:5889   .text:00001aea Timebase_DownCounter_SS_Set_Forcefully
C:\Users\farid\AppData\Local\Temp/cc8MlAXR.s:5967   .text:00001b36 Timebase_DownCounter_SS_Update
C:\Users\farid\AppData\Local\Temp/cc8MlAXR.s:6419   .text:00001d48 Timebase_DownCounter_SS_Expired
C:\Users\farid\AppData\Local\Temp/cc8MlAXR.s:6459   .text:00001d7c Timebase_DownCounter_SS_Expired_Event
C:\Users\farid\AppData\Local\Temp/cc8MlAXR.s:6554   .text:00001dd6 Timebase_DownCounter_SS_Set_Period_Value_Securely
C:\Users\farid\AppData\Local\Temp/cc8MlAXR.s:6651   .text:00001e56 Timebase_DownCounter_SS_Get_Remaining_Period_Value
C:\Users\farid\AppData\Local\Temp/cc8MlAXR.s:6713   .text:00001eaa Timebase_DownCounter_SS_Period_Value_Expired
C:\Users\farid\AppData\Local\Temp/cc8MlAXR.s:6810   .text:00001f30 Timebase_DownCounter_SS_Period_Value_Expired_Event
C:\Users\farid\AppData\Local\Temp/cc8MlAXR.s:6862   .text:00001f70 Timebase_DownCounter_SS_Update_All
C:\Users\farid\AppData\Local\Temp/cc8MlAXR.s:6879   .text:00001f78 Timebase_DownCounter_SS_Reset_All
C:\Users\farid\AppData\Local\Temp/cc8MlAXR.s:6943   .text:00001fa8 Timebase_DownCounter_Get_Status
C:\Users\farid\AppData\Local\Temp/cc8MlAXR.s:6979   .text:00001fd6 Timebase_DownCounter_Set_Status
C:\Users\farid\AppData\Local\Temp/cc8MlAXR.s:7019   .text:0000200a Timebase_DownCounter_Get_Value
C:\Users\farid\AppData\Local\Temp/cc8MlAXR.s:7057   .text:0000203a Timebase_DownCounter_Set_Value
C:\Users\farid\AppData\Local\Temp/cc8MlAXR.s:7094   .text:0000206a Timebase_DownCounter_Get_EndValue
C:\Users\farid\AppData\Local\Temp/cc8MlAXR.s:7132   .text:0000209a Timebase_DownCounter_Set_EndValue
C:\Users\farid\AppData\Local\Temp/cc8MlAXR.s:7169   .text:000020ca Timebase_DownCounter_Get_PeriodValue
C:\Users\farid\AppData\Local\Temp/cc8MlAXR.s:7207   .text:000020fa Timebase_DownCounter_Set_PeriodValue
C:\Users\farid\AppData\Local\Temp/cc8MlAXR.s:7269   .text:00002156 Timebase_DownCounter_Get_Period_Flag
C:\Users\farid\AppData\Local\Temp/cc8MlAXR.s:7304   .text:00002182 Timebase_DownCounter_Set_Period_Flag
C:\Users\farid\AppData\Local\Temp/cc8MlAXR.s:7340   .text:000021b0 Timebase_DownCounter_Clear_Period_Flag
C:\Users\farid\AppData\Local\Temp/cc8MlAXR.s:7376   .text:000021de Timebase_DownCounter_Reset
C:\Users\farid\AppData\Local\Temp/cc8MlAXR.s:7439   .text:0000221e Timebase_DownCounter_Clear_All_Flags
C:\Users\farid\AppData\Local\Temp/cc8MlAXR.s:7506   .text:0000225e Timebase_DownCounter_Start
C:\Users\farid\AppData\Local\Temp/cc8MlAXR.s:7556   .text:00002298 Timebase_DownCounter_Stop
C:\Users\farid\AppData\Local\Temp/cc8MlAXR.s:7606   .text:000022d2 Timebase_DownCounter_Set_Securely
C:\Users\farid\AppData\Local\Temp/cc8MlAXR.s:7745   .text:0000236a Timebase_DownCounter_Set_Forcefully
C:\Users\farid\AppData\Local\Temp/cc8MlAXR.s:7819   .text:000023b8 Timebase_DownCounter_Update
C:\Users\farid\AppData\Local\Temp/cc8MlAXR.s:8045   .text:000024a8 Timebase_DownCounter_Expired
C:\Users\farid\AppData\Local\Temp/cc8MlAXR.s:8087   .text:000024e0 Timebase_DownCounter_Expired_Event
C:\Users\farid\AppData\Local\Temp/cc8MlAXR.s:8174   .text:00002534 Timebase_DownCounter_Set_Period_Value_Securely
C:\Users\farid\AppData\Local\Temp/cc8MlAXR.s:8273   .text:000025b8 Timebase_DownCounter_Get_Remaining_Period_Value
C:\Users\farid\AppData\Local\Temp/cc8MlAXR.s:8337   .text:00002610 Timebase_DownCounter_Period_Value_Expired
C:\Users\farid\AppData\Local\Temp/cc8MlAXR.s:8437   .text:0000269c Timebase_DownCounter_Period_Value_Expired_Event
C:\Users\farid\AppData\Local\Temp/cc8MlAXR.s:8491   .text:000026e0 Timebase_DownCounter_Update_All
C:\Users\farid\AppData\Local\Temp/cc8MlAXR.s:8508   .text:000026e8 Timebase_DownCounter_Reset_All
C:\Users\farid\AppData\Local\Temp/cc8MlAXR.s:8562   .text:0000270e Timebase_Reset
C:\Users\farid\AppData\Local\Temp/cc8MlAXR.s:8580   .text:0000271c Timebase_Init
C:\Users\farid\AppData\Local\Temp/cc8MlAXR.s:8607   .text:00002736 Timebase_Main_Loop_Executables
C:\Users\farid\AppData\Local\Temp/cc8MlAXR.s:8671   .text:000027a4 Timebase_ISR_Executables
C:\Users\farid\AppData\Local\Temp/cc8MlAXR.s:8729   .text:000027fa __vector_16

UNDEFINED SYMBOLS
__divmodsi4
__mulsi3
__udivmodhi4
__do_copy_data
__do_clear_bss
