   1               		.file	"timebase.c"
   2               	__SREG__ = 0x3f
   3               	__SP_H__ = 0x3e
   4               	__SP_L__ = 0x3d
   5               	__CCP__  = 0x34
   6               	__tmp_reg__ = 0
   7               	__zero_reg__ = 1
  15               	.Ltext0:
  16               	.global	Timebase_Struct_Init
  18               	Timebase_Struct_Init:
  19               	.LFB6:
  20               	.LM1:
  21               	/* prologue: function */
  22               	/* frame size = 0 */
  23               	.LM2:
  24 0000 80E0      		ldi r24,lo8(Timebase_type)
  25 0002 90E0      		ldi r25,hi8(Timebase_type)
  26 0004 9093 0000 		sts (Timebase)+1,r25
  27 0008 8093 0000 		sts Timebase,r24
  28               	.LM3:
  29 000c 1092 0000 		sts Timebase_type,__zero_reg__
  30               	.LM4:
  31 0010 8091 0000 		lds r24,Timebase_type
  32 0014 8460      		ori r24,lo8(4)
  33 0016 8093 0000 		sts Timebase_type,r24
  34               	.LM5:
  35 001a 8091 0000 		lds r24,Timebase_type
  36 001e 8770      		andi r24,lo8(7)
  37 0020 8093 0000 		sts Timebase_type,r24
  38               	.LM6:
  39 0024 81E0      		ldi r24,lo8(1)
  40 0026 90E0      		ldi r25,hi8(1)
  41 0028 9093 0000 		sts (Timebase_type+1)+1,r25
  42 002c 8093 0000 		sts Timebase_type+1,r24
  43               	.LM7:
  44 0030 1092 0000 		sts Timebase_type+3,__zero_reg__
  45               	.LM8:
  46 0034 1092 0000 		sts (Timebase_type+8)+1,__zero_reg__
  47 0038 1092 0000 		sts Timebase_type+8,__zero_reg__
  48               	.LM9:
  49 003c 1092 0000 		sts Timebase_type+10,__zero_reg__
  50 0040 1092 0000 		sts (Timebase_type+10)+1,__zero_reg__
  51 0044 1092 0000 		sts (Timebase_type+10)+2,__zero_reg__
  52 0048 1092 0000 		sts (Timebase_type+10)+3,__zero_reg__
  53               	.LM10:
  54 004c 1092 0000 		sts Timebase_type+4,__zero_reg__
  55 0050 1092 0000 		sts (Timebase_type+4)+1,__zero_reg__
  56 0054 1092 0000 		sts (Timebase_type+4)+2,__zero_reg__
  57 0058 1092 0000 		sts (Timebase_type+4)+3,__zero_reg__
  58               	.LM11:
  59 005c 1092 0000 		sts Timebase_type+14,__zero_reg__
  60 0060 1092 0000 		sts (Timebase_type+14)+1,__zero_reg__
  61 0064 1092 0000 		sts (Timebase_type+14)+2,__zero_reg__
  62 0068 1092 0000 		sts (Timebase_type+14)+3,__zero_reg__
  63               	.LM12:
  64 006c 1092 0000 		sts Timebase_type+18,__zero_reg__
  65 0070 1092 0000 		sts (Timebase_type+18)+1,__zero_reg__
  66 0074 1092 0000 		sts (Timebase_type+18)+2,__zero_reg__
  67 0078 1092 0000 		sts (Timebase_type+18)+3,__zero_reg__
  68               	.LM13:
  69 007c 1092 0000 		sts Timebase_type+22,__zero_reg__
  70               	.LM14:
  71 0080 1092 0000 		sts Timebase_type+23,__zero_reg__
  72 0084 A0E0      		ldi r26,lo8(Timebase_type+110)
  73 0086 B0E0      		ldi r27,hi8(Timebase_type+110)
  74 0088 80E0      		ldi r24,lo8(0)
  75 008a 90E0      		ldi r25,hi8(0)
  76               	.LBB326:
  77               	.LM15:
  78 008c 2DE0      		ldi r18,lo8(13)
  79 008e 30E0      		ldi r19,hi8(13)
  80               	.L2:
  81 0090 829F      		mul r24,r18
  82 0092 F001      		movw r30,r0
  83 0094 839F      		mul r24,r19
  84 0096 F00D      		add r31,r0
  85 0098 929F      		mul r25,r18
  86 009a F00D      		add r31,r0
  87 009c 1124      		clr r1
  88 009e E050      		subi r30,lo8(-(Timebase_type+109))
  89 00a0 F040      		sbci r31,hi8(-(Timebase_type+109))
  90 00a2 1082      		st Z,__zero_reg__
  91               	.LM16:
  92 00a4 1D92      		st X+,__zero_reg__
  93 00a6 1D92      		st X+,__zero_reg__
  94 00a8 1D92      		st X+,__zero_reg__
  95 00aa 1C92      		st X,__zero_reg__
  96 00ac 1397      		sbiw r26,3
  97               	.LM17:
  98 00ae 1496      		adiw r26,4
  99 00b0 1D92      		st X+,__zero_reg__
 100 00b2 1D92      		st X+,__zero_reg__
 101 00b4 1D92      		st X+,__zero_reg__
 102 00b6 1C92      		st X,__zero_reg__
 103 00b8 1797      		sbiw r26,4+3
 104               	.LM18:
 105 00ba 1896      		adiw r26,8
 106 00bc 1D92      		st X+,__zero_reg__
 107 00be 1D92      		st X+,__zero_reg__
 108 00c0 1D92      		st X+,__zero_reg__
 109 00c2 1C92      		st X,__zero_reg__
 110 00c4 1B97      		sbiw r26,8+3
 111 00c6 0196      		adiw r24,1
 112 00c8 1D96      		adiw r26,13
 113               	.LM19:
 114 00ca 8530      		cpi r24,5
 115 00cc 9105      		cpc r25,__zero_reg__
 116 00ce 01F4      		brne .L2
 117 00d0 A0E0      		ldi r26,lo8(Timebase_type+25)
 118 00d2 B0E0      		ldi r27,hi8(Timebase_type+25)
 119 00d4 80E0      		ldi r24,lo8(0)
 120 00d6 90E0      		ldi r25,hi8(0)
 121               	.L3:
 122               	.LBE326:
 123               	.LBB327:
 124               	.LM20:
 125 00d8 FC01      		movw r30,r24
 126 00da 24E0      		ldi r18,4
 127 00dc EE0F      	1:	lsl r30
 128 00de FF1F      		rol r31
 129 00e0 2A95      		dec r18
 130 00e2 01F4      		brne 1b
 131 00e4 E80F      		add r30,r24
 132 00e6 F91F      		adc r31,r25
 133 00e8 E050      		subi r30,lo8(-(Timebase_type))
 134 00ea F040      		sbci r31,hi8(-(Timebase_type))
 135 00ec 108E      		std Z+24,__zero_reg__
 136               	.LM21:
 137 00ee 1D92      		st X+,__zero_reg__
 138 00f0 1D92      		st X+,__zero_reg__
 139 00f2 1D92      		st X+,__zero_reg__
 140 00f4 1C92      		st X,__zero_reg__
 141 00f6 1397      		sbiw r26,3
 142               	.LM22:
 143 00f8 1496      		adiw r26,4
 144 00fa 1D92      		st X+,__zero_reg__
 145 00fc 1D92      		st X+,__zero_reg__
 146 00fe 1D92      		st X+,__zero_reg__
 147 0100 1C92      		st X,__zero_reg__
 148 0102 1797      		sbiw r26,4+3
 149               	.LM23:
 150 0104 1896      		adiw r26,8
 151 0106 1D92      		st X+,__zero_reg__
 152 0108 1D92      		st X+,__zero_reg__
 153 010a 1D92      		st X+,__zero_reg__
 154 010c 1C92      		st X,__zero_reg__
 155 010e 1B97      		sbiw r26,8+3
 156               	.LM24:
 157 0110 1C96      		adiw r26,12
 158 0112 1D92      		st X+,__zero_reg__
 159 0114 1D92      		st X+,__zero_reg__
 160 0116 1D92      		st X+,__zero_reg__
 161 0118 1C92      		st X,__zero_reg__
 162 011a 1F97      		sbiw r26,12+3
 163 011c 0196      		adiw r24,1
 164 011e 5196      		adiw r26,17
 165               	.LM25:
 166 0120 8530      		cpi r24,5
 167 0122 9105      		cpc r25,__zero_reg__
 168 0124 01F4      		brne .L3
 169               	/* epilogue start */
 170               	.LBE327:
 171               	.LM26:
 172 0126 0895      		ret
 173               	.LFE6:
 175               	.global	Timebase_Timer_Config
 177               	Timebase_Timer_Config:
 178               	.LFB7:
 179               	.LM27:
 180               	.LVL0:
 181 0128 7F92      		push r7
 182 012a 8F92      		push r8
 183 012c 9F92      		push r9
 184 012e AF92      		push r10
 185 0130 BF92      		push r11
 186 0132 CF92      		push r12
 187 0134 DF92      		push r13
 188 0136 EF92      		push r14
 189 0138 FF92      		push r15
 190 013a 0F93      		push r16
 191 013c 1F93      		push r17
 192 013e DF93      		push r29
 193 0140 CF93      		push r28
 194 0142 CDB7      		in r28,__SP_L__
 195 0144 DEB7      		in r29,__SP_H__
 196 0146 2A97      		sbiw r28,10
 197 0148 0FB6      		in __tmp_reg__,__SREG__
 198 014a F894      		cli
 199 014c DEBF      		out __SP_H__,r29
 200 014e 0FBE      		out __SREG__,__tmp_reg__
 201 0150 CDBF      		out __SP_L__,r28
 202               	/* prologue: function */
 203               	/* frame size = 10 */
 204 0152 8C01      		movw r16,r24
 205               	.LM28:
 206 0154 C090 0000 		lds r12,Timebase
 207 0158 D090 0000 		lds r13,(Timebase)+1
 208 015c F601      		movw r30,r12
 209 015e 8081      		ld r24,Z
 210               	.LVL1:
 211 0160 80FF      		sbrs r24,0
 212 0162 00C0      		rjmp .L8
 213               	.LBB328:
 214               	.LM29:
 215 0164 0130      		cpi r16,1
 216 0166 1105      		cpc r17,__zero_reg__
 217 0168 01F4      		brne .L9
 218 016a 96E0      		ldi r25,lo8(6)
 219               	.LVL2:
 220 016c 00C0      		rjmp .L10
 221               	.LVL3:
 222               	.L9:
 223               	.LM30:
 224 016e 0230      		cpi r16,2
 225 0170 1105      		cpc r17,__zero_reg__
 226 0172 01F4      		brne .L11
 227 0174 95E0      		ldi r25,lo8(5)
 228               	.LVL4:
 229 0176 00C0      		rjmp .L10
 230               	.LVL5:
 231               	.L11:
 232               	.LM31:
 233 0178 0430      		cpi r16,4
 234 017a 1105      		cpc r17,__zero_reg__
 235 017c 01F4      		brne .L12
 236 017e 94E0      		ldi r25,lo8(4)
 237               	.LVL6:
 238 0180 00C0      		rjmp .L10
 239               	.LVL7:
 240               	.L12:
 241               	.LM32:
 242 0182 0830      		cpi r16,8
 243 0184 1105      		cpc r17,__zero_reg__
 244 0186 01F4      		brne .L13
 245 0188 93E0      		ldi r25,lo8(3)
 246               	.LVL8:
 247 018a 00C0      		rjmp .L10
 248               	.LVL9:
 249               	.L13:
 250               	.LM33:
 251 018c 0031      		cpi r16,16
 252 018e 1105      		cpc r17,__zero_reg__
 253 0190 01F4      		brne .L14
 254 0192 92E0      		ldi r25,lo8(2)
 255               	.LVL10:
 256 0194 00C0      		rjmp .L10
 257               	.LVL11:
 258               	.L14:
 259 0196 90E0      		ldi r25,lo8(0)
 260               	.LVL12:
 261 0198 0032      		cpi r16,32
 262 019a 1105      		cpc r17,__zero_reg__
 263 019c 01F4      		brne .L10
 264 019e 91E0      		ldi r25,lo8(1)
 265               	.L10:
 266               	.LM34:
 267               	/* #APP */
 268               	 ;  247 "timebase.c" 1
 269 01a0 F894      		cli
 270               	 ;  0 "" 2
 271               	.LM35:
 272               	/* #NOAPP */
 273 01a2 84B7      		in r24,84-32
 274 01a4 877F      		andi r24,lo8(-9)
 275 01a6 84BF      		out 84-32,r24
 276               	.LM36:
 277 01a8 8091 6000 		lds r24,96
 278 01ac 8068      		ori r24,lo8(-128)
 279 01ae 8093 6000 		sts 96,r24
 280               	.LM37:
 281 01b2 8091 6000 		lds r24,96
 282 01b6 8861      		ori r24,lo8(24)
 283 01b8 8093 6000 		sts 96,r24
 284               	.LM38:
 285 01bc 9064      		ori r25,lo8(64)
 286 01be 9093 6000 		sts 96,r25
 287               	.LM39:
 288               	/* #APP */
 289               	 ;  252 "timebase.c" 1
 290 01c2 7894      		sei
 291               	 ;  0 "" 2
 292               	/* #NOAPP */
 293 01c4 00C0      		rjmp .L16
 294               	.LVL13:
 295               	.L8:
 296               	.LBE328:
 297               	.LM40:
 298 01c6 81FD      		sbrc r24,1
 299 01c8 00C0      		rjmp .L16
 300               	.LM41:
 301 01ca 82FF      		sbrs r24,2
 302 01cc 00C0      		rjmp .L16
 303               	.LBB329:
 304               	.LM42:
 305 01ce DE01      		movw r26,r28
 306 01d0 1196      		adiw r26,1
 307 01d2 E0E0      		ldi r30,lo8(C.2.1341)
 308 01d4 F0E0      		ldi r31,hi8(C.2.1341)
 309 01d6 8AE0      		ldi r24,lo8(10)
 310               	.L17:
 311 01d8 0190      		ld r0,Z+
 312 01da 0D92      		st X+,r0
 313 01dc 8150      		subi r24,lo8(-(-1))
 314 01de 01F4      		brne .L17
 315               	.LM43:
 316 01e0 9801      		movw r18,r16
 317 01e2 40E0      		ldi r20,lo8(0)
 318 01e4 50E0      		ldi r21,hi8(0)
 319               	.LVL14:
 320 01e6 60E0      		ldi r22,lo8(12000000)
 321 01e8 7BE1      		ldi r23,hi8(12000000)
 322 01ea 87EB      		ldi r24,hlo8(12000000)
 323 01ec 90E0      		ldi r25,hhi8(12000000)
 324 01ee 0E94 0000 		call __divmodsi4
 325 01f2 722E      		mov r7,r18
 326 01f4 832E      		mov r8,r19
 327 01f6 942E      		mov r9,r20
 328               	.LVL15:
 329 01f8 E52E      		mov r14,r21
 330 01fa 5E01      		movw r10,r28
 331 01fc 0894      		sec
 332 01fe A11C      		adc r10,__zero_reg__
 333 0200 B11C      		adc r11,__zero_reg__
 334 0202 C901      		movw r24,r18
 335 0204 DA01      		movw r26,r20
 336 0206 9C01      		movw r18,r24
 337 0208 AD01      		movw r20,r26
 338               	.LVL16:
 339 020a FF24      		clr r15
 340               	.LVL17:
 341 020c 00C0      		rjmp .L18
 342               	.LVL18:
 343               	.L20:
 344               	.LM44:
 345 020e F501      		movw r30,r10
 346 0210 2191      		ld r18,Z+
 347 0212 3191      		ld r19,Z+
 348               	.LVL19:
 349 0214 5F01      		movw r10,r30
 350 0216 40E0      		ldi r20,lo8(0)
 351 0218 50E0      		ldi r21,hi8(0)
 352 021a 672D      		mov r22,r7
 353 021c 782D      		mov r23,r8
 354 021e 892D      		mov r24,r9
 355               	.LVL20:
 356 0220 9E2D      		mov r25,r14
 357 0222 0E94 0000 		call __divmodsi4
 358 0226 C901      		movw r24,r18
 359 0228 DA01      		movw r26,r20
 360 022a 9C01      		movw r18,r24
 361 022c AD01      		movw r20,r26
 362               	.LVL21:
 363               	.LM45:
 364 022e F394      		inc r15
 365               	.LM46:
 366 0230 F5E0      		ldi r31,lo8(5)
 367 0232 FF16      		cp r15,r31
 368 0234 01F0      		breq .L19
 369               	.LVL22:
 370               	.L18:
 371               	.LM47:
 372 0236 2F3F      		cpi r18,lo8(255)
 373 0238 3105      		cpc r19,__zero_reg__
 374 023a 4105      		cpc r20,__zero_reg__
 375 023c 5105      		cpc r21,__zero_reg__
 376 023e 01F0      		breq .+2
 377 0240 04F4      		brge .L20
 378               	.L19:
 379               	.LM48:
 380 0242 8F2D      		mov r24,r15
 381 0244 8150      		subi r24,lo8(-(-1))
 382               	.LVL23:
 383               	.LM49:
 384 0246 14BC      		out 68-32,__zero_reg__
 385               	.LM50:
 386 0248 15BC      		out 69-32,__zero_reg__
 387               	.LM51:
 388 024a 1092 6E00 		sts 110,__zero_reg__
 389               	.LM52:
 390 024e 15BA      		out 53-32,__zero_reg__
 391               	.LM53:
 392 0250 17BC      		out 71-32,__zero_reg__
 393               	.LM54:
 394 0252 18BC      		out 72-32,__zero_reg__
 395               	.LM55:
 396 0254 16BC      		out 70-32,__zero_reg__
 397               	.LM56:
 398 0256 17BC      		out 71-32,__zero_reg__
 399               	.LM57:
 400 0258 8823      		tst r24
 401 025a 01F4      		brne .L21
 402               	.LM58:
 403 025c 81E0      		ldi r24,lo8(1)
 404               	.LVL24:
 405 025e 00C0      		rjmp .L28
 406               	.LVL25:
 407               	.L21:
 408               	.LM59:
 409 0260 8130      		cpi r24,lo8(1)
 410 0262 01F4      		brne .L23
 411               	.LM60:
 412 0264 82E0      		ldi r24,lo8(2)
 413               	.LVL26:
 414 0266 00C0      		rjmp .L28
 415               	.LVL27:
 416               	.L23:
 417               	.LM61:
 418 0268 8230      		cpi r24,lo8(2)
 419 026a 01F4      		brne .L24
 420               	.LM62:
 421 026c 83E0      		ldi r24,lo8(3)
 422               	.LVL28:
 423 026e 00C0      		rjmp .L28
 424               	.LVL29:
 425               	.L24:
 426               	.LM63:
 427 0270 8330      		cpi r24,lo8(3)
 428 0272 01F4      		brne .L25
 429               	.LM64:
 430 0274 84E0      		ldi r24,lo8(4)
 431               	.LVL30:
 432 0276 00C0      		rjmp .L28
 433               	.LVL31:
 434               	.L25:
 435               	.LM65:
 436 0278 8430      		cpi r24,lo8(4)
 437 027a 01F4      		brne .L22
 438               	.LM66:
 439 027c 85E0      		ldi r24,lo8(5)
 440               	.LVL32:
 441               	.L28:
 442 027e 85BD      		out 69-32,r24
 443               	.LVL33:
 444               	.L22:
 445               	.LM67:
 446 0280 822F      		mov r24,r18
 447               	.LVL34:
 448 0282 8095      		com r24
 449 0284 F601      		movw r30,r12
 450 0286 8383      		std Z+3,r24
 451               	.LM68:
 452 0288 8381      		ldd r24,Z+3
 453 028a 86BD      		out 70-32,r24
 454               	.LM69:
 455 028c 81E0      		ldi r24,lo8(1)
 456 028e 8093 6E00 		sts 110,r24
 457               	.LM70:
 458               	/* #APP */
 459               	 ;  300 "timebase.c" 1
 460 0292 7894      		sei
 461               	 ;  0 "" 2
 462               	.LVL35:
 463               	/* #NOAPP */
 464               	.L16:
 465               	.LBE329:
 466               	.LM71:
 467 0294 F601      		movw r30,r12
 468 0296 1283      		std Z+2,r17
 469 0298 0183      		std Z+1,r16
 470               	/* epilogue start */
 471               	.LM72:
 472 029a 2A96      		adiw r28,10
 473 029c 0FB6      		in __tmp_reg__,__SREG__
 474 029e F894      		cli
 475 02a0 DEBF      		out __SP_H__,r29
 476 02a2 0FBE      		out __SREG__,__tmp_reg__
 477 02a4 CDBF      		out __SP_L__,r28
 478 02a6 CF91      		pop r28
 479 02a8 DF91      		pop r29
 480 02aa 1F91      		pop r17
 481 02ac 0F91      		pop r16
 482               	.LVL36:
 483 02ae FF90      		pop r15
 484 02b0 EF90      		pop r14
 485 02b2 DF90      		pop r13
 486 02b4 CF90      		pop r12
 487 02b6 BF90      		pop r11
 488 02b8 AF90      		pop r10
 489 02ba 9F90      		pop r9
 490 02bc 8F90      		pop r8
 491 02be 7F90      		pop r7
 492 02c0 0895      		ret
 493               	.LFE7:
 495               	.global	Timebase_Token_Executing
 497               	Timebase_Token_Executing:
 498               	.LFB8:
 499               	.LM73:
 500               	/* prologue: function */
 501               	/* frame size = 0 */
 502               	.LM74:
 503 02c2 E091 0000 		lds r30,Timebase
 504 02c6 F091 0000 		lds r31,(Timebase)+1
 505 02ca 8789      		ldd r24,Z+23
 506               	/* epilogue start */
 507               	.LM75:
 508 02cc 0895      		ret
 509               	.LFE8:
 511               	.global	Timebase_Token_Add
 513               	Timebase_Token_Add:
 514               	.LFB9:
 515               	.LM76:
 516               	/* prologue: function */
 517               	/* frame size = 0 */
 518               	.LBB330:
 519               	.LBB331:
 520               	.LM77:
 521 02ce E091 0000 		lds r30,Timebase
 522 02d2 F091 0000 		lds r31,(Timebase)+1
 523 02d6 8789      		ldd r24,Z+23
 524               	.LBE331:
 525               	.LBE330:
 526               	.LM78:
 527 02d8 8F33      		cpi r24,lo8(63)
 528 02da 00F4      		brsh .L33
 529               	.LM79:
 530 02dc 8789      		ldd r24,Z+23
 531 02de 8F5F      		subi r24,lo8(-(1))
 532 02e0 878B      		std Z+23,r24
 533               	.L33:
 534 02e2 0895      		ret
 535               	.LFE9:
 537               	.global	Timebase_Token_Remove
 539               	Timebase_Token_Remove:
 540               	.LFB10:
 541               	.LM80:
 542               	/* prologue: function */
 543               	/* frame size = 0 */
 544               	.LBB332:
 545               	.LBB333:
 546               	.LM81:
 547 02e4 E091 0000 		lds r30,Timebase
 548 02e8 F091 0000 		lds r31,(Timebase)+1
 549 02ec 8789      		ldd r24,Z+23
 550               	.LBE333:
 551               	.LBE332:
 552               	.LM82:
 553 02ee 8823      		tst r24
 554 02f0 01F0      		breq .L36
 555               	.LM83:
 556 02f2 8789      		ldd r24,Z+23
 557 02f4 8150      		subi r24,lo8(-(-1))
 558 02f6 878B      		std Z+23,r24
 559               	.L36:
 560 02f8 0895      		ret
 561               	.LFE10:
 563               	.global	Timebase_Token_Remove_All
 565               	Timebase_Token_Remove_All:
 566               	.LFB11:
 567               	.LM84:
 568               	/* prologue: function */
 569               	/* frame size = 0 */
 570               	.LM85:
 571 02fa E091 0000 		lds r30,Timebase
 572 02fe F091 0000 		lds r31,(Timebase)+1
 573 0302 178A      		std Z+23,__zero_reg__
 574               	/* epilogue start */
 575               	.LM86:
 576 0304 0895      		ret
 577               	.LFE11:
 579               	.global	Timebase_Timer_Get_SubSeconds
 581               	Timebase_Timer_Get_SubSeconds:
 582               	.LFB12:
 583               	.LM87:
 584               	/* prologue: function */
 585               	/* frame size = 0 */
 586               	.LM88:
 587 0306 E091 0000 		lds r30,Timebase
 588 030a F091 0000 		lds r31,(Timebase)+1
 589 030e 2085      		ldd r18,Z+8
 590 0310 3185      		ldd r19,Z+9
 591               	.LM89:
 592 0312 C901      		movw r24,r18
 593               	/* epilogue start */
 594 0314 0895      		ret
 595               	.LFE12:
 597               	.global	Timebase_Timer_Get_Seconds
 599               	Timebase_Timer_Get_Seconds:
 600               	.LFB13:
 601               	.LM90:
 602               	/* prologue: function */
 603               	/* frame size = 0 */
 604               	.LM91:
 605 0316 E091 0000 		lds r30,Timebase
 606 031a F091 0000 		lds r31,(Timebase)+1
 607 031e 2285      		ldd r18,Z+10
 608 0320 3385      		ldd r19,Z+11
 609 0322 4485      		ldd r20,Z+12
 610 0324 5585      		ldd r21,Z+13
 611               	.LM92:
 612 0326 B901      		movw r22,r18
 613 0328 CA01      		movw r24,r20
 614               	/* epilogue start */
 615 032a 0895      		ret
 616               	.LFE13:
 618               	.global	Timebase_Timer_Set_SubSeconds
 620               	Timebase_Timer_Set_SubSeconds:
 621               	.LFB14:
 622               	.LM93:
 623               	.LVL37:
 624               	/* prologue: function */
 625               	/* frame size = 0 */
 626               	.LM94:
 627 032c E091 0000 		lds r30,Timebase
 628 0330 F091 0000 		lds r31,(Timebase)+1
 629 0334 9187      		std Z+9,r25
 630 0336 8087      		std Z+8,r24
 631               	/* epilogue start */
 632               	.LM95:
 633 0338 0895      		ret
 634               	.LFE14:
 636               	.global	Timebase_Timer_Set_Seconds
 638               	Timebase_Timer_Set_Seconds:
 639               	.LFB15:
 640               	.LM96:
 641               	.LVL38:
 642               	/* prologue: function */
 643               	/* frame size = 0 */
 644               	.LM97:
 645 033a E091 0000 		lds r30,Timebase
 646 033e F091 0000 		lds r31,(Timebase)+1
 647 0342 6287      		std Z+10,r22
 648 0344 7387      		std Z+11,r23
 649 0346 8487      		std Z+12,r24
 650 0348 9587      		std Z+13,r25
 651               	/* epilogue start */
 652               	.LM98:
 653 034a 0895      		ret
 654               	.LFE15:
 656               	.global	Timebase_Timer_Delay_SubSeconds
 658               	Timebase_Timer_Delay_SubSeconds:
 659               	.LFB16:
 660               	.LM99:
 661               	.LVL39:
 662               	/* prologue: function */
 663               	/* frame size = 0 */
 664 034c 9C01      		movw r18,r24
 665               	.LBB334:
 666               	.LBB335:
 667               	.LBB336:
 668               	.LBB337:
 669               	.LM100:
 670 034e E091 0000 		lds r30,Timebase
 671 0352 F091 0000 		lds r31,(Timebase)+1
 672 0356 8789      		ldd r24,Z+23
 673               	.LVL40:
 674               	.LBE337:
 675               	.LBE336:
 676               	.LM101:
 677 0358 8F33      		cpi r24,lo8(63)
 678 035a 00F4      		brsh .L48
 679               	.LM102:
 680 035c 8789      		ldd r24,Z+23
 681 035e 8F5F      		subi r24,lo8(-(1))
 682 0360 878B      		std Z+23,r24
 683               	.L48:
 684               	.LBE335:
 685               	.LBE334:
 686               	.LBB338:
 687               	.LBB339:
 688               	.LM103:
 689 0362 8085      		ldd r24,Z+8
 690 0364 9185      		ldd r25,Z+9
 691               	.LBE339:
 692               	.LBE338:
 693               	.LM104:
 694 0366 A0E0      		ldi r26,lo8(0)
 695 0368 B0E0      		ldi r27,hi8(0)
 696               	.LVL41:
 697               	.LM105:
 698 036a 40E0      		ldi r20,lo8(0)
 699 036c 50E0      		ldi r21,hi8(0)
 700               	.LVL42:
 701 036e 280F      		add r18,r24
 702 0370 391F      		adc r19,r25
 703 0372 4A1F      		adc r20,r26
 704 0374 5B1F      		adc r21,r27
 705               	.LVL43:
 706               	.L49:
 707               	.LBB340:
 708               	.LBB341:
 709               	.LM106:
 710 0376 8085      		ldd r24,Z+8
 711 0378 9185      		ldd r25,Z+9
 712               	.LBE341:
 713               	.LBE340:
 714               	.LM107:
 715 037a A0E0      		ldi r26,lo8(0)
 716 037c B0E0      		ldi r27,hi8(0)
 717 037e 8217      		cp r24,r18
 718 0380 9307      		cpc r25,r19
 719 0382 A407      		cpc r26,r20
 720 0384 B507      		cpc r27,r21
 721 0386 04F0      		brlt .L49
 722               	.LBB342:
 723               	.LBB343:
 724               	.LBB344:
 725               	.LBB345:
 726               	.LM108:
 727 0388 8789      		ldd r24,Z+23
 728               	.LBE345:
 729               	.LBE344:
 730               	.LM109:
 731 038a 8823      		tst r24
 732 038c 01F0      		breq .L51
 733               	.LM110:
 734 038e 8789      		ldd r24,Z+23
 735 0390 8150      		subi r24,lo8(-(-1))
 736 0392 878B      		std Z+23,r24
 737               	.L51:
 738 0394 0895      		ret
 739               	.LBE343:
 740               	.LBE342:
 741               	.LFE16:
 743               	.global	Timebase_Timer_Await_SubSeconds
 745               	Timebase_Timer_Await_SubSeconds:
 746               	.LFB17:
 747               	.LM111:
 748               	.LVL44:
 749               	/* prologue: function */
 750               	/* frame size = 0 */
 751 0396 BC01      		movw r22,r24
 752               	.LBB346:
 753               	.LBB347:
 754               	.LM112:
 755 0398 E091 0000 		lds r30,Timebase
 756 039c F091 0000 		lds r31,(Timebase)+1
 757               	.LVL45:
 758               	.L54:
 759 03a0 8085      		ldd r24,Z+8
 760 03a2 9185      		ldd r25,Z+9
 761               	.LBE347:
 762               	.LBE346:
 763               	.LM113:
 764 03a4 2481      		ldd r18,Z+4
 765 03a6 3581      		ldd r19,Z+5
 766 03a8 4681      		ldd r20,Z+6
 767 03aa 5781      		ldd r21,Z+7
 768 03ac A0E0      		ldi r26,lo8(0)
 769 03ae B0E0      		ldi r27,hi8(0)
 770 03b0 8217      		cp r24,r18
 771 03b2 9307      		cpc r25,r19
 772 03b4 A407      		cpc r26,r20
 773 03b6 B507      		cpc r27,r21
 774 03b8 01F4      		brne .L54
 775               	.LBB348:
 776               	.LBB349:
 777               	.LM114:
 778 03ba 8085      		ldd r24,Z+8
 779 03bc 9185      		ldd r25,Z+9
 780               	.LBE349:
 781               	.LBE348:
 782               	.LM115:
 783 03be 860F      		add r24,r22
 784 03c0 971F      		adc r25,r23
 785 03c2 A0E0      		ldi r26,lo8(0)
 786 03c4 B0E0      		ldi r27,hi8(0)
 787 03c6 8483      		std Z+4,r24
 788 03c8 9583      		std Z+5,r25
 789 03ca A683      		std Z+6,r26
 790 03cc B783      		std Z+7,r27
 791               	.LM116:
 792 03ce 2481      		ldd r18,Z+4
 793 03d0 3581      		ldd r19,Z+5
 794 03d2 4681      		ldd r20,Z+6
 795 03d4 5781      		ldd r21,Z+7
 796 03d6 8181      		ldd r24,Z+1
 797 03d8 9281      		ldd r25,Z+2
 798 03da A0E0      		ldi r26,lo8(0)
 799 03dc B0E0      		ldi r27,hi8(0)
 800 03de 2817      		cp r18,r24
 801 03e0 3907      		cpc r19,r25
 802 03e2 4A07      		cpc r20,r26
 803 03e4 5B07      		cpc r21,r27
 804 03e6 04F0      		brlt .L56
 805               	.LM117:
 806 03e8 2481      		ldd r18,Z+4
 807 03ea 3581      		ldd r19,Z+5
 808 03ec 4681      		ldd r20,Z+6
 809 03ee 5781      		ldd r21,Z+7
 810 03f0 8181      		ldd r24,Z+1
 811 03f2 9281      		ldd r25,Z+2
 812 03f4 A0E0      		ldi r26,lo8(0)
 813 03f6 B0E0      		ldi r27,hi8(0)
 814 03f8 281B      		sub r18,r24
 815 03fa 390B      		sbc r19,r25
 816 03fc 4A0B      		sbc r20,r26
 817 03fe 5B0B      		sbc r21,r27
 818 0400 2483      		std Z+4,r18
 819 0402 3583      		std Z+5,r19
 820 0404 4683      		std Z+6,r20
 821 0406 5783      		std Z+7,r21
 822               	.L56:
 823 0408 0895      		ret
 824               	.LFE17:
 826               	.global	Timebase_Timer_Delay_Seconds
 828               	Timebase_Timer_Delay_Seconds:
 829               	.LFB18:
 830               	.LM118:
 831               	.LVL46:
 832 040a EF92      		push r14
 833 040c FF92      		push r15
 834 040e 0F93      		push r16
 835 0410 1F93      		push r17
 836               	/* prologue: function */
 837               	/* frame size = 0 */
 838               	.LBB350:
 839               	.LBB351:
 840               	.LM119:
 841 0412 E091 0000 		lds r30,Timebase
 842 0416 F091 0000 		lds r31,(Timebase)+1
 843 041a 2285      		ldd r18,Z+10
 844 041c 3385      		ldd r19,Z+11
 845 041e 4485      		ldd r20,Z+12
 846 0420 5585      		ldd r21,Z+13
 847               	.LBE351:
 848               	.LBE350:
 849               	.LM120:
 850 0422 7C01      		movw r14,r24
 851               	.LVL47:
 852 0424 00E0      		ldi r16,lo8(0)
 853 0426 10E0      		ldi r17,hi8(0)
 854               	.LVL48:
 855 0428 E20E      		add r14,r18
 856 042a F31E      		adc r15,r19
 857 042c 041F      		adc r16,r20
 858 042e 151F      		adc r17,r21
 859               	.LVL49:
 860               	.L59:
 861               	.LBB352:
 862               	.LBB353:
 863               	.LM121:
 864 0430 8285      		ldd r24,Z+10
 865 0432 9385      		ldd r25,Z+11
 866 0434 A485      		ldd r26,Z+12
 867 0436 B585      		ldd r27,Z+13
 868               	.LVL50:
 869               	.LBE353:
 870               	.LBE352:
 871               	.LM122:
 872 0438 8E15      		cp r24,r14
 873 043a 9F05      		cpc r25,r15
 874 043c A007      		cpc r26,r16
 875 043e B107      		cpc r27,r17
 876 0440 04F0      		brlt .L59
 877               	/* epilogue start */
 878               	.LM123:
 879 0442 1F91      		pop r17
 880 0444 0F91      		pop r16
 881               	.LVL51:
 882 0446 FF90      		pop r15
 883 0448 EF90      		pop r14
 884               	.LVL52:
 885 044a 0895      		ret
 886               	.LFE18:
 888               	.global	Timebase_Window_Timer_Reset
 890               	Timebase_Window_Timer_Reset:
 891               	.LFB19:
 892               	.LM124:
 893               	/* prologue: function */
 894               	/* frame size = 0 */
 895               	.LM125:
 896 044c E091 0000 		lds r30,Timebase
 897 0450 F091 0000 		lds r31,(Timebase)+1
 898 0454 1686      		std Z+14,__zero_reg__
 899 0456 1786      		std Z+15,__zero_reg__
 900 0458 108A      		std Z+16,__zero_reg__
 901 045a 118A      		std Z+17,__zero_reg__
 902               	.LM126:
 903 045c 128A      		std Z+18,__zero_reg__
 904 045e 138A      		std Z+19,__zero_reg__
 905 0460 148A      		std Z+20,__zero_reg__
 906 0462 158A      		std Z+21,__zero_reg__
 907               	.LM127:
 908 0464 168A      		std Z+22,__zero_reg__
 909               	/* epilogue start */
 910               	.LM128:
 911 0466 0895      		ret
 912               	.LFE19:
 914               	.global	Timebase_Window_Timer_Start
 916               	Timebase_Window_Timer_Start:
 917               	.LFB20:
 918               	.LM129:
 919               	/* prologue: function */
 920               	/* frame size = 0 */
 921               	.LM130:
 922 0468 E091 0000 		lds r30,Timebase
 923 046c F091 0000 		lds r31,(Timebase)+1
 924 0470 8689      		ldd r24,Z+22
 925 0472 8823      		tst r24
 926 0474 01F4      		brne .L66
 927               	.LBB354:
 928               	.LBB355:
 929               	.LM131:
 930 0476 8285      		ldd r24,Z+10
 931 0478 9385      		ldd r25,Z+11
 932 047a A485      		ldd r26,Z+12
 933 047c B585      		ldd r27,Z+13
 934               	.LBE355:
 935               	.LBE354:
 936               	.LM132:
 937 047e 8687      		std Z+14,r24
 938 0480 9787      		std Z+15,r25
 939 0482 A08B      		std Z+16,r26
 940 0484 B18B      		std Z+17,r27
 941               	.LBB356:
 942               	.LBB357:
 943               	.LM133:
 944 0486 8085      		ldd r24,Z+8
 945 0488 9185      		ldd r25,Z+9
 946               	.LBE357:
 947               	.LBE356:
 948               	.LM134:
 949 048a A0E0      		ldi r26,lo8(0)
 950 048c B0E0      		ldi r27,hi8(0)
 951 048e 828B      		std Z+18,r24
 952 0490 938B      		std Z+19,r25
 953 0492 A48B      		std Z+20,r26
 954 0494 B58B      		std Z+21,r27
 955               	.LM135:
 956 0496 81E0      		ldi r24,lo8(1)
 957 0498 868B      		std Z+22,r24
 958               	.L66:
 959 049a 0895      		ret
 960               	.LFE20:
 962               	.global	Timebase_Window_Timer_Get_Interval
 964               	Timebase_Window_Timer_Get_Interval:
 965               	.LFB21:
 966               	.LM136:
 967 049c EF92      		push r14
 968 049e FF92      		push r15
 969 04a0 0F93      		push r16
 970 04a2 1F93      		push r17
 971 04a4 CF93      		push r28
 972 04a6 DF93      		push r29
 973               	/* prologue: function */
 974               	/* frame size = 0 */
 975               	.LM137:
 976 04a8 C091 0000 		lds r28,Timebase
 977 04ac D091 0000 		lds r29,(Timebase)+1
 978 04b0 8E89      		ldd r24,Y+22
 979 04b2 8130      		cpi r24,lo8(1)
 980 04b4 01F0      		breq .L68
 981 04b6 EE24      		clr r14
 982 04b8 FF24      		clr r15
 983 04ba 8701      		movw r16,r14
 984               	.LVL53:
 985 04bc 00C0      		rjmp .L69
 986               	.LVL54:
 987               	.L68:
 988               	.LBB358:
 989               	.LBB359:
 990               	.LBB360:
 991               	.LM138:
 992 04be 2A85      		ldd r18,Y+10
 993 04c0 3B85      		ldd r19,Y+11
 994 04c2 4C85      		ldd r20,Y+12
 995 04c4 5D85      		ldd r21,Y+13
 996               	.LVL55:
 997               	.LBE360:
 998               	.LBE359:
 999               	.LBB361:
 1000               	.LBB362:
 1001               	.LM139:
 1002 04c6 8885      		ldd r24,Y+8
 1003 04c8 9985      		ldd r25,Y+9
 1004               	.LBE362:
 1005               	.LBE361:
 1006               	.LM140:
 1007 04ca 7C01      		movw r14,r24
 1008               	.LVL56:
 1009 04cc 00E0      		ldi r16,lo8(0)
 1010 04ce 10E0      		ldi r17,hi8(0)
 1011               	.LVL57:
 1012               	.LM141:
 1013 04d0 8E85      		ldd r24,Y+14
 1014 04d2 9F85      		ldd r25,Y+15
 1015 04d4 A889      		ldd r26,Y+16
 1016 04d6 B989      		ldd r27,Y+17
 1017 04d8 281B      		sub r18,r24
 1018 04da 390B      		sbc r19,r25
 1019 04dc 4A0B      		sbc r20,r26
 1020 04de 5B0B      		sbc r21,r27
 1021               	.LVL58:
 1022               	.LM142:
 1023 04e0 6981      		ldd r22,Y+1
 1024 04e2 7A81      		ldd r23,Y+2
 1025 04e4 80E0      		ldi r24,lo8(0)
 1026 04e6 90E0      		ldi r25,hi8(0)
 1027 04e8 0E94 0000 		call __mulsi3
 1028               	.LVL59:
 1029               	.LM143:
 1030 04ec 2A89      		ldd r18,Y+18
 1031 04ee 3B89      		ldd r19,Y+19
 1032 04f0 4C89      		ldd r20,Y+20
 1033 04f2 5D89      		ldd r21,Y+21
 1034 04f4 E21A      		sub r14,r18
 1035 04f6 F30A      		sbc r15,r19
 1036 04f8 040B      		sbc r16,r20
 1037 04fa 150B      		sbc r17,r21
 1038               	.LVL60:
 1039 04fc E60E      		add r14,r22
 1040 04fe F71E      		adc r15,r23
 1041 0500 081F      		adc r16,r24
 1042 0502 191F      		adc r17,r25
 1043               	.L69:
 1044               	.LBE358:
 1045               	.LM144:
 1046 0504 B701      		movw r22,r14
 1047               	.LVL61:
 1048 0506 C801      		movw r24,r16
 1049               	.LVL62:
 1050               	/* epilogue start */
 1051 0508 DF91      		pop r29
 1052 050a CF91      		pop r28
 1053 050c 1F91      		pop r17
 1054 050e 0F91      		pop r16
 1055 0510 FF90      		pop r15
 1056 0512 EF90      		pop r14
 1057 0514 0895      		ret
 1058               	.LFE21:
 1060               	.global	Timebase_Window_Timer_Get_Interval_Reset
 1062               	Timebase_Window_Timer_Get_Interval_Reset:
 1063               	.LFB22:
 1064               	.LM145:
 1065               	/* prologue: function */
 1066               	/* frame size = 0 */
 1067               	.LM146:
 1068 0516 0E94 0000 		call Timebase_Window_Timer_Get_Interval
 1069 051a 282F      		mov r18,r24
 1070               	.LVL63:
 1071               	.LM147:
 1072 051c E091 0000 		lds r30,Timebase
 1073 0520 F091 0000 		lds r31,(Timebase)+1
 1074 0524 8689      		ldd r24,Z+22
 1075 0526 8130      		cpi r24,lo8(1)
 1076 0528 01F4      		brne .L72
 1077               	.LBB363:
 1078               	.LBB364:
 1079               	.LM148:
 1080 052a 1686      		std Z+14,__zero_reg__
 1081 052c 1786      		std Z+15,__zero_reg__
 1082 052e 108A      		std Z+16,__zero_reg__
 1083 0530 118A      		std Z+17,__zero_reg__
 1084               	.LM149:
 1085 0532 128A      		std Z+18,__zero_reg__
 1086 0534 138A      		std Z+19,__zero_reg__
 1087 0536 148A      		std Z+20,__zero_reg__
 1088 0538 158A      		std Z+21,__zero_reg__
 1089               	.LM150:
 1090 053a 168A      		std Z+22,__zero_reg__
 1091               	.L72:
 1092               	.LBE364:
 1093               	.LBE363:
 1094               	.LM151:
 1095 053c 822F      		mov r24,r18
 1096               	/* epilogue start */
 1097 053e 0895      		ret
 1098               	.LFE22:
 1100               	.global	Timebase_DownCounter_Get_Status
 1102               	Timebase_DownCounter_Get_Status:
 1103               	.LFB23:
 1104               	.LM152:
 1105               	.LVL64:
 1106               	/* prologue: function */
 1107               	/* frame size = 0 */
 1108               	.LM153:
 1109 0540 E091 0000 		lds r30,Timebase
 1110 0544 F091 0000 		lds r31,(Timebase)+1
 1111 0548 90E0      		ldi r25,lo8(0)
 1112               	.LVL65:
 1113 054a 2DE0      		ldi r18,lo8(13)
 1114 054c 30E0      		ldi r19,hi8(13)
 1115 054e AC01      		movw r20,r24
 1116 0550 429F      		mul r20,r18
 1117 0552 C001      		movw r24,r0
 1118 0554 439F      		mul r20,r19
 1119 0556 900D      		add r25,r0
 1120 0558 529F      		mul r21,r18
 1121 055a 900D      		add r25,r0
 1122 055c 1124      		clr r1
 1123               	.LVL66:
 1124 055e E80F      		add r30,r24
 1125 0560 F91F      		adc r31,r25
 1126 0562 E359      		subi r30,lo8(-(109))
 1127 0564 FF4F      		sbci r31,hi8(-(109))
 1128 0566 8081      		ld r24,Z
 1129 0568 8695      		lsr r24
 1130               	.LM154:
 1131 056a 8F70      		andi r24,lo8(15)
 1132               	/* epilogue start */
 1133 056c 0895      		ret
 1134               	.LFE23:
 1136               	.global	Timebase_DownCounter_Set_Status
 1138               	Timebase_DownCounter_Set_Status:
 1139               	.LFB24:
 1140               	.LM155:
 1141               	.LVL67:
 1142               	/* prologue: function */
 1143               	/* frame size = 0 */
 1144               	.LM156:
 1145 056e E091 0000 		lds r30,Timebase
 1146 0572 F091 0000 		lds r31,(Timebase)+1
 1147 0576 90E0      		ldi r25,lo8(0)
 1148               	.LVL68:
 1149 0578 2DE0      		ldi r18,lo8(13)
 1150 057a 30E0      		ldi r19,hi8(13)
 1151 057c AC01      		movw r20,r24
 1152 057e 429F      		mul r20,r18
 1153 0580 C001      		movw r24,r0
 1154 0582 439F      		mul r20,r19
 1155 0584 900D      		add r25,r0
 1156 0586 529F      		mul r21,r18
 1157 0588 900D      		add r25,r0
 1158 058a 1124      		clr r1
 1159               	.LVL69:
 1160 058c E80F      		add r30,r24
 1161 058e F91F      		adc r31,r25
 1162 0590 E359      		subi r30,lo8(-(109))
 1163 0592 FF4F      		sbci r31,hi8(-(109))
 1164 0594 6F70      		andi r22,lo8(15)
 1165               	.LVL70:
 1166 0596 660F      		lsl r22
 1167 0598 8081      		ld r24,Z
 1168 059a 817E      		andi r24,lo8(-31)
 1169 059c 862B      		or r24,r22
 1170 059e 8083      		st Z,r24
 1171               	/* epilogue start */
 1172               	.LM157:
 1173 05a0 0895      		ret
 1174               	.LFE24:
 1176               	.global	Timebase_DownCounter_Get_Value
 1178               	Timebase_DownCounter_Get_Value:
 1179               	.LFB25:
 1180               	.LM158:
 1181               	.LVL71:
 1182               	/* prologue: function */
 1183               	/* frame size = 0 */
 1184               	.LM159:
 1185 05a2 E091 0000 		lds r30,Timebase
 1186 05a6 F091 0000 		lds r31,(Timebase)+1
 1187 05aa 90E0      		ldi r25,lo8(0)
 1188               	.LVL72:
 1189 05ac 2DE0      		ldi r18,lo8(13)
 1190 05ae 30E0      		ldi r19,hi8(13)
 1191 05b0 AC01      		movw r20,r24
 1192 05b2 429F      		mul r20,r18
 1193 05b4 C001      		movw r24,r0
 1194 05b6 439F      		mul r20,r19
 1195 05b8 900D      		add r25,r0
 1196 05ba 529F      		mul r21,r18
 1197 05bc 900D      		add r25,r0
 1198 05be 1124      		clr r1
 1199               	.LVL73:
 1200 05c0 E80F      		add r30,r24
 1201 05c2 F91F      		adc r31,r25
 1202 05c4 EE58      		subi r30,lo8(-(114))
 1203 05c6 FF4F      		sbci r31,hi8(-(114))
 1204 05c8 6081      		ld r22,Z
 1205 05ca 7181      		ldd r23,Z+1
 1206               	.LM160:
 1207 05cc 8281      		ldd r24,Z+2
 1208 05ce 9381      		ldd r25,Z+3
 1209               	.LVL74:
 1210               	/* epilogue start */
 1211 05d0 0895      		ret
 1212               	.LFE25:
 1214               	.global	Timebase_DownCounter_Set_Value
 1216               	Timebase_DownCounter_Set_Value:
 1217               	.LFB26:
 1218               	.LM161:
 1219               	.LVL75:
 1220               	/* prologue: function */
 1221               	/* frame size = 0 */
 1222               	.LM162:
 1223 05d2 E091 0000 		lds r30,Timebase
 1224 05d6 F091 0000 		lds r31,(Timebase)+1
 1225 05da 90E0      		ldi r25,lo8(0)
 1226               	.LVL76:
 1227 05dc 2DE0      		ldi r18,lo8(13)
 1228 05de 30E0      		ldi r19,hi8(13)
 1229 05e0 DC01      		movw r26,r24
 1230 05e2 A29F      		mul r26,r18
 1231 05e4 C001      		movw r24,r0
 1232 05e6 A39F      		mul r26,r19
 1233 05e8 900D      		add r25,r0
 1234 05ea B29F      		mul r27,r18
 1235 05ec 900D      		add r25,r0
 1236 05ee 1124      		clr r1
 1237               	.LVL77:
 1238 05f0 E80F      		add r30,r24
 1239 05f2 F91F      		adc r31,r25
 1240 05f4 EE58      		subi r30,lo8(-(114))
 1241 05f6 FF4F      		sbci r31,hi8(-(114))
 1242 05f8 4083      		st Z,r20
 1243 05fa 5183      		std Z+1,r21
 1244 05fc 6283      		std Z+2,r22
 1245 05fe 7383      		std Z+3,r23
 1246               	/* epilogue start */
 1247               	.LM163:
 1248 0600 0895      		ret
 1249               	.LFE26:
 1251               	.global	Timebase_DownCounter_Get_EndValue
 1253               	Timebase_DownCounter_Get_EndValue:
 1254               	.LFB27:
 1255               	.LM164:
 1256               	.LVL78:
 1257               	/* prologue: function */
 1258               	/* frame size = 0 */
 1259               	.LM165:
 1260 0602 E091 0000 		lds r30,Timebase
 1261 0606 F091 0000 		lds r31,(Timebase)+1
 1262 060a 90E0      		ldi r25,lo8(0)
 1263               	.LVL79:
 1264 060c 2DE0      		ldi r18,lo8(13)
 1265 060e 30E0      		ldi r19,hi8(13)
 1266 0610 AC01      		movw r20,r24
 1267 0612 429F      		mul r20,r18
 1268 0614 C001      		movw r24,r0
 1269 0616 439F      		mul r20,r19
 1270 0618 900D      		add r25,r0
 1271 061a 529F      		mul r21,r18
 1272 061c 900D      		add r25,r0
 1273 061e 1124      		clr r1
 1274               	.LVL80:
 1275 0620 E80F      		add r30,r24
 1276 0622 F91F      		adc r31,r25
 1277 0624 E259      		subi r30,lo8(-(110))
 1278 0626 FF4F      		sbci r31,hi8(-(110))
 1279 0628 6081      		ld r22,Z
 1280 062a 7181      		ldd r23,Z+1
 1281               	.LM166:
 1282 062c 8281      		ldd r24,Z+2
 1283 062e 9381      		ldd r25,Z+3
 1284               	.LVL81:
 1285               	/* epilogue start */
 1286 0630 0895      		ret
 1287               	.LFE27:
 1289               	.global	Timebase_DownCounter_Set_EndValue
 1291               	Timebase_DownCounter_Set_EndValue:
 1292               	.LFB28:
 1293               	.LM167:
 1294               	.LVL82:
 1295               	/* prologue: function */
 1296               	/* frame size = 0 */
 1297               	.LM168:
 1298 0632 E091 0000 		lds r30,Timebase
 1299 0636 F091 0000 		lds r31,(Timebase)+1
 1300 063a 90E0      		ldi r25,lo8(0)
 1301               	.LVL83:
 1302 063c 2DE0      		ldi r18,lo8(13)
 1303 063e 30E0      		ldi r19,hi8(13)
 1304 0640 DC01      		movw r26,r24
 1305 0642 A29F      		mul r26,r18
 1306 0644 C001      		movw r24,r0
 1307 0646 A39F      		mul r26,r19
 1308 0648 900D      		add r25,r0
 1309 064a B29F      		mul r27,r18
 1310 064c 900D      		add r25,r0
 1311 064e 1124      		clr r1
 1312               	.LVL84:
 1313 0650 E80F      		add r30,r24
 1314 0652 F91F      		adc r31,r25
 1315 0654 E259      		subi r30,lo8(-(110))
 1316 0656 FF4F      		sbci r31,hi8(-(110))
 1317 0658 4083      		st Z,r20
 1318 065a 5183      		std Z+1,r21
 1319 065c 6283      		std Z+2,r22
 1320 065e 7383      		std Z+3,r23
 1321               	/* epilogue start */
 1322               	.LM169:
 1323 0660 0895      		ret
 1324               	.LFE28:
 1326               	.global	Timebase_DownCounter_Get_PeriodValue
 1328               	Timebase_DownCounter_Get_PeriodValue:
 1329               	.LFB29:
 1330               	.LM170:
 1331               	.LVL85:
 1332               	/* prologue: function */
 1333               	/* frame size = 0 */
 1334               	.LM171:
 1335 0662 E091 0000 		lds r30,Timebase
 1336 0666 F091 0000 		lds r31,(Timebase)+1
 1337 066a 90E0      		ldi r25,lo8(0)
 1338               	.LVL86:
 1339 066c 2DE0      		ldi r18,lo8(13)
 1340 066e 30E0      		ldi r19,hi8(13)
 1341 0670 AC01      		movw r20,r24
 1342 0672 429F      		mul r20,r18
 1343 0674 C001      		movw r24,r0
 1344 0676 439F      		mul r20,r19
 1345 0678 900D      		add r25,r0
 1346 067a 529F      		mul r21,r18
 1347 067c 900D      		add r25,r0
 1348 067e 1124      		clr r1
 1349               	.LVL87:
 1350 0680 E80F      		add r30,r24
 1351 0682 F91F      		adc r31,r25
 1352 0684 EA58      		subi r30,lo8(-(118))
 1353 0686 FF4F      		sbci r31,hi8(-(118))
 1354 0688 6081      		ld r22,Z
 1355 068a 7181      		ldd r23,Z+1
 1356               	.LM172:
 1357 068c 8281      		ldd r24,Z+2
 1358 068e 9381      		ldd r25,Z+3
 1359               	.LVL88:
 1360               	/* epilogue start */
 1361 0690 0895      		ret
 1362               	.LFE29:
 1364               	.global	Timebase_DownCounter_Set_PeriodValue
 1366               	Timebase_DownCounter_Set_PeriodValue:
 1367               	.LFB30:
 1368               	.LM173:
 1369               	.LVL89:
 1370               	/* prologue: function */
 1371               	/* frame size = 0 */
 1372 0692 E091 0000 		lds r30,Timebase
 1373 0696 F091 0000 		lds r31,(Timebase)+1
 1374 069a 282F      		mov r18,r24
 1375 069c 30E0      		ldi r19,lo8(0)
 1376               	.LVL90:
 1377               	.LM174:
 1378 069e 77FF      		sbrs r23,7
 1379 06a0 00C0      		rjmp .L89
 1380               	.LVL91:
 1381               	.LM175:
 1382 06a2 8DE0      		ldi r24,lo8(13)
 1383 06a4 90E0      		ldi r25,hi8(13)
 1384 06a6 AC01      		movw r20,r24
 1385               	.LVL92:
 1386 06a8 249F      		mul r18,r20
 1387 06aa C001      		movw r24,r0
 1388 06ac 259F      		mul r18,r21
 1389 06ae 900D      		add r25,r0
 1390 06b0 349F      		mul r19,r20
 1391 06b2 900D      		add r25,r0
 1392 06b4 1124      		clr r1
 1393 06b6 E80F      		add r30,r24
 1394 06b8 F91F      		adc r31,r25
 1395 06ba EA58      		subi r30,lo8(-(118))
 1396 06bc FF4F      		sbci r31,hi8(-(118))
 1397 06be 1082      		st Z,__zero_reg__
 1398 06c0 1182      		std Z+1,__zero_reg__
 1399 06c2 1282      		std Z+2,__zero_reg__
 1400 06c4 1382      		std Z+3,__zero_reg__
 1401 06c6 0895      		ret
 1402               	.LVL93:
 1403               	.L89:
 1404               	.LM176:
 1405 06c8 8DE0      		ldi r24,lo8(13)
 1406 06ca 90E0      		ldi r25,hi8(13)
 1407 06cc DC01      		movw r26,r24
 1408 06ce 2A9F      		mul r18,r26
 1409 06d0 C001      		movw r24,r0
 1410 06d2 2B9F      		mul r18,r27
 1411 06d4 900D      		add r25,r0
 1412 06d6 3A9F      		mul r19,r26
 1413 06d8 900D      		add r25,r0
 1414 06da 1124      		clr r1
 1415 06dc E80F      		add r30,r24
 1416 06de F91F      		adc r31,r25
 1417 06e0 EA58      		subi r30,lo8(-(118))
 1418 06e2 FF4F      		sbci r31,hi8(-(118))
 1419 06e4 4083      		st Z,r20
 1420 06e6 5183      		std Z+1,r21
 1421 06e8 6283      		std Z+2,r22
 1422 06ea 7383      		std Z+3,r23
 1423 06ec 0895      		ret
 1424               	.LFE30:
 1426               	.global	Timebase_DownCounter_Get_Period_Flag
 1428               	Timebase_DownCounter_Get_Period_Flag:
 1429               	.LFB31:
 1430               	.LM177:
 1431               	.LVL94:
 1432               	/* prologue: function */
 1433               	/* frame size = 0 */
 1434               	.LM178:
 1435 06ee E091 0000 		lds r30,Timebase
 1436 06f2 F091 0000 		lds r31,(Timebase)+1
 1437 06f6 90E0      		ldi r25,lo8(0)
 1438               	.LVL95:
 1439 06f8 2DE0      		ldi r18,lo8(13)
 1440 06fa 30E0      		ldi r19,hi8(13)
 1441 06fc AC01      		movw r20,r24
 1442 06fe 429F      		mul r20,r18
 1443 0700 C001      		movw r24,r0
 1444 0702 439F      		mul r20,r19
 1445 0704 900D      		add r25,r0
 1446 0706 529F      		mul r21,r18
 1447 0708 900D      		add r25,r0
 1448 070a 1124      		clr r1
 1449               	.LVL96:
 1450 070c E80F      		add r30,r24
 1451 070e F91F      		adc r31,r25
 1452 0710 E359      		subi r30,lo8(-(109))
 1453 0712 FF4F      		sbci r31,hi8(-(109))
 1454 0714 8081      		ld r24,Z
 1455               	.LM179:
 1456 0716 8170      		andi r24,lo8(1)
 1457               	/* epilogue start */
 1458 0718 0895      		ret
 1459               	.LFE31:
 1461               	.global	Timebase_DownCounter_Set_Period_Flag
 1463               	Timebase_DownCounter_Set_Period_Flag:
 1464               	.LFB32:
 1465               	.LM180:
 1466               	.LVL97:
 1467               	/* prologue: function */
 1468               	/* frame size = 0 */
 1469               	.LM181:
 1470 071a E091 0000 		lds r30,Timebase
 1471 071e F091 0000 		lds r31,(Timebase)+1
 1472 0722 90E0      		ldi r25,lo8(0)
 1473               	.LVL98:
 1474 0724 2DE0      		ldi r18,lo8(13)
 1475 0726 30E0      		ldi r19,hi8(13)
 1476 0728 AC01      		movw r20,r24
 1477 072a 429F      		mul r20,r18
 1478 072c C001      		movw r24,r0
 1479 072e 439F      		mul r20,r19
 1480 0730 900D      		add r25,r0
 1481 0732 529F      		mul r21,r18
 1482 0734 900D      		add r25,r0
 1483 0736 1124      		clr r1
 1484               	.LVL99:
 1485 0738 E80F      		add r30,r24
 1486 073a F91F      		adc r31,r25
 1487 073c E359      		subi r30,lo8(-(109))
 1488 073e FF4F      		sbci r31,hi8(-(109))
 1489 0740 8081      		ld r24,Z
 1490 0742 8160      		ori r24,lo8(1)
 1491 0744 8083      		st Z,r24
 1492               	/* epilogue start */
 1493               	.LM182:
 1494 0746 0895      		ret
 1495               	.LFE32:
 1497               	.global	Timebase_DownCounter_Clear_Period_Flag
 1499               	Timebase_DownCounter_Clear_Period_Flag:
 1500               	.LFB33:
 1501               	.LM183:
 1502               	.LVL100:
 1503               	/* prologue: function */
 1504               	/* frame size = 0 */
 1505               	.LM184:
 1506 0748 E091 0000 		lds r30,Timebase
 1507 074c F091 0000 		lds r31,(Timebase)+1
 1508 0750 90E0      		ldi r25,lo8(0)
 1509               	.LVL101:
 1510 0752 2DE0      		ldi r18,lo8(13)
 1511 0754 30E0      		ldi r19,hi8(13)
 1512 0756 AC01      		movw r20,r24
 1513 0758 429F      		mul r20,r18
 1514 075a C001      		movw r24,r0
 1515 075c 439F      		mul r20,r19
 1516 075e 900D      		add r25,r0
 1517 0760 529F      		mul r21,r18
 1518 0762 900D      		add r25,r0
 1519 0764 1124      		clr r1
 1520               	.LVL102:
 1521 0766 E80F      		add r30,r24
 1522 0768 F91F      		adc r31,r25
 1523 076a E359      		subi r30,lo8(-(109))
 1524 076c FF4F      		sbci r31,hi8(-(109))
 1525 076e 8081      		ld r24,Z
 1526 0770 8E7F      		andi r24,lo8(-2)
 1527 0772 8083      		st Z,r24
 1528               	/* epilogue start */
 1529               	.LM185:
 1530 0774 0895      		ret
 1531               	.LFE33:
 1533               	.global	Timebase_DownCounter_Reset
 1535               	Timebase_DownCounter_Reset:
 1536               	.LFB34:
 1537               	.LM186:
 1538               	.LVL103:
 1539               	/* prologue: function */
 1540               	/* frame size = 0 */
 1541               	.LBB365:
 1542               	.LBB366:
 1543               	.LM187:
 1544 0776 E091 0000 		lds r30,Timebase
 1545 077a F091 0000 		lds r31,(Timebase)+1
 1546 077e 90E0      		ldi r25,lo8(0)
 1547 0780 2DE0      		ldi r18,lo8(13)
 1548 0782 30E0      		ldi r19,hi8(13)
 1549 0784 AC01      		movw r20,r24
 1550               	.LVL104:
 1551 0786 429F      		mul r20,r18
 1552 0788 C001      		movw r24,r0
 1553 078a 439F      		mul r20,r19
 1554 078c 900D      		add r25,r0
 1555 078e 529F      		mul r21,r18
 1556 0790 900D      		add r25,r0
 1557 0792 1124      		clr r1
 1558 0794 E80F      		add r30,r24
 1559 0796 F91F      		adc r31,r25
 1560 0798 E259      		subi r30,lo8(-(110))
 1561 079a FF4F      		sbci r31,hi8(-(110))
 1562 079c 1192      		st Z+,__zero_reg__
 1563 079e 1192      		st Z+,__zero_reg__
 1564 07a0 1192      		st Z+,__zero_reg__
 1565 07a2 1192      		st Z+,__zero_reg__
 1566               	.LBE366:
 1567               	.LBE365:
 1568               	.LBB367:
 1569               	.LBB368:
 1570               	.LM188:
 1571 07a4 1082      		st Z,__zero_reg__
 1572 07a6 1182      		std Z+1,__zero_reg__
 1573 07a8 1282      		std Z+2,__zero_reg__
 1574 07aa 1382      		std Z+3,__zero_reg__
 1575               	.LBE368:
 1576               	.LBE367:
 1577               	.LBB369:
 1578               	.LBB370:
 1579               	.LM189:
 1580 07ac 3597      		sbiw r30,5
 1581 07ae 8081      		ld r24,Z
 1582               	.LBE370:
 1583               	.LBE369:
 1584               	.LBB371:
 1585               	.LBB372:
 1586               	.LM190:
 1587 07b0 807E      		andi r24,lo8(-32)
 1588 07b2 8083      		st Z,r24
 1589               	/* epilogue start */
 1590               	.LBE372:
 1591               	.LBE371:
 1592               	.LM191:
 1593 07b4 0895      		ret
 1594               	.LFE34:
 1596               	.global	Timebase_DownCounter_Clear_All_Flags
 1598               	Timebase_DownCounter_Clear_All_Flags:
 1599               	.LFB35:
 1600               	.LM192:
 1601               	.LVL105:
 1602               	/* prologue: function */
 1603               	/* frame size = 0 */
 1604               	.LBB373:
 1605               	.LBB374:
 1606               	.LBB375:
 1607               	.LBB376:
 1608               	.LM193:
 1609 07b6 E091 0000 		lds r30,Timebase
 1610 07ba F091 0000 		lds r31,(Timebase)+1
 1611 07be 90E0      		ldi r25,lo8(0)
 1612 07c0 2DE0      		ldi r18,lo8(13)
 1613 07c2 30E0      		ldi r19,hi8(13)
 1614 07c4 AC01      		movw r20,r24
 1615               	.LVL106:
 1616 07c6 429F      		mul r20,r18
 1617 07c8 C001      		movw r24,r0
 1618 07ca 439F      		mul r20,r19
 1619 07cc 900D      		add r25,r0
 1620 07ce 529F      		mul r21,r18
 1621 07d0 900D      		add r25,r0
 1622 07d2 1124      		clr r1
 1623 07d4 E80F      		add r30,r24
 1624 07d6 F91F      		adc r31,r25
 1625 07d8 E259      		subi r30,lo8(-(110))
 1626 07da FF4F      		sbci r31,hi8(-(110))
 1627 07dc 1192      		st Z+,__zero_reg__
 1628 07de 1192      		st Z+,__zero_reg__
 1629 07e0 1192      		st Z+,__zero_reg__
 1630 07e2 1192      		st Z+,__zero_reg__
 1631               	.LBE376:
 1632               	.LBE375:
 1633               	.LBB377:
 1634               	.LBB378:
 1635               	.LM194:
 1636 07e4 1082      		st Z,__zero_reg__
 1637 07e6 1182      		std Z+1,__zero_reg__
 1638 07e8 1282      		std Z+2,__zero_reg__
 1639 07ea 1382      		std Z+3,__zero_reg__
 1640               	.LBE378:
 1641               	.LBE377:
 1642               	.LBB379:
 1643               	.LBB380:
 1644               	.LM195:
 1645 07ec 3597      		sbiw r30,5
 1646 07ee 8081      		ld r24,Z
 1647               	.LBE380:
 1648               	.LBE379:
 1649               	.LBB381:
 1650               	.LBB382:
 1651               	.LM196:
 1652 07f0 807E      		andi r24,lo8(-32)
 1653 07f2 8083      		st Z,r24
 1654               	/* epilogue start */
 1655               	.LBE382:
 1656               	.LBE381:
 1657               	.LBE374:
 1658               	.LBE373:
 1659               	.LM197:
 1660 07f4 0895      		ret
 1661               	.LFE35:
 1663               	.global	Timebase_DownCounter_Start
 1665               	Timebase_DownCounter_Start:
 1666               	.LFB36:
 1667               	.LM198:
 1668               	.LVL107:
 1669               	/* prologue: function */
 1670               	/* frame size = 0 */
 1671               	.LBB383:
 1672               	.LBB384:
 1673               	.LM199:
 1674 07f6 E091 0000 		lds r30,Timebase
 1675 07fa F091 0000 		lds r31,(Timebase)+1
 1676 07fe 90E0      		ldi r25,lo8(0)
 1677               	.LBE384:
 1678               	.LBE383:
 1679               	.LM200:
 1680 0800 2DE0      		ldi r18,lo8(13)
 1681 0802 30E0      		ldi r19,hi8(13)
 1682 0804 AC01      		movw r20,r24
 1683               	.LVL108:
 1684 0806 429F      		mul r20,r18
 1685 0808 C001      		movw r24,r0
 1686 080a 439F      		mul r20,r19
 1687 080c 900D      		add r25,r0
 1688 080e 529F      		mul r21,r18
 1689 0810 900D      		add r25,r0
 1690 0812 1124      		clr r1
 1691 0814 E80F      		add r30,r24
 1692 0816 F91F      		adc r31,r25
 1693 0818 E359      		subi r30,lo8(-(109))
 1694 081a FF4F      		sbci r31,hi8(-(109))
 1695 081c 9081      		ld r25,Z
 1696 081e 892F      		mov r24,r25
 1697 0820 8695      		lsr r24
 1698 0822 8F70      		andi r24,lo8(15)
 1699 0824 8130      		cpi r24,lo8(1)
 1700 0826 01F0      		breq .L104
 1701               	.LBB385:
 1702               	.LBB386:
 1703               	.LM201:
 1704 0828 917E      		andi r25,lo8(-31)
 1705 082a 9260      		ori r25,lo8(2)
 1706 082c 9083      		st Z,r25
 1707               	.L104:
 1708 082e 0895      		ret
 1709               	.LBE386:
 1710               	.LBE385:
 1711               	.LFE36:
 1713               	.global	Timebase_DownCounter_Stop
 1715               	Timebase_DownCounter_Stop:
 1716               	.LFB37:
 1717               	.LM202:
 1718               	.LVL109:
 1719               	/* prologue: function */
 1720               	/* frame size = 0 */
 1721               	.LBB387:
 1722               	.LBB388:
 1723               	.LM203:
 1724 0830 E091 0000 		lds r30,Timebase
 1725 0834 F091 0000 		lds r31,(Timebase)+1
 1726 0838 90E0      		ldi r25,lo8(0)
 1727               	.LBE388:
 1728               	.LBE387:
 1729               	.LM204:
 1730 083a 2DE0      		ldi r18,lo8(13)
 1731 083c 30E0      		ldi r19,hi8(13)
 1732 083e AC01      		movw r20,r24
 1733               	.LVL110:
 1734 0840 429F      		mul r20,r18
 1735 0842 C001      		movw r24,r0
 1736 0844 439F      		mul r20,r19
 1737 0846 900D      		add r25,r0
 1738 0848 529F      		mul r21,r18
 1739 084a 900D      		add r25,r0
 1740 084c 1124      		clr r1
 1741 084e E80F      		add r30,r24
 1742 0850 F91F      		adc r31,r25
 1743 0852 E359      		subi r30,lo8(-(109))
 1744 0854 FF4F      		sbci r31,hi8(-(109))
 1745 0856 9081      		ld r25,Z
 1746 0858 892F      		mov r24,r25
 1747 085a 8695      		lsr r24
 1748 085c 8F70      		andi r24,lo8(15)
 1749 085e 8230      		cpi r24,lo8(2)
 1750 0860 01F0      		breq .L107
 1751               	.LBB389:
 1752               	.LBB390:
 1753               	.LM205:
 1754 0862 917E      		andi r25,lo8(-31)
 1755 0864 9460      		ori r25,lo8(4)
 1756 0866 9083      		st Z,r25
 1757               	.L107:
 1758 0868 0895      		ret
 1759               	.LBE390:
 1760               	.LBE389:
 1761               	.LFE37:
 1763               	.global	Timebase_DownCounter_Set_Securely
 1765               	Timebase_DownCounter_Set_Securely:
 1766               	.LFB38:
 1767               	.LM206:
 1768               	.LVL111:
 1769 086a CF93      		push r28
 1770 086c DF93      		push r29
 1771               	/* prologue: function */
 1772               	/* frame size = 0 */
 1773               	.LBB391:
 1774               	.LBB392:
 1775               	.LM207:
 1776 086e A091 0000 		lds r26,Timebase
 1777 0872 B091 0000 		lds r27,(Timebase)+1
 1778 0876 90E0      		ldi r25,lo8(0)
 1779               	.LBE392:
 1780               	.LBE391:
 1781               	.LM208:
 1782 0878 2DE0      		ldi r18,lo8(13)
 1783 087a 30E0      		ldi r19,hi8(13)
 1784 087c 829F      		mul r24,r18
 1785 087e F001      		movw r30,r0
 1786 0880 839F      		mul r24,r19
 1787 0882 F00D      		add r31,r0
 1788 0884 929F      		mul r25,r18
 1789 0886 F00D      		add r31,r0
 1790 0888 1124      		clr r1
 1791               	.LVL112:
 1792 088a EA0F      		add r30,r26
 1793 088c FB1F      		adc r31,r27
 1794 088e EF01      		movw r28,r30
 1795 0890 C359      		subi r28,lo8(-(109))
 1796 0892 DF4F      		sbci r29,hi8(-(109))
 1797 0894 8881      		ld r24,Y
 1798 0896 8695      		lsr r24
 1799 0898 8F70      		andi r24,lo8(15)
 1800 089a 01F4      		brne .L110
 1801               	.LBB393:
 1802               	.LBB394:
 1803               	.LM209:
 1804 089c EE58      		subi r30,lo8(-(114))
 1805 089e FF4F      		sbci r31,hi8(-(114))
 1806 08a0 4083      		st Z,r20
 1807 08a2 5183      		std Z+1,r21
 1808 08a4 6283      		std Z+2,r22
 1809 08a6 7383      		std Z+3,r23
 1810               	.LBE394:
 1811               	.LBE393:
 1812               	.LBB395:
 1813               	.LBB396:
 1814               	.LM210:
 1815 08a8 1A96      		adiw r26,10
 1816 08aa 8D91      		ld r24,X+
 1817 08ac 9D91      		ld r25,X+
 1818 08ae 0D90      		ld __tmp_reg__,X+
 1819 08b0 BC91      		ld r27,X
 1820 08b2 A02D      		mov r26,__tmp_reg__
 1821               	.LBE396:
 1822               	.LBE395:
 1823               	.LBB397:
 1824               	.LBB398:
 1825               	.LM211:
 1826 08b4 840F      		add r24,r20
 1827 08b6 951F      		adc r25,r21
 1828 08b8 A61F      		adc r26,r22
 1829 08ba B71F      		adc r27,r23
 1830 08bc B293      		st -Z,r27
 1831 08be A293      		st -Z,r26
 1832 08c0 9293      		st -Z,r25
 1833 08c2 8293      		st -Z,r24
 1834               	.LBE398:
 1835               	.LBE397:
 1836               	.LBB399:
 1837               	.LBB400:
 1838               	.LM212:
 1839 08c4 9881      		ld r25,Y
 1840 08c6 892F      		mov r24,r25
 1841 08c8 8695      		lsr r24
 1842 08ca 8F70      		andi r24,lo8(15)
 1843 08cc 8130      		cpi r24,lo8(1)
 1844 08ce 01F0      		breq .L110
 1845               	.LBB401:
 1846               	.LBB402:
 1847               	.LM213:
 1848 08d0 917E      		andi r25,lo8(-31)
 1849 08d2 9260      		ori r25,lo8(2)
 1850 08d4 9883      		st Y,r25
 1851               	.L110:
 1852               	/* epilogue start */
 1853               	.LBE402:
 1854               	.LBE401:
 1855               	.LBE400:
 1856               	.LBE399:
 1857               	.LM214:
 1858 08d6 DF91      		pop r29
 1859 08d8 CF91      		pop r28
 1860 08da 0895      		ret
 1861               	.LFE38:
 1863               	.global	Timebase_DownCounter_Set_Forcefully
 1865               	Timebase_DownCounter_Set_Forcefully:
 1866               	.LFB39:
 1867               	.LM215:
 1868               	.LVL113:
 1869 08dc CF93      		push r28
 1870 08de DF93      		push r29
 1871               	/* prologue: function */
 1872               	/* frame size = 0 */
 1873               	.LBB403:
 1874               	.LBB404:
 1875               	.LBB405:
 1876               	.LBB406:
 1877               	.LM216:
 1878 08e0 E091 0000 		lds r30,Timebase
 1879 08e4 F091 0000 		lds r31,(Timebase)+1
 1880 08e8 A82F      		mov r26,r24
 1881 08ea B0E0      		ldi r27,lo8(0)
 1882 08ec 2DE0      		ldi r18,lo8(13)
 1883 08ee 30E0      		ldi r19,hi8(13)
 1884 08f0 E901      		movw r28,r18
 1885 08f2 AC9F      		mul r26,r28
 1886 08f4 9001      		movw r18,r0
 1887 08f6 AD9F      		mul r26,r29
 1888 08f8 300D      		add r19,r0
 1889 08fa BC9F      		mul r27,r28
 1890 08fc 300D      		add r19,r0
 1891 08fe 1124      		clr r1
 1892 0900 E20F      		add r30,r18
 1893 0902 F31F      		adc r31,r19
 1894 0904 E259      		subi r30,lo8(-(110))
 1895 0906 FF4F      		sbci r31,hi8(-(110))
 1896 0908 1192      		st Z+,__zero_reg__
 1897 090a 1192      		st Z+,__zero_reg__
 1898 090c 1192      		st Z+,__zero_reg__
 1899 090e 1192      		st Z+,__zero_reg__
 1900               	.LBE406:
 1901               	.LBE405:
 1902               	.LBB407:
 1903               	.LBB408:
 1904               	.LM217:
 1905 0910 1082      		st Z,__zero_reg__
 1906 0912 1182      		std Z+1,__zero_reg__
 1907 0914 1282      		std Z+2,__zero_reg__
 1908 0916 1382      		std Z+3,__zero_reg__
 1909               	.LBE408:
 1910               	.LBE407:
 1911               	.LBB409:
 1912               	.LBB410:
 1913               	.LM218:
 1914 0918 3597      		sbiw r30,5
 1915 091a 9081      		ld r25,Z
 1916               	.LBE410:
 1917               	.LBE409:
 1918               	.LBB411:
 1919               	.LBB412:
 1920               	.LM219:
 1921 091c 907E      		andi r25,lo8(-32)
 1922 091e 9083      		st Z,r25
 1923               	.LBE412:
 1924               	.LBE411:
 1925               	.LBE404:
 1926               	.LBE403:
 1927               	.LM220:
 1928 0920 0E94 0000 		call Timebase_DownCounter_Set_Securely
 1929               	.LVL114:
 1930               	/* epilogue start */
 1931               	.LM221:
 1932 0924 DF91      		pop r29
 1933 0926 CF91      		pop r28
 1934 0928 0895      		ret
 1935               	.LFE39:
 1937               	.global	Timebase_DownCounter_Update
 1939               	Timebase_DownCounter_Update:
 1940               	.LFB40:
 1941               	.LM222:
 1942               	.LVL115:
 1943 092a 0F93      		push r16
 1944 092c 1F93      		push r17
 1945 092e CF93      		push r28
 1946 0930 DF93      		push r29
 1947               	/* prologue: function */
 1948               	/* frame size = 0 */
 1949               	.LBB413:
 1950               	.LBB414:
 1951               	.LM223:
 1952 0932 A091 0000 		lds r26,Timebase
 1953 0936 B091 0000 		lds r27,(Timebase)+1
 1954 093a 90E0      		ldi r25,lo8(0)
 1955 093c 2DE0      		ldi r18,lo8(13)
 1956 093e 30E0      		ldi r19,hi8(13)
 1957 0940 829F      		mul r24,r18
 1958 0942 F001      		movw r30,r0
 1959 0944 839F      		mul r24,r19
 1960 0946 F00D      		add r31,r0
 1961 0948 929F      		mul r25,r18
 1962 094a F00D      		add r31,r0
 1963 094c 1124      		clr r1
 1964               	.LVL116:
 1965 094e EA0F      		add r30,r26
 1966 0950 FB1F      		adc r31,r27
 1967 0952 8F01      		movw r16,r30
 1968 0954 0359      		subi r16,lo8(-(109))
 1969 0956 1F4F      		sbci r17,hi8(-(109))
 1970 0958 E801      		movw r28,r16
 1971 095a 8881      		ld r24,Y
 1972 095c 8695      		lsr r24
 1973 095e 8F70      		andi r24,lo8(15)
 1974               	.LBE414:
 1975               	.LBE413:
 1976               	.LM224:
 1977 0960 8130      		cpi r24,lo8(1)
 1978 0962 01F4      		brne .L114
 1979               	.LBB415:
 1980               	.LBB416:
 1981               	.LM225:
 1982 0964 1A96      		adiw r26,10
 1983 0966 2D91      		ld r18,X+
 1984 0968 3D91      		ld r19,X+
 1985 096a 4D91      		ld r20,X+
 1986 096c 5C91      		ld r21,X
 1987 096e 1D97      		sbiw r26,10+3
 1988               	.LBE416:
 1989               	.LBE415:
 1990               	.LM226:
 1991 0970 BF01      		movw r22,r30
 1992 0972 6259      		subi r22,lo8(-(110))
 1993 0974 7F4F      		sbci r23,hi8(-(110))
 1994 0976 EB01      		movw r28,r22
 1995 0978 8881      		ld r24,Y
 1996 097a 9981      		ldd r25,Y+1
 1997 097c AA81      		ldd r26,Y+2
 1998 097e BB81      		ldd r27,Y+3
 1999 0980 821B      		sub r24,r18
 2000 0982 930B      		sbc r25,r19
 2001 0984 A40B      		sbc r26,r20
 2002 0986 B50B      		sbc r27,r21
 2003               	.LBB417:
 2004               	.LBB418:
 2005               	.LM227:
 2006 0988 EE58      		subi r30,lo8(-(114))
 2007 098a FF4F      		sbci r31,hi8(-(114))
 2008 098c 8083      		st Z,r24
 2009 098e 9183      		std Z+1,r25
 2010 0990 A283      		std Z+2,r26
 2011 0992 B383      		std Z+3,r27
 2012               	.LBE418:
 2013               	.LBE417:
 2014               	.LM228:
 2015 0994 1816      		cp __zero_reg__,r24
 2016 0996 1906      		cpc __zero_reg__,r25
 2017 0998 1A06      		cpc __zero_reg__,r26
 2018 099a 1B06      		cpc __zero_reg__,r27
 2019 099c 04F0      		brlt .L116
 2020               	.LBB419:
 2021               	.LBB420:
 2022               	.LBB421:
 2023               	.LBB422:
 2024               	.LM229:
 2025 099e DB01      		movw r26,r22
 2026 09a0 1D92      		st X+,__zero_reg__
 2027 09a2 1D92      		st X+,__zero_reg__
 2028 09a4 1D92      		st X+,__zero_reg__
 2029 09a6 1C92      		st X,__zero_reg__
 2030 09a8 1397      		sbiw r26,3
 2031               	.LBE422:
 2032               	.LBE421:
 2033               	.LBB423:
 2034               	.LBB424:
 2035               	.LM230:
 2036 09aa 1082      		st Z,__zero_reg__
 2037 09ac 1182      		std Z+1,__zero_reg__
 2038 09ae 1282      		std Z+2,__zero_reg__
 2039 09b0 1382      		std Z+3,__zero_reg__
 2040               	.LBE424:
 2041               	.LBE423:
 2042               	.LBB425:
 2043               	.LBB426:
 2044               	.LM231:
 2045 09b2 E801      		movw r28,r16
 2046 09b4 8881      		ld r24,Y
 2047               	.LBE426:
 2048               	.LBE425:
 2049               	.LBE420:
 2050               	.LBE419:
 2051               	.LBB427:
 2052               	.LBB428:
 2053               	.LM232:
 2054 09b6 807E      		andi r24,lo8(-32)
 2055 09b8 8860      		ori r24,lo8(8)
 2056 09ba 8883      		st Y,r24
 2057 09bc 00C0      		rjmp .L116
 2058               	.L114:
 2059               	.LBE428:
 2060               	.LBE427:
 2061               	.LM233:
 2062 09be 8230      		cpi r24,lo8(2)
 2063 09c0 01F4      		brne .L116
 2064               	.LBB429:
 2065               	.LBB430:
 2066               	.LM234:
 2067 09c2 1A96      		adiw r26,10
 2068 09c4 8D91      		ld r24,X+
 2069 09c6 9D91      		ld r25,X+
 2070 09c8 0D90      		ld __tmp_reg__,X+
 2071 09ca BC91      		ld r27,X
 2072 09cc A02D      		mov r26,__tmp_reg__
 2073               	.LBE430:
 2074               	.LBE429:
 2075               	.LBB431:
 2076               	.LBB432:
 2077               	.LM235:
 2078 09ce EE58      		subi r30,lo8(-(114))
 2079 09d0 FF4F      		sbci r31,hi8(-(114))
 2080 09d2 2081      		ld r18,Z
 2081 09d4 3181      		ldd r19,Z+1
 2082 09d6 4281      		ldd r20,Z+2
 2083 09d8 5381      		ldd r21,Z+3
 2084 09da 820F      		add r24,r18
 2085 09dc 931F      		adc r25,r19
 2086 09de A41F      		adc r26,r20
 2087 09e0 B51F      		adc r27,r21
 2088 09e2 B293      		st -Z,r27
 2089 09e4 A293      		st -Z,r26
 2090 09e6 9293      		st -Z,r25
 2091 09e8 8293      		st -Z,r24
 2092               	.L116:
 2093               	/* epilogue start */
 2094               	.LBE432:
 2095               	.LBE431:
 2096               	.LM236:
 2097 09ea DF91      		pop r29
 2098 09ec CF91      		pop r28
 2099 09ee 1F91      		pop r17
 2100 09f0 0F91      		pop r16
 2101 09f2 0895      		ret
 2102               	.LFE40:
 2104               	.global	Timebase_DownCounter_Expired
 2106               	Timebase_DownCounter_Expired:
 2107               	.LFB41:
 2108               	.LM237:
 2109               	.LVL117:
 2110               	/* prologue: function */
 2111               	/* frame size = 0 */
 2112               	.LM238:
 2113 09f4 40E0      		ldi r20,lo8(0)
 2114 09f6 E091 0000 		lds r30,Timebase
 2115 09fa F091 0000 		lds r31,(Timebase)+1
 2116 09fe 90E0      		ldi r25,lo8(0)
 2117               	.LVL118:
 2118 0a00 2DE0      		ldi r18,lo8(13)
 2119 0a02 30E0      		ldi r19,hi8(13)
 2120 0a04 BC01      		movw r22,r24
 2121 0a06 629F      		mul r22,r18
 2122 0a08 C001      		movw r24,r0
 2123 0a0a 639F      		mul r22,r19
 2124 0a0c 900D      		add r25,r0
 2125 0a0e 729F      		mul r23,r18
 2126 0a10 900D      		add r25,r0
 2127 0a12 1124      		clr r1
 2128               	.LVL119:
 2129 0a14 E80F      		add r30,r24
 2130 0a16 F91F      		adc r31,r25
 2131 0a18 E359      		subi r30,lo8(-(109))
 2132 0a1a FF4F      		sbci r31,hi8(-(109))
 2133 0a1c 8081      		ld r24,Z
 2134 0a1e 8695      		lsr r24
 2135 0a20 8F70      		andi r24,lo8(15)
 2136 0a22 8430      		cpi r24,lo8(4)
 2137 0a24 01F4      		brne .L118
 2138 0a26 41E0      		ldi r20,lo8(1)
 2139               	.L118:
 2140               	.LM239:
 2141 0a28 842F      		mov r24,r20
 2142               	/* epilogue start */
 2143 0a2a 0895      		ret
 2144               	.LFE41:
 2146               	.global	Timebase_DownCounter_Expired_Event
 2148               	Timebase_DownCounter_Expired_Event:
 2149               	.LFB42:
 2150               	.LM240:
 2151               	.LVL120:
 2152               	/* prologue: function */
 2153               	/* frame size = 0 */
 2154               	.LBB433:
 2155               	.LBB434:
 2156               	.LM241:
 2157 0a2c E091 0000 		lds r30,Timebase
 2158 0a30 F091 0000 		lds r31,(Timebase)+1
 2159 0a34 90E0      		ldi r25,lo8(0)
 2160               	.LBE434:
 2161               	.LBE433:
 2162               	.LM242:
 2163 0a36 2DE0      		ldi r18,lo8(13)
 2164 0a38 30E0      		ldi r19,hi8(13)
 2165 0a3a AC01      		movw r20,r24
 2166               	.LVL121:
 2167 0a3c 429F      		mul r20,r18
 2168 0a3e C001      		movw r24,r0
 2169 0a40 439F      		mul r20,r19
 2170 0a42 900D      		add r25,r0
 2171 0a44 529F      		mul r21,r18
 2172 0a46 900D      		add r25,r0
 2173 0a48 1124      		clr r1
 2174 0a4a E80F      		add r30,r24
 2175 0a4c F91F      		adc r31,r25
 2176 0a4e DF01      		movw r26,r30
 2177 0a50 A359      		subi r26,lo8(-(109))
 2178 0a52 BF4F      		sbci r27,hi8(-(109))
 2179 0a54 8C91      		ld r24,X
 2180 0a56 8695      		lsr r24
 2181 0a58 8F70      		andi r24,lo8(15)
 2182 0a5a 8430      		cpi r24,lo8(4)
 2183 0a5c 01F0      		breq .L121
 2184 0a5e 80E0      		ldi r24,lo8(0)
 2185 0a60 0895      		ret
 2186               	.L121:
 2187               	.LBB435:
 2188               	.LBB436:
 2189               	.LBB437:
 2190               	.LBB438:
 2191               	.LBB439:
 2192               	.LBB440:
 2193               	.LM243:
 2194 0a62 E259      		subi r30,lo8(-(110))
 2195 0a64 FF4F      		sbci r31,hi8(-(110))
 2196 0a66 1192      		st Z+,__zero_reg__
 2197 0a68 1192      		st Z+,__zero_reg__
 2198 0a6a 1192      		st Z+,__zero_reg__
 2199 0a6c 1192      		st Z+,__zero_reg__
 2200               	.LBE440:
 2201               	.LBE439:
 2202               	.LBB441:
 2203               	.LBB442:
 2204               	.LM244:
 2205 0a6e 1082      		st Z,__zero_reg__
 2206 0a70 1182      		std Z+1,__zero_reg__
 2207 0a72 1282      		std Z+2,__zero_reg__
 2208 0a74 1382      		std Z+3,__zero_reg__
 2209               	.LBE442:
 2210               	.LBE441:
 2211               	.LBB443:
 2212               	.LBB444:
 2213               	.LM245:
 2214 0a76 8C91      		ld r24,X
 2215               	.LBE444:
 2216               	.LBE443:
 2217               	.LBB445:
 2218               	.LBB446:
 2219               	.LM246:
 2220 0a78 807E      		andi r24,lo8(-32)
 2221 0a7a 8C93      		st X,r24
 2222 0a7c 81E0      		ldi r24,lo8(1)
 2223               	.LBE446:
 2224               	.LBE445:
 2225               	.LBE438:
 2226               	.LBE437:
 2227               	.LBE436:
 2228               	.LBE435:
 2229               	.LM247:
 2230 0a7e 0895      		ret
 2231               	.LFE42:
 2233               	.global	Timebase_DownCounter_Set_Period_Value_Securely
 2235               	Timebase_DownCounter_Set_Period_Value_Securely:
 2236               	.LFB43:
 2237               	.LM248:
 2238               	.LVL122:
 2239 0a80 CF93      		push r28
 2240 0a82 DF93      		push r29
 2241               	/* prologue: function */
 2242               	/* frame size = 0 */
 2243               	.LBB447:
 2244               	.LBB448:
 2245               	.LM249:
 2246 0a84 C091 0000 		lds r28,Timebase
 2247 0a88 D091 0000 		lds r29,(Timebase)+1
 2248 0a8c 282F      		mov r18,r24
 2249 0a8e 30E0      		ldi r19,lo8(0)
 2250               	.LBE448:
 2251               	.LBE447:
 2252               	.LM250:
 2253 0a90 8DE0      		ldi r24,lo8(13)
 2254 0a92 90E0      		ldi r25,hi8(13)
 2255               	.LVL123:
 2256 0a94 289F      		mul r18,r24
 2257 0a96 F001      		movw r30,r0
 2258 0a98 299F      		mul r18,r25
 2259 0a9a F00D      		add r31,r0
 2260 0a9c 389F      		mul r19,r24
 2261 0a9e F00D      		add r31,r0
 2262 0aa0 1124      		clr r1
 2263 0aa2 EC0F      		add r30,r28
 2264 0aa4 FD1F      		adc r31,r29
 2265 0aa6 E359      		subi r30,lo8(-(109))
 2266 0aa8 FF4F      		sbci r31,hi8(-(109))
 2267 0aaa 8081      		ld r24,Z
 2268 0aac ED56      		subi r30,lo8(-(-109))
 2269 0aae F040      		sbci r31,hi8(-(-109))
 2270 0ab0 80FD      		sbrc r24,0
 2271 0ab2 00C0      		rjmp .L128
 2272               	.LM251:
 2273 0ab4 EE58      		subi r30,lo8(-(114))
 2274 0ab6 FF4F      		sbci r31,hi8(-(114))
 2275 0ab8 8191      		ld r24,Z+
 2276 0aba 9191      		ld r25,Z+
 2277 0abc A191      		ld r26,Z+
 2278 0abe B191      		ld r27,Z+
 2279 0ac0 841B      		sub r24,r20
 2280 0ac2 950B      		sbc r25,r21
 2281 0ac4 A60B      		sbc r26,r22
 2282 0ac6 B70B      		sbc r27,r23
 2283               	.LBB449:
 2284               	.LBB450:
 2285               	.LM252:
 2286 0ac8 B7FF      		sbrs r27,7
 2287 0aca 00C0      		rjmp .L126
 2288               	.LM253:
 2289 0acc 1082      		st Z,__zero_reg__
 2290 0ace 1182      		std Z+1,__zero_reg__
 2291 0ad0 1282      		std Z+2,__zero_reg__
 2292 0ad2 1382      		std Z+3,__zero_reg__
 2293 0ad4 00C0      		rjmp .L127
 2294               	.L126:
 2295               	.LM254:
 2296 0ad6 8083      		st Z,r24
 2297 0ad8 9183      		std Z+1,r25
 2298 0ada A283      		std Z+2,r26
 2299 0adc B383      		std Z+3,r27
 2300               	.L127:
 2301               	.LBE450:
 2302               	.LBE449:
 2303               	.LBB451:
 2304               	.LBB452:
 2305               	.LM255:
 2306 0ade 8DE0      		ldi r24,lo8(13)
 2307 0ae0 90E0      		ldi r25,hi8(13)
 2308 0ae2 289F      		mul r18,r24
 2309 0ae4 F001      		movw r30,r0
 2310 0ae6 299F      		mul r18,r25
 2311 0ae8 F00D      		add r31,r0
 2312 0aea 389F      		mul r19,r24
 2313 0aec F00D      		add r31,r0
 2314 0aee 1124      		clr r1
 2315 0af0 EC0F      		add r30,r28
 2316 0af2 FD1F      		adc r31,r29
 2317 0af4 E359      		subi r30,lo8(-(109))
 2318 0af6 FF4F      		sbci r31,hi8(-(109))
 2319 0af8 8081      		ld r24,Z
 2320 0afa 8160      		ori r24,lo8(1)
 2321 0afc 8083      		st Z,r24
 2322               	.L128:
 2323               	/* epilogue start */
 2324               	.LBE452:
 2325               	.LBE451:
 2326               	.LM256:
 2327 0afe DF91      		pop r29
 2328 0b00 CF91      		pop r28
 2329 0b02 0895      		ret
 2330               	.LFE43:
 2332               	.global	Timebase_DownCounter_Get_Remaining_Period_Value
 2334               	Timebase_DownCounter_Get_Remaining_Period_Value:
 2335               	.LFB44:
 2336               	.LM257:
 2337               	.LVL124:
 2338               	/* prologue: function */
 2339               	/* frame size = 0 */
 2340               	.LBB453:
 2341               	.LBB454:
 2342               	.LM258:
 2343 0b04 E091 0000 		lds r30,Timebase
 2344 0b08 F091 0000 		lds r31,(Timebase)+1
 2345 0b0c 90E0      		ldi r25,lo8(0)
 2346               	.LBE454:
 2347               	.LBE453:
 2348               	.LM259:
 2349 0b0e 2DE0      		ldi r18,lo8(13)
 2350 0b10 30E0      		ldi r19,hi8(13)
 2351 0b12 AC01      		movw r20,r24
 2352               	.LVL125:
 2353 0b14 429F      		mul r20,r18
 2354 0b16 C001      		movw r24,r0
 2355 0b18 439F      		mul r20,r19
 2356 0b1a 900D      		add r25,r0
 2357 0b1c 529F      		mul r21,r18
 2358 0b1e 900D      		add r25,r0
 2359 0b20 1124      		clr r1
 2360 0b22 E80F      		add r30,r24
 2361 0b24 F91F      		adc r31,r25
 2362 0b26 DF01      		movw r26,r30
 2363 0b28 AA58      		subi r26,lo8(-(118))
 2364 0b2a BF4F      		sbci r27,hi8(-(118))
 2365 0b2c EE58      		subi r30,lo8(-(114))
 2366 0b2e FF4F      		sbci r31,hi8(-(114))
 2367 0b30 2081      		ld r18,Z
 2368 0b32 3181      		ldd r19,Z+1
 2369 0b34 4281      		ldd r20,Z+2
 2370 0b36 5381      		ldd r21,Z+3
 2371               	.LVL126:
 2372 0b38 8D91      		ld r24,X+
 2373 0b3a 9D91      		ld r25,X+
 2374 0b3c 0D90      		ld __tmp_reg__,X+
 2375 0b3e BC91      		ld r27,X
 2376 0b40 A02D      		mov r26,__tmp_reg__
 2377 0b42 281B      		sub r18,r24
 2378 0b44 390B      		sbc r19,r25
 2379 0b46 4A0B      		sbc r20,r26
 2380 0b48 5B0B      		sbc r21,r27
 2381 0b4a 57FF      		sbrs r21,7
 2382 0b4c 00C0      		rjmp .L130
 2383 0b4e 20E0      		ldi r18,lo8(0)
 2384 0b50 30E0      		ldi r19,hi8(0)
 2385 0b52 40E0      		ldi r20,hlo8(0)
 2386 0b54 50E0      		ldi r21,hhi8(0)
 2387               	.L130:
 2388               	.LM260:
 2389 0b56 B901      		movw r22,r18
 2390               	.LVL127:
 2391 0b58 CA01      		movw r24,r20
 2392               	/* epilogue start */
 2393 0b5a 0895      		ret
 2394               	.LFE44:
 2396               	.global	Timebase_DownCounter_Period_Value_Expired
 2398               	Timebase_DownCounter_Period_Value_Expired:
 2399               	.LFB45:
 2400               	.LM261:
 2401               	.LVL128:
 2402 0b5c CF93      		push r28
 2403 0b5e DF93      		push r29
 2404               	/* prologue: function */
 2405               	/* frame size = 0 */
 2406               	.LBB455:
 2407               	.LBB456:
 2408               	.LBB457:
 2409               	.LBB458:
 2410               	.LM262:
 2411 0b60 C091 0000 		lds r28,Timebase
 2412 0b64 D091 0000 		lds r29,(Timebase)+1
 2413 0b68 682F      		mov r22,r24
 2414 0b6a 70E0      		ldi r23,lo8(0)
 2415               	.LBE458:
 2416               	.LBE457:
 2417               	.LM263:
 2418 0b6c 8DE0      		ldi r24,lo8(13)
 2419 0b6e 90E0      		ldi r25,hi8(13)
 2420               	.LVL129:
 2421 0b70 689F      		mul r22,r24
 2422 0b72 F001      		movw r30,r0
 2423 0b74 699F      		mul r22,r25
 2424 0b76 F00D      		add r31,r0
 2425 0b78 789F      		mul r23,r24
 2426 0b7a F00D      		add r31,r0
 2427 0b7c 1124      		clr r1
 2428 0b7e EC0F      		add r30,r28
 2429 0b80 FD1F      		adc r31,r29
 2430 0b82 DF01      		movw r26,r30
 2431 0b84 AA58      		subi r26,lo8(-(118))
 2432 0b86 BF4F      		sbci r27,hi8(-(118))
 2433 0b88 EE58      		subi r30,lo8(-(114))
 2434 0b8a FF4F      		sbci r31,hi8(-(114))
 2435 0b8c 2081      		ld r18,Z
 2436 0b8e 3181      		ldd r19,Z+1
 2437 0b90 4281      		ldd r20,Z+2
 2438 0b92 5381      		ldd r21,Z+3
 2439               	.LVL130:
 2440 0b94 8D91      		ld r24,X+
 2441 0b96 9D91      		ld r25,X+
 2442 0b98 0D90      		ld __tmp_reg__,X+
 2443 0b9a BC91      		ld r27,X
 2444 0b9c A02D      		mov r26,__tmp_reg__
 2445 0b9e 281B      		sub r18,r24
 2446 0ba0 390B      		sbc r19,r25
 2447 0ba2 4A0B      		sbc r20,r26
 2448 0ba4 5B0B      		sbc r21,r27
 2449               	.LM264:
 2450 0ba6 57FD      		sbrc r21,7
 2451 0ba8 00C0      		rjmp .L133
 2452               	.LBE456:
 2453               	.LBE455:
 2454               	.LM265:
 2455 0baa 2115      		cp r18,__zero_reg__
 2456 0bac 3105      		cpc r19,__zero_reg__
 2457 0bae 4105      		cpc r20,__zero_reg__
 2458 0bb0 5105      		cpc r21,__zero_reg__
 2459 0bb2 01F0      		breq .L133
 2460 0bb4 20E0      		ldi r18,lo8(0)
 2461               	.LVL131:
 2462 0bb6 00C0      		rjmp .L134
 2463               	.LVL132:
 2464               	.L133:
 2465 0bb8 20E0      		ldi r18,lo8(0)
 2466               	.LVL133:
 2467 0bba 8DE0      		ldi r24,lo8(13)
 2468 0bbc 90E0      		ldi r25,hi8(13)
 2469 0bbe AC01      		movw r20,r24
 2470 0bc0 649F      		mul r22,r20
 2471 0bc2 C001      		movw r24,r0
 2472 0bc4 659F      		mul r22,r21
 2473 0bc6 900D      		add r25,r0
 2474 0bc8 749F      		mul r23,r20
 2475 0bca 900D      		add r25,r0
 2476 0bcc 1124      		clr r1
 2477 0bce C80F      		add r28,r24
 2478 0bd0 D91F      		adc r29,r25
 2479 0bd2 C359      		subi r28,lo8(-(109))
 2480 0bd4 DF4F      		sbci r29,hi8(-(109))
 2481 0bd6 8881      		ld r24,Y
 2482 0bd8 80FF      		sbrs r24,0
 2483 0bda 21E0      		ldi r18,lo8(1)
 2484               	.L135:
 2485 0bdc 81E0      		ldi r24,lo8(1)
 2486 0bde 2827      		eor r18,r24
 2487               	.L134:
 2488               	.LM266:
 2489 0be0 822F      		mov r24,r18
 2490               	/* epilogue start */
 2491 0be2 DF91      		pop r29
 2492 0be4 CF91      		pop r28
 2493 0be6 0895      		ret
 2494               	.LFE45:
 2496               	.global	Timebase_DownCounter_Period_Value_Expired_Event
 2498               	Timebase_DownCounter_Period_Value_Expired_Event:
 2499               	.LFB46:
 2500               	.LM267:
 2501               	.LVL134:
 2502 0be8 1F93      		push r17
 2503               	/* prologue: function */
 2504               	/* frame size = 0 */
 2505 0bea 182F      		mov r17,r24
 2506               	.LM268:
 2507 0bec 0E94 0000 		call Timebase_DownCounter_Period_Value_Expired
 2508               	.LVL135:
 2509 0bf0 8130      		cpi r24,lo8(1)
 2510 0bf2 01F0      		breq .L138
 2511 0bf4 80E0      		ldi r24,lo8(0)
 2512 0bf6 00C0      		rjmp .L139
 2513               	.L138:
 2514               	.LBB459:
 2515               	.LBB460:
 2516               	.LM269:
 2517 0bf8 E091 0000 		lds r30,Timebase
 2518 0bfc F091 0000 		lds r31,(Timebase)+1
 2519 0c00 212F      		mov r18,r17
 2520 0c02 30E0      		ldi r19,lo8(0)
 2521               	.LVL136:
 2522 0c04 8DE0      		ldi r24,lo8(13)
 2523 0c06 90E0      		ldi r25,hi8(13)
 2524 0c08 AC01      		movw r20,r24
 2525 0c0a 249F      		mul r18,r20
 2526 0c0c C001      		movw r24,r0
 2527 0c0e 259F      		mul r18,r21
 2528 0c10 900D      		add r25,r0
 2529 0c12 349F      		mul r19,r20
 2530 0c14 900D      		add r25,r0
 2531 0c16 1124      		clr r1
 2532 0c18 E80F      		add r30,r24
 2533 0c1a F91F      		adc r31,r25
 2534 0c1c E359      		subi r30,lo8(-(109))
 2535 0c1e FF4F      		sbci r31,hi8(-(109))
 2536 0c20 8081      		ld r24,Z
 2537 0c22 8E7F      		andi r24,lo8(-2)
 2538 0c24 8083      		st Z,r24
 2539 0c26 81E0      		ldi r24,lo8(1)
 2540               	.L139:
 2541               	/* epilogue start */
 2542               	.LBE460:
 2543               	.LBE459:
 2544               	.LM270:
 2545 0c28 1F91      		pop r17
 2546               	.LVL137:
 2547 0c2a 0895      		ret
 2548               	.LFE46:
 2550               	.global	Timebase_DownCounter_Update_All
 2552               	Timebase_DownCounter_Update_All:
 2553               	.LFB47:
 2554               	.LM271:
 2555 0c2c 1F93      		push r17
 2556               	/* prologue: function */
 2557               	/* frame size = 0 */
 2558               	.LM272:
 2559 0c2e 10E0      		ldi r17,lo8(0)
 2560               	.LVL138:
 2561               	.L142:
 2562               	.LBB461:
 2563               	.LM273:
 2564 0c30 812F      		mov r24,r17
 2565 0c32 0E94 0000 		call Timebase_DownCounter_Update
 2566               	.LM274:
 2567 0c36 1F5F      		subi r17,lo8(-(1))
 2568 0c38 1530      		cpi r17,lo8(5)
 2569 0c3a 01F4      		brne .L142
 2570               	/* epilogue start */
 2571               	.LBE461:
 2572               	.LM275:
 2573 0c3c 1F91      		pop r17
 2574               	.LVL139:
 2575 0c3e 0895      		ret
 2576               	.LFE47:
 2578               	.global	Timebase_DownCounter_Reset_All
 2580               	Timebase_DownCounter_Reset_All:
 2581               	.LFB48:
 2582               	.LM276:
 2583               	/* prologue: function */
 2584               	/* frame size = 0 */
 2585               	.LBB462:
 2586               	.LBB463:
 2587               	.LBB464:
 2588               	.LBB465:
 2589               	.LBB466:
 2590               	.LM277:
 2591 0c40 4091 0000 		lds r20,Timebase
 2592 0c44 5091 0000 		lds r21,(Timebase)+1
 2593 0c48 DA01      		movw r26,r20
 2594 0c4a A259      		subi r26,lo8(-(110))
 2595 0c4c BF4F      		sbci r27,hi8(-(110))
 2596 0c4e 20E0      		ldi r18,lo8(0)
 2597 0c50 30E0      		ldi r19,hi8(0)
 2598               	.LBE466:
 2599               	.LBE465:
 2600               	.LBB468:
 2601               	.LBB469:
 2602               	.LM278:
 2603 0c52 6DE0      		ldi r22,lo8(13)
 2604 0c54 70E0      		ldi r23,hi8(13)
 2605               	.L146:
 2606               	.LBE469:
 2607               	.LBE468:
 2608               	.LBB471:
 2609               	.LBB467:
 2610               	.LM279:
 2611 0c56 1D92      		st X+,__zero_reg__
 2612 0c58 1D92      		st X+,__zero_reg__
 2613 0c5a 1D92      		st X+,__zero_reg__
 2614 0c5c 1C92      		st X,__zero_reg__
 2615 0c5e 1397      		sbiw r26,3
 2616               	.LBE467:
 2617               	.LBE471:
 2618               	.LBB472:
 2619               	.LBB473:
 2620               	.LM280:
 2621 0c60 1496      		adiw r26,4
 2622 0c62 1D92      		st X+,__zero_reg__
 2623 0c64 1D92      		st X+,__zero_reg__
 2624 0c66 1D92      		st X+,__zero_reg__
 2625 0c68 1C92      		st X,__zero_reg__
 2626 0c6a 1797      		sbiw r26,4+3
 2627               	.LBE473:
 2628               	.LBE472:
 2629               	.LBB474:
 2630               	.LBB470:
 2631               	.LM281:
 2632 0c6c 269F      		mul r18,r22
 2633 0c6e F001      		movw r30,r0
 2634 0c70 279F      		mul r18,r23
 2635 0c72 F00D      		add r31,r0
 2636 0c74 369F      		mul r19,r22
 2637 0c76 F00D      		add r31,r0
 2638 0c78 1124      		clr r1
 2639 0c7a E40F      		add r30,r20
 2640 0c7c F51F      		adc r31,r21
 2641 0c7e E359      		subi r30,lo8(-(109))
 2642 0c80 FF4F      		sbci r31,hi8(-(109))
 2643 0c82 8081      		ld r24,Z
 2644               	.LBE470:
 2645               	.LBE474:
 2646               	.LBB475:
 2647               	.LBB476:
 2648               	.LM282:
 2649 0c84 807E      		andi r24,lo8(-32)
 2650 0c86 8083      		st Z,r24
 2651 0c88 2F5F      		subi r18,lo8(-(1))
 2652 0c8a 3F4F      		sbci r19,hi8(-(1))
 2653 0c8c 1D96      		adiw r26,13
 2654               	.LBE476:
 2655               	.LBE475:
 2656               	.LBE464:
 2657               	.LBE463:
 2658               	.LM283:
 2659 0c8e 2530      		cpi r18,5
 2660 0c90 3105      		cpc r19,__zero_reg__
 2661 0c92 01F4      		brne .L146
 2662               	/* epilogue start */
 2663               	.LBE462:
 2664               	.LM284:
 2665 0c94 0895      		ret
 2666               	.LFE48:
 2668               	.global	Timebase_DownCounter_SS_Get_Status
 2670               	Timebase_DownCounter_SS_Get_Status:
 2671               	.LFB49:
 2672               	.LM285:
 2673               	.LVL140:
 2674               	/* prologue: function */
 2675               	/* frame size = 0 */
 2676               	.LM286:
 2677 0c96 E091 0000 		lds r30,Timebase
 2678 0c9a F091 0000 		lds r31,(Timebase)+1
 2679 0c9e 90E0      		ldi r25,lo8(0)
 2680               	.LVL141:
 2681 0ca0 9C01      		movw r18,r24
 2682 0ca2 44E0      		ldi r20,4
 2683 0ca4 220F      	1:	lsl r18
 2684 0ca6 331F      		rol r19
 2685 0ca8 4A95      		dec r20
 2686 0caa 01F4      		brne 1b
 2687 0cac 280F      		add r18,r24
 2688 0cae 391F      		adc r19,r25
 2689 0cb0 E20F      		add r30,r18
 2690 0cb2 F31F      		adc r31,r19
 2691 0cb4 808D      		ldd r24,Z+24
 2692               	.LVL142:
 2693 0cb6 8695      		lsr r24
 2694               	.LM287:
 2695 0cb8 8F70      		andi r24,lo8(15)
 2696               	/* epilogue start */
 2697 0cba 0895      		ret
 2698               	.LFE49:
 2700               	.global	Timebase_DownCounter_SS_Set_Status
 2702               	Timebase_DownCounter_SS_Set_Status:
 2703               	.LFB50:
 2704               	.LM288:
 2705               	.LVL143:
 2706               	/* prologue: function */
 2707               	/* frame size = 0 */
 2708               	.LM289:
 2709 0cbc E091 0000 		lds r30,Timebase
 2710 0cc0 F091 0000 		lds r31,(Timebase)+1
 2711 0cc4 90E0      		ldi r25,lo8(0)
 2712               	.LVL144:
 2713 0cc6 9C01      		movw r18,r24
 2714 0cc8 54E0      		ldi r21,4
 2715 0cca 220F      	1:	lsl r18
 2716 0ccc 331F      		rol r19
 2717 0cce 5A95      		dec r21
 2718 0cd0 01F4      		brne 1b
 2719 0cd2 280F      		add r18,r24
 2720 0cd4 391F      		adc r19,r25
 2721 0cd6 E20F      		add r30,r18
 2722 0cd8 F31F      		adc r31,r19
 2723 0cda 6F70      		andi r22,lo8(15)
 2724               	.LVL145:
 2725 0cdc 660F      		lsl r22
 2726 0cde 808D      		ldd r24,Z+24
 2727               	.LVL146:
 2728 0ce0 817E      		andi r24,lo8(-31)
 2729 0ce2 862B      		or r24,r22
 2730 0ce4 808F      		std Z+24,r24
 2731               	/* epilogue start */
 2732               	.LM290:
 2733 0ce6 0895      		ret
 2734               	.LFE50:
 2736               	.global	Timebase_DownCounter_SS_Get_Value
 2738               	Timebase_DownCounter_SS_Get_Value:
 2739               	.LFB51:
 2740               	.LM291:
 2741               	.LVL147:
 2742               	/* prologue: function */
 2743               	/* frame size = 0 */
 2744               	.LM292:
 2745 0ce8 E091 0000 		lds r30,Timebase
 2746 0cec F091 0000 		lds r31,(Timebase)+1
 2747 0cf0 90E0      		ldi r25,lo8(0)
 2748               	.LVL148:
 2749 0cf2 9C01      		movw r18,r24
 2750 0cf4 64E0      		ldi r22,4
 2751 0cf6 220F      	1:	lsl r18
 2752 0cf8 331F      		rol r19
 2753 0cfa 6A95      		dec r22
 2754 0cfc 01F4      		brne 1b
 2755 0cfe 280F      		add r18,r24
 2756 0d00 391F      		adc r19,r25
 2757 0d02 E20F      		add r30,r18
 2758 0d04 F31F      		adc r31,r19
 2759 0d06 DF01      		movw r26,r30
 2760 0d08 9196      		adiw r26,33
 2761 0d0a 61A1      		ldd r22,Z+33
 2762 0d0c 1196      		adiw r26,1
 2763 0d0e 7C91      		ld r23,X
 2764 0d10 1197      		sbiw r26,1
 2765               	.LM293:
 2766 0d12 1296      		adiw r26,2
 2767 0d14 8C91      		ld r24,X
 2768 0d16 1297      		sbiw r26,2
 2769               	.LVL149:
 2770 0d18 1396      		adiw r26,3
 2771 0d1a 9C91      		ld r25,X
 2772               	.LVL150:
 2773               	/* epilogue start */
 2774 0d1c 0895      		ret
 2775               	.LFE51:
 2777               	.global	Timebase_DownCounter_SS_Set_Value
 2779               	Timebase_DownCounter_SS_Set_Value:
 2780               	.LFB52:
 2781               	.LM294:
 2782               	.LVL151:
 2783               	/* prologue: function */
 2784               	/* frame size = 0 */
 2785               	.LM295:
 2786 0d1e E091 0000 		lds r30,Timebase
 2787 0d22 F091 0000 		lds r31,(Timebase)+1
 2788 0d26 90E0      		ldi r25,lo8(0)
 2789               	.LVL152:
 2790 0d28 9C01      		movw r18,r24
 2791 0d2a A4E0      		ldi r26,4
 2792 0d2c 220F      	1:	lsl r18
 2793 0d2e 331F      		rol r19
 2794 0d30 AA95      		dec r26
 2795 0d32 01F4      		brne 1b
 2796 0d34 280F      		add r18,r24
 2797 0d36 391F      		adc r19,r25
 2798 0d38 E20F      		add r30,r18
 2799 0d3a F31F      		adc r31,r19
 2800 0d3c 41A3      		std Z+33,r20
 2801 0d3e 52A3      		std Z+34,r21
 2802 0d40 63A3      		std Z+35,r22
 2803 0d42 74A3      		std Z+36,r23
 2804               	/* epilogue start */
 2805               	.LM296:
 2806 0d44 0895      		ret
 2807               	.LFE52:
 2809               	.global	Timebase_DownCounter_SS_Get_EndValueSec
 2811               	Timebase_DownCounter_SS_Get_EndValueSec:
 2812               	.LFB53:
 2813               	.LM297:
 2814               	.LVL153:
 2815               	/* prologue: function */
 2816               	/* frame size = 0 */
 2817               	.LM298:
 2818 0d46 E091 0000 		lds r30,Timebase
 2819 0d4a F091 0000 		lds r31,(Timebase)+1
 2820 0d4e 90E0      		ldi r25,lo8(0)
 2821               	.LVL154:
 2822 0d50 9C01      		movw r18,r24
 2823 0d52 B4E0      		ldi r27,4
 2824 0d54 220F      	1:	lsl r18
 2825 0d56 331F      		rol r19
 2826 0d58 BA95      		dec r27
 2827 0d5a 01F4      		brne 1b
 2828 0d5c 280F      		add r18,r24
 2829 0d5e 391F      		adc r19,r25
 2830 0d60 E20F      		add r30,r18
 2831 0d62 F31F      		adc r31,r19
 2832 0d64 DF01      		movw r26,r30
 2833 0d66 5996      		adiw r26,25
 2834 0d68 618D      		ldd r22,Z+25
 2835 0d6a 1196      		adiw r26,1
 2836 0d6c 7C91      		ld r23,X
 2837 0d6e 1197      		sbiw r26,1
 2838               	.LM299:
 2839 0d70 1296      		adiw r26,2
 2840 0d72 8C91      		ld r24,X
 2841 0d74 1297      		sbiw r26,2
 2842               	.LVL155:
 2843 0d76 1396      		adiw r26,3
 2844 0d78 9C91      		ld r25,X
 2845               	.LVL156:
 2846               	/* epilogue start */
 2847 0d7a 0895      		ret
 2848               	.LFE53:
 2850               	.global	Timebase_DownCounter_SS_Get_EndValueSubSec
 2852               	Timebase_DownCounter_SS_Get_EndValueSubSec:
 2853               	.LFB54:
 2854               	.LM300:
 2855               	.LVL157:
 2856               	/* prologue: function */
 2857               	/* frame size = 0 */
 2858               	.LM301:
 2859 0d7c E091 0000 		lds r30,Timebase
 2860 0d80 F091 0000 		lds r31,(Timebase)+1
 2861 0d84 90E0      		ldi r25,lo8(0)
 2862               	.LVL158:
 2863 0d86 9C01      		movw r18,r24
 2864 0d88 44E0      		ldi r20,4
 2865 0d8a 220F      	1:	lsl r18
 2866 0d8c 331F      		rol r19
 2867 0d8e 4A95      		dec r20
 2868 0d90 01F4      		brne 1b
 2869 0d92 280F      		add r18,r24
 2870 0d94 391F      		adc r19,r25
 2871 0d96 E20F      		add r30,r18
 2872 0d98 F31F      		adc r31,r19
 2873 0d9a DF01      		movw r26,r30
 2874 0d9c 5D96      		adiw r26,29
 2875 0d9e 658D      		ldd r22,Z+29
 2876 0da0 1196      		adiw r26,1
 2877 0da2 7C91      		ld r23,X
 2878 0da4 1197      		sbiw r26,1
 2879               	.LM302:
 2880 0da6 1296      		adiw r26,2
 2881 0da8 8C91      		ld r24,X
 2882 0daa 1297      		sbiw r26,2
 2883               	.LVL159:
 2884 0dac 1396      		adiw r26,3
 2885 0dae 9C91      		ld r25,X
 2886               	.LVL160:
 2887               	/* epilogue start */
 2888 0db0 0895      		ret
 2889               	.LFE54:
 2891               	.global	Timebase_DownCounter_SS_Set_EndValueSec
 2893               	Timebase_DownCounter_SS_Set_EndValueSec:
 2894               	.LFB55:
 2895               	.LM303:
 2896               	.LVL161:
 2897               	/* prologue: function */
 2898               	/* frame size = 0 */
 2899               	.LM304:
 2900 0db2 E091 0000 		lds r30,Timebase
 2901 0db6 F091 0000 		lds r31,(Timebase)+1
 2902 0dba 90E0      		ldi r25,lo8(0)
 2903               	.LVL162:
 2904 0dbc 9C01      		movw r18,r24
 2905 0dbe A4E0      		ldi r26,4
 2906 0dc0 220F      	1:	lsl r18
 2907 0dc2 331F      		rol r19
 2908 0dc4 AA95      		dec r26
 2909 0dc6 01F4      		brne 1b
 2910 0dc8 280F      		add r18,r24
 2911 0dca 391F      		adc r19,r25
 2912 0dcc E20F      		add r30,r18
 2913 0dce F31F      		adc r31,r19
 2914 0dd0 418F      		std Z+25,r20
 2915 0dd2 528F      		std Z+26,r21
 2916 0dd4 638F      		std Z+27,r22
 2917 0dd6 748F      		std Z+28,r23
 2918               	/* epilogue start */
 2919               	.LM305:
 2920 0dd8 0895      		ret
 2921               	.LFE55:
 2923               	.global	Timebase_DownCounter_SS_Set_EndValueSubSec
 2925               	Timebase_DownCounter_SS_Set_EndValueSubSec:
 2926               	.LFB56:
 2927               	.LM306:
 2928               	.LVL163:
 2929               	/* prologue: function */
 2930               	/* frame size = 0 */
 2931               	.LM307:
 2932 0dda E091 0000 		lds r30,Timebase
 2933 0dde F091 0000 		lds r31,(Timebase)+1
 2934 0de2 90E0      		ldi r25,lo8(0)
 2935               	.LVL164:
 2936 0de4 9C01      		movw r18,r24
 2937 0de6 B4E0      		ldi r27,4
 2938 0de8 220F      	1:	lsl r18
 2939 0dea 331F      		rol r19
 2940 0dec BA95      		dec r27
 2941 0dee 01F4      		brne 1b
 2942 0df0 280F      		add r18,r24
 2943 0df2 391F      		adc r19,r25
 2944 0df4 E20F      		add r30,r18
 2945 0df6 F31F      		adc r31,r19
 2946 0df8 458F      		std Z+29,r20
 2947 0dfa 568F      		std Z+30,r21
 2948 0dfc 678F      		std Z+31,r22
 2949 0dfe 70A3      		std Z+32,r23
 2950               	/* epilogue start */
 2951               	.LM308:
 2952 0e00 0895      		ret
 2953               	.LFE56:
 2955               	.global	Timebase_DownCounter_SS_Get_PeriodValue
 2957               	Timebase_DownCounter_SS_Get_PeriodValue:
 2958               	.LFB57:
 2959               	.LM309:
 2960               	.LVL165:
 2961               	/* prologue: function */
 2962               	/* frame size = 0 */
 2963               	.LM310:
 2964 0e02 E091 0000 		lds r30,Timebase
 2965 0e06 F091 0000 		lds r31,(Timebase)+1
 2966 0e0a 90E0      		ldi r25,lo8(0)
 2967               	.LVL166:
 2968 0e0c 9C01      		movw r18,r24
 2969 0e0e 44E0      		ldi r20,4
 2970 0e10 220F      	1:	lsl r18
 2971 0e12 331F      		rol r19
 2972 0e14 4A95      		dec r20
 2973 0e16 01F4      		brne 1b
 2974 0e18 280F      		add r18,r24
 2975 0e1a 391F      		adc r19,r25
 2976 0e1c E20F      		add r30,r18
 2977 0e1e F31F      		adc r31,r19
 2978 0e20 DF01      		movw r26,r30
 2979 0e22 9596      		adiw r26,37
 2980 0e24 65A1      		ldd r22,Z+37
 2981 0e26 1196      		adiw r26,1
 2982 0e28 7C91      		ld r23,X
 2983 0e2a 1197      		sbiw r26,1
 2984               	.LM311:
 2985 0e2c 1296      		adiw r26,2
 2986 0e2e 8C91      		ld r24,X
 2987 0e30 1297      		sbiw r26,2
 2988               	.LVL167:
 2989 0e32 1396      		adiw r26,3
 2990 0e34 9C91      		ld r25,X
 2991               	.LVL168:
 2992               	/* epilogue start */
 2993 0e36 0895      		ret
 2994               	.LFE57:
 2996               	.global	Timebase_DownCounter_SS_Set_PeriodValue
 2998               	Timebase_DownCounter_SS_Set_PeriodValue:
 2999               	.LFB58:
 3000               	.LM312:
 3001               	.LVL169:
 3002               	/* prologue: function */
 3003               	/* frame size = 0 */
 3004 0e38 E091 0000 		lds r30,Timebase
 3005 0e3c F091 0000 		lds r31,(Timebase)+1
 3006 0e40 282F      		mov r18,r24
 3007 0e42 30E0      		ldi r19,lo8(0)
 3008               	.LVL170:
 3009               	.LM313:
 3010 0e44 77FF      		sbrs r23,7
 3011 0e46 00C0      		rjmp .L168
 3012               	.LVL171:
 3013               	.LM314:
 3014 0e48 C901      		movw r24,r18
 3015 0e4a B4E0      		ldi r27,4
 3016 0e4c 880F      	1:	lsl r24
 3017 0e4e 991F      		rol r25
 3018 0e50 BA95      		dec r27
 3019 0e52 01F4      		brne 1b
 3020 0e54 820F      		add r24,r18
 3021 0e56 931F      		adc r25,r19
 3022 0e58 E80F      		add r30,r24
 3023 0e5a F91F      		adc r31,r25
 3024 0e5c 15A2      		std Z+37,__zero_reg__
 3025 0e5e 16A2      		std Z+38,__zero_reg__
 3026 0e60 17A2      		std Z+39,__zero_reg__
 3027 0e62 10A6      		std Z+40,__zero_reg__
 3028 0e64 0895      		ret
 3029               	.LVL172:
 3030               	.L168:
 3031               	.LM315:
 3032 0e66 C901      		movw r24,r18
 3033 0e68 A4E0      		ldi r26,4
 3034 0e6a 880F      	1:	lsl r24
 3035 0e6c 991F      		rol r25
 3036 0e6e AA95      		dec r26
 3037 0e70 01F4      		brne 1b
 3038 0e72 820F      		add r24,r18
 3039 0e74 931F      		adc r25,r19
 3040 0e76 E80F      		add r30,r24
 3041 0e78 F91F      		adc r31,r25
 3042 0e7a 45A3      		std Z+37,r20
 3043 0e7c 56A3      		std Z+38,r21
 3044 0e7e 67A3      		std Z+39,r22
 3045 0e80 70A7      		std Z+40,r23
 3046 0e82 0895      		ret
 3047               	.LFE58:
 3049               	.global	Timebase_DownCounter_SS_Get_Period_Flag
 3051               	Timebase_DownCounter_SS_Get_Period_Flag:
 3052               	.LFB59:
 3053               	.LM316:
 3054               	.LVL173:
 3055               	/* prologue: function */
 3056               	/* frame size = 0 */
 3057               	.LM317:
 3058 0e84 E091 0000 		lds r30,Timebase
 3059 0e88 F091 0000 		lds r31,(Timebase)+1
 3060 0e8c 90E0      		ldi r25,lo8(0)
 3061               	.LVL174:
 3062 0e8e 9C01      		movw r18,r24
 3063 0e90 44E0      		ldi r20,4
 3064 0e92 220F      	1:	lsl r18
 3065 0e94 331F      		rol r19
 3066 0e96 4A95      		dec r20
 3067 0e98 01F4      		brne 1b
 3068 0e9a 280F      		add r18,r24
 3069 0e9c 391F      		adc r19,r25
 3070 0e9e E20F      		add r30,r18
 3071 0ea0 F31F      		adc r31,r19
 3072 0ea2 808D      		ldd r24,Z+24
 3073               	.LVL175:
 3074               	.LM318:
 3075 0ea4 8170      		andi r24,lo8(1)
 3076               	/* epilogue start */
 3077 0ea6 0895      		ret
 3078               	.LFE59:
 3080               	.global	Timebase_DownCounter_SS_Set_Period_Flag
 3082               	Timebase_DownCounter_SS_Set_Period_Flag:
 3083               	.LFB60:
 3084               	.LM319:
 3085               	.LVL176:
 3086               	/* prologue: function */
 3087               	/* frame size = 0 */
 3088               	.LM320:
 3089 0ea8 E091 0000 		lds r30,Timebase
 3090 0eac F091 0000 		lds r31,(Timebase)+1
 3091 0eb0 90E0      		ldi r25,lo8(0)
 3092               	.LVL177:
 3093 0eb2 9C01      		movw r18,r24
 3094 0eb4 54E0      		ldi r21,4
 3095 0eb6 220F      	1:	lsl r18
 3096 0eb8 331F      		rol r19
 3097 0eba 5A95      		dec r21
 3098 0ebc 01F4      		brne 1b
 3099 0ebe 280F      		add r18,r24
 3100 0ec0 391F      		adc r19,r25
 3101 0ec2 E20F      		add r30,r18
 3102 0ec4 F31F      		adc r31,r19
 3103 0ec6 808D      		ldd r24,Z+24
 3104               	.LVL178:
 3105 0ec8 8160      		ori r24,lo8(1)
 3106 0eca 808F      		std Z+24,r24
 3107               	/* epilogue start */
 3108               	.LM321:
 3109 0ecc 0895      		ret
 3110               	.LFE60:
 3112               	.global	Timebase_DownCounter_SS_Clear_Period_Flag
 3114               	Timebase_DownCounter_SS_Clear_Period_Flag:
 3115               	.LFB61:
 3116               	.LM322:
 3117               	.LVL179:
 3118               	/* prologue: function */
 3119               	/* frame size = 0 */
 3120               	.LM323:
 3121 0ece E091 0000 		lds r30,Timebase
 3122 0ed2 F091 0000 		lds r31,(Timebase)+1
 3123 0ed6 90E0      		ldi r25,lo8(0)
 3124               	.LVL180:
 3125 0ed8 9C01      		movw r18,r24
 3126 0eda 64E0      		ldi r22,4
 3127 0edc 220F      	1:	lsl r18
 3128 0ede 331F      		rol r19
 3129 0ee0 6A95      		dec r22
 3130 0ee2 01F4      		brne 1b
 3131 0ee4 280F      		add r18,r24
 3132 0ee6 391F      		adc r19,r25
 3133 0ee8 E20F      		add r30,r18
 3134 0eea F31F      		adc r31,r19
 3135 0eec 808D      		ldd r24,Z+24
 3136               	.LVL181:
 3137 0eee 8E7F      		andi r24,lo8(-2)
 3138 0ef0 808F      		std Z+24,r24
 3139               	/* epilogue start */
 3140               	.LM324:
 3141 0ef2 0895      		ret
 3142               	.LFE61:
 3144               	.global	Timebase_DownCounter_SS_Reset
 3146               	Timebase_DownCounter_SS_Reset:
 3147               	.LFB62:
 3148               	.LM325:
 3149               	.LVL182:
 3150               	/* prologue: function */
 3151               	/* frame size = 0 */
 3152               	.LBB477:
 3153               	.LBB478:
 3154               	.LM326:
 3155 0ef4 E091 0000 		lds r30,Timebase
 3156 0ef8 F091 0000 		lds r31,(Timebase)+1
 3157 0efc 90E0      		ldi r25,lo8(0)
 3158 0efe 9C01      		movw r18,r24
 3159               	.LVL183:
 3160 0f00 74E0      		ldi r23,4
 3161 0f02 220F      	1:	lsl r18
 3162 0f04 331F      		rol r19
 3163 0f06 7A95      		dec r23
 3164 0f08 01F4      		brne 1b
 3165 0f0a 280F      		add r18,r24
 3166 0f0c 391F      		adc r19,r25
 3167 0f0e E20F      		add r30,r18
 3168 0f10 F31F      		adc r31,r19
 3169 0f12 158E      		std Z+29,__zero_reg__
 3170 0f14 168E      		std Z+30,__zero_reg__
 3171 0f16 178E      		std Z+31,__zero_reg__
 3172 0f18 10A2      		std Z+32,__zero_reg__
 3173               	.LBE478:
 3174               	.LBE477:
 3175               	.LBB479:
 3176               	.LBB480:
 3177               	.LM327:
 3178 0f1a 118E      		std Z+25,__zero_reg__
 3179 0f1c 128E      		std Z+26,__zero_reg__
 3180 0f1e 138E      		std Z+27,__zero_reg__
 3181 0f20 148E      		std Z+28,__zero_reg__
 3182               	.LBE480:
 3183               	.LBE479:
 3184               	.LBB481:
 3185               	.LBB482:
 3186               	.LM328:
 3187 0f22 11A2      		std Z+33,__zero_reg__
 3188 0f24 12A2      		std Z+34,__zero_reg__
 3189 0f26 13A2      		std Z+35,__zero_reg__
 3190 0f28 14A2      		std Z+36,__zero_reg__
 3191               	.LBE482:
 3192               	.LBE481:
 3193               	.LBB483:
 3194               	.LBB484:
 3195               	.LM329:
 3196 0f2a 808D      		ldd r24,Z+24
 3197               	.LBE484:
 3198               	.LBE483:
 3199               	.LBB485:
 3200               	.LBB486:
 3201               	.LM330:
 3202 0f2c 807E      		andi r24,lo8(-32)
 3203 0f2e 808F      		std Z+24,r24
 3204               	/* epilogue start */
 3205               	.LBE486:
 3206               	.LBE485:
 3207               	.LM331:
 3208 0f30 0895      		ret
 3209               	.LFE62:
 3211               	.global	Timebase_DownCounter_SS_Clear_All_Flags
 3213               	Timebase_DownCounter_SS_Clear_All_Flags:
 3214               	.LFB63:
 3215               	.LM332:
 3216               	.LVL184:
 3217               	/* prologue: function */
 3218               	/* frame size = 0 */
 3219               	.LBB487:
 3220               	.LBB488:
 3221               	.LBB489:
 3222               	.LBB490:
 3223               	.LM333:
 3224 0f32 E091 0000 		lds r30,Timebase
 3225 0f36 F091 0000 		lds r31,(Timebase)+1
 3226 0f3a 90E0      		ldi r25,lo8(0)
 3227 0f3c 9C01      		movw r18,r24
 3228               	.LVL185:
 3229 0f3e A4E0      		ldi r26,4
 3230 0f40 220F      	1:	lsl r18
 3231 0f42 331F      		rol r19
 3232 0f44 AA95      		dec r26
 3233 0f46 01F4      		brne 1b
 3234 0f48 280F      		add r18,r24
 3235 0f4a 391F      		adc r19,r25
 3236 0f4c E20F      		add r30,r18
 3237 0f4e F31F      		adc r31,r19
 3238 0f50 158E      		std Z+29,__zero_reg__
 3239 0f52 168E      		std Z+30,__zero_reg__
 3240 0f54 178E      		std Z+31,__zero_reg__
 3241 0f56 10A2      		std Z+32,__zero_reg__
 3242               	.LBE490:
 3243               	.LBE489:
 3244               	.LBB491:
 3245               	.LBB492:
 3246               	.LM334:
 3247 0f58 118E      		std Z+25,__zero_reg__
 3248 0f5a 128E      		std Z+26,__zero_reg__
 3249 0f5c 138E      		std Z+27,__zero_reg__
 3250 0f5e 148E      		std Z+28,__zero_reg__
 3251               	.LBE492:
 3252               	.LBE491:
 3253               	.LBB493:
 3254               	.LBB494:
 3255               	.LM335:
 3256 0f60 11A2      		std Z+33,__zero_reg__
 3257 0f62 12A2      		std Z+34,__zero_reg__
 3258 0f64 13A2      		std Z+35,__zero_reg__
 3259 0f66 14A2      		std Z+36,__zero_reg__
 3260               	.LBE494:
 3261               	.LBE493:
 3262               	.LBB495:
 3263               	.LBB496:
 3264               	.LM336:
 3265 0f68 808D      		ldd r24,Z+24
 3266               	.LBE496:
 3267               	.LBE495:
 3268               	.LBB497:
 3269               	.LBB498:
 3270               	.LM337:
 3271 0f6a 807E      		andi r24,lo8(-32)
 3272 0f6c 808F      		std Z+24,r24
 3273               	/* epilogue start */
 3274               	.LBE498:
 3275               	.LBE497:
 3276               	.LBE488:
 3277               	.LBE487:
 3278               	.LM338:
 3279 0f6e 0895      		ret
 3280               	.LFE63:
 3282               	.global	Timebase_DownCounter_SS_Start
 3284               	Timebase_DownCounter_SS_Start:
 3285               	.LFB64:
 3286               	.LM339:
 3287               	.LVL186:
 3288               	/* prologue: function */
 3289               	/* frame size = 0 */
 3290               	.LBB499:
 3291               	.LBB500:
 3292               	.LM340:
 3293 0f70 E091 0000 		lds r30,Timebase
 3294 0f74 F091 0000 		lds r31,(Timebase)+1
 3295 0f78 90E0      		ldi r25,lo8(0)
 3296               	.LBE500:
 3297               	.LBE499:
 3298               	.LM341:
 3299 0f7a 9C01      		movw r18,r24
 3300               	.LVL187:
 3301 0f7c B4E0      		ldi r27,4
 3302 0f7e 220F      	1:	lsl r18
 3303 0f80 331F      		rol r19
 3304 0f82 BA95      		dec r27
 3305 0f84 01F4      		brne 1b
 3306 0f86 280F      		add r18,r24
 3307 0f88 391F      		adc r19,r25
 3308 0f8a E20F      		add r30,r18
 3309 0f8c F31F      		adc r31,r19
 3310 0f8e 908D      		ldd r25,Z+24
 3311 0f90 892F      		mov r24,r25
 3312 0f92 8695      		lsr r24
 3313 0f94 8F70      		andi r24,lo8(15)
 3314 0f96 8130      		cpi r24,lo8(1)
 3315 0f98 01F0      		breq .L183
 3316               	.LBB501:
 3317               	.LBB502:
 3318               	.LM342:
 3319 0f9a 917E      		andi r25,lo8(-31)
 3320 0f9c 9260      		ori r25,lo8(2)
 3321 0f9e 908F      		std Z+24,r25
 3322               	.L183:
 3323 0fa0 0895      		ret
 3324               	.LBE502:
 3325               	.LBE501:
 3326               	.LFE64:
 3328               	.global	Timebase_DownCounter_SS_Stop
 3330               	Timebase_DownCounter_SS_Stop:
 3331               	.LFB65:
 3332               	.LM343:
 3333               	.LVL188:
 3334               	/* prologue: function */
 3335               	/* frame size = 0 */
 3336               	.LBB503:
 3337               	.LBB504:
 3338               	.LM344:
 3339 0fa2 E091 0000 		lds r30,Timebase
 3340 0fa6 F091 0000 		lds r31,(Timebase)+1
 3341 0faa 90E0      		ldi r25,lo8(0)
 3342               	.LBE504:
 3343               	.LBE503:
 3344               	.LM345:
 3345 0fac 9C01      		movw r18,r24
 3346               	.LVL189:
 3347 0fae 44E0      		ldi r20,4
 3348 0fb0 220F      	1:	lsl r18
 3349 0fb2 331F      		rol r19
 3350 0fb4 4A95      		dec r20
 3351 0fb6 01F4      		brne 1b
 3352 0fb8 280F      		add r18,r24
 3353 0fba 391F      		adc r19,r25
 3354 0fbc E20F      		add r30,r18
 3355 0fbe F31F      		adc r31,r19
 3356 0fc0 908D      		ldd r25,Z+24
 3357 0fc2 892F      		mov r24,r25
 3358 0fc4 8695      		lsr r24
 3359 0fc6 8F70      		andi r24,lo8(15)
 3360 0fc8 8230      		cpi r24,lo8(2)
 3361 0fca 01F0      		breq .L186
 3362               	.LBB505:
 3363               	.LBB506:
 3364               	.LM346:
 3365 0fcc 917E      		andi r25,lo8(-31)
 3366 0fce 9460      		ori r25,lo8(4)
 3367 0fd0 908F      		std Z+24,r25
 3368               	.L186:
 3369 0fd2 0895      		ret
 3370               	.LBE506:
 3371               	.LBE505:
 3372               	.LFE65:
 3374               	.global	Timebase_DownCounter_SS_Set_Securely
 3376               	Timebase_DownCounter_SS_Set_Securely:
 3377               	.LFB66:
 3378               	.LM347:
 3379               	.LVL190:
 3380 0fd4 2F92      		push r2
 3381 0fd6 3F92      		push r3
 3382 0fd8 4F92      		push r4
 3383 0fda 5F92      		push r5
 3384 0fdc 6F92      		push r6
 3385 0fde 7F92      		push r7
 3386 0fe0 8F92      		push r8
 3387 0fe2 9F92      		push r9
 3388 0fe4 AF92      		push r10
 3389 0fe6 BF92      		push r11
 3390 0fe8 CF92      		push r12
 3391 0fea DF92      		push r13
 3392 0fec EF92      		push r14
 3393 0fee FF92      		push r15
 3394 0ff0 0F93      		push r16
 3395 0ff2 1F93      		push r17
 3396 0ff4 DF93      		push r29
 3397 0ff6 CF93      		push r28
 3398 0ff8 00D0      		rcall .
 3399 0ffa 00D0      		rcall .
 3400 0ffc CDB7      		in r28,__SP_L__
 3401 0ffe DEB7      		in r29,__SP_H__
 3402               	/* prologue: function */
 3403               	/* frame size = 4 */
 3404 1000 4A01      		movw r8,r20
 3405 1002 5B01      		movw r10,r22
 3406               	.LBB507:
 3407               	.LBB508:
 3408               	.LM348:
 3409 1004 2091 0000 		lds r18,Timebase
 3410 1008 3091 0000 		lds r19,(Timebase)+1
 3411 100c 3C83      		std Y+4,r19
 3412 100e 2B83      		std Y+3,r18
 3413 1010 A82F      		mov r26,r24
 3414 1012 B0E0      		ldi r27,lo8(0)
 3415 1014 BA83      		std Y+2,r27
 3416 1016 A983      		std Y+1,r26
 3417               	.LBE508:
 3418               	.LBE507:
 3419               	.LM349:
 3420 1018 FD01      		movw r30,r26
 3421 101a 64E0      		ldi r22,4
 3422 101c EE0F      	1:	lsl r30
 3423 101e FF1F      		rol r31
 3424 1020 6A95      		dec r22
 3425 1022 01F4      		brne 1b
 3426 1024 EA0F      		add r30,r26
 3427 1026 FB1F      		adc r31,r27
 3428 1028 E20F      		add r30,r18
 3429 102a F31F      		adc r31,r19
 3430 102c 808D      		ldd r24,Z+24
 3431               	.LVL191:
 3432 102e 8695      		lsr r24
 3433 1030 8F70      		andi r24,lo8(15)
 3434 1032 01F0      		breq .+2
 3435 1034 00C0      		rjmp .L190
 3436               	.LVL192:
 3437               	.LBB509:
 3438               	.LBB510:
 3439               	.LBB511:
 3440               	.LM350:
 3441 1036 81A2      		std Z+33,r8
 3442 1038 92A2      		std Z+34,r9
 3443 103a A3A2      		std Z+35,r10
 3444 103c B4A2      		std Z+36,r11
 3445               	.LBE511:
 3446               	.LBE510:
 3447               	.LBB512:
 3448               	.LBB513:
 3449               	.LM351:
 3450 103e F901      		movw r30,r18
 3451 1040 C084      		ldd r12,Z+8
 3452 1042 D184      		ldd r13,Z+9
 3453               	.LBE513:
 3454               	.LBE512:
 3455               	.LBB514:
 3456               	.LBB515:
 3457               	.LM352:
 3458 1044 2284      		ldd r2,Z+10
 3459 1046 3384      		ldd r3,Z+11
 3460 1048 4484      		ldd r4,Z+12
 3461 104a 5584      		ldd r5,Z+13
 3462               	.LVL193:
 3463               	.LBE515:
 3464               	.LBE514:
 3465               	.LM353:
 3466 104c 2181      		ldd r18,Z+1
 3467 104e 3281      		ldd r19,Z+2
 3468 1050 40E0      		ldi r20,lo8(0)
 3469 1052 50E0      		ldi r21,hi8(0)
 3470 1054 C501      		movw r24,r10
 3471 1056 B401      		movw r22,r8
 3472 1058 0E94 0000 		call __divmodsi4
 3473 105c 7B01      		movw r14,r22
 3474 105e 8C01      		movw r16,r24
 3475               	.LM354:
 3476 1060 AB81      		ldd r26,Y+3
 3477 1062 BC81      		ldd r27,Y+4
 3478 1064 1196      		adiw r26,1
 3479 1066 2D91      		ld r18,X+
 3480 1068 3C91      		ld r19,X
 3481 106a 1297      		sbiw r26,1+1
 3482 106c 40E0      		ldi r20,lo8(0)
 3483 106e 50E0      		ldi r21,hi8(0)
 3484 1070 C501      		movw r24,r10
 3485 1072 B401      		movw r22,r8
 3486 1074 0E94 0000 		call __divmodsi4
 3487 1078 C901      		movw r24,r18
 3488 107a DA01      		movw r26,r20
 3489 107c 3C01      		movw r6,r24
 3490 107e 4D01      		movw r8,r26
 3491               	.LVL194:
 3492               	.LM355:
 3493 1080 5601      		movw r10,r12
 3494               	.LVL195:
 3495 1082 CC24      		clr r12
 3496 1084 DD24      		clr r13
 3497               	.LVL196:
 3498 1086 AE0C      		add r10,r14
 3499 1088 BF1C      		adc r11,r15
 3500 108a C01E      		adc r12,r16
 3501 108c D11E      		adc r13,r17
 3502               	.LVL197:
 3503               	.LM356:
 3504 108e EB81      		ldd r30,Y+3
 3505 1090 FC81      		ldd r31,Y+4
 3506 1092 8181      		ldd r24,Z+1
 3507 1094 9281      		ldd r25,Z+2
 3508               	.LVL198:
 3509 1096 A0E0      		ldi r26,lo8(0)
 3510 1098 B0E0      		ldi r27,hi8(0)
 3511 109a A816      		cp r10,r24
 3512 109c B906      		cpc r11,r25
 3513 109e CA06      		cpc r12,r26
 3514 10a0 DB06      		cpc r13,r27
 3515 10a2 04F0      		brlt .L189
 3516               	.LM357:
 3517 10a4 0894      		sec
 3518 10a6 611C      		adc r6,__zero_reg__
 3519 10a8 711C      		adc r7,__zero_reg__
 3520 10aa 811C      		adc r8,__zero_reg__
 3521 10ac 911C      		adc r9,__zero_reg__
 3522               	.LM358:
 3523 10ae 2181      		ldd r18,Z+1
 3524 10b0 3281      		ldd r19,Z+2
 3525 10b2 40E0      		ldi r20,lo8(0)
 3526 10b4 50E0      		ldi r21,hi8(0)
 3527 10b6 C601      		movw r24,r12
 3528 10b8 B501      		movw r22,r10
 3529 10ba 0E94 0000 		call __divmodsi4
 3530 10be AC01      		movw r20,r24
 3531 10c0 CB01      		movw r24,r22
 3532 10c2 DA01      		movw r26,r20
 3533 10c4 5C01      		movw r10,r24
 3534 10c6 6D01      		movw r12,r26
 3535               	.L189:
 3536               	.LBB516:
 3537               	.LBB517:
 3538               	.LM359:
 3539 10c8 E981      		ldd r30,Y+1
 3540 10ca FA81      		ldd r31,Y+2
 3541 10cc 54E0      		ldi r21,4
 3542 10ce EE0F      	1:	lsl r30
 3543 10d0 FF1F      		rol r31
 3544 10d2 5A95      		dec r21
 3545 10d4 01F4      		brne 1b
 3546 10d6 2981      		ldd r18,Y+1
 3547 10d8 3A81      		ldd r19,Y+2
 3548 10da E20F      		add r30,r18
 3549 10dc F31F      		adc r31,r19
 3550 10de 8B81      		ldd r24,Y+3
 3551 10e0 9C81      		ldd r25,Y+4
 3552 10e2 E80F      		add r30,r24
 3553 10e4 F91F      		adc r31,r25
 3554 10e6 260C      		add r2,r6
 3555 10e8 371C      		adc r3,r7
 3556 10ea 481C      		adc r4,r8
 3557 10ec 591C      		adc r5,r9
 3558 10ee 218E      		std Z+25,r2
 3559 10f0 328E      		std Z+26,r3
 3560 10f2 438E      		std Z+27,r4
 3561 10f4 548E      		std Z+28,r5
 3562               	.LBE517:
 3563               	.LBE516:
 3564               	.LBB518:
 3565               	.LBB519:
 3566               	.LM360:
 3567 10f6 DC01      		movw r26,r24
 3568 10f8 1896      		adiw r26,8
 3569 10fa 8D91      		ld r24,X+
 3570 10fc 9C91      		ld r25,X
 3571 10fe 1997      		sbiw r26,8+1
 3572               	.LBE519:
 3573               	.LBE518:
 3574               	.LBB520:
 3575               	.LBB521:
 3576               	.LM361:
 3577 1100 A0E0      		ldi r26,lo8(0)
 3578 1102 B0E0      		ldi r27,hi8(0)
 3579 1104 8A0D      		add r24,r10
 3580 1106 9B1D      		adc r25,r11
 3581 1108 AC1D      		adc r26,r12
 3582 110a BD1D      		adc r27,r13
 3583 110c 858F      		std Z+29,r24
 3584 110e 968F      		std Z+30,r25
 3585 1110 A78F      		std Z+31,r26
 3586 1112 B0A3      		std Z+32,r27
 3587               	.LBE521:
 3588               	.LBE520:
 3589               	.LBB522:
 3590               	.LBB523:
 3591               	.LM362:
 3592 1114 908D      		ldd r25,Z+24
 3593 1116 892F      		mov r24,r25
 3594 1118 8695      		lsr r24
 3595 111a 8F70      		andi r24,lo8(15)
 3596 111c 8130      		cpi r24,lo8(1)
 3597 111e 01F0      		breq .L190
 3598               	.LBB524:
 3599               	.LBB525:
 3600               	.LM363:
 3601 1120 917E      		andi r25,lo8(-31)
 3602 1122 9260      		ori r25,lo8(2)
 3603 1124 908F      		std Z+24,r25
 3604               	.LVL199:
 3605               	.L190:
 3606               	/* epilogue start */
 3607               	.LBE525:
 3608               	.LBE524:
 3609               	.LBE523:
 3610               	.LBE522:
 3611               	.LBE509:
 3612               	.LM364:
 3613 1126 0F90      		pop __tmp_reg__
 3614 1128 0F90      		pop __tmp_reg__
 3615 112a 0F90      		pop __tmp_reg__
 3616 112c 0F90      		pop __tmp_reg__
 3617 112e CF91      		pop r28
 3618 1130 DF91      		pop r29
 3619 1132 1F91      		pop r17
 3620 1134 0F91      		pop r16
 3621 1136 FF90      		pop r15
 3622 1138 EF90      		pop r14
 3623 113a DF90      		pop r13
 3624 113c CF90      		pop r12
 3625               	.LVL200:
 3626 113e BF90      		pop r11
 3627 1140 AF90      		pop r10
 3628               	.LVL201:
 3629 1142 9F90      		pop r9
 3630 1144 8F90      		pop r8
 3631               	.LVL202:
 3632 1146 7F90      		pop r7
 3633 1148 6F90      		pop r6
 3634               	.LVL203:
 3635 114a 5F90      		pop r5
 3636 114c 4F90      		pop r4
 3637 114e 3F90      		pop r3
 3638 1150 2F90      		pop r2
 3639               	.LVL204:
 3640 1152 0895      		ret
 3641               	.LFE66:
 3643               	.global	Timebase_DownCounter_SS_Set_Forcefully
 3645               	Timebase_DownCounter_SS_Set_Forcefully:
 3646               	.LFB67:
 3647               	.LM365:
 3648               	.LVL205:
 3649               	/* prologue: function */
 3650               	/* frame size = 0 */
 3651               	.LBB526:
 3652               	.LBB527:
 3653               	.LBB528:
 3654               	.LBB529:
 3655               	.LM366:
 3656 1154 E091 0000 		lds r30,Timebase
 3657 1158 F091 0000 		lds r31,(Timebase)+1
 3658 115c A82F      		mov r26,r24
 3659 115e B0E0      		ldi r27,lo8(0)
 3660 1160 9D01      		movw r18,r26
 3661 1162 94E0      		ldi r25,4
 3662 1164 220F      	1:	lsl r18
 3663 1166 331F      		rol r19
 3664 1168 9A95      		dec r25
 3665 116a 01F4      		brne 1b
 3666 116c 2A0F      		add r18,r26
 3667 116e 3B1F      		adc r19,r27
 3668 1170 E20F      		add r30,r18
 3669 1172 F31F      		adc r31,r19
 3670 1174 158E      		std Z+29,__zero_reg__
 3671 1176 168E      		std Z+30,__zero_reg__
 3672 1178 178E      		std Z+31,__zero_reg__
 3673 117a 10A2      		std Z+32,__zero_reg__
 3674               	.LBE529:
 3675               	.LBE528:
 3676               	.LBB530:
 3677               	.LBB531:
 3678               	.LM367:
 3679 117c 118E      		std Z+25,__zero_reg__
 3680 117e 128E      		std Z+26,__zero_reg__
 3681 1180 138E      		std Z+27,__zero_reg__
 3682 1182 148E      		std Z+28,__zero_reg__
 3683               	.LBE531:
 3684               	.LBE530:
 3685               	.LBB532:
 3686               	.LBB533:
 3687               	.LM368:
 3688 1184 11A2      		std Z+33,__zero_reg__
 3689 1186 12A2      		std Z+34,__zero_reg__
 3690 1188 13A2      		std Z+35,__zero_reg__
 3691 118a 14A2      		std Z+36,__zero_reg__
 3692               	.LBE533:
 3693               	.LBE532:
 3694               	.LBB534:
 3695               	.LBB535:
 3696               	.LM369:
 3697 118c 908D      		ldd r25,Z+24
 3698               	.LBE535:
 3699               	.LBE534:
 3700               	.LBB536:
 3701               	.LBB537:
 3702               	.LM370:
 3703 118e 907E      		andi r25,lo8(-32)
 3704 1190 908F      		std Z+24,r25
 3705               	.LBE537:
 3706               	.LBE536:
 3707               	.LBE527:
 3708               	.LBE526:
 3709               	.LM371:
 3710 1192 0E94 0000 		call Timebase_DownCounter_SS_Set_Securely
 3711               	.LVL206:
 3712               	/* epilogue start */
 3713               	.LM372:
 3714 1196 0895      		ret
 3715               	.LFE67:
 3717               	.global	Timebase_DownCounter_SS_Update
 3719               	Timebase_DownCounter_SS_Update:
 3720               	.LFB68:
 3721               	.LM373:
 3722               	.LVL207:
 3723 1198 2F92      		push r2
 3724 119a 3F92      		push r3
 3725 119c 4F92      		push r4
 3726 119e 5F92      		push r5
 3727 11a0 6F92      		push r6
 3728 11a2 7F92      		push r7
 3729 11a4 8F92      		push r8
 3730 11a6 9F92      		push r9
 3731 11a8 AF92      		push r10
 3732 11aa BF92      		push r11
 3733 11ac CF92      		push r12
 3734 11ae DF92      		push r13
 3735 11b0 EF92      		push r14
 3736 11b2 FF92      		push r15
 3737 11b4 0F93      		push r16
 3738 11b6 1F93      		push r17
 3739 11b8 CF93      		push r28
 3740 11ba DF93      		push r29
 3741               	/* prologue: function */
 3742               	/* frame size = 0 */
 3743               	.LBB538:
 3744               	.LBB539:
 3745               	.LM374:
 3746 11bc 8090 0000 		lds r8,Timebase
 3747 11c0 9090 0000 		lds r9,(Timebase)+1
 3748 11c4 682E      		mov r6,r24
 3749 11c6 7724      		clr r7
 3750 11c8 E301      		movw r28,r6
 3751 11ca 34E0      		ldi r19,4
 3752 11cc CC0F      	1:	lsl r28
 3753 11ce DD1F      		rol r29
 3754 11d0 3A95      		dec r19
 3755 11d2 01F4      		brne 1b
 3756 11d4 C60D      		add r28,r6
 3757 11d6 D71D      		adc r29,r7
 3758 11d8 C80D      		add r28,r8
 3759 11da D91D      		adc r29,r9
 3760 11dc 888D      		ldd r24,Y+24
 3761               	.LVL208:
 3762 11de 8695      		lsr r24
 3763 11e0 8F70      		andi r24,lo8(15)
 3764               	.LBE539:
 3765               	.LBE538:
 3766               	.LM375:
 3767 11e2 8130      		cpi r24,lo8(1)
 3768 11e4 01F0      		breq .+2
 3769 11e6 00C0      		rjmp .L194
 3770               	.LBB540:
 3771               	.LBB541:
 3772               	.LBB542:
 3773               	.LM376:
 3774 11e8 F401      		movw r30,r8
 3775 11ea 8085      		ldd r24,Z+8
 3776 11ec 9185      		ldd r25,Z+9
 3777               	.LBE542:
 3778               	.LBE541:
 3779               	.LM377:
 3780 11ee 5C01      		movw r10,r24
 3781               	.LVL209:
 3782 11f0 CC24      		clr r12
 3783 11f2 DD24      		clr r13
 3784               	.LVL210:
 3785               	.LBB543:
 3786               	.LBB544:
 3787               	.LM378:
 3788 11f4 E284      		ldd r14,Z+10
 3789 11f6 F384      		ldd r15,Z+11
 3790 11f8 0485      		ldd r16,Z+12
 3791 11fa 1585      		ldd r17,Z+13
 3792               	.LVL211:
 3793               	.LBE544:
 3794               	.LBE543:
 3795               	.LM379:
 3796 11fc 8D8D      		ldd r24,Y+29
 3797 11fe 9E8D      		ldd r25,Y+30
 3798 1200 AF8D      		ldd r26,Y+31
 3799 1202 B8A1      		ldd r27,Y+32
 3800 1204 A81A      		sub r10,r24
 3801 1206 B90A      		sbc r11,r25
 3802 1208 CA0A      		sbc r12,r26
 3803 120a DB0A      		sbc r13,r27
 3804               	.LVL212:
 3805               	.LM380:
 3806 120c 898D      		ldd r24,Y+25
 3807 120e 9A8D      		ldd r25,Y+26
 3808 1210 AB8D      		ldd r26,Y+27
 3809 1212 BC8D      		ldd r27,Y+28
 3810 1214 E81A      		sub r14,r24
 3811 1216 F90A      		sbc r15,r25
 3812 1218 0A0B      		sbc r16,r26
 3813 121a 1B0B      		sbc r17,r27
 3814 121c 17FF      		sbrs r17,7
 3815 121e 00C0      		rjmp .L195
 3816 1220 EE24      		clr r14
 3817 1222 FF24      		clr r15
 3818 1224 8701      		movw r16,r14
 3819               	.L195:
 3820               	.LM381:
 3821 1226 F401      		movw r30,r8
 3822 1228 2181      		ldd r18,Z+1
 3823 122a 3281      		ldd r19,Z+2
 3824 122c 40E0      		ldi r20,lo8(0)
 3825 122e 50E0      		ldi r21,hi8(0)
 3826 1230 C801      		movw r24,r16
 3827 1232 B701      		movw r22,r14
 3828 1234 0E94 0000 		call __mulsi3
 3829 1238 FC01      		movw r30,r24
 3830               	.LM382:
 3831 123a A601      		movw r20,r12
 3832 123c 9501      		movw r18,r10
 3833 123e D7FE      		sbrs r13,7
 3834 1240 00C0      		rjmp .L196
 3835 1242 20E0      		ldi r18,lo8(0)
 3836 1244 30E0      		ldi r19,hi8(0)
 3837 1246 40E0      		ldi r20,hlo8(0)
 3838 1248 50E0      		ldi r21,hhi8(0)
 3839               	.LVL213:
 3840               	.L196:
 3841 124a CB01      		movw r24,r22
 3842 124c DF01      		movw r26,r30
 3843 124e 820F      		add r24,r18
 3844 1250 931F      		adc r25,r19
 3845 1252 A41F      		adc r26,r20
 3846 1254 B51F      		adc r27,r21
 3847               	.LVL214:
 3848               	.LBB545:
 3849               	.LBB546:
 3850               	.LM383:
 3851 1256 F301      		movw r30,r6
 3852 1258 24E0      		ldi r18,4
 3853 125a EE0F      	1:	lsl r30
 3854 125c FF1F      		rol r31
 3855 125e 2A95      		dec r18
 3856 1260 01F4      		brne 1b
 3857               	.LVL215:
 3858 1262 E60D      		add r30,r6
 3859 1264 F71D      		adc r31,r7
 3860 1266 E80D      		add r30,r8
 3861 1268 F91D      		adc r31,r9
 3862 126a 81A3      		std Z+33,r24
 3863 126c 92A3      		std Z+34,r25
 3864 126e A3A3      		std Z+35,r26
 3865 1270 B4A3      		std Z+36,r27
 3866               	.LBE546:
 3867               	.LBE545:
 3868               	.LM384:
 3869 1272 0097      		sbiw r24,0
 3870 1274 A105      		cpc r26,__zero_reg__
 3871 1276 B105      		cpc r27,__zero_reg__
 3872 1278 01F0      		breq .+2
 3873 127a 00C0      		rjmp .L198
 3874               	.LBB547:
 3875               	.LBB548:
 3876               	.LBB549:
 3877               	.LBB550:
 3878               	.LM385:
 3879 127c 158E      		std Z+29,__zero_reg__
 3880 127e 168E      		std Z+30,__zero_reg__
 3881 1280 178E      		std Z+31,__zero_reg__
 3882 1282 10A2      		std Z+32,__zero_reg__
 3883               	.LBE550:
 3884               	.LBE549:
 3885               	.LBB551:
 3886               	.LBB552:
 3887               	.LM386:
 3888 1284 118E      		std Z+25,__zero_reg__
 3889 1286 128E      		std Z+26,__zero_reg__
 3890 1288 138E      		std Z+27,__zero_reg__
 3891 128a 148E      		std Z+28,__zero_reg__
 3892               	.LBE552:
 3893               	.LBE551:
 3894               	.LBB553:
 3895               	.LBB554:
 3896               	.LM387:
 3897 128c 11A2      		std Z+33,__zero_reg__
 3898 128e 12A2      		std Z+34,__zero_reg__
 3899 1290 13A2      		std Z+35,__zero_reg__
 3900 1292 14A2      		std Z+36,__zero_reg__
 3901               	.LBE554:
 3902               	.LBE553:
 3903               	.LBB555:
 3904               	.LBB556:
 3905               	.LM388:
 3906 1294 808D      		ldd r24,Z+24
 3907               	.LVL216:
 3908               	.LBE556:
 3909               	.LBE555:
 3910               	.LBE548:
 3911               	.LBE547:
 3912               	.LBB557:
 3913               	.LBB558:
 3914               	.LM389:
 3915 1296 807E      		andi r24,lo8(-32)
 3916 1298 8860      		ori r24,lo8(8)
 3917 129a 808F      		std Z+24,r24
 3918 129c 00C0      		rjmp .L198
 3919               	.LVL217:
 3920               	.L194:
 3921               	.LBE558:
 3922               	.LBE557:
 3923               	.LBE540:
 3924               	.LM390:
 3925 129e 8230      		cpi r24,lo8(2)
 3926 12a0 01F4      		brne .L198
 3927               	.LBB559:
 3928               	.LBB560:
 3929               	.LBB561:
 3930               	.LM391:
 3931 12a2 F401      		movw r30,r8
 3932 12a4 6084      		ldd r6,Z+8
 3933 12a6 7184      		ldd r7,Z+9
 3934               	.LBE561:
 3935               	.LBE560:
 3936               	.LBB562:
 3937               	.LBB563:
 3938               	.LM392:
 3939 12a8 E284      		ldd r14,Z+10
 3940 12aa F384      		ldd r15,Z+11
 3941 12ac 0485      		ldd r16,Z+12
 3942 12ae 1585      		ldd r17,Z+13
 3943               	.LVL218:
 3944               	.LBE563:
 3945               	.LBE562:
 3946               	.LBB564:
 3947               	.LBB565:
 3948               	.LM393:
 3949 12b0 29A0      		ldd r2,Y+33
 3950 12b2 3AA0      		ldd r3,Y+34
 3951 12b4 4BA0      		ldd r4,Y+35
 3952 12b6 5CA0      		ldd r5,Y+36
 3953               	.LVL219:
 3954               	.LBE565:
 3955               	.LBE564:
 3956               	.LM394:
 3957 12b8 2181      		ldd r18,Z+1
 3958 12ba 3281      		ldd r19,Z+2
 3959               	.LM395:
 3960 12bc A180      		ldd r10,Z+1
 3961 12be B280      		ldd r11,Z+2
 3962               	.LBB566:
 3963               	.LBB567:
 3964               	.LM396:
 3965 12c0 40E0      		ldi r20,lo8(0)
 3966 12c2 50E0      		ldi r21,hi8(0)
 3967 12c4 C201      		movw r24,r4
 3968 12c6 B101      		movw r22,r2
 3969 12c8 0E94 0000 		call __divmodsi4
 3970 12cc E20E      		add r14,r18
 3971 12ce F31E      		adc r15,r19
 3972 12d0 041F      		adc r16,r20
 3973 12d2 151F      		adc r17,r21
 3974 12d4 E98E      		std Y+25,r14
 3975 12d6 FA8E      		std Y+26,r15
 3976 12d8 0B8F      		std Y+27,r16
 3977 12da 1C8F      		std Y+28,r17
 3978               	.LBE567:
 3979               	.LBE566:
 3980               	.LBB568:
 3981               	.LBB569:
 3982               	.LM397:
 3983 12dc CC24      		clr r12
 3984 12de DD24      		clr r13
 3985 12e0 C201      		movw r24,r4
 3986 12e2 B101      		movw r22,r2
 3987 12e4 A601      		movw r20,r12
 3988 12e6 9501      		movw r18,r10
 3989 12e8 0E94 0000 		call __divmodsi4
 3990 12ec 8824      		clr r8
 3991 12ee 9924      		clr r9
 3992 12f0 660E      		add r6,r22
 3993 12f2 771E      		adc r7,r23
 3994 12f4 881E      		adc r8,r24
 3995 12f6 991E      		adc r9,r25
 3996 12f8 6D8E      		std Y+29,r6
 3997 12fa 7E8E      		std Y+30,r7
 3998 12fc 8F8E      		std Y+31,r8
 3999 12fe 98A2      		std Y+32,r9
 4000               	.LVL220:
 4001               	.L198:
 4002               	/* epilogue start */
 4003               	.LBE569:
 4004               	.LBE568:
 4005               	.LBE559:
 4006               	.LM398:
 4007 1300 DF91      		pop r29
 4008 1302 CF91      		pop r28
 4009 1304 1F91      		pop r17
 4010 1306 0F91      		pop r16
 4011 1308 FF90      		pop r15
 4012 130a EF90      		pop r14
 4013               	.LVL221:
 4014 130c DF90      		pop r13
 4015 130e CF90      		pop r12
 4016               	.LVL222:
 4017 1310 BF90      		pop r11
 4018 1312 AF90      		pop r10
 4019               	.LVL223:
 4020 1314 9F90      		pop r9
 4021 1316 8F90      		pop r8
 4022 1318 7F90      		pop r7
 4023 131a 6F90      		pop r6
 4024 131c 5F90      		pop r5
 4025 131e 4F90      		pop r4
 4026 1320 3F90      		pop r3
 4027 1322 2F90      		pop r2
 4028               	.LVL224:
 4029 1324 0895      		ret
 4030               	.LFE68:
 4032               	.global	Timebase_DownCounter_SS_Expired
 4034               	Timebase_DownCounter_SS_Expired:
 4035               	.LFB69:
 4036               	.LM399:
 4037               	.LVL225:
 4038               	/* prologue: function */
 4039               	/* frame size = 0 */
 4040               	.LM400:
 4041 1326 40E0      		ldi r20,lo8(0)
 4042 1328 E091 0000 		lds r30,Timebase
 4043 132c F091 0000 		lds r31,(Timebase)+1
 4044 1330 90E0      		ldi r25,lo8(0)
 4045               	.LVL226:
 4046 1332 9C01      		movw r18,r24
 4047 1334 54E0      		ldi r21,4
 4048 1336 220F      	1:	lsl r18
 4049 1338 331F      		rol r19
 4050 133a 5A95      		dec r21
 4051 133c 01F4      		brne 1b
 4052 133e 280F      		add r18,r24
 4053 1340 391F      		adc r19,r25
 4054 1342 E20F      		add r30,r18
 4055 1344 F31F      		adc r31,r19
 4056 1346 808D      		ldd r24,Z+24
 4057               	.LVL227:
 4058 1348 8695      		lsr r24
 4059 134a 8F70      		andi r24,lo8(15)
 4060 134c 8430      		cpi r24,lo8(4)
 4061 134e 01F4      		brne .L200
 4062 1350 41E0      		ldi r20,lo8(1)
 4063               	.L200:
 4064               	.LM401:
 4065 1352 842F      		mov r24,r20
 4066               	/* epilogue start */
 4067 1354 0895      		ret
 4068               	.LFE69:
 4070               	.global	Timebase_DownCounter_SS_Expired_Event
 4072               	Timebase_DownCounter_SS_Expired_Event:
 4073               	.LFB70:
 4074               	.LM402:
 4075               	.LVL228:
 4076               	/* prologue: function */
 4077               	/* frame size = 0 */
 4078               	.LBB570:
 4079               	.LBB571:
 4080               	.LM403:
 4081 1356 E091 0000 		lds r30,Timebase
 4082 135a F091 0000 		lds r31,(Timebase)+1
 4083 135e 90E0      		ldi r25,lo8(0)
 4084               	.LBE571:
 4085               	.LBE570:
 4086               	.LM404:
 4087 1360 9C01      		movw r18,r24
 4088               	.LVL229:
 4089 1362 64E0      		ldi r22,4
 4090 1364 220F      	1:	lsl r18
 4091 1366 331F      		rol r19
 4092 1368 6A95      		dec r22
 4093 136a 01F4      		brne 1b
 4094 136c 280F      		add r18,r24
 4095 136e 391F      		adc r19,r25
 4096 1370 E20F      		add r30,r18
 4097 1372 F31F      		adc r31,r19
 4098 1374 808D      		ldd r24,Z+24
 4099 1376 8695      		lsr r24
 4100 1378 8F70      		andi r24,lo8(15)
 4101 137a 8430      		cpi r24,lo8(4)
 4102 137c 01F0      		breq .L203
 4103 137e 80E0      		ldi r24,lo8(0)
 4104 1380 0895      		ret
 4105               	.L203:
 4106               	.LBB572:
 4107               	.LBB573:
 4108               	.LBB574:
 4109               	.LBB575:
 4110               	.LBB576:
 4111               	.LBB577:
 4112               	.LM405:
 4113 1382 158E      		std Z+29,__zero_reg__
 4114 1384 168E      		std Z+30,__zero_reg__
 4115 1386 178E      		std Z+31,__zero_reg__
 4116 1388 10A2      		std Z+32,__zero_reg__
 4117               	.LBE577:
 4118               	.LBE576:
 4119               	.LBB578:
 4120               	.LBB579:
 4121               	.LM406:
 4122 138a 118E      		std Z+25,__zero_reg__
 4123 138c 128E      		std Z+26,__zero_reg__
 4124 138e 138E      		std Z+27,__zero_reg__
 4125 1390 148E      		std Z+28,__zero_reg__
 4126               	.LBE579:
 4127               	.LBE578:
 4128               	.LBB580:
 4129               	.LBB581:
 4130               	.LM407:
 4131 1392 11A2      		std Z+33,__zero_reg__
 4132 1394 12A2      		std Z+34,__zero_reg__
 4133 1396 13A2      		std Z+35,__zero_reg__
 4134 1398 14A2      		std Z+36,__zero_reg__
 4135               	.LBE581:
 4136               	.LBE580:
 4137               	.LBB582:
 4138               	.LBB583:
 4139               	.LM408:
 4140 139a 808D      		ldd r24,Z+24
 4141               	.LBE583:
 4142               	.LBE582:
 4143               	.LBB584:
 4144               	.LBB585:
 4145               	.LM409:
 4146 139c 807E      		andi r24,lo8(-32)
 4147 139e 808F      		std Z+24,r24
 4148 13a0 81E0      		ldi r24,lo8(1)
 4149               	.LBE585:
 4150               	.LBE584:
 4151               	.LBE575:
 4152               	.LBE574:
 4153               	.LBE573:
 4154               	.LBE572:
 4155               	.LM410:
 4156 13a2 0895      		ret
 4157               	.LFE70:
 4159               	.global	Timebase_DownCounter_SS_Set_Period_Value_Securely
 4161               	Timebase_DownCounter_SS_Set_Period_Value_Securely:
 4162               	.LFB71:
 4163               	.LM411:
 4164               	.LVL230:
 4165 13a4 CF93      		push r28
 4166 13a6 DF93      		push r29
 4167               	/* prologue: function */
 4168               	/* frame size = 0 */
 4169               	.LBB586:
 4170               	.LBB587:
 4171               	.LM412:
 4172 13a8 C091 0000 		lds r28,Timebase
 4173 13ac D091 0000 		lds r29,(Timebase)+1
 4174 13b0 282F      		mov r18,r24
 4175 13b2 30E0      		ldi r19,lo8(0)
 4176               	.LBE587:
 4177               	.LBE586:
 4178               	.LM413:
 4179 13b4 F901      		movw r30,r18
 4180 13b6 A4E0      		ldi r26,4
 4181 13b8 EE0F      	1:	lsl r30
 4182 13ba FF1F      		rol r31
 4183 13bc AA95      		dec r26
 4184 13be 01F4      		brne 1b
 4185 13c0 E20F      		add r30,r18
 4186 13c2 F31F      		adc r31,r19
 4187 13c4 EC0F      		add r30,r28
 4188 13c6 FD1F      		adc r31,r29
 4189 13c8 808D      		ldd r24,Z+24
 4190               	.LVL231:
 4191 13ca 80FD      		sbrc r24,0
 4192 13cc 00C0      		rjmp .L210
 4193               	.LM414:
 4194 13ce 81A1      		ldd r24,Z+33
 4195 13d0 92A1      		ldd r25,Z+34
 4196 13d2 A3A1      		ldd r26,Z+35
 4197 13d4 B4A1      		ldd r27,Z+36
 4198 13d6 841B      		sub r24,r20
 4199 13d8 950B      		sbc r25,r21
 4200 13da A60B      		sbc r26,r22
 4201 13dc B70B      		sbc r27,r23
 4202               	.LBB588:
 4203               	.LBB589:
 4204               	.LM415:
 4205 13de B7FF      		sbrs r27,7
 4206 13e0 00C0      		rjmp .L208
 4207               	.LM416:
 4208 13e2 15A2      		std Z+37,__zero_reg__
 4209 13e4 16A2      		std Z+38,__zero_reg__
 4210 13e6 17A2      		std Z+39,__zero_reg__
 4211 13e8 10A6      		std Z+40,__zero_reg__
 4212 13ea 00C0      		rjmp .L209
 4213               	.L208:
 4214               	.LM417:
 4215 13ec 85A3      		std Z+37,r24
 4216 13ee 96A3      		std Z+38,r25
 4217 13f0 A7A3      		std Z+39,r26
 4218 13f2 B0A7      		std Z+40,r27
 4219               	.L209:
 4220               	.LBE589:
 4221               	.LBE588:
 4222               	.LBB590:
 4223               	.LBB591:
 4224               	.LM418:
 4225 13f4 F901      		movw r30,r18
 4226 13f6 74E0      		ldi r23,4
 4227 13f8 EE0F      	1:	lsl r30
 4228 13fa FF1F      		rol r31
 4229 13fc 7A95      		dec r23
 4230 13fe 01F4      		brne 1b
 4231 1400 E20F      		add r30,r18
 4232 1402 F31F      		adc r31,r19
 4233 1404 EC0F      		add r30,r28
 4234 1406 FD1F      		adc r31,r29
 4235 1408 808D      		ldd r24,Z+24
 4236 140a 8160      		ori r24,lo8(1)
 4237 140c 808F      		std Z+24,r24
 4238               	.L210:
 4239               	/* epilogue start */
 4240               	.LBE591:
 4241               	.LBE590:
 4242               	.LM419:
 4243 140e DF91      		pop r29
 4244 1410 CF91      		pop r28
 4245 1412 0895      		ret
 4246               	.LFE71:
 4248               	.global	Timebase_DownCounter_SS_Get_Remaining_Period_Value
 4250               	Timebase_DownCounter_SS_Get_Remaining_Period_Value:
 4251               	.LFB72:
 4252               	.LM420:
 4253               	.LVL232:
 4254               	/* prologue: function */
 4255               	/* frame size = 0 */
 4256               	.LBB592:
 4257               	.LBB593:
 4258               	.LM421:
 4259 1414 E091 0000 		lds r30,Timebase
 4260 1418 F091 0000 		lds r31,(Timebase)+1
 4261 141c 90E0      		ldi r25,lo8(0)
 4262               	.LBE593:
 4263               	.LBE592:
 4264               	.LM422:
 4265 141e 9C01      		movw r18,r24
 4266               	.LVL233:
 4267 1420 B4E0      		ldi r27,4
 4268 1422 220F      	1:	lsl r18
 4269 1424 331F      		rol r19
 4270 1426 BA95      		dec r27
 4271 1428 01F4      		brne 1b
 4272 142a 280F      		add r18,r24
 4273 142c 391F      		adc r19,r25
 4274 142e E20F      		add r30,r18
 4275 1430 F31F      		adc r31,r19
 4276 1432 21A1      		ldd r18,Z+33
 4277 1434 32A1      		ldd r19,Z+34
 4278 1436 43A1      		ldd r20,Z+35
 4279 1438 54A1      		ldd r21,Z+36
 4280               	.LVL234:
 4281 143a 85A1      		ldd r24,Z+37
 4282 143c 96A1      		ldd r25,Z+38
 4283 143e A7A1      		ldd r26,Z+39
 4284 1440 B0A5      		ldd r27,Z+40
 4285 1442 281B      		sub r18,r24
 4286 1444 390B      		sbc r19,r25
 4287 1446 4A0B      		sbc r20,r26
 4288 1448 5B0B      		sbc r21,r27
 4289 144a 57FF      		sbrs r21,7
 4290 144c 00C0      		rjmp .L212
 4291 144e 20E0      		ldi r18,lo8(0)
 4292 1450 30E0      		ldi r19,hi8(0)
 4293 1452 40E0      		ldi r20,hlo8(0)
 4294 1454 50E0      		ldi r21,hhi8(0)
 4295               	.L212:
 4296               	.LM423:
 4297 1456 B901      		movw r22,r18
 4298               	.LVL235:
 4299 1458 CA01      		movw r24,r20
 4300               	/* epilogue start */
 4301 145a 0895      		ret
 4302               	.LFE72:
 4304               	.global	Timebase_DownCounter_SS_Period_Value_Expired
 4306               	Timebase_DownCounter_SS_Period_Value_Expired:
 4307               	.LFB73:
 4308               	.LM424:
 4309               	.LVL236:
 4310 145c CF93      		push r28
 4311 145e DF93      		push r29
 4312               	/* prologue: function */
 4313               	/* frame size = 0 */
 4314               	.LBB594:
 4315               	.LBB595:
 4316               	.LBB596:
 4317               	.LBB597:
 4318               	.LM425:
 4319 1460 C091 0000 		lds r28,Timebase
 4320 1464 D091 0000 		lds r29,(Timebase)+1
 4321 1468 682F      		mov r22,r24
 4322 146a 70E0      		ldi r23,lo8(0)
 4323               	.LBE597:
 4324               	.LBE596:
 4325               	.LM426:
 4326 146c FB01      		movw r30,r22
 4327 146e 44E0      		ldi r20,4
 4328 1470 EE0F      	1:	lsl r30
 4329 1472 FF1F      		rol r31
 4330 1474 4A95      		dec r20
 4331 1476 01F4      		brne 1b
 4332 1478 E60F      		add r30,r22
 4333 147a F71F      		adc r31,r23
 4334 147c EC0F      		add r30,r28
 4335 147e FD1F      		adc r31,r29
 4336 1480 21A1      		ldd r18,Z+33
 4337 1482 32A1      		ldd r19,Z+34
 4338 1484 43A1      		ldd r20,Z+35
 4339 1486 54A1      		ldd r21,Z+36
 4340               	.LVL237:
 4341 1488 85A1      		ldd r24,Z+37
 4342 148a 96A1      		ldd r25,Z+38
 4343 148c A7A1      		ldd r26,Z+39
 4344 148e B0A5      		ldd r27,Z+40
 4345               	.LVL238:
 4346 1490 281B      		sub r18,r24
 4347 1492 390B      		sbc r19,r25
 4348 1494 4A0B      		sbc r20,r26
 4349 1496 5B0B      		sbc r21,r27
 4350               	.LM427:
 4351 1498 57FD      		sbrc r21,7
 4352 149a 00C0      		rjmp .L215
 4353               	.LBE595:
 4354               	.LBE594:
 4355               	.LM428:
 4356 149c 2115      		cp r18,__zero_reg__
 4357 149e 3105      		cpc r19,__zero_reg__
 4358 14a0 4105      		cpc r20,__zero_reg__
 4359 14a2 5105      		cpc r21,__zero_reg__
 4360 14a4 01F0      		breq .L215
 4361 14a6 20E0      		ldi r18,lo8(0)
 4362               	.LVL239:
 4363 14a8 00C0      		rjmp .L216
 4364               	.LVL240:
 4365               	.L215:
 4366 14aa 20E0      		ldi r18,lo8(0)
 4367               	.LVL241:
 4368 14ac CB01      		movw r24,r22
 4369 14ae 34E0      		ldi r19,4
 4370 14b0 880F      	1:	lsl r24
 4371 14b2 991F      		rol r25
 4372 14b4 3A95      		dec r19
 4373 14b6 01F4      		brne 1b
 4374 14b8 860F      		add r24,r22
 4375 14ba 971F      		adc r25,r23
 4376 14bc C80F      		add r28,r24
 4377 14be D91F      		adc r29,r25
 4378 14c0 888D      		ldd r24,Y+24
 4379 14c2 80FF      		sbrs r24,0
 4380 14c4 21E0      		ldi r18,lo8(1)
 4381               	.L217:
 4382 14c6 81E0      		ldi r24,lo8(1)
 4383 14c8 2827      		eor r18,r24
 4384               	.L216:
 4385               	.LM429:
 4386 14ca 822F      		mov r24,r18
 4387               	/* epilogue start */
 4388 14cc DF91      		pop r29
 4389 14ce CF91      		pop r28
 4390 14d0 0895      		ret
 4391               	.LFE73:
 4393               	.global	Timebase_DownCounter_SS_Period_Value_Expired_Event
 4395               	Timebase_DownCounter_SS_Period_Value_Expired_Event:
 4396               	.LFB74:
 4397               	.LM430:
 4398               	.LVL242:
 4399 14d2 1F93      		push r17
 4400               	/* prologue: function */
 4401               	/* frame size = 0 */
 4402 14d4 182F      		mov r17,r24
 4403               	.LM431:
 4404 14d6 0E94 0000 		call Timebase_DownCounter_SS_Period_Value_Expired
 4405               	.LVL243:
 4406 14da 8130      		cpi r24,lo8(1)
 4407 14dc 01F0      		breq .L220
 4408 14de 80E0      		ldi r24,lo8(0)
 4409 14e0 00C0      		rjmp .L221
 4410               	.L220:
 4411               	.LBB598:
 4412               	.LBB599:
 4413               	.LM432:
 4414 14e2 E091 0000 		lds r30,Timebase
 4415 14e6 F091 0000 		lds r31,(Timebase)+1
 4416 14ea 212F      		mov r18,r17
 4417 14ec 30E0      		ldi r19,lo8(0)
 4418               	.LVL244:
 4419 14ee C901      		movw r24,r18
 4420 14f0 54E0      		ldi r21,4
 4421 14f2 880F      	1:	lsl r24
 4422 14f4 991F      		rol r25
 4423 14f6 5A95      		dec r21
 4424 14f8 01F4      		brne 1b
 4425 14fa 820F      		add r24,r18
 4426 14fc 931F      		adc r25,r19
 4427 14fe E80F      		add r30,r24
 4428 1500 F91F      		adc r31,r25
 4429 1502 808D      		ldd r24,Z+24
 4430 1504 8E7F      		andi r24,lo8(-2)
 4431 1506 808F      		std Z+24,r24
 4432 1508 81E0      		ldi r24,lo8(1)
 4433               	.L221:
 4434               	/* epilogue start */
 4435               	.LBE599:
 4436               	.LBE598:
 4437               	.LM433:
 4438 150a 1F91      		pop r17
 4439               	.LVL245:
 4440 150c 0895      		ret
 4441               	.LFE74:
 4443               	.global	Timebase_DownCounter_SS_Update_All
 4445               	Timebase_DownCounter_SS_Update_All:
 4446               	.LFB75:
 4447               	.LM434:
 4448 150e 1F93      		push r17
 4449               	/* prologue: function */
 4450               	/* frame size = 0 */
 4451               	.LM435:
 4452 1510 10E0      		ldi r17,lo8(0)
 4453               	.LVL246:
 4454               	.L224:
 4455               	.LBB600:
 4456               	.LM436:
 4457 1512 812F      		mov r24,r17
 4458 1514 0E94 0000 		call Timebase_DownCounter_SS_Update
 4459               	.LM437:
 4460 1518 1F5F      		subi r17,lo8(-(1))
 4461 151a 1530      		cpi r17,lo8(5)
 4462 151c 01F4      		brne .L224
 4463               	/* epilogue start */
 4464               	.LBE600:
 4465               	.LM438:
 4466 151e 1F91      		pop r17
 4467               	.LVL247:
 4468 1520 0895      		ret
 4469               	.LFE75:
 4471               	.global	Timebase_DownCounter_SS_Reset_All
 4473               	Timebase_DownCounter_SS_Reset_All:
 4474               	.LFB76:
 4475               	.LM439:
 4476               	/* prologue: function */
 4477               	/* frame size = 0 */
 4478               	.LBB601:
 4479               	.LBB602:
 4480               	.LBB603:
 4481               	.LBB604:
 4482               	.LBB605:
 4483               	.LM440:
 4484 1522 4091 0000 		lds r20,Timebase
 4485 1526 5091 0000 		lds r21,(Timebase)+1
 4486 152a DA01      		movw r26,r20
 4487 152c 5996      		adiw r26,25
 4488 152e 20E0      		ldi r18,lo8(0)
 4489 1530 30E0      		ldi r19,hi8(0)
 4490               	.L228:
 4491 1532 1496      		adiw r26,4
 4492 1534 1D92      		st X+,__zero_reg__
 4493 1536 1D92      		st X+,__zero_reg__
 4494 1538 1D92      		st X+,__zero_reg__
 4495 153a 1C92      		st X,__zero_reg__
 4496 153c 1797      		sbiw r26,4+3
 4497               	.LBE605:
 4498               	.LBE604:
 4499               	.LBB606:
 4500               	.LBB607:
 4501               	.LM441:
 4502 153e 1D92      		st X+,__zero_reg__
 4503 1540 1D92      		st X+,__zero_reg__
 4504 1542 1D92      		st X+,__zero_reg__
 4505 1544 1C92      		st X,__zero_reg__
 4506 1546 1397      		sbiw r26,3
 4507               	.LBE607:
 4508               	.LBE606:
 4509               	.LBB608:
 4510               	.LBB609:
 4511               	.LM442:
 4512 1548 1896      		adiw r26,8
 4513 154a 1D92      		st X+,__zero_reg__
 4514 154c 1D92      		st X+,__zero_reg__
 4515 154e 1D92      		st X+,__zero_reg__
 4516 1550 1C92      		st X,__zero_reg__
 4517 1552 1B97      		sbiw r26,8+3
 4518               	.LBE609:
 4519               	.LBE608:
 4520               	.LBB610:
 4521               	.LBB611:
 4522               	.LM443:
 4523 1554 F901      		movw r30,r18
 4524 1556 64E0      		ldi r22,4
 4525 1558 EE0F      	1:	lsl r30
 4526 155a FF1F      		rol r31
 4527 155c 6A95      		dec r22
 4528 155e 01F4      		brne 1b
 4529 1560 E20F      		add r30,r18
 4530 1562 F31F      		adc r31,r19
 4531 1564 E40F      		add r30,r20
 4532 1566 F51F      		adc r31,r21
 4533 1568 808D      		ldd r24,Z+24
 4534               	.LBE611:
 4535               	.LBE610:
 4536               	.LBB612:
 4537               	.LBB613:
 4538               	.LM444:
 4539 156a 807E      		andi r24,lo8(-32)
 4540 156c 808F      		std Z+24,r24
 4541 156e 2F5F      		subi r18,lo8(-(1))
 4542 1570 3F4F      		sbci r19,hi8(-(1))
 4543 1572 5196      		adiw r26,17
 4544               	.LBE613:
 4545               	.LBE612:
 4546               	.LBE603:
 4547               	.LBE602:
 4548               	.LM445:
 4549 1574 2530      		cpi r18,5
 4550 1576 3105      		cpc r19,__zero_reg__
 4551 1578 01F4      		brne .L228
 4552               	/* epilogue start */
 4553               	.LBE601:
 4554               	.LM446:
 4555 157a 0895      		ret
 4556               	.LFE76:
 4558               	.global	Timebase_Reset
 4560               	Timebase_Reset:
 4561               	.LFB77:
 4562               	.LM447:
 4563               	/* prologue: function */
 4564               	/* frame size = 0 */
 4565               	.LM448:
 4566 157c 0E94 0000 		call Timebase_DownCounter_SS_Reset_All
 4567               	.LM449:
 4568 1580 0E94 0000 		call Timebase_DownCounter_Reset_All
 4569               	/* epilogue start */
 4570               	.LM450:
 4571 1584 0895      		ret
 4572               	.LFE77:
 4574               	.global	Timebase_Init
 4576               	Timebase_Init:
 4577               	.LFB78:
 4578               	.LM451:
 4579               	.LVL248:
 4580 1586 0F93      		push r16
 4581 1588 1F93      		push r17
 4582               	/* prologue: function */
 4583               	/* frame size = 0 */
 4584 158a 8C01      		movw r16,r24
 4585               	.LM452:
 4586 158c 0E94 0000 		call Timebase_Struct_Init
 4587               	.LVL249:
 4588               	.LM453:
 4589 1590 C801      		movw r24,r16
 4590 1592 0E94 0000 		call Timebase_Timer_Config
 4591               	.LM454:
 4592 1596 0E94 0000 		call Timebase_Reset
 4593               	/* epilogue start */
 4594               	.LM455:
 4595 159a 1F91      		pop r17
 4596 159c 0F91      		pop r16
 4597               	.LVL250:
 4598 159e 0895      		ret
 4599               	.LFE78:
 4601               	.global	Timebase_Main_Loop_Executables
 4603               	Timebase_Main_Loop_Executables:
 4604               	.LFB79:
 4605               	.LM456:
 4606               	/* prologue: function */
 4607               	/* frame size = 0 */
 4608               	.LM457:
 4609 15a0 0E94 0000 		call Timebase_DownCounter_SS_Update_All
 4610               	.LM458:
 4611 15a4 0E94 0000 		call Timebase_DownCounter_Update_All
 4612               	/* epilogue start */
 4613               	.LM459:
 4614 15a8 0895      		ret
 4615               	.LFE79:
 4617               	.global	Timebase_ISR_Executables
 4619               	Timebase_ISR_Executables:
 4620               	.LFB80:
 4621               	.LM460:
 4622               	/* prologue: function */
 4623               	/* frame size = 0 */
 4624               	.LM461:
 4625 15aa E091 0000 		lds r30,Timebase
 4626 15ae F091 0000 		lds r31,(Timebase)+1
 4627 15b2 8085      		ldd r24,Z+8
 4628 15b4 9185      		ldd r25,Z+9
 4629 15b6 0196      		adiw r24,1
 4630 15b8 9187      		std Z+9,r25
 4631 15ba 8087      		std Z+8,r24
 4632               	.LM462:
 4633 15bc 8381      		ldd r24,Z+3
 4634 15be 86BD      		out 70-32,r24
 4635               	.LM463:
 4636 15c0 8085      		ldd r24,Z+8
 4637 15c2 9185      		ldd r25,Z+9
 4638 15c4 6181      		ldd r22,Z+1
 4639 15c6 7281      		ldd r23,Z+2
 4640 15c8 0E94 0000 		call __udivmodhi4
 4641 15cc 892B      		or r24,r25
 4642 15ce 01F4      		brne .L239
 4643               	.LM464:
 4644 15d0 8285      		ldd r24,Z+10
 4645 15d2 9385      		ldd r25,Z+11
 4646 15d4 A485      		ldd r26,Z+12
 4647 15d6 B585      		ldd r27,Z+13
 4648 15d8 0196      		adiw r24,1
 4649 15da A11D      		adc r26,__zero_reg__
 4650 15dc B11D      		adc r27,__zero_reg__
 4651 15de 8287      		std Z+10,r24
 4652 15e0 9387      		std Z+11,r25
 4653 15e2 A487      		std Z+12,r26
 4654 15e4 B587      		std Z+13,r27
 4655               	.LBB614:
 4656               	.LBB615:
 4657               	.LM465:
 4658 15e6 8789      		ldd r24,Z+23
 4659               	.LBE615:
 4660               	.LBE614:
 4661               	.LM466:
 4662 15e8 8823      		tst r24
 4663 15ea 01F4      		brne .L239
 4664               	.LM467:
 4665 15ec 1186      		std Z+9,__zero_reg__
 4666 15ee 1086      		std Z+8,__zero_reg__
 4667               	.L239:
 4668 15f0 0895      		ret
 4669               	.LFE80:
 4671               	.global	__vector_16
 4673               	__vector_16:
 4674               	.LFB81:
 4675               	.LM468:
 4676 15f2 1F92      		push __zero_reg__
 4677 15f4 0F92      		push r0
 4678 15f6 0FB6      		in r0,__SREG__
 4679 15f8 0F92      		push r0
 4680 15fa 1124      		clr __zero_reg__
 4681 15fc 2F93      		push r18
 4682 15fe 3F93      		push r19
 4683 1600 4F93      		push r20
 4684 1602 5F93      		push r21
 4685 1604 6F93      		push r22
 4686 1606 7F93      		push r23
 4687 1608 8F93      		push r24
 4688 160a 9F93      		push r25
 4689 160c AF93      		push r26
 4690 160e BF93      		push r27
 4691 1610 EF93      		push r30
 4692 1612 FF93      		push r31
 4693               	/* prologue: Signal */
 4694               	/* frame size = 0 */
 4695               	.LM469:
 4696 1614 5D9A      		sbi 43-32,5
 4697               	.LM470:
 4698 1616 0E94 0000 		call Timebase_ISR_Executables
 4699               	.LM471:
 4700 161a 5D98      		cbi 43-32,5
 4701               	/* epilogue start */
 4702               	.LM472:
 4703 161c FF91      		pop r31
 4704 161e EF91      		pop r30
 4705 1620 BF91      		pop r27
 4706 1622 AF91      		pop r26
 4707 1624 9F91      		pop r25
 4708 1626 8F91      		pop r24
 4709 1628 7F91      		pop r23
 4710 162a 6F91      		pop r22
 4711 162c 5F91      		pop r21
 4712 162e 4F91      		pop r20
 4713 1630 3F91      		pop r19
 4714 1632 2F91      		pop r18
 4715 1634 0F90      		pop r0
 4716 1636 0FBE      		out __SREG__,r0
 4717 1638 0F90      		pop r0
 4718 163a 1F90      		pop __zero_reg__
 4719 163c 1895      		reti
 4720               	.LFE81:
 4722               		.data
 4725               	C.2.1341:
 4726 0000 0100      		.word	1
 4727 0002 0800      		.word	8
 4728 0004 4000      		.word	64
 4729 0006 0001      		.word	256
 4730 0008 0004      		.word	1024
 4731               		.comm Timebase_type,174,1
 4732               		.comm Timebase,2,1
 5357               	.Letext0:
DEFINED SYMBOLS
                            *ABS*:00000000 timebase.c
C:\Users\WALTON\AppData\Local\Temp/ccaOZz0N.s:2      *ABS*:0000003f __SREG__
C:\Users\WALTON\AppData\Local\Temp/ccaOZz0N.s:3      *ABS*:0000003e __SP_H__
C:\Users\WALTON\AppData\Local\Temp/ccaOZz0N.s:4      *ABS*:0000003d __SP_L__
C:\Users\WALTON\AppData\Local\Temp/ccaOZz0N.s:5      *ABS*:00000034 __CCP__
C:\Users\WALTON\AppData\Local\Temp/ccaOZz0N.s:6      *ABS*:00000000 __tmp_reg__
C:\Users\WALTON\AppData\Local\Temp/ccaOZz0N.s:7      *ABS*:00000001 __zero_reg__
C:\Users\WALTON\AppData\Local\Temp/ccaOZz0N.s:18     .text:00000000 Timebase_Struct_Init
                            *COM*:000000ae Timebase_type
                            *COM*:00000002 Timebase
C:\Users\WALTON\AppData\Local\Temp/ccaOZz0N.s:177    .text:00000128 Timebase_Timer_Config
C:\Users\WALTON\AppData\Local\Temp/ccaOZz0N.s:4725   .data:00000000 C.2.1341
C:\Users\WALTON\AppData\Local\Temp/ccaOZz0N.s:497    .text:000002c2 Timebase_Token_Executing
C:\Users\WALTON\AppData\Local\Temp/ccaOZz0N.s:513    .text:000002ce Timebase_Token_Add
C:\Users\WALTON\AppData\Local\Temp/ccaOZz0N.s:539    .text:000002e4 Timebase_Token_Remove
C:\Users\WALTON\AppData\Local\Temp/ccaOZz0N.s:565    .text:000002fa Timebase_Token_Remove_All
C:\Users\WALTON\AppData\Local\Temp/ccaOZz0N.s:581    .text:00000306 Timebase_Timer_Get_SubSeconds
C:\Users\WALTON\AppData\Local\Temp/ccaOZz0N.s:599    .text:00000316 Timebase_Timer_Get_Seconds
C:\Users\WALTON\AppData\Local\Temp/ccaOZz0N.s:620    .text:0000032c Timebase_Timer_Set_SubSeconds
C:\Users\WALTON\AppData\Local\Temp/ccaOZz0N.s:638    .text:0000033a Timebase_Timer_Set_Seconds
C:\Users\WALTON\AppData\Local\Temp/ccaOZz0N.s:658    .text:0000034c Timebase_Timer_Delay_SubSeconds
C:\Users\WALTON\AppData\Local\Temp/ccaOZz0N.s:745    .text:00000396 Timebase_Timer_Await_SubSeconds
C:\Users\WALTON\AppData\Local\Temp/ccaOZz0N.s:828    .text:0000040a Timebase_Timer_Delay_Seconds
C:\Users\WALTON\AppData\Local\Temp/ccaOZz0N.s:890    .text:0000044c Timebase_Window_Timer_Reset
C:\Users\WALTON\AppData\Local\Temp/ccaOZz0N.s:916    .text:00000468 Timebase_Window_Timer_Start
C:\Users\WALTON\AppData\Local\Temp/ccaOZz0N.s:964    .text:0000049c Timebase_Window_Timer_Get_Interval
C:\Users\WALTON\AppData\Local\Temp/ccaOZz0N.s:1062   .text:00000516 Timebase_Window_Timer_Get_Interval_Reset
C:\Users\WALTON\AppData\Local\Temp/ccaOZz0N.s:1102   .text:00000540 Timebase_DownCounter_Get_Status
C:\Users\WALTON\AppData\Local\Temp/ccaOZz0N.s:1138   .text:0000056e Timebase_DownCounter_Set_Status
C:\Users\WALTON\AppData\Local\Temp/ccaOZz0N.s:1178   .text:000005a2 Timebase_DownCounter_Get_Value
C:\Users\WALTON\AppData\Local\Temp/ccaOZz0N.s:1216   .text:000005d2 Timebase_DownCounter_Set_Value
C:\Users\WALTON\AppData\Local\Temp/ccaOZz0N.s:1253   .text:00000602 Timebase_DownCounter_Get_EndValue
C:\Users\WALTON\AppData\Local\Temp/ccaOZz0N.s:1291   .text:00000632 Timebase_DownCounter_Set_EndValue
C:\Users\WALTON\AppData\Local\Temp/ccaOZz0N.s:1328   .text:00000662 Timebase_DownCounter_Get_PeriodValue
C:\Users\WALTON\AppData\Local\Temp/ccaOZz0N.s:1366   .text:00000692 Timebase_DownCounter_Set_PeriodValue
C:\Users\WALTON\AppData\Local\Temp/ccaOZz0N.s:1428   .text:000006ee Timebase_DownCounter_Get_Period_Flag
C:\Users\WALTON\AppData\Local\Temp/ccaOZz0N.s:1463   .text:0000071a Timebase_DownCounter_Set_Period_Flag
C:\Users\WALTON\AppData\Local\Temp/ccaOZz0N.s:1499   .text:00000748 Timebase_DownCounter_Clear_Period_Flag
C:\Users\WALTON\AppData\Local\Temp/ccaOZz0N.s:1535   .text:00000776 Timebase_DownCounter_Reset
C:\Users\WALTON\AppData\Local\Temp/ccaOZz0N.s:1598   .text:000007b6 Timebase_DownCounter_Clear_All_Flags
C:\Users\WALTON\AppData\Local\Temp/ccaOZz0N.s:1665   .text:000007f6 Timebase_DownCounter_Start
C:\Users\WALTON\AppData\Local\Temp/ccaOZz0N.s:1715   .text:00000830 Timebase_DownCounter_Stop
C:\Users\WALTON\AppData\Local\Temp/ccaOZz0N.s:1765   .text:0000086a Timebase_DownCounter_Set_Securely
C:\Users\WALTON\AppData\Local\Temp/ccaOZz0N.s:1865   .text:000008dc Timebase_DownCounter_Set_Forcefully
C:\Users\WALTON\AppData\Local\Temp/ccaOZz0N.s:1939   .text:0000092a Timebase_DownCounter_Update
C:\Users\WALTON\AppData\Local\Temp/ccaOZz0N.s:2106   .text:000009f4 Timebase_DownCounter_Expired
C:\Users\WALTON\AppData\Local\Temp/ccaOZz0N.s:2148   .text:00000a2c Timebase_DownCounter_Expired_Event
C:\Users\WALTON\AppData\Local\Temp/ccaOZz0N.s:2235   .text:00000a80 Timebase_DownCounter_Set_Period_Value_Securely
C:\Users\WALTON\AppData\Local\Temp/ccaOZz0N.s:2334   .text:00000b04 Timebase_DownCounter_Get_Remaining_Period_Value
C:\Users\WALTON\AppData\Local\Temp/ccaOZz0N.s:2398   .text:00000b5c Timebase_DownCounter_Period_Value_Expired
C:\Users\WALTON\AppData\Local\Temp/ccaOZz0N.s:2498   .text:00000be8 Timebase_DownCounter_Period_Value_Expired_Event
C:\Users\WALTON\AppData\Local\Temp/ccaOZz0N.s:2552   .text:00000c2c Timebase_DownCounter_Update_All
C:\Users\WALTON\AppData\Local\Temp/ccaOZz0N.s:2580   .text:00000c40 Timebase_DownCounter_Reset_All
C:\Users\WALTON\AppData\Local\Temp/ccaOZz0N.s:2670   .text:00000c96 Timebase_DownCounter_SS_Get_Status
C:\Users\WALTON\AppData\Local\Temp/ccaOZz0N.s:2702   .text:00000cbc Timebase_DownCounter_SS_Set_Status
C:\Users\WALTON\AppData\Local\Temp/ccaOZz0N.s:2738   .text:00000ce8 Timebase_DownCounter_SS_Get_Value
C:\Users\WALTON\AppData\Local\Temp/ccaOZz0N.s:2779   .text:00000d1e Timebase_DownCounter_SS_Set_Value
C:\Users\WALTON\AppData\Local\Temp/ccaOZz0N.s:2811   .text:00000d46 Timebase_DownCounter_SS_Get_EndValueSec
C:\Users\WALTON\AppData\Local\Temp/ccaOZz0N.s:2852   .text:00000d7c Timebase_DownCounter_SS_Get_EndValueSubSec
C:\Users\WALTON\AppData\Local\Temp/ccaOZz0N.s:2893   .text:00000db2 Timebase_DownCounter_SS_Set_EndValueSec
C:\Users\WALTON\AppData\Local\Temp/ccaOZz0N.s:2925   .text:00000dda Timebase_DownCounter_SS_Set_EndValueSubSec
C:\Users\WALTON\AppData\Local\Temp/ccaOZz0N.s:2957   .text:00000e02 Timebase_DownCounter_SS_Get_PeriodValue
C:\Users\WALTON\AppData\Local\Temp/ccaOZz0N.s:2998   .text:00000e38 Timebase_DownCounter_SS_Set_PeriodValue
C:\Users\WALTON\AppData\Local\Temp/ccaOZz0N.s:3051   .text:00000e84 Timebase_DownCounter_SS_Get_Period_Flag
C:\Users\WALTON\AppData\Local\Temp/ccaOZz0N.s:3082   .text:00000ea8 Timebase_DownCounter_SS_Set_Period_Flag
C:\Users\WALTON\AppData\Local\Temp/ccaOZz0N.s:3114   .text:00000ece Timebase_DownCounter_SS_Clear_Period_Flag
C:\Users\WALTON\AppData\Local\Temp/ccaOZz0N.s:3146   .text:00000ef4 Timebase_DownCounter_SS_Reset
C:\Users\WALTON\AppData\Local\Temp/ccaOZz0N.s:3213   .text:00000f32 Timebase_DownCounter_SS_Clear_All_Flags
C:\Users\WALTON\AppData\Local\Temp/ccaOZz0N.s:3284   .text:00000f70 Timebase_DownCounter_SS_Start
C:\Users\WALTON\AppData\Local\Temp/ccaOZz0N.s:3330   .text:00000fa2 Timebase_DownCounter_SS_Stop
C:\Users\WALTON\AppData\Local\Temp/ccaOZz0N.s:3376   .text:00000fd4 Timebase_DownCounter_SS_Set_Securely
C:\Users\WALTON\AppData\Local\Temp/ccaOZz0N.s:3645   .text:00001154 Timebase_DownCounter_SS_Set_Forcefully
C:\Users\WALTON\AppData\Local\Temp/ccaOZz0N.s:3719   .text:00001198 Timebase_DownCounter_SS_Update
C:\Users\WALTON\AppData\Local\Temp/ccaOZz0N.s:4034   .text:00001326 Timebase_DownCounter_SS_Expired
C:\Users\WALTON\AppData\Local\Temp/ccaOZz0N.s:4072   .text:00001356 Timebase_DownCounter_SS_Expired_Event
C:\Users\WALTON\AppData\Local\Temp/ccaOZz0N.s:4161   .text:000013a4 Timebase_DownCounter_SS_Set_Period_Value_Securely
C:\Users\WALTON\AppData\Local\Temp/ccaOZz0N.s:4250   .text:00001414 Timebase_DownCounter_SS_Get_Remaining_Period_Value
C:\Users\WALTON\AppData\Local\Temp/ccaOZz0N.s:4306   .text:0000145c Timebase_DownCounter_SS_Period_Value_Expired
C:\Users\WALTON\AppData\Local\Temp/ccaOZz0N.s:4395   .text:000014d2 Timebase_DownCounter_SS_Period_Value_Expired_Event
C:\Users\WALTON\AppData\Local\Temp/ccaOZz0N.s:4445   .text:0000150e Timebase_DownCounter_SS_Update_All
C:\Users\WALTON\AppData\Local\Temp/ccaOZz0N.s:4473   .text:00001522 Timebase_DownCounter_SS_Reset_All
C:\Users\WALTON\AppData\Local\Temp/ccaOZz0N.s:4560   .text:0000157c Timebase_Reset
C:\Users\WALTON\AppData\Local\Temp/ccaOZz0N.s:4576   .text:00001586 Timebase_Init
C:\Users\WALTON\AppData\Local\Temp/ccaOZz0N.s:4603   .text:000015a0 Timebase_Main_Loop_Executables
C:\Users\WALTON\AppData\Local\Temp/ccaOZz0N.s:4619   .text:000015aa Timebase_ISR_Executables
C:\Users\WALTON\AppData\Local\Temp/ccaOZz0N.s:4673   .text:000015f2 __vector_16

UNDEFINED SYMBOLS
__divmodsi4
__mulsi3
__udivmodhi4
__do_copy_data
__do_clear_bss
