   1               		.file	"timebase.c"
   2               	__SREG__ = 0x3f
   3               	__SP_H__ = 0x3e
   4               	__SP_L__ = 0x3d
   5               	__CCP__  = 0x34
   6               	__tmp_reg__ = 0
   7               	__zero_reg__ = 1
  15               	.Ltext0:
  16               	.global	Timebase_Struct_Init
  18               	Timebase_Struct_Init:
  19               	.LFB6:
  20               	.LM1:
  21               	/* prologue: function */
  22               	/* frame size = 0 */
  23               	.LM2:
  24 0000 80E0      		ldi r24,lo8(Timebase_type)
  25 0002 90E0      		ldi r25,hi8(Timebase_type)
  26 0004 9093 0000 		sts (Timebase)+1,r25
  27 0008 8093 0000 		sts Timebase,r24
  28               	.LM3:
  29 000c 1092 0000 		sts Timebase_type,__zero_reg__
  30               	.LM4:
  31 0010 8091 0000 		lds r24,Timebase_type
  32 0014 8460      		ori r24,lo8(4)
  33 0016 8093 0000 		sts Timebase_type,r24
  34               	.LM5:
  35 001a 8091 0000 		lds r24,Timebase_type
  36 001e 8770      		andi r24,lo8(7)
  37 0020 8093 0000 		sts Timebase_type,r24
  38               	.LM6:
  39 0024 81E0      		ldi r24,lo8(1)
  40 0026 90E0      		ldi r25,hi8(1)
  41 0028 9093 0000 		sts (Timebase_type+1)+1,r25
  42 002c 8093 0000 		sts Timebase_type+1,r24
  43               	.LM7:
  44 0030 1092 0000 		sts Timebase_type+3,__zero_reg__
  45               	.LM8:
  46 0034 1092 0000 		sts (Timebase_type+8)+1,__zero_reg__
  47 0038 1092 0000 		sts Timebase_type+8,__zero_reg__
  48               	.LM9:
  49 003c 1092 0000 		sts Timebase_type+10,__zero_reg__
  50 0040 1092 0000 		sts (Timebase_type+10)+1,__zero_reg__
  51 0044 1092 0000 		sts (Timebase_type+10)+2,__zero_reg__
  52 0048 1092 0000 		sts (Timebase_type+10)+3,__zero_reg__
  53               	.LM10:
  54 004c 1092 0000 		sts Timebase_type+4,__zero_reg__
  55 0050 1092 0000 		sts (Timebase_type+4)+1,__zero_reg__
  56 0054 1092 0000 		sts (Timebase_type+4)+2,__zero_reg__
  57 0058 1092 0000 		sts (Timebase_type+4)+3,__zero_reg__
  58               	.LM11:
  59 005c 1092 0000 		sts Timebase_type+14,__zero_reg__
  60 0060 1092 0000 		sts (Timebase_type+14)+1,__zero_reg__
  61 0064 1092 0000 		sts (Timebase_type+14)+2,__zero_reg__
  62 0068 1092 0000 		sts (Timebase_type+14)+3,__zero_reg__
  63               	.LM12:
  64 006c 1092 0000 		sts Timebase_type+18,__zero_reg__
  65 0070 1092 0000 		sts (Timebase_type+18)+1,__zero_reg__
  66 0074 1092 0000 		sts (Timebase_type+18)+2,__zero_reg__
  67 0078 1092 0000 		sts (Timebase_type+18)+3,__zero_reg__
  68               	.LM13:
  69 007c 1092 0000 		sts Timebase_type+22,__zero_reg__
  70               	.LM14:
  71 0080 1092 0000 		sts Timebase_type+23,__zero_reg__
  72 0084 A0E0      		ldi r26,lo8(Timebase_type+110)
  73 0086 B0E0      		ldi r27,hi8(Timebase_type+110)
  74 0088 80E0      		ldi r24,lo8(0)
  75 008a 90E0      		ldi r25,hi8(0)
  76               	.LBB322:
  77               	.LM15:
  78 008c 2DE0      		ldi r18,lo8(13)
  79 008e 30E0      		ldi r19,hi8(13)
  80               	.L2:
  81 0090 829F      		mul r24,r18
  82 0092 F001      		movw r30,r0
  83 0094 839F      		mul r24,r19
  84 0096 F00D      		add r31,r0
  85 0098 929F      		mul r25,r18
  86 009a F00D      		add r31,r0
  87 009c 1124      		clr r1
  88 009e E050      		subi r30,lo8(-(Timebase_type+109))
  89 00a0 F040      		sbci r31,hi8(-(Timebase_type+109))
  90 00a2 1082      		st Z,__zero_reg__
  91               	.LM16:
  92 00a4 1D92      		st X+,__zero_reg__
  93 00a6 1D92      		st X+,__zero_reg__
  94 00a8 1D92      		st X+,__zero_reg__
  95 00aa 1C92      		st X,__zero_reg__
  96 00ac 1397      		sbiw r26,3
  97               	.LM17:
  98 00ae 1496      		adiw r26,4
  99 00b0 1D92      		st X+,__zero_reg__
 100 00b2 1D92      		st X+,__zero_reg__
 101 00b4 1D92      		st X+,__zero_reg__
 102 00b6 1C92      		st X,__zero_reg__
 103 00b8 1797      		sbiw r26,4+3
 104               	.LM18:
 105 00ba 1896      		adiw r26,8
 106 00bc 1D92      		st X+,__zero_reg__
 107 00be 1D92      		st X+,__zero_reg__
 108 00c0 1D92      		st X+,__zero_reg__
 109 00c2 1C92      		st X,__zero_reg__
 110 00c4 1B97      		sbiw r26,8+3
 111 00c6 0196      		adiw r24,1
 112 00c8 1D96      		adiw r26,13
 113               	.LM19:
 114 00ca 8530      		cpi r24,5
 115 00cc 9105      		cpc r25,__zero_reg__
 116 00ce 01F4      		brne .L2
 117 00d0 A0E0      		ldi r26,lo8(Timebase_type+25)
 118 00d2 B0E0      		ldi r27,hi8(Timebase_type+25)
 119 00d4 80E0      		ldi r24,lo8(0)
 120 00d6 90E0      		ldi r25,hi8(0)
 121               	.L3:
 122               	.LBE322:
 123               	.LBB323:
 124               	.LM20:
 125 00d8 FC01      		movw r30,r24
 126 00da 24E0      		ldi r18,4
 127 00dc EE0F      	1:	lsl r30
 128 00de FF1F      		rol r31
 129 00e0 2A95      		dec r18
 130 00e2 01F4      		brne 1b
 131 00e4 E80F      		add r30,r24
 132 00e6 F91F      		adc r31,r25
 133 00e8 E050      		subi r30,lo8(-(Timebase_type))
 134 00ea F040      		sbci r31,hi8(-(Timebase_type))
 135 00ec 108E      		std Z+24,__zero_reg__
 136               	.LM21:
 137 00ee 1D92      		st X+,__zero_reg__
 138 00f0 1D92      		st X+,__zero_reg__
 139 00f2 1D92      		st X+,__zero_reg__
 140 00f4 1C92      		st X,__zero_reg__
 141 00f6 1397      		sbiw r26,3
 142               	.LM22:
 143 00f8 1496      		adiw r26,4
 144 00fa 1D92      		st X+,__zero_reg__
 145 00fc 1D92      		st X+,__zero_reg__
 146 00fe 1D92      		st X+,__zero_reg__
 147 0100 1C92      		st X,__zero_reg__
 148 0102 1797      		sbiw r26,4+3
 149               	.LM23:
 150 0104 1896      		adiw r26,8
 151 0106 1D92      		st X+,__zero_reg__
 152 0108 1D92      		st X+,__zero_reg__
 153 010a 1D92      		st X+,__zero_reg__
 154 010c 1C92      		st X,__zero_reg__
 155 010e 1B97      		sbiw r26,8+3
 156               	.LM24:
 157 0110 1C96      		adiw r26,12
 158 0112 1D92      		st X+,__zero_reg__
 159 0114 1D92      		st X+,__zero_reg__
 160 0116 1D92      		st X+,__zero_reg__
 161 0118 1C92      		st X,__zero_reg__
 162 011a 1F97      		sbiw r26,12+3
 163 011c 0196      		adiw r24,1
 164 011e 5196      		adiw r26,17
 165               	.LM25:
 166 0120 8530      		cpi r24,5
 167 0122 9105      		cpc r25,__zero_reg__
 168 0124 01F4      		brne .L3
 169               	/* epilogue start */
 170               	.LBE323:
 171               	.LM26:
 172 0126 0895      		ret
 173               	.LFE6:
 175               	.global	Timebase_Timer_Config
 177               	Timebase_Timer_Config:
 178               	.LFB7:
 179               	.LM27:
 180               	.LVL0:
 181 0128 7F92      		push r7
 182 012a 8F92      		push r8
 183 012c 9F92      		push r9
 184 012e AF92      		push r10
 185 0130 BF92      		push r11
 186 0132 CF92      		push r12
 187 0134 DF92      		push r13
 188 0136 EF92      		push r14
 189 0138 FF92      		push r15
 190 013a 0F93      		push r16
 191 013c 1F93      		push r17
 192 013e DF93      		push r29
 193 0140 CF93      		push r28
 194 0142 CDB7      		in r28,__SP_L__
 195 0144 DEB7      		in r29,__SP_H__
 196 0146 2A97      		sbiw r28,10
 197 0148 0FB6      		in __tmp_reg__,__SREG__
 198 014a F894      		cli
 199 014c DEBF      		out __SP_H__,r29
 200 014e 0FBE      		out __SREG__,__tmp_reg__
 201 0150 CDBF      		out __SP_L__,r28
 202               	/* prologue: function */
 203               	/* frame size = 10 */
 204 0152 8C01      		movw r16,r24
 205               	.LM28:
 206 0154 C090 0000 		lds r12,Timebase
 207 0158 D090 0000 		lds r13,(Timebase)+1
 208 015c F601      		movw r30,r12
 209 015e 8081      		ld r24,Z
 210               	.LVL1:
 211 0160 80FF      		sbrs r24,0
 212 0162 00C0      		rjmp .L8
 213               	.LBB324:
 214               	.LM29:
 215 0164 0130      		cpi r16,1
 216 0166 1105      		cpc r17,__zero_reg__
 217 0168 01F4      		brne .L9
 218 016a 96E0      		ldi r25,lo8(6)
 219               	.LVL2:
 220 016c 00C0      		rjmp .L10
 221               	.LVL3:
 222               	.L9:
 223               	.LM30:
 224 016e 0230      		cpi r16,2
 225 0170 1105      		cpc r17,__zero_reg__
 226 0172 01F4      		brne .L11
 227 0174 95E0      		ldi r25,lo8(5)
 228               	.LVL4:
 229 0176 00C0      		rjmp .L10
 230               	.LVL5:
 231               	.L11:
 232               	.LM31:
 233 0178 0430      		cpi r16,4
 234 017a 1105      		cpc r17,__zero_reg__
 235 017c 01F4      		brne .L12
 236 017e 94E0      		ldi r25,lo8(4)
 237               	.LVL6:
 238 0180 00C0      		rjmp .L10
 239               	.LVL7:
 240               	.L12:
 241               	.LM32:
 242 0182 0830      		cpi r16,8
 243 0184 1105      		cpc r17,__zero_reg__
 244 0186 01F4      		brne .L13
 245 0188 93E0      		ldi r25,lo8(3)
 246               	.LVL8:
 247 018a 00C0      		rjmp .L10
 248               	.LVL9:
 249               	.L13:
 250               	.LM33:
 251 018c 0031      		cpi r16,16
 252 018e 1105      		cpc r17,__zero_reg__
 253 0190 01F4      		brne .L14
 254 0192 92E0      		ldi r25,lo8(2)
 255               	.LVL10:
 256 0194 00C0      		rjmp .L10
 257               	.LVL11:
 258               	.L14:
 259 0196 90E0      		ldi r25,lo8(0)
 260               	.LVL12:
 261 0198 0032      		cpi r16,32
 262 019a 1105      		cpc r17,__zero_reg__
 263 019c 01F4      		brne .L10
 264 019e 91E0      		ldi r25,lo8(1)
 265               	.L10:
 266               	.LM34:
 267               	/* #APP */
 268               	 ;  251 "timebase.c" 1
 269 01a0 F894      		cli
 270               	 ;  0 "" 2
 271               	.LM35:
 272               	/* #NOAPP */
 273 01a2 84B7      		in r24,84-32
 274 01a4 877F      		andi r24,lo8(-9)
 275 01a6 84BF      		out 84-32,r24
 276               	.LM36:
 277 01a8 8091 6000 		lds r24,96
 278 01ac 8068      		ori r24,lo8(-128)
 279 01ae 8093 6000 		sts 96,r24
 280               	.LM37:
 281 01b2 8091 6000 		lds r24,96
 282 01b6 8861      		ori r24,lo8(24)
 283 01b8 8093 6000 		sts 96,r24
 284               	.LM38:
 285 01bc 9064      		ori r25,lo8(64)
 286 01be 9093 6000 		sts 96,r25
 287               	.LM39:
 288               	/* #APP */
 289               	 ;  256 "timebase.c" 1
 290 01c2 7894      		sei
 291               	 ;  0 "" 2
 292               	/* #NOAPP */
 293 01c4 00C0      		rjmp .L16
 294               	.LVL13:
 295               	.L8:
 296               	.LBE324:
 297               	.LM40:
 298 01c6 81FD      		sbrc r24,1
 299 01c8 00C0      		rjmp .L16
 300               	.LM41:
 301 01ca 82FF      		sbrs r24,2
 302 01cc 00C0      		rjmp .L16
 303               	.LBB325:
 304               	.LM42:
 305 01ce DE01      		movw r26,r28
 306 01d0 1196      		adiw r26,1
 307 01d2 E0E0      		ldi r30,lo8(C.2.1626)
 308 01d4 F0E0      		ldi r31,hi8(C.2.1626)
 309 01d6 8AE0      		ldi r24,lo8(10)
 310               	.L17:
 311 01d8 0190      		ld r0,Z+
 312 01da 0D92      		st X+,r0
 313 01dc 8150      		subi r24,lo8(-(-1))
 314 01de 01F4      		brne .L17
 315               	.LM43:
 316 01e0 9801      		movw r18,r16
 317 01e2 40E0      		ldi r20,lo8(0)
 318 01e4 50E0      		ldi r21,hi8(0)
 319               	.LVL14:
 320 01e6 60E0      		ldi r22,lo8(12000000)
 321 01e8 7BE1      		ldi r23,hi8(12000000)
 322 01ea 87EB      		ldi r24,hlo8(12000000)
 323 01ec 90E0      		ldi r25,hhi8(12000000)
 324 01ee 0E94 0000 		call __divmodsi4
 325 01f2 722E      		mov r7,r18
 326 01f4 832E      		mov r8,r19
 327 01f6 942E      		mov r9,r20
 328               	.LVL15:
 329 01f8 E52E      		mov r14,r21
 330 01fa 5E01      		movw r10,r28
 331 01fc 0894      		sec
 332 01fe A11C      		adc r10,__zero_reg__
 333 0200 B11C      		adc r11,__zero_reg__
 334 0202 C901      		movw r24,r18
 335 0204 DA01      		movw r26,r20
 336 0206 9C01      		movw r18,r24
 337 0208 AD01      		movw r20,r26
 338               	.LVL16:
 339 020a FF24      		clr r15
 340               	.LVL17:
 341 020c 00C0      		rjmp .L18
 342               	.LVL18:
 343               	.L20:
 344               	.LM44:
 345 020e F501      		movw r30,r10
 346 0210 2191      		ld r18,Z+
 347 0212 3191      		ld r19,Z+
 348               	.LVL19:
 349 0214 5F01      		movw r10,r30
 350 0216 40E0      		ldi r20,lo8(0)
 351 0218 50E0      		ldi r21,hi8(0)
 352 021a 672D      		mov r22,r7
 353 021c 782D      		mov r23,r8
 354 021e 892D      		mov r24,r9
 355               	.LVL20:
 356 0220 9E2D      		mov r25,r14
 357 0222 0E94 0000 		call __divmodsi4
 358 0226 C901      		movw r24,r18
 359 0228 DA01      		movw r26,r20
 360 022a 9C01      		movw r18,r24
 361 022c AD01      		movw r20,r26
 362               	.LVL21:
 363               	.LM45:
 364 022e F394      		inc r15
 365               	.LM46:
 366 0230 F5E0      		ldi r31,lo8(5)
 367 0232 FF16      		cp r15,r31
 368 0234 01F0      		breq .L19
 369               	.LVL22:
 370               	.L18:
 371               	.LM47:
 372 0236 2F3F      		cpi r18,lo8(255)
 373 0238 3105      		cpc r19,__zero_reg__
 374 023a 4105      		cpc r20,__zero_reg__
 375 023c 5105      		cpc r21,__zero_reg__
 376 023e 01F0      		breq .+2
 377 0240 04F4      		brge .L20
 378               	.L19:
 379               	.LM48:
 380 0242 8F2D      		mov r24,r15
 381 0244 8150      		subi r24,lo8(-(-1))
 382               	.LVL23:
 383               	.LM49:
 384 0246 14BC      		out 68-32,__zero_reg__
 385               	.LM50:
 386 0248 15BC      		out 69-32,__zero_reg__
 387               	.LM51:
 388 024a 1092 6E00 		sts 110,__zero_reg__
 389               	.LM52:
 390 024e 15BA      		out 53-32,__zero_reg__
 391               	.LM53:
 392 0250 17BC      		out 71-32,__zero_reg__
 393               	.LM54:
 394 0252 18BC      		out 72-32,__zero_reg__
 395               	.LM55:
 396 0254 16BC      		out 70-32,__zero_reg__
 397               	.LM56:
 398 0256 17BC      		out 71-32,__zero_reg__
 399               	.LM57:
 400 0258 8823      		tst r24
 401 025a 01F4      		brne .L21
 402               	.LM58:
 403 025c 81E0      		ldi r24,lo8(1)
 404               	.LVL24:
 405 025e 00C0      		rjmp .L28
 406               	.LVL25:
 407               	.L21:
 408               	.LM59:
 409 0260 8130      		cpi r24,lo8(1)
 410 0262 01F4      		brne .L23
 411               	.LM60:
 412 0264 82E0      		ldi r24,lo8(2)
 413               	.LVL26:
 414 0266 00C0      		rjmp .L28
 415               	.LVL27:
 416               	.L23:
 417               	.LM61:
 418 0268 8230      		cpi r24,lo8(2)
 419 026a 01F4      		brne .L24
 420               	.LM62:
 421 026c 83E0      		ldi r24,lo8(3)
 422               	.LVL28:
 423 026e 00C0      		rjmp .L28
 424               	.LVL29:
 425               	.L24:
 426               	.LM63:
 427 0270 8330      		cpi r24,lo8(3)
 428 0272 01F4      		brne .L25
 429               	.LM64:
 430 0274 84E0      		ldi r24,lo8(4)
 431               	.LVL30:
 432 0276 00C0      		rjmp .L28
 433               	.LVL31:
 434               	.L25:
 435               	.LM65:
 436 0278 8430      		cpi r24,lo8(4)
 437 027a 01F4      		brne .L22
 438               	.LM66:
 439 027c 85E0      		ldi r24,lo8(5)
 440               	.LVL32:
 441               	.L28:
 442 027e 85BD      		out 69-32,r24
 443               	.LVL33:
 444               	.L22:
 445               	.LM67:
 446 0280 822F      		mov r24,r18
 447               	.LVL34:
 448 0282 8095      		com r24
 449 0284 F601      		movw r30,r12
 450 0286 8383      		std Z+3,r24
 451               	.LM68:
 452 0288 8381      		ldd r24,Z+3
 453 028a 86BD      		out 70-32,r24
 454               	.LM69:
 455 028c 81E0      		ldi r24,lo8(1)
 456 028e 8093 6E00 		sts 110,r24
 457               	.LM70:
 458               	/* #APP */
 459               	 ;  304 "timebase.c" 1
 460 0292 7894      		sei
 461               	 ;  0 "" 2
 462               	.LVL35:
 463               	/* #NOAPP */
 464               	.L16:
 465               	.LBE325:
 466               	.LM71:
 467 0294 F601      		movw r30,r12
 468 0296 1283      		std Z+2,r17
 469 0298 0183      		std Z+1,r16
 470               	/* epilogue start */
 471               	.LM72:
 472 029a 2A96      		adiw r28,10
 473 029c 0FB6      		in __tmp_reg__,__SREG__
 474 029e F894      		cli
 475 02a0 DEBF      		out __SP_H__,r29
 476 02a2 0FBE      		out __SREG__,__tmp_reg__
 477 02a4 CDBF      		out __SP_L__,r28
 478 02a6 CF91      		pop r28
 479 02a8 DF91      		pop r29
 480 02aa 1F91      		pop r17
 481 02ac 0F91      		pop r16
 482               	.LVL36:
 483 02ae FF90      		pop r15
 484 02b0 EF90      		pop r14
 485 02b2 DF90      		pop r13
 486 02b4 CF90      		pop r12
 487 02b6 BF90      		pop r11
 488 02b8 AF90      		pop r10
 489 02ba 9F90      		pop r9
 490 02bc 8F90      		pop r8
 491 02be 7F90      		pop r7
 492 02c0 0895      		ret
 493               	.LFE7:
 495               	.global	Timebase_Token_Executing
 497               	Timebase_Token_Executing:
 498               	.LFB8:
 499               	.LM73:
 500               	/* prologue: function */
 501               	/* frame size = 0 */
 502               	.LM74:
 503 02c2 E091 0000 		lds r30,Timebase
 504 02c6 F091 0000 		lds r31,(Timebase)+1
 505 02ca 8789      		ldd r24,Z+23
 506               	/* epilogue start */
 507               	.LM75:
 508 02cc 0895      		ret
 509               	.LFE8:
 511               	.global	Timebase_Token_Add
 513               	Timebase_Token_Add:
 514               	.LFB9:
 515               	.LM76:
 516               	/* prologue: function */
 517               	/* frame size = 0 */
 518               	.LBB326:
 519               	.LBB327:
 520               	.LM77:
 521 02ce E091 0000 		lds r30,Timebase
 522 02d2 F091 0000 		lds r31,(Timebase)+1
 523 02d6 8789      		ldd r24,Z+23
 524               	.LBE327:
 525               	.LBE326:
 526               	.LM78:
 527 02d8 8F33      		cpi r24,lo8(63)
 528 02da 00F4      		brsh .L33
 529               	.LM79:
 530 02dc 8789      		ldd r24,Z+23
 531 02de 8F5F      		subi r24,lo8(-(1))
 532 02e0 878B      		std Z+23,r24
 533               	.L33:
 534 02e2 0895      		ret
 535               	.LFE9:
 537               	.global	Timebase_Token_Remove
 539               	Timebase_Token_Remove:
 540               	.LFB10:
 541               	.LM80:
 542               	/* prologue: function */
 543               	/* frame size = 0 */
 544               	.LBB328:
 545               	.LBB329:
 546               	.LM81:
 547 02e4 E091 0000 		lds r30,Timebase
 548 02e8 F091 0000 		lds r31,(Timebase)+1
 549 02ec 8789      		ldd r24,Z+23
 550               	.LBE329:
 551               	.LBE328:
 552               	.LM82:
 553 02ee 8823      		tst r24
 554 02f0 01F0      		breq .L36
 555               	.LM83:
 556 02f2 8789      		ldd r24,Z+23
 557 02f4 8150      		subi r24,lo8(-(-1))
 558 02f6 878B      		std Z+23,r24
 559               	.L36:
 560 02f8 0895      		ret
 561               	.LFE10:
 563               	.global	Timebase_Token_Remove_All
 565               	Timebase_Token_Remove_All:
 566               	.LFB11:
 567               	.LM84:
 568               	/* prologue: function */
 569               	/* frame size = 0 */
 570               	.LM85:
 571 02fa E091 0000 		lds r30,Timebase
 572 02fe F091 0000 		lds r31,(Timebase)+1
 573 0302 178A      		std Z+23,__zero_reg__
 574               	/* epilogue start */
 575               	.LM86:
 576 0304 0895      		ret
 577               	.LFE11:
 579               	.global	Timebase_Timer_Get_SubSeconds
 581               	Timebase_Timer_Get_SubSeconds:
 582               	.LFB12:
 583               	.LM87:
 584               	/* prologue: function */
 585               	/* frame size = 0 */
 586               	.LM88:
 587 0306 E091 0000 		lds r30,Timebase
 588 030a F091 0000 		lds r31,(Timebase)+1
 589 030e 2085      		ldd r18,Z+8
 590 0310 3185      		ldd r19,Z+9
 591               	.LM89:
 592 0312 C901      		movw r24,r18
 593               	/* epilogue start */
 594 0314 0895      		ret
 595               	.LFE12:
 597               	.global	Timebase_Timer_Get_Seconds
 599               	Timebase_Timer_Get_Seconds:
 600               	.LFB13:
 601               	.LM90:
 602               	/* prologue: function */
 603               	/* frame size = 0 */
 604               	.LM91:
 605 0316 E091 0000 		lds r30,Timebase
 606 031a F091 0000 		lds r31,(Timebase)+1
 607 031e 2285      		ldd r18,Z+10
 608 0320 3385      		ldd r19,Z+11
 609 0322 4485      		ldd r20,Z+12
 610 0324 5585      		ldd r21,Z+13
 611               	.LM92:
 612 0326 B901      		movw r22,r18
 613 0328 CA01      		movw r24,r20
 614               	/* epilogue start */
 615 032a 0895      		ret
 616               	.LFE13:
 618               	.global	Timebase_Timer_Set_SubSeconds
 620               	Timebase_Timer_Set_SubSeconds:
 621               	.LFB14:
 622               	.LM93:
 623               	.LVL37:
 624               	/* prologue: function */
 625               	/* frame size = 0 */
 626               	.LM94:
 627 032c E091 0000 		lds r30,Timebase
 628 0330 F091 0000 		lds r31,(Timebase)+1
 629 0334 9187      		std Z+9,r25
 630 0336 8087      		std Z+8,r24
 631               	/* epilogue start */
 632               	.LM95:
 633 0338 0895      		ret
 634               	.LFE14:
 636               	.global	Timebase_Timer_Set_Seconds
 638               	Timebase_Timer_Set_Seconds:
 639               	.LFB15:
 640               	.LM96:
 641               	.LVL38:
 642               	/* prologue: function */
 643               	/* frame size = 0 */
 644               	.LM97:
 645 033a E091 0000 		lds r30,Timebase
 646 033e F091 0000 		lds r31,(Timebase)+1
 647 0342 6287      		std Z+10,r22
 648 0344 7387      		std Z+11,r23
 649 0346 8487      		std Z+12,r24
 650 0348 9587      		std Z+13,r25
 651               	/* epilogue start */
 652               	.LM98:
 653 034a 0895      		ret
 654               	.LFE15:
 656               	.global	Timebase_Timer_Await_SubSeconds
 658               	Timebase_Timer_Await_SubSeconds:
 659               	.LFB17:
 660               	.LM99:
 661               	.LVL39:
 662               	/* prologue: function */
 663               	/* frame size = 0 */
 664 034c BC01      		movw r22,r24
 665               	.LBB330:
 666               	.LBB331:
 667               	.LM100:
 668 034e E091 0000 		lds r30,Timebase
 669 0352 F091 0000 		lds r31,(Timebase)+1
 670               	.LVL40:
 671               	.L48:
 672 0356 8085      		ldd r24,Z+8
 673 0358 9185      		ldd r25,Z+9
 674               	.LBE331:
 675               	.LBE330:
 676               	.LM101:
 677 035a 2481      		ldd r18,Z+4
 678 035c 3581      		ldd r19,Z+5
 679 035e 4681      		ldd r20,Z+6
 680 0360 5781      		ldd r21,Z+7
 681 0362 A0E0      		ldi r26,lo8(0)
 682 0364 B0E0      		ldi r27,hi8(0)
 683 0366 8217      		cp r24,r18
 684 0368 9307      		cpc r25,r19
 685 036a A407      		cpc r26,r20
 686 036c B507      		cpc r27,r21
 687 036e 01F4      		brne .L48
 688               	.LBB332:
 689               	.LBB333:
 690               	.LM102:
 691 0370 8085      		ldd r24,Z+8
 692 0372 9185      		ldd r25,Z+9
 693               	.LBE333:
 694               	.LBE332:
 695               	.LM103:
 696 0374 860F      		add r24,r22
 697 0376 971F      		adc r25,r23
 698 0378 A0E0      		ldi r26,lo8(0)
 699 037a B0E0      		ldi r27,hi8(0)
 700 037c 8483      		std Z+4,r24
 701 037e 9583      		std Z+5,r25
 702 0380 A683      		std Z+6,r26
 703 0382 B783      		std Z+7,r27
 704               	.LM104:
 705 0384 2481      		ldd r18,Z+4
 706 0386 3581      		ldd r19,Z+5
 707 0388 4681      		ldd r20,Z+6
 708 038a 5781      		ldd r21,Z+7
 709 038c 8181      		ldd r24,Z+1
 710 038e 9281      		ldd r25,Z+2
 711 0390 A0E0      		ldi r26,lo8(0)
 712 0392 B0E0      		ldi r27,hi8(0)
 713 0394 2817      		cp r18,r24
 714 0396 3907      		cpc r19,r25
 715 0398 4A07      		cpc r20,r26
 716 039a 5B07      		cpc r21,r27
 717 039c 04F0      		brlt .L50
 718               	.LM105:
 719 039e 2481      		ldd r18,Z+4
 720 03a0 3581      		ldd r19,Z+5
 721 03a2 4681      		ldd r20,Z+6
 722 03a4 5781      		ldd r21,Z+7
 723 03a6 8181      		ldd r24,Z+1
 724 03a8 9281      		ldd r25,Z+2
 725 03aa A0E0      		ldi r26,lo8(0)
 726 03ac B0E0      		ldi r27,hi8(0)
 727 03ae 281B      		sub r18,r24
 728 03b0 390B      		sbc r19,r25
 729 03b2 4A0B      		sbc r20,r26
 730 03b4 5B0B      		sbc r21,r27
 731 03b6 2483      		std Z+4,r18
 732 03b8 3583      		std Z+5,r19
 733 03ba 4683      		std Z+6,r20
 734 03bc 5783      		std Z+7,r21
 735               	.L50:
 736 03be 0895      		ret
 737               	.LFE17:
 739               	.global	Timebase_Timer_Delay_Seconds
 741               	Timebase_Timer_Delay_Seconds:
 742               	.LFB18:
 743               	.LM106:
 744               	.LVL41:
 745 03c0 EF92      		push r14
 746 03c2 FF92      		push r15
 747 03c4 0F93      		push r16
 748 03c6 1F93      		push r17
 749               	/* prologue: function */
 750               	/* frame size = 0 */
 751               	.LBB334:
 752               	.LBB335:
 753               	.LM107:
 754 03c8 E091 0000 		lds r30,Timebase
 755 03cc F091 0000 		lds r31,(Timebase)+1
 756 03d0 2285      		ldd r18,Z+10
 757 03d2 3385      		ldd r19,Z+11
 758 03d4 4485      		ldd r20,Z+12
 759 03d6 5585      		ldd r21,Z+13
 760               	.LBE335:
 761               	.LBE334:
 762               	.LM108:
 763 03d8 7C01      		movw r14,r24
 764               	.LVL42:
 765 03da 00E0      		ldi r16,lo8(0)
 766 03dc 10E0      		ldi r17,hi8(0)
 767               	.LVL43:
 768 03de E20E      		add r14,r18
 769 03e0 F31E      		adc r15,r19
 770 03e2 041F      		adc r16,r20
 771 03e4 151F      		adc r17,r21
 772               	.LVL44:
 773               	.L53:
 774               	.LBB336:
 775               	.LBB337:
 776               	.LM109:
 777 03e6 8285      		ldd r24,Z+10
 778 03e8 9385      		ldd r25,Z+11
 779 03ea A485      		ldd r26,Z+12
 780 03ec B585      		ldd r27,Z+13
 781               	.LVL45:
 782               	.LBE337:
 783               	.LBE336:
 784               	.LM110:
 785 03ee 8E15      		cp r24,r14
 786 03f0 9F05      		cpc r25,r15
 787 03f2 A007      		cpc r26,r16
 788 03f4 B107      		cpc r27,r17
 789 03f6 04F0      		brlt .L53
 790               	/* epilogue start */
 791               	.LM111:
 792 03f8 1F91      		pop r17
 793 03fa 0F91      		pop r16
 794               	.LVL46:
 795 03fc FF90      		pop r15
 796 03fe EF90      		pop r14
 797               	.LVL47:
 798 0400 0895      		ret
 799               	.LFE18:
 801               	.global	Timebase_Window_Timer_Reset
 803               	Timebase_Window_Timer_Reset:
 804               	.LFB19:
 805               	.LM112:
 806               	/* prologue: function */
 807               	/* frame size = 0 */
 808               	.LM113:
 809 0402 E091 0000 		lds r30,Timebase
 810 0406 F091 0000 		lds r31,(Timebase)+1
 811 040a 1686      		std Z+14,__zero_reg__
 812 040c 1786      		std Z+15,__zero_reg__
 813 040e 108A      		std Z+16,__zero_reg__
 814 0410 118A      		std Z+17,__zero_reg__
 815               	.LM114:
 816 0412 128A      		std Z+18,__zero_reg__
 817 0414 138A      		std Z+19,__zero_reg__
 818 0416 148A      		std Z+20,__zero_reg__
 819 0418 158A      		std Z+21,__zero_reg__
 820               	.LM115:
 821 041a 168A      		std Z+22,__zero_reg__
 822               	/* epilogue start */
 823               	.LM116:
 824 041c 0895      		ret
 825               	.LFE19:
 827               	.global	Timebase_Window_Timer_Start
 829               	Timebase_Window_Timer_Start:
 830               	.LFB20:
 831               	.LM117:
 832               	/* prologue: function */
 833               	/* frame size = 0 */
 834               	.LM118:
 835 041e E091 0000 		lds r30,Timebase
 836 0422 F091 0000 		lds r31,(Timebase)+1
 837 0426 8689      		ldd r24,Z+22
 838 0428 8823      		tst r24
 839 042a 01F4      		brne .L60
 840               	.LBB338:
 841               	.LBB339:
 842               	.LM119:
 843 042c 8285      		ldd r24,Z+10
 844 042e 9385      		ldd r25,Z+11
 845 0430 A485      		ldd r26,Z+12
 846 0432 B585      		ldd r27,Z+13
 847               	.LBE339:
 848               	.LBE338:
 849               	.LM120:
 850 0434 8687      		std Z+14,r24
 851 0436 9787      		std Z+15,r25
 852 0438 A08B      		std Z+16,r26
 853 043a B18B      		std Z+17,r27
 854               	.LBB340:
 855               	.LBB341:
 856               	.LM121:
 857 043c 8085      		ldd r24,Z+8
 858 043e 9185      		ldd r25,Z+9
 859               	.LBE341:
 860               	.LBE340:
 861               	.LM122:
 862 0440 A0E0      		ldi r26,lo8(0)
 863 0442 B0E0      		ldi r27,hi8(0)
 864 0444 828B      		std Z+18,r24
 865 0446 938B      		std Z+19,r25
 866 0448 A48B      		std Z+20,r26
 867 044a B58B      		std Z+21,r27
 868               	.LM123:
 869 044c 81E0      		ldi r24,lo8(1)
 870 044e 868B      		std Z+22,r24
 871               	.L60:
 872 0450 0895      		ret
 873               	.LFE20:
 875               	.global	Timebase_Window_Timer_Get_Interval
 877               	Timebase_Window_Timer_Get_Interval:
 878               	.LFB21:
 879               	.LM124:
 880 0452 EF92      		push r14
 881 0454 FF92      		push r15
 882 0456 0F93      		push r16
 883 0458 1F93      		push r17
 884 045a CF93      		push r28
 885 045c DF93      		push r29
 886               	/* prologue: function */
 887               	/* frame size = 0 */
 888               	.LM125:
 889 045e C091 0000 		lds r28,Timebase
 890 0462 D091 0000 		lds r29,(Timebase)+1
 891 0466 8E89      		ldd r24,Y+22
 892 0468 8130      		cpi r24,lo8(1)
 893 046a 01F0      		breq .L62
 894 046c EE24      		clr r14
 895 046e FF24      		clr r15
 896 0470 8701      		movw r16,r14
 897               	.LVL48:
 898 0472 00C0      		rjmp .L63
 899               	.LVL49:
 900               	.L62:
 901               	.LBB342:
 902               	.LBB343:
 903               	.LBB344:
 904               	.LM126:
 905 0474 2A85      		ldd r18,Y+10
 906 0476 3B85      		ldd r19,Y+11
 907 0478 4C85      		ldd r20,Y+12
 908 047a 5D85      		ldd r21,Y+13
 909               	.LVL50:
 910               	.LBE344:
 911               	.LBE343:
 912               	.LBB345:
 913               	.LBB346:
 914               	.LM127:
 915 047c 8885      		ldd r24,Y+8
 916 047e 9985      		ldd r25,Y+9
 917               	.LBE346:
 918               	.LBE345:
 919               	.LM128:
 920 0480 7C01      		movw r14,r24
 921               	.LVL51:
 922 0482 00E0      		ldi r16,lo8(0)
 923 0484 10E0      		ldi r17,hi8(0)
 924               	.LVL52:
 925               	.LM129:
 926 0486 8E85      		ldd r24,Y+14
 927 0488 9F85      		ldd r25,Y+15
 928 048a A889      		ldd r26,Y+16
 929 048c B989      		ldd r27,Y+17
 930 048e 281B      		sub r18,r24
 931 0490 390B      		sbc r19,r25
 932 0492 4A0B      		sbc r20,r26
 933 0494 5B0B      		sbc r21,r27
 934               	.LVL53:
 935               	.LM130:
 936 0496 6981      		ldd r22,Y+1
 937 0498 7A81      		ldd r23,Y+2
 938 049a 80E0      		ldi r24,lo8(0)
 939 049c 90E0      		ldi r25,hi8(0)
 940 049e 0E94 0000 		call __mulsi3
 941               	.LVL54:
 942               	.LM131:
 943 04a2 2A89      		ldd r18,Y+18
 944 04a4 3B89      		ldd r19,Y+19
 945 04a6 4C89      		ldd r20,Y+20
 946 04a8 5D89      		ldd r21,Y+21
 947 04aa E21A      		sub r14,r18
 948 04ac F30A      		sbc r15,r19
 949 04ae 040B      		sbc r16,r20
 950 04b0 150B      		sbc r17,r21
 951               	.LVL55:
 952 04b2 E60E      		add r14,r22
 953 04b4 F71E      		adc r15,r23
 954 04b6 081F      		adc r16,r24
 955 04b8 191F      		adc r17,r25
 956               	.L63:
 957               	.LBE342:
 958               	.LM132:
 959 04ba B701      		movw r22,r14
 960               	.LVL56:
 961 04bc C801      		movw r24,r16
 962               	.LVL57:
 963               	/* epilogue start */
 964 04be DF91      		pop r29
 965 04c0 CF91      		pop r28
 966 04c2 1F91      		pop r17
 967 04c4 0F91      		pop r16
 968 04c6 FF90      		pop r15
 969 04c8 EF90      		pop r14
 970 04ca 0895      		ret
 971               	.LFE21:
 973               	.global	Timebase_Window_Timer_Get_Interval_Reset
 975               	Timebase_Window_Timer_Get_Interval_Reset:
 976               	.LFB22:
 977               	.LM133:
 978               	/* prologue: function */
 979               	/* frame size = 0 */
 980               	.LM134:
 981 04cc 0E94 0000 		call Timebase_Window_Timer_Get_Interval
 982 04d0 282F      		mov r18,r24
 983               	.LVL58:
 984               	.LM135:
 985 04d2 E091 0000 		lds r30,Timebase
 986 04d6 F091 0000 		lds r31,(Timebase)+1
 987 04da 8689      		ldd r24,Z+22
 988 04dc 8130      		cpi r24,lo8(1)
 989 04de 01F4      		brne .L66
 990               	.LBB347:
 991               	.LBB348:
 992               	.LM136:
 993 04e0 1686      		std Z+14,__zero_reg__
 994 04e2 1786      		std Z+15,__zero_reg__
 995 04e4 108A      		std Z+16,__zero_reg__
 996 04e6 118A      		std Z+17,__zero_reg__
 997               	.LM137:
 998 04e8 128A      		std Z+18,__zero_reg__
 999 04ea 138A      		std Z+19,__zero_reg__
 1000 04ec 148A      		std Z+20,__zero_reg__
 1001 04ee 158A      		std Z+21,__zero_reg__
 1002               	.LM138:
 1003 04f0 168A      		std Z+22,__zero_reg__
 1004               	.L66:
 1005               	.LBE348:
 1006               	.LBE347:
 1007               	.LM139:
 1008 04f2 822F      		mov r24,r18
 1009               	/* epilogue start */
 1010 04f4 0895      		ret
 1011               	.LFE22:
 1013               	.global	Timebase_DownCounter_Get_Status
 1015               	Timebase_DownCounter_Get_Status:
 1016               	.LFB23:
 1017               	.LM140:
 1018               	.LVL59:
 1019               	/* prologue: function */
 1020               	/* frame size = 0 */
 1021               	.LM141:
 1022 04f6 E091 0000 		lds r30,Timebase
 1023 04fa F091 0000 		lds r31,(Timebase)+1
 1024 04fe 90E0      		ldi r25,lo8(0)
 1025               	.LVL60:
 1026 0500 2DE0      		ldi r18,lo8(13)
 1027 0502 30E0      		ldi r19,hi8(13)
 1028 0504 AC01      		movw r20,r24
 1029 0506 429F      		mul r20,r18
 1030 0508 C001      		movw r24,r0
 1031 050a 439F      		mul r20,r19
 1032 050c 900D      		add r25,r0
 1033 050e 529F      		mul r21,r18
 1034 0510 900D      		add r25,r0
 1035 0512 1124      		clr r1
 1036               	.LVL61:
 1037 0514 E80F      		add r30,r24
 1038 0516 F91F      		adc r31,r25
 1039 0518 E359      		subi r30,lo8(-(109))
 1040 051a FF4F      		sbci r31,hi8(-(109))
 1041 051c 8081      		ld r24,Z
 1042 051e 8695      		lsr r24
 1043               	.LM142:
 1044 0520 8F70      		andi r24,lo8(15)
 1045               	/* epilogue start */
 1046 0522 0895      		ret
 1047               	.LFE23:
 1049               	.global	Timebase_DownCounter_Set_Status
 1051               	Timebase_DownCounter_Set_Status:
 1052               	.LFB24:
 1053               	.LM143:
 1054               	.LVL62:
 1055               	/* prologue: function */
 1056               	/* frame size = 0 */
 1057               	.LM144:
 1058 0524 E091 0000 		lds r30,Timebase
 1059 0528 F091 0000 		lds r31,(Timebase)+1
 1060 052c 90E0      		ldi r25,lo8(0)
 1061               	.LVL63:
 1062 052e 2DE0      		ldi r18,lo8(13)
 1063 0530 30E0      		ldi r19,hi8(13)
 1064 0532 AC01      		movw r20,r24
 1065 0534 429F      		mul r20,r18
 1066 0536 C001      		movw r24,r0
 1067 0538 439F      		mul r20,r19
 1068 053a 900D      		add r25,r0
 1069 053c 529F      		mul r21,r18
 1070 053e 900D      		add r25,r0
 1071 0540 1124      		clr r1
 1072               	.LVL64:
 1073 0542 E80F      		add r30,r24
 1074 0544 F91F      		adc r31,r25
 1075 0546 E359      		subi r30,lo8(-(109))
 1076 0548 FF4F      		sbci r31,hi8(-(109))
 1077 054a 6F70      		andi r22,lo8(15)
 1078               	.LVL65:
 1079 054c 660F      		lsl r22
 1080 054e 8081      		ld r24,Z
 1081 0550 817E      		andi r24,lo8(-31)
 1082 0552 862B      		or r24,r22
 1083 0554 8083      		st Z,r24
 1084               	/* epilogue start */
 1085               	.LM145:
 1086 0556 0895      		ret
 1087               	.LFE24:
 1089               	.global	Timebase_DownCounter_Get_Value
 1091               	Timebase_DownCounter_Get_Value:
 1092               	.LFB25:
 1093               	.LM146:
 1094               	.LVL66:
 1095               	/* prologue: function */
 1096               	/* frame size = 0 */
 1097               	.LM147:
 1098 0558 E091 0000 		lds r30,Timebase
 1099 055c F091 0000 		lds r31,(Timebase)+1
 1100 0560 90E0      		ldi r25,lo8(0)
 1101               	.LVL67:
 1102 0562 2DE0      		ldi r18,lo8(13)
 1103 0564 30E0      		ldi r19,hi8(13)
 1104 0566 AC01      		movw r20,r24
 1105 0568 429F      		mul r20,r18
 1106 056a C001      		movw r24,r0
 1107 056c 439F      		mul r20,r19
 1108 056e 900D      		add r25,r0
 1109 0570 529F      		mul r21,r18
 1110 0572 900D      		add r25,r0
 1111 0574 1124      		clr r1
 1112               	.LVL68:
 1113 0576 E80F      		add r30,r24
 1114 0578 F91F      		adc r31,r25
 1115 057a EE58      		subi r30,lo8(-(114))
 1116 057c FF4F      		sbci r31,hi8(-(114))
 1117 057e 6081      		ld r22,Z
 1118 0580 7181      		ldd r23,Z+1
 1119               	.LM148:
 1120 0582 8281      		ldd r24,Z+2
 1121 0584 9381      		ldd r25,Z+3
 1122               	.LVL69:
 1123               	/* epilogue start */
 1124 0586 0895      		ret
 1125               	.LFE25:
 1127               	.global	Timebase_DownCounter_Set_Value
 1129               	Timebase_DownCounter_Set_Value:
 1130               	.LFB26:
 1131               	.LM149:
 1132               	.LVL70:
 1133               	/* prologue: function */
 1134               	/* frame size = 0 */
 1135               	.LM150:
 1136 0588 E091 0000 		lds r30,Timebase
 1137 058c F091 0000 		lds r31,(Timebase)+1
 1138 0590 90E0      		ldi r25,lo8(0)
 1139               	.LVL71:
 1140 0592 2DE0      		ldi r18,lo8(13)
 1141 0594 30E0      		ldi r19,hi8(13)
 1142 0596 DC01      		movw r26,r24
 1143 0598 A29F      		mul r26,r18
 1144 059a C001      		movw r24,r0
 1145 059c A39F      		mul r26,r19
 1146 059e 900D      		add r25,r0
 1147 05a0 B29F      		mul r27,r18
 1148 05a2 900D      		add r25,r0
 1149 05a4 1124      		clr r1
 1150               	.LVL72:
 1151 05a6 E80F      		add r30,r24
 1152 05a8 F91F      		adc r31,r25
 1153 05aa EE58      		subi r30,lo8(-(114))
 1154 05ac FF4F      		sbci r31,hi8(-(114))
 1155 05ae 4083      		st Z,r20
 1156 05b0 5183      		std Z+1,r21
 1157 05b2 6283      		std Z+2,r22
 1158 05b4 7383      		std Z+3,r23
 1159               	/* epilogue start */
 1160               	.LM151:
 1161 05b6 0895      		ret
 1162               	.LFE26:
 1164               	.global	Timebase_DownCounter_Get_EndValue
 1166               	Timebase_DownCounter_Get_EndValue:
 1167               	.LFB27:
 1168               	.LM152:
 1169               	.LVL73:
 1170               	/* prologue: function */
 1171               	/* frame size = 0 */
 1172               	.LM153:
 1173 05b8 E091 0000 		lds r30,Timebase
 1174 05bc F091 0000 		lds r31,(Timebase)+1
 1175 05c0 90E0      		ldi r25,lo8(0)
 1176               	.LVL74:
 1177 05c2 2DE0      		ldi r18,lo8(13)
 1178 05c4 30E0      		ldi r19,hi8(13)
 1179 05c6 AC01      		movw r20,r24
 1180 05c8 429F      		mul r20,r18
 1181 05ca C001      		movw r24,r0
 1182 05cc 439F      		mul r20,r19
 1183 05ce 900D      		add r25,r0
 1184 05d0 529F      		mul r21,r18
 1185 05d2 900D      		add r25,r0
 1186 05d4 1124      		clr r1
 1187               	.LVL75:
 1188 05d6 E80F      		add r30,r24
 1189 05d8 F91F      		adc r31,r25
 1190 05da E259      		subi r30,lo8(-(110))
 1191 05dc FF4F      		sbci r31,hi8(-(110))
 1192 05de 6081      		ld r22,Z
 1193 05e0 7181      		ldd r23,Z+1
 1194               	.LM154:
 1195 05e2 8281      		ldd r24,Z+2
 1196 05e4 9381      		ldd r25,Z+3
 1197               	.LVL76:
 1198               	/* epilogue start */
 1199 05e6 0895      		ret
 1200               	.LFE27:
 1202               	.global	Timebase_DownCounter_Set_EndValue
 1204               	Timebase_DownCounter_Set_EndValue:
 1205               	.LFB28:
 1206               	.LM155:
 1207               	.LVL77:
 1208               	/* prologue: function */
 1209               	/* frame size = 0 */
 1210               	.LM156:
 1211 05e8 E091 0000 		lds r30,Timebase
 1212 05ec F091 0000 		lds r31,(Timebase)+1
 1213 05f0 90E0      		ldi r25,lo8(0)
 1214               	.LVL78:
 1215 05f2 2DE0      		ldi r18,lo8(13)
 1216 05f4 30E0      		ldi r19,hi8(13)
 1217 05f6 DC01      		movw r26,r24
 1218 05f8 A29F      		mul r26,r18
 1219 05fa C001      		movw r24,r0
 1220 05fc A39F      		mul r26,r19
 1221 05fe 900D      		add r25,r0
 1222 0600 B29F      		mul r27,r18
 1223 0602 900D      		add r25,r0
 1224 0604 1124      		clr r1
 1225               	.LVL79:
 1226 0606 E80F      		add r30,r24
 1227 0608 F91F      		adc r31,r25
 1228 060a E259      		subi r30,lo8(-(110))
 1229 060c FF4F      		sbci r31,hi8(-(110))
 1230 060e 4083      		st Z,r20
 1231 0610 5183      		std Z+1,r21
 1232 0612 6283      		std Z+2,r22
 1233 0614 7383      		std Z+3,r23
 1234               	/* epilogue start */
 1235               	.LM157:
 1236 0616 0895      		ret
 1237               	.LFE28:
 1239               	.global	Timebase_DownCounter_Get_PeriodValue
 1241               	Timebase_DownCounter_Get_PeriodValue:
 1242               	.LFB29:
 1243               	.LM158:
 1244               	.LVL80:
 1245               	/* prologue: function */
 1246               	/* frame size = 0 */
 1247               	.LM159:
 1248 0618 E091 0000 		lds r30,Timebase
 1249 061c F091 0000 		lds r31,(Timebase)+1
 1250 0620 90E0      		ldi r25,lo8(0)
 1251               	.LVL81:
 1252 0622 2DE0      		ldi r18,lo8(13)
 1253 0624 30E0      		ldi r19,hi8(13)
 1254 0626 AC01      		movw r20,r24
 1255 0628 429F      		mul r20,r18
 1256 062a C001      		movw r24,r0
 1257 062c 439F      		mul r20,r19
 1258 062e 900D      		add r25,r0
 1259 0630 529F      		mul r21,r18
 1260 0632 900D      		add r25,r0
 1261 0634 1124      		clr r1
 1262               	.LVL82:
 1263 0636 E80F      		add r30,r24
 1264 0638 F91F      		adc r31,r25
 1265 063a EA58      		subi r30,lo8(-(118))
 1266 063c FF4F      		sbci r31,hi8(-(118))
 1267 063e 6081      		ld r22,Z
 1268 0640 7181      		ldd r23,Z+1
 1269               	.LM160:
 1270 0642 8281      		ldd r24,Z+2
 1271 0644 9381      		ldd r25,Z+3
 1272               	.LVL83:
 1273               	/* epilogue start */
 1274 0646 0895      		ret
 1275               	.LFE29:
 1277               	.global	Timebase_DownCounter_Set_PeriodValue
 1279               	Timebase_DownCounter_Set_PeriodValue:
 1280               	.LFB30:
 1281               	.LM161:
 1282               	.LVL84:
 1283               	/* prologue: function */
 1284               	/* frame size = 0 */
 1285 0648 E091 0000 		lds r30,Timebase
 1286 064c F091 0000 		lds r31,(Timebase)+1
 1287 0650 282F      		mov r18,r24
 1288 0652 30E0      		ldi r19,lo8(0)
 1289               	.LVL85:
 1290               	.LM162:
 1291 0654 77FF      		sbrs r23,7
 1292 0656 00C0      		rjmp .L83
 1293               	.LVL86:
 1294               	.LM163:
 1295 0658 8DE0      		ldi r24,lo8(13)
 1296 065a 90E0      		ldi r25,hi8(13)
 1297 065c AC01      		movw r20,r24
 1298               	.LVL87:
 1299 065e 249F      		mul r18,r20
 1300 0660 C001      		movw r24,r0
 1301 0662 259F      		mul r18,r21
 1302 0664 900D      		add r25,r0
 1303 0666 349F      		mul r19,r20
 1304 0668 900D      		add r25,r0
 1305 066a 1124      		clr r1
 1306 066c E80F      		add r30,r24
 1307 066e F91F      		adc r31,r25
 1308 0670 EA58      		subi r30,lo8(-(118))
 1309 0672 FF4F      		sbci r31,hi8(-(118))
 1310 0674 1082      		st Z,__zero_reg__
 1311 0676 1182      		std Z+1,__zero_reg__
 1312 0678 1282      		std Z+2,__zero_reg__
 1313 067a 1382      		std Z+3,__zero_reg__
 1314 067c 0895      		ret
 1315               	.LVL88:
 1316               	.L83:
 1317               	.LM164:
 1318 067e 8DE0      		ldi r24,lo8(13)
 1319 0680 90E0      		ldi r25,hi8(13)
 1320 0682 DC01      		movw r26,r24
 1321 0684 2A9F      		mul r18,r26
 1322 0686 C001      		movw r24,r0
 1323 0688 2B9F      		mul r18,r27
 1324 068a 900D      		add r25,r0
 1325 068c 3A9F      		mul r19,r26
 1326 068e 900D      		add r25,r0
 1327 0690 1124      		clr r1
 1328 0692 E80F      		add r30,r24
 1329 0694 F91F      		adc r31,r25
 1330 0696 EA58      		subi r30,lo8(-(118))
 1331 0698 FF4F      		sbci r31,hi8(-(118))
 1332 069a 4083      		st Z,r20
 1333 069c 5183      		std Z+1,r21
 1334 069e 6283      		std Z+2,r22
 1335 06a0 7383      		std Z+3,r23
 1336 06a2 0895      		ret
 1337               	.LFE30:
 1339               	.global	Timebase_DownCounter_Get_Period_Flag
 1341               	Timebase_DownCounter_Get_Period_Flag:
 1342               	.LFB31:
 1343               	.LM165:
 1344               	.LVL89:
 1345               	/* prologue: function */
 1346               	/* frame size = 0 */
 1347               	.LM166:
 1348 06a4 E091 0000 		lds r30,Timebase
 1349 06a8 F091 0000 		lds r31,(Timebase)+1
 1350 06ac 90E0      		ldi r25,lo8(0)
 1351               	.LVL90:
 1352 06ae 2DE0      		ldi r18,lo8(13)
 1353 06b0 30E0      		ldi r19,hi8(13)
 1354 06b2 AC01      		movw r20,r24
 1355 06b4 429F      		mul r20,r18
 1356 06b6 C001      		movw r24,r0
 1357 06b8 439F      		mul r20,r19
 1358 06ba 900D      		add r25,r0
 1359 06bc 529F      		mul r21,r18
 1360 06be 900D      		add r25,r0
 1361 06c0 1124      		clr r1
 1362               	.LVL91:
 1363 06c2 E80F      		add r30,r24
 1364 06c4 F91F      		adc r31,r25
 1365 06c6 E359      		subi r30,lo8(-(109))
 1366 06c8 FF4F      		sbci r31,hi8(-(109))
 1367 06ca 8081      		ld r24,Z
 1368               	.LM167:
 1369 06cc 8170      		andi r24,lo8(1)
 1370               	/* epilogue start */
 1371 06ce 0895      		ret
 1372               	.LFE31:
 1374               	.global	Timebase_DownCounter_Set_Period_Flag
 1376               	Timebase_DownCounter_Set_Period_Flag:
 1377               	.LFB32:
 1378               	.LM168:
 1379               	.LVL92:
 1380               	/* prologue: function */
 1381               	/* frame size = 0 */
 1382               	.LM169:
 1383 06d0 E091 0000 		lds r30,Timebase
 1384 06d4 F091 0000 		lds r31,(Timebase)+1
 1385 06d8 90E0      		ldi r25,lo8(0)
 1386               	.LVL93:
 1387 06da 2DE0      		ldi r18,lo8(13)
 1388 06dc 30E0      		ldi r19,hi8(13)
 1389 06de AC01      		movw r20,r24
 1390 06e0 429F      		mul r20,r18
 1391 06e2 C001      		movw r24,r0
 1392 06e4 439F      		mul r20,r19
 1393 06e6 900D      		add r25,r0
 1394 06e8 529F      		mul r21,r18
 1395 06ea 900D      		add r25,r0
 1396 06ec 1124      		clr r1
 1397               	.LVL94:
 1398 06ee E80F      		add r30,r24
 1399 06f0 F91F      		adc r31,r25
 1400 06f2 E359      		subi r30,lo8(-(109))
 1401 06f4 FF4F      		sbci r31,hi8(-(109))
 1402 06f6 8081      		ld r24,Z
 1403 06f8 8160      		ori r24,lo8(1)
 1404 06fa 8083      		st Z,r24
 1405               	/* epilogue start */
 1406               	.LM170:
 1407 06fc 0895      		ret
 1408               	.LFE32:
 1410               	.global	Timebase_DownCounter_Clear_Period_Flag
 1412               	Timebase_DownCounter_Clear_Period_Flag:
 1413               	.LFB33:
 1414               	.LM171:
 1415               	.LVL95:
 1416               	/* prologue: function */
 1417               	/* frame size = 0 */
 1418               	.LM172:
 1419 06fe E091 0000 		lds r30,Timebase
 1420 0702 F091 0000 		lds r31,(Timebase)+1
 1421 0706 90E0      		ldi r25,lo8(0)
 1422               	.LVL96:
 1423 0708 2DE0      		ldi r18,lo8(13)
 1424 070a 30E0      		ldi r19,hi8(13)
 1425 070c AC01      		movw r20,r24
 1426 070e 429F      		mul r20,r18
 1427 0710 C001      		movw r24,r0
 1428 0712 439F      		mul r20,r19
 1429 0714 900D      		add r25,r0
 1430 0716 529F      		mul r21,r18
 1431 0718 900D      		add r25,r0
 1432 071a 1124      		clr r1
 1433               	.LVL97:
 1434 071c E80F      		add r30,r24
 1435 071e F91F      		adc r31,r25
 1436 0720 E359      		subi r30,lo8(-(109))
 1437 0722 FF4F      		sbci r31,hi8(-(109))
 1438 0724 8081      		ld r24,Z
 1439 0726 8E7F      		andi r24,lo8(-2)
 1440 0728 8083      		st Z,r24
 1441               	/* epilogue start */
 1442               	.LM173:
 1443 072a 0895      		ret
 1444               	.LFE33:
 1446               	.global	Timebase_DownCounter_Reset
 1448               	Timebase_DownCounter_Reset:
 1449               	.LFB34:
 1450               	.LM174:
 1451               	.LVL98:
 1452               	/* prologue: function */
 1453               	/* frame size = 0 */
 1454               	.LBB349:
 1455               	.LBB350:
 1456               	.LM175:
 1457 072c E091 0000 		lds r30,Timebase
 1458 0730 F091 0000 		lds r31,(Timebase)+1
 1459 0734 90E0      		ldi r25,lo8(0)
 1460 0736 2DE0      		ldi r18,lo8(13)
 1461 0738 30E0      		ldi r19,hi8(13)
 1462 073a AC01      		movw r20,r24
 1463               	.LVL99:
 1464 073c 429F      		mul r20,r18
 1465 073e C001      		movw r24,r0
 1466 0740 439F      		mul r20,r19
 1467 0742 900D      		add r25,r0
 1468 0744 529F      		mul r21,r18
 1469 0746 900D      		add r25,r0
 1470 0748 1124      		clr r1
 1471 074a E80F      		add r30,r24
 1472 074c F91F      		adc r31,r25
 1473 074e E259      		subi r30,lo8(-(110))
 1474 0750 FF4F      		sbci r31,hi8(-(110))
 1475 0752 1192      		st Z+,__zero_reg__
 1476 0754 1192      		st Z+,__zero_reg__
 1477 0756 1192      		st Z+,__zero_reg__
 1478 0758 1192      		st Z+,__zero_reg__
 1479               	.LBE350:
 1480               	.LBE349:
 1481               	.LBB351:
 1482               	.LBB352:
 1483               	.LM176:
 1484 075a 1082      		st Z,__zero_reg__
 1485 075c 1182      		std Z+1,__zero_reg__
 1486 075e 1282      		std Z+2,__zero_reg__
 1487 0760 1382      		std Z+3,__zero_reg__
 1488               	.LBE352:
 1489               	.LBE351:
 1490               	.LBB353:
 1491               	.LBB354:
 1492               	.LM177:
 1493 0762 3597      		sbiw r30,5
 1494 0764 8081      		ld r24,Z
 1495               	.LBE354:
 1496               	.LBE353:
 1497               	.LBB355:
 1498               	.LBB356:
 1499               	.LM178:
 1500 0766 807E      		andi r24,lo8(-32)
 1501 0768 8083      		st Z,r24
 1502               	/* epilogue start */
 1503               	.LBE356:
 1504               	.LBE355:
 1505               	.LM179:
 1506 076a 0895      		ret
 1507               	.LFE34:
 1509               	.global	Timebase_DownCounter_Clear_All_Flags
 1511               	Timebase_DownCounter_Clear_All_Flags:
 1512               	.LFB35:
 1513               	.LM180:
 1514               	.LVL100:
 1515               	/* prologue: function */
 1516               	/* frame size = 0 */
 1517               	.LBB357:
 1518               	.LBB358:
 1519               	.LBB359:
 1520               	.LBB360:
 1521               	.LM181:
 1522 076c E091 0000 		lds r30,Timebase
 1523 0770 F091 0000 		lds r31,(Timebase)+1
 1524 0774 90E0      		ldi r25,lo8(0)
 1525 0776 2DE0      		ldi r18,lo8(13)
 1526 0778 30E0      		ldi r19,hi8(13)
 1527 077a AC01      		movw r20,r24
 1528               	.LVL101:
 1529 077c 429F      		mul r20,r18
 1530 077e C001      		movw r24,r0
 1531 0780 439F      		mul r20,r19
 1532 0782 900D      		add r25,r0
 1533 0784 529F      		mul r21,r18
 1534 0786 900D      		add r25,r0
 1535 0788 1124      		clr r1
 1536 078a E80F      		add r30,r24
 1537 078c F91F      		adc r31,r25
 1538 078e E259      		subi r30,lo8(-(110))
 1539 0790 FF4F      		sbci r31,hi8(-(110))
 1540 0792 1192      		st Z+,__zero_reg__
 1541 0794 1192      		st Z+,__zero_reg__
 1542 0796 1192      		st Z+,__zero_reg__
 1543 0798 1192      		st Z+,__zero_reg__
 1544               	.LBE360:
 1545               	.LBE359:
 1546               	.LBB361:
 1547               	.LBB362:
 1548               	.LM182:
 1549 079a 1082      		st Z,__zero_reg__
 1550 079c 1182      		std Z+1,__zero_reg__
 1551 079e 1282      		std Z+2,__zero_reg__
 1552 07a0 1382      		std Z+3,__zero_reg__
 1553               	.LBE362:
 1554               	.LBE361:
 1555               	.LBB363:
 1556               	.LBB364:
 1557               	.LM183:
 1558 07a2 3597      		sbiw r30,5
 1559 07a4 8081      		ld r24,Z
 1560               	.LBE364:
 1561               	.LBE363:
 1562               	.LBB365:
 1563               	.LBB366:
 1564               	.LM184:
 1565 07a6 807E      		andi r24,lo8(-32)
 1566 07a8 8083      		st Z,r24
 1567               	/* epilogue start */
 1568               	.LBE366:
 1569               	.LBE365:
 1570               	.LBE358:
 1571               	.LBE357:
 1572               	.LM185:
 1573 07aa 0895      		ret
 1574               	.LFE35:
 1576               	.global	Timebase_DownCounter_Start
 1578               	Timebase_DownCounter_Start:
 1579               	.LFB36:
 1580               	.LM186:
 1581               	.LVL102:
 1582               	/* prologue: function */
 1583               	/* frame size = 0 */
 1584               	.LBB367:
 1585               	.LBB368:
 1586               	.LM187:
 1587 07ac E091 0000 		lds r30,Timebase
 1588 07b0 F091 0000 		lds r31,(Timebase)+1
 1589 07b4 90E0      		ldi r25,lo8(0)
 1590               	.LBE368:
 1591               	.LBE367:
 1592               	.LM188:
 1593 07b6 2DE0      		ldi r18,lo8(13)
 1594 07b8 30E0      		ldi r19,hi8(13)
 1595 07ba AC01      		movw r20,r24
 1596               	.LVL103:
 1597 07bc 429F      		mul r20,r18
 1598 07be C001      		movw r24,r0
 1599 07c0 439F      		mul r20,r19
 1600 07c2 900D      		add r25,r0
 1601 07c4 529F      		mul r21,r18
 1602 07c6 900D      		add r25,r0
 1603 07c8 1124      		clr r1
 1604 07ca E80F      		add r30,r24
 1605 07cc F91F      		adc r31,r25
 1606 07ce E359      		subi r30,lo8(-(109))
 1607 07d0 FF4F      		sbci r31,hi8(-(109))
 1608 07d2 9081      		ld r25,Z
 1609 07d4 892F      		mov r24,r25
 1610 07d6 8695      		lsr r24
 1611 07d8 8F70      		andi r24,lo8(15)
 1612 07da 8130      		cpi r24,lo8(1)
 1613 07dc 01F0      		breq .L98
 1614               	.LBB369:
 1615               	.LBB370:
 1616               	.LM189:
 1617 07de 917E      		andi r25,lo8(-31)
 1618 07e0 9260      		ori r25,lo8(2)
 1619 07e2 9083      		st Z,r25
 1620               	.L98:
 1621 07e4 0895      		ret
 1622               	.LBE370:
 1623               	.LBE369:
 1624               	.LFE36:
 1626               	.global	Timebase_DownCounter_Stop
 1628               	Timebase_DownCounter_Stop:
 1629               	.LFB37:
 1630               	.LM190:
 1631               	.LVL104:
 1632               	/* prologue: function */
 1633               	/* frame size = 0 */
 1634               	.LBB371:
 1635               	.LBB372:
 1636               	.LM191:
 1637 07e6 E091 0000 		lds r30,Timebase
 1638 07ea F091 0000 		lds r31,(Timebase)+1
 1639 07ee 90E0      		ldi r25,lo8(0)
 1640               	.LBE372:
 1641               	.LBE371:
 1642               	.LM192:
 1643 07f0 2DE0      		ldi r18,lo8(13)
 1644 07f2 30E0      		ldi r19,hi8(13)
 1645 07f4 AC01      		movw r20,r24
 1646               	.LVL105:
 1647 07f6 429F      		mul r20,r18
 1648 07f8 C001      		movw r24,r0
 1649 07fa 439F      		mul r20,r19
 1650 07fc 900D      		add r25,r0
 1651 07fe 529F      		mul r21,r18
 1652 0800 900D      		add r25,r0
 1653 0802 1124      		clr r1
 1654 0804 E80F      		add r30,r24
 1655 0806 F91F      		adc r31,r25
 1656 0808 E359      		subi r30,lo8(-(109))
 1657 080a FF4F      		sbci r31,hi8(-(109))
 1658 080c 9081      		ld r25,Z
 1659 080e 892F      		mov r24,r25
 1660 0810 8695      		lsr r24
 1661 0812 8F70      		andi r24,lo8(15)
 1662 0814 8230      		cpi r24,lo8(2)
 1663 0816 01F0      		breq .L101
 1664               	.LBB373:
 1665               	.LBB374:
 1666               	.LM193:
 1667 0818 917E      		andi r25,lo8(-31)
 1668 081a 9460      		ori r25,lo8(4)
 1669 081c 9083      		st Z,r25
 1670               	.L101:
 1671 081e 0895      		ret
 1672               	.LBE374:
 1673               	.LBE373:
 1674               	.LFE37:
 1676               	.global	Timebase_DownCounter_Set_Securely
 1678               	Timebase_DownCounter_Set_Securely:
 1679               	.LFB38:
 1680               	.LM194:
 1681               	.LVL106:
 1682 0820 CF93      		push r28
 1683 0822 DF93      		push r29
 1684               	/* prologue: function */
 1685               	/* frame size = 0 */
 1686               	.LBB375:
 1687               	.LBB376:
 1688               	.LM195:
 1689 0824 A091 0000 		lds r26,Timebase
 1690 0828 B091 0000 		lds r27,(Timebase)+1
 1691 082c 90E0      		ldi r25,lo8(0)
 1692               	.LBE376:
 1693               	.LBE375:
 1694               	.LM196:
 1695 082e 2DE0      		ldi r18,lo8(13)
 1696 0830 30E0      		ldi r19,hi8(13)
 1697 0832 829F      		mul r24,r18
 1698 0834 F001      		movw r30,r0
 1699 0836 839F      		mul r24,r19
 1700 0838 F00D      		add r31,r0
 1701 083a 929F      		mul r25,r18
 1702 083c F00D      		add r31,r0
 1703 083e 1124      		clr r1
 1704               	.LVL107:
 1705 0840 EA0F      		add r30,r26
 1706 0842 FB1F      		adc r31,r27
 1707 0844 EF01      		movw r28,r30
 1708 0846 C359      		subi r28,lo8(-(109))
 1709 0848 DF4F      		sbci r29,hi8(-(109))
 1710 084a 8881      		ld r24,Y
 1711 084c 8695      		lsr r24
 1712 084e 8F70      		andi r24,lo8(15)
 1713 0850 01F4      		brne .L104
 1714               	.LBB377:
 1715               	.LBB378:
 1716               	.LM197:
 1717 0852 EE58      		subi r30,lo8(-(114))
 1718 0854 FF4F      		sbci r31,hi8(-(114))
 1719 0856 4083      		st Z,r20
 1720 0858 5183      		std Z+1,r21
 1721 085a 6283      		std Z+2,r22
 1722 085c 7383      		std Z+3,r23
 1723               	.LBE378:
 1724               	.LBE377:
 1725               	.LBB379:
 1726               	.LBB380:
 1727               	.LM198:
 1728 085e 1A96      		adiw r26,10
 1729 0860 8D91      		ld r24,X+
 1730 0862 9D91      		ld r25,X+
 1731 0864 0D90      		ld __tmp_reg__,X+
 1732 0866 BC91      		ld r27,X
 1733 0868 A02D      		mov r26,__tmp_reg__
 1734               	.LBE380:
 1735               	.LBE379:
 1736               	.LBB381:
 1737               	.LBB382:
 1738               	.LM199:
 1739 086a 840F      		add r24,r20
 1740 086c 951F      		adc r25,r21
 1741 086e A61F      		adc r26,r22
 1742 0870 B71F      		adc r27,r23
 1743 0872 B293      		st -Z,r27
 1744 0874 A293      		st -Z,r26
 1745 0876 9293      		st -Z,r25
 1746 0878 8293      		st -Z,r24
 1747               	.LBE382:
 1748               	.LBE381:
 1749               	.LBB383:
 1750               	.LBB384:
 1751               	.LM200:
 1752 087a 9881      		ld r25,Y
 1753 087c 892F      		mov r24,r25
 1754 087e 8695      		lsr r24
 1755 0880 8F70      		andi r24,lo8(15)
 1756 0882 8130      		cpi r24,lo8(1)
 1757 0884 01F0      		breq .L104
 1758               	.LBB385:
 1759               	.LBB386:
 1760               	.LM201:
 1761 0886 917E      		andi r25,lo8(-31)
 1762 0888 9260      		ori r25,lo8(2)
 1763 088a 9883      		st Y,r25
 1764               	.L104:
 1765               	/* epilogue start */
 1766               	.LBE386:
 1767               	.LBE385:
 1768               	.LBE384:
 1769               	.LBE383:
 1770               	.LM202:
 1771 088c DF91      		pop r29
 1772 088e CF91      		pop r28
 1773 0890 0895      		ret
 1774               	.LFE38:
 1776               	.global	Timebase_DownCounter_Set_Forcefully
 1778               	Timebase_DownCounter_Set_Forcefully:
 1779               	.LFB39:
 1780               	.LM203:
 1781               	.LVL108:
 1782 0892 CF93      		push r28
 1783 0894 DF93      		push r29
 1784               	/* prologue: function */
 1785               	/* frame size = 0 */
 1786               	.LBB387:
 1787               	.LBB388:
 1788               	.LBB389:
 1789               	.LBB390:
 1790               	.LM204:
 1791 0896 E091 0000 		lds r30,Timebase
 1792 089a F091 0000 		lds r31,(Timebase)+1
 1793 089e A82F      		mov r26,r24
 1794 08a0 B0E0      		ldi r27,lo8(0)
 1795 08a2 2DE0      		ldi r18,lo8(13)
 1796 08a4 30E0      		ldi r19,hi8(13)
 1797 08a6 E901      		movw r28,r18
 1798 08a8 AC9F      		mul r26,r28
 1799 08aa 9001      		movw r18,r0
 1800 08ac AD9F      		mul r26,r29
 1801 08ae 300D      		add r19,r0
 1802 08b0 BC9F      		mul r27,r28
 1803 08b2 300D      		add r19,r0
 1804 08b4 1124      		clr r1
 1805 08b6 E20F      		add r30,r18
 1806 08b8 F31F      		adc r31,r19
 1807 08ba E259      		subi r30,lo8(-(110))
 1808 08bc FF4F      		sbci r31,hi8(-(110))
 1809 08be 1192      		st Z+,__zero_reg__
 1810 08c0 1192      		st Z+,__zero_reg__
 1811 08c2 1192      		st Z+,__zero_reg__
 1812 08c4 1192      		st Z+,__zero_reg__
 1813               	.LBE390:
 1814               	.LBE389:
 1815               	.LBB391:
 1816               	.LBB392:
 1817               	.LM205:
 1818 08c6 1082      		st Z,__zero_reg__
 1819 08c8 1182      		std Z+1,__zero_reg__
 1820 08ca 1282      		std Z+2,__zero_reg__
 1821 08cc 1382      		std Z+3,__zero_reg__
 1822               	.LBE392:
 1823               	.LBE391:
 1824               	.LBB393:
 1825               	.LBB394:
 1826               	.LM206:
 1827 08ce 3597      		sbiw r30,5
 1828 08d0 9081      		ld r25,Z
 1829               	.LBE394:
 1830               	.LBE393:
 1831               	.LBB395:
 1832               	.LBB396:
 1833               	.LM207:
 1834 08d2 907E      		andi r25,lo8(-32)
 1835 08d4 9083      		st Z,r25
 1836               	.LBE396:
 1837               	.LBE395:
 1838               	.LBE388:
 1839               	.LBE387:
 1840               	.LM208:
 1841 08d6 0E94 0000 		call Timebase_DownCounter_Set_Securely
 1842               	.LVL109:
 1843               	/* epilogue start */
 1844               	.LM209:
 1845 08da DF91      		pop r29
 1846 08dc CF91      		pop r28
 1847 08de 0895      		ret
 1848               	.LFE39:
 1850               	.global	Timebase_DownCounter_Update
 1852               	Timebase_DownCounter_Update:
 1853               	.LFB40:
 1854               	.LM210:
 1855               	.LVL110:
 1856 08e0 0F93      		push r16
 1857 08e2 1F93      		push r17
 1858 08e4 CF93      		push r28
 1859 08e6 DF93      		push r29
 1860               	/* prologue: function */
 1861               	/* frame size = 0 */
 1862               	.LBB397:
 1863               	.LBB398:
 1864               	.LM211:
 1865 08e8 A091 0000 		lds r26,Timebase
 1866 08ec B091 0000 		lds r27,(Timebase)+1
 1867 08f0 90E0      		ldi r25,lo8(0)
 1868 08f2 2DE0      		ldi r18,lo8(13)
 1869 08f4 30E0      		ldi r19,hi8(13)
 1870 08f6 829F      		mul r24,r18
 1871 08f8 F001      		movw r30,r0
 1872 08fa 839F      		mul r24,r19
 1873 08fc F00D      		add r31,r0
 1874 08fe 929F      		mul r25,r18
 1875 0900 F00D      		add r31,r0
 1876 0902 1124      		clr r1
 1877               	.LVL111:
 1878 0904 EA0F      		add r30,r26
 1879 0906 FB1F      		adc r31,r27
 1880 0908 8F01      		movw r16,r30
 1881 090a 0359      		subi r16,lo8(-(109))
 1882 090c 1F4F      		sbci r17,hi8(-(109))
 1883 090e E801      		movw r28,r16
 1884 0910 8881      		ld r24,Y
 1885 0912 8695      		lsr r24
 1886 0914 8F70      		andi r24,lo8(15)
 1887               	.LBE398:
 1888               	.LBE397:
 1889               	.LM212:
 1890 0916 8130      		cpi r24,lo8(1)
 1891 0918 01F4      		brne .L108
 1892               	.LBB399:
 1893               	.LBB400:
 1894               	.LM213:
 1895 091a 1A96      		adiw r26,10
 1896 091c 2D91      		ld r18,X+
 1897 091e 3D91      		ld r19,X+
 1898 0920 4D91      		ld r20,X+
 1899 0922 5C91      		ld r21,X
 1900 0924 1D97      		sbiw r26,10+3
 1901               	.LBE400:
 1902               	.LBE399:
 1903               	.LM214:
 1904 0926 BF01      		movw r22,r30
 1905 0928 6259      		subi r22,lo8(-(110))
 1906 092a 7F4F      		sbci r23,hi8(-(110))
 1907 092c EB01      		movw r28,r22
 1908 092e 8881      		ld r24,Y
 1909 0930 9981      		ldd r25,Y+1
 1910 0932 AA81      		ldd r26,Y+2
 1911 0934 BB81      		ldd r27,Y+3
 1912 0936 821B      		sub r24,r18
 1913 0938 930B      		sbc r25,r19
 1914 093a A40B      		sbc r26,r20
 1915 093c B50B      		sbc r27,r21
 1916               	.LBB401:
 1917               	.LBB402:
 1918               	.LM215:
 1919 093e EE58      		subi r30,lo8(-(114))
 1920 0940 FF4F      		sbci r31,hi8(-(114))
 1921 0942 8083      		st Z,r24
 1922 0944 9183      		std Z+1,r25
 1923 0946 A283      		std Z+2,r26
 1924 0948 B383      		std Z+3,r27
 1925               	.LBE402:
 1926               	.LBE401:
 1927               	.LM216:
 1928 094a 1816      		cp __zero_reg__,r24
 1929 094c 1906      		cpc __zero_reg__,r25
 1930 094e 1A06      		cpc __zero_reg__,r26
 1931 0950 1B06      		cpc __zero_reg__,r27
 1932 0952 04F0      		brlt .L110
 1933               	.LBB403:
 1934               	.LBB404:
 1935               	.LBB405:
 1936               	.LBB406:
 1937               	.LM217:
 1938 0954 DB01      		movw r26,r22
 1939 0956 1D92      		st X+,__zero_reg__
 1940 0958 1D92      		st X+,__zero_reg__
 1941 095a 1D92      		st X+,__zero_reg__
 1942 095c 1C92      		st X,__zero_reg__
 1943 095e 1397      		sbiw r26,3
 1944               	.LBE406:
 1945               	.LBE405:
 1946               	.LBB407:
 1947               	.LBB408:
 1948               	.LM218:
 1949 0960 1082      		st Z,__zero_reg__
 1950 0962 1182      		std Z+1,__zero_reg__
 1951 0964 1282      		std Z+2,__zero_reg__
 1952 0966 1382      		std Z+3,__zero_reg__
 1953               	.LBE408:
 1954               	.LBE407:
 1955               	.LBB409:
 1956               	.LBB410:
 1957               	.LM219:
 1958 0968 E801      		movw r28,r16
 1959 096a 8881      		ld r24,Y
 1960               	.LBE410:
 1961               	.LBE409:
 1962               	.LBE404:
 1963               	.LBE403:
 1964               	.LBB411:
 1965               	.LBB412:
 1966               	.LM220:
 1967 096c 807E      		andi r24,lo8(-32)
 1968 096e 8860      		ori r24,lo8(8)
 1969 0970 8883      		st Y,r24
 1970 0972 00C0      		rjmp .L110
 1971               	.L108:
 1972               	.LBE412:
 1973               	.LBE411:
 1974               	.LM221:
 1975 0974 8230      		cpi r24,lo8(2)
 1976 0976 01F4      		brne .L110
 1977               	.LBB413:
 1978               	.LBB414:
 1979               	.LM222:
 1980 0978 1A96      		adiw r26,10
 1981 097a 8D91      		ld r24,X+
 1982 097c 9D91      		ld r25,X+
 1983 097e 0D90      		ld __tmp_reg__,X+
 1984 0980 BC91      		ld r27,X
 1985 0982 A02D      		mov r26,__tmp_reg__
 1986               	.LBE414:
 1987               	.LBE413:
 1988               	.LBB415:
 1989               	.LBB416:
 1990               	.LM223:
 1991 0984 EE58      		subi r30,lo8(-(114))
 1992 0986 FF4F      		sbci r31,hi8(-(114))
 1993 0988 2081      		ld r18,Z
 1994 098a 3181      		ldd r19,Z+1
 1995 098c 4281      		ldd r20,Z+2
 1996 098e 5381      		ldd r21,Z+3
 1997 0990 820F      		add r24,r18
 1998 0992 931F      		adc r25,r19
 1999 0994 A41F      		adc r26,r20
 2000 0996 B51F      		adc r27,r21
 2001 0998 B293      		st -Z,r27
 2002 099a A293      		st -Z,r26
 2003 099c 9293      		st -Z,r25
 2004 099e 8293      		st -Z,r24
 2005               	.L110:
 2006               	/* epilogue start */
 2007               	.LBE416:
 2008               	.LBE415:
 2009               	.LM224:
 2010 09a0 DF91      		pop r29
 2011 09a2 CF91      		pop r28
 2012 09a4 1F91      		pop r17
 2013 09a6 0F91      		pop r16
 2014 09a8 0895      		ret
 2015               	.LFE40:
 2017               	.global	Timebase_DownCounter_Expired
 2019               	Timebase_DownCounter_Expired:
 2020               	.LFB41:
 2021               	.LM225:
 2022               	.LVL112:
 2023               	/* prologue: function */
 2024               	/* frame size = 0 */
 2025               	.LM226:
 2026 09aa 40E0      		ldi r20,lo8(0)
 2027 09ac E091 0000 		lds r30,Timebase
 2028 09b0 F091 0000 		lds r31,(Timebase)+1
 2029 09b4 90E0      		ldi r25,lo8(0)
 2030               	.LVL113:
 2031 09b6 2DE0      		ldi r18,lo8(13)
 2032 09b8 30E0      		ldi r19,hi8(13)
 2033 09ba BC01      		movw r22,r24
 2034 09bc 629F      		mul r22,r18
 2035 09be C001      		movw r24,r0
 2036 09c0 639F      		mul r22,r19
 2037 09c2 900D      		add r25,r0
 2038 09c4 729F      		mul r23,r18
 2039 09c6 900D      		add r25,r0
 2040 09c8 1124      		clr r1
 2041               	.LVL114:
 2042 09ca E80F      		add r30,r24
 2043 09cc F91F      		adc r31,r25
 2044 09ce E359      		subi r30,lo8(-(109))
 2045 09d0 FF4F      		sbci r31,hi8(-(109))
 2046 09d2 8081      		ld r24,Z
 2047 09d4 8695      		lsr r24
 2048 09d6 8F70      		andi r24,lo8(15)
 2049 09d8 8430      		cpi r24,lo8(4)
 2050 09da 01F4      		brne .L112
 2051 09dc 41E0      		ldi r20,lo8(1)
 2052               	.L112:
 2053               	.LM227:
 2054 09de 842F      		mov r24,r20
 2055               	/* epilogue start */
 2056 09e0 0895      		ret
 2057               	.LFE41:
 2059               	.global	Timebase_DownCounter_Expired_Event
 2061               	Timebase_DownCounter_Expired_Event:
 2062               	.LFB42:
 2063               	.LM228:
 2064               	.LVL115:
 2065               	/* prologue: function */
 2066               	/* frame size = 0 */
 2067               	.LBB417:
 2068               	.LBB418:
 2069               	.LM229:
 2070 09e2 E091 0000 		lds r30,Timebase
 2071 09e6 F091 0000 		lds r31,(Timebase)+1
 2072 09ea 90E0      		ldi r25,lo8(0)
 2073               	.LBE418:
 2074               	.LBE417:
 2075               	.LM230:
 2076 09ec 2DE0      		ldi r18,lo8(13)
 2077 09ee 30E0      		ldi r19,hi8(13)
 2078 09f0 AC01      		movw r20,r24
 2079               	.LVL116:
 2080 09f2 429F      		mul r20,r18
 2081 09f4 C001      		movw r24,r0
 2082 09f6 439F      		mul r20,r19
 2083 09f8 900D      		add r25,r0
 2084 09fa 529F      		mul r21,r18
 2085 09fc 900D      		add r25,r0
 2086 09fe 1124      		clr r1
 2087 0a00 E80F      		add r30,r24
 2088 0a02 F91F      		adc r31,r25
 2089 0a04 DF01      		movw r26,r30
 2090 0a06 A359      		subi r26,lo8(-(109))
 2091 0a08 BF4F      		sbci r27,hi8(-(109))
 2092 0a0a 8C91      		ld r24,X
 2093 0a0c 8695      		lsr r24
 2094 0a0e 8F70      		andi r24,lo8(15)
 2095 0a10 8430      		cpi r24,lo8(4)
 2096 0a12 01F0      		breq .L115
 2097 0a14 80E0      		ldi r24,lo8(0)
 2098 0a16 0895      		ret
 2099               	.L115:
 2100               	.LBB419:
 2101               	.LBB420:
 2102               	.LBB421:
 2103               	.LBB422:
 2104               	.LBB423:
 2105               	.LBB424:
 2106               	.LM231:
 2107 0a18 E259      		subi r30,lo8(-(110))
 2108 0a1a FF4F      		sbci r31,hi8(-(110))
 2109 0a1c 1192      		st Z+,__zero_reg__
 2110 0a1e 1192      		st Z+,__zero_reg__
 2111 0a20 1192      		st Z+,__zero_reg__
 2112 0a22 1192      		st Z+,__zero_reg__
 2113               	.LBE424:
 2114               	.LBE423:
 2115               	.LBB425:
 2116               	.LBB426:
 2117               	.LM232:
 2118 0a24 1082      		st Z,__zero_reg__
 2119 0a26 1182      		std Z+1,__zero_reg__
 2120 0a28 1282      		std Z+2,__zero_reg__
 2121 0a2a 1382      		std Z+3,__zero_reg__
 2122               	.LBE426:
 2123               	.LBE425:
 2124               	.LBB427:
 2125               	.LBB428:
 2126               	.LM233:
 2127 0a2c 8C91      		ld r24,X
 2128               	.LBE428:
 2129               	.LBE427:
 2130               	.LBB429:
 2131               	.LBB430:
 2132               	.LM234:
 2133 0a2e 807E      		andi r24,lo8(-32)
 2134 0a30 8C93      		st X,r24
 2135 0a32 81E0      		ldi r24,lo8(1)
 2136               	.LBE430:
 2137               	.LBE429:
 2138               	.LBE422:
 2139               	.LBE421:
 2140               	.LBE420:
 2141               	.LBE419:
 2142               	.LM235:
 2143 0a34 0895      		ret
 2144               	.LFE42:
 2146               	.global	Timebase_DownCounter_Set_Period_Value_Securely
 2148               	Timebase_DownCounter_Set_Period_Value_Securely:
 2149               	.LFB43:
 2150               	.LM236:
 2151               	.LVL117:
 2152 0a36 CF93      		push r28
 2153 0a38 DF93      		push r29
 2154               	/* prologue: function */
 2155               	/* frame size = 0 */
 2156               	.LBB431:
 2157               	.LBB432:
 2158               	.LM237:
 2159 0a3a C091 0000 		lds r28,Timebase
 2160 0a3e D091 0000 		lds r29,(Timebase)+1
 2161 0a42 282F      		mov r18,r24
 2162 0a44 30E0      		ldi r19,lo8(0)
 2163               	.LBE432:
 2164               	.LBE431:
 2165               	.LM238:
 2166 0a46 8DE0      		ldi r24,lo8(13)
 2167 0a48 90E0      		ldi r25,hi8(13)
 2168               	.LVL118:
 2169 0a4a 289F      		mul r18,r24
 2170 0a4c F001      		movw r30,r0
 2171 0a4e 299F      		mul r18,r25
 2172 0a50 F00D      		add r31,r0
 2173 0a52 389F      		mul r19,r24
 2174 0a54 F00D      		add r31,r0
 2175 0a56 1124      		clr r1
 2176 0a58 EC0F      		add r30,r28
 2177 0a5a FD1F      		adc r31,r29
 2178 0a5c E359      		subi r30,lo8(-(109))
 2179 0a5e FF4F      		sbci r31,hi8(-(109))
 2180 0a60 8081      		ld r24,Z
 2181 0a62 ED56      		subi r30,lo8(-(-109))
 2182 0a64 F040      		sbci r31,hi8(-(-109))
 2183 0a66 80FD      		sbrc r24,0
 2184 0a68 00C0      		rjmp .L122
 2185               	.LM239:
 2186 0a6a EE58      		subi r30,lo8(-(114))
 2187 0a6c FF4F      		sbci r31,hi8(-(114))
 2188 0a6e 8191      		ld r24,Z+
 2189 0a70 9191      		ld r25,Z+
 2190 0a72 A191      		ld r26,Z+
 2191 0a74 B191      		ld r27,Z+
 2192 0a76 841B      		sub r24,r20
 2193 0a78 950B      		sbc r25,r21
 2194 0a7a A60B      		sbc r26,r22
 2195 0a7c B70B      		sbc r27,r23
 2196               	.LBB433:
 2197               	.LBB434:
 2198               	.LM240:
 2199 0a7e B7FF      		sbrs r27,7
 2200 0a80 00C0      		rjmp .L120
 2201               	.LM241:
 2202 0a82 1082      		st Z,__zero_reg__
 2203 0a84 1182      		std Z+1,__zero_reg__
 2204 0a86 1282      		std Z+2,__zero_reg__
 2205 0a88 1382      		std Z+3,__zero_reg__
 2206 0a8a 00C0      		rjmp .L121
 2207               	.L120:
 2208               	.LM242:
 2209 0a8c 8083      		st Z,r24
 2210 0a8e 9183      		std Z+1,r25
 2211 0a90 A283      		std Z+2,r26
 2212 0a92 B383      		std Z+3,r27
 2213               	.L121:
 2214               	.LBE434:
 2215               	.LBE433:
 2216               	.LBB435:
 2217               	.LBB436:
 2218               	.LM243:
 2219 0a94 8DE0      		ldi r24,lo8(13)
 2220 0a96 90E0      		ldi r25,hi8(13)
 2221 0a98 289F      		mul r18,r24
 2222 0a9a F001      		movw r30,r0
 2223 0a9c 299F      		mul r18,r25
 2224 0a9e F00D      		add r31,r0
 2225 0aa0 389F      		mul r19,r24
 2226 0aa2 F00D      		add r31,r0
 2227 0aa4 1124      		clr r1
 2228 0aa6 EC0F      		add r30,r28
 2229 0aa8 FD1F      		adc r31,r29
 2230 0aaa E359      		subi r30,lo8(-(109))
 2231 0aac FF4F      		sbci r31,hi8(-(109))
 2232 0aae 8081      		ld r24,Z
 2233 0ab0 8160      		ori r24,lo8(1)
 2234 0ab2 8083      		st Z,r24
 2235               	.L122:
 2236               	/* epilogue start */
 2237               	.LBE436:
 2238               	.LBE435:
 2239               	.LM244:
 2240 0ab4 DF91      		pop r29
 2241 0ab6 CF91      		pop r28
 2242 0ab8 0895      		ret
 2243               	.LFE43:
 2245               	.global	Timebase_DownCounter_Get_Remaining_Period_Value
 2247               	Timebase_DownCounter_Get_Remaining_Period_Value:
 2248               	.LFB44:
 2249               	.LM245:
 2250               	.LVL119:
 2251               	/* prologue: function */
 2252               	/* frame size = 0 */
 2253               	.LBB437:
 2254               	.LBB438:
 2255               	.LM246:
 2256 0aba E091 0000 		lds r30,Timebase
 2257 0abe F091 0000 		lds r31,(Timebase)+1
 2258 0ac2 90E0      		ldi r25,lo8(0)
 2259               	.LBE438:
 2260               	.LBE437:
 2261               	.LM247:
 2262 0ac4 2DE0      		ldi r18,lo8(13)
 2263 0ac6 30E0      		ldi r19,hi8(13)
 2264 0ac8 AC01      		movw r20,r24
 2265               	.LVL120:
 2266 0aca 429F      		mul r20,r18
 2267 0acc C001      		movw r24,r0
 2268 0ace 439F      		mul r20,r19
 2269 0ad0 900D      		add r25,r0
 2270 0ad2 529F      		mul r21,r18
 2271 0ad4 900D      		add r25,r0
 2272 0ad6 1124      		clr r1
 2273 0ad8 E80F      		add r30,r24
 2274 0ada F91F      		adc r31,r25
 2275 0adc DF01      		movw r26,r30
 2276 0ade AA58      		subi r26,lo8(-(118))
 2277 0ae0 BF4F      		sbci r27,hi8(-(118))
 2278 0ae2 EE58      		subi r30,lo8(-(114))
 2279 0ae4 FF4F      		sbci r31,hi8(-(114))
 2280 0ae6 2081      		ld r18,Z
 2281 0ae8 3181      		ldd r19,Z+1
 2282 0aea 4281      		ldd r20,Z+2
 2283 0aec 5381      		ldd r21,Z+3
 2284               	.LVL121:
 2285 0aee 8D91      		ld r24,X+
 2286 0af0 9D91      		ld r25,X+
 2287 0af2 0D90      		ld __tmp_reg__,X+
 2288 0af4 BC91      		ld r27,X
 2289 0af6 A02D      		mov r26,__tmp_reg__
 2290 0af8 281B      		sub r18,r24
 2291 0afa 390B      		sbc r19,r25
 2292 0afc 4A0B      		sbc r20,r26
 2293 0afe 5B0B      		sbc r21,r27
 2294 0b00 57FF      		sbrs r21,7
 2295 0b02 00C0      		rjmp .L124
 2296 0b04 20E0      		ldi r18,lo8(0)
 2297 0b06 30E0      		ldi r19,hi8(0)
 2298 0b08 40E0      		ldi r20,hlo8(0)
 2299 0b0a 50E0      		ldi r21,hhi8(0)
 2300               	.L124:
 2301               	.LM248:
 2302 0b0c B901      		movw r22,r18
 2303               	.LVL122:
 2304 0b0e CA01      		movw r24,r20
 2305               	/* epilogue start */
 2306 0b10 0895      		ret
 2307               	.LFE44:
 2309               	.global	Timebase_DownCounter_Period_Value_Expired
 2311               	Timebase_DownCounter_Period_Value_Expired:
 2312               	.LFB45:
 2313               	.LM249:
 2314               	.LVL123:
 2315 0b12 CF93      		push r28
 2316 0b14 DF93      		push r29
 2317               	/* prologue: function */
 2318               	/* frame size = 0 */
 2319               	.LBB439:
 2320               	.LBB440:
 2321               	.LBB441:
 2322               	.LBB442:
 2323               	.LM250:
 2324 0b16 C091 0000 		lds r28,Timebase
 2325 0b1a D091 0000 		lds r29,(Timebase)+1
 2326 0b1e 682F      		mov r22,r24
 2327 0b20 70E0      		ldi r23,lo8(0)
 2328               	.LBE442:
 2329               	.LBE441:
 2330               	.LM251:
 2331 0b22 8DE0      		ldi r24,lo8(13)
 2332 0b24 90E0      		ldi r25,hi8(13)
 2333               	.LVL124:
 2334 0b26 689F      		mul r22,r24
 2335 0b28 F001      		movw r30,r0
 2336 0b2a 699F      		mul r22,r25
 2337 0b2c F00D      		add r31,r0
 2338 0b2e 789F      		mul r23,r24
 2339 0b30 F00D      		add r31,r0
 2340 0b32 1124      		clr r1
 2341 0b34 EC0F      		add r30,r28
 2342 0b36 FD1F      		adc r31,r29
 2343 0b38 DF01      		movw r26,r30
 2344 0b3a AA58      		subi r26,lo8(-(118))
 2345 0b3c BF4F      		sbci r27,hi8(-(118))
 2346 0b3e EE58      		subi r30,lo8(-(114))
 2347 0b40 FF4F      		sbci r31,hi8(-(114))
 2348 0b42 2081      		ld r18,Z
 2349 0b44 3181      		ldd r19,Z+1
 2350 0b46 4281      		ldd r20,Z+2
 2351 0b48 5381      		ldd r21,Z+3
 2352               	.LVL125:
 2353 0b4a 8D91      		ld r24,X+
 2354 0b4c 9D91      		ld r25,X+
 2355 0b4e 0D90      		ld __tmp_reg__,X+
 2356 0b50 BC91      		ld r27,X
 2357 0b52 A02D      		mov r26,__tmp_reg__
 2358 0b54 281B      		sub r18,r24
 2359 0b56 390B      		sbc r19,r25
 2360 0b58 4A0B      		sbc r20,r26
 2361 0b5a 5B0B      		sbc r21,r27
 2362               	.LM252:
 2363 0b5c 57FD      		sbrc r21,7
 2364 0b5e 00C0      		rjmp .L127
 2365               	.LBE440:
 2366               	.LBE439:
 2367               	.LM253:
 2368 0b60 2115      		cp r18,__zero_reg__
 2369 0b62 3105      		cpc r19,__zero_reg__
 2370 0b64 4105      		cpc r20,__zero_reg__
 2371 0b66 5105      		cpc r21,__zero_reg__
 2372 0b68 01F0      		breq .L127
 2373 0b6a 20E0      		ldi r18,lo8(0)
 2374               	.LVL126:
 2375 0b6c 00C0      		rjmp .L128
 2376               	.LVL127:
 2377               	.L127:
 2378 0b6e 20E0      		ldi r18,lo8(0)
 2379               	.LVL128:
 2380 0b70 8DE0      		ldi r24,lo8(13)
 2381 0b72 90E0      		ldi r25,hi8(13)
 2382 0b74 AC01      		movw r20,r24
 2383 0b76 649F      		mul r22,r20
 2384 0b78 C001      		movw r24,r0
 2385 0b7a 659F      		mul r22,r21
 2386 0b7c 900D      		add r25,r0
 2387 0b7e 749F      		mul r23,r20
 2388 0b80 900D      		add r25,r0
 2389 0b82 1124      		clr r1
 2390 0b84 C80F      		add r28,r24
 2391 0b86 D91F      		adc r29,r25
 2392 0b88 C359      		subi r28,lo8(-(109))
 2393 0b8a DF4F      		sbci r29,hi8(-(109))
 2394 0b8c 8881      		ld r24,Y
 2395 0b8e 80FF      		sbrs r24,0
 2396 0b90 21E0      		ldi r18,lo8(1)
 2397               	.L129:
 2398 0b92 81E0      		ldi r24,lo8(1)
 2399 0b94 2827      		eor r18,r24
 2400               	.L128:
 2401               	.LM254:
 2402 0b96 822F      		mov r24,r18
 2403               	/* epilogue start */
 2404 0b98 DF91      		pop r29
 2405 0b9a CF91      		pop r28
 2406 0b9c 0895      		ret
 2407               	.LFE45:
 2409               	.global	Timebase_DownCounter_Period_Value_Expired_Event
 2411               	Timebase_DownCounter_Period_Value_Expired_Event:
 2412               	.LFB46:
 2413               	.LM255:
 2414               	.LVL129:
 2415 0b9e 1F93      		push r17
 2416               	/* prologue: function */
 2417               	/* frame size = 0 */
 2418 0ba0 182F      		mov r17,r24
 2419               	.LM256:
 2420 0ba2 0E94 0000 		call Timebase_DownCounter_Period_Value_Expired
 2421               	.LVL130:
 2422 0ba6 8130      		cpi r24,lo8(1)
 2423 0ba8 01F0      		breq .L132
 2424 0baa 80E0      		ldi r24,lo8(0)
 2425 0bac 00C0      		rjmp .L133
 2426               	.L132:
 2427               	.LBB443:
 2428               	.LBB444:
 2429               	.LM257:
 2430 0bae E091 0000 		lds r30,Timebase
 2431 0bb2 F091 0000 		lds r31,(Timebase)+1
 2432 0bb6 212F      		mov r18,r17
 2433 0bb8 30E0      		ldi r19,lo8(0)
 2434               	.LVL131:
 2435 0bba 8DE0      		ldi r24,lo8(13)
 2436 0bbc 90E0      		ldi r25,hi8(13)
 2437 0bbe AC01      		movw r20,r24
 2438 0bc0 249F      		mul r18,r20
 2439 0bc2 C001      		movw r24,r0
 2440 0bc4 259F      		mul r18,r21
 2441 0bc6 900D      		add r25,r0
 2442 0bc8 349F      		mul r19,r20
 2443 0bca 900D      		add r25,r0
 2444 0bcc 1124      		clr r1
 2445 0bce E80F      		add r30,r24
 2446 0bd0 F91F      		adc r31,r25
 2447 0bd2 E359      		subi r30,lo8(-(109))
 2448 0bd4 FF4F      		sbci r31,hi8(-(109))
 2449 0bd6 8081      		ld r24,Z
 2450 0bd8 8E7F      		andi r24,lo8(-2)
 2451 0bda 8083      		st Z,r24
 2452 0bdc 81E0      		ldi r24,lo8(1)
 2453               	.L133:
 2454               	/* epilogue start */
 2455               	.LBE444:
 2456               	.LBE443:
 2457               	.LM258:
 2458 0bde 1F91      		pop r17
 2459               	.LVL132:
 2460 0be0 0895      		ret
 2461               	.LFE46:
 2463               	.global	Timebase_DownCounter_Update_All
 2465               	Timebase_DownCounter_Update_All:
 2466               	.LFB47:
 2467               	.LM259:
 2468 0be2 1F93      		push r17
 2469               	/* prologue: function */
 2470               	/* frame size = 0 */
 2471               	.LM260:
 2472 0be4 10E0      		ldi r17,lo8(0)
 2473               	.LVL133:
 2474               	.L136:
 2475               	.LBB445:
 2476               	.LM261:
 2477 0be6 812F      		mov r24,r17
 2478 0be8 0E94 0000 		call Timebase_DownCounter_Update
 2479               	.LM262:
 2480 0bec 1F5F      		subi r17,lo8(-(1))
 2481 0bee 1530      		cpi r17,lo8(5)
 2482 0bf0 01F4      		brne .L136
 2483               	/* epilogue start */
 2484               	.LBE445:
 2485               	.LM263:
 2486 0bf2 1F91      		pop r17
 2487               	.LVL134:
 2488 0bf4 0895      		ret
 2489               	.LFE47:
 2491               	.global	Timebase_DownCounter_Reset_All
 2493               	Timebase_DownCounter_Reset_All:
 2494               	.LFB48:
 2495               	.LM264:
 2496               	/* prologue: function */
 2497               	/* frame size = 0 */
 2498               	.LBB446:
 2499               	.LBB447:
 2500               	.LBB448:
 2501               	.LBB449:
 2502               	.LBB450:
 2503               	.LM265:
 2504 0bf6 4091 0000 		lds r20,Timebase
 2505 0bfa 5091 0000 		lds r21,(Timebase)+1
 2506 0bfe DA01      		movw r26,r20
 2507 0c00 A259      		subi r26,lo8(-(110))
 2508 0c02 BF4F      		sbci r27,hi8(-(110))
 2509 0c04 20E0      		ldi r18,lo8(0)
 2510 0c06 30E0      		ldi r19,hi8(0)
 2511               	.LBE450:
 2512               	.LBE449:
 2513               	.LBB452:
 2514               	.LBB453:
 2515               	.LM266:
 2516 0c08 6DE0      		ldi r22,lo8(13)
 2517 0c0a 70E0      		ldi r23,hi8(13)
 2518               	.L140:
 2519               	.LBE453:
 2520               	.LBE452:
 2521               	.LBB455:
 2522               	.LBB451:
 2523               	.LM267:
 2524 0c0c 1D92      		st X+,__zero_reg__
 2525 0c0e 1D92      		st X+,__zero_reg__
 2526 0c10 1D92      		st X+,__zero_reg__
 2527 0c12 1C92      		st X,__zero_reg__
 2528 0c14 1397      		sbiw r26,3
 2529               	.LBE451:
 2530               	.LBE455:
 2531               	.LBB456:
 2532               	.LBB457:
 2533               	.LM268:
 2534 0c16 1496      		adiw r26,4
 2535 0c18 1D92      		st X+,__zero_reg__
 2536 0c1a 1D92      		st X+,__zero_reg__
 2537 0c1c 1D92      		st X+,__zero_reg__
 2538 0c1e 1C92      		st X,__zero_reg__
 2539 0c20 1797      		sbiw r26,4+3
 2540               	.LBE457:
 2541               	.LBE456:
 2542               	.LBB458:
 2543               	.LBB454:
 2544               	.LM269:
 2545 0c22 269F      		mul r18,r22
 2546 0c24 F001      		movw r30,r0
 2547 0c26 279F      		mul r18,r23
 2548 0c28 F00D      		add r31,r0
 2549 0c2a 369F      		mul r19,r22
 2550 0c2c F00D      		add r31,r0
 2551 0c2e 1124      		clr r1
 2552 0c30 E40F      		add r30,r20
 2553 0c32 F51F      		adc r31,r21
 2554 0c34 E359      		subi r30,lo8(-(109))
 2555 0c36 FF4F      		sbci r31,hi8(-(109))
 2556 0c38 8081      		ld r24,Z
 2557               	.LBE454:
 2558               	.LBE458:
 2559               	.LBB459:
 2560               	.LBB460:
 2561               	.LM270:
 2562 0c3a 807E      		andi r24,lo8(-32)
 2563 0c3c 8083      		st Z,r24
 2564 0c3e 2F5F      		subi r18,lo8(-(1))
 2565 0c40 3F4F      		sbci r19,hi8(-(1))
 2566 0c42 1D96      		adiw r26,13
 2567               	.LBE460:
 2568               	.LBE459:
 2569               	.LBE448:
 2570               	.LBE447:
 2571               	.LM271:
 2572 0c44 2530      		cpi r18,5
 2573 0c46 3105      		cpc r19,__zero_reg__
 2574 0c48 01F4      		brne .L140
 2575               	/* epilogue start */
 2576               	.LBE446:
 2577               	.LM272:
 2578 0c4a 0895      		ret
 2579               	.LFE48:
 2581               	.global	Timebase_DownCounter_SS_Get_Status
 2583               	Timebase_DownCounter_SS_Get_Status:
 2584               	.LFB49:
 2585               	.LM273:
 2586               	.LVL135:
 2587               	/* prologue: function */
 2588               	/* frame size = 0 */
 2589               	.LM274:
 2590 0c4c E091 0000 		lds r30,Timebase
 2591 0c50 F091 0000 		lds r31,(Timebase)+1
 2592 0c54 90E0      		ldi r25,lo8(0)
 2593               	.LVL136:
 2594 0c56 9C01      		movw r18,r24
 2595 0c58 44E0      		ldi r20,4
 2596 0c5a 220F      	1:	lsl r18
 2597 0c5c 331F      		rol r19
 2598 0c5e 4A95      		dec r20
 2599 0c60 01F4      		brne 1b
 2600 0c62 280F      		add r18,r24
 2601 0c64 391F      		adc r19,r25
 2602 0c66 E20F      		add r30,r18
 2603 0c68 F31F      		adc r31,r19
 2604 0c6a 808D      		ldd r24,Z+24
 2605               	.LVL137:
 2606 0c6c 8695      		lsr r24
 2607               	.LM275:
 2608 0c6e 8F70      		andi r24,lo8(15)
 2609               	/* epilogue start */
 2610 0c70 0895      		ret
 2611               	.LFE49:
 2613               	.global	Timebase_DownCounter_SS_Set_Status
 2615               	Timebase_DownCounter_SS_Set_Status:
 2616               	.LFB50:
 2617               	.LM276:
 2618               	.LVL138:
 2619               	/* prologue: function */
 2620               	/* frame size = 0 */
 2621               	.LM277:
 2622 0c72 E091 0000 		lds r30,Timebase
 2623 0c76 F091 0000 		lds r31,(Timebase)+1
 2624 0c7a 90E0      		ldi r25,lo8(0)
 2625               	.LVL139:
 2626 0c7c 9C01      		movw r18,r24
 2627 0c7e 54E0      		ldi r21,4
 2628 0c80 220F      	1:	lsl r18
 2629 0c82 331F      		rol r19
 2630 0c84 5A95      		dec r21
 2631 0c86 01F4      		brne 1b
 2632 0c88 280F      		add r18,r24
 2633 0c8a 391F      		adc r19,r25
 2634 0c8c E20F      		add r30,r18
 2635 0c8e F31F      		adc r31,r19
 2636 0c90 6F70      		andi r22,lo8(15)
 2637               	.LVL140:
 2638 0c92 660F      		lsl r22
 2639 0c94 808D      		ldd r24,Z+24
 2640               	.LVL141:
 2641 0c96 817E      		andi r24,lo8(-31)
 2642 0c98 862B      		or r24,r22
 2643 0c9a 808F      		std Z+24,r24
 2644               	/* epilogue start */
 2645               	.LM278:
 2646 0c9c 0895      		ret
 2647               	.LFE50:
 2649               	.global	Timebase_DownCounter_SS_Get_Value
 2651               	Timebase_DownCounter_SS_Get_Value:
 2652               	.LFB51:
 2653               	.LM279:
 2654               	.LVL142:
 2655               	/* prologue: function */
 2656               	/* frame size = 0 */
 2657               	.LM280:
 2658 0c9e E091 0000 		lds r30,Timebase
 2659 0ca2 F091 0000 		lds r31,(Timebase)+1
 2660 0ca6 90E0      		ldi r25,lo8(0)
 2661               	.LVL143:
 2662 0ca8 9C01      		movw r18,r24
 2663 0caa 64E0      		ldi r22,4
 2664 0cac 220F      	1:	lsl r18
 2665 0cae 331F      		rol r19
 2666 0cb0 6A95      		dec r22
 2667 0cb2 01F4      		brne 1b
 2668 0cb4 280F      		add r18,r24
 2669 0cb6 391F      		adc r19,r25
 2670 0cb8 E20F      		add r30,r18
 2671 0cba F31F      		adc r31,r19
 2672 0cbc DF01      		movw r26,r30
 2673 0cbe 9196      		adiw r26,33
 2674 0cc0 61A1      		ldd r22,Z+33
 2675 0cc2 1196      		adiw r26,1
 2676 0cc4 7C91      		ld r23,X
 2677 0cc6 1197      		sbiw r26,1
 2678               	.LM281:
 2679 0cc8 1296      		adiw r26,2
 2680 0cca 8C91      		ld r24,X
 2681 0ccc 1297      		sbiw r26,2
 2682               	.LVL144:
 2683 0cce 1396      		adiw r26,3
 2684 0cd0 9C91      		ld r25,X
 2685               	.LVL145:
 2686               	/* epilogue start */
 2687 0cd2 0895      		ret
 2688               	.LFE51:
 2690               	.global	Timebase_DownCounter_SS_Set_Value
 2692               	Timebase_DownCounter_SS_Set_Value:
 2693               	.LFB52:
 2694               	.LM282:
 2695               	.LVL146:
 2696               	/* prologue: function */
 2697               	/* frame size = 0 */
 2698               	.LM283:
 2699 0cd4 E091 0000 		lds r30,Timebase
 2700 0cd8 F091 0000 		lds r31,(Timebase)+1
 2701 0cdc 90E0      		ldi r25,lo8(0)
 2702               	.LVL147:
 2703 0cde 9C01      		movw r18,r24
 2704 0ce0 A4E0      		ldi r26,4
 2705 0ce2 220F      	1:	lsl r18
 2706 0ce4 331F      		rol r19
 2707 0ce6 AA95      		dec r26
 2708 0ce8 01F4      		brne 1b
 2709 0cea 280F      		add r18,r24
 2710 0cec 391F      		adc r19,r25
 2711 0cee E20F      		add r30,r18
 2712 0cf0 F31F      		adc r31,r19
 2713 0cf2 41A3      		std Z+33,r20
 2714 0cf4 52A3      		std Z+34,r21
 2715 0cf6 63A3      		std Z+35,r22
 2716 0cf8 74A3      		std Z+36,r23
 2717               	/* epilogue start */
 2718               	.LM284:
 2719 0cfa 0895      		ret
 2720               	.LFE52:
 2722               	.global	Timebase_DownCounter_SS_Get_EndValueSec
 2724               	Timebase_DownCounter_SS_Get_EndValueSec:
 2725               	.LFB53:
 2726               	.LM285:
 2727               	.LVL148:
 2728               	/* prologue: function */
 2729               	/* frame size = 0 */
 2730               	.LM286:
 2731 0cfc E091 0000 		lds r30,Timebase
 2732 0d00 F091 0000 		lds r31,(Timebase)+1
 2733 0d04 90E0      		ldi r25,lo8(0)
 2734               	.LVL149:
 2735 0d06 9C01      		movw r18,r24
 2736 0d08 B4E0      		ldi r27,4
 2737 0d0a 220F      	1:	lsl r18
 2738 0d0c 331F      		rol r19
 2739 0d0e BA95      		dec r27
 2740 0d10 01F4      		brne 1b
 2741 0d12 280F      		add r18,r24
 2742 0d14 391F      		adc r19,r25
 2743 0d16 E20F      		add r30,r18
 2744 0d18 F31F      		adc r31,r19
 2745 0d1a DF01      		movw r26,r30
 2746 0d1c 5996      		adiw r26,25
 2747 0d1e 618D      		ldd r22,Z+25
 2748 0d20 1196      		adiw r26,1
 2749 0d22 7C91      		ld r23,X
 2750 0d24 1197      		sbiw r26,1
 2751               	.LM287:
 2752 0d26 1296      		adiw r26,2
 2753 0d28 8C91      		ld r24,X
 2754 0d2a 1297      		sbiw r26,2
 2755               	.LVL150:
 2756 0d2c 1396      		adiw r26,3
 2757 0d2e 9C91      		ld r25,X
 2758               	.LVL151:
 2759               	/* epilogue start */
 2760 0d30 0895      		ret
 2761               	.LFE53:
 2763               	.global	Timebase_DownCounter_SS_Get_EndValueSubSec
 2765               	Timebase_DownCounter_SS_Get_EndValueSubSec:
 2766               	.LFB54:
 2767               	.LM288:
 2768               	.LVL152:
 2769               	/* prologue: function */
 2770               	/* frame size = 0 */
 2771               	.LM289:
 2772 0d32 E091 0000 		lds r30,Timebase
 2773 0d36 F091 0000 		lds r31,(Timebase)+1
 2774 0d3a 90E0      		ldi r25,lo8(0)
 2775               	.LVL153:
 2776 0d3c 9C01      		movw r18,r24
 2777 0d3e 44E0      		ldi r20,4
 2778 0d40 220F      	1:	lsl r18
 2779 0d42 331F      		rol r19
 2780 0d44 4A95      		dec r20
 2781 0d46 01F4      		brne 1b
 2782 0d48 280F      		add r18,r24
 2783 0d4a 391F      		adc r19,r25
 2784 0d4c E20F      		add r30,r18
 2785 0d4e F31F      		adc r31,r19
 2786 0d50 DF01      		movw r26,r30
 2787 0d52 5D96      		adiw r26,29
 2788 0d54 658D      		ldd r22,Z+29
 2789 0d56 1196      		adiw r26,1
 2790 0d58 7C91      		ld r23,X
 2791 0d5a 1197      		sbiw r26,1
 2792               	.LM290:
 2793 0d5c 1296      		adiw r26,2
 2794 0d5e 8C91      		ld r24,X
 2795 0d60 1297      		sbiw r26,2
 2796               	.LVL154:
 2797 0d62 1396      		adiw r26,3
 2798 0d64 9C91      		ld r25,X
 2799               	.LVL155:
 2800               	/* epilogue start */
 2801 0d66 0895      		ret
 2802               	.LFE54:
 2804               	.global	Timebase_DownCounter_SS_Set_EndValueSec
 2806               	Timebase_DownCounter_SS_Set_EndValueSec:
 2807               	.LFB55:
 2808               	.LM291:
 2809               	.LVL156:
 2810               	/* prologue: function */
 2811               	/* frame size = 0 */
 2812               	.LM292:
 2813 0d68 E091 0000 		lds r30,Timebase
 2814 0d6c F091 0000 		lds r31,(Timebase)+1
 2815 0d70 90E0      		ldi r25,lo8(0)
 2816               	.LVL157:
 2817 0d72 9C01      		movw r18,r24
 2818 0d74 A4E0      		ldi r26,4
 2819 0d76 220F      	1:	lsl r18
 2820 0d78 331F      		rol r19
 2821 0d7a AA95      		dec r26
 2822 0d7c 01F4      		brne 1b
 2823 0d7e 280F      		add r18,r24
 2824 0d80 391F      		adc r19,r25
 2825 0d82 E20F      		add r30,r18
 2826 0d84 F31F      		adc r31,r19
 2827 0d86 418F      		std Z+25,r20
 2828 0d88 528F      		std Z+26,r21
 2829 0d8a 638F      		std Z+27,r22
 2830 0d8c 748F      		std Z+28,r23
 2831               	/* epilogue start */
 2832               	.LM293:
 2833 0d8e 0895      		ret
 2834               	.LFE55:
 2836               	.global	Timebase_DownCounter_SS_Set_EndValueSubSec
 2838               	Timebase_DownCounter_SS_Set_EndValueSubSec:
 2839               	.LFB56:
 2840               	.LM294:
 2841               	.LVL158:
 2842               	/* prologue: function */
 2843               	/* frame size = 0 */
 2844               	.LM295:
 2845 0d90 E091 0000 		lds r30,Timebase
 2846 0d94 F091 0000 		lds r31,(Timebase)+1
 2847 0d98 90E0      		ldi r25,lo8(0)
 2848               	.LVL159:
 2849 0d9a 9C01      		movw r18,r24
 2850 0d9c B4E0      		ldi r27,4
 2851 0d9e 220F      	1:	lsl r18
 2852 0da0 331F      		rol r19
 2853 0da2 BA95      		dec r27
 2854 0da4 01F4      		brne 1b
 2855 0da6 280F      		add r18,r24
 2856 0da8 391F      		adc r19,r25
 2857 0daa E20F      		add r30,r18
 2858 0dac F31F      		adc r31,r19
 2859 0dae 458F      		std Z+29,r20
 2860 0db0 568F      		std Z+30,r21
 2861 0db2 678F      		std Z+31,r22
 2862 0db4 70A3      		std Z+32,r23
 2863               	/* epilogue start */
 2864               	.LM296:
 2865 0db6 0895      		ret
 2866               	.LFE56:
 2868               	.global	Timebase_DownCounter_SS_Get_PeriodValue
 2870               	Timebase_DownCounter_SS_Get_PeriodValue:
 2871               	.LFB57:
 2872               	.LM297:
 2873               	.LVL160:
 2874               	/* prologue: function */
 2875               	/* frame size = 0 */
 2876               	.LM298:
 2877 0db8 E091 0000 		lds r30,Timebase
 2878 0dbc F091 0000 		lds r31,(Timebase)+1
 2879 0dc0 90E0      		ldi r25,lo8(0)
 2880               	.LVL161:
 2881 0dc2 9C01      		movw r18,r24
 2882 0dc4 44E0      		ldi r20,4
 2883 0dc6 220F      	1:	lsl r18
 2884 0dc8 331F      		rol r19
 2885 0dca 4A95      		dec r20
 2886 0dcc 01F4      		brne 1b
 2887 0dce 280F      		add r18,r24
 2888 0dd0 391F      		adc r19,r25
 2889 0dd2 E20F      		add r30,r18
 2890 0dd4 F31F      		adc r31,r19
 2891 0dd6 DF01      		movw r26,r30
 2892 0dd8 9596      		adiw r26,37
 2893 0dda 65A1      		ldd r22,Z+37
 2894 0ddc 1196      		adiw r26,1
 2895 0dde 7C91      		ld r23,X
 2896 0de0 1197      		sbiw r26,1
 2897               	.LM299:
 2898 0de2 1296      		adiw r26,2
 2899 0de4 8C91      		ld r24,X
 2900 0de6 1297      		sbiw r26,2
 2901               	.LVL162:
 2902 0de8 1396      		adiw r26,3
 2903 0dea 9C91      		ld r25,X
 2904               	.LVL163:
 2905               	/* epilogue start */
 2906 0dec 0895      		ret
 2907               	.LFE57:
 2909               	.global	Timebase_DownCounter_SS_Set_PeriodValue
 2911               	Timebase_DownCounter_SS_Set_PeriodValue:
 2912               	.LFB58:
 2913               	.LM300:
 2914               	.LVL164:
 2915               	/* prologue: function */
 2916               	/* frame size = 0 */
 2917 0dee E091 0000 		lds r30,Timebase
 2918 0df2 F091 0000 		lds r31,(Timebase)+1
 2919 0df6 282F      		mov r18,r24
 2920 0df8 30E0      		ldi r19,lo8(0)
 2921               	.LVL165:
 2922               	.LM301:
 2923 0dfa 77FF      		sbrs r23,7
 2924 0dfc 00C0      		rjmp .L162
 2925               	.LVL166:
 2926               	.LM302:
 2927 0dfe C901      		movw r24,r18
 2928 0e00 B4E0      		ldi r27,4
 2929 0e02 880F      	1:	lsl r24
 2930 0e04 991F      		rol r25
 2931 0e06 BA95      		dec r27
 2932 0e08 01F4      		brne 1b
 2933 0e0a 820F      		add r24,r18
 2934 0e0c 931F      		adc r25,r19
 2935 0e0e E80F      		add r30,r24
 2936 0e10 F91F      		adc r31,r25
 2937 0e12 15A2      		std Z+37,__zero_reg__
 2938 0e14 16A2      		std Z+38,__zero_reg__
 2939 0e16 17A2      		std Z+39,__zero_reg__
 2940 0e18 10A6      		std Z+40,__zero_reg__
 2941 0e1a 0895      		ret
 2942               	.LVL167:
 2943               	.L162:
 2944               	.LM303:
 2945 0e1c C901      		movw r24,r18
 2946 0e1e A4E0      		ldi r26,4
 2947 0e20 880F      	1:	lsl r24
 2948 0e22 991F      		rol r25
 2949 0e24 AA95      		dec r26
 2950 0e26 01F4      		brne 1b
 2951 0e28 820F      		add r24,r18
 2952 0e2a 931F      		adc r25,r19
 2953 0e2c E80F      		add r30,r24
 2954 0e2e F91F      		adc r31,r25
 2955 0e30 45A3      		std Z+37,r20
 2956 0e32 56A3      		std Z+38,r21
 2957 0e34 67A3      		std Z+39,r22
 2958 0e36 70A7      		std Z+40,r23
 2959 0e38 0895      		ret
 2960               	.LFE58:
 2962               	.global	Timebase_DownCounter_SS_Get_Period_Flag
 2964               	Timebase_DownCounter_SS_Get_Period_Flag:
 2965               	.LFB59:
 2966               	.LM304:
 2967               	.LVL168:
 2968               	/* prologue: function */
 2969               	/* frame size = 0 */
 2970               	.LM305:
 2971 0e3a E091 0000 		lds r30,Timebase
 2972 0e3e F091 0000 		lds r31,(Timebase)+1
 2973 0e42 90E0      		ldi r25,lo8(0)
 2974               	.LVL169:
 2975 0e44 9C01      		movw r18,r24
 2976 0e46 44E0      		ldi r20,4
 2977 0e48 220F      	1:	lsl r18
 2978 0e4a 331F      		rol r19
 2979 0e4c 4A95      		dec r20
 2980 0e4e 01F4      		brne 1b
 2981 0e50 280F      		add r18,r24
 2982 0e52 391F      		adc r19,r25
 2983 0e54 E20F      		add r30,r18
 2984 0e56 F31F      		adc r31,r19
 2985 0e58 808D      		ldd r24,Z+24
 2986               	.LVL170:
 2987               	.LM306:
 2988 0e5a 8170      		andi r24,lo8(1)
 2989               	/* epilogue start */
 2990 0e5c 0895      		ret
 2991               	.LFE59:
 2993               	.global	Timebase_DownCounter_SS_Set_Period_Flag
 2995               	Timebase_DownCounter_SS_Set_Period_Flag:
 2996               	.LFB60:
 2997               	.LM307:
 2998               	.LVL171:
 2999               	/* prologue: function */
 3000               	/* frame size = 0 */
 3001               	.LM308:
 3002 0e5e E091 0000 		lds r30,Timebase
 3003 0e62 F091 0000 		lds r31,(Timebase)+1
 3004 0e66 90E0      		ldi r25,lo8(0)
 3005               	.LVL172:
 3006 0e68 9C01      		movw r18,r24
 3007 0e6a 54E0      		ldi r21,4
 3008 0e6c 220F      	1:	lsl r18
 3009 0e6e 331F      		rol r19
 3010 0e70 5A95      		dec r21
 3011 0e72 01F4      		brne 1b
 3012 0e74 280F      		add r18,r24
 3013 0e76 391F      		adc r19,r25
 3014 0e78 E20F      		add r30,r18
 3015 0e7a F31F      		adc r31,r19
 3016 0e7c 808D      		ldd r24,Z+24
 3017               	.LVL173:
 3018 0e7e 8160      		ori r24,lo8(1)
 3019 0e80 808F      		std Z+24,r24
 3020               	/* epilogue start */
 3021               	.LM309:
 3022 0e82 0895      		ret
 3023               	.LFE60:
 3025               	.global	Timebase_DownCounter_SS_Clear_Period_Flag
 3027               	Timebase_DownCounter_SS_Clear_Period_Flag:
 3028               	.LFB61:
 3029               	.LM310:
 3030               	.LVL174:
 3031               	/* prologue: function */
 3032               	/* frame size = 0 */
 3033               	.LM311:
 3034 0e84 E091 0000 		lds r30,Timebase
 3035 0e88 F091 0000 		lds r31,(Timebase)+1
 3036 0e8c 90E0      		ldi r25,lo8(0)
 3037               	.LVL175:
 3038 0e8e 9C01      		movw r18,r24
 3039 0e90 64E0      		ldi r22,4
 3040 0e92 220F      	1:	lsl r18
 3041 0e94 331F      		rol r19
 3042 0e96 6A95      		dec r22
 3043 0e98 01F4      		brne 1b
 3044 0e9a 280F      		add r18,r24
 3045 0e9c 391F      		adc r19,r25
 3046 0e9e E20F      		add r30,r18
 3047 0ea0 F31F      		adc r31,r19
 3048 0ea2 808D      		ldd r24,Z+24
 3049               	.LVL176:
 3050 0ea4 8E7F      		andi r24,lo8(-2)
 3051 0ea6 808F      		std Z+24,r24
 3052               	/* epilogue start */
 3053               	.LM312:
 3054 0ea8 0895      		ret
 3055               	.LFE61:
 3057               	.global	Timebase_DownCounter_SS_Reset
 3059               	Timebase_DownCounter_SS_Reset:
 3060               	.LFB62:
 3061               	.LM313:
 3062               	.LVL177:
 3063               	/* prologue: function */
 3064               	/* frame size = 0 */
 3065               	.LBB461:
 3066               	.LBB462:
 3067               	.LM314:
 3068 0eaa E091 0000 		lds r30,Timebase
 3069 0eae F091 0000 		lds r31,(Timebase)+1
 3070 0eb2 90E0      		ldi r25,lo8(0)
 3071 0eb4 9C01      		movw r18,r24
 3072               	.LVL178:
 3073 0eb6 74E0      		ldi r23,4
 3074 0eb8 220F      	1:	lsl r18
 3075 0eba 331F      		rol r19
 3076 0ebc 7A95      		dec r23
 3077 0ebe 01F4      		brne 1b
 3078 0ec0 280F      		add r18,r24
 3079 0ec2 391F      		adc r19,r25
 3080 0ec4 E20F      		add r30,r18
 3081 0ec6 F31F      		adc r31,r19
 3082 0ec8 158E      		std Z+29,__zero_reg__
 3083 0eca 168E      		std Z+30,__zero_reg__
 3084 0ecc 178E      		std Z+31,__zero_reg__
 3085 0ece 10A2      		std Z+32,__zero_reg__
 3086               	.LBE462:
 3087               	.LBE461:
 3088               	.LBB463:
 3089               	.LBB464:
 3090               	.LM315:
 3091 0ed0 118E      		std Z+25,__zero_reg__
 3092 0ed2 128E      		std Z+26,__zero_reg__
 3093 0ed4 138E      		std Z+27,__zero_reg__
 3094 0ed6 148E      		std Z+28,__zero_reg__
 3095               	.LBE464:
 3096               	.LBE463:
 3097               	.LBB465:
 3098               	.LBB466:
 3099               	.LM316:
 3100 0ed8 11A2      		std Z+33,__zero_reg__
 3101 0eda 12A2      		std Z+34,__zero_reg__
 3102 0edc 13A2      		std Z+35,__zero_reg__
 3103 0ede 14A2      		std Z+36,__zero_reg__
 3104               	.LBE466:
 3105               	.LBE465:
 3106               	.LBB467:
 3107               	.LBB468:
 3108               	.LM317:
 3109 0ee0 808D      		ldd r24,Z+24
 3110               	.LBE468:
 3111               	.LBE467:
 3112               	.LBB469:
 3113               	.LBB470:
 3114               	.LM318:
 3115 0ee2 807E      		andi r24,lo8(-32)
 3116 0ee4 808F      		std Z+24,r24
 3117               	/* epilogue start */
 3118               	.LBE470:
 3119               	.LBE469:
 3120               	.LM319:
 3121 0ee6 0895      		ret
 3122               	.LFE62:
 3124               	.global	Timebase_DownCounter_SS_Clear_All_Flags
 3126               	Timebase_DownCounter_SS_Clear_All_Flags:
 3127               	.LFB63:
 3128               	.LM320:
 3129               	.LVL179:
 3130               	/* prologue: function */
 3131               	/* frame size = 0 */
 3132               	.LBB471:
 3133               	.LBB472:
 3134               	.LBB473:
 3135               	.LBB474:
 3136               	.LM321:
 3137 0ee8 E091 0000 		lds r30,Timebase
 3138 0eec F091 0000 		lds r31,(Timebase)+1
 3139 0ef0 90E0      		ldi r25,lo8(0)
 3140 0ef2 9C01      		movw r18,r24
 3141               	.LVL180:
 3142 0ef4 A4E0      		ldi r26,4
 3143 0ef6 220F      	1:	lsl r18
 3144 0ef8 331F      		rol r19
 3145 0efa AA95      		dec r26
 3146 0efc 01F4      		brne 1b
 3147 0efe 280F      		add r18,r24
 3148 0f00 391F      		adc r19,r25
 3149 0f02 E20F      		add r30,r18
 3150 0f04 F31F      		adc r31,r19
 3151 0f06 158E      		std Z+29,__zero_reg__
 3152 0f08 168E      		std Z+30,__zero_reg__
 3153 0f0a 178E      		std Z+31,__zero_reg__
 3154 0f0c 10A2      		std Z+32,__zero_reg__
 3155               	.LBE474:
 3156               	.LBE473:
 3157               	.LBB475:
 3158               	.LBB476:
 3159               	.LM322:
 3160 0f0e 118E      		std Z+25,__zero_reg__
 3161 0f10 128E      		std Z+26,__zero_reg__
 3162 0f12 138E      		std Z+27,__zero_reg__
 3163 0f14 148E      		std Z+28,__zero_reg__
 3164               	.LBE476:
 3165               	.LBE475:
 3166               	.LBB477:
 3167               	.LBB478:
 3168               	.LM323:
 3169 0f16 11A2      		std Z+33,__zero_reg__
 3170 0f18 12A2      		std Z+34,__zero_reg__
 3171 0f1a 13A2      		std Z+35,__zero_reg__
 3172 0f1c 14A2      		std Z+36,__zero_reg__
 3173               	.LBE478:
 3174               	.LBE477:
 3175               	.LBB479:
 3176               	.LBB480:
 3177               	.LM324:
 3178 0f1e 808D      		ldd r24,Z+24
 3179               	.LBE480:
 3180               	.LBE479:
 3181               	.LBB481:
 3182               	.LBB482:
 3183               	.LM325:
 3184 0f20 807E      		andi r24,lo8(-32)
 3185 0f22 808F      		std Z+24,r24
 3186               	/* epilogue start */
 3187               	.LBE482:
 3188               	.LBE481:
 3189               	.LBE472:
 3190               	.LBE471:
 3191               	.LM326:
 3192 0f24 0895      		ret
 3193               	.LFE63:
 3195               	.global	Timebase_DownCounter_SS_Start
 3197               	Timebase_DownCounter_SS_Start:
 3198               	.LFB64:
 3199               	.LM327:
 3200               	.LVL181:
 3201               	/* prologue: function */
 3202               	/* frame size = 0 */
 3203               	.LBB483:
 3204               	.LBB484:
 3205               	.LM328:
 3206 0f26 E091 0000 		lds r30,Timebase
 3207 0f2a F091 0000 		lds r31,(Timebase)+1
 3208 0f2e 90E0      		ldi r25,lo8(0)
 3209               	.LBE484:
 3210               	.LBE483:
 3211               	.LM329:
 3212 0f30 9C01      		movw r18,r24
 3213               	.LVL182:
 3214 0f32 B4E0      		ldi r27,4
 3215 0f34 220F      	1:	lsl r18
 3216 0f36 331F      		rol r19
 3217 0f38 BA95      		dec r27
 3218 0f3a 01F4      		brne 1b
 3219 0f3c 280F      		add r18,r24
 3220 0f3e 391F      		adc r19,r25
 3221 0f40 E20F      		add r30,r18
 3222 0f42 F31F      		adc r31,r19
 3223 0f44 908D      		ldd r25,Z+24
 3224 0f46 892F      		mov r24,r25
 3225 0f48 8695      		lsr r24
 3226 0f4a 8F70      		andi r24,lo8(15)
 3227 0f4c 8130      		cpi r24,lo8(1)
 3228 0f4e 01F0      		breq .L177
 3229               	.LBB485:
 3230               	.LBB486:
 3231               	.LM330:
 3232 0f50 917E      		andi r25,lo8(-31)
 3233 0f52 9260      		ori r25,lo8(2)
 3234 0f54 908F      		std Z+24,r25
 3235               	.L177:
 3236 0f56 0895      		ret
 3237               	.LBE486:
 3238               	.LBE485:
 3239               	.LFE64:
 3241               	.global	Timebase_DownCounter_SS_Stop
 3243               	Timebase_DownCounter_SS_Stop:
 3244               	.LFB65:
 3245               	.LM331:
 3246               	.LVL183:
 3247               	/* prologue: function */
 3248               	/* frame size = 0 */
 3249               	.LBB487:
 3250               	.LBB488:
 3251               	.LM332:
 3252 0f58 E091 0000 		lds r30,Timebase
 3253 0f5c F091 0000 		lds r31,(Timebase)+1
 3254 0f60 90E0      		ldi r25,lo8(0)
 3255               	.LBE488:
 3256               	.LBE487:
 3257               	.LM333:
 3258 0f62 9C01      		movw r18,r24
 3259               	.LVL184:
 3260 0f64 44E0      		ldi r20,4
 3261 0f66 220F      	1:	lsl r18
 3262 0f68 331F      		rol r19
 3263 0f6a 4A95      		dec r20
 3264 0f6c 01F4      		brne 1b
 3265 0f6e 280F      		add r18,r24
 3266 0f70 391F      		adc r19,r25
 3267 0f72 E20F      		add r30,r18
 3268 0f74 F31F      		adc r31,r19
 3269 0f76 908D      		ldd r25,Z+24
 3270 0f78 892F      		mov r24,r25
 3271 0f7a 8695      		lsr r24
 3272 0f7c 8F70      		andi r24,lo8(15)
 3273 0f7e 8230      		cpi r24,lo8(2)
 3274 0f80 01F0      		breq .L180
 3275               	.LBB489:
 3276               	.LBB490:
 3277               	.LM334:
 3278 0f82 917E      		andi r25,lo8(-31)
 3279 0f84 9460      		ori r25,lo8(4)
 3280 0f86 908F      		std Z+24,r25
 3281               	.L180:
 3282 0f88 0895      		ret
 3283               	.LBE490:
 3284               	.LBE489:
 3285               	.LFE65:
 3287               	.global	Timebase_DownCounter_SS_Set_Securely
 3289               	Timebase_DownCounter_SS_Set_Securely:
 3290               	.LFB66:
 3291               	.LM335:
 3292               	.LVL185:
 3293 0f8a 2F92      		push r2
 3294 0f8c 3F92      		push r3
 3295 0f8e 4F92      		push r4
 3296 0f90 5F92      		push r5
 3297 0f92 6F92      		push r6
 3298 0f94 7F92      		push r7
 3299 0f96 8F92      		push r8
 3300 0f98 9F92      		push r9
 3301 0f9a AF92      		push r10
 3302 0f9c BF92      		push r11
 3303 0f9e CF92      		push r12
 3304 0fa0 DF92      		push r13
 3305 0fa2 EF92      		push r14
 3306 0fa4 FF92      		push r15
 3307 0fa6 0F93      		push r16
 3308 0fa8 1F93      		push r17
 3309 0faa DF93      		push r29
 3310 0fac CF93      		push r28
 3311 0fae 00D0      		rcall .
 3312 0fb0 00D0      		rcall .
 3313 0fb2 CDB7      		in r28,__SP_L__
 3314 0fb4 DEB7      		in r29,__SP_H__
 3315               	/* prologue: function */
 3316               	/* frame size = 4 */
 3317 0fb6 4A01      		movw r8,r20
 3318 0fb8 5B01      		movw r10,r22
 3319               	.LBB491:
 3320               	.LBB492:
 3321               	.LM336:
 3322 0fba 2091 0000 		lds r18,Timebase
 3323 0fbe 3091 0000 		lds r19,(Timebase)+1
 3324 0fc2 3C83      		std Y+4,r19
 3325 0fc4 2B83      		std Y+3,r18
 3326 0fc6 A82F      		mov r26,r24
 3327 0fc8 B0E0      		ldi r27,lo8(0)
 3328 0fca BA83      		std Y+2,r27
 3329 0fcc A983      		std Y+1,r26
 3330               	.LBE492:
 3331               	.LBE491:
 3332               	.LM337:
 3333 0fce FD01      		movw r30,r26
 3334 0fd0 64E0      		ldi r22,4
 3335 0fd2 EE0F      	1:	lsl r30
 3336 0fd4 FF1F      		rol r31
 3337 0fd6 6A95      		dec r22
 3338 0fd8 01F4      		brne 1b
 3339 0fda EA0F      		add r30,r26
 3340 0fdc FB1F      		adc r31,r27
 3341 0fde E20F      		add r30,r18
 3342 0fe0 F31F      		adc r31,r19
 3343 0fe2 808D      		ldd r24,Z+24
 3344               	.LVL186:
 3345 0fe4 8695      		lsr r24
 3346 0fe6 8F70      		andi r24,lo8(15)
 3347 0fe8 01F0      		breq .+2
 3348 0fea 00C0      		rjmp .L184
 3349               	.LVL187:
 3350               	.LBB493:
 3351               	.LBB494:
 3352               	.LBB495:
 3353               	.LM338:
 3354 0fec 81A2      		std Z+33,r8
 3355 0fee 92A2      		std Z+34,r9
 3356 0ff0 A3A2      		std Z+35,r10
 3357 0ff2 B4A2      		std Z+36,r11
 3358               	.LBE495:
 3359               	.LBE494:
 3360               	.LBB496:
 3361               	.LBB497:
 3362               	.LM339:
 3363 0ff4 F901      		movw r30,r18
 3364 0ff6 C084      		ldd r12,Z+8
 3365 0ff8 D184      		ldd r13,Z+9
 3366               	.LBE497:
 3367               	.LBE496:
 3368               	.LBB498:
 3369               	.LBB499:
 3370               	.LM340:
 3371 0ffa 2284      		ldd r2,Z+10
 3372 0ffc 3384      		ldd r3,Z+11
 3373 0ffe 4484      		ldd r4,Z+12
 3374 1000 5584      		ldd r5,Z+13
 3375               	.LVL188:
 3376               	.LBE499:
 3377               	.LBE498:
 3378               	.LM341:
 3379 1002 2181      		ldd r18,Z+1
 3380 1004 3281      		ldd r19,Z+2
 3381 1006 40E0      		ldi r20,lo8(0)
 3382 1008 50E0      		ldi r21,hi8(0)
 3383 100a C501      		movw r24,r10
 3384 100c B401      		movw r22,r8
 3385 100e 0E94 0000 		call __divmodsi4
 3386 1012 7B01      		movw r14,r22
 3387 1014 8C01      		movw r16,r24
 3388               	.LM342:
 3389 1016 AB81      		ldd r26,Y+3
 3390 1018 BC81      		ldd r27,Y+4
 3391 101a 1196      		adiw r26,1
 3392 101c 2D91      		ld r18,X+
 3393 101e 3C91      		ld r19,X
 3394 1020 1297      		sbiw r26,1+1
 3395 1022 40E0      		ldi r20,lo8(0)
 3396 1024 50E0      		ldi r21,hi8(0)
 3397 1026 C501      		movw r24,r10
 3398 1028 B401      		movw r22,r8
 3399 102a 0E94 0000 		call __divmodsi4
 3400 102e C901      		movw r24,r18
 3401 1030 DA01      		movw r26,r20
 3402 1032 3C01      		movw r6,r24
 3403 1034 4D01      		movw r8,r26
 3404               	.LVL189:
 3405               	.LM343:
 3406 1036 5601      		movw r10,r12
 3407               	.LVL190:
 3408 1038 CC24      		clr r12
 3409 103a DD24      		clr r13
 3410               	.LVL191:
 3411 103c AE0C      		add r10,r14
 3412 103e BF1C      		adc r11,r15
 3413 1040 C01E      		adc r12,r16
 3414 1042 D11E      		adc r13,r17
 3415               	.LVL192:
 3416               	.LM344:
 3417 1044 EB81      		ldd r30,Y+3
 3418 1046 FC81      		ldd r31,Y+4
 3419 1048 8181      		ldd r24,Z+1
 3420 104a 9281      		ldd r25,Z+2
 3421               	.LVL193:
 3422 104c A0E0      		ldi r26,lo8(0)
 3423 104e B0E0      		ldi r27,hi8(0)
 3424 1050 A816      		cp r10,r24
 3425 1052 B906      		cpc r11,r25
 3426 1054 CA06      		cpc r12,r26
 3427 1056 DB06      		cpc r13,r27
 3428 1058 04F0      		brlt .L183
 3429               	.LM345:
 3430 105a 0894      		sec
 3431 105c 611C      		adc r6,__zero_reg__
 3432 105e 711C      		adc r7,__zero_reg__
 3433 1060 811C      		adc r8,__zero_reg__
 3434 1062 911C      		adc r9,__zero_reg__
 3435               	.LM346:
 3436 1064 2181      		ldd r18,Z+1
 3437 1066 3281      		ldd r19,Z+2
 3438 1068 40E0      		ldi r20,lo8(0)
 3439 106a 50E0      		ldi r21,hi8(0)
 3440 106c C601      		movw r24,r12
 3441 106e B501      		movw r22,r10
 3442 1070 0E94 0000 		call __divmodsi4
 3443 1074 AC01      		movw r20,r24
 3444 1076 CB01      		movw r24,r22
 3445 1078 DA01      		movw r26,r20
 3446 107a 5C01      		movw r10,r24
 3447 107c 6D01      		movw r12,r26
 3448               	.L183:
 3449               	.LBB500:
 3450               	.LBB501:
 3451               	.LM347:
 3452 107e E981      		ldd r30,Y+1
 3453 1080 FA81      		ldd r31,Y+2
 3454 1082 54E0      		ldi r21,4
 3455 1084 EE0F      	1:	lsl r30
 3456 1086 FF1F      		rol r31
 3457 1088 5A95      		dec r21
 3458 108a 01F4      		brne 1b
 3459 108c 2981      		ldd r18,Y+1
 3460 108e 3A81      		ldd r19,Y+2
 3461 1090 E20F      		add r30,r18
 3462 1092 F31F      		adc r31,r19
 3463 1094 8B81      		ldd r24,Y+3
 3464 1096 9C81      		ldd r25,Y+4
 3465 1098 E80F      		add r30,r24
 3466 109a F91F      		adc r31,r25
 3467 109c 260C      		add r2,r6
 3468 109e 371C      		adc r3,r7
 3469 10a0 481C      		adc r4,r8
 3470 10a2 591C      		adc r5,r9
 3471 10a4 218E      		std Z+25,r2
 3472 10a6 328E      		std Z+26,r3
 3473 10a8 438E      		std Z+27,r4
 3474 10aa 548E      		std Z+28,r5
 3475               	.LBE501:
 3476               	.LBE500:
 3477               	.LBB502:
 3478               	.LBB503:
 3479               	.LM348:
 3480 10ac A58E      		std Z+29,r10
 3481 10ae B68E      		std Z+30,r11
 3482 10b0 C78E      		std Z+31,r12
 3483 10b2 D0A2      		std Z+32,r13
 3484               	.LBE503:
 3485               	.LBE502:
 3486               	.LBB504:
 3487               	.LBB505:
 3488               	.LM349:
 3489 10b4 908D      		ldd r25,Z+24
 3490 10b6 892F      		mov r24,r25
 3491 10b8 8695      		lsr r24
 3492 10ba 8F70      		andi r24,lo8(15)
 3493 10bc 8130      		cpi r24,lo8(1)
 3494 10be 01F0      		breq .L184
 3495               	.LBB506:
 3496               	.LBB507:
 3497               	.LM350:
 3498 10c0 917E      		andi r25,lo8(-31)
 3499 10c2 9260      		ori r25,lo8(2)
 3500 10c4 908F      		std Z+24,r25
 3501               	.LVL194:
 3502               	.L184:
 3503               	/* epilogue start */
 3504               	.LBE507:
 3505               	.LBE506:
 3506               	.LBE505:
 3507               	.LBE504:
 3508               	.LBE493:
 3509               	.LM351:
 3510 10c6 0F90      		pop __tmp_reg__
 3511 10c8 0F90      		pop __tmp_reg__
 3512 10ca 0F90      		pop __tmp_reg__
 3513 10cc 0F90      		pop __tmp_reg__
 3514 10ce CF91      		pop r28
 3515 10d0 DF91      		pop r29
 3516 10d2 1F91      		pop r17
 3517 10d4 0F91      		pop r16
 3518 10d6 FF90      		pop r15
 3519 10d8 EF90      		pop r14
 3520 10da DF90      		pop r13
 3521 10dc CF90      		pop r12
 3522               	.LVL195:
 3523 10de BF90      		pop r11
 3524 10e0 AF90      		pop r10
 3525               	.LVL196:
 3526 10e2 9F90      		pop r9
 3527 10e4 8F90      		pop r8
 3528               	.LVL197:
 3529 10e6 7F90      		pop r7
 3530 10e8 6F90      		pop r6
 3531               	.LVL198:
 3532 10ea 5F90      		pop r5
 3533 10ec 4F90      		pop r4
 3534 10ee 3F90      		pop r3
 3535 10f0 2F90      		pop r2
 3536               	.LVL199:
 3537 10f2 0895      		ret
 3538               	.LFE66:
 3540               	.global	Timebase_DownCounter_SS_Set_Forcefully
 3542               	Timebase_DownCounter_SS_Set_Forcefully:
 3543               	.LFB67:
 3544               	.LM352:
 3545               	.LVL200:
 3546               	/* prologue: function */
 3547               	/* frame size = 0 */
 3548               	.LBB508:
 3549               	.LBB509:
 3550               	.LBB510:
 3551               	.LBB511:
 3552               	.LM353:
 3553 10f4 E091 0000 		lds r30,Timebase
 3554 10f8 F091 0000 		lds r31,(Timebase)+1
 3555 10fc A82F      		mov r26,r24
 3556 10fe B0E0      		ldi r27,lo8(0)
 3557 1100 9D01      		movw r18,r26
 3558 1102 94E0      		ldi r25,4
 3559 1104 220F      	1:	lsl r18
 3560 1106 331F      		rol r19
 3561 1108 9A95      		dec r25
 3562 110a 01F4      		brne 1b
 3563 110c 2A0F      		add r18,r26
 3564 110e 3B1F      		adc r19,r27
 3565 1110 E20F      		add r30,r18
 3566 1112 F31F      		adc r31,r19
 3567 1114 158E      		std Z+29,__zero_reg__
 3568 1116 168E      		std Z+30,__zero_reg__
 3569 1118 178E      		std Z+31,__zero_reg__
 3570 111a 10A2      		std Z+32,__zero_reg__
 3571               	.LBE511:
 3572               	.LBE510:
 3573               	.LBB512:
 3574               	.LBB513:
 3575               	.LM354:
 3576 111c 118E      		std Z+25,__zero_reg__
 3577 111e 128E      		std Z+26,__zero_reg__
 3578 1120 138E      		std Z+27,__zero_reg__
 3579 1122 148E      		std Z+28,__zero_reg__
 3580               	.LBE513:
 3581               	.LBE512:
 3582               	.LBB514:
 3583               	.LBB515:
 3584               	.LM355:
 3585 1124 11A2      		std Z+33,__zero_reg__
 3586 1126 12A2      		std Z+34,__zero_reg__
 3587 1128 13A2      		std Z+35,__zero_reg__
 3588 112a 14A2      		std Z+36,__zero_reg__
 3589               	.LBE515:
 3590               	.LBE514:
 3591               	.LBB516:
 3592               	.LBB517:
 3593               	.LM356:
 3594 112c 908D      		ldd r25,Z+24
 3595               	.LBE517:
 3596               	.LBE516:
 3597               	.LBB518:
 3598               	.LBB519:
 3599               	.LM357:
 3600 112e 907E      		andi r25,lo8(-32)
 3601 1130 908F      		std Z+24,r25
 3602               	.LBE519:
 3603               	.LBE518:
 3604               	.LBE509:
 3605               	.LBE508:
 3606               	.LM358:
 3607 1132 0E94 0000 		call Timebase_DownCounter_SS_Set_Securely
 3608               	.LVL201:
 3609               	/* epilogue start */
 3610               	.LM359:
 3611 1136 0895      		ret
 3612               	.LFE67:
 3614               	.global	Timebase_DownCounter_SS_Update
 3616               	Timebase_DownCounter_SS_Update:
 3617               	.LFB68:
 3618               	.LM360:
 3619               	.LVL202:
 3620 1138 2F92      		push r2
 3621 113a 3F92      		push r3
 3622 113c 4F92      		push r4
 3623 113e 5F92      		push r5
 3624 1140 6F92      		push r6
 3625 1142 7F92      		push r7
 3626 1144 8F92      		push r8
 3627 1146 9F92      		push r9
 3628 1148 AF92      		push r10
 3629 114a BF92      		push r11
 3630 114c CF92      		push r12
 3631 114e DF92      		push r13
 3632 1150 EF92      		push r14
 3633 1152 FF92      		push r15
 3634 1154 0F93      		push r16
 3635 1156 1F93      		push r17
 3636 1158 DF93      		push r29
 3637 115a CF93      		push r28
 3638 115c 00D0      		rcall .
 3639 115e 00D0      		rcall .
 3640 1160 CDB7      		in r28,__SP_L__
 3641 1162 DEB7      		in r29,__SP_H__
 3642               	/* prologue: function */
 3643               	/* frame size = 4 */
 3644               	.LBB520:
 3645               	.LBB521:
 3646               	.LM361:
 3647 1164 2091 0000 		lds r18,Timebase
 3648 1168 3091 0000 		lds r19,(Timebase)+1
 3649 116c 3C83      		std Y+4,r19
 3650 116e 2B83      		std Y+3,r18
 3651 1170 C82E      		mov r12,r24
 3652 1172 DD24      		clr r13
 3653 1174 C601      		movw r24,r12
 3654               	.LVL203:
 3655 1176 44E0      		ldi r20,4
 3656 1178 880F      	1:	lsl r24
 3657 117a 991F      		rol r25
 3658 117c 4A95      		dec r20
 3659 117e 01F4      		brne 1b
 3660 1180 8C0D      		add r24,r12
 3661 1182 9D1D      		adc r25,r13
 3662 1184 820F      		add r24,r18
 3663 1186 931F      		adc r25,r19
 3664 1188 9A83      		std Y+2,r25
 3665 118a 8983      		std Y+1,r24
 3666 118c FC01      		movw r30,r24
 3667 118e 808D      		ldd r24,Z+24
 3668 1190 8695      		lsr r24
 3669 1192 8F70      		andi r24,lo8(15)
 3670               	.LBE521:
 3671               	.LBE520:
 3672               	.LM362:
 3673 1194 8130      		cpi r24,lo8(1)
 3674 1196 01F0      		breq .+2
 3675 1198 00C0      		rjmp .L188
 3676               	.LBB522:
 3677               	.LBB523:
 3678               	.LBB524:
 3679               	.LM363:
 3680 119a F901      		movw r30,r18
 3681 119c 8085      		ldd r24,Z+8
 3682 119e 9185      		ldd r25,Z+9
 3683               	.LBE524:
 3684               	.LBE523:
 3685               	.LM364:
 3686 11a0 4C01      		movw r8,r24
 3687               	.LVL204:
 3688 11a2 AA24      		clr r10
 3689 11a4 BB24      		clr r11
 3690               	.LVL205:
 3691               	.LBB525:
 3692               	.LBB526:
 3693               	.LM365:
 3694 11a6 8285      		ldd r24,Z+10
 3695 11a8 9385      		ldd r25,Z+11
 3696 11aa A485      		ldd r26,Z+12
 3697 11ac B585      		ldd r27,Z+13
 3698               	.LVL206:
 3699               	.LBE526:
 3700               	.LBE525:
 3701               	.LM366:
 3702 11ae E981      		ldd r30,Y+1
 3703 11b0 FA81      		ldd r31,Y+2
 3704 11b2 E18C      		ldd r14,Z+25
 3705 11b4 F28C      		ldd r15,Z+26
 3706 11b6 038D      		ldd r16,Z+27
 3707 11b8 148D      		ldd r17,Z+28
 3708               	.LVL207:
 3709 11ba E81A      		sub r14,r24
 3710 11bc F90A      		sbc r15,r25
 3711 11be 0A0B      		sbc r16,r26
 3712 11c0 1B0B      		sbc r17,r27
 3713 11c2 17FF      		sbrs r17,7
 3714 11c4 00C0      		rjmp .L189
 3715 11c6 EE24      		clr r14
 3716 11c8 FF24      		clr r15
 3717 11ca 8701      		movw r16,r14
 3718               	.L189:
 3719               	.LM367:
 3720 11cc EB81      		ldd r30,Y+3
 3721 11ce FC81      		ldd r31,Y+4
 3722 11d0 2181      		ldd r18,Z+1
 3723 11d2 3281      		ldd r19,Z+2
 3724 11d4 40E0      		ldi r20,lo8(0)
 3725 11d6 50E0      		ldi r21,hi8(0)
 3726 11d8 C801      		movw r24,r16
 3727 11da B701      		movw r22,r14
 3728 11dc 0E94 0000 		call __mulsi3
 3729               	.LM368:
 3730 11e0 F601      		movw r30,r12
 3731 11e2 24E0      		ldi r18,4
 3732 11e4 EE0F      	1:	lsl r30
 3733 11e6 FF1F      		rol r31
 3734 11e8 2A95      		dec r18
 3735 11ea 01F4      		brne 1b
 3736 11ec EC0D      		add r30,r12
 3737 11ee FD1D      		adc r31,r13
 3738 11f0 2B81      		ldd r18,Y+3
 3739 11f2 3C81      		ldd r19,Y+4
 3740 11f4 E20F      		add r30,r18
 3741 11f6 F31F      		adc r31,r19
 3742 11f8 258D      		ldd r18,Z+29
 3743 11fa 368D      		ldd r19,Z+30
 3744 11fc 478D      		ldd r20,Z+31
 3745 11fe 50A1      		ldd r21,Z+32
 3746               	.LVL208:
 3747 1200 2819      		sub r18,r8
 3748 1202 3909      		sbc r19,r9
 3749 1204 4A09      		sbc r20,r10
 3750 1206 5B09      		sbc r21,r11
 3751 1208 260F      		add r18,r22
 3752 120a 371F      		adc r19,r23
 3753 120c 481F      		adc r20,r24
 3754 120e 591F      		adc r21,r25
 3755               	.LBB527:
 3756               	.LBB528:
 3757               	.LM369:
 3758 1210 21A3      		std Z+33,r18
 3759 1212 32A3      		std Z+34,r19
 3760 1214 43A3      		std Z+35,r20
 3761 1216 54A3      		std Z+36,r21
 3762               	.LBE528:
 3763               	.LBE527:
 3764               	.LM370:
 3765 1218 1216      		cp __zero_reg__,r18
 3766 121a 1306      		cpc __zero_reg__,r19
 3767 121c 1406      		cpc __zero_reg__,r20
 3768 121e 1506      		cpc __zero_reg__,r21
 3769 1220 04F4      		brge .+2
 3770 1222 00C0      		rjmp .L191
 3771               	.LBB529:
 3772               	.LBB530:
 3773               	.LBB531:
 3774               	.LBB532:
 3775               	.LM371:
 3776 1224 158E      		std Z+29,__zero_reg__
 3777 1226 168E      		std Z+30,__zero_reg__
 3778 1228 178E      		std Z+31,__zero_reg__
 3779 122a 10A2      		std Z+32,__zero_reg__
 3780               	.LBE532:
 3781               	.LBE531:
 3782               	.LBB533:
 3783               	.LBB534:
 3784               	.LM372:
 3785 122c 118E      		std Z+25,__zero_reg__
 3786 122e 128E      		std Z+26,__zero_reg__
 3787 1230 138E      		std Z+27,__zero_reg__
 3788 1232 148E      		std Z+28,__zero_reg__
 3789               	.LBE534:
 3790               	.LBE533:
 3791               	.LBB535:
 3792               	.LBB536:
 3793               	.LM373:
 3794 1234 11A2      		std Z+33,__zero_reg__
 3795 1236 12A2      		std Z+34,__zero_reg__
 3796 1238 13A2      		std Z+35,__zero_reg__
 3797 123a 14A2      		std Z+36,__zero_reg__
 3798               	.LBE536:
 3799               	.LBE535:
 3800               	.LBB537:
 3801               	.LBB538:
 3802               	.LM374:
 3803 123c 808D      		ldd r24,Z+24
 3804               	.LBE538:
 3805               	.LBE537:
 3806               	.LBE530:
 3807               	.LBE529:
 3808               	.LBB539:
 3809               	.LBB540:
 3810               	.LM375:
 3811 123e 807E      		andi r24,lo8(-32)
 3812 1240 8860      		ori r24,lo8(8)
 3813 1242 808F      		std Z+24,r24
 3814 1244 00C0      		rjmp .L191
 3815               	.LVL209:
 3816               	.L188:
 3817               	.LBE540:
 3818               	.LBE539:
 3819               	.LBE522:
 3820               	.LM376:
 3821 1246 8230      		cpi r24,lo8(2)
 3822 1248 01F4      		brne .L191
 3823               	.LBB541:
 3824               	.LBB542:
 3825               	.LBB543:
 3826               	.LM377:
 3827 124a EB81      		ldd r30,Y+3
 3828 124c FC81      		ldd r31,Y+4
 3829 124e 6084      		ldd r6,Z+8
 3830 1250 7184      		ldd r7,Z+9
 3831               	.LBE543:
 3832               	.LBE542:
 3833               	.LBB544:
 3834               	.LBB545:
 3835               	.LM378:
 3836 1252 E284      		ldd r14,Z+10
 3837 1254 F384      		ldd r15,Z+11
 3838 1256 0485      		ldd r16,Z+12
 3839 1258 1585      		ldd r17,Z+13
 3840               	.LVL210:
 3841               	.LBE545:
 3842               	.LBE544:
 3843               	.LBB546:
 3844               	.LBB547:
 3845               	.LM379:
 3846 125a E981      		ldd r30,Y+1
 3847 125c FA81      		ldd r31,Y+2
 3848 125e 21A0      		ldd r2,Z+33
 3849 1260 32A0      		ldd r3,Z+34
 3850 1262 43A0      		ldd r4,Z+35
 3851 1264 54A0      		ldd r5,Z+36
 3852               	.LVL211:
 3853               	.LBE547:
 3854               	.LBE546:
 3855               	.LM380:
 3856 1266 EB81      		ldd r30,Y+3
 3857 1268 FC81      		ldd r31,Y+4
 3858 126a 2181      		ldd r18,Z+1
 3859 126c 3281      		ldd r19,Z+2
 3860               	.LM381:
 3861 126e A180      		ldd r10,Z+1
 3862 1270 B280      		ldd r11,Z+2
 3863               	.LBB548:
 3864               	.LBB549:
 3865               	.LM382:
 3866 1272 40E0      		ldi r20,lo8(0)
 3867 1274 50E0      		ldi r21,hi8(0)
 3868 1276 C201      		movw r24,r4
 3869 1278 B101      		movw r22,r2
 3870 127a 0E94 0000 		call __divmodsi4
 3871 127e E20E      		add r14,r18
 3872 1280 F31E      		adc r15,r19
 3873 1282 041F      		adc r16,r20
 3874 1284 151F      		adc r17,r21
 3875 1286 E981      		ldd r30,Y+1
 3876 1288 FA81      		ldd r31,Y+2
 3877 128a E18E      		std Z+25,r14
 3878 128c F28E      		std Z+26,r15
 3879 128e 038F      		std Z+27,r16
 3880 1290 148F      		std Z+28,r17
 3881               	.LBE549:
 3882               	.LBE548:
 3883               	.LBB550:
 3884               	.LBB551:
 3885               	.LM383:
 3886 1292 CC24      		clr r12
 3887 1294 DD24      		clr r13
 3888 1296 C201      		movw r24,r4
 3889 1298 B101      		movw r22,r2
 3890 129a A601      		movw r20,r12
 3891 129c 9501      		movw r18,r10
 3892 129e 0E94 0000 		call __divmodsi4
 3893 12a2 8824      		clr r8
 3894 12a4 9924      		clr r9
 3895 12a6 660E      		add r6,r22
 3896 12a8 771E      		adc r7,r23
 3897 12aa 881E      		adc r8,r24
 3898 12ac 991E      		adc r9,r25
 3899 12ae E981      		ldd r30,Y+1
 3900 12b0 FA81      		ldd r31,Y+2
 3901 12b2 658E      		std Z+29,r6
 3902 12b4 768E      		std Z+30,r7
 3903 12b6 878E      		std Z+31,r8
 3904 12b8 90A2      		std Z+32,r9
 3905               	.LVL212:
 3906               	.L191:
 3907               	/* epilogue start */
 3908               	.LBE551:
 3909               	.LBE550:
 3910               	.LBE541:
 3911               	.LM384:
 3912 12ba 0F90      		pop __tmp_reg__
 3913 12bc 0F90      		pop __tmp_reg__
 3914 12be 0F90      		pop __tmp_reg__
 3915 12c0 0F90      		pop __tmp_reg__
 3916 12c2 CF91      		pop r28
 3917 12c4 DF91      		pop r29
 3918 12c6 1F91      		pop r17
 3919 12c8 0F91      		pop r16
 3920 12ca FF90      		pop r15
 3921 12cc EF90      		pop r14
 3922               	.LVL213:
 3923 12ce DF90      		pop r13
 3924 12d0 CF90      		pop r12
 3925 12d2 BF90      		pop r11
 3926 12d4 AF90      		pop r10
 3927               	.LVL214:
 3928 12d6 9F90      		pop r9
 3929 12d8 8F90      		pop r8
 3930               	.LVL215:
 3931 12da 7F90      		pop r7
 3932 12dc 6F90      		pop r6
 3933 12de 5F90      		pop r5
 3934 12e0 4F90      		pop r4
 3935 12e2 3F90      		pop r3
 3936 12e4 2F90      		pop r2
 3937               	.LVL216:
 3938 12e6 0895      		ret
 3939               	.LFE68:
 3941               	.global	Timebase_DownCounter_SS_Expired
 3943               	Timebase_DownCounter_SS_Expired:
 3944               	.LFB69:
 3945               	.LM385:
 3946               	.LVL217:
 3947               	/* prologue: function */
 3948               	/* frame size = 0 */
 3949               	.LM386:
 3950 12e8 40E0      		ldi r20,lo8(0)
 3951 12ea E091 0000 		lds r30,Timebase
 3952 12ee F091 0000 		lds r31,(Timebase)+1
 3953 12f2 90E0      		ldi r25,lo8(0)
 3954               	.LVL218:
 3955 12f4 9C01      		movw r18,r24
 3956 12f6 54E0      		ldi r21,4
 3957 12f8 220F      	1:	lsl r18
 3958 12fa 331F      		rol r19
 3959 12fc 5A95      		dec r21
 3960 12fe 01F4      		brne 1b
 3961 1300 280F      		add r18,r24
 3962 1302 391F      		adc r19,r25
 3963 1304 E20F      		add r30,r18
 3964 1306 F31F      		adc r31,r19
 3965 1308 808D      		ldd r24,Z+24
 3966               	.LVL219:
 3967 130a 8695      		lsr r24
 3968 130c 8F70      		andi r24,lo8(15)
 3969 130e 8430      		cpi r24,lo8(4)
 3970 1310 01F4      		brne .L193
 3971 1312 41E0      		ldi r20,lo8(1)
 3972               	.L193:
 3973               	.LM387:
 3974 1314 842F      		mov r24,r20
 3975               	/* epilogue start */
 3976 1316 0895      		ret
 3977               	.LFE69:
 3979               	.global	Timebase_DownCounter_SS_Expired_Event
 3981               	Timebase_DownCounter_SS_Expired_Event:
 3982               	.LFB70:
 3983               	.LM388:
 3984               	.LVL220:
 3985               	/* prologue: function */
 3986               	/* frame size = 0 */
 3987               	.LBB552:
 3988               	.LBB553:
 3989               	.LM389:
 3990 1318 E091 0000 		lds r30,Timebase
 3991 131c F091 0000 		lds r31,(Timebase)+1
 3992 1320 90E0      		ldi r25,lo8(0)
 3993               	.LBE553:
 3994               	.LBE552:
 3995               	.LM390:
 3996 1322 9C01      		movw r18,r24
 3997               	.LVL221:
 3998 1324 64E0      		ldi r22,4
 3999 1326 220F      	1:	lsl r18
 4000 1328 331F      		rol r19
 4001 132a 6A95      		dec r22
 4002 132c 01F4      		brne 1b
 4003 132e 280F      		add r18,r24
 4004 1330 391F      		adc r19,r25
 4005 1332 E20F      		add r30,r18
 4006 1334 F31F      		adc r31,r19
 4007 1336 808D      		ldd r24,Z+24
 4008 1338 8695      		lsr r24
 4009 133a 8F70      		andi r24,lo8(15)
 4010 133c 8430      		cpi r24,lo8(4)
 4011 133e 01F0      		breq .L196
 4012 1340 80E0      		ldi r24,lo8(0)
 4013 1342 0895      		ret
 4014               	.L196:
 4015               	.LBB554:
 4016               	.LBB555:
 4017               	.LBB556:
 4018               	.LBB557:
 4019               	.LBB558:
 4020               	.LBB559:
 4021               	.LM391:
 4022 1344 158E      		std Z+29,__zero_reg__
 4023 1346 168E      		std Z+30,__zero_reg__
 4024 1348 178E      		std Z+31,__zero_reg__
 4025 134a 10A2      		std Z+32,__zero_reg__
 4026               	.LBE559:
 4027               	.LBE558:
 4028               	.LBB560:
 4029               	.LBB561:
 4030               	.LM392:
 4031 134c 118E      		std Z+25,__zero_reg__
 4032 134e 128E      		std Z+26,__zero_reg__
 4033 1350 138E      		std Z+27,__zero_reg__
 4034 1352 148E      		std Z+28,__zero_reg__
 4035               	.LBE561:
 4036               	.LBE560:
 4037               	.LBB562:
 4038               	.LBB563:
 4039               	.LM393:
 4040 1354 11A2      		std Z+33,__zero_reg__
 4041 1356 12A2      		std Z+34,__zero_reg__
 4042 1358 13A2      		std Z+35,__zero_reg__
 4043 135a 14A2      		std Z+36,__zero_reg__
 4044               	.LBE563:
 4045               	.LBE562:
 4046               	.LBB564:
 4047               	.LBB565:
 4048               	.LM394:
 4049 135c 808D      		ldd r24,Z+24
 4050               	.LBE565:
 4051               	.LBE564:
 4052               	.LBB566:
 4053               	.LBB567:
 4054               	.LM395:
 4055 135e 807E      		andi r24,lo8(-32)
 4056 1360 808F      		std Z+24,r24
 4057 1362 81E0      		ldi r24,lo8(1)
 4058               	.LBE567:
 4059               	.LBE566:
 4060               	.LBE557:
 4061               	.LBE556:
 4062               	.LBE555:
 4063               	.LBE554:
 4064               	.LM396:
 4065 1364 0895      		ret
 4066               	.LFE70:
 4068               	.global	Timebase_DownCounter_SS_Set_Period_Value_Securely
 4070               	Timebase_DownCounter_SS_Set_Period_Value_Securely:
 4071               	.LFB71:
 4072               	.LM397:
 4073               	.LVL222:
 4074 1366 CF93      		push r28
 4075 1368 DF93      		push r29
 4076               	/* prologue: function */
 4077               	/* frame size = 0 */
 4078               	.LBB568:
 4079               	.LBB569:
 4080               	.LM398:
 4081 136a C091 0000 		lds r28,Timebase
 4082 136e D091 0000 		lds r29,(Timebase)+1
 4083 1372 282F      		mov r18,r24
 4084 1374 30E0      		ldi r19,lo8(0)
 4085               	.LBE569:
 4086               	.LBE568:
 4087               	.LM399:
 4088 1376 F901      		movw r30,r18
 4089 1378 A4E0      		ldi r26,4
 4090 137a EE0F      	1:	lsl r30
 4091 137c FF1F      		rol r31
 4092 137e AA95      		dec r26
 4093 1380 01F4      		brne 1b
 4094 1382 E20F      		add r30,r18
 4095 1384 F31F      		adc r31,r19
 4096 1386 EC0F      		add r30,r28
 4097 1388 FD1F      		adc r31,r29
 4098 138a 808D      		ldd r24,Z+24
 4099               	.LVL223:
 4100 138c 80FD      		sbrc r24,0
 4101 138e 00C0      		rjmp .L203
 4102               	.LM400:
 4103 1390 81A1      		ldd r24,Z+33
 4104 1392 92A1      		ldd r25,Z+34
 4105 1394 A3A1      		ldd r26,Z+35
 4106 1396 B4A1      		ldd r27,Z+36
 4107 1398 841B      		sub r24,r20
 4108 139a 950B      		sbc r25,r21
 4109 139c A60B      		sbc r26,r22
 4110 139e B70B      		sbc r27,r23
 4111               	.LBB570:
 4112               	.LBB571:
 4113               	.LM401:
 4114 13a0 B7FF      		sbrs r27,7
 4115 13a2 00C0      		rjmp .L201
 4116               	.LM402:
 4117 13a4 15A2      		std Z+37,__zero_reg__
 4118 13a6 16A2      		std Z+38,__zero_reg__
 4119 13a8 17A2      		std Z+39,__zero_reg__
 4120 13aa 10A6      		std Z+40,__zero_reg__
 4121 13ac 00C0      		rjmp .L202
 4122               	.L201:
 4123               	.LM403:
 4124 13ae 85A3      		std Z+37,r24
 4125 13b0 96A3      		std Z+38,r25
 4126 13b2 A7A3      		std Z+39,r26
 4127 13b4 B0A7      		std Z+40,r27
 4128               	.L202:
 4129               	.LBE571:
 4130               	.LBE570:
 4131               	.LBB572:
 4132               	.LBB573:
 4133               	.LM404:
 4134 13b6 F901      		movw r30,r18
 4135 13b8 74E0      		ldi r23,4
 4136 13ba EE0F      	1:	lsl r30
 4137 13bc FF1F      		rol r31
 4138 13be 7A95      		dec r23
 4139 13c0 01F4      		brne 1b
 4140 13c2 E20F      		add r30,r18
 4141 13c4 F31F      		adc r31,r19
 4142 13c6 EC0F      		add r30,r28
 4143 13c8 FD1F      		adc r31,r29
 4144 13ca 808D      		ldd r24,Z+24
 4145 13cc 8160      		ori r24,lo8(1)
 4146 13ce 808F      		std Z+24,r24
 4147               	.L203:
 4148               	/* epilogue start */
 4149               	.LBE573:
 4150               	.LBE572:
 4151               	.LM405:
 4152 13d0 DF91      		pop r29
 4153 13d2 CF91      		pop r28
 4154 13d4 0895      		ret
 4155               	.LFE71:
 4157               	.global	Timebase_DownCounter_SS_Get_Remaining_Period_Value
 4159               	Timebase_DownCounter_SS_Get_Remaining_Period_Value:
 4160               	.LFB72:
 4161               	.LM406:
 4162               	.LVL224:
 4163               	/* prologue: function */
 4164               	/* frame size = 0 */
 4165               	.LBB574:
 4166               	.LBB575:
 4167               	.LM407:
 4168 13d6 E091 0000 		lds r30,Timebase
 4169 13da F091 0000 		lds r31,(Timebase)+1
 4170 13de 90E0      		ldi r25,lo8(0)
 4171               	.LBE575:
 4172               	.LBE574:
 4173               	.LM408:
 4174 13e0 9C01      		movw r18,r24
 4175               	.LVL225:
 4176 13e2 B4E0      		ldi r27,4
 4177 13e4 220F      	1:	lsl r18
 4178 13e6 331F      		rol r19
 4179 13e8 BA95      		dec r27
 4180 13ea 01F4      		brne 1b
 4181 13ec 280F      		add r18,r24
 4182 13ee 391F      		adc r19,r25
 4183 13f0 E20F      		add r30,r18
 4184 13f2 F31F      		adc r31,r19
 4185 13f4 21A1      		ldd r18,Z+33
 4186 13f6 32A1      		ldd r19,Z+34
 4187 13f8 43A1      		ldd r20,Z+35
 4188 13fa 54A1      		ldd r21,Z+36
 4189               	.LVL226:
 4190 13fc 85A1      		ldd r24,Z+37
 4191 13fe 96A1      		ldd r25,Z+38
 4192 1400 A7A1      		ldd r26,Z+39
 4193 1402 B0A5      		ldd r27,Z+40
 4194 1404 281B      		sub r18,r24
 4195 1406 390B      		sbc r19,r25
 4196 1408 4A0B      		sbc r20,r26
 4197 140a 5B0B      		sbc r21,r27
 4198 140c 57FF      		sbrs r21,7
 4199 140e 00C0      		rjmp .L205
 4200 1410 20E0      		ldi r18,lo8(0)
 4201 1412 30E0      		ldi r19,hi8(0)
 4202 1414 40E0      		ldi r20,hlo8(0)
 4203 1416 50E0      		ldi r21,hhi8(0)
 4204               	.L205:
 4205               	.LM409:
 4206 1418 B901      		movw r22,r18
 4207               	.LVL227:
 4208 141a CA01      		movw r24,r20
 4209               	/* epilogue start */
 4210 141c 0895      		ret
 4211               	.LFE72:
 4213               	.global	Timebase_DownCounter_SS_Period_Value_Expired
 4215               	Timebase_DownCounter_SS_Period_Value_Expired:
 4216               	.LFB73:
 4217               	.LM410:
 4218               	.LVL228:
 4219 141e CF93      		push r28
 4220 1420 DF93      		push r29
 4221               	/* prologue: function */
 4222               	/* frame size = 0 */
 4223               	.LBB576:
 4224               	.LBB577:
 4225               	.LBB578:
 4226               	.LBB579:
 4227               	.LM411:
 4228 1422 C091 0000 		lds r28,Timebase
 4229 1426 D091 0000 		lds r29,(Timebase)+1
 4230 142a 682F      		mov r22,r24
 4231 142c 70E0      		ldi r23,lo8(0)
 4232               	.LBE579:
 4233               	.LBE578:
 4234               	.LM412:
 4235 142e FB01      		movw r30,r22
 4236 1430 44E0      		ldi r20,4
 4237 1432 EE0F      	1:	lsl r30
 4238 1434 FF1F      		rol r31
 4239 1436 4A95      		dec r20
 4240 1438 01F4      		brne 1b
 4241 143a E60F      		add r30,r22
 4242 143c F71F      		adc r31,r23
 4243 143e EC0F      		add r30,r28
 4244 1440 FD1F      		adc r31,r29
 4245 1442 21A1      		ldd r18,Z+33
 4246 1444 32A1      		ldd r19,Z+34
 4247 1446 43A1      		ldd r20,Z+35
 4248 1448 54A1      		ldd r21,Z+36
 4249               	.LVL229:
 4250 144a 85A1      		ldd r24,Z+37
 4251 144c 96A1      		ldd r25,Z+38
 4252 144e A7A1      		ldd r26,Z+39
 4253 1450 B0A5      		ldd r27,Z+40
 4254               	.LVL230:
 4255 1452 281B      		sub r18,r24
 4256 1454 390B      		sbc r19,r25
 4257 1456 4A0B      		sbc r20,r26
 4258 1458 5B0B      		sbc r21,r27
 4259               	.LM413:
 4260 145a 57FD      		sbrc r21,7
 4261 145c 00C0      		rjmp .L208
 4262               	.LBE577:
 4263               	.LBE576:
 4264               	.LM414:
 4265 145e 2115      		cp r18,__zero_reg__
 4266 1460 3105      		cpc r19,__zero_reg__
 4267 1462 4105      		cpc r20,__zero_reg__
 4268 1464 5105      		cpc r21,__zero_reg__
 4269 1466 01F0      		breq .L208
 4270 1468 20E0      		ldi r18,lo8(0)
 4271               	.LVL231:
 4272 146a 00C0      		rjmp .L209
 4273               	.LVL232:
 4274               	.L208:
 4275 146c 20E0      		ldi r18,lo8(0)
 4276               	.LVL233:
 4277 146e CB01      		movw r24,r22
 4278 1470 34E0      		ldi r19,4
 4279 1472 880F      	1:	lsl r24
 4280 1474 991F      		rol r25
 4281 1476 3A95      		dec r19
 4282 1478 01F4      		brne 1b
 4283 147a 860F      		add r24,r22
 4284 147c 971F      		adc r25,r23
 4285 147e C80F      		add r28,r24
 4286 1480 D91F      		adc r29,r25
 4287 1482 888D      		ldd r24,Y+24
 4288 1484 80FF      		sbrs r24,0
 4289 1486 21E0      		ldi r18,lo8(1)
 4290               	.L210:
 4291 1488 81E0      		ldi r24,lo8(1)
 4292 148a 2827      		eor r18,r24
 4293               	.L209:
 4294               	.LM415:
 4295 148c 822F      		mov r24,r18
 4296               	/* epilogue start */
 4297 148e DF91      		pop r29
 4298 1490 CF91      		pop r28
 4299 1492 0895      		ret
 4300               	.LFE73:
 4302               	.global	Timebase_DownCounter_SS_Period_Value_Expired_Event
 4304               	Timebase_DownCounter_SS_Period_Value_Expired_Event:
 4305               	.LFB74:
 4306               	.LM416:
 4307               	.LVL234:
 4308 1494 1F93      		push r17
 4309               	/* prologue: function */
 4310               	/* frame size = 0 */
 4311 1496 182F      		mov r17,r24
 4312               	.LM417:
 4313 1498 0E94 0000 		call Timebase_DownCounter_SS_Period_Value_Expired
 4314               	.LVL235:
 4315 149c 8130      		cpi r24,lo8(1)
 4316 149e 01F0      		breq .L213
 4317 14a0 80E0      		ldi r24,lo8(0)
 4318 14a2 00C0      		rjmp .L214
 4319               	.L213:
 4320               	.LBB580:
 4321               	.LBB581:
 4322               	.LM418:
 4323 14a4 E091 0000 		lds r30,Timebase
 4324 14a8 F091 0000 		lds r31,(Timebase)+1
 4325 14ac 212F      		mov r18,r17
 4326 14ae 30E0      		ldi r19,lo8(0)
 4327               	.LVL236:
 4328 14b0 C901      		movw r24,r18
 4329 14b2 54E0      		ldi r21,4
 4330 14b4 880F      	1:	lsl r24
 4331 14b6 991F      		rol r25
 4332 14b8 5A95      		dec r21
 4333 14ba 01F4      		brne 1b
 4334 14bc 820F      		add r24,r18
 4335 14be 931F      		adc r25,r19
 4336 14c0 E80F      		add r30,r24
 4337 14c2 F91F      		adc r31,r25
 4338 14c4 808D      		ldd r24,Z+24
 4339 14c6 8E7F      		andi r24,lo8(-2)
 4340 14c8 808F      		std Z+24,r24
 4341 14ca 81E0      		ldi r24,lo8(1)
 4342               	.L214:
 4343               	/* epilogue start */
 4344               	.LBE581:
 4345               	.LBE580:
 4346               	.LM419:
 4347 14cc 1F91      		pop r17
 4348               	.LVL237:
 4349 14ce 0895      		ret
 4350               	.LFE74:
 4352               	.global	Timebase_DownCounter_SS_Update_All
 4354               	Timebase_DownCounter_SS_Update_All:
 4355               	.LFB75:
 4356               	.LM420:
 4357 14d0 1F93      		push r17
 4358               	/* prologue: function */
 4359               	/* frame size = 0 */
 4360               	.LM421:
 4361 14d2 10E0      		ldi r17,lo8(0)
 4362               	.LVL238:
 4363               	.L217:
 4364               	.LBB582:
 4365               	.LM422:
 4366 14d4 812F      		mov r24,r17
 4367 14d6 0E94 0000 		call Timebase_DownCounter_SS_Update
 4368               	.LM423:
 4369 14da 1F5F      		subi r17,lo8(-(1))
 4370 14dc 1530      		cpi r17,lo8(5)
 4371 14de 01F4      		brne .L217
 4372               	/* epilogue start */
 4373               	.LBE582:
 4374               	.LM424:
 4375 14e0 1F91      		pop r17
 4376               	.LVL239:
 4377 14e2 0895      		ret
 4378               	.LFE75:
 4380               	.global	Timebase_DownCounter_SS_Reset_All
 4382               	Timebase_DownCounter_SS_Reset_All:
 4383               	.LFB76:
 4384               	.LM425:
 4385               	/* prologue: function */
 4386               	/* frame size = 0 */
 4387               	.LBB583:
 4388               	.LBB584:
 4389               	.LBB585:
 4390               	.LBB586:
 4391               	.LBB587:
 4392               	.LM426:
 4393 14e4 4091 0000 		lds r20,Timebase
 4394 14e8 5091 0000 		lds r21,(Timebase)+1
 4395 14ec DA01      		movw r26,r20
 4396 14ee 5996      		adiw r26,25
 4397 14f0 20E0      		ldi r18,lo8(0)
 4398 14f2 30E0      		ldi r19,hi8(0)
 4399               	.L221:
 4400 14f4 1496      		adiw r26,4
 4401 14f6 1D92      		st X+,__zero_reg__
 4402 14f8 1D92      		st X+,__zero_reg__
 4403 14fa 1D92      		st X+,__zero_reg__
 4404 14fc 1C92      		st X,__zero_reg__
 4405 14fe 1797      		sbiw r26,4+3
 4406               	.LBE587:
 4407               	.LBE586:
 4408               	.LBB588:
 4409               	.LBB589:
 4410               	.LM427:
 4411 1500 1D92      		st X+,__zero_reg__
 4412 1502 1D92      		st X+,__zero_reg__
 4413 1504 1D92      		st X+,__zero_reg__
 4414 1506 1C92      		st X,__zero_reg__
 4415 1508 1397      		sbiw r26,3
 4416               	.LBE589:
 4417               	.LBE588:
 4418               	.LBB590:
 4419               	.LBB591:
 4420               	.LM428:
 4421 150a 1896      		adiw r26,8
 4422 150c 1D92      		st X+,__zero_reg__
 4423 150e 1D92      		st X+,__zero_reg__
 4424 1510 1D92      		st X+,__zero_reg__
 4425 1512 1C92      		st X,__zero_reg__
 4426 1514 1B97      		sbiw r26,8+3
 4427               	.LBE591:
 4428               	.LBE590:
 4429               	.LBB592:
 4430               	.LBB593:
 4431               	.LM429:
 4432 1516 F901      		movw r30,r18
 4433 1518 64E0      		ldi r22,4
 4434 151a EE0F      	1:	lsl r30
 4435 151c FF1F      		rol r31
 4436 151e 6A95      		dec r22
 4437 1520 01F4      		brne 1b
 4438 1522 E20F      		add r30,r18
 4439 1524 F31F      		adc r31,r19
 4440 1526 E40F      		add r30,r20
 4441 1528 F51F      		adc r31,r21
 4442 152a 808D      		ldd r24,Z+24
 4443               	.LBE593:
 4444               	.LBE592:
 4445               	.LBB594:
 4446               	.LBB595:
 4447               	.LM430:
 4448 152c 807E      		andi r24,lo8(-32)
 4449 152e 808F      		std Z+24,r24
 4450 1530 2F5F      		subi r18,lo8(-(1))
 4451 1532 3F4F      		sbci r19,hi8(-(1))
 4452 1534 5196      		adiw r26,17
 4453               	.LBE595:
 4454               	.LBE594:
 4455               	.LBE585:
 4456               	.LBE584:
 4457               	.LM431:
 4458 1536 2530      		cpi r18,5
 4459 1538 3105      		cpc r19,__zero_reg__
 4460 153a 01F4      		brne .L221
 4461               	/* epilogue start */
 4462               	.LBE583:
 4463               	.LM432:
 4464 153c 0895      		ret
 4465               	.LFE76:
 4467               	.global	Timebase_Reset
 4469               	Timebase_Reset:
 4470               	.LFB77:
 4471               	.LM433:
 4472               	/* prologue: function */
 4473               	/* frame size = 0 */
 4474               	.LM434:
 4475 153e 0E94 0000 		call Timebase_DownCounter_SS_Reset_All
 4476               	.LM435:
 4477 1542 0E94 0000 		call Timebase_DownCounter_Reset_All
 4478               	/* epilogue start */
 4479               	.LM436:
 4480 1546 0895      		ret
 4481               	.LFE77:
 4483               	.global	Timebase_Init
 4485               	Timebase_Init:
 4486               	.LFB78:
 4487               	.LM437:
 4488               	.LVL240:
 4489 1548 0F93      		push r16
 4490 154a 1F93      		push r17
 4491               	/* prologue: function */
 4492               	/* frame size = 0 */
 4493 154c 8C01      		movw r16,r24
 4494               	.LM438:
 4495 154e 0E94 0000 		call Timebase_Struct_Init
 4496               	.LVL241:
 4497               	.LM439:
 4498 1552 C801      		movw r24,r16
 4499 1554 0E94 0000 		call Timebase_Timer_Config
 4500               	.LM440:
 4501 1558 0E94 0000 		call Timebase_Reset
 4502               	/* epilogue start */
 4503               	.LM441:
 4504 155c 1F91      		pop r17
 4505 155e 0F91      		pop r16
 4506               	.LVL242:
 4507 1560 0895      		ret
 4508               	.LFE78:
 4510               	.global	Timebase_Main_Loop_Executables
 4512               	Timebase_Main_Loop_Executables:
 4513               	.LFB79:
 4514               	.LM442:
 4515               	/* prologue: function */
 4516               	/* frame size = 0 */
 4517               	.LM443:
 4518 1562 0E94 0000 		call Timebase_DownCounter_SS_Update_All
 4519               	.LM444:
 4520 1566 0E94 0000 		call Timebase_DownCounter_Update_All
 4521               	/* epilogue start */
 4522               	.LM445:
 4523 156a 0895      		ret
 4524               	.LFE79:
 4526               	.global	Timebase_ISR_Executables
 4528               	Timebase_ISR_Executables:
 4529               	.LFB80:
 4530               	.LM446:
 4531               	/* prologue: function */
 4532               	/* frame size = 0 */
 4533               	.LM447:
 4534 156c E091 0000 		lds r30,Timebase
 4535 1570 F091 0000 		lds r31,(Timebase)+1
 4536 1574 8085      		ldd r24,Z+8
 4537 1576 9185      		ldd r25,Z+9
 4538 1578 0196      		adiw r24,1
 4539 157a 9187      		std Z+9,r25
 4540 157c 8087      		std Z+8,r24
 4541               	.LM448:
 4542 157e 8381      		ldd r24,Z+3
 4543 1580 86BD      		out 70-32,r24
 4544               	.LM449:
 4545 1582 8085      		ldd r24,Z+8
 4546 1584 9185      		ldd r25,Z+9
 4547 1586 6181      		ldd r22,Z+1
 4548 1588 7281      		ldd r23,Z+2
 4549 158a 0E94 0000 		call __udivmodhi4
 4550 158e 892B      		or r24,r25
 4551 1590 01F4      		brne .L232
 4552               	.LM450:
 4553 1592 8285      		ldd r24,Z+10
 4554 1594 9385      		ldd r25,Z+11
 4555 1596 A485      		ldd r26,Z+12
 4556 1598 B585      		ldd r27,Z+13
 4557 159a 0196      		adiw r24,1
 4558 159c A11D      		adc r26,__zero_reg__
 4559 159e B11D      		adc r27,__zero_reg__
 4560 15a0 8287      		std Z+10,r24
 4561 15a2 9387      		std Z+11,r25
 4562 15a4 A487      		std Z+12,r26
 4563 15a6 B587      		std Z+13,r27
 4564               	.LM451:
 4565 15a8 1186      		std Z+9,__zero_reg__
 4566 15aa 1086      		std Z+8,__zero_reg__
 4567               	.L232:
 4568 15ac 0895      		ret
 4569               	.LFE80:
 4571               	.global	__vector_16
 4573               	__vector_16:
 4574               	.LFB81:
 4575               	.LM452:
 4576 15ae 1F92      		push __zero_reg__
 4577 15b0 0F92      		push r0
 4578 15b2 0FB6      		in r0,__SREG__
 4579 15b4 0F92      		push r0
 4580 15b6 1124      		clr __zero_reg__
 4581 15b8 2F93      		push r18
 4582 15ba 3F93      		push r19
 4583 15bc 4F93      		push r20
 4584 15be 5F93      		push r21
 4585 15c0 6F93      		push r22
 4586 15c2 7F93      		push r23
 4587 15c4 8F93      		push r24
 4588 15c6 9F93      		push r25
 4589 15c8 AF93      		push r26
 4590 15ca BF93      		push r27
 4591 15cc EF93      		push r30
 4592 15ce FF93      		push r31
 4593               	/* prologue: Signal */
 4594               	/* frame size = 0 */
 4595               	.LM453:
 4596 15d0 5D9A      		sbi 43-32,5
 4597               	.LM454:
 4598 15d2 0E94 0000 		call Timebase_ISR_Executables
 4599               	.LM455:
 4600 15d6 5D98      		cbi 43-32,5
 4601               	/* epilogue start */
 4602               	.LM456:
 4603 15d8 FF91      		pop r31
 4604 15da EF91      		pop r30
 4605 15dc BF91      		pop r27
 4606 15de AF91      		pop r26
 4607 15e0 9F91      		pop r25
 4608 15e2 8F91      		pop r24
 4609 15e4 7F91      		pop r23
 4610 15e6 6F91      		pop r22
 4611 15e8 5F91      		pop r21
 4612 15ea 4F91      		pop r20
 4613 15ec 3F91      		pop r19
 4614 15ee 2F91      		pop r18
 4615 15f0 0F90      		pop r0
 4616 15f2 0FBE      		out __SREG__,r0
 4617 15f4 0F90      		pop r0
 4618 15f6 1F90      		pop __zero_reg__
 4619 15f8 1895      		reti
 4620               	.LFE81:
 4622               		.data
 4623               	.LC0:
 4624 0000 5320 00   		.string	"S "
 4625               	.LC1:
 4626 0003 2C20 00   		.string	", "
 4627               	.LC2:
 4628 0006 5353 2000 		.string	"SS "
 4629               		.text
 4630               	.global	Timebase_Timer_Delay_SubSeconds
 4632               	Timebase_Timer_Delay_SubSeconds:
 4633               	.LFB16:
 4634               	.LM457:
 4635               	.LVL243:
 4636 15fa 6F92      		push r6
 4637 15fc 7F92      		push r7
 4638 15fe 8F92      		push r8
 4639 1600 9F92      		push r9
 4640 1602 AF92      		push r10
 4641 1604 BF92      		push r11
 4642 1606 CF92      		push r12
 4643 1608 DF92      		push r13
 4644 160a EF92      		push r14
 4645 160c FF92      		push r15
 4646 160e 0F93      		push r16
 4647 1610 1F93      		push r17
 4648 1612 CF93      		push r28
 4649 1614 DF93      		push r29
 4650               	/* prologue: function */
 4651               	/* frame size = 0 */
 4652 1616 5C01      		movw r10,r24
 4653               	.LM458:
 4654 1618 80E0      		ldi r24,lo8(.LC0)
 4655 161a 90E0      		ldi r25,hi8(.LC0)
 4656               	.LVL244:
 4657 161c 0E94 0000 		call UART_Transmit_Text
 4658               	.LBB596:
 4659               	.LBB597:
 4660               	.LM459:
 4661 1620 E091 0000 		lds r30,Timebase
 4662 1624 F091 0000 		lds r31,(Timebase)+1
 4663 1628 6285      		ldd r22,Z+10
 4664 162a 7385      		ldd r23,Z+11
 4665 162c 8485      		ldd r24,Z+12
 4666 162e 9585      		ldd r25,Z+13
 4667               	.LBE597:
 4668               	.LBE596:
 4669               	.LM460:
 4670 1630 0E94 0000 		call UART_Transmit_Number
 4671               	.LM461:
 4672 1634 80E0      		ldi r24,lo8(.LC1)
 4673 1636 90E0      		ldi r25,hi8(.LC1)
 4674 1638 0E94 0000 		call UART_Transmit_Text
 4675               	.LM462:
 4676 163c 80E0      		ldi r24,lo8(.LC2)
 4677 163e 90E0      		ldi r25,hi8(.LC2)
 4678 1640 0E94 0000 		call UART_Transmit_Text
 4679               	.LBB598:
 4680               	.LBB599:
 4681               	.LM463:
 4682 1644 E091 0000 		lds r30,Timebase
 4683 1648 F091 0000 		lds r31,(Timebase)+1
 4684 164c 6085      		ldd r22,Z+8
 4685 164e 7185      		ldd r23,Z+9
 4686               	.LBE599:
 4687               	.LBE598:
 4688               	.LM464:
 4689 1650 80E0      		ldi r24,lo8(0)
 4690 1652 90E0      		ldi r25,hi8(0)
 4691 1654 0E94 0000 		call UART_Transmit_Number
 4692               	.LM465:
 4693 1658 0E94 0000 		call UART_Transmit_New_Line
 4694               	.LBB600:
 4695               	.LBB601:
 4696               	.LM466:
 4697 165c C091 0000 		lds r28,Timebase
 4698 1660 D091 0000 		lds r29,(Timebase)+1
 4699 1664 E884      		ldd r14,Y+8
 4700 1666 F984      		ldd r15,Y+9
 4701               	.LBE601:
 4702               	.LBE600:
 4703               	.LBB602:
 4704               	.LBB603:
 4705               	.LM467:
 4706 1668 2A85      		ldd r18,Y+10
 4707 166a 3B85      		ldd r19,Y+11
 4708 166c 4C85      		ldd r20,Y+12
 4709 166e 5D85      		ldd r21,Y+13
 4710               	.LVL245:
 4711               	.LBE603:
 4712               	.LBE602:
 4713               	.LM468:
 4714 1670 6981      		ldd r22,Y+1
 4715 1672 7A81      		ldd r23,Y+2
 4716 1674 80E0      		ldi r24,lo8(0)
 4717 1676 90E0      		ldi r25,hi8(0)
 4718 1678 0E94 0000 		call __mulsi3
 4719               	.LVL246:
 4720 167c 3B01      		movw r6,r22
 4721 167e 4C01      		movw r8,r24
 4722               	.LVL247:
 4723               	.LM469:
 4724 1680 00E0      		ldi r16,lo8(0)
 4725 1682 10E0      		ldi r17,hi8(0)
 4726 1684 6E0C      		add r6,r14
 4727 1686 7F1C      		adc r7,r15
 4728 1688 801E      		adc r8,r16
 4729 168a 911E      		adc r9,r17
 4730               	.LM470:
 4731 168c CC24      		clr r12
 4732 168e DD24      		clr r13
 4733               	.LVL248:
 4734 1690 6A0C      		add r6,r10
 4735 1692 7B1C      		adc r7,r11
 4736 1694 8C1C      		adc r8,r12
 4737 1696 9D1C      		adc r9,r13
 4738 1698 60E0      		ldi r22,lo8(0)
 4739 169a 70E0      		ldi r23,hi8(0)
 4740 169c 80E0      		ldi r24,hlo8(0)
 4741 169e 90E0      		ldi r25,hhi8(0)
 4742               	.LVL249:
 4743 16a0 00C0      		rjmp .L236
 4744               	.L237:
 4745               	.LBB604:
 4746               	.LBB605:
 4747               	.LM471:
 4748 16a2 E884      		ldd r14,Y+8
 4749 16a4 F984      		ldd r15,Y+9
 4750               	.LBE605:
 4751               	.LBE604:
 4752               	.LBB606:
 4753               	.LBB607:
 4754               	.LM472:
 4755 16a6 2A85      		ldd r18,Y+10
 4756 16a8 3B85      		ldd r19,Y+11
 4757 16aa 4C85      		ldd r20,Y+12
 4758 16ac 5D85      		ldd r21,Y+13
 4759               	.LVL250:
 4760               	.LBE607:
 4761               	.LBE606:
 4762               	.LM473:
 4763 16ae 6981      		ldd r22,Y+1
 4764 16b0 7A81      		ldd r23,Y+2
 4765               	.LVL251:
 4766 16b2 80E0      		ldi r24,lo8(0)
 4767 16b4 90E0      		ldi r25,hi8(0)
 4768 16b6 0E94 0000 		call __mulsi3
 4769               	.LVL252:
 4770               	.LM474:
 4771 16ba 00E0      		ldi r16,lo8(0)
 4772 16bc 10E0      		ldi r17,hi8(0)
 4773 16be 6E0D      		add r22,r14
 4774 16c0 7F1D      		adc r23,r15
 4775 16c2 801F      		adc r24,r16
 4776 16c4 911F      		adc r25,r17
 4777               	.LVL253:
 4778               	.L236:
 4779               	.LM475:
 4780 16c6 6615      		cp r22,r6
 4781 16c8 7705      		cpc r23,r7
 4782 16ca 8805      		cpc r24,r8
 4783 16cc 9905      		cpc r25,r9
 4784 16ce 04F0      		brlt .L237
 4785               	/* epilogue start */
 4786               	.LM476:
 4787 16d0 DF91      		pop r29
 4788 16d2 CF91      		pop r28
 4789 16d4 1F91      		pop r17
 4790 16d6 0F91      		pop r16
 4791 16d8 FF90      		pop r15
 4792 16da EF90      		pop r14
 4793 16dc DF90      		pop r13
 4794 16de CF90      		pop r12
 4795               	.LVL254:
 4796 16e0 BF90      		pop r11
 4797 16e2 AF90      		pop r10
 4798               	.LVL255:
 4799 16e4 9F90      		pop r9
 4800 16e6 8F90      		pop r8
 4801 16e8 7F90      		pop r7
 4802 16ea 6F90      		pop r6
 4803               	.LVL256:
 4804 16ec 0895      		ret
 4805               	.LFE16:
 4807               		.data
 4810               	C.2.1626:
 4811 000a 0100      		.word	1
 4812 000c 0800      		.word	8
 4813 000e 4000      		.word	64
 4814 0010 0001      		.word	256
 4815 0012 0004      		.word	1024
 4816               		.comm Timebase_type,174,1
 4817               		.comm Timebase,2,1
 5442               	.Letext0:
DEFINED SYMBOLS
                            *ABS*:00000000 timebase.c
C:\Users\WALTON\AppData\Local\Temp/ccjeGc4p.s:2      *ABS*:0000003f __SREG__
C:\Users\WALTON\AppData\Local\Temp/ccjeGc4p.s:3      *ABS*:0000003e __SP_H__
C:\Users\WALTON\AppData\Local\Temp/ccjeGc4p.s:4      *ABS*:0000003d __SP_L__
C:\Users\WALTON\AppData\Local\Temp/ccjeGc4p.s:5      *ABS*:00000034 __CCP__
C:\Users\WALTON\AppData\Local\Temp/ccjeGc4p.s:6      *ABS*:00000000 __tmp_reg__
C:\Users\WALTON\AppData\Local\Temp/ccjeGc4p.s:7      *ABS*:00000001 __zero_reg__
C:\Users\WALTON\AppData\Local\Temp/ccjeGc4p.s:18     .text:00000000 Timebase_Struct_Init
                            *COM*:000000ae Timebase_type
                            *COM*:00000002 Timebase
C:\Users\WALTON\AppData\Local\Temp/ccjeGc4p.s:177    .text:00000128 Timebase_Timer_Config
C:\Users\WALTON\AppData\Local\Temp/ccjeGc4p.s:4810   .data:0000000a C.2.1626
C:\Users\WALTON\AppData\Local\Temp/ccjeGc4p.s:497    .text:000002c2 Timebase_Token_Executing
C:\Users\WALTON\AppData\Local\Temp/ccjeGc4p.s:513    .text:000002ce Timebase_Token_Add
C:\Users\WALTON\AppData\Local\Temp/ccjeGc4p.s:539    .text:000002e4 Timebase_Token_Remove
C:\Users\WALTON\AppData\Local\Temp/ccjeGc4p.s:565    .text:000002fa Timebase_Token_Remove_All
C:\Users\WALTON\AppData\Local\Temp/ccjeGc4p.s:581    .text:00000306 Timebase_Timer_Get_SubSeconds
C:\Users\WALTON\AppData\Local\Temp/ccjeGc4p.s:599    .text:00000316 Timebase_Timer_Get_Seconds
C:\Users\WALTON\AppData\Local\Temp/ccjeGc4p.s:620    .text:0000032c Timebase_Timer_Set_SubSeconds
C:\Users\WALTON\AppData\Local\Temp/ccjeGc4p.s:638    .text:0000033a Timebase_Timer_Set_Seconds
C:\Users\WALTON\AppData\Local\Temp/ccjeGc4p.s:658    .text:0000034c Timebase_Timer_Await_SubSeconds
C:\Users\WALTON\AppData\Local\Temp/ccjeGc4p.s:741    .text:000003c0 Timebase_Timer_Delay_Seconds
C:\Users\WALTON\AppData\Local\Temp/ccjeGc4p.s:803    .text:00000402 Timebase_Window_Timer_Reset
C:\Users\WALTON\AppData\Local\Temp/ccjeGc4p.s:829    .text:0000041e Timebase_Window_Timer_Start
C:\Users\WALTON\AppData\Local\Temp/ccjeGc4p.s:877    .text:00000452 Timebase_Window_Timer_Get_Interval
C:\Users\WALTON\AppData\Local\Temp/ccjeGc4p.s:975    .text:000004cc Timebase_Window_Timer_Get_Interval_Reset
C:\Users\WALTON\AppData\Local\Temp/ccjeGc4p.s:1015   .text:000004f6 Timebase_DownCounter_Get_Status
C:\Users\WALTON\AppData\Local\Temp/ccjeGc4p.s:1051   .text:00000524 Timebase_DownCounter_Set_Status
C:\Users\WALTON\AppData\Local\Temp/ccjeGc4p.s:1091   .text:00000558 Timebase_DownCounter_Get_Value
C:\Users\WALTON\AppData\Local\Temp/ccjeGc4p.s:1129   .text:00000588 Timebase_DownCounter_Set_Value
C:\Users\WALTON\AppData\Local\Temp/ccjeGc4p.s:1166   .text:000005b8 Timebase_DownCounter_Get_EndValue
C:\Users\WALTON\AppData\Local\Temp/ccjeGc4p.s:1204   .text:000005e8 Timebase_DownCounter_Set_EndValue
C:\Users\WALTON\AppData\Local\Temp/ccjeGc4p.s:1241   .text:00000618 Timebase_DownCounter_Get_PeriodValue
C:\Users\WALTON\AppData\Local\Temp/ccjeGc4p.s:1279   .text:00000648 Timebase_DownCounter_Set_PeriodValue
C:\Users\WALTON\AppData\Local\Temp/ccjeGc4p.s:1341   .text:000006a4 Timebase_DownCounter_Get_Period_Flag
C:\Users\WALTON\AppData\Local\Temp/ccjeGc4p.s:1376   .text:000006d0 Timebase_DownCounter_Set_Period_Flag
C:\Users\WALTON\AppData\Local\Temp/ccjeGc4p.s:1412   .text:000006fe Timebase_DownCounter_Clear_Period_Flag
C:\Users\WALTON\AppData\Local\Temp/ccjeGc4p.s:1448   .text:0000072c Timebase_DownCounter_Reset
C:\Users\WALTON\AppData\Local\Temp/ccjeGc4p.s:1511   .text:0000076c Timebase_DownCounter_Clear_All_Flags
C:\Users\WALTON\AppData\Local\Temp/ccjeGc4p.s:1578   .text:000007ac Timebase_DownCounter_Start
C:\Users\WALTON\AppData\Local\Temp/ccjeGc4p.s:1628   .text:000007e6 Timebase_DownCounter_Stop
C:\Users\WALTON\AppData\Local\Temp/ccjeGc4p.s:1678   .text:00000820 Timebase_DownCounter_Set_Securely
C:\Users\WALTON\AppData\Local\Temp/ccjeGc4p.s:1778   .text:00000892 Timebase_DownCounter_Set_Forcefully
C:\Users\WALTON\AppData\Local\Temp/ccjeGc4p.s:1852   .text:000008e0 Timebase_DownCounter_Update
C:\Users\WALTON\AppData\Local\Temp/ccjeGc4p.s:2019   .text:000009aa Timebase_DownCounter_Expired
C:\Users\WALTON\AppData\Local\Temp/ccjeGc4p.s:2061   .text:000009e2 Timebase_DownCounter_Expired_Event
C:\Users\WALTON\AppData\Local\Temp/ccjeGc4p.s:2148   .text:00000a36 Timebase_DownCounter_Set_Period_Value_Securely
C:\Users\WALTON\AppData\Local\Temp/ccjeGc4p.s:2247   .text:00000aba Timebase_DownCounter_Get_Remaining_Period_Value
C:\Users\WALTON\AppData\Local\Temp/ccjeGc4p.s:2311   .text:00000b12 Timebase_DownCounter_Period_Value_Expired
C:\Users\WALTON\AppData\Local\Temp/ccjeGc4p.s:2411   .text:00000b9e Timebase_DownCounter_Period_Value_Expired_Event
C:\Users\WALTON\AppData\Local\Temp/ccjeGc4p.s:2465   .text:00000be2 Timebase_DownCounter_Update_All
C:\Users\WALTON\AppData\Local\Temp/ccjeGc4p.s:2493   .text:00000bf6 Timebase_DownCounter_Reset_All
C:\Users\WALTON\AppData\Local\Temp/ccjeGc4p.s:2583   .text:00000c4c Timebase_DownCounter_SS_Get_Status
C:\Users\WALTON\AppData\Local\Temp/ccjeGc4p.s:2615   .text:00000c72 Timebase_DownCounter_SS_Set_Status
C:\Users\WALTON\AppData\Local\Temp/ccjeGc4p.s:2651   .text:00000c9e Timebase_DownCounter_SS_Get_Value
C:\Users\WALTON\AppData\Local\Temp/ccjeGc4p.s:2692   .text:00000cd4 Timebase_DownCounter_SS_Set_Value
C:\Users\WALTON\AppData\Local\Temp/ccjeGc4p.s:2724   .text:00000cfc Timebase_DownCounter_SS_Get_EndValueSec
C:\Users\WALTON\AppData\Local\Temp/ccjeGc4p.s:2765   .text:00000d32 Timebase_DownCounter_SS_Get_EndValueSubSec
C:\Users\WALTON\AppData\Local\Temp/ccjeGc4p.s:2806   .text:00000d68 Timebase_DownCounter_SS_Set_EndValueSec
C:\Users\WALTON\AppData\Local\Temp/ccjeGc4p.s:2838   .text:00000d90 Timebase_DownCounter_SS_Set_EndValueSubSec
C:\Users\WALTON\AppData\Local\Temp/ccjeGc4p.s:2870   .text:00000db8 Timebase_DownCounter_SS_Get_PeriodValue
C:\Users\WALTON\AppData\Local\Temp/ccjeGc4p.s:2911   .text:00000dee Timebase_DownCounter_SS_Set_PeriodValue
C:\Users\WALTON\AppData\Local\Temp/ccjeGc4p.s:2964   .text:00000e3a Timebase_DownCounter_SS_Get_Period_Flag
C:\Users\WALTON\AppData\Local\Temp/ccjeGc4p.s:2995   .text:00000e5e Timebase_DownCounter_SS_Set_Period_Flag
C:\Users\WALTON\AppData\Local\Temp/ccjeGc4p.s:3027   .text:00000e84 Timebase_DownCounter_SS_Clear_Period_Flag
C:\Users\WALTON\AppData\Local\Temp/ccjeGc4p.s:3059   .text:00000eaa Timebase_DownCounter_SS_Reset
C:\Users\WALTON\AppData\Local\Temp/ccjeGc4p.s:3126   .text:00000ee8 Timebase_DownCounter_SS_Clear_All_Flags
C:\Users\WALTON\AppData\Local\Temp/ccjeGc4p.s:3197   .text:00000f26 Timebase_DownCounter_SS_Start
C:\Users\WALTON\AppData\Local\Temp/ccjeGc4p.s:3243   .text:00000f58 Timebase_DownCounter_SS_Stop
C:\Users\WALTON\AppData\Local\Temp/ccjeGc4p.s:3289   .text:00000f8a Timebase_DownCounter_SS_Set_Securely
C:\Users\WALTON\AppData\Local\Temp/ccjeGc4p.s:3542   .text:000010f4 Timebase_DownCounter_SS_Set_Forcefully
C:\Users\WALTON\AppData\Local\Temp/ccjeGc4p.s:3616   .text:00001138 Timebase_DownCounter_SS_Update
C:\Users\WALTON\AppData\Local\Temp/ccjeGc4p.s:3943   .text:000012e8 Timebase_DownCounter_SS_Expired
C:\Users\WALTON\AppData\Local\Temp/ccjeGc4p.s:3981   .text:00001318 Timebase_DownCounter_SS_Expired_Event
C:\Users\WALTON\AppData\Local\Temp/ccjeGc4p.s:4070   .text:00001366 Timebase_DownCounter_SS_Set_Period_Value_Securely
C:\Users\WALTON\AppData\Local\Temp/ccjeGc4p.s:4159   .text:000013d6 Timebase_DownCounter_SS_Get_Remaining_Period_Value
C:\Users\WALTON\AppData\Local\Temp/ccjeGc4p.s:4215   .text:0000141e Timebase_DownCounter_SS_Period_Value_Expired
C:\Users\WALTON\AppData\Local\Temp/ccjeGc4p.s:4304   .text:00001494 Timebase_DownCounter_SS_Period_Value_Expired_Event
C:\Users\WALTON\AppData\Local\Temp/ccjeGc4p.s:4354   .text:000014d0 Timebase_DownCounter_SS_Update_All
C:\Users\WALTON\AppData\Local\Temp/ccjeGc4p.s:4382   .text:000014e4 Timebase_DownCounter_SS_Reset_All
C:\Users\WALTON\AppData\Local\Temp/ccjeGc4p.s:4469   .text:0000153e Timebase_Reset
C:\Users\WALTON\AppData\Local\Temp/ccjeGc4p.s:4485   .text:00001548 Timebase_Init
C:\Users\WALTON\AppData\Local\Temp/ccjeGc4p.s:4512   .text:00001562 Timebase_Main_Loop_Executables
C:\Users\WALTON\AppData\Local\Temp/ccjeGc4p.s:4528   .text:0000156c Timebase_ISR_Executables
C:\Users\WALTON\AppData\Local\Temp/ccjeGc4p.s:4573   .text:000015ae __vector_16
C:\Users\WALTON\AppData\Local\Temp/ccjeGc4p.s:4632   .text:000015fa Timebase_Timer_Delay_SubSeconds

UNDEFINED SYMBOLS
__divmodsi4
__mulsi3
__udivmodhi4
UART_Transmit_Text
UART_Transmit_Number
UART_Transmit_New_Line
__do_copy_data
__do_clear_bss
