   1               		.file	"timebase.c"
   2               	__SREG__ = 0x3f
   3               	__SP_H__ = 0x3e
   4               	__SP_L__ = 0x3d
   5               	__CCP__  = 0x34
   6               	__tmp_reg__ = 0
   7               	__zero_reg__ = 1
  15               	.Ltext0:
  16               	.global	Timebase_Struct_Init
  18               	Timebase_Struct_Init:
  19               	.LFB6:
  20               	.LM1:
  21               	/* prologue: function */
  22               	/* frame size = 0 */
  23               	.LM2:
  24 0000 80E0      		ldi r24,lo8(Timebase_type)
  25 0002 90E0      		ldi r25,hi8(Timebase_type)
  26 0004 9093 0000 		sts (Timebase)+1,r25
  27 0008 8093 0000 		sts Timebase,r24
  28               	.LM3:
  29 000c 1092 0000 		sts Timebase_type,__zero_reg__
  30               	.LM4:
  31 0010 8091 0000 		lds r24,Timebase_type
  32 0014 8460      		ori r24,lo8(4)
  33 0016 8093 0000 		sts Timebase_type,r24
  34               	.LM5:
  35 001a 8091 0000 		lds r24,Timebase_type
  36 001e 8770      		andi r24,lo8(7)
  37 0020 8093 0000 		sts Timebase_type,r24
  38               	.LM6:
  39 0024 81E0      		ldi r24,lo8(1)
  40 0026 90E0      		ldi r25,hi8(1)
  41 0028 9093 0000 		sts (Timebase_type+1)+1,r25
  42 002c 8093 0000 		sts Timebase_type+1,r24
  43               	.LM7:
  44 0030 1092 0000 		sts Timebase_type+3,__zero_reg__
  45               	.LM8:
  46 0034 1092 0000 		sts (Timebase_type+14)+1,__zero_reg__
  47 0038 1092 0000 		sts Timebase_type+14,__zero_reg__
  48               	.LM9:
  49 003c 1092 0000 		sts Timebase_type+16,__zero_reg__
  50 0040 1092 0000 		sts (Timebase_type+16)+1,__zero_reg__
  51 0044 1092 0000 		sts (Timebase_type+16)+2,__zero_reg__
  52 0048 1092 0000 		sts (Timebase_type+16)+3,__zero_reg__
  53               	.LM10:
  54 004c 1092 0000 		sts (Timebase_type+8)+1,__zero_reg__
  55 0050 1092 0000 		sts Timebase_type+8,__zero_reg__
  56               	.LM11:
  57 0054 1092 0000 		sts Timebase_type+10,__zero_reg__
  58 0058 1092 0000 		sts (Timebase_type+10)+1,__zero_reg__
  59 005c 1092 0000 		sts (Timebase_type+10)+2,__zero_reg__
  60 0060 1092 0000 		sts (Timebase_type+10)+3,__zero_reg__
  61               	.LM12:
  62 0064 1092 0000 		sts Timebase_type+20,__zero_reg__
  63               	.LM13:
  64 0068 1092 0000 		sts Timebase_type+4,__zero_reg__
  65 006c 1092 0000 		sts (Timebase_type+4)+1,__zero_reg__
  66 0070 1092 0000 		sts (Timebase_type+4)+2,__zero_reg__
  67 0074 1092 0000 		sts (Timebase_type+4)+3,__zero_reg__
  68               	.LM14:
  69 0078 1092 0000 		sts Timebase_type+21,__zero_reg__
  70 007c 1092 0000 		sts (Timebase_type+21)+1,__zero_reg__
  71 0080 1092 0000 		sts (Timebase_type+21)+2,__zero_reg__
  72 0084 1092 0000 		sts (Timebase_type+21)+3,__zero_reg__
  73               	.LM15:
  74 0088 1092 0000 		sts Timebase_type+25,__zero_reg__
  75 008c 1092 0000 		sts (Timebase_type+25)+1,__zero_reg__
  76 0090 1092 0000 		sts (Timebase_type+25)+2,__zero_reg__
  77 0094 1092 0000 		sts (Timebase_type+25)+3,__zero_reg__
  78               	.LM16:
  79 0098 1092 0000 		sts Timebase_type+29,__zero_reg__
  80               	.LM17:
  81 009c 1092 0000 		sts Timebase_type+30,__zero_reg__
  82               	.LM18:
  83 00a0 1092 0000 		sts Timebase_type+31,__zero_reg__
  84               	.LBB593:
  85               	.LM19:
  86 00a4 1092 0000 		sts Timebase_type+57,__zero_reg__
  87               	.LM20:
  88 00a8 1092 0000 		sts Timebase_type+58,__zero_reg__
  89 00ac 1092 0000 		sts (Timebase_type+58)+1,__zero_reg__
  90 00b0 1092 0000 		sts (Timebase_type+58)+2,__zero_reg__
  91 00b4 1092 0000 		sts (Timebase_type+58)+3,__zero_reg__
  92               	.LM21:
  93 00b8 1092 0000 		sts Timebase_type+62,__zero_reg__
  94 00bc 1092 0000 		sts (Timebase_type+62)+1,__zero_reg__
  95 00c0 1092 0000 		sts (Timebase_type+62)+2,__zero_reg__
  96 00c4 1092 0000 		sts (Timebase_type+62)+3,__zero_reg__
  97               	.LM22:
  98 00c8 1092 0000 		sts Timebase_type+66,__zero_reg__
  99 00cc 1092 0000 		sts (Timebase_type+66)+1,__zero_reg__
 100 00d0 1092 0000 		sts (Timebase_type+66)+2,__zero_reg__
 101 00d4 1092 0000 		sts (Timebase_type+66)+3,__zero_reg__
 102               	.LM23:
 103 00d8 1092 0000 		sts Timebase_type+70,__zero_reg__
 104 00dc 1092 0000 		sts (Timebase_type+70)+1,__zero_reg__
 105 00e0 1092 0000 		sts (Timebase_type+70)+2,__zero_reg__
 106 00e4 1092 0000 		sts (Timebase_type+70)+3,__zero_reg__
 107               	.LM24:
 108 00e8 1092 0000 		sts Timebase_type+74,__zero_reg__
 109 00ec 1092 0000 		sts (Timebase_type+74)+1,__zero_reg__
 110 00f0 1092 0000 		sts (Timebase_type+74)+2,__zero_reg__
 111 00f4 1092 0000 		sts (Timebase_type+74)+3,__zero_reg__
 112               	.LBE593:
 113               	.LBB594:
 114               	.LM25:
 115 00f8 1092 0000 		sts Timebase_type+32,__zero_reg__
 116               	.LM26:
 117 00fc 1092 0000 		sts Timebase_type+33,__zero_reg__
 118 0100 1092 0000 		sts (Timebase_type+33)+1,__zero_reg__
 119 0104 1092 0000 		sts (Timebase_type+33)+2,__zero_reg__
 120 0108 1092 0000 		sts (Timebase_type+33)+3,__zero_reg__
 121               	.LM27:
 122 010c 1092 0000 		sts Timebase_type+37,__zero_reg__
 123 0110 1092 0000 		sts (Timebase_type+37)+1,__zero_reg__
 124 0114 1092 0000 		sts (Timebase_type+37)+2,__zero_reg__
 125 0118 1092 0000 		sts (Timebase_type+37)+3,__zero_reg__
 126               	.LM28:
 127 011c 1092 0000 		sts Timebase_type+41,__zero_reg__
 128 0120 1092 0000 		sts (Timebase_type+41)+1,__zero_reg__
 129 0124 1092 0000 		sts (Timebase_type+41)+2,__zero_reg__
 130 0128 1092 0000 		sts (Timebase_type+41)+3,__zero_reg__
 131               	.LM29:
 132 012c 1092 0000 		sts Timebase_type+45,__zero_reg__
 133 0130 1092 0000 		sts (Timebase_type+45)+1,__zero_reg__
 134 0134 1092 0000 		sts (Timebase_type+45)+2,__zero_reg__
 135 0138 1092 0000 		sts (Timebase_type+45)+3,__zero_reg__
 136               	.LM30:
 137 013c 1092 0000 		sts Timebase_type+49,__zero_reg__
 138 0140 1092 0000 		sts (Timebase_type+49)+1,__zero_reg__
 139 0144 1092 0000 		sts (Timebase_type+49)+2,__zero_reg__
 140 0148 1092 0000 		sts (Timebase_type+49)+3,__zero_reg__
 141               	.LM31:
 142 014c 1092 0000 		sts Timebase_type+53,__zero_reg__
 143 0150 1092 0000 		sts (Timebase_type+53)+1,__zero_reg__
 144 0154 1092 0000 		sts (Timebase_type+53)+2,__zero_reg__
 145 0158 1092 0000 		sts (Timebase_type+53)+3,__zero_reg__
 146               	.LBE594:
 147               	.LBB595:
 148               	.LM32:
 149 015c 1092 0000 		sts Timebase_type+95,__zero_reg__
 150               	.LM33:
 151 0160 1092 0000 		sts Timebase_type+96,__zero_reg__
 152 0164 1092 0000 		sts (Timebase_type+96)+1,__zero_reg__
 153 0168 1092 0000 		sts (Timebase_type+96)+2,__zero_reg__
 154 016c 1092 0000 		sts (Timebase_type+96)+3,__zero_reg__
 155               	.LM34:
 156 0170 1092 0000 		sts Timebase_type+100,__zero_reg__
 157 0174 1092 0000 		sts (Timebase_type+100)+1,__zero_reg__
 158 0178 1092 0000 		sts (Timebase_type+100)+2,__zero_reg__
 159 017c 1092 0000 		sts (Timebase_type+100)+3,__zero_reg__
 160               	.LM35:
 161 0180 1092 0000 		sts Timebase_type+104,__zero_reg__
 162 0184 1092 0000 		sts (Timebase_type+104)+1,__zero_reg__
 163 0188 1092 0000 		sts (Timebase_type+104)+2,__zero_reg__
 164 018c 1092 0000 		sts (Timebase_type+104)+3,__zero_reg__
 165               	.LBE595:
 166               	.LBB596:
 167               	.LM36:
 168 0190 1092 0000 		sts Timebase_type+78,__zero_reg__
 169               	.LM37:
 170 0194 1092 0000 		sts Timebase_type+79,__zero_reg__
 171 0198 1092 0000 		sts (Timebase_type+79)+1,__zero_reg__
 172 019c 1092 0000 		sts (Timebase_type+79)+2,__zero_reg__
 173 01a0 1092 0000 		sts (Timebase_type+79)+3,__zero_reg__
 174               	.LM38:
 175 01a4 1092 0000 		sts Timebase_type+83,__zero_reg__
 176 01a8 1092 0000 		sts (Timebase_type+83)+1,__zero_reg__
 177 01ac 1092 0000 		sts (Timebase_type+83)+2,__zero_reg__
 178 01b0 1092 0000 		sts (Timebase_type+83)+3,__zero_reg__
 179               	.LM39:
 180 01b4 1092 0000 		sts Timebase_type+87,__zero_reg__
 181 01b8 1092 0000 		sts (Timebase_type+87)+1,__zero_reg__
 182 01bc 1092 0000 		sts (Timebase_type+87)+2,__zero_reg__
 183 01c0 1092 0000 		sts (Timebase_type+87)+3,__zero_reg__
 184               	.LM40:
 185 01c4 1092 0000 		sts Timebase_type+91,__zero_reg__
 186 01c8 1092 0000 		sts (Timebase_type+91)+1,__zero_reg__
 187 01cc 1092 0000 		sts (Timebase_type+91)+2,__zero_reg__
 188 01d0 1092 0000 		sts (Timebase_type+91)+3,__zero_reg__
 189               	/* epilogue start */
 190               	.LBE596:
 191               	.LM41:
 192 01d4 0895      		ret
 193               	.LFE6:
 195               	.global	Timebase_Timer_Config
 197               	Timebase_Timer_Config:
 198               	.LFB7:
 199               	.LM42:
 200               	.LVL0:
 201 01d6 7F92      		push r7
 202 01d8 8F92      		push r8
 203 01da 9F92      		push r9
 204 01dc AF92      		push r10
 205 01de BF92      		push r11
 206 01e0 CF92      		push r12
 207 01e2 DF92      		push r13
 208 01e4 EF92      		push r14
 209 01e6 FF92      		push r15
 210 01e8 0F93      		push r16
 211 01ea 1F93      		push r17
 212 01ec DF93      		push r29
 213 01ee CF93      		push r28
 214 01f0 CDB7      		in r28,__SP_L__
 215 01f2 DEB7      		in r29,__SP_H__
 216 01f4 2A97      		sbiw r28,10
 217 01f6 0FB6      		in __tmp_reg__,__SREG__
 218 01f8 F894      		cli
 219 01fa DEBF      		out __SP_H__,r29
 220 01fc 0FBE      		out __SREG__,__tmp_reg__
 221 01fe CDBF      		out __SP_L__,r28
 222               	/* prologue: function */
 223               	/* frame size = 10 */
 224 0200 8C01      		movw r16,r24
 225               	.LM43:
 226 0202 C090 0000 		lds r12,Timebase
 227 0206 D090 0000 		lds r13,(Timebase)+1
 228 020a F601      		movw r30,r12
 229 020c 8081      		ld r24,Z
 230               	.LVL1:
 231 020e 80FF      		sbrs r24,0
 232 0210 00C0      		rjmp .L4
 233               	.LBB597:
 234               	.LM44:
 235 0212 0130      		cpi r16,1
 236 0214 1105      		cpc r17,__zero_reg__
 237 0216 01F4      		brne .L5
 238 0218 96E0      		ldi r25,lo8(6)
 239               	.LVL2:
 240 021a 00C0      		rjmp .L6
 241               	.LVL3:
 242               	.L5:
 243               	.LM45:
 244 021c 0230      		cpi r16,2
 245 021e 1105      		cpc r17,__zero_reg__
 246 0220 01F4      		brne .L7
 247 0222 95E0      		ldi r25,lo8(5)
 248               	.LVL4:
 249 0224 00C0      		rjmp .L6
 250               	.LVL5:
 251               	.L7:
 252               	.LM46:
 253 0226 0430      		cpi r16,4
 254 0228 1105      		cpc r17,__zero_reg__
 255 022a 01F4      		brne .L8
 256 022c 94E0      		ldi r25,lo8(4)
 257               	.LVL6:
 258 022e 00C0      		rjmp .L6
 259               	.LVL7:
 260               	.L8:
 261               	.LM47:
 262 0230 0830      		cpi r16,8
 263 0232 1105      		cpc r17,__zero_reg__
 264 0234 01F4      		brne .L9
 265 0236 93E0      		ldi r25,lo8(3)
 266               	.LVL8:
 267 0238 00C0      		rjmp .L6
 268               	.LVL9:
 269               	.L9:
 270               	.LM48:
 271 023a 0031      		cpi r16,16
 272 023c 1105      		cpc r17,__zero_reg__
 273 023e 01F4      		brne .L10
 274 0240 92E0      		ldi r25,lo8(2)
 275               	.LVL10:
 276 0242 00C0      		rjmp .L6
 277               	.LVL11:
 278               	.L10:
 279 0244 90E0      		ldi r25,lo8(0)
 280               	.LVL12:
 281 0246 0032      		cpi r16,32
 282 0248 1105      		cpc r17,__zero_reg__
 283 024a 01F4      		brne .L6
 284 024c 91E0      		ldi r25,lo8(1)
 285               	.L6:
 286               	.LM49:
 287               	/* #APP */
 288               	 ;  273 "timebase.c" 1
 289 024e F894      		cli
 290               	 ;  0 "" 2
 291               	.LM50:
 292               	/* #NOAPP */
 293 0250 84B7      		in r24,84-32
 294 0252 877F      		andi r24,lo8(-9)
 295 0254 84BF      		out 84-32,r24
 296               	.LM51:
 297 0256 8091 6000 		lds r24,96
 298 025a 8068      		ori r24,lo8(-128)
 299 025c 8093 6000 		sts 96,r24
 300               	.LM52:
 301 0260 8091 6000 		lds r24,96
 302 0264 8861      		ori r24,lo8(24)
 303 0266 8093 6000 		sts 96,r24
 304               	.LM53:
 305 026a 9064      		ori r25,lo8(64)
 306 026c 9093 6000 		sts 96,r25
 307               	.LM54:
 308               	/* #APP */
 309               	 ;  278 "timebase.c" 1
 310 0270 7894      		sei
 311               	 ;  0 "" 2
 312               	/* #NOAPP */
 313 0272 00C0      		rjmp .L12
 314               	.LVL13:
 315               	.L4:
 316               	.LBE597:
 317               	.LM55:
 318 0274 81FD      		sbrc r24,1
 319 0276 00C0      		rjmp .L12
 320               	.LM56:
 321 0278 82FF      		sbrs r24,2
 322 027a 00C0      		rjmp .L12
 323               	.LBB598:
 324               	.LM57:
 325 027c DE01      		movw r26,r28
 326 027e 1196      		adiw r26,1
 327 0280 E0E0      		ldi r30,lo8(C.2.1703)
 328 0282 F0E0      		ldi r31,hi8(C.2.1703)
 329 0284 8AE0      		ldi r24,lo8(10)
 330               	.L13:
 331 0286 0190      		ld r0,Z+
 332 0288 0D92      		st X+,r0
 333 028a 8150      		subi r24,lo8(-(-1))
 334 028c 01F4      		brne .L13
 335               	.LM58:
 336 028e 9801      		movw r18,r16
 337 0290 40E0      		ldi r20,lo8(0)
 338 0292 50E0      		ldi r21,hi8(0)
 339               	.LVL14:
 340 0294 60E0      		ldi r22,lo8(12000000)
 341 0296 7BE1      		ldi r23,hi8(12000000)
 342 0298 87EB      		ldi r24,hlo8(12000000)
 343 029a 90E0      		ldi r25,hhi8(12000000)
 344 029c 0E94 0000 		call __divmodsi4
 345 02a0 722E      		mov r7,r18
 346 02a2 832E      		mov r8,r19
 347 02a4 942E      		mov r9,r20
 348               	.LVL15:
 349 02a6 E52E      		mov r14,r21
 350 02a8 5E01      		movw r10,r28
 351 02aa 0894      		sec
 352 02ac A11C      		adc r10,__zero_reg__
 353 02ae B11C      		adc r11,__zero_reg__
 354 02b0 C901      		movw r24,r18
 355 02b2 DA01      		movw r26,r20
 356 02b4 9C01      		movw r18,r24
 357 02b6 AD01      		movw r20,r26
 358               	.LVL16:
 359 02b8 FF24      		clr r15
 360               	.LVL17:
 361 02ba 00C0      		rjmp .L14
 362               	.LVL18:
 363               	.L16:
 364               	.LM59:
 365 02bc F501      		movw r30,r10
 366 02be 2191      		ld r18,Z+
 367 02c0 3191      		ld r19,Z+
 368               	.LVL19:
 369 02c2 5F01      		movw r10,r30
 370 02c4 40E0      		ldi r20,lo8(0)
 371 02c6 50E0      		ldi r21,hi8(0)
 372 02c8 672D      		mov r22,r7
 373 02ca 782D      		mov r23,r8
 374 02cc 892D      		mov r24,r9
 375               	.LVL20:
 376 02ce 9E2D      		mov r25,r14
 377 02d0 0E94 0000 		call __divmodsi4
 378 02d4 C901      		movw r24,r18
 379 02d6 DA01      		movw r26,r20
 380 02d8 9C01      		movw r18,r24
 381 02da AD01      		movw r20,r26
 382               	.LVL21:
 383               	.LM60:
 384 02dc F394      		inc r15
 385               	.LM61:
 386 02de F5E0      		ldi r31,lo8(5)
 387 02e0 FF16      		cp r15,r31
 388 02e2 01F0      		breq .L15
 389               	.LVL22:
 390               	.L14:
 391               	.LM62:
 392 02e4 2F3F      		cpi r18,lo8(255)
 393 02e6 3105      		cpc r19,__zero_reg__
 394 02e8 4105      		cpc r20,__zero_reg__
 395 02ea 5105      		cpc r21,__zero_reg__
 396 02ec 01F0      		breq .+2
 397 02ee 04F4      		brge .L16
 398               	.L15:
 399               	.LM63:
 400 02f0 8F2D      		mov r24,r15
 401 02f2 8150      		subi r24,lo8(-(-1))
 402               	.LVL23:
 403               	.LM64:
 404 02f4 14BC      		out 68-32,__zero_reg__
 405               	.LM65:
 406 02f6 15BC      		out 69-32,__zero_reg__
 407               	.LM66:
 408 02f8 1092 6E00 		sts 110,__zero_reg__
 409               	.LM67:
 410 02fc 15BA      		out 53-32,__zero_reg__
 411               	.LM68:
 412 02fe 17BC      		out 71-32,__zero_reg__
 413               	.LM69:
 414 0300 18BC      		out 72-32,__zero_reg__
 415               	.LM70:
 416 0302 16BC      		out 70-32,__zero_reg__
 417               	.LM71:
 418 0304 17BC      		out 71-32,__zero_reg__
 419               	.LM72:
 420 0306 8823      		tst r24
 421 0308 01F4      		brne .L17
 422               	.LM73:
 423 030a 81E0      		ldi r24,lo8(1)
 424               	.LVL24:
 425 030c 00C0      		rjmp .L24
 426               	.LVL25:
 427               	.L17:
 428               	.LM74:
 429 030e 8130      		cpi r24,lo8(1)
 430 0310 01F4      		brne .L19
 431               	.LM75:
 432 0312 82E0      		ldi r24,lo8(2)
 433               	.LVL26:
 434 0314 00C0      		rjmp .L24
 435               	.LVL27:
 436               	.L19:
 437               	.LM76:
 438 0316 8230      		cpi r24,lo8(2)
 439 0318 01F4      		brne .L20
 440               	.LM77:
 441 031a 83E0      		ldi r24,lo8(3)
 442               	.LVL28:
 443 031c 00C0      		rjmp .L24
 444               	.LVL29:
 445               	.L20:
 446               	.LM78:
 447 031e 8330      		cpi r24,lo8(3)
 448 0320 01F4      		brne .L21
 449               	.LM79:
 450 0322 84E0      		ldi r24,lo8(4)
 451               	.LVL30:
 452 0324 00C0      		rjmp .L24
 453               	.LVL31:
 454               	.L21:
 455               	.LM80:
 456 0326 8430      		cpi r24,lo8(4)
 457 0328 01F4      		brne .L18
 458               	.LM81:
 459 032a 85E0      		ldi r24,lo8(5)
 460               	.LVL32:
 461               	.L24:
 462 032c 85BD      		out 69-32,r24
 463               	.LVL33:
 464               	.L18:
 465               	.LM82:
 466 032e 822F      		mov r24,r18
 467               	.LVL34:
 468 0330 8095      		com r24
 469 0332 F601      		movw r30,r12
 470 0334 8383      		std Z+3,r24
 471               	.LM83:
 472 0336 8381      		ldd r24,Z+3
 473 0338 86BD      		out 70-32,r24
 474               	.LM84:
 475 033a 81E0      		ldi r24,lo8(1)
 476 033c 8093 6E00 		sts 110,r24
 477               	.LM85:
 478               	/* #APP */
 479               	 ;  326 "timebase.c" 1
 480 0340 7894      		sei
 481               	 ;  0 "" 2
 482               	.LVL35:
 483               	/* #NOAPP */
 484               	.L12:
 485               	.LBE598:
 486               	.LM86:
 487 0342 F601      		movw r30,r12
 488 0344 1283      		std Z+2,r17
 489 0346 0183      		std Z+1,r16
 490               	/* epilogue start */
 491               	.LM87:
 492 0348 2A96      		adiw r28,10
 493 034a 0FB6      		in __tmp_reg__,__SREG__
 494 034c F894      		cli
 495 034e DEBF      		out __SP_H__,r29
 496 0350 0FBE      		out __SREG__,__tmp_reg__
 497 0352 CDBF      		out __SP_L__,r28
 498 0354 CF91      		pop r28
 499 0356 DF91      		pop r29
 500 0358 1F91      		pop r17
 501 035a 0F91      		pop r16
 502               	.LVL36:
 503 035c FF90      		pop r15
 504 035e EF90      		pop r14
 505 0360 DF90      		pop r13
 506 0362 CF90      		pop r12
 507 0364 BF90      		pop r11
 508 0366 AF90      		pop r10
 509 0368 9F90      		pop r9
 510 036a 8F90      		pop r8
 511 036c 7F90      		pop r7
 512 036e 0895      		ret
 513               	.LFE7:
 515               	.global	Timebase_Atomic_Operation_Start
 517               	Timebase_Atomic_Operation_Start:
 518               	.LFB8:
 519               	.LM88:
 520               	/* prologue: function */
 521               	/* frame size = 0 */
 522               	.LM89:
 523               	/* #APP */
 524               	 ;  346 "timebase.c" 1
 525 0370 F894      		cli
 526               	 ;  0 "" 2
 527               	/* epilogue start */
 528               	.LM90:
 529               	/* #NOAPP */
 530 0372 0895      		ret
 531               	.LFE8:
 533               	.global	Timebase_Atomic_Operation_End
 535               	Timebase_Atomic_Operation_End:
 536               	.LFB9:
 537               	.LM91:
 538               	/* prologue: function */
 539               	/* frame size = 0 */
 540               	.LM92:
 541               	/* #APP */
 542               	 ;  350 "timebase.c" 1
 543 0374 7894      		sei
 544               	 ;  0 "" 2
 545               	/* epilogue start */
 546               	.LM93:
 547               	/* #NOAPP */
 548 0376 0895      		ret
 549               	.LFE9:
 551               	.global	Timebase_Token_Executing
 553               	Timebase_Token_Executing:
 554               	.LFB10:
 555               	.LM94:
 556               	/* prologue: function */
 557               	/* frame size = 0 */
 558               	.LM95:
 559 0378 E091 0000 		lds r30,Timebase
 560 037c F091 0000 		lds r31,(Timebase)+1
 561 0380 878D      		ldd r24,Z+31
 562               	/* epilogue start */
 563               	.LM96:
 564 0382 0895      		ret
 565               	.LFE10:
 567               	.global	Timebase_Token_Add
 569               	Timebase_Token_Add:
 570               	.LFB11:
 571               	.LM97:
 572               	/* prologue: function */
 573               	/* frame size = 0 */
 574               	.LBB599:
 575               	.LBB600:
 576               	.LM98:
 577 0384 E091 0000 		lds r30,Timebase
 578 0388 F091 0000 		lds r31,(Timebase)+1
 579 038c 878D      		ldd r24,Z+31
 580               	.LBE600:
 581               	.LBE599:
 582               	.LM99:
 583 038e 8F33      		cpi r24,lo8(63)
 584 0390 00F4      		brsh .L33
 585               	.LM100:
 586 0392 878D      		ldd r24,Z+31
 587 0394 8F5F      		subi r24,lo8(-(1))
 588 0396 878F      		std Z+31,r24
 589               	.L33:
 590 0398 0895      		ret
 591               	.LFE11:
 593               	.global	Timebase_Token_Remove
 595               	Timebase_Token_Remove:
 596               	.LFB12:
 597               	.LM101:
 598               	/* prologue: function */
 599               	/* frame size = 0 */
 600               	.LBB601:
 601               	.LBB602:
 602               	.LM102:
 603 039a E091 0000 		lds r30,Timebase
 604 039e F091 0000 		lds r31,(Timebase)+1
 605 03a2 878D      		ldd r24,Z+31
 606               	.LBE602:
 607               	.LBE601:
 608               	.LM103:
 609 03a4 8823      		tst r24
 610 03a6 01F0      		breq .L36
 611               	.LM104:
 612 03a8 878D      		ldd r24,Z+31
 613 03aa 8150      		subi r24,lo8(-(-1))
 614 03ac 878F      		std Z+31,r24
 615               	.L36:
 616 03ae 0895      		ret
 617               	.LFE12:
 619               	.global	Timebase_Token_Remove_All
 621               	Timebase_Token_Remove_All:
 622               	.LFB13:
 623               	.LM105:
 624               	/* prologue: function */
 625               	/* frame size = 0 */
 626               	.LM106:
 627 03b0 E091 0000 		lds r30,Timebase
 628 03b4 F091 0000 		lds r31,(Timebase)+1
 629 03b8 178E      		std Z+31,__zero_reg__
 630               	/* epilogue start */
 631               	.LM107:
 632 03ba 0895      		ret
 633               	.LFE13:
 635               	.global	Timebase_Timer_Get_SubSecondsShadow
 637               	Timebase_Timer_Get_SubSecondsShadow:
 638               	.LFB14:
 639               	.LM108:
 640               	/* prologue: function */
 641               	/* frame size = 0 */
 642               	.LM109:
 643 03bc E091 0000 		lds r30,Timebase
 644 03c0 F091 0000 		lds r31,(Timebase)+1
 645 03c4 2685      		ldd r18,Z+14
 646 03c6 3785      		ldd r19,Z+15
 647               	.LM110:
 648 03c8 C901      		movw r24,r18
 649               	/* epilogue start */
 650 03ca 0895      		ret
 651               	.LFE14:
 653               	.global	Timebase_Timer_Get_SecondsShadow
 655               	Timebase_Timer_Get_SecondsShadow:
 656               	.LFB15:
 657               	.LM111:
 658               	/* prologue: function */
 659               	/* frame size = 0 */
 660               	.LM112:
 661 03cc E091 0000 		lds r30,Timebase
 662 03d0 F091 0000 		lds r31,(Timebase)+1
 663 03d4 2089      		ldd r18,Z+16
 664 03d6 3189      		ldd r19,Z+17
 665 03d8 4289      		ldd r20,Z+18
 666 03da 5389      		ldd r21,Z+19
 667               	.LM113:
 668 03dc B901      		movw r22,r18
 669 03de CA01      		movw r24,r20
 670               	/* epilogue start */
 671 03e0 0895      		ret
 672               	.LFE15:
 674               	.global	Timebase_Timer_Get_SubSeconds
 676               	Timebase_Timer_Get_SubSeconds:
 677               	.LFB16:
 678               	.LM114:
 679               	/* prologue: function */
 680               	/* frame size = 0 */
 681               	.LM115:
 682 03e2 E091 0000 		lds r30,Timebase
 683 03e6 F091 0000 		lds r31,(Timebase)+1
 684 03ea 2085      		ldd r18,Z+8
 685 03ec 3185      		ldd r19,Z+9
 686               	.LM116:
 687 03ee C901      		movw r24,r18
 688               	/* epilogue start */
 689 03f0 0895      		ret
 690               	.LFE16:
 692               	.global	Timebase_Timer_Get_Seconds
 694               	Timebase_Timer_Get_Seconds:
 695               	.LFB17:
 696               	.LM117:
 697               	/* prologue: function */
 698               	/* frame size = 0 */
 699               	.LM118:
 700 03f2 E091 0000 		lds r30,Timebase
 701 03f6 F091 0000 		lds r31,(Timebase)+1
 702 03fa 2285      		ldd r18,Z+10
 703 03fc 3385      		ldd r19,Z+11
 704 03fe 4485      		ldd r20,Z+12
 705 0400 5585      		ldd r21,Z+13
 706               	.LM119:
 707 0402 B901      		movw r22,r18
 708 0404 CA01      		movw r24,r20
 709               	/* epilogue start */
 710 0406 0895      		ret
 711               	.LFE17:
 713               	.global	Timebase_Timer_Set_SubSeconds
 715               	Timebase_Timer_Set_SubSeconds:
 716               	.LFB18:
 717               	.LM120:
 718               	.LVL37:
 719               	/* prologue: function */
 720               	/* frame size = 0 */
 721               	.LM121:
 722 0408 E091 0000 		lds r30,Timebase
 723 040c F091 0000 		lds r31,(Timebase)+1
 724 0410 9187      		std Z+9,r25
 725 0412 8087      		std Z+8,r24
 726               	/* epilogue start */
 727               	.LM122:
 728 0414 0895      		ret
 729               	.LFE18:
 731               	.global	Timebase_Timer_Set_Seconds
 733               	Timebase_Timer_Set_Seconds:
 734               	.LFB19:
 735               	.LM123:
 736               	.LVL38:
 737               	/* prologue: function */
 738               	/* frame size = 0 */
 739               	.LM124:
 740 0416 E091 0000 		lds r30,Timebase
 741 041a F091 0000 		lds r31,(Timebase)+1
 742 041e 6287      		std Z+10,r22
 743 0420 7387      		std Z+11,r23
 744 0422 8487      		std Z+12,r24
 745 0424 9587      		std Z+13,r25
 746               	/* epilogue start */
 747               	.LM125:
 748 0426 0895      		ret
 749               	.LFE19:
 751               	.global	Timebase_Timer_Sync_With_Shadow_Variables
 753               	Timebase_Timer_Sync_With_Shadow_Variables:
 754               	.LFB20:
 755               	.LM126:
 756               	/* prologue: function */
 757               	/* frame size = 0 */
 758               	.LM127:
 759 0428 E091 0000 		lds r30,Timebase
 760 042c F091 0000 		lds r31,(Timebase)+1
 761 0430 8489      		ldd r24,Z+20
 762 0432 8823      		tst r24
 763 0434 01F4      		brne .L53
 764               	.LBB603:
 765               	.LBB604:
 766               	.LM128:
 767               	/* #APP */
 768               	 ;  346 "timebase.c" 1
 769 0436 F894      		cli
 770               	 ;  0 "" 2
 771               	/* #NOAPP */
 772               	.LBE604:
 773               	.LBE603:
 774               	.LM129:
 775 0438 8685      		ldd r24,Z+14
 776 043a 9785      		ldd r25,Z+15
 777 043c 9187      		std Z+9,r25
 778 043e 8087      		std Z+8,r24
 779               	.LM130:
 780 0440 8089      		ldd r24,Z+16
 781 0442 9189      		ldd r25,Z+17
 782 0444 A289      		ldd r26,Z+18
 783 0446 B389      		ldd r27,Z+19
 784 0448 8287      		std Z+10,r24
 785 044a 9387      		std Z+11,r25
 786 044c A487      		std Z+12,r26
 787 044e B587      		std Z+13,r27
 788               	.LBB605:
 789               	.LBB606:
 790               	.LM131:
 791               	/* #APP */
 792               	 ;  350 "timebase.c" 1
 793 0450 7894      		sei
 794               	 ;  0 "" 2
 795               	/* #NOAPP */
 796               	.LBE606:
 797               	.LBE605:
 798               	.LM132:
 799 0452 81E0      		ldi r24,lo8(1)
 800 0454 848B      		std Z+20,r24
 801               	.L53:
 802 0456 0895      		ret
 803               	.LFE20:
 805               	.global	Timebase_Timer_Delay_SubSeconds
 807               	Timebase_Timer_Delay_SubSeconds:
 808               	.LFB21:
 809               	.LM133:
 810               	.LVL39:
 811 0458 6F92      		push r6
 812 045a 7F92      		push r7
 813 045c 8F92      		push r8
 814 045e 9F92      		push r9
 815 0460 AF92      		push r10
 816 0462 BF92      		push r11
 817 0464 CF92      		push r12
 818 0466 DF92      		push r13
 819 0468 EF92      		push r14
 820 046a FF92      		push r15
 821 046c 0F93      		push r16
 822 046e 1F93      		push r17
 823 0470 CF93      		push r28
 824 0472 DF93      		push r29
 825               	/* prologue: function */
 826               	/* frame size = 0 */
 827 0474 5C01      		movw r10,r24
 828               	.LBB607:
 829               	.LBB608:
 830               	.LM134:
 831               	/* #APP */
 832               	 ;  346 "timebase.c" 1
 833 0476 F894      		cli
 834               	 ;  0 "" 2
 835               	/* #NOAPP */
 836               	.LBE608:
 837               	.LBE607:
 838               	.LBB609:
 839               	.LBB610:
 840               	.LM135:
 841 0478 C091 0000 		lds r28,Timebase
 842 047c D091 0000 		lds r29,(Timebase)+1
 843 0480 EE84      		ldd r14,Y+14
 844 0482 FF84      		ldd r15,Y+15
 845               	.LBE610:
 846               	.LBE609:
 847               	.LBB611:
 848               	.LBB612:
 849               	.LM136:
 850 0484 2889      		ldd r18,Y+16
 851 0486 3989      		ldd r19,Y+17
 852 0488 4A89      		ldd r20,Y+18
 853 048a 5B89      		ldd r21,Y+19
 854               	.LVL40:
 855               	.LBE612:
 856               	.LBE611:
 857               	.LBB613:
 858               	.LBB614:
 859               	.LM137:
 860               	/* #APP */
 861               	 ;  350 "timebase.c" 1
 862 048c 7894      		sei
 863               	 ;  0 "" 2
 864               	/* #NOAPP */
 865               	.LBE614:
 866               	.LBE613:
 867               	.LM138:
 868 048e 6981      		ldd r22,Y+1
 869 0490 7A81      		ldd r23,Y+2
 870 0492 80E0      		ldi r24,lo8(0)
 871 0494 90E0      		ldi r25,hi8(0)
 872               	.LVL41:
 873 0496 0E94 0000 		call __mulsi3
 874               	.LVL42:
 875 049a 3B01      		movw r6,r22
 876 049c 4C01      		movw r8,r24
 877               	.LVL43:
 878               	.LM139:
 879 049e 00E0      		ldi r16,lo8(0)
 880 04a0 10E0      		ldi r17,hi8(0)
 881 04a2 6E0C      		add r6,r14
 882 04a4 7F1C      		adc r7,r15
 883 04a6 801E      		adc r8,r16
 884 04a8 911E      		adc r9,r17
 885               	.LM140:
 886 04aa CC24      		clr r12
 887 04ac DD24      		clr r13
 888               	.LVL44:
 889 04ae 6A0C      		add r6,r10
 890 04b0 7B1C      		adc r7,r11
 891 04b2 8C1C      		adc r8,r12
 892 04b4 9D1C      		adc r9,r13
 893 04b6 60E0      		ldi r22,lo8(0)
 894 04b8 70E0      		ldi r23,hi8(0)
 895 04ba 80E0      		ldi r24,hlo8(0)
 896 04bc 90E0      		ldi r25,hhi8(0)
 897               	.LVL45:
 898 04be 00C0      		rjmp .L55
 899               	.L56:
 900               	.LBB615:
 901               	.LBB616:
 902               	.LM141:
 903               	/* #APP */
 904               	 ;  346 "timebase.c" 1
 905 04c0 F894      		cli
 906               	 ;  0 "" 2
 907               	/* #NOAPP */
 908               	.LBE616:
 909               	.LBE615:
 910               	.LBB617:
 911               	.LBB618:
 912               	.LM142:
 913 04c2 EE84      		ldd r14,Y+14
 914 04c4 FF84      		ldd r15,Y+15
 915               	.LBE618:
 916               	.LBE617:
 917               	.LBB619:
 918               	.LBB620:
 919               	.LM143:
 920 04c6 2889      		ldd r18,Y+16
 921 04c8 3989      		ldd r19,Y+17
 922 04ca 4A89      		ldd r20,Y+18
 923 04cc 5B89      		ldd r21,Y+19
 924               	.LVL46:
 925               	.LBE620:
 926               	.LBE619:
 927               	.LBB621:
 928               	.LBB622:
 929               	.LM144:
 930               	/* #APP */
 931               	 ;  350 "timebase.c" 1
 932 04ce 7894      		sei
 933               	 ;  0 "" 2
 934               	/* #NOAPP */
 935               	.LBE622:
 936               	.LBE621:
 937               	.LM145:
 938 04d0 6981      		ldd r22,Y+1
 939 04d2 7A81      		ldd r23,Y+2
 940               	.LVL47:
 941 04d4 80E0      		ldi r24,lo8(0)
 942 04d6 90E0      		ldi r25,hi8(0)
 943 04d8 0E94 0000 		call __mulsi3
 944               	.LVL48:
 945               	.LM146:
 946 04dc 00E0      		ldi r16,lo8(0)
 947 04de 10E0      		ldi r17,hi8(0)
 948 04e0 6E0D      		add r22,r14
 949 04e2 7F1D      		adc r23,r15
 950 04e4 801F      		adc r24,r16
 951 04e6 911F      		adc r25,r17
 952               	.LVL49:
 953               	.L55:
 954               	.LM147:
 955 04e8 6615      		cp r22,r6
 956 04ea 7705      		cpc r23,r7
 957 04ec 8805      		cpc r24,r8
 958 04ee 9905      		cpc r25,r9
 959 04f0 04F0      		brlt .L56
 960               	/* epilogue start */
 961               	.LM148:
 962 04f2 DF91      		pop r29
 963 04f4 CF91      		pop r28
 964 04f6 1F91      		pop r17
 965 04f8 0F91      		pop r16
 966 04fa FF90      		pop r15
 967 04fc EF90      		pop r14
 968 04fe DF90      		pop r13
 969 0500 CF90      		pop r12
 970               	.LVL50:
 971 0502 BF90      		pop r11
 972 0504 AF90      		pop r10
 973               	.LVL51:
 974 0506 9F90      		pop r9
 975 0508 8F90      		pop r8
 976 050a 7F90      		pop r7
 977 050c 6F90      		pop r6
 978               	.LVL52:
 979 050e 0895      		ret
 980               	.LFE21:
 982               	.global	Timebase_Timer_Await_SubSeconds
 984               	Timebase_Timer_Await_SubSeconds:
 985               	.LFB22:
 986               	.LM149:
 987               	.LVL53:
 988               	/* prologue: function */
 989               	/* frame size = 0 */
 990 0510 BC01      		movw r22,r24
 991               	.LBB623:
 992               	.LBB624:
 993               	.LM150:
 994               	/* #APP */
 995               	 ;  346 "timebase.c" 1
 996 0512 F894      		cli
 997               	 ;  0 "" 2
 998               	/* #NOAPP */
 999               	.LBE624:
 1000               	.LBE623:
 1001               	.LBB625:
 1002               	.LBB626:
 1003               	.LM151:
 1004 0514 E091 0000 		lds r30,Timebase
 1005 0518 F091 0000 		lds r31,(Timebase)+1
 1006 051c 00C0      		rjmp .L63
 1007               	.LVL54:
 1008               	.L60:
 1009               	.LBE626:
 1010               	.LBE625:
 1011               	.LBB627:
 1012               	.LBB628:
 1013               	.LM152:
 1014               	/* #APP */
 1015               	 ;  346 "timebase.c" 1
 1016 051e F894      		cli
 1017               	 ;  0 "" 2
 1018               	.LVL55:
 1019               	/* #NOAPP */
 1020               	.L63:
 1021               	.LBE628:
 1022               	.LBE627:
 1023               	.LBB629:
 1024               	.LBB630:
 1025               	.LM153:
 1026 0520 8685      		ldd r24,Z+14
 1027 0522 9785      		ldd r25,Z+15
 1028               	.LBE630:
 1029               	.LBE629:
 1030               	.LBB631:
 1031               	.LBB632:
 1032               	.LM154:
 1033               	/* #APP */
 1034               	 ;  350 "timebase.c" 1
 1035 0524 7894      		sei
 1036               	 ;  0 "" 2
 1037               	/* #NOAPP */
 1038               	.LBE632:
 1039               	.LBE631:
 1040               	.LM155:
 1041 0526 2481      		ldd r18,Z+4
 1042 0528 3581      		ldd r19,Z+5
 1043 052a 4681      		ldd r20,Z+6
 1044 052c 5781      		ldd r21,Z+7
 1045 052e A0E0      		ldi r26,lo8(0)
 1046 0530 B0E0      		ldi r27,hi8(0)
 1047 0532 8217      		cp r24,r18
 1048 0534 9307      		cpc r25,r19
 1049 0536 A407      		cpc r26,r20
 1050 0538 B507      		cpc r27,r21
 1051 053a 01F4      		brne .L60
 1052               	.LBB633:
 1053               	.LBB634:
 1054               	.LM156:
 1055               	/* #APP */
 1056               	 ;  346 "timebase.c" 1
 1057 053c F894      		cli
 1058               	 ;  0 "" 2
 1059               	/* #NOAPP */
 1060               	.LBE634:
 1061               	.LBE633:
 1062               	.LBB635:
 1063               	.LBB636:
 1064               	.LM157:
 1065 053e 8685      		ldd r24,Z+14
 1066 0540 9785      		ldd r25,Z+15
 1067               	.LVL56:
 1068               	.LBE636:
 1069               	.LBE635:
 1070               	.LBB637:
 1071               	.LBB638:
 1072               	.LM158:
 1073               	/* #APP */
 1074               	 ;  350 "timebase.c" 1
 1075 0542 7894      		sei
 1076               	 ;  0 "" 2
 1077               	/* #NOAPP */
 1078               	.LBE638:
 1079               	.LBE637:
 1080               	.LM159:
 1081 0544 A0E0      		ldi r26,lo8(0)
 1082 0546 B0E0      		ldi r27,hi8(0)
 1083               	.LVL57:
 1084 0548 8483      		std Z+4,r24
 1085 054a 9583      		std Z+5,r25
 1086 054c A683      		std Z+6,r26
 1087 054e B783      		std Z+7,r27
 1088               	.LVL58:
 1089               	.LM160:
 1090 0550 2481      		ldd r18,Z+4
 1091 0552 3581      		ldd r19,Z+5
 1092 0554 4681      		ldd r20,Z+6
 1093 0556 5781      		ldd r21,Z+7
 1094 0558 CB01      		movw r24,r22
 1095 055a A0E0      		ldi r26,lo8(0)
 1096 055c B0E0      		ldi r27,hi8(0)
 1097               	.LVL59:
 1098 055e 820F      		add r24,r18
 1099 0560 931F      		adc r25,r19
 1100 0562 A41F      		adc r26,r20
 1101 0564 B51F      		adc r27,r21
 1102               	.LVL60:
 1103 0566 8483      		std Z+4,r24
 1104 0568 9583      		std Z+5,r25
 1105 056a A683      		std Z+6,r26
 1106 056c B783      		std Z+7,r27
 1107               	.LM161:
 1108 056e 2481      		ldd r18,Z+4
 1109 0570 3581      		ldd r19,Z+5
 1110 0572 4681      		ldd r20,Z+6
 1111 0574 5781      		ldd r21,Z+7
 1112 0576 8181      		ldd r24,Z+1
 1113 0578 9281      		ldd r25,Z+2
 1114               	.LVL61:
 1115 057a A0E0      		ldi r26,lo8(0)
 1116 057c B0E0      		ldi r27,hi8(0)
 1117               	.LVL62:
 1118 057e 2817      		cp r18,r24
 1119 0580 3907      		cpc r19,r25
 1120 0582 4A07      		cpc r20,r26
 1121 0584 5B07      		cpc r21,r27
 1122 0586 04F0      		brlt .L62
 1123               	.LM162:
 1124 0588 2481      		ldd r18,Z+4
 1125 058a 3581      		ldd r19,Z+5
 1126 058c 4681      		ldd r20,Z+6
 1127 058e 5781      		ldd r21,Z+7
 1128 0590 8181      		ldd r24,Z+1
 1129 0592 9281      		ldd r25,Z+2
 1130 0594 A0E0      		ldi r26,lo8(0)
 1131 0596 B0E0      		ldi r27,hi8(0)
 1132 0598 281B      		sub r18,r24
 1133 059a 390B      		sbc r19,r25
 1134 059c 4A0B      		sbc r20,r26
 1135 059e 5B0B      		sbc r21,r27
 1136 05a0 2483      		std Z+4,r18
 1137 05a2 3583      		std Z+5,r19
 1138 05a4 4683      		std Z+6,r20
 1139 05a6 5783      		std Z+7,r21
 1140               	.L62:
 1141 05a8 0895      		ret
 1142               	.LFE22:
 1144               	.global	Timebase_Timer_Delay_Seconds
 1146               	Timebase_Timer_Delay_Seconds:
 1147               	.LFB23:
 1148               	.LM163:
 1149               	.LVL63:
 1150               	/* prologue: function */
 1151               	/* frame size = 0 */
 1152               	.LBB639:
 1153               	.LBB640:
 1154               	.LM164:
 1155               	/* #APP */
 1156               	 ;  346 "timebase.c" 1
 1157 05aa F894      		cli
 1158               	 ;  0 "" 2
 1159               	/* #NOAPP */
 1160               	.LBE640:
 1161               	.LBE639:
 1162               	.LBB641:
 1163               	.LBB642:
 1164               	.LM165:
 1165 05ac E091 0000 		lds r30,Timebase
 1166 05b0 F091 0000 		lds r31,(Timebase)+1
 1167 05b4 2089      		ldd r18,Z+16
 1168 05b6 3189      		ldd r19,Z+17
 1169 05b8 4289      		ldd r20,Z+18
 1170 05ba 5389      		ldd r21,Z+19
 1171               	.LVL64:
 1172               	.LBE642:
 1173               	.LBE641:
 1174               	.LBB643:
 1175               	.LBB644:
 1176               	.LM166:
 1177               	/* #APP */
 1178               	 ;  350 "timebase.c" 1
 1179 05bc 7894      		sei
 1180               	 ;  0 "" 2
 1181               	/* #NOAPP */
 1182               	.LBE644:
 1183               	.LBE643:
 1184               	.LM167:
 1185 05be A0E0      		ldi r26,lo8(0)
 1186 05c0 B0E0      		ldi r27,hi8(0)
 1187               	.LVL65:
 1188 05c2 820F      		add r24,r18
 1189 05c4 931F      		adc r25,r19
 1190 05c6 A41F      		adc r26,r20
 1191 05c8 B51F      		adc r27,r21
 1192               	.LVL66:
 1193 05ca 20E0      		ldi r18,lo8(0)
 1194 05cc 30E0      		ldi r19,hi8(0)
 1195 05ce 40E0      		ldi r20,hlo8(0)
 1196 05d0 50E0      		ldi r21,hhi8(0)
 1197               	.LVL67:
 1198 05d2 00C0      		rjmp .L65
 1199               	.L66:
 1200               	.LBB645:
 1201               	.LBB646:
 1202               	.LM168:
 1203               	/* #APP */
 1204               	 ;  346 "timebase.c" 1
 1205 05d4 F894      		cli
 1206               	 ;  0 "" 2
 1207               	/* #NOAPP */
 1208               	.LBE646:
 1209               	.LBE645:
 1210               	.LBB647:
 1211               	.LBB648:
 1212               	.LM169:
 1213 05d6 2089      		ldd r18,Z+16
 1214 05d8 3189      		ldd r19,Z+17
 1215 05da 4289      		ldd r20,Z+18
 1216 05dc 5389      		ldd r21,Z+19
 1217               	.LBE648:
 1218               	.LBE647:
 1219               	.LBB649:
 1220               	.LBB650:
 1221               	.LM170:
 1222               	/* #APP */
 1223               	 ;  350 "timebase.c" 1
 1224 05de 7894      		sei
 1225               	 ;  0 "" 2
 1226               	/* #NOAPP */
 1227               	.L65:
 1228               	.LBE650:
 1229               	.LBE649:
 1230               	.LM171:
 1231 05e0 2817      		cp r18,r24
 1232 05e2 3907      		cpc r19,r25
 1233 05e4 4A07      		cpc r20,r26
 1234 05e6 5B07      		cpc r21,r27
 1235 05e8 04F0      		brlt .L66
 1236               	/* epilogue start */
 1237               	.LM172:
 1238 05ea 0895      		ret
 1239               	.LFE23:
 1241               	.global	Timebase_Window_Timer_Reset
 1243               	Timebase_Window_Timer_Reset:
 1244               	.LFB24:
 1245               	.LM173:
 1246               	/* prologue: function */
 1247               	/* frame size = 0 */
 1248               	.LM174:
 1249 05ec E091 0000 		lds r30,Timebase
 1250 05f0 F091 0000 		lds r31,(Timebase)+1
 1251 05f4 158A      		std Z+21,__zero_reg__
 1252 05f6 168A      		std Z+22,__zero_reg__
 1253 05f8 178A      		std Z+23,__zero_reg__
 1254 05fa 108E      		std Z+24,__zero_reg__
 1255               	.LM175:
 1256 05fc 118E      		std Z+25,__zero_reg__
 1257 05fe 128E      		std Z+26,__zero_reg__
 1258 0600 138E      		std Z+27,__zero_reg__
 1259 0602 148E      		std Z+28,__zero_reg__
 1260               	.LM176:
 1261 0604 158E      		std Z+29,__zero_reg__
 1262               	/* epilogue start */
 1263               	.LM177:
 1264 0606 0895      		ret
 1265               	.LFE24:
 1267               	.global	Timebase_Window_Timer_Start
 1269               	Timebase_Window_Timer_Start:
 1270               	.LFB25:
 1271               	.LM178:
 1272               	/* prologue: function */
 1273               	/* frame size = 0 */
 1274               	.LM179:
 1275 0608 E091 0000 		lds r30,Timebase
 1276 060c F091 0000 		lds r31,(Timebase)+1
 1277 0610 858D      		ldd r24,Z+29
 1278 0612 8823      		tst r24
 1279 0614 01F4      		brne .L72
 1280               	.LBB651:
 1281               	.LBB652:
 1282               	.LM180:
 1283               	/* #APP */
 1284               	 ;  346 "timebase.c" 1
 1285 0616 F894      		cli
 1286               	 ;  0 "" 2
 1287               	/* #NOAPP */
 1288               	.LBE652:
 1289               	.LBE651:
 1290               	.LBB653:
 1291               	.LBB654:
 1292               	.LM181:
 1293 0618 8089      		ldd r24,Z+16
 1294 061a 9189      		ldd r25,Z+17
 1295 061c A289      		ldd r26,Z+18
 1296 061e B389      		ldd r27,Z+19
 1297               	.LBE654:
 1298               	.LBE653:
 1299               	.LM182:
 1300 0620 858B      		std Z+21,r24
 1301 0622 968B      		std Z+22,r25
 1302 0624 A78B      		std Z+23,r26
 1303 0626 B08F      		std Z+24,r27
 1304               	.LBB655:
 1305               	.LBB656:
 1306               	.LM183:
 1307 0628 8685      		ldd r24,Z+14
 1308 062a 9785      		ldd r25,Z+15
 1309               	.LBE656:
 1310               	.LBE655:
 1311               	.LM184:
 1312 062c A0E0      		ldi r26,lo8(0)
 1313 062e B0E0      		ldi r27,hi8(0)
 1314 0630 818F      		std Z+25,r24
 1315 0632 928F      		std Z+26,r25
 1316 0634 A38F      		std Z+27,r26
 1317 0636 B48F      		std Z+28,r27
 1318               	.LBB657:
 1319               	.LBB658:
 1320               	.LM185:
 1321               	/* #APP */
 1322               	 ;  350 "timebase.c" 1
 1323 0638 7894      		sei
 1324               	 ;  0 "" 2
 1325               	/* #NOAPP */
 1326               	.LBE658:
 1327               	.LBE657:
 1328               	.LM186:
 1329 063a 81E0      		ldi r24,lo8(1)
 1330 063c 858F      		std Z+29,r24
 1331               	.L72:
 1332 063e 0895      		ret
 1333               	.LFE25:
 1335               	.global	Timebase_Window_Timer_Get_Interval
 1337               	Timebase_Window_Timer_Get_Interval:
 1338               	.LFB26:
 1339               	.LM187:
 1340 0640 EF92      		push r14
 1341 0642 FF92      		push r15
 1342 0644 0F93      		push r16
 1343 0646 1F93      		push r17
 1344 0648 CF93      		push r28
 1345 064a DF93      		push r29
 1346               	/* prologue: function */
 1347               	/* frame size = 0 */
 1348               	.LM188:
 1349 064c C091 0000 		lds r28,Timebase
 1350 0650 D091 0000 		lds r29,(Timebase)+1
 1351 0654 8D8D      		ldd r24,Y+29
 1352 0656 8130      		cpi r24,lo8(1)
 1353 0658 01F0      		breq .L74
 1354 065a EE24      		clr r14
 1355 065c FF24      		clr r15
 1356 065e 8701      		movw r16,r14
 1357               	.LVL68:
 1358 0660 00C0      		rjmp .L75
 1359               	.LVL69:
 1360               	.L74:
 1361               	.LBB659:
 1362               	.LBB660:
 1363               	.LM189:
 1364               	/* #APP */
 1365               	 ;  346 "timebase.c" 1
 1366 0662 F894      		cli
 1367               	 ;  0 "" 2
 1368               	/* #NOAPP */
 1369               	.LBE660:
 1370               	.LBE659:
 1371               	.LBB661:
 1372               	.LBB662:
 1373               	.LM190:
 1374 0664 2889      		ldd r18,Y+16
 1375 0666 3989      		ldd r19,Y+17
 1376 0668 4A89      		ldd r20,Y+18
 1377 066a 5B89      		ldd r21,Y+19
 1378               	.LVL70:
 1379               	.LBE662:
 1380               	.LBE661:
 1381               	.LBB663:
 1382               	.LBB664:
 1383               	.LM191:
 1384 066c 8E85      		ldd r24,Y+14
 1385 066e 9F85      		ldd r25,Y+15
 1386               	.LBE664:
 1387               	.LBE663:
 1388               	.LM192:
 1389 0670 7C01      		movw r14,r24
 1390               	.LVL71:
 1391 0672 00E0      		ldi r16,lo8(0)
 1392 0674 10E0      		ldi r17,hi8(0)
 1393               	.LVL72:
 1394               	.LBB665:
 1395               	.LBB666:
 1396               	.LM193:
 1397               	/* #APP */
 1398               	 ;  350 "timebase.c" 1
 1399 0676 7894      		sei
 1400               	 ;  0 "" 2
 1401               	/* #NOAPP */
 1402               	.LBE666:
 1403               	.LBE665:
 1404               	.LM194:
 1405 0678 8D89      		ldd r24,Y+21
 1406 067a 9E89      		ldd r25,Y+22
 1407 067c AF89      		ldd r26,Y+23
 1408 067e B88D      		ldd r27,Y+24
 1409 0680 281B      		sub r18,r24
 1410 0682 390B      		sbc r19,r25
 1411 0684 4A0B      		sbc r20,r26
 1412 0686 5B0B      		sbc r21,r27
 1413               	.LVL73:
 1414               	.LM195:
 1415 0688 6981      		ldd r22,Y+1
 1416 068a 7A81      		ldd r23,Y+2
 1417 068c 80E0      		ldi r24,lo8(0)
 1418 068e 90E0      		ldi r25,hi8(0)
 1419 0690 0E94 0000 		call __mulsi3
 1420               	.LVL74:
 1421               	.LM196:
 1422 0694 298D      		ldd r18,Y+25
 1423 0696 3A8D      		ldd r19,Y+26
 1424 0698 4B8D      		ldd r20,Y+27
 1425 069a 5C8D      		ldd r21,Y+28
 1426 069c E21A      		sub r14,r18
 1427 069e F30A      		sbc r15,r19
 1428 06a0 040B      		sbc r16,r20
 1429 06a2 150B      		sbc r17,r21
 1430               	.LVL75:
 1431 06a4 E60E      		add r14,r22
 1432 06a6 F71E      		adc r15,r23
 1433 06a8 081F      		adc r16,r24
 1434 06aa 191F      		adc r17,r25
 1435               	.L75:
 1436               	.LM197:
 1437 06ac B701      		movw r22,r14
 1438               	.LVL76:
 1439 06ae C801      		movw r24,r16
 1440               	.LVL77:
 1441               	/* epilogue start */
 1442 06b0 DF91      		pop r29
 1443 06b2 CF91      		pop r28
 1444 06b4 1F91      		pop r17
 1445 06b6 0F91      		pop r16
 1446 06b8 FF90      		pop r15
 1447 06ba EF90      		pop r14
 1448 06bc 0895      		ret
 1449               	.LFE26:
 1451               	.global	Timebase_Window_Timer_Get_Interval_Reset
 1453               	Timebase_Window_Timer_Get_Interval_Reset:
 1454               	.LFB27:
 1455               	.LM198:
 1456               	/* prologue: function */
 1457               	/* frame size = 0 */
 1458               	.LM199:
 1459 06be 0E94 0000 		call Timebase_Window_Timer_Get_Interval
 1460 06c2 282F      		mov r18,r24
 1461               	.LVL78:
 1462               	.LM200:
 1463 06c4 E091 0000 		lds r30,Timebase
 1464 06c8 F091 0000 		lds r31,(Timebase)+1
 1465 06cc 858D      		ldd r24,Z+29
 1466 06ce 8130      		cpi r24,lo8(1)
 1467 06d0 01F4      		brne .L78
 1468               	.LBB667:
 1469               	.LBB668:
 1470               	.LM201:
 1471 06d2 158A      		std Z+21,__zero_reg__
 1472 06d4 168A      		std Z+22,__zero_reg__
 1473 06d6 178A      		std Z+23,__zero_reg__
 1474 06d8 108E      		std Z+24,__zero_reg__
 1475               	.LM202:
 1476 06da 118E      		std Z+25,__zero_reg__
 1477 06dc 128E      		std Z+26,__zero_reg__
 1478 06de 138E      		std Z+27,__zero_reg__
 1479 06e0 148E      		std Z+28,__zero_reg__
 1480               	.LM203:
 1481 06e2 158E      		std Z+29,__zero_reg__
 1482               	.L78:
 1483               	.LBE668:
 1484               	.LBE667:
 1485               	.LM204:
 1486 06e4 822F      		mov r24,r18
 1487               	/* epilogue start */
 1488 06e6 0895      		ret
 1489               	.LFE27:
 1491               	.global	Timebase_UpCounter_SS_Get_Status
 1493               	Timebase_UpCounter_SS_Get_Status:
 1494               	.LFB28:
 1495               	.LM205:
 1496               	.LVL79:
 1497               	/* prologue: function */
 1498               	/* frame size = 0 */
 1499               	.LM206:
 1500 06e8 E091 0000 		lds r30,Timebase
 1501 06ec F091 0000 		lds r31,(Timebase)+1
 1502 06f0 90E0      		ldi r25,lo8(0)
 1503               	.LVL80:
 1504 06f2 29E1      		ldi r18,lo8(25)
 1505 06f4 30E0      		ldi r19,hi8(25)
 1506 06f6 AC01      		movw r20,r24
 1507 06f8 429F      		mul r20,r18
 1508 06fa C001      		movw r24,r0
 1509 06fc 439F      		mul r20,r19
 1510 06fe 900D      		add r25,r0
 1511 0700 529F      		mul r21,r18
 1512 0702 900D      		add r25,r0
 1513 0704 1124      		clr r1
 1514               	.LVL81:
 1515 0706 E80F      		add r30,r24
 1516 0708 F91F      		adc r31,r25
 1517 070a 80A1      		ldd r24,Z+32
 1518 070c 8695      		lsr r24
 1519               	.LM207:
 1520 070e 8F70      		andi r24,lo8(15)
 1521               	/* epilogue start */
 1522 0710 0895      		ret
 1523               	.LFE28:
 1525               	.global	Timebase_UpCounter_SS_Set_Status
 1527               	Timebase_UpCounter_SS_Set_Status:
 1528               	.LFB29:
 1529               	.LM208:
 1530               	.LVL82:
 1531               	/* prologue: function */
 1532               	/* frame size = 0 */
 1533               	.LM209:
 1534 0712 E091 0000 		lds r30,Timebase
 1535 0716 F091 0000 		lds r31,(Timebase)+1
 1536 071a 90E0      		ldi r25,lo8(0)
 1537               	.LVL83:
 1538 071c 29E1      		ldi r18,lo8(25)
 1539 071e 30E0      		ldi r19,hi8(25)
 1540 0720 AC01      		movw r20,r24
 1541 0722 429F      		mul r20,r18
 1542 0724 C001      		movw r24,r0
 1543 0726 439F      		mul r20,r19
 1544 0728 900D      		add r25,r0
 1545 072a 529F      		mul r21,r18
 1546 072c 900D      		add r25,r0
 1547 072e 1124      		clr r1
 1548               	.LVL84:
 1549 0730 E80F      		add r30,r24
 1550 0732 F91F      		adc r31,r25
 1551 0734 6F70      		andi r22,lo8(15)
 1552               	.LVL85:
 1553 0736 660F      		lsl r22
 1554 0738 80A1      		ldd r24,Z+32
 1555 073a 817E      		andi r24,lo8(-31)
 1556 073c 862B      		or r24,r22
 1557 073e 80A3      		std Z+32,r24
 1558               	/* epilogue start */
 1559               	.LM210:
 1560 0740 0895      		ret
 1561               	.LFE29:
 1563               	.global	Timebase_UpCounter_SS_Get_Value
 1565               	Timebase_UpCounter_SS_Get_Value:
 1566               	.LFB30:
 1567               	.LM211:
 1568               	.LVL86:
 1569               	/* prologue: function */
 1570               	/* frame size = 0 */
 1571               	.LM212:
 1572 0742 E091 0000 		lds r30,Timebase
 1573 0746 F091 0000 		lds r31,(Timebase)+1
 1574 074a 90E0      		ldi r25,lo8(0)
 1575               	.LVL87:
 1576 074c 29E1      		ldi r18,lo8(25)
 1577 074e 30E0      		ldi r19,hi8(25)
 1578 0750 AC01      		movw r20,r24
 1579 0752 429F      		mul r20,r18
 1580 0754 C001      		movw r24,r0
 1581 0756 439F      		mul r20,r19
 1582 0758 900D      		add r25,r0
 1583 075a 529F      		mul r21,r18
 1584 075c 900D      		add r25,r0
 1585 075e 1124      		clr r1
 1586               	.LVL88:
 1587 0760 E80F      		add r30,r24
 1588 0762 F91F      		adc r31,r25
 1589 0764 DF01      		movw r26,r30
 1590 0766 D196      		adiw r26,49
 1591 0768 61A9      		ldd r22,Z+49
 1592 076a 1196      		adiw r26,1
 1593 076c 7C91      		ld r23,X
 1594 076e 1197      		sbiw r26,1
 1595               	.LM213:
 1596 0770 1296      		adiw r26,2
 1597 0772 8C91      		ld r24,X
 1598 0774 1297      		sbiw r26,2
 1599 0776 1396      		adiw r26,3
 1600 0778 9C91      		ld r25,X
 1601               	.LVL89:
 1602               	/* epilogue start */
 1603 077a 0895      		ret
 1604               	.LFE30:
 1606               	.global	Timebase_UpCounter_SS_Set_Value
 1608               	Timebase_UpCounter_SS_Set_Value:
 1609               	.LFB31:
 1610               	.LM214:
 1611               	.LVL90:
 1612 077c CF93      		push r28
 1613 077e DF93      		push r29
 1614               	/* prologue: function */
 1615               	/* frame size = 0 */
 1616               	.LM215:
 1617 0780 C091 0000 		lds r28,Timebase
 1618 0784 D091 0000 		lds r29,(Timebase)+1
 1619 0788 90E0      		ldi r25,lo8(0)
 1620               	.LVL91:
 1621 078a 29E1      		ldi r18,lo8(25)
 1622 078c 30E0      		ldi r19,hi8(25)
 1623 078e FC01      		movw r30,r24
 1624 0790 E29F      		mul r30,r18
 1625 0792 C001      		movw r24,r0
 1626 0794 E39F      		mul r30,r19
 1627 0796 900D      		add r25,r0
 1628 0798 F29F      		mul r31,r18
 1629 079a 900D      		add r25,r0
 1630 079c 1124      		clr r1
 1631               	.LVL92:
 1632 079e C80F      		add r28,r24
 1633 07a0 D91F      		adc r29,r25
 1634 07a2 CA01      		movw r24,r20
 1635               	.LVL93:
 1636 07a4 DB01      		movw r26,r22
 1637 07a6 B7FF      		sbrs r27,7
 1638 07a8 00C0      		rjmp .L87
 1639               	.LVL94:
 1640 07aa 80E0      		ldi r24,lo8(0)
 1641 07ac 90E0      		ldi r25,hi8(0)
 1642 07ae A0E0      		ldi r26,hlo8(0)
 1643 07b0 B0E0      		ldi r27,hhi8(0)
 1644               	.L87:
 1645 07b2 89AB      		std Y+49,r24
 1646 07b4 9AAB      		std Y+50,r25
 1647 07b6 ABAB      		std Y+51,r26
 1648 07b8 BCAB      		std Y+52,r27
 1649               	/* epilogue start */
 1650               	.LM216:
 1651 07ba DF91      		pop r29
 1652 07bc CF91      		pop r28
 1653 07be 0895      		ret
 1654               	.LFE31:
 1656               	.global	Timebase_UpCounter_SS_Get_EndValueSec
 1658               	Timebase_UpCounter_SS_Get_EndValueSec:
 1659               	.LFB32:
 1660               	.LM217:
 1661               	.LVL95:
 1662               	/* prologue: function */
 1663               	/* frame size = 0 */
 1664               	.LM218:
 1665 07c0 E091 0000 		lds r30,Timebase
 1666 07c4 F091 0000 		lds r31,(Timebase)+1
 1667 07c8 90E0      		ldi r25,lo8(0)
 1668               	.LVL96:
 1669 07ca 29E1      		ldi r18,lo8(25)
 1670 07cc 30E0      		ldi r19,hi8(25)
 1671 07ce AC01      		movw r20,r24
 1672 07d0 429F      		mul r20,r18
 1673 07d2 C001      		movw r24,r0
 1674 07d4 439F      		mul r20,r19
 1675 07d6 900D      		add r25,r0
 1676 07d8 529F      		mul r21,r18
 1677 07da 900D      		add r25,r0
 1678 07dc 1124      		clr r1
 1679               	.LVL97:
 1680 07de E80F      		add r30,r24
 1681 07e0 F91F      		adc r31,r25
 1682 07e2 DF01      		movw r26,r30
 1683 07e4 9196      		adiw r26,33
 1684 07e6 61A1      		ldd r22,Z+33
 1685 07e8 1196      		adiw r26,1
 1686 07ea 7C91      		ld r23,X
 1687 07ec 1197      		sbiw r26,1
 1688               	.LM219:
 1689 07ee 1296      		adiw r26,2
 1690 07f0 8C91      		ld r24,X
 1691 07f2 1297      		sbiw r26,2
 1692 07f4 1396      		adiw r26,3
 1693 07f6 9C91      		ld r25,X
 1694               	.LVL98:
 1695               	/* epilogue start */
 1696 07f8 0895      		ret
 1697               	.LFE32:
 1699               	.global	Timebase_UpCounter_SS_Get_EndValueSubSec
 1701               	Timebase_UpCounter_SS_Get_EndValueSubSec:
 1702               	.LFB33:
 1703               	.LM220:
 1704               	.LVL99:
 1705               	/* prologue: function */
 1706               	/* frame size = 0 */
 1707               	.LM221:
 1708 07fa E091 0000 		lds r30,Timebase
 1709 07fe F091 0000 		lds r31,(Timebase)+1
 1710 0802 90E0      		ldi r25,lo8(0)
 1711               	.LVL100:
 1712 0804 29E1      		ldi r18,lo8(25)
 1713 0806 30E0      		ldi r19,hi8(25)
 1714 0808 AC01      		movw r20,r24
 1715 080a 429F      		mul r20,r18
 1716 080c C001      		movw r24,r0
 1717 080e 439F      		mul r20,r19
 1718 0810 900D      		add r25,r0
 1719 0812 529F      		mul r21,r18
 1720 0814 900D      		add r25,r0
 1721 0816 1124      		clr r1
 1722               	.LVL101:
 1723 0818 E80F      		add r30,r24
 1724 081a F91F      		adc r31,r25
 1725 081c DF01      		movw r26,r30
 1726 081e 9596      		adiw r26,37
 1727 0820 65A1      		ldd r22,Z+37
 1728 0822 1196      		adiw r26,1
 1729 0824 7C91      		ld r23,X
 1730 0826 1197      		sbiw r26,1
 1731               	.LM222:
 1732 0828 1296      		adiw r26,2
 1733 082a 8C91      		ld r24,X
 1734 082c 1297      		sbiw r26,2
 1735 082e 1396      		adiw r26,3
 1736 0830 9C91      		ld r25,X
 1737               	.LVL102:
 1738               	/* epilogue start */
 1739 0832 0895      		ret
 1740               	.LFE33:
 1742               	.global	Timebase_UpCounter_SS_Set_EndValueSec
 1744               	Timebase_UpCounter_SS_Set_EndValueSec:
 1745               	.LFB34:
 1746               	.LM223:
 1747               	.LVL103:
 1748               	/* prologue: function */
 1749               	/* frame size = 0 */
 1750               	.LM224:
 1751 0834 E091 0000 		lds r30,Timebase
 1752 0838 F091 0000 		lds r31,(Timebase)+1
 1753 083c 90E0      		ldi r25,lo8(0)
 1754               	.LVL104:
 1755 083e 29E1      		ldi r18,lo8(25)
 1756 0840 30E0      		ldi r19,hi8(25)
 1757 0842 DC01      		movw r26,r24
 1758 0844 A29F      		mul r26,r18
 1759 0846 C001      		movw r24,r0
 1760 0848 A39F      		mul r26,r19
 1761 084a 900D      		add r25,r0
 1762 084c B29F      		mul r27,r18
 1763 084e 900D      		add r25,r0
 1764 0850 1124      		clr r1
 1765               	.LVL105:
 1766 0852 E80F      		add r30,r24
 1767 0854 F91F      		adc r31,r25
 1768 0856 41A3      		std Z+33,r20
 1769 0858 52A3      		std Z+34,r21
 1770 085a 63A3      		std Z+35,r22
 1771 085c 74A3      		std Z+36,r23
 1772               	/* epilogue start */
 1773               	.LM225:
 1774 085e 0895      		ret
 1775               	.LFE34:
 1777               	.global	Timebase_UpCounter_SS_Set_EndValueSubSec
 1779               	Timebase_UpCounter_SS_Set_EndValueSubSec:
 1780               	.LFB35:
 1781               	.LM226:
 1782               	.LVL106:
 1783               	/* prologue: function */
 1784               	/* frame size = 0 */
 1785               	.LM227:
 1786 0860 E091 0000 		lds r30,Timebase
 1787 0864 F091 0000 		lds r31,(Timebase)+1
 1788 0868 90E0      		ldi r25,lo8(0)
 1789               	.LVL107:
 1790 086a 29E1      		ldi r18,lo8(25)
 1791 086c 30E0      		ldi r19,hi8(25)
 1792 086e DC01      		movw r26,r24
 1793 0870 A29F      		mul r26,r18
 1794 0872 C001      		movw r24,r0
 1795 0874 A39F      		mul r26,r19
 1796 0876 900D      		add r25,r0
 1797 0878 B29F      		mul r27,r18
 1798 087a 900D      		add r25,r0
 1799 087c 1124      		clr r1
 1800               	.LVL108:
 1801 087e E80F      		add r30,r24
 1802 0880 F91F      		adc r31,r25
 1803 0882 45A3      		std Z+37,r20
 1804 0884 56A3      		std Z+38,r21
 1805 0886 67A3      		std Z+39,r22
 1806 0888 70A7      		std Z+40,r23
 1807               	/* epilogue start */
 1808               	.LM228:
 1809 088a 0895      		ret
 1810               	.LFE35:
 1812               	.global	Timebase_UpCounter_SS_Get_TargetValue
 1814               	Timebase_UpCounter_SS_Get_TargetValue:
 1815               	.LFB36:
 1816               	.LM229:
 1817               	.LVL109:
 1818               	/* prologue: function */
 1819               	/* frame size = 0 */
 1820               	.LM230:
 1821 088c E091 0000 		lds r30,Timebase
 1822 0890 F091 0000 		lds r31,(Timebase)+1
 1823 0894 90E0      		ldi r25,lo8(0)
 1824               	.LVL110:
 1825 0896 29E1      		ldi r18,lo8(25)
 1826 0898 30E0      		ldi r19,hi8(25)
 1827 089a AC01      		movw r20,r24
 1828 089c 429F      		mul r20,r18
 1829 089e C001      		movw r24,r0
 1830 08a0 439F      		mul r20,r19
 1831 08a2 900D      		add r25,r0
 1832 08a4 529F      		mul r21,r18
 1833 08a6 900D      		add r25,r0
 1834 08a8 1124      		clr r1
 1835               	.LVL111:
 1836 08aa E80F      		add r30,r24
 1837 08ac F91F      		adc r31,r25
 1838 08ae DF01      		movw r26,r30
 1839 08b0 9996      		adiw r26,41
 1840 08b2 61A5      		ldd r22,Z+41
 1841 08b4 1196      		adiw r26,1
 1842 08b6 7C91      		ld r23,X
 1843 08b8 1197      		sbiw r26,1
 1844               	.LM231:
 1845 08ba 1296      		adiw r26,2
 1846 08bc 8C91      		ld r24,X
 1847 08be 1297      		sbiw r26,2
 1848 08c0 1396      		adiw r26,3
 1849 08c2 9C91      		ld r25,X
 1850               	.LVL112:
 1851               	/* epilogue start */
 1852 08c4 0895      		ret
 1853               	.LFE36:
 1855               	.global	Timebase_UpCounter_SS_Set_TargetValue
 1857               	Timebase_UpCounter_SS_Set_TargetValue:
 1858               	.LFB37:
 1859               	.LM232:
 1860               	.LVL113:
 1861               	/* prologue: function */
 1862               	/* frame size = 0 */
 1863               	.LM233:
 1864 08c6 E091 0000 		lds r30,Timebase
 1865 08ca F091 0000 		lds r31,(Timebase)+1
 1866 08ce 90E0      		ldi r25,lo8(0)
 1867               	.LVL114:
 1868 08d0 29E1      		ldi r18,lo8(25)
 1869 08d2 30E0      		ldi r19,hi8(25)
 1870 08d4 DC01      		movw r26,r24
 1871 08d6 A29F      		mul r26,r18
 1872 08d8 C001      		movw r24,r0
 1873 08da A39F      		mul r26,r19
 1874 08dc 900D      		add r25,r0
 1875 08de B29F      		mul r27,r18
 1876 08e0 900D      		add r25,r0
 1877 08e2 1124      		clr r1
 1878               	.LVL115:
 1879 08e4 E80F      		add r30,r24
 1880 08e6 F91F      		adc r31,r25
 1881 08e8 41A7      		std Z+41,r20
 1882 08ea 52A7      		std Z+42,r21
 1883 08ec 63A7      		std Z+43,r22
 1884 08ee 74A7      		std Z+44,r23
 1885               	/* epilogue start */
 1886               	.LM234:
 1887 08f0 0895      		ret
 1888               	.LFE37:
 1890               	.global	Timebase_UpCounter_SS_Get_TemporaryValue
 1892               	Timebase_UpCounter_SS_Get_TemporaryValue:
 1893               	.LFB38:
 1894               	.LM235:
 1895               	.LVL116:
 1896               	/* prologue: function */
 1897               	/* frame size = 0 */
 1898               	.LM236:
 1899 08f2 E091 0000 		lds r30,Timebase
 1900 08f6 F091 0000 		lds r31,(Timebase)+1
 1901 08fa 90E0      		ldi r25,lo8(0)
 1902               	.LVL117:
 1903 08fc 29E1      		ldi r18,lo8(25)
 1904 08fe 30E0      		ldi r19,hi8(25)
 1905 0900 AC01      		movw r20,r24
 1906 0902 429F      		mul r20,r18
 1907 0904 C001      		movw r24,r0
 1908 0906 439F      		mul r20,r19
 1909 0908 900D      		add r25,r0
 1910 090a 529F      		mul r21,r18
 1911 090c 900D      		add r25,r0
 1912 090e 1124      		clr r1
 1913               	.LVL118:
 1914 0910 E80F      		add r30,r24
 1915 0912 F91F      		adc r31,r25
 1916 0914 DF01      		movw r26,r30
 1917 0916 9D96      		adiw r26,45
 1918 0918 65A5      		ldd r22,Z+45
 1919 091a 1196      		adiw r26,1
 1920 091c 7C91      		ld r23,X
 1921 091e 1197      		sbiw r26,1
 1922               	.LM237:
 1923 0920 1296      		adiw r26,2
 1924 0922 8C91      		ld r24,X
 1925 0924 1297      		sbiw r26,2
 1926 0926 1396      		adiw r26,3
 1927 0928 9C91      		ld r25,X
 1928               	.LVL119:
 1929               	/* epilogue start */
 1930 092a 0895      		ret
 1931               	.LFE38:
 1933               	.global	Timebase_UpCounter_SS_Set_TemporaryValue
 1935               	Timebase_UpCounter_SS_Set_TemporaryValue:
 1936               	.LFB39:
 1937               	.LM238:
 1938               	.LVL120:
 1939 092c CF93      		push r28
 1940 092e DF93      		push r29
 1941               	/* prologue: function */
 1942               	/* frame size = 0 */
 1943               	.LM239:
 1944 0930 C091 0000 		lds r28,Timebase
 1945 0934 D091 0000 		lds r29,(Timebase)+1
 1946 0938 90E0      		ldi r25,lo8(0)
 1947               	.LVL121:
 1948 093a 29E1      		ldi r18,lo8(25)
 1949 093c 30E0      		ldi r19,hi8(25)
 1950 093e FC01      		movw r30,r24
 1951 0940 E29F      		mul r30,r18
 1952 0942 C001      		movw r24,r0
 1953 0944 E39F      		mul r30,r19
 1954 0946 900D      		add r25,r0
 1955 0948 F29F      		mul r31,r18
 1956 094a 900D      		add r25,r0
 1957 094c 1124      		clr r1
 1958               	.LVL122:
 1959 094e C80F      		add r28,r24
 1960 0950 D91F      		adc r29,r25
 1961 0952 CA01      		movw r24,r20
 1962               	.LVL123:
 1963 0954 DB01      		movw r26,r22
 1964 0956 B7FF      		sbrs r27,7
 1965 0958 00C0      		rjmp .L104
 1966               	.LVL124:
 1967 095a 80E0      		ldi r24,lo8(0)
 1968 095c 90E0      		ldi r25,hi8(0)
 1969 095e A0E0      		ldi r26,hlo8(0)
 1970 0960 B0E0      		ldi r27,hhi8(0)
 1971               	.L104:
 1972 0962 8DA7      		std Y+45,r24
 1973 0964 9EA7      		std Y+46,r25
 1974 0966 AFA7      		std Y+47,r26
 1975 0968 B8AB      		std Y+48,r27
 1976               	/* epilogue start */
 1977               	.LM240:
 1978 096a DF91      		pop r29
 1979 096c CF91      		pop r28
 1980 096e 0895      		ret
 1981               	.LFE39:
 1983               	.global	Timebase_UpCounter_SS_Get_PeriodValue
 1985               	Timebase_UpCounter_SS_Get_PeriodValue:
 1986               	.LFB40:
 1987               	.LM241:
 1988               	.LVL125:
 1989               	/* prologue: function */
 1990               	/* frame size = 0 */
 1991               	.LM242:
 1992 0970 E091 0000 		lds r30,Timebase
 1993 0974 F091 0000 		lds r31,(Timebase)+1
 1994 0978 90E0      		ldi r25,lo8(0)
 1995               	.LVL126:
 1996 097a 29E1      		ldi r18,lo8(25)
 1997 097c 30E0      		ldi r19,hi8(25)
 1998 097e AC01      		movw r20,r24
 1999 0980 429F      		mul r20,r18
 2000 0982 C001      		movw r24,r0
 2001 0984 439F      		mul r20,r19
 2002 0986 900D      		add r25,r0
 2003 0988 529F      		mul r21,r18
 2004 098a 900D      		add r25,r0
 2005 098c 1124      		clr r1
 2006               	.LVL127:
 2007 098e E80F      		add r30,r24
 2008 0990 F91F      		adc r31,r25
 2009 0992 DF01      		movw r26,r30
 2010 0994 D596      		adiw r26,53
 2011 0996 65A9      		ldd r22,Z+53
 2012 0998 1196      		adiw r26,1
 2013 099a 7C91      		ld r23,X
 2014 099c 1197      		sbiw r26,1
 2015               	.LM243:
 2016 099e 1296      		adiw r26,2
 2017 09a0 8C91      		ld r24,X
 2018 09a2 1297      		sbiw r26,2
 2019 09a4 1396      		adiw r26,3
 2020 09a6 9C91      		ld r25,X
 2021               	.LVL128:
 2022               	/* epilogue start */
 2023 09a8 0895      		ret
 2024               	.LFE40:
 2026               	.global	Timebase_UpCounter_SS_Set_PeriodValue
 2028               	Timebase_UpCounter_SS_Set_PeriodValue:
 2029               	.LFB41:
 2030               	.LM244:
 2031               	.LVL129:
 2032               	/* prologue: function */
 2033               	/* frame size = 0 */
 2034               	.LM245:
 2035 09aa E091 0000 		lds r30,Timebase
 2036 09ae F091 0000 		lds r31,(Timebase)+1
 2037 09b2 90E0      		ldi r25,lo8(0)
 2038               	.LVL130:
 2039 09b4 29E1      		ldi r18,lo8(25)
 2040 09b6 30E0      		ldi r19,hi8(25)
 2041 09b8 DC01      		movw r26,r24
 2042 09ba A29F      		mul r26,r18
 2043 09bc C001      		movw r24,r0
 2044 09be A39F      		mul r26,r19
 2045 09c0 900D      		add r25,r0
 2046 09c2 B29F      		mul r27,r18
 2047 09c4 900D      		add r25,r0
 2048 09c6 1124      		clr r1
 2049               	.LVL131:
 2050 09c8 E80F      		add r30,r24
 2051 09ca F91F      		adc r31,r25
 2052 09cc 45AB      		std Z+53,r20
 2053 09ce 56AB      		std Z+54,r21
 2054 09d0 67AB      		std Z+55,r22
 2055 09d2 70AF      		std Z+56,r23
 2056               	/* epilogue start */
 2057               	.LM246:
 2058 09d4 0895      		ret
 2059               	.LFE41:
 2061               	.global	Timebase_UpCounter_SS_Get_Period_Flag
 2063               	Timebase_UpCounter_SS_Get_Period_Flag:
 2064               	.LFB42:
 2065               	.LM247:
 2066               	.LVL132:
 2067               	/* prologue: function */
 2068               	/* frame size = 0 */
 2069               	.LM248:
 2070 09d6 E091 0000 		lds r30,Timebase
 2071 09da F091 0000 		lds r31,(Timebase)+1
 2072 09de 90E0      		ldi r25,lo8(0)
 2073               	.LVL133:
 2074 09e0 29E1      		ldi r18,lo8(25)
 2075 09e2 30E0      		ldi r19,hi8(25)
 2076 09e4 AC01      		movw r20,r24
 2077 09e6 429F      		mul r20,r18
 2078 09e8 C001      		movw r24,r0
 2079 09ea 439F      		mul r20,r19
 2080 09ec 900D      		add r25,r0
 2081 09ee 529F      		mul r21,r18
 2082 09f0 900D      		add r25,r0
 2083 09f2 1124      		clr r1
 2084               	.LVL134:
 2085 09f4 E80F      		add r30,r24
 2086 09f6 F91F      		adc r31,r25
 2087 09f8 80A1      		ldd r24,Z+32
 2088               	.LM249:
 2089 09fa 8170      		andi r24,lo8(1)
 2090               	/* epilogue start */
 2091 09fc 0895      		ret
 2092               	.LFE42:
 2094               	.global	Timebase_UpCounter_SS_Set_Period_Flag
 2096               	Timebase_UpCounter_SS_Set_Period_Flag:
 2097               	.LFB43:
 2098               	.LM250:
 2099               	.LVL135:
 2100               	/* prologue: function */
 2101               	/* frame size = 0 */
 2102               	.LM251:
 2103 09fe E091 0000 		lds r30,Timebase
 2104 0a02 F091 0000 		lds r31,(Timebase)+1
 2105 0a06 90E0      		ldi r25,lo8(0)
 2106               	.LVL136:
 2107 0a08 29E1      		ldi r18,lo8(25)
 2108 0a0a 30E0      		ldi r19,hi8(25)
 2109 0a0c AC01      		movw r20,r24
 2110 0a0e 429F      		mul r20,r18
 2111 0a10 C001      		movw r24,r0
 2112 0a12 439F      		mul r20,r19
 2113 0a14 900D      		add r25,r0
 2114 0a16 529F      		mul r21,r18
 2115 0a18 900D      		add r25,r0
 2116 0a1a 1124      		clr r1
 2117               	.LVL137:
 2118 0a1c E80F      		add r30,r24
 2119 0a1e F91F      		adc r31,r25
 2120 0a20 80A1      		ldd r24,Z+32
 2121 0a22 8160      		ori r24,lo8(1)
 2122 0a24 80A3      		std Z+32,r24
 2123               	/* epilogue start */
 2124               	.LM252:
 2125 0a26 0895      		ret
 2126               	.LFE43:
 2128               	.global	Timebase_UpCounter_SS_Clear_Period_Flag
 2130               	Timebase_UpCounter_SS_Clear_Period_Flag:
 2131               	.LFB44:
 2132               	.LM253:
 2133               	.LVL138:
 2134               	/* prologue: function */
 2135               	/* frame size = 0 */
 2136               	.LM254:
 2137 0a28 E091 0000 		lds r30,Timebase
 2138 0a2c F091 0000 		lds r31,(Timebase)+1
 2139 0a30 90E0      		ldi r25,lo8(0)
 2140               	.LVL139:
 2141 0a32 29E1      		ldi r18,lo8(25)
 2142 0a34 30E0      		ldi r19,hi8(25)
 2143 0a36 AC01      		movw r20,r24
 2144 0a38 429F      		mul r20,r18
 2145 0a3a C001      		movw r24,r0
 2146 0a3c 439F      		mul r20,r19
 2147 0a3e 900D      		add r25,r0
 2148 0a40 529F      		mul r21,r18
 2149 0a42 900D      		add r25,r0
 2150 0a44 1124      		clr r1
 2151               	.LVL140:
 2152 0a46 E80F      		add r30,r24
 2153 0a48 F91F      		adc r31,r25
 2154 0a4a 80A1      		ldd r24,Z+32
 2155 0a4c 8E7F      		andi r24,lo8(-2)
 2156 0a4e 80A3      		std Z+32,r24
 2157               	/* epilogue start */
 2158               	.LM255:
 2159 0a50 0895      		ret
 2160               	.LFE44:
 2162               	.global	Timebase_UpCounter_SS_Reset
 2164               	Timebase_UpCounter_SS_Reset:
 2165               	.LFB45:
 2166               	.LM256:
 2167               	.LVL141:
 2168               	/* prologue: function */
 2169               	/* frame size = 0 */
 2170               	.LBB669:
 2171               	.LBB670:
 2172               	.LM257:
 2173 0a52 E091 0000 		lds r30,Timebase
 2174 0a56 F091 0000 		lds r31,(Timebase)+1
 2175 0a5a 90E0      		ldi r25,lo8(0)
 2176 0a5c 29E1      		ldi r18,lo8(25)
 2177 0a5e 30E0      		ldi r19,hi8(25)
 2178 0a60 AC01      		movw r20,r24
 2179               	.LVL142:
 2180 0a62 429F      		mul r20,r18
 2181 0a64 C001      		movw r24,r0
 2182 0a66 439F      		mul r20,r19
 2183 0a68 900D      		add r25,r0
 2184 0a6a 529F      		mul r21,r18
 2185 0a6c 900D      		add r25,r0
 2186 0a6e 1124      		clr r1
 2187 0a70 E80F      		add r30,r24
 2188 0a72 F91F      		adc r31,r25
 2189 0a74 80A1      		ldd r24,Z+32
 2190               	.LBE670:
 2191               	.LBE669:
 2192               	.LBB671:
 2193               	.LBB672:
 2194               	.LM258:
 2195 0a76 11AA      		std Z+49,__zero_reg__
 2196 0a78 12AA      		std Z+50,__zero_reg__
 2197 0a7a 13AA      		std Z+51,__zero_reg__
 2198 0a7c 14AA      		std Z+52,__zero_reg__
 2199               	.LBE672:
 2200               	.LBE671:
 2201               	.LBB673:
 2202               	.LBB674:
 2203               	.LM259:
 2204 0a7e 11A2      		std Z+33,__zero_reg__
 2205 0a80 12A2      		std Z+34,__zero_reg__
 2206 0a82 13A2      		std Z+35,__zero_reg__
 2207 0a84 14A2      		std Z+36,__zero_reg__
 2208               	.LBE674:
 2209               	.LBE673:
 2210               	.LBB675:
 2211               	.LBB676:
 2212               	.LM260:
 2213 0a86 15A2      		std Z+37,__zero_reg__
 2214 0a88 16A2      		std Z+38,__zero_reg__
 2215 0a8a 17A2      		std Z+39,__zero_reg__
 2216 0a8c 10A6      		std Z+40,__zero_reg__
 2217               	.LBE676:
 2218               	.LBE675:
 2219               	.LBB677:
 2220               	.LBB678:
 2221               	.LM261:
 2222 0a8e 11A6      		std Z+41,__zero_reg__
 2223 0a90 12A6      		std Z+42,__zero_reg__
 2224 0a92 13A6      		std Z+43,__zero_reg__
 2225 0a94 14A6      		std Z+44,__zero_reg__
 2226               	.LBE678:
 2227               	.LBE677:
 2228               	.LBB679:
 2229               	.LBB680:
 2230               	.LM262:
 2231 0a96 15A6      		std Z+45,__zero_reg__
 2232 0a98 16A6      		std Z+46,__zero_reg__
 2233 0a9a 17A6      		std Z+47,__zero_reg__
 2234 0a9c 10AA      		std Z+48,__zero_reg__
 2235               	.LBE680:
 2236               	.LBE679:
 2237               	.LBB681:
 2238               	.LBB682:
 2239               	.LM263:
 2240 0a9e 15AA      		std Z+53,__zero_reg__
 2241 0aa0 16AA      		std Z+54,__zero_reg__
 2242 0aa2 17AA      		std Z+55,__zero_reg__
 2243 0aa4 10AE      		std Z+56,__zero_reg__
 2244               	.LBE682:
 2245               	.LBE681:
 2246               	.LBB683:
 2247               	.LBB684:
 2248               	.LM264:
 2249 0aa6 807E      		andi r24,lo8(-32)
 2250 0aa8 80A3      		std Z+32,r24
 2251               	/* epilogue start */
 2252               	.LBE684:
 2253               	.LBE683:
 2254               	.LM265:
 2255 0aaa 0895      		ret
 2256               	.LFE45:
 2258               	.global	Timebase_UpCounter_SS_Clear_All_Flags
 2260               	Timebase_UpCounter_SS_Clear_All_Flags:
 2261               	.LFB46:
 2262               	.LM266:
 2263               	.LVL143:
 2264               	/* prologue: function */
 2265               	/* frame size = 0 */
 2266               	.LM267:
 2267 0aac 0E94 0000 		call Timebase_UpCounter_SS_Reset
 2268               	.LVL144:
 2269               	/* epilogue start */
 2270               	.LM268:
 2271 0ab0 0895      		ret
 2272               	.LFE46:
 2274               	.global	Timebase_UpCounter_SS_Start
 2276               	Timebase_UpCounter_SS_Start:
 2277               	.LFB47:
 2278               	.LM269:
 2279               	.LVL145:
 2280               	/* prologue: function */
 2281               	/* frame size = 0 */
 2282               	.LBB685:
 2283               	.LBB686:
 2284               	.LM270:
 2285 0ab2 E091 0000 		lds r30,Timebase
 2286 0ab6 F091 0000 		lds r31,(Timebase)+1
 2287 0aba 90E0      		ldi r25,lo8(0)
 2288               	.LBE686:
 2289               	.LBE685:
 2290               	.LM271:
 2291 0abc 29E1      		ldi r18,lo8(25)
 2292 0abe 30E0      		ldi r19,hi8(25)
 2293 0ac0 AC01      		movw r20,r24
 2294               	.LVL146:
 2295 0ac2 429F      		mul r20,r18
 2296 0ac4 C001      		movw r24,r0
 2297 0ac6 439F      		mul r20,r19
 2298 0ac8 900D      		add r25,r0
 2299 0aca 529F      		mul r21,r18
 2300 0acc 900D      		add r25,r0
 2301 0ace 1124      		clr r1
 2302 0ad0 E80F      		add r30,r24
 2303 0ad2 F91F      		adc r31,r25
 2304 0ad4 90A1      		ldd r25,Z+32
 2305 0ad6 892F      		mov r24,r25
 2306 0ad8 8695      		lsr r24
 2307 0ada 8F70      		andi r24,lo8(15)
 2308 0adc 8130      		cpi r24,lo8(1)
 2309 0ade 01F0      		breq .L122
 2310               	.LBB687:
 2311               	.LBB688:
 2312               	.LM272:
 2313 0ae0 917E      		andi r25,lo8(-31)
 2314 0ae2 9260      		ori r25,lo8(2)
 2315 0ae4 90A3      		std Z+32,r25
 2316               	.L122:
 2317 0ae6 0895      		ret
 2318               	.LBE688:
 2319               	.LBE687:
 2320               	.LFE47:
 2322               	.global	Timebase_UpCounter_SS_Stop
 2324               	Timebase_UpCounter_SS_Stop:
 2325               	.LFB48:
 2326               	.LM273:
 2327               	.LVL147:
 2328               	/* prologue: function */
 2329               	/* frame size = 0 */
 2330               	.LBB689:
 2331               	.LBB690:
 2332               	.LM274:
 2333 0ae8 E091 0000 		lds r30,Timebase
 2334 0aec F091 0000 		lds r31,(Timebase)+1
 2335 0af0 90E0      		ldi r25,lo8(0)
 2336               	.LBE690:
 2337               	.LBE689:
 2338               	.LM275:
 2339 0af2 29E1      		ldi r18,lo8(25)
 2340 0af4 30E0      		ldi r19,hi8(25)
 2341 0af6 AC01      		movw r20,r24
 2342               	.LVL148:
 2343 0af8 429F      		mul r20,r18
 2344 0afa C001      		movw r24,r0
 2345 0afc 439F      		mul r20,r19
 2346 0afe 900D      		add r25,r0
 2347 0b00 529F      		mul r21,r18
 2348 0b02 900D      		add r25,r0
 2349 0b04 1124      		clr r1
 2350 0b06 E80F      		add r30,r24
 2351 0b08 F91F      		adc r31,r25
 2352 0b0a 90A1      		ldd r25,Z+32
 2353 0b0c 892F      		mov r24,r25
 2354 0b0e 8695      		lsr r24
 2355 0b10 8F70      		andi r24,lo8(15)
 2356 0b12 8230      		cpi r24,lo8(2)
 2357 0b14 01F0      		breq .L125
 2358               	.LBB691:
 2359               	.LBB692:
 2360               	.LM276:
 2361 0b16 917E      		andi r25,lo8(-31)
 2362 0b18 9460      		ori r25,lo8(4)
 2363 0b1a 90A3      		std Z+32,r25
 2364               	.L125:
 2365 0b1c 0895      		ret
 2366               	.LBE692:
 2367               	.LBE691:
 2368               	.LFE48:
 2370               	.global	Timebase_UpCounter_SS_Set_Securely
 2372               	Timebase_UpCounter_SS_Set_Securely:
 2373               	.LFB49:
 2374               	.LM277:
 2375               	.LVL149:
 2376 0b1e 2F92      		push r2
 2377 0b20 3F92      		push r3
 2378 0b22 4F92      		push r4
 2379 0b24 5F92      		push r5
 2380 0b26 6F92      		push r6
 2381 0b28 7F92      		push r7
 2382 0b2a 8F92      		push r8
 2383 0b2c 9F92      		push r9
 2384 0b2e AF92      		push r10
 2385 0b30 BF92      		push r11
 2386 0b32 CF92      		push r12
 2387 0b34 DF92      		push r13
 2388 0b36 EF92      		push r14
 2389 0b38 FF92      		push r15
 2390 0b3a 0F93      		push r16
 2391 0b3c 1F93      		push r17
 2392 0b3e DF93      		push r29
 2393 0b40 CF93      		push r28
 2394 0b42 00D0      		rcall .
 2395 0b44 00D0      		rcall .
 2396 0b46 CDB7      		in r28,__SP_L__
 2397 0b48 DEB7      		in r29,__SP_H__
 2398               	/* prologue: function */
 2399               	/* frame size = 4 */
 2400 0b4a 4A01      		movw r8,r20
 2401 0b4c 5B01      		movw r10,r22
 2402               	.LBB693:
 2403               	.LBB694:
 2404               	.LM278:
 2405 0b4e 2091 0000 		lds r18,Timebase
 2406 0b52 3091 0000 		lds r19,(Timebase)+1
 2407 0b56 3C83      		std Y+4,r19
 2408 0b58 2B83      		std Y+3,r18
 2409 0b5a A82F      		mov r26,r24
 2410 0b5c B0E0      		ldi r27,lo8(0)
 2411 0b5e BA83      		std Y+2,r27
 2412 0b60 A983      		std Y+1,r26
 2413               	.LBE694:
 2414               	.LBE693:
 2415               	.LM279:
 2416 0b62 89E1      		ldi r24,lo8(25)
 2417 0b64 90E0      		ldi r25,hi8(25)
 2418               	.LVL150:
 2419 0b66 A89F      		mul r26,r24
 2420 0b68 F001      		movw r30,r0
 2421 0b6a A99F      		mul r26,r25
 2422 0b6c F00D      		add r31,r0
 2423 0b6e B89F      		mul r27,r24
 2424 0b70 F00D      		add r31,r0
 2425 0b72 1124      		clr r1
 2426 0b74 E20F      		add r30,r18
 2427 0b76 F31F      		adc r31,r19
 2428 0b78 80A1      		ldd r24,Z+32
 2429 0b7a 8695      		lsr r24
 2430 0b7c 8F70      		andi r24,lo8(15)
 2431 0b7e 01F0      		breq .+2
 2432 0b80 00C0      		rjmp .L129
 2433               	.LVL151:
 2434               	.LBB695:
 2435               	.LBB696:
 2436               	.LBB697:
 2437               	.LM280:
 2438 0b82 11AA      		std Z+49,__zero_reg__
 2439 0b84 12AA      		std Z+50,__zero_reg__
 2440 0b86 13AA      		std Z+51,__zero_reg__
 2441 0b88 14AA      		std Z+52,__zero_reg__
 2442               	.LBE697:
 2443               	.LBE696:
 2444               	.LBB698:
 2445               	.LBB699:
 2446               	.LM281:
 2447 0b8a 15A6      		std Z+45,__zero_reg__
 2448 0b8c 16A6      		std Z+46,__zero_reg__
 2449 0b8e 17A6      		std Z+47,__zero_reg__
 2450 0b90 10AA      		std Z+48,__zero_reg__
 2451               	.LBE699:
 2452               	.LBE698:
 2453               	.LBB700:
 2454               	.LBB701:
 2455               	.LM282:
 2456 0b92 41A7      		std Z+41,r20
 2457 0b94 52A7      		std Z+42,r21
 2458 0b96 63A7      		std Z+43,r22
 2459 0b98 74A7      		std Z+44,r23
 2460               	.LBE701:
 2461               	.LBE700:
 2462               	.LBB702:
 2463               	.LBB703:
 2464               	.LM283:
 2465 0b9a F901      		movw r30,r18
 2466 0b9c C084      		ldd r12,Z+8
 2467 0b9e D184      		ldd r13,Z+9
 2468               	.LBE703:
 2469               	.LBE702:
 2470               	.LBB704:
 2471               	.LBB705:
 2472               	.LM284:
 2473 0ba0 2284      		ldd r2,Z+10
 2474 0ba2 3384      		ldd r3,Z+11
 2475 0ba4 4484      		ldd r4,Z+12
 2476 0ba6 5584      		ldd r5,Z+13
 2477               	.LVL152:
 2478               	.LBE705:
 2479               	.LBE704:
 2480               	.LM285:
 2481 0ba8 2181      		ldd r18,Z+1
 2482 0baa 3281      		ldd r19,Z+2
 2483 0bac 40E0      		ldi r20,lo8(0)
 2484 0bae 50E0      		ldi r21,hi8(0)
 2485 0bb0 C501      		movw r24,r10
 2486 0bb2 B401      		movw r22,r8
 2487 0bb4 0E94 0000 		call __divmodsi4
 2488 0bb8 7B01      		movw r14,r22
 2489 0bba 8C01      		movw r16,r24
 2490               	.LM286:
 2491 0bbc AB81      		ldd r26,Y+3
 2492 0bbe BC81      		ldd r27,Y+4
 2493 0bc0 1196      		adiw r26,1
 2494 0bc2 2D91      		ld r18,X+
 2495 0bc4 3C91      		ld r19,X
 2496 0bc6 1297      		sbiw r26,1+1
 2497 0bc8 40E0      		ldi r20,lo8(0)
 2498 0bca 50E0      		ldi r21,hi8(0)
 2499 0bcc C501      		movw r24,r10
 2500 0bce B401      		movw r22,r8
 2501 0bd0 0E94 0000 		call __divmodsi4
 2502 0bd4 C901      		movw r24,r18
 2503 0bd6 DA01      		movw r26,r20
 2504 0bd8 3C01      		movw r6,r24
 2505 0bda 4D01      		movw r8,r26
 2506               	.LVL153:
 2507               	.LM287:
 2508 0bdc 5601      		movw r10,r12
 2509               	.LVL154:
 2510 0bde CC24      		clr r12
 2511 0be0 DD24      		clr r13
 2512               	.LVL155:
 2513 0be2 AE0C      		add r10,r14
 2514 0be4 BF1C      		adc r11,r15
 2515 0be6 C01E      		adc r12,r16
 2516 0be8 D11E      		adc r13,r17
 2517               	.LVL156:
 2518               	.LM288:
 2519 0bea EB81      		ldd r30,Y+3
 2520 0bec FC81      		ldd r31,Y+4
 2521 0bee 8181      		ldd r24,Z+1
 2522 0bf0 9281      		ldd r25,Z+2
 2523               	.LVL157:
 2524 0bf2 A0E0      		ldi r26,lo8(0)
 2525 0bf4 B0E0      		ldi r27,hi8(0)
 2526 0bf6 A816      		cp r10,r24
 2527 0bf8 B906      		cpc r11,r25
 2528 0bfa CA06      		cpc r12,r26
 2529 0bfc DB06      		cpc r13,r27
 2530 0bfe 04F0      		brlt .L128
 2531               	.LM289:
 2532 0c00 0894      		sec
 2533 0c02 611C      		adc r6,__zero_reg__
 2534 0c04 711C      		adc r7,__zero_reg__
 2535 0c06 811C      		adc r8,__zero_reg__
 2536 0c08 911C      		adc r9,__zero_reg__
 2537               	.LM290:
 2538 0c0a 2181      		ldd r18,Z+1
 2539 0c0c 3281      		ldd r19,Z+2
 2540 0c0e 40E0      		ldi r20,lo8(0)
 2541 0c10 50E0      		ldi r21,hi8(0)
 2542 0c12 C601      		movw r24,r12
 2543 0c14 B501      		movw r22,r10
 2544 0c16 0E94 0000 		call __divmodsi4
 2545 0c1a AC01      		movw r20,r24
 2546 0c1c CB01      		movw r24,r22
 2547 0c1e DA01      		movw r26,r20
 2548 0c20 5C01      		movw r10,r24
 2549 0c22 6D01      		movw r12,r26
 2550               	.L128:
 2551               	.LBB706:
 2552               	.LBB707:
 2553               	.LM291:
 2554 0c24 89E1      		ldi r24,lo8(25)
 2555 0c26 90E0      		ldi r25,hi8(25)
 2556 0c28 2981      		ldd r18,Y+1
 2557 0c2a 3A81      		ldd r19,Y+2
 2558 0c2c 289F      		mul r18,r24
 2559 0c2e F001      		movw r30,r0
 2560 0c30 299F      		mul r18,r25
 2561 0c32 F00D      		add r31,r0
 2562 0c34 389F      		mul r19,r24
 2563 0c36 F00D      		add r31,r0
 2564 0c38 1124      		clr r1
 2565 0c3a 8B81      		ldd r24,Y+3
 2566 0c3c 9C81      		ldd r25,Y+4
 2567 0c3e E80F      		add r30,r24
 2568 0c40 F91F      		adc r31,r25
 2569 0c42 260C      		add r2,r6
 2570 0c44 371C      		adc r3,r7
 2571 0c46 481C      		adc r4,r8
 2572 0c48 591C      		adc r5,r9
 2573 0c4a 21A2      		std Z+33,r2
 2574 0c4c 32A2      		std Z+34,r3
 2575 0c4e 43A2      		std Z+35,r4
 2576 0c50 54A2      		std Z+36,r5
 2577               	.LBE707:
 2578               	.LBE706:
 2579               	.LBB708:
 2580               	.LBB709:
 2581               	.LM292:
 2582 0c52 A5A2      		std Z+37,r10
 2583 0c54 B6A2      		std Z+38,r11
 2584 0c56 C7A2      		std Z+39,r12
 2585 0c58 D0A6      		std Z+40,r13
 2586               	.LBE709:
 2587               	.LBE708:
 2588               	.LBB710:
 2589               	.LBB711:
 2590               	.LM293:
 2591 0c5a 90A1      		ldd r25,Z+32
 2592 0c5c 892F      		mov r24,r25
 2593 0c5e 8695      		lsr r24
 2594 0c60 8F70      		andi r24,lo8(15)
 2595 0c62 8130      		cpi r24,lo8(1)
 2596 0c64 01F0      		breq .L129
 2597               	.LBB712:
 2598               	.LBB713:
 2599               	.LM294:
 2600 0c66 917E      		andi r25,lo8(-31)
 2601 0c68 9260      		ori r25,lo8(2)
 2602 0c6a 90A3      		std Z+32,r25
 2603               	.LVL158:
 2604               	.L129:
 2605               	/* epilogue start */
 2606               	.LBE713:
 2607               	.LBE712:
 2608               	.LBE711:
 2609               	.LBE710:
 2610               	.LBE695:
 2611               	.LM295:
 2612 0c6c 0F90      		pop __tmp_reg__
 2613 0c6e 0F90      		pop __tmp_reg__
 2614 0c70 0F90      		pop __tmp_reg__
 2615 0c72 0F90      		pop __tmp_reg__
 2616 0c74 CF91      		pop r28
 2617 0c76 DF91      		pop r29
 2618 0c78 1F91      		pop r17
 2619 0c7a 0F91      		pop r16
 2620 0c7c FF90      		pop r15
 2621 0c7e EF90      		pop r14
 2622 0c80 DF90      		pop r13
 2623 0c82 CF90      		pop r12
 2624               	.LVL159:
 2625 0c84 BF90      		pop r11
 2626 0c86 AF90      		pop r10
 2627               	.LVL160:
 2628 0c88 9F90      		pop r9
 2629 0c8a 8F90      		pop r8
 2630               	.LVL161:
 2631 0c8c 7F90      		pop r7
 2632 0c8e 6F90      		pop r6
 2633               	.LVL162:
 2634 0c90 5F90      		pop r5
 2635 0c92 4F90      		pop r4
 2636 0c94 3F90      		pop r3
 2637 0c96 2F90      		pop r2
 2638               	.LVL163:
 2639 0c98 0895      		ret
 2640               	.LFE49:
 2642               	.global	Timebase_UpCounter_SS_Set_Forcefully
 2644               	Timebase_UpCounter_SS_Set_Forcefully:
 2645               	.LFB50:
 2646               	.LM296:
 2647               	.LVL164:
 2648 0c9a DF92      		push r13
 2649 0c9c EF92      		push r14
 2650 0c9e FF92      		push r15
 2651 0ca0 0F93      		push r16
 2652 0ca2 1F93      		push r17
 2653               	/* prologue: function */
 2654               	/* frame size = 0 */
 2655 0ca4 D82E      		mov r13,r24
 2656 0ca6 7A01      		movw r14,r20
 2657 0ca8 8B01      		movw r16,r22
 2658               	.LM297:
 2659 0caa 0E94 0000 		call Timebase_UpCounter_SS_Reset
 2660               	.LVL165:
 2661               	.LM298:
 2662 0cae 8D2D      		mov r24,r13
 2663 0cb0 B801      		movw r22,r16
 2664 0cb2 A701      		movw r20,r14
 2665 0cb4 0E94 0000 		call Timebase_UpCounter_SS_Set_Securely
 2666               	/* epilogue start */
 2667               	.LM299:
 2668 0cb8 1F91      		pop r17
 2669 0cba 0F91      		pop r16
 2670 0cbc FF90      		pop r15
 2671 0cbe EF90      		pop r14
 2672               	.LVL166:
 2673 0cc0 DF90      		pop r13
 2674               	.LVL167:
 2675 0cc2 0895      		ret
 2676               	.LFE50:
 2678               	.global	Timebase_UpCounter_SS_Update
 2680               	Timebase_UpCounter_SS_Update:
 2681               	.LFB51:
 2682               	.LM300:
 2683               	.LVL168:
 2684 0cc4 2F92      		push r2
 2685 0cc6 3F92      		push r3
 2686 0cc8 4F92      		push r4
 2687 0cca 5F92      		push r5
 2688 0ccc 6F92      		push r6
 2689 0cce 7F92      		push r7
 2690 0cd0 8F92      		push r8
 2691 0cd2 9F92      		push r9
 2692 0cd4 AF92      		push r10
 2693 0cd6 BF92      		push r11
 2694 0cd8 CF92      		push r12
 2695 0cda DF92      		push r13
 2696 0cdc EF92      		push r14
 2697 0cde FF92      		push r15
 2698 0ce0 0F93      		push r16
 2699 0ce2 1F93      		push r17
 2700 0ce4 DF93      		push r29
 2701 0ce6 CF93      		push r28
 2702 0ce8 00D0      		rcall .
 2703 0cea 00D0      		rcall .
 2704 0cec 00D0      		rcall .
 2705 0cee CDB7      		in r28,__SP_L__
 2706 0cf0 DEB7      		in r29,__SP_H__
 2707               	/* prologue: function */
 2708               	/* frame size = 6 */
 2709               	.LBB714:
 2710               	.LBB715:
 2711               	.LM301:
 2712 0cf2 2090 0000 		lds r2,Timebase
 2713 0cf6 3090 0000 		lds r3,(Timebase)+1
 2714 0cfa 282F      		mov r18,r24
 2715 0cfc 30E0      		ldi r19,lo8(0)
 2716 0cfe 3E83      		std Y+6,r19
 2717 0d00 2D83      		std Y+5,r18
 2718 0d02 89E1      		ldi r24,lo8(25)
 2719 0d04 90E0      		ldi r25,hi8(25)
 2720               	.LVL169:
 2721 0d06 289F      		mul r18,r24
 2722 0d08 B001      		movw r22,r0
 2723 0d0a 299F      		mul r18,r25
 2724 0d0c 700D      		add r23,r0
 2725 0d0e 389F      		mul r19,r24
 2726 0d10 700D      		add r23,r0
 2727 0d12 1124      		clr r1
 2728 0d14 620D      		add r22,r2
 2729 0d16 731D      		adc r23,r3
 2730 0d18 DB01      		movw r26,r22
 2731 0d1a 9096      		adiw r26,32
 2732 0d1c 8C91      		ld r24,X
 2733 0d1e 9097      		sbiw r26,32
 2734 0d20 8695      		lsr r24
 2735 0d22 8F70      		andi r24,lo8(15)
 2736               	.LBE715:
 2737               	.LBE714:
 2738               	.LM302:
 2739 0d24 8130      		cpi r24,lo8(1)
 2740 0d26 01F0      		breq .+2
 2741 0d28 00C0      		rjmp .L133
 2742               	.LBB716:
 2743               	.LBB717:
 2744               	.LM303:
 2745 0d2a F101      		movw r30,r2
 2746 0d2c 2285      		ldd r18,Z+10
 2747 0d2e 3385      		ldd r19,Z+11
 2748 0d30 4485      		ldd r20,Z+12
 2749 0d32 5585      		ldd r21,Z+13
 2750               	.LVL170:
 2751               	.LBE717:
 2752               	.LBE716:
 2753               	.LBB718:
 2754               	.LBB719:
 2755               	.LM304:
 2756 0d34 8085      		ldd r24,Z+8
 2757 0d36 9185      		ldd r25,Z+9
 2758               	.LBE719:
 2759               	.LBE718:
 2760               	.LM305:
 2761 0d38 2C01      		movw r4,r24
 2762               	.LVL171:
 2763 0d3a 6624      		clr r6
 2764 0d3c 7724      		clr r7
 2765               	.LVL172:
 2766               	.LM306:
 2767 0d3e 9196      		adiw r26,33
 2768 0d40 8D90      		ld r8,X+
 2769 0d42 9D90      		ld r9,X+
 2770 0d44 AD90      		ld r10,X+
 2771 0d46 BC90      		ld r11,X
 2772 0d48 9497      		sbiw r26,33+3
 2773               	.LVL173:
 2774 0d4a 821A      		sub r8,r18
 2775 0d4c 930A      		sbc r9,r19
 2776 0d4e A40A      		sbc r10,r20
 2777 0d50 B50A      		sbc r11,r21
 2778 0d52 B7FE      		sbrs r11,7
 2779 0d54 00C0      		rjmp .L134
 2780 0d56 8824      		clr r8
 2781 0d58 9924      		clr r9
 2782 0d5a 5401      		movw r10,r8
 2783               	.L134:
 2784               	.LM307:
 2785 0d5c D101      		movw r26,r2
 2786 0d5e 1196      		adiw r26,1
 2787 0d60 2D91      		ld r18,X+
 2788 0d62 3C91      		ld r19,X
 2789 0d64 1297      		sbiw r26,1+1
 2790               	.LM308:
 2791 0d66 89E1      		ldi r24,lo8(25)
 2792 0d68 90E0      		ldi r25,hi8(25)
 2793 0d6a 4D81      		ldd r20,Y+5
 2794 0d6c 5E81      		ldd r21,Y+6
 2795 0d6e 489F      		mul r20,r24
 2796 0d70 F001      		movw r30,r0
 2797 0d72 499F      		mul r20,r25
 2798 0d74 F00D      		add r31,r0
 2799 0d76 589F      		mul r21,r24
 2800 0d78 F00D      		add r31,r0
 2801 0d7a 1124      		clr r1
 2802 0d7c E20D      		add r30,r2
 2803 0d7e F31D      		adc r31,r3
 2804 0d80 E5A0      		ldd r14,Z+37
 2805 0d82 F6A0      		ldd r15,Z+38
 2806 0d84 07A1      		ldd r16,Z+39
 2807 0d86 10A5      		ldd r17,Z+40
 2808               	.LVL174:
 2809 0d88 E418      		sub r14,r4
 2810 0d8a F508      		sbc r15,r5
 2811 0d8c 0609      		sbc r16,r6
 2812 0d8e 1709      		sbc r17,r7
 2813 0d90 17FF      		sbrs r17,7
 2814 0d92 00C0      		rjmp .L135
 2815 0d94 EE24      		clr r14
 2816 0d96 FF24      		clr r15
 2817 0d98 8701      		movw r16,r14
 2818               	.L135:
 2819               	.LM309:
 2820 0d9a 40E0      		ldi r20,lo8(0)
 2821 0d9c 50E0      		ldi r21,hi8(0)
 2822 0d9e C501      		movw r24,r10
 2823 0da0 B401      		movw r22,r8
 2824 0da2 0E94 0000 		call __mulsi3
 2825 0da6 6E0D      		add r22,r14
 2826 0da8 7F1D      		adc r23,r15
 2827 0daa 801F      		adc r24,r16
 2828 0dac 911F      		adc r25,r17
 2829               	.LVL175:
 2830               	.LBB720:
 2831               	.LBB721:
 2832               	.LM310:
 2833 0dae 29E1      		ldi r18,lo8(25)
 2834 0db0 30E0      		ldi r19,hi8(25)
 2835 0db2 AD81      		ldd r26,Y+5
 2836 0db4 BE81      		ldd r27,Y+6
 2837 0db6 A29F      		mul r26,r18
 2838 0db8 F001      		movw r30,r0
 2839 0dba A39F      		mul r26,r19
 2840 0dbc F00D      		add r31,r0
 2841 0dbe B29F      		mul r27,r18
 2842 0dc0 F00D      		add r31,r0
 2843 0dc2 1124      		clr r1
 2844 0dc4 E20D      		add r30,r2
 2845 0dc6 F31D      		adc r31,r3
 2846 0dc8 65A7      		std Z+45,r22
 2847 0dca 76A7      		std Z+46,r23
 2848 0dcc 87A7      		std Z+47,r24
 2849 0dce 90AB      		std Z+48,r25
 2850               	.LBE721:
 2851               	.LBE720:
 2852               	.LM311:
 2853 0dd0 21A5      		ldd r18,Z+41
 2854 0dd2 32A5      		ldd r19,Z+42
 2855 0dd4 43A5      		ldd r20,Z+43
 2856 0dd6 54A5      		ldd r21,Z+44
 2857               	.LVL176:
 2858               	.LBB722:
 2859               	.LBB723:
 2860               	.LM312:
 2861 0dd8 261B      		sub r18,r22
 2862 0dda 370B      		sbc r19,r23
 2863 0ddc 480B      		sbc r20,r24
 2864 0dde 590B      		sbc r21,r25
 2865 0de0 57FF      		sbrs r21,7
 2866 0de2 00C0      		rjmp .L136
 2867 0de4 20E0      		ldi r18,lo8(0)
 2868 0de6 30E0      		ldi r19,hi8(0)
 2869 0de8 40E0      		ldi r20,hlo8(0)
 2870 0dea 50E0      		ldi r21,hhi8(0)
 2871               	.L136:
 2872 0dec 21AB      		std Z+49,r18
 2873 0dee 32AB      		std Z+50,r19
 2874 0df0 43AB      		std Z+51,r20
 2875 0df2 54AB      		std Z+52,r21
 2876               	.LBE723:
 2877               	.LBE722:
 2878               	.LM313:
 2879 0df4 89E1      		ldi r24,lo8(25)
 2880 0df6 90E0      		ldi r25,hi8(25)
 2881 0df8 ED81      		ldd r30,Y+5
 2882 0dfa FE81      		ldd r31,Y+6
 2883 0dfc E89F      		mul r30,r24
 2884 0dfe B001      		movw r22,r0
 2885 0e00 E99F      		mul r30,r25
 2886 0e02 700D      		add r23,r0
 2887 0e04 F89F      		mul r31,r24
 2888 0e06 700D      		add r23,r0
 2889 0e08 1124      		clr r1
 2890               	.LVL177:
 2891 0e0a 620D      		add r22,r2
 2892 0e0c 731D      		adc r23,r3
 2893 0e0e FB01      		movw r30,r22
 2894 0e10 85A5      		ldd r24,Z+45
 2895 0e12 96A5      		ldd r25,Z+46
 2896 0e14 A7A5      		ldd r26,Z+47
 2897 0e16 B0A9      		ldd r27,Z+48
 2898 0e18 1816      		cp __zero_reg__,r24
 2899 0e1a 1906      		cpc __zero_reg__,r25
 2900 0e1c 1A06      		cpc __zero_reg__,r26
 2901 0e1e 1B06      		cpc __zero_reg__,r27
 2902 0e20 04F4      		brge .+2
 2903 0e22 00C0      		rjmp .L141
 2904               	.LBB724:
 2905               	.LBB725:
 2906               	.LM314:
 2907 0e24 DB01      		movw r26,r22
 2908 0e26 9196      		adiw r26,33
 2909 0e28 1D92      		st X+,__zero_reg__
 2910 0e2a 1D92      		st X+,__zero_reg__
 2911 0e2c 1D92      		st X+,__zero_reg__
 2912 0e2e 1C92      		st X,__zero_reg__
 2913 0e30 9497      		sbiw r26,33+3
 2914               	.LBE725:
 2915               	.LBE724:
 2916               	.LBB726:
 2917               	.LBB727:
 2918               	.LM315:
 2919 0e32 15A2      		std Z+37,__zero_reg__
 2920 0e34 16A2      		std Z+38,__zero_reg__
 2921 0e36 17A2      		std Z+39,__zero_reg__
 2922 0e38 10A6      		std Z+40,__zero_reg__
 2923               	.LBE727:
 2924               	.LBE726:
 2925               	.LBB728:
 2926               	.LBB729:
 2927               	.LM316:
 2928 0e3a 9D96      		adiw r26,45
 2929 0e3c 1D92      		st X+,__zero_reg__
 2930 0e3e 1D92      		st X+,__zero_reg__
 2931 0e40 1D92      		st X+,__zero_reg__
 2932 0e42 1C92      		st X,__zero_reg__
 2933 0e44 D097      		sbiw r26,45+3
 2934               	.LBE729:
 2935               	.LBE728:
 2936               	.LBB730:
 2937               	.LBB731:
 2938               	.LM317:
 2939 0e46 B996      		adiw r30,41
 2940               	.LBE731:
 2941               	.LBE730:
 2942               	.LBB732:
 2943               	.LBB733:
 2944               	.LM318:
 2945 0e48 9996      		adiw r26,41
 2946 0e4a 2C91      		ld r18,X
 2947               	.LVL178:
 2948 0e4c 3181      		ldd r19,Z+1
 2949               	.LVL179:
 2950 0e4e 4281      		ldd r20,Z+2
 2951               	.LVL180:
 2952 0e50 5381      		ldd r21,Z+3
 2953               	.LVL181:
 2954 0e52 C901      		movw r24,r18
 2955               	.LVL182:
 2956 0e54 DA01      		movw r26,r20
 2957               	.LVL183:
 2958 0e56 B7FF      		sbrs r27,7
 2959 0e58 00C0      		rjmp .L138
 2960               	.LVL184:
 2961 0e5a 80E0      		ldi r24,lo8(0)
 2962 0e5c 90E0      		ldi r25,hi8(0)
 2963 0e5e A0E0      		ldi r26,hlo8(0)
 2964 0e60 B0E0      		ldi r27,hhi8(0)
 2965               	.L138:
 2966 0e62 FB01      		movw r30,r22
 2967 0e64 81AB      		std Z+49,r24
 2968 0e66 92AB      		std Z+50,r25
 2969 0e68 A3AB      		std Z+51,r26
 2970 0e6a B4AB      		std Z+52,r27
 2971               	.LBE733:
 2972               	.LBE732:
 2973               	.LBB734:
 2974               	.LBB735:
 2975               	.LM319:
 2976 0e6c 89E1      		ldi r24,lo8(25)
 2977 0e6e 90E0      		ldi r25,hi8(25)
 2978               	.LVL185:
 2979 0e70 2D81      		ldd r18,Y+5
 2980 0e72 3E81      		ldd r19,Y+6
 2981 0e74 289F      		mul r18,r24
 2982 0e76 F001      		movw r30,r0
 2983 0e78 299F      		mul r18,r25
 2984 0e7a F00D      		add r31,r0
 2985 0e7c 389F      		mul r19,r24
 2986 0e7e F00D      		add r31,r0
 2987 0e80 1124      		clr r1
 2988 0e82 E20D      		add r30,r2
 2989 0e84 F31D      		adc r31,r3
 2990 0e86 80A1      		ldd r24,Z+32
 2991 0e88 817E      		andi r24,lo8(-31)
 2992 0e8a 8860      		ori r24,lo8(8)
 2993 0e8c 80A3      		std Z+32,r24
 2994 0e8e 00C0      		rjmp .L141
 2995               	.LVL186:
 2996               	.L133:
 2997               	.LBE735:
 2998               	.LBE734:
 2999               	.LM320:
 3000 0e90 8230      		cpi r24,lo8(2)
 3001 0e92 01F0      		breq .+2
 3002 0e94 00C0      		rjmp .L141
 3003               	.LBB736:
 3004               	.LBB737:
 3005               	.LBB738:
 3006               	.LM321:
 3007 0e96 D101      		movw r26,r2
 3008 0e98 1A96      		adiw r26,10
 3009 0e9a 8D91      		ld r24,X+
 3010 0e9c 9D91      		ld r25,X+
 3011 0e9e 0D90      		ld __tmp_reg__,X+
 3012 0ea0 BC91      		ld r27,X
 3013 0ea2 A02D      		mov r26,__tmp_reg__
 3014 0ea4 8983      		std Y+1,r24
 3015 0ea6 9A83      		std Y+2,r25
 3016 0ea8 AB83      		std Y+3,r26
 3017 0eaa BC83      		std Y+4,r27
 3018               	.LVL187:
 3019               	.LBE738:
 3020               	.LBE737:
 3021               	.LBB739:
 3022               	.LBB740:
 3023               	.LM322:
 3024 0eac F101      		movw r30,r2
 3025 0eae 8084      		ldd r8,Z+8
 3026 0eb0 9184      		ldd r9,Z+9
 3027               	.LBE740:
 3028               	.LBE739:
 3029               	.LBB741:
 3030               	.LBB742:
 3031               	.LM323:
 3032 0eb2 DB01      		movw r26,r22
 3033 0eb4 9D96      		adiw r26,45
 3034 0eb6 AD90      		ld r10,X+
 3035 0eb8 BD90      		ld r11,X+
 3036 0eba CD90      		ld r12,X+
 3037 0ebc DC90      		ld r13,X
 3038 0ebe D097      		sbiw r26,45+3
 3039               	.LVL188:
 3040               	.LBE742:
 3041               	.LBE741:
 3042               	.LM324:
 3043 0ec0 2181      		ldd r18,Z+1
 3044 0ec2 3281      		ldd r19,Z+2
 3045 0ec4 40E0      		ldi r20,lo8(0)
 3046 0ec6 50E0      		ldi r21,hi8(0)
 3047 0ec8 C601      		movw r24,r12
 3048 0eca B501      		movw r22,r10
 3049 0ecc 0E94 0000 		call __divmodsi4
 3050 0ed0 7B01      		movw r14,r22
 3051 0ed2 8C01      		movw r16,r24
 3052               	.LM325:
 3053 0ed4 F101      		movw r30,r2
 3054 0ed6 2181      		ldd r18,Z+1
 3055 0ed8 3281      		ldd r19,Z+2
 3056 0eda 40E0      		ldi r20,lo8(0)
 3057 0edc 50E0      		ldi r21,hi8(0)
 3058 0ede C601      		movw r24,r12
 3059 0ee0 B501      		movw r22,r10
 3060 0ee2 0E94 0000 		call __divmodsi4
 3061 0ee6 C901      		movw r24,r18
 3062 0ee8 DA01      		movw r26,r20
 3063 0eea 2C01      		movw r4,r24
 3064 0eec 3D01      		movw r6,r26
 3065               	.LVL189:
 3066               	.LM326:
 3067 0eee AA24      		clr r10
 3068 0ef0 BB24      		clr r11
 3069               	.LVL190:
 3070 0ef2 8E0C      		add r8,r14
 3071 0ef4 9F1C      		adc r9,r15
 3072 0ef6 A01E      		adc r10,r16
 3073 0ef8 B11E      		adc r11,r17
 3074               	.LVL191:
 3075               	.LM327:
 3076 0efa D101      		movw r26,r2
 3077 0efc 1196      		adiw r26,1
 3078 0efe 8D91      		ld r24,X+
 3079 0f00 9C91      		ld r25,X
 3080 0f02 1297      		sbiw r26,1+1
 3081               	.LVL192:
 3082 0f04 A0E0      		ldi r26,lo8(0)
 3083 0f06 B0E0      		ldi r27,hi8(0)
 3084 0f08 8816      		cp r8,r24
 3085 0f0a 9906      		cpc r9,r25
 3086 0f0c AA06      		cpc r10,r26
 3087 0f0e BB06      		cpc r11,r27
 3088 0f10 04F0      		brlt .L139
 3089               	.LM328:
 3090 0f12 0894      		sec
 3091 0f14 411C      		adc r4,__zero_reg__
 3092 0f16 511C      		adc r5,__zero_reg__
 3093 0f18 611C      		adc r6,__zero_reg__
 3094 0f1a 711C      		adc r7,__zero_reg__
 3095               	.LM329:
 3096 0f1c F101      		movw r30,r2
 3097 0f1e 2181      		ldd r18,Z+1
 3098 0f20 3281      		ldd r19,Z+2
 3099 0f22 40E0      		ldi r20,lo8(0)
 3100 0f24 50E0      		ldi r21,hi8(0)
 3101 0f26 C501      		movw r24,r10
 3102 0f28 B401      		movw r22,r8
 3103 0f2a 0E94 0000 		call __divmodsi4
 3104 0f2e AC01      		movw r20,r24
 3105 0f30 CB01      		movw r24,r22
 3106 0f32 DA01      		movw r26,r20
 3107 0f34 4C01      		movw r8,r24
 3108 0f36 5D01      		movw r10,r26
 3109               	.L139:
 3110               	.LBB743:
 3111               	.LBB744:
 3112               	.LM330:
 3113 0f38 89E1      		ldi r24,lo8(25)
 3114 0f3a 90E0      		ldi r25,hi8(25)
 3115 0f3c 2D81      		ldd r18,Y+5
 3116 0f3e 3E81      		ldd r19,Y+6
 3117 0f40 289F      		mul r18,r24
 3118 0f42 8001      		movw r16,r0
 3119 0f44 299F      		mul r18,r25
 3120 0f46 100D      		add r17,r0
 3121 0f48 389F      		mul r19,r24
 3122 0f4a 100D      		add r17,r0
 3123 0f4c 1124      		clr r1
 3124 0f4e 020D      		add r16,r2
 3125 0f50 131D      		adc r17,r3
 3126 0f52 8981      		ldd r24,Y+1
 3127 0f54 9A81      		ldd r25,Y+2
 3128 0f56 AB81      		ldd r26,Y+3
 3129 0f58 BC81      		ldd r27,Y+4
 3130 0f5a 840D      		add r24,r4
 3131 0f5c 951D      		adc r25,r5
 3132 0f5e A61D      		adc r26,r6
 3133 0f60 B71D      		adc r27,r7
 3134 0f62 F801      		movw r30,r16
 3135 0f64 81A3      		std Z+33,r24
 3136 0f66 92A3      		std Z+34,r25
 3137 0f68 A3A3      		std Z+35,r26
 3138 0f6a B4A3      		std Z+36,r27
 3139               	.LBE744:
 3140               	.LBE743:
 3141               	.LBB745:
 3142               	.LBB746:
 3143               	.LM331:
 3144 0f6c D801      		movw r26,r16
 3145 0f6e 9596      		adiw r26,37
 3146 0f70 8D92      		st X+,r8
 3147 0f72 9D92      		st X+,r9
 3148 0f74 AD92      		st X+,r10
 3149 0f76 BC92      		st X,r11
 3150 0f78 9897      		sbiw r26,37+3
 3151               	.LBE746:
 3152               	.LBE745:
 3153               	.LM332:
 3154 0f7a 9996      		adiw r26,41
 3155 0f7c 2D91      		ld r18,X+
 3156 0f7e 3D91      		ld r19,X+
 3157 0f80 4D91      		ld r20,X+
 3158 0f82 5C91      		ld r21,X
 3159 0f84 9C97      		sbiw r26,41+3
 3160               	.LVL193:
 3161 0f86 9D96      		adiw r26,45
 3162 0f88 8D91      		ld r24,X+
 3163 0f8a 9D91      		ld r25,X+
 3164 0f8c 0D90      		ld __tmp_reg__,X+
 3165 0f8e BC91      		ld r27,X
 3166 0f90 A02D      		mov r26,__tmp_reg__
 3167               	.LBB747:
 3168               	.LBB748:
 3169               	.LM333:
 3170 0f92 281B      		sub r18,r24
 3171 0f94 390B      		sbc r19,r25
 3172 0f96 4A0B      		sbc r20,r26
 3173 0f98 5B0B      		sbc r21,r27
 3174 0f9a 57FF      		sbrs r21,7
 3175 0f9c 00C0      		rjmp .L140
 3176 0f9e 20E0      		ldi r18,lo8(0)
 3177 0fa0 30E0      		ldi r19,hi8(0)
 3178 0fa2 40E0      		ldi r20,hlo8(0)
 3179 0fa4 50E0      		ldi r21,hhi8(0)
 3180               	.L140:
 3181 0fa6 F801      		movw r30,r16
 3182 0fa8 21AB      		std Z+49,r18
 3183 0faa 32AB      		std Z+50,r19
 3184 0fac 43AB      		std Z+51,r20
 3185 0fae 54AB      		std Z+52,r21
 3186               	.LVL194:
 3187               	.L141:
 3188               	/* epilogue start */
 3189               	.LBE748:
 3190               	.LBE747:
 3191               	.LBE736:
 3192               	.LM334:
 3193 0fb0 2696      		adiw r28,6
 3194 0fb2 0FB6      		in __tmp_reg__,__SREG__
 3195 0fb4 F894      		cli
 3196 0fb6 DEBF      		out __SP_H__,r29
 3197 0fb8 0FBE      		out __SREG__,__tmp_reg__
 3198 0fba CDBF      		out __SP_L__,r28
 3199 0fbc CF91      		pop r28
 3200 0fbe DF91      		pop r29
 3201 0fc0 1F91      		pop r17
 3202 0fc2 0F91      		pop r16
 3203 0fc4 FF90      		pop r15
 3204 0fc6 EF90      		pop r14
 3205 0fc8 DF90      		pop r13
 3206 0fca CF90      		pop r12
 3207 0fcc BF90      		pop r11
 3208 0fce AF90      		pop r10
 3209               	.LVL195:
 3210 0fd0 9F90      		pop r9
 3211 0fd2 8F90      		pop r8
 3212               	.LVL196:
 3213 0fd4 7F90      		pop r7
 3214 0fd6 6F90      		pop r6
 3215               	.LVL197:
 3216 0fd8 5F90      		pop r5
 3217 0fda 4F90      		pop r4
 3218               	.LVL198:
 3219 0fdc 3F90      		pop r3
 3220 0fde 2F90      		pop r2
 3221 0fe0 0895      		ret
 3222               	.LFE51:
 3224               	.global	Timebase_UpCounter_SS_Expired
 3226               	Timebase_UpCounter_SS_Expired:
 3227               	.LFB52:
 3228               	.LM335:
 3229               	.LVL199:
 3230               	/* prologue: function */
 3231               	/* frame size = 0 */
 3232               	.LM336:
 3233 0fe2 40E0      		ldi r20,lo8(0)
 3234 0fe4 E091 0000 		lds r30,Timebase
 3235 0fe8 F091 0000 		lds r31,(Timebase)+1
 3236 0fec 90E0      		ldi r25,lo8(0)
 3237               	.LVL200:
 3238 0fee 29E1      		ldi r18,lo8(25)
 3239 0ff0 30E0      		ldi r19,hi8(25)
 3240 0ff2 BC01      		movw r22,r24
 3241 0ff4 629F      		mul r22,r18
 3242 0ff6 C001      		movw r24,r0
 3243 0ff8 639F      		mul r22,r19
 3244 0ffa 900D      		add r25,r0
 3245 0ffc 729F      		mul r23,r18
 3246 0ffe 900D      		add r25,r0
 3247 1000 1124      		clr r1
 3248               	.LVL201:
 3249 1002 E80F      		add r30,r24
 3250 1004 F91F      		adc r31,r25
 3251 1006 80A1      		ldd r24,Z+32
 3252 1008 8695      		lsr r24
 3253 100a 8F70      		andi r24,lo8(15)
 3254 100c 8430      		cpi r24,lo8(4)
 3255 100e 01F4      		brne .L143
 3256 1010 41E0      		ldi r20,lo8(1)
 3257               	.L143:
 3258               	.LM337:
 3259 1012 842F      		mov r24,r20
 3260               	/* epilogue start */
 3261 1014 0895      		ret
 3262               	.LFE52:
 3264               	.global	Timebase_UpCounter_SS_Expired_Event
 3266               	Timebase_UpCounter_SS_Expired_Event:
 3267               	.LFB53:
 3268               	.LM338:
 3269               	.LVL202:
 3270               	/* prologue: function */
 3271               	/* frame size = 0 */
 3272 1016 482F      		mov r20,r24
 3273               	.LM339:
 3274 1018 E091 0000 		lds r30,Timebase
 3275 101c F091 0000 		lds r31,(Timebase)+1
 3276 1020 282F      		mov r18,r24
 3277 1022 30E0      		ldi r19,lo8(0)
 3278               	.LVL203:
 3279 1024 89E1      		ldi r24,lo8(25)
 3280 1026 90E0      		ldi r25,hi8(25)
 3281               	.LVL204:
 3282 1028 BC01      		movw r22,r24
 3283 102a 269F      		mul r18,r22
 3284 102c C001      		movw r24,r0
 3285 102e 279F      		mul r18,r23
 3286 1030 900D      		add r25,r0
 3287 1032 369F      		mul r19,r22
 3288 1034 900D      		add r25,r0
 3289 1036 1124      		clr r1
 3290 1038 E80F      		add r30,r24
 3291 103a F91F      		adc r31,r25
 3292 103c 80A1      		ldd r24,Z+32
 3293 103e 8695      		lsr r24
 3294 1040 8F70      		andi r24,lo8(15)
 3295 1042 8430      		cpi r24,lo8(4)
 3296 1044 01F0      		breq .L146
 3297 1046 80E0      		ldi r24,lo8(0)
 3298 1048 0895      		ret
 3299               	.L146:
 3300               	.LBB749:
 3301               	.LBB750:
 3302               	.LM340:
 3303 104a 842F      		mov r24,r20
 3304 104c 0E94 0000 		call Timebase_UpCounter_SS_Reset
 3305               	.LVL205:
 3306 1050 81E0      		ldi r24,lo8(1)
 3307               	.LBE750:
 3308               	.LBE749:
 3309               	.LM341:
 3310 1052 0895      		ret
 3311               	.LFE53:
 3313               	.global	Timebase_UpCounter_SS_Set_Period_Value_Securely
 3315               	Timebase_UpCounter_SS_Set_Period_Value_Securely:
 3316               	.LFB54:
 3317               	.LM342:
 3318               	.LVL206:
 3319               	/* prologue: function */
 3320               	/* frame size = 0 */
 3321               	.LBB751:
 3322               	.LBB752:
 3323               	.LM343:
 3324 1054 E091 0000 		lds r30,Timebase
 3325 1058 F091 0000 		lds r31,(Timebase)+1
 3326 105c 90E0      		ldi r25,lo8(0)
 3327               	.LBE752:
 3328               	.LBE751:
 3329               	.LM344:
 3330 105e 29E1      		ldi r18,lo8(25)
 3331 1060 30E0      		ldi r19,hi8(25)
 3332 1062 DC01      		movw r26,r24
 3333               	.LVL207:
 3334 1064 A29F      		mul r26,r18
 3335 1066 C001      		movw r24,r0
 3336 1068 A39F      		mul r26,r19
 3337 106a 900D      		add r25,r0
 3338 106c B29F      		mul r27,r18
 3339 106e 900D      		add r25,r0
 3340 1070 1124      		clr r1
 3341 1072 E80F      		add r30,r24
 3342 1074 F91F      		adc r31,r25
 3343 1076 80A1      		ldd r24,Z+32
 3344 1078 80FD      		sbrc r24,0
 3345 107a 00C0      		rjmp .L151
 3346               	.LBB753:
 3347               	.LBB754:
 3348               	.LM345:
 3349 107c 81A9      		ldd r24,Z+49
 3350 107e 92A9      		ldd r25,Z+50
 3351 1080 A3A9      		ldd r26,Z+51
 3352 1082 B4A9      		ldd r27,Z+52
 3353 1084 840F      		add r24,r20
 3354 1086 951F      		adc r25,r21
 3355 1088 A61F      		adc r26,r22
 3356 108a B71F      		adc r27,r23
 3357 108c 85AB      		std Z+53,r24
 3358 108e 96AB      		std Z+54,r25
 3359 1090 A7AB      		std Z+55,r26
 3360 1092 B0AF      		std Z+56,r27
 3361               	.LBE754:
 3362               	.LBE753:
 3363               	.LBB755:
 3364               	.LBB756:
 3365               	.LM346:
 3366 1094 80A1      		ldd r24,Z+32
 3367 1096 8160      		ori r24,lo8(1)
 3368 1098 80A3      		std Z+32,r24
 3369               	.L151:
 3370 109a 0895      		ret
 3371               	.LBE756:
 3372               	.LBE755:
 3373               	.LFE54:
 3375               	.global	Timebase_UpCounter_SS_Get_Remaining_Period_Value
 3377               	Timebase_UpCounter_SS_Get_Remaining_Period_Value:
 3378               	.LFB55:
 3379               	.LM347:
 3380               	.LVL208:
 3381               	/* prologue: function */
 3382               	/* frame size = 0 */
 3383               	.LBB757:
 3384               	.LBB758:
 3385               	.LM348:
 3386 109c E091 0000 		lds r30,Timebase
 3387 10a0 F091 0000 		lds r31,(Timebase)+1
 3388 10a4 90E0      		ldi r25,lo8(0)
 3389               	.LBE758:
 3390               	.LBE757:
 3391               	.LM349:
 3392 10a6 29E1      		ldi r18,lo8(25)
 3393 10a8 30E0      		ldi r19,hi8(25)
 3394 10aa AC01      		movw r20,r24
 3395               	.LVL209:
 3396 10ac 429F      		mul r20,r18
 3397 10ae C001      		movw r24,r0
 3398 10b0 439F      		mul r20,r19
 3399 10b2 900D      		add r25,r0
 3400 10b4 529F      		mul r21,r18
 3401 10b6 900D      		add r25,r0
 3402 10b8 1124      		clr r1
 3403 10ba E80F      		add r30,r24
 3404 10bc F91F      		adc r31,r25
 3405 10be 25A9      		ldd r18,Z+53
 3406 10c0 36A9      		ldd r19,Z+54
 3407 10c2 47A9      		ldd r20,Z+55
 3408 10c4 50AD      		ldd r21,Z+56
 3409               	.LVL210:
 3410 10c6 81A9      		ldd r24,Z+49
 3411 10c8 92A9      		ldd r25,Z+50
 3412 10ca A3A9      		ldd r26,Z+51
 3413 10cc B4A9      		ldd r27,Z+52
 3414 10ce 281B      		sub r18,r24
 3415 10d0 390B      		sbc r19,r25
 3416 10d2 4A0B      		sbc r20,r26
 3417 10d4 5B0B      		sbc r21,r27
 3418 10d6 57FF      		sbrs r21,7
 3419 10d8 00C0      		rjmp .L153
 3420 10da 20E0      		ldi r18,lo8(0)
 3421 10dc 30E0      		ldi r19,hi8(0)
 3422 10de 40E0      		ldi r20,hlo8(0)
 3423 10e0 50E0      		ldi r21,hhi8(0)
 3424               	.L153:
 3425               	.LM350:
 3426 10e2 B901      		movw r22,r18
 3427               	.LVL211:
 3428 10e4 CA01      		movw r24,r20
 3429               	/* epilogue start */
 3430 10e6 0895      		ret
 3431               	.LFE55:
 3433               	.global	Timebase_UpCounter_SS_Period_Value_Expired
 3435               	Timebase_UpCounter_SS_Period_Value_Expired:
 3436               	.LFB56:
 3437               	.LM351:
 3438               	.LVL212:
 3439 10e8 CF93      		push r28
 3440 10ea DF93      		push r29
 3441               	/* prologue: function */
 3442               	/* frame size = 0 */
 3443               	.LBB759:
 3444               	.LBB760:
 3445               	.LBB761:
 3446               	.LBB762:
 3447               	.LM352:
 3448 10ec C091 0000 		lds r28,Timebase
 3449 10f0 D091 0000 		lds r29,(Timebase)+1
 3450 10f4 682F      		mov r22,r24
 3451 10f6 70E0      		ldi r23,lo8(0)
 3452               	.LBE762:
 3453               	.LBE761:
 3454               	.LM353:
 3455 10f8 89E1      		ldi r24,lo8(25)
 3456 10fa 90E0      		ldi r25,hi8(25)
 3457               	.LVL213:
 3458 10fc 689F      		mul r22,r24
 3459 10fe F001      		movw r30,r0
 3460 1100 699F      		mul r22,r25
 3461 1102 F00D      		add r31,r0
 3462 1104 789F      		mul r23,r24
 3463 1106 F00D      		add r31,r0
 3464 1108 1124      		clr r1
 3465 110a EC0F      		add r30,r28
 3466 110c FD1F      		adc r31,r29
 3467 110e 25A9      		ldd r18,Z+53
 3468 1110 36A9      		ldd r19,Z+54
 3469 1112 47A9      		ldd r20,Z+55
 3470 1114 50AD      		ldd r21,Z+56
 3471               	.LVL214:
 3472 1116 81A9      		ldd r24,Z+49
 3473 1118 92A9      		ldd r25,Z+50
 3474 111a A3A9      		ldd r26,Z+51
 3475 111c B4A9      		ldd r27,Z+52
 3476 111e 281B      		sub r18,r24
 3477 1120 390B      		sbc r19,r25
 3478 1122 4A0B      		sbc r20,r26
 3479 1124 5B0B      		sbc r21,r27
 3480               	.LM354:
 3481 1126 57FD      		sbrc r21,7
 3482 1128 00C0      		rjmp .L156
 3483               	.LBE760:
 3484               	.LBE759:
 3485               	.LM355:
 3486 112a 2115      		cp r18,__zero_reg__
 3487 112c 3105      		cpc r19,__zero_reg__
 3488 112e 4105      		cpc r20,__zero_reg__
 3489 1130 5105      		cpc r21,__zero_reg__
 3490 1132 01F0      		breq .L156
 3491 1134 20E0      		ldi r18,lo8(0)
 3492               	.LVL215:
 3493 1136 00C0      		rjmp .L157
 3494               	.LVL216:
 3495               	.L156:
 3496 1138 20E0      		ldi r18,lo8(0)
 3497               	.LVL217:
 3498 113a 89E1      		ldi r24,lo8(25)
 3499 113c 90E0      		ldi r25,hi8(25)
 3500 113e AC01      		movw r20,r24
 3501 1140 649F      		mul r22,r20
 3502 1142 C001      		movw r24,r0
 3503 1144 659F      		mul r22,r21
 3504 1146 900D      		add r25,r0
 3505 1148 749F      		mul r23,r20
 3506 114a 900D      		add r25,r0
 3507 114c 1124      		clr r1
 3508 114e C80F      		add r28,r24
 3509 1150 D91F      		adc r29,r25
 3510 1152 88A1      		ldd r24,Y+32
 3511 1154 80FF      		sbrs r24,0
 3512 1156 21E0      		ldi r18,lo8(1)
 3513               	.L158:
 3514 1158 81E0      		ldi r24,lo8(1)
 3515 115a 2827      		eor r18,r24
 3516               	.L157:
 3517               	.LM356:
 3518 115c 822F      		mov r24,r18
 3519               	/* epilogue start */
 3520 115e DF91      		pop r29
 3521 1160 CF91      		pop r28
 3522 1162 0895      		ret
 3523               	.LFE56:
 3525               	.global	Timebase_UpCounter_SS_Period_Value_Expired_Event
 3527               	Timebase_UpCounter_SS_Period_Value_Expired_Event:
 3528               	.LFB57:
 3529               	.LM357:
 3530               	.LVL218:
 3531 1164 1F93      		push r17
 3532               	/* prologue: function */
 3533               	/* frame size = 0 */
 3534 1166 182F      		mov r17,r24
 3535               	.LM358:
 3536 1168 0E94 0000 		call Timebase_UpCounter_SS_Period_Value_Expired
 3537               	.LVL219:
 3538 116c 8130      		cpi r24,lo8(1)
 3539 116e 01F0      		breq .L161
 3540 1170 80E0      		ldi r24,lo8(0)
 3541 1172 00C0      		rjmp .L162
 3542               	.L161:
 3543               	.LBB763:
 3544               	.LBB764:
 3545               	.LM359:
 3546 1174 E091 0000 		lds r30,Timebase
 3547 1178 F091 0000 		lds r31,(Timebase)+1
 3548 117c 212F      		mov r18,r17
 3549 117e 30E0      		ldi r19,lo8(0)
 3550               	.LVL220:
 3551 1180 89E1      		ldi r24,lo8(25)
 3552 1182 90E0      		ldi r25,hi8(25)
 3553 1184 AC01      		movw r20,r24
 3554 1186 249F      		mul r18,r20
 3555 1188 C001      		movw r24,r0
 3556 118a 259F      		mul r18,r21
 3557 118c 900D      		add r25,r0
 3558 118e 349F      		mul r19,r20
 3559 1190 900D      		add r25,r0
 3560 1192 1124      		clr r1
 3561 1194 E80F      		add r30,r24
 3562 1196 F91F      		adc r31,r25
 3563 1198 80A1      		ldd r24,Z+32
 3564 119a 8E7F      		andi r24,lo8(-2)
 3565 119c 80A3      		std Z+32,r24
 3566 119e 81E0      		ldi r24,lo8(1)
 3567               	.L162:
 3568               	/* epilogue start */
 3569               	.LBE764:
 3570               	.LBE763:
 3571               	.LM360:
 3572 11a0 1F91      		pop r17
 3573               	.LVL221:
 3574 11a2 0895      		ret
 3575               	.LFE57:
 3577               	.global	Timebase_UpCounter_SS_Update_All
 3579               	Timebase_UpCounter_SS_Update_All:
 3580               	.LFB58:
 3581               	.LM361:
 3582               	/* prologue: function */
 3583               	/* frame size = 0 */
 3584               	.LBB765:
 3585               	.LM362:
 3586 11a4 80E0      		ldi r24,lo8(0)
 3587 11a6 0E94 0000 		call Timebase_UpCounter_SS_Update
 3588               	/* epilogue start */
 3589               	.LBE765:
 3590               	.LM363:
 3591 11aa 0895      		ret
 3592               	.LFE58:
 3594               	.global	Timebase_UpCounter_SS_Reset_All
 3596               	Timebase_UpCounter_SS_Reset_All:
 3597               	.LFB59:
 3598               	.LM364:
 3599               	/* prologue: function */
 3600               	/* frame size = 0 */
 3601               	.LBB766:
 3602               	.LM365:
 3603 11ac 80E0      		ldi r24,lo8(0)
 3604 11ae 0E94 0000 		call Timebase_UpCounter_SS_Reset
 3605               	/* epilogue start */
 3606               	.LBE766:
 3607               	.LM366:
 3608 11b2 0895      		ret
 3609               	.LFE59:
 3611               	.global	Timebase_UpCounter_Get_Status
 3613               	Timebase_UpCounter_Get_Status:
 3614               	.LFB60:
 3615               	.LM367:
 3616               	.LVL222:
 3617               	/* prologue: function */
 3618               	/* frame size = 0 */
 3619               	.LM368:
 3620 11b4 E091 0000 		lds r30,Timebase
 3621 11b8 F091 0000 		lds r31,(Timebase)+1
 3622 11bc 90E0      		ldi r25,lo8(0)
 3623               	.LVL223:
 3624 11be 25E1      		ldi r18,lo8(21)
 3625 11c0 30E0      		ldi r19,hi8(21)
 3626 11c2 AC01      		movw r20,r24
 3627 11c4 429F      		mul r20,r18
 3628 11c6 C001      		movw r24,r0
 3629 11c8 439F      		mul r20,r19
 3630 11ca 900D      		add r25,r0
 3631 11cc 529F      		mul r21,r18
 3632 11ce 900D      		add r25,r0
 3633 11d0 1124      		clr r1
 3634               	.LVL224:
 3635 11d2 E80F      		add r30,r24
 3636 11d4 F91F      		adc r31,r25
 3637 11d6 81AD      		ldd r24,Z+57
 3638 11d8 8695      		lsr r24
 3639               	.LM369:
 3640 11da 8F70      		andi r24,lo8(15)
 3641               	/* epilogue start */
 3642 11dc 0895      		ret
 3643               	.LFE60:
 3645               	.global	Timebase_UpCounter_Set_Status
 3647               	Timebase_UpCounter_Set_Status:
 3648               	.LFB61:
 3649               	.LM370:
 3650               	.LVL225:
 3651               	/* prologue: function */
 3652               	/* frame size = 0 */
 3653               	.LM371:
 3654 11de E091 0000 		lds r30,Timebase
 3655 11e2 F091 0000 		lds r31,(Timebase)+1
 3656 11e6 90E0      		ldi r25,lo8(0)
 3657               	.LVL226:
 3658 11e8 25E1      		ldi r18,lo8(21)
 3659 11ea 30E0      		ldi r19,hi8(21)
 3660 11ec AC01      		movw r20,r24
 3661 11ee 429F      		mul r20,r18
 3662 11f0 C001      		movw r24,r0
 3663 11f2 439F      		mul r20,r19
 3664 11f4 900D      		add r25,r0
 3665 11f6 529F      		mul r21,r18
 3666 11f8 900D      		add r25,r0
 3667 11fa 1124      		clr r1
 3668               	.LVL227:
 3669 11fc E80F      		add r30,r24
 3670 11fe F91F      		adc r31,r25
 3671 1200 6F70      		andi r22,lo8(15)
 3672               	.LVL228:
 3673 1202 660F      		lsl r22
 3674 1204 81AD      		ldd r24,Z+57
 3675 1206 817E      		andi r24,lo8(-31)
 3676 1208 862B      		or r24,r22
 3677 120a 81AF      		std Z+57,r24
 3678               	/* epilogue start */
 3679               	.LM372:
 3680 120c 0895      		ret
 3681               	.LFE61:
 3683               	.global	Timebase_UpCounter_Get_Value
 3685               	Timebase_UpCounter_Get_Value:
 3686               	.LFB62:
 3687               	.LM373:
 3688               	.LVL229:
 3689               	/* prologue: function */
 3690               	/* frame size = 0 */
 3691               	.LM374:
 3692 120e E091 0000 		lds r30,Timebase
 3693 1212 F091 0000 		lds r31,(Timebase)+1
 3694 1216 90E0      		ldi r25,lo8(0)
 3695               	.LVL230:
 3696 1218 25E1      		ldi r18,lo8(21)
 3697 121a 30E0      		ldi r19,hi8(21)
 3698 121c AC01      		movw r20,r24
 3699 121e 429F      		mul r20,r18
 3700 1220 C001      		movw r24,r0
 3701 1222 439F      		mul r20,r19
 3702 1224 900D      		add r25,r0
 3703 1226 529F      		mul r21,r18
 3704 1228 900D      		add r25,r0
 3705 122a 1124      		clr r1
 3706               	.LVL231:
 3707 122c E80F      		add r30,r24
 3708 122e F91F      		adc r31,r25
 3709 1230 EA5B      		subi r30,lo8(-(70))
 3710 1232 FF4F      		sbci r31,hi8(-(70))
 3711 1234 6081      		ld r22,Z
 3712 1236 7181      		ldd r23,Z+1
 3713               	.LM375:
 3714 1238 8281      		ldd r24,Z+2
 3715 123a 9381      		ldd r25,Z+3
 3716               	.LVL232:
 3717               	/* epilogue start */
 3718 123c 0895      		ret
 3719               	.LFE62:
 3721               	.global	Timebase_UpCounter_Set_Value
 3723               	Timebase_UpCounter_Set_Value:
 3724               	.LFB63:
 3725               	.LM376:
 3726               	.LVL233:
 3727               	/* prologue: function */
 3728               	/* frame size = 0 */
 3729               	.LM377:
 3730 123e E091 0000 		lds r30,Timebase
 3731 1242 F091 0000 		lds r31,(Timebase)+1
 3732 1246 90E0      		ldi r25,lo8(0)
 3733               	.LVL234:
 3734 1248 25E1      		ldi r18,lo8(21)
 3735 124a 30E0      		ldi r19,hi8(21)
 3736 124c DC01      		movw r26,r24
 3737 124e A29F      		mul r26,r18
 3738 1250 C001      		movw r24,r0
 3739 1252 A39F      		mul r26,r19
 3740 1254 900D      		add r25,r0
 3741 1256 B29F      		mul r27,r18
 3742 1258 900D      		add r25,r0
 3743 125a 1124      		clr r1
 3744               	.LVL235:
 3745 125c E80F      		add r30,r24
 3746 125e F91F      		adc r31,r25
 3747 1260 EA5B      		subi r30,lo8(-(70))
 3748 1262 FF4F      		sbci r31,hi8(-(70))
 3749 1264 4083      		st Z,r20
 3750 1266 5183      		std Z+1,r21
 3751 1268 6283      		std Z+2,r22
 3752 126a 7383      		std Z+3,r23
 3753               	/* epilogue start */
 3754               	.LM378:
 3755 126c 0895      		ret
 3756               	.LFE63:
 3758               	.global	Timebase_UpCounter_Get_EndValue
 3760               	Timebase_UpCounter_Get_EndValue:
 3761               	.LFB64:
 3762               	.LM379:
 3763               	.LVL236:
 3764               	/* prologue: function */
 3765               	/* frame size = 0 */
 3766               	.LM380:
 3767 126e E091 0000 		lds r30,Timebase
 3768 1272 F091 0000 		lds r31,(Timebase)+1
 3769 1276 90E0      		ldi r25,lo8(0)
 3770               	.LVL237:
 3771 1278 25E1      		ldi r18,lo8(21)
 3772 127a 30E0      		ldi r19,hi8(21)
 3773 127c AC01      		movw r20,r24
 3774 127e 429F      		mul r20,r18
 3775 1280 C001      		movw r24,r0
 3776 1282 439F      		mul r20,r19
 3777 1284 900D      		add r25,r0
 3778 1286 529F      		mul r21,r18
 3779 1288 900D      		add r25,r0
 3780 128a 1124      		clr r1
 3781               	.LVL238:
 3782 128c E80F      		add r30,r24
 3783 128e F91F      		adc r31,r25
 3784 1290 DF01      		movw r26,r30
 3785 1292 DA96      		adiw r26,58
 3786 1294 62AD      		ldd r22,Z+58
 3787 1296 1196      		adiw r26,1
 3788 1298 7C91      		ld r23,X
 3789 129a 1197      		sbiw r26,1
 3790               	.LM381:
 3791 129c 1296      		adiw r26,2
 3792 129e 8C91      		ld r24,X
 3793 12a0 1297      		sbiw r26,2
 3794 12a2 1396      		adiw r26,3
 3795 12a4 9C91      		ld r25,X
 3796               	.LVL239:
 3797               	/* epilogue start */
 3798 12a6 0895      		ret
 3799               	.LFE64:
 3801               	.global	Timebase_UpCounter_Set_EndValue
 3803               	Timebase_UpCounter_Set_EndValue:
 3804               	.LFB65:
 3805               	.LM382:
 3806               	.LVL240:
 3807               	/* prologue: function */
 3808               	/* frame size = 0 */
 3809               	.LM383:
 3810 12a8 E091 0000 		lds r30,Timebase
 3811 12ac F091 0000 		lds r31,(Timebase)+1
 3812 12b0 90E0      		ldi r25,lo8(0)
 3813               	.LVL241:
 3814 12b2 25E1      		ldi r18,lo8(21)
 3815 12b4 30E0      		ldi r19,hi8(21)
 3816 12b6 DC01      		movw r26,r24
 3817 12b8 A29F      		mul r26,r18
 3818 12ba C001      		movw r24,r0
 3819 12bc A39F      		mul r26,r19
 3820 12be 900D      		add r25,r0
 3821 12c0 B29F      		mul r27,r18
 3822 12c2 900D      		add r25,r0
 3823 12c4 1124      		clr r1
 3824               	.LVL242:
 3825 12c6 E80F      		add r30,r24
 3826 12c8 F91F      		adc r31,r25
 3827 12ca 42AF      		std Z+58,r20
 3828 12cc 53AF      		std Z+59,r21
 3829 12ce 64AF      		std Z+60,r22
 3830 12d0 75AF      		std Z+61,r23
 3831               	/* epilogue start */
 3832               	.LM384:
 3833 12d2 0895      		ret
 3834               	.LFE65:
 3836               	.global	Timebase_UpCounter_Get_TargetValue
 3838               	Timebase_UpCounter_Get_TargetValue:
 3839               	.LFB66:
 3840               	.LM385:
 3841               	.LVL243:
 3842               	/* prologue: function */
 3843               	/* frame size = 0 */
 3844               	.LM386:
 3845 12d4 E091 0000 		lds r30,Timebase
 3846 12d8 F091 0000 		lds r31,(Timebase)+1
 3847 12dc 90E0      		ldi r25,lo8(0)
 3848               	.LVL244:
 3849 12de 25E1      		ldi r18,lo8(21)
 3850 12e0 30E0      		ldi r19,hi8(21)
 3851 12e2 AC01      		movw r20,r24
 3852 12e4 429F      		mul r20,r18
 3853 12e6 C001      		movw r24,r0
 3854 12e8 439F      		mul r20,r19
 3855 12ea 900D      		add r25,r0
 3856 12ec 529F      		mul r21,r18
 3857 12ee 900D      		add r25,r0
 3858 12f0 1124      		clr r1
 3859               	.LVL245:
 3860 12f2 E80F      		add r30,r24
 3861 12f4 F91F      		adc r31,r25
 3862 12f6 FE96      		adiw r30,62
 3863 12f8 6081      		ld r22,Z
 3864 12fa 7181      		ldd r23,Z+1
 3865               	.LM387:
 3866 12fc 8281      		ldd r24,Z+2
 3867 12fe 9381      		ldd r25,Z+3
 3868               	.LVL246:
 3869               	/* epilogue start */
 3870 1300 0895      		ret
 3871               	.LFE66:
 3873               	.global	Timebase_UpCounter_Set_TargetValue
 3875               	Timebase_UpCounter_Set_TargetValue:
 3876               	.LFB67:
 3877               	.LM388:
 3878               	.LVL247:
 3879               	/* prologue: function */
 3880               	/* frame size = 0 */
 3881               	.LM389:
 3882 1302 E091 0000 		lds r30,Timebase
 3883 1306 F091 0000 		lds r31,(Timebase)+1
 3884 130a 90E0      		ldi r25,lo8(0)
 3885               	.LVL248:
 3886 130c 25E1      		ldi r18,lo8(21)
 3887 130e 30E0      		ldi r19,hi8(21)
 3888 1310 DC01      		movw r26,r24
 3889 1312 A29F      		mul r26,r18
 3890 1314 C001      		movw r24,r0
 3891 1316 A39F      		mul r26,r19
 3892 1318 900D      		add r25,r0
 3893 131a B29F      		mul r27,r18
 3894 131c 900D      		add r25,r0
 3895 131e 1124      		clr r1
 3896               	.LVL249:
 3897 1320 E80F      		add r30,r24
 3898 1322 F91F      		adc r31,r25
 3899 1324 FE96      		adiw r30,62
 3900 1326 4083      		st Z,r20
 3901 1328 5183      		std Z+1,r21
 3902 132a 6283      		std Z+2,r22
 3903 132c 7383      		std Z+3,r23
 3904               	/* epilogue start */
 3905               	.LM390:
 3906 132e 0895      		ret
 3907               	.LFE67:
 3909               	.global	Timebase_UpCounter_Get_TemporaryValue
 3911               	Timebase_UpCounter_Get_TemporaryValue:
 3912               	.LFB68:
 3913               	.LM391:
 3914               	.LVL250:
 3915               	/* prologue: function */
 3916               	/* frame size = 0 */
 3917               	.LM392:
 3918 1330 E091 0000 		lds r30,Timebase
 3919 1334 F091 0000 		lds r31,(Timebase)+1
 3920 1338 90E0      		ldi r25,lo8(0)
 3921               	.LVL251:
 3922 133a 25E1      		ldi r18,lo8(21)
 3923 133c 30E0      		ldi r19,hi8(21)
 3924 133e AC01      		movw r20,r24
 3925 1340 429F      		mul r20,r18
 3926 1342 C001      		movw r24,r0
 3927 1344 439F      		mul r20,r19
 3928 1346 900D      		add r25,r0
 3929 1348 529F      		mul r21,r18
 3930 134a 900D      		add r25,r0
 3931 134c 1124      		clr r1
 3932               	.LVL252:
 3933 134e E80F      		add r30,r24
 3934 1350 F91F      		adc r31,r25
 3935 1352 EE5B      		subi r30,lo8(-(66))
 3936 1354 FF4F      		sbci r31,hi8(-(66))
 3937 1356 6081      		ld r22,Z
 3938 1358 7181      		ldd r23,Z+1
 3939               	.LM393:
 3940 135a 8281      		ldd r24,Z+2
 3941 135c 9381      		ldd r25,Z+3
 3942               	.LVL253:
 3943               	/* epilogue start */
 3944 135e 0895      		ret
 3945               	.LFE68:
 3947               	.global	Timebase_UpCounter_Set_TemporaryValue
 3949               	Timebase_UpCounter_Set_TemporaryValue:
 3950               	.LFB69:
 3951               	.LM394:
 3952               	.LVL254:
 3953               	/* prologue: function */
 3954               	/* frame size = 0 */
 3955               	.LM395:
 3956 1360 E091 0000 		lds r30,Timebase
 3957 1364 F091 0000 		lds r31,(Timebase)+1
 3958 1368 90E0      		ldi r25,lo8(0)
 3959               	.LVL255:
 3960 136a 25E1      		ldi r18,lo8(21)
 3961 136c 30E0      		ldi r19,hi8(21)
 3962 136e DC01      		movw r26,r24
 3963 1370 A29F      		mul r26,r18
 3964 1372 C001      		movw r24,r0
 3965 1374 A39F      		mul r26,r19
 3966 1376 900D      		add r25,r0
 3967 1378 B29F      		mul r27,r18
 3968 137a 900D      		add r25,r0
 3969 137c 1124      		clr r1
 3970               	.LVL256:
 3971 137e E80F      		add r30,r24
 3972 1380 F91F      		adc r31,r25
 3973 1382 EE5B      		subi r30,lo8(-(66))
 3974 1384 FF4F      		sbci r31,hi8(-(66))
 3975 1386 4083      		st Z,r20
 3976 1388 5183      		std Z+1,r21
 3977 138a 6283      		std Z+2,r22
 3978 138c 7383      		std Z+3,r23
 3979               	/* epilogue start */
 3980               	.LM396:
 3981 138e 0895      		ret
 3982               	.LFE69:
 3984               	.global	Timebase_UpCounter_Get_PeriodValue
 3986               	Timebase_UpCounter_Get_PeriodValue:
 3987               	.LFB70:
 3988               	.LM397:
 3989               	.LVL257:
 3990               	/* prologue: function */
 3991               	/* frame size = 0 */
 3992               	.LM398:
 3993 1390 E091 0000 		lds r30,Timebase
 3994 1394 F091 0000 		lds r31,(Timebase)+1
 3995 1398 90E0      		ldi r25,lo8(0)
 3996               	.LVL258:
 3997 139a 25E1      		ldi r18,lo8(21)
 3998 139c 30E0      		ldi r19,hi8(21)
 3999 139e AC01      		movw r20,r24
 4000 13a0 429F      		mul r20,r18
 4001 13a2 C001      		movw r24,r0
 4002 13a4 439F      		mul r20,r19
 4003 13a6 900D      		add r25,r0
 4004 13a8 529F      		mul r21,r18
 4005 13aa 900D      		add r25,r0
 4006 13ac 1124      		clr r1
 4007               	.LVL259:
 4008 13ae E80F      		add r30,r24
 4009 13b0 F91F      		adc r31,r25
 4010 13b2 E65B      		subi r30,lo8(-(74))
 4011 13b4 FF4F      		sbci r31,hi8(-(74))
 4012 13b6 6081      		ld r22,Z
 4013 13b8 7181      		ldd r23,Z+1
 4014               	.LM399:
 4015 13ba 8281      		ldd r24,Z+2
 4016 13bc 9381      		ldd r25,Z+3
 4017               	.LVL260:
 4018               	/* epilogue start */
 4019 13be 0895      		ret
 4020               	.LFE70:
 4022               	.global	Timebase_UpCounter_Set_PeriodValue
 4024               	Timebase_UpCounter_Set_PeriodValue:
 4025               	.LFB71:
 4026               	.LM400:
 4027               	.LVL261:
 4028               	/* prologue: function */
 4029               	/* frame size = 0 */
 4030               	.LM401:
 4031 13c0 E091 0000 		lds r30,Timebase
 4032 13c4 F091 0000 		lds r31,(Timebase)+1
 4033 13c8 90E0      		ldi r25,lo8(0)
 4034               	.LVL262:
 4035 13ca 25E1      		ldi r18,lo8(21)
 4036 13cc 30E0      		ldi r19,hi8(21)
 4037 13ce DC01      		movw r26,r24
 4038 13d0 A29F      		mul r26,r18
 4039 13d2 C001      		movw r24,r0
 4040 13d4 A39F      		mul r26,r19
 4041 13d6 900D      		add r25,r0
 4042 13d8 B29F      		mul r27,r18
 4043 13da 900D      		add r25,r0
 4044 13dc 1124      		clr r1
 4045               	.LVL263:
 4046 13de E80F      		add r30,r24
 4047 13e0 F91F      		adc r31,r25
 4048 13e2 E65B      		subi r30,lo8(-(74))
 4049 13e4 FF4F      		sbci r31,hi8(-(74))
 4050 13e6 4083      		st Z,r20
 4051 13e8 5183      		std Z+1,r21
 4052 13ea 6283      		std Z+2,r22
 4053 13ec 7383      		std Z+3,r23
 4054               	/* epilogue start */
 4055               	.LM402:
 4056 13ee 0895      		ret
 4057               	.LFE71:
 4059               	.global	Timebase_UpCounter_Get_Period_Flag
 4061               	Timebase_UpCounter_Get_Period_Flag:
 4062               	.LFB72:
 4063               	.LM403:
 4064               	.LVL264:
 4065               	/* prologue: function */
 4066               	/* frame size = 0 */
 4067               	.LM404:
 4068 13f0 E091 0000 		lds r30,Timebase
 4069 13f4 F091 0000 		lds r31,(Timebase)+1
 4070 13f8 90E0      		ldi r25,lo8(0)
 4071               	.LVL265:
 4072 13fa 25E1      		ldi r18,lo8(21)
 4073 13fc 30E0      		ldi r19,hi8(21)
 4074 13fe AC01      		movw r20,r24
 4075 1400 429F      		mul r20,r18
 4076 1402 C001      		movw r24,r0
 4077 1404 439F      		mul r20,r19
 4078 1406 900D      		add r25,r0
 4079 1408 529F      		mul r21,r18
 4080 140a 900D      		add r25,r0
 4081 140c 1124      		clr r1
 4082               	.LVL266:
 4083 140e E80F      		add r30,r24
 4084 1410 F91F      		adc r31,r25
 4085 1412 81AD      		ldd r24,Z+57
 4086               	.LM405:
 4087 1414 8170      		andi r24,lo8(1)
 4088               	/* epilogue start */
 4089 1416 0895      		ret
 4090               	.LFE72:
 4092               	.global	Timebase_UpCounter_Set_Period_Flag
 4094               	Timebase_UpCounter_Set_Period_Flag:
 4095               	.LFB73:
 4096               	.LM406:
 4097               	.LVL267:
 4098               	/* prologue: function */
 4099               	/* frame size = 0 */
 4100               	.LM407:
 4101 1418 E091 0000 		lds r30,Timebase
 4102 141c F091 0000 		lds r31,(Timebase)+1
 4103 1420 90E0      		ldi r25,lo8(0)
 4104               	.LVL268:
 4105 1422 25E1      		ldi r18,lo8(21)
 4106 1424 30E0      		ldi r19,hi8(21)
 4107 1426 AC01      		movw r20,r24
 4108 1428 429F      		mul r20,r18
 4109 142a C001      		movw r24,r0
 4110 142c 439F      		mul r20,r19
 4111 142e 900D      		add r25,r0
 4112 1430 529F      		mul r21,r18
 4113 1432 900D      		add r25,r0
 4114 1434 1124      		clr r1
 4115               	.LVL269:
 4116 1436 E80F      		add r30,r24
 4117 1438 F91F      		adc r31,r25
 4118 143a 81AD      		ldd r24,Z+57
 4119 143c 8160      		ori r24,lo8(1)
 4120 143e 81AF      		std Z+57,r24
 4121               	/* epilogue start */
 4122               	.LM408:
 4123 1440 0895      		ret
 4124               	.LFE73:
 4126               	.global	Timebase_UpCounter_Clear_Period_Flag
 4128               	Timebase_UpCounter_Clear_Period_Flag:
 4129               	.LFB74:
 4130               	.LM409:
 4131               	.LVL270:
 4132               	/* prologue: function */
 4133               	/* frame size = 0 */
 4134               	.LM410:
 4135 1442 E091 0000 		lds r30,Timebase
 4136 1446 F091 0000 		lds r31,(Timebase)+1
 4137 144a 90E0      		ldi r25,lo8(0)
 4138               	.LVL271:
 4139 144c 25E1      		ldi r18,lo8(21)
 4140 144e 30E0      		ldi r19,hi8(21)
 4141 1450 AC01      		movw r20,r24
 4142 1452 429F      		mul r20,r18
 4143 1454 C001      		movw r24,r0
 4144 1456 439F      		mul r20,r19
 4145 1458 900D      		add r25,r0
 4146 145a 529F      		mul r21,r18
 4147 145c 900D      		add r25,r0
 4148 145e 1124      		clr r1
 4149               	.LVL272:
 4150 1460 E80F      		add r30,r24
 4151 1462 F91F      		adc r31,r25
 4152 1464 81AD      		ldd r24,Z+57
 4153 1466 8E7F      		andi r24,lo8(-2)
 4154 1468 81AF      		std Z+57,r24
 4155               	/* epilogue start */
 4156               	.LM411:
 4157 146a 0895      		ret
 4158               	.LFE74:
 4160               	.global	Timebase_UpCounter_Reset
 4162               	Timebase_UpCounter_Reset:
 4163               	.LFB75:
 4164               	.LM412:
 4165               	.LVL273:
 4166               	/* prologue: function */
 4167               	/* frame size = 0 */
 4168               	.LBB767:
 4169               	.LBB768:
 4170               	.LM413:
 4171 146c E091 0000 		lds r30,Timebase
 4172 1470 F091 0000 		lds r31,(Timebase)+1
 4173 1474 90E0      		ldi r25,lo8(0)
 4174 1476 25E1      		ldi r18,lo8(21)
 4175 1478 30E0      		ldi r19,hi8(21)
 4176 147a AC01      		movw r20,r24
 4177               	.LVL274:
 4178 147c 429F      		mul r20,r18
 4179 147e C001      		movw r24,r0
 4180 1480 439F      		mul r20,r19
 4181 1482 900D      		add r25,r0
 4182 1484 529F      		mul r21,r18
 4183 1486 900D      		add r25,r0
 4184 1488 1124      		clr r1
 4185 148a E80F      		add r30,r24
 4186 148c F91F      		adc r31,r25
 4187 148e 81AD      		ldd r24,Z+57
 4188               	.LBE768:
 4189               	.LBE767:
 4190               	.LBB769:
 4191               	.LBB770:
 4192               	.LM414:
 4193 1490 EA5B      		subi r30,lo8(-(70))
 4194 1492 FF4F      		sbci r31,hi8(-(70))
 4195 1494 1082      		st Z,__zero_reg__
 4196 1496 1182      		std Z+1,__zero_reg__
 4197 1498 1282      		std Z+2,__zero_reg__
 4198 149a 1382      		std Z+3,__zero_reg__
 4199 149c E654      		subi r30,lo8(-(-70))
 4200 149e F040      		sbci r31,hi8(-(-70))
 4201               	.LBE770:
 4202               	.LBE769:
 4203               	.LBB771:
 4204               	.LBB772:
 4205               	.LM415:
 4206 14a0 12AE      		std Z+58,__zero_reg__
 4207 14a2 13AE      		std Z+59,__zero_reg__
 4208 14a4 14AE      		std Z+60,__zero_reg__
 4209 14a6 15AE      		std Z+61,__zero_reg__
 4210               	.LBE772:
 4211               	.LBE771:
 4212               	.LBB773:
 4213               	.LBB774:
 4214               	.LM416:
 4215 14a8 FE96      		adiw r30,62
 4216 14aa 1192      		st Z+,__zero_reg__
 4217 14ac 1192      		st Z+,__zero_reg__
 4218 14ae 1192      		st Z+,__zero_reg__
 4219 14b0 1192      		st Z+,__zero_reg__
 4220               	.LBE774:
 4221               	.LBE773:
 4222               	.LBB775:
 4223               	.LBB776:
 4224               	.LM417:
 4225 14b2 1082      		st Z,__zero_reg__
 4226 14b4 1182      		std Z+1,__zero_reg__
 4227 14b6 1282      		std Z+2,__zero_reg__
 4228 14b8 1382      		std Z+3,__zero_reg__
 4229               	.LBE776:
 4230               	.LBE775:
 4231               	.LBB777:
 4232               	.LBB778:
 4233               	.LM418:
 4234 14ba 3896      		adiw r30,8
 4235 14bc 1082      		st Z,__zero_reg__
 4236 14be 1182      		std Z+1,__zero_reg__
 4237 14c0 1282      		std Z+2,__zero_reg__
 4238 14c2 1382      		std Z+3,__zero_reg__
 4239 14c4 EA54      		subi r30,lo8(-(-74))
 4240 14c6 F040      		sbci r31,hi8(-(-74))
 4241               	.LBE778:
 4242               	.LBE777:
 4243               	.LBB779:
 4244               	.LBB780:
 4245               	.LM419:
 4246 14c8 807E      		andi r24,lo8(-32)
 4247 14ca 81AF      		std Z+57,r24
 4248               	/* epilogue start */
 4249               	.LBE780:
 4250               	.LBE779:
 4251               	.LM420:
 4252 14cc 0895      		ret
 4253               	.LFE75:
 4255               	.global	Timebase_UpCounter_Clear_All_Flags
 4257               	Timebase_UpCounter_Clear_All_Flags:
 4258               	.LFB76:
 4259               	.LM421:
 4260               	.LVL275:
 4261               	/* prologue: function */
 4262               	/* frame size = 0 */
 4263               	.LM422:
 4264 14ce 0E94 0000 		call Timebase_UpCounter_Reset
 4265               	.LVL276:
 4266               	/* epilogue start */
 4267               	.LM423:
 4268 14d2 0895      		ret
 4269               	.LFE76:
 4271               	.global	Timebase_UpCounter_Start
 4273               	Timebase_UpCounter_Start:
 4274               	.LFB77:
 4275               	.LM424:
 4276               	.LVL277:
 4277               	/* prologue: function */
 4278               	/* frame size = 0 */
 4279               	.LBB781:
 4280               	.LBB782:
 4281               	.LM425:
 4282 14d4 E091 0000 		lds r30,Timebase
 4283 14d8 F091 0000 		lds r31,(Timebase)+1
 4284 14dc 90E0      		ldi r25,lo8(0)
 4285               	.LBE782:
 4286               	.LBE781:
 4287               	.LM426:
 4288 14de 25E1      		ldi r18,lo8(21)
 4289 14e0 30E0      		ldi r19,hi8(21)
 4290 14e2 AC01      		movw r20,r24
 4291               	.LVL278:
 4292 14e4 429F      		mul r20,r18
 4293 14e6 C001      		movw r24,r0
 4294 14e8 439F      		mul r20,r19
 4295 14ea 900D      		add r25,r0
 4296 14ec 529F      		mul r21,r18
 4297 14ee 900D      		add r25,r0
 4298 14f0 1124      		clr r1
 4299 14f2 E80F      		add r30,r24
 4300 14f4 F91F      		adc r31,r25
 4301 14f6 91AD      		ldd r25,Z+57
 4302 14f8 892F      		mov r24,r25
 4303 14fa 8695      		lsr r24
 4304 14fc 8F70      		andi r24,lo8(15)
 4305 14fe 8130      		cpi r24,lo8(1)
 4306 1500 01F0      		breq .L204
 4307               	.LBB783:
 4308               	.LBB784:
 4309               	.LM427:
 4310 1502 917E      		andi r25,lo8(-31)
 4311 1504 9260      		ori r25,lo8(2)
 4312 1506 91AF      		std Z+57,r25
 4313               	.L204:
 4314 1508 0895      		ret
 4315               	.LBE784:
 4316               	.LBE783:
 4317               	.LFE77:
 4319               	.global	Timebase_UpCounter_Stop
 4321               	Timebase_UpCounter_Stop:
 4322               	.LFB78:
 4323               	.LM428:
 4324               	.LVL279:
 4325               	/* prologue: function */
 4326               	/* frame size = 0 */
 4327               	.LBB785:
 4328               	.LBB786:
 4329               	.LM429:
 4330 150a E091 0000 		lds r30,Timebase
 4331 150e F091 0000 		lds r31,(Timebase)+1
 4332 1512 90E0      		ldi r25,lo8(0)
 4333               	.LBE786:
 4334               	.LBE785:
 4335               	.LM430:
 4336 1514 25E1      		ldi r18,lo8(21)
 4337 1516 30E0      		ldi r19,hi8(21)
 4338 1518 AC01      		movw r20,r24
 4339               	.LVL280:
 4340 151a 429F      		mul r20,r18
 4341 151c C001      		movw r24,r0
 4342 151e 439F      		mul r20,r19
 4343 1520 900D      		add r25,r0
 4344 1522 529F      		mul r21,r18
 4345 1524 900D      		add r25,r0
 4346 1526 1124      		clr r1
 4347 1528 E80F      		add r30,r24
 4348 152a F91F      		adc r31,r25
 4349 152c 91AD      		ldd r25,Z+57
 4350 152e 892F      		mov r24,r25
 4351 1530 8695      		lsr r24
 4352 1532 8F70      		andi r24,lo8(15)
 4353 1534 8230      		cpi r24,lo8(2)
 4354 1536 01F0      		breq .L207
 4355               	.LBB787:
 4356               	.LBB788:
 4357               	.LM431:
 4358 1538 917E      		andi r25,lo8(-31)
 4359 153a 9460      		ori r25,lo8(4)
 4360 153c 91AF      		std Z+57,r25
 4361               	.L207:
 4362 153e 0895      		ret
 4363               	.LBE788:
 4364               	.LBE787:
 4365               	.LFE78:
 4367               	.global	Timebase_UpCounter_Set_Securely
 4369               	Timebase_UpCounter_Set_Securely:
 4370               	.LFB79:
 4371               	.LM432:
 4372               	.LVL281:
 4373               	/* prologue: function */
 4374               	/* frame size = 0 */
 4375               	.LBB789:
 4376               	.LBB790:
 4377               	.LM433:
 4378 1540 A091 0000 		lds r26,Timebase
 4379 1544 B091 0000 		lds r27,(Timebase)+1
 4380 1548 90E0      		ldi r25,lo8(0)
 4381               	.LBE790:
 4382               	.LBE789:
 4383               	.LM434:
 4384 154a 25E1      		ldi r18,lo8(21)
 4385 154c 30E0      		ldi r19,hi8(21)
 4386 154e 829F      		mul r24,r18
 4387 1550 F001      		movw r30,r0
 4388 1552 839F      		mul r24,r19
 4389 1554 F00D      		add r31,r0
 4390 1556 929F      		mul r25,r18
 4391 1558 F00D      		add r31,r0
 4392 155a 1124      		clr r1
 4393               	.LVL282:
 4394 155c EA0F      		add r30,r26
 4395 155e FB1F      		adc r31,r27
 4396 1560 81AD      		ldd r24,Z+57
 4397 1562 8695      		lsr r24
 4398 1564 8F70      		andi r24,lo8(15)
 4399 1566 01F4      		brne .L210
 4400               	.LBB791:
 4401               	.LBB792:
 4402               	.LM435:
 4403 1568 EA5B      		subi r30,lo8(-(70))
 4404 156a FF4F      		sbci r31,hi8(-(70))
 4405 156c 1082      		st Z,__zero_reg__
 4406 156e 1182      		std Z+1,__zero_reg__
 4407 1570 1282      		std Z+2,__zero_reg__
 4408 1572 1382      		std Z+3,__zero_reg__
 4409               	.LBE792:
 4410               	.LBE791:
 4411               	.LBB793:
 4412               	.LBB794:
 4413               	.LM436:
 4414 1574 1292      		st -Z,__zero_reg__
 4415 1576 1292      		st -Z,__zero_reg__
 4416 1578 1292      		st -Z,__zero_reg__
 4417 157a 1292      		st -Z,__zero_reg__
 4418               	.LBE794:
 4419               	.LBE793:
 4420               	.LBB795:
 4421               	.LBB796:
 4422               	.LM437:
 4423 157c 7293      		st -Z,r23
 4424 157e 6293      		st -Z,r22
 4425 1580 5293      		st -Z,r21
 4426 1582 4293      		st -Z,r20
 4427 1584 FE97      		sbiw r30,62
 4428               	.LBE796:
 4429               	.LBE795:
 4430               	.LBB797:
 4431               	.LBB798:
 4432               	.LM438:
 4433 1586 1A96      		adiw r26,10
 4434 1588 8D91      		ld r24,X+
 4435 158a 9D91      		ld r25,X+
 4436 158c 0D90      		ld __tmp_reg__,X+
 4437 158e BC91      		ld r27,X
 4438 1590 A02D      		mov r26,__tmp_reg__
 4439               	.LVL283:
 4440               	.LBE798:
 4441               	.LBE797:
 4442               	.LBB799:
 4443               	.LBB800:
 4444               	.LM439:
 4445 1592 840F      		add r24,r20
 4446 1594 951F      		adc r25,r21
 4447 1596 A61F      		adc r26,r22
 4448 1598 B71F      		adc r27,r23
 4449 159a 82AF      		std Z+58,r24
 4450 159c 93AF      		std Z+59,r25
 4451 159e A4AF      		std Z+60,r26
 4452 15a0 B5AF      		std Z+61,r27
 4453               	.LBE800:
 4454               	.LBE799:
 4455               	.LBB801:
 4456               	.LBB802:
 4457               	.LM440:
 4458 15a2 91AD      		ldd r25,Z+57
 4459 15a4 892F      		mov r24,r25
 4460               	.LVL284:
 4461 15a6 8695      		lsr r24
 4462 15a8 8F70      		andi r24,lo8(15)
 4463 15aa 8130      		cpi r24,lo8(1)
 4464 15ac 01F0      		breq .L210
 4465               	.LBB803:
 4466               	.LBB804:
 4467               	.LM441:
 4468 15ae 917E      		andi r25,lo8(-31)
 4469 15b0 9260      		ori r25,lo8(2)
 4470 15b2 91AF      		std Z+57,r25
 4471               	.L210:
 4472 15b4 0895      		ret
 4473               	.LBE804:
 4474               	.LBE803:
 4475               	.LBE802:
 4476               	.LBE801:
 4477               	.LFE79:
 4479               	.global	Timebase_UpCounter_Set_Forcefully
 4481               	Timebase_UpCounter_Set_Forcefully:
 4482               	.LFB80:
 4483               	.LM442:
 4484               	.LVL285:
 4485 15b6 DF92      		push r13
 4486 15b8 EF92      		push r14
 4487 15ba FF92      		push r15
 4488 15bc 0F93      		push r16
 4489 15be 1F93      		push r17
 4490               	/* prologue: function */
 4491               	/* frame size = 0 */
 4492 15c0 D82E      		mov r13,r24
 4493 15c2 7A01      		movw r14,r20
 4494 15c4 8B01      		movw r16,r22
 4495               	.LM443:
 4496 15c6 0E94 0000 		call Timebase_UpCounter_Reset
 4497               	.LVL286:
 4498               	.LM444:
 4499 15ca 8D2D      		mov r24,r13
 4500 15cc B801      		movw r22,r16
 4501 15ce A701      		movw r20,r14
 4502 15d0 0E94 0000 		call Timebase_UpCounter_Set_Securely
 4503               	/* epilogue start */
 4504               	.LM445:
 4505 15d4 1F91      		pop r17
 4506 15d6 0F91      		pop r16
 4507 15d8 FF90      		pop r15
 4508 15da EF90      		pop r14
 4509               	.LVL287:
 4510 15dc DF90      		pop r13
 4511               	.LVL288:
 4512 15de 0895      		ret
 4513               	.LFE80:
 4515               	.global	Timebase_UpCounter_Update
 4517               	Timebase_UpCounter_Update:
 4518               	.LFB81:
 4519               	.LM446:
 4520               	.LVL289:
 4521 15e0 EF92      		push r14
 4522 15e2 FF92      		push r15
 4523 15e4 0F93      		push r16
 4524 15e6 1F93      		push r17
 4525 15e8 CF93      		push r28
 4526 15ea DF93      		push r29
 4527               	/* prologue: function */
 4528               	/* frame size = 0 */
 4529               	.LBB805:
 4530               	.LBB806:
 4531               	.LM447:
 4532 15ec A091 0000 		lds r26,Timebase
 4533 15f0 B091 0000 		lds r27,(Timebase)+1
 4534 15f4 90E0      		ldi r25,lo8(0)
 4535 15f6 25E1      		ldi r18,lo8(21)
 4536 15f8 30E0      		ldi r19,hi8(21)
 4537 15fa 829F      		mul r24,r18
 4538 15fc F001      		movw r30,r0
 4539 15fe 839F      		mul r24,r19
 4540 1600 F00D      		add r31,r0
 4541 1602 929F      		mul r25,r18
 4542 1604 F00D      		add r31,r0
 4543 1606 1124      		clr r1
 4544               	.LVL290:
 4545 1608 EA0F      		add r30,r26
 4546 160a FB1F      		adc r31,r27
 4547 160c 81AD      		ldd r24,Z+57
 4548 160e 8695      		lsr r24
 4549 1610 8F70      		andi r24,lo8(15)
 4550               	.LBE806:
 4551               	.LBE805:
 4552               	.LM448:
 4553 1612 8130      		cpi r24,lo8(1)
 4554 1614 01F0      		breq .+2
 4555 1616 00C0      		rjmp .L214
 4556               	.LBB807:
 4557               	.LBB808:
 4558               	.LM449:
 4559 1618 1A96      		adiw r26,10
 4560 161a 8D91      		ld r24,X+
 4561 161c 9D91      		ld r25,X+
 4562 161e 0D90      		ld __tmp_reg__,X+
 4563 1620 BC91      		ld r27,X
 4564 1622 A02D      		mov r26,__tmp_reg__
 4565               	.LVL291:
 4566               	.LBE808:
 4567               	.LBE807:
 4568               	.LM450:
 4569 1624 22AD      		ldd r18,Z+58
 4570 1626 33AD      		ldd r19,Z+59
 4571 1628 44AD      		ldd r20,Z+60
 4572 162a 55AD      		ldd r21,Z+61
 4573 162c 281B      		sub r18,r24
 4574 162e 390B      		sbc r19,r25
 4575 1630 4A0B      		sbc r20,r26
 4576 1632 5B0B      		sbc r21,r27
 4577               	.LBB809:
 4578               	.LBB810:
 4579               	.LM451:
 4580 1634 BF01      		movw r22,r30
 4581 1636 6E5B      		subi r22,lo8(-(66))
 4582 1638 7F4F      		sbci r23,hi8(-(66))
 4583 163a DB01      		movw r26,r22
 4584 163c 2D93      		st X+,r18
 4585 163e 3D93      		st X+,r19
 4586 1640 4D93      		st X+,r20
 4587 1642 5C93      		st X,r21
 4588 1644 1397      		sbiw r26,3
 4589               	.LBE810:
 4590               	.LBE809:
 4591               	.LBB811:
 4592               	.LBB812:
 4593               	.LM452:
 4594 1646 EF01      		movw r28,r30
 4595 1648 CA5B      		subi r28,lo8(-(70))
 4596 164a DF4F      		sbci r29,hi8(-(70))
 4597 164c FE96      		adiw r30,62
 4598 164e E080      		ld r14,Z
 4599 1650 F180      		ldd r15,Z+1
 4600 1652 0281      		ldd r16,Z+2
 4601 1654 1381      		ldd r17,Z+3
 4602 1656 FE97      		sbiw r30,62
 4603 1658 D801      		movw r26,r16
 4604 165a C701      		movw r24,r14
 4605               	.LVL292:
 4606 165c 821B      		sub r24,r18
 4607 165e 930B      		sbc r25,r19
 4608 1660 A40B      		sbc r26,r20
 4609 1662 B50B      		sbc r27,r21
 4610 1664 8883      		st Y,r24
 4611 1666 9983      		std Y+1,r25
 4612 1668 AA83      		std Y+2,r26
 4613 166a BB83      		std Y+3,r27
 4614               	.LBE812:
 4615               	.LBE811:
 4616               	.LM453:
 4617 166c 1216      		cp __zero_reg__,r18
 4618 166e 1306      		cpc __zero_reg__,r19
 4619 1670 1406      		cpc __zero_reg__,r20
 4620 1672 1506      		cpc __zero_reg__,r21
 4621 1674 04F0      		brlt .L216
 4622               	.LBB813:
 4623               	.LBB814:
 4624               	.LM454:
 4625 1676 12AE      		std Z+58,__zero_reg__
 4626 1678 13AE      		std Z+59,__zero_reg__
 4627 167a 14AE      		std Z+60,__zero_reg__
 4628 167c 15AE      		std Z+61,__zero_reg__
 4629               	.LBE814:
 4630               	.LBE813:
 4631               	.LBB815:
 4632               	.LBB816:
 4633               	.LM455:
 4634 167e DB01      		movw r26,r22
 4635 1680 1D92      		st X+,__zero_reg__
 4636 1682 1D92      		st X+,__zero_reg__
 4637 1684 1D92      		st X+,__zero_reg__
 4638 1686 1C92      		st X,__zero_reg__
 4639 1688 1397      		sbiw r26,3
 4640               	.LBE816:
 4641               	.LBE815:
 4642               	.LBB817:
 4643               	.LBB818:
 4644               	.LM456:
 4645 168a E882      		st Y,r14
 4646 168c F982      		std Y+1,r15
 4647 168e 0A83      		std Y+2,r16
 4648 1690 1B83      		std Y+3,r17
 4649               	.LBE818:
 4650               	.LBE817:
 4651               	.LBB819:
 4652               	.LBB820:
 4653               	.LM457:
 4654 1692 81AD      		ldd r24,Z+57
 4655 1694 817E      		andi r24,lo8(-31)
 4656 1696 8860      		ori r24,lo8(8)
 4657 1698 81AF      		std Z+57,r24
 4658 169a 00C0      		rjmp .L216
 4659               	.L214:
 4660               	.LBE820:
 4661               	.LBE819:
 4662               	.LM458:
 4663 169c 8230      		cpi r24,lo8(2)
 4664 169e 01F4      		brne .L216
 4665               	.LBB821:
 4666               	.LBB822:
 4667               	.LM459:
 4668 16a0 1A96      		adiw r26,10
 4669 16a2 8D91      		ld r24,X+
 4670 16a4 9D91      		ld r25,X+
 4671 16a6 0D90      		ld __tmp_reg__,X+
 4672 16a8 BC91      		ld r27,X
 4673 16aa A02D      		mov r26,__tmp_reg__
 4674               	.LVL293:
 4675               	.LBE822:
 4676               	.LBE821:
 4677               	.LBB823:
 4678               	.LBB824:
 4679               	.LM460:
 4680 16ac EE5B      		subi r30,lo8(-(66))
 4681 16ae FF4F      		sbci r31,hi8(-(66))
 4682 16b0 2081      		ld r18,Z
 4683 16b2 3181      		ldd r19,Z+1
 4684 16b4 4281      		ldd r20,Z+2
 4685 16b6 5381      		ldd r21,Z+3
 4686 16b8 E254      		subi r30,lo8(-(-66))
 4687 16ba F040      		sbci r31,hi8(-(-66))
 4688 16bc 820F      		add r24,r18
 4689 16be 931F      		adc r25,r19
 4690 16c0 A41F      		adc r26,r20
 4691 16c2 B51F      		adc r27,r21
 4692 16c4 82AF      		std Z+58,r24
 4693 16c6 93AF      		std Z+59,r25
 4694 16c8 A4AF      		std Z+60,r26
 4695 16ca B5AF      		std Z+61,r27
 4696               	.LBE824:
 4697               	.LBE823:
 4698               	.LBB825:
 4699               	.LBB826:
 4700               	.LM461:
 4701 16cc FE96      		adiw r30,62
 4702 16ce 8081      		ld r24,Z
 4703 16d0 9181      		ldd r25,Z+1
 4704 16d2 A281      		ldd r26,Z+2
 4705 16d4 B381      		ldd r27,Z+3
 4706               	.LVL294:
 4707 16d6 821B      		sub r24,r18
 4708 16d8 930B      		sbc r25,r19
 4709 16da A40B      		sbc r26,r20
 4710 16dc B50B      		sbc r27,r21
 4711 16de 3896      		adiw r30,8
 4712 16e0 8083      		st Z,r24
 4713 16e2 9183      		std Z+1,r25
 4714 16e4 A283      		std Z+2,r26
 4715 16e6 B383      		std Z+3,r27
 4716               	.L216:
 4717               	/* epilogue start */
 4718               	.LBE826:
 4719               	.LBE825:
 4720               	.LM462:
 4721 16e8 DF91      		pop r29
 4722 16ea CF91      		pop r28
 4723 16ec 1F91      		pop r17
 4724 16ee 0F91      		pop r16
 4725 16f0 FF90      		pop r15
 4726 16f2 EF90      		pop r14
 4727 16f4 0895      		ret
 4728               	.LFE81:
 4730               	.global	Timebase_UpCounter_Expired
 4732               	Timebase_UpCounter_Expired:
 4733               	.LFB82:
 4734               	.LM463:
 4735               	.LVL295:
 4736               	/* prologue: function */
 4737               	/* frame size = 0 */
 4738               	.LM464:
 4739 16f6 40E0      		ldi r20,lo8(0)
 4740 16f8 E091 0000 		lds r30,Timebase
 4741 16fc F091 0000 		lds r31,(Timebase)+1
 4742 1700 90E0      		ldi r25,lo8(0)
 4743               	.LVL296:
 4744 1702 25E1      		ldi r18,lo8(21)
 4745 1704 30E0      		ldi r19,hi8(21)
 4746 1706 BC01      		movw r22,r24
 4747 1708 629F      		mul r22,r18
 4748 170a C001      		movw r24,r0
 4749 170c 639F      		mul r22,r19
 4750 170e 900D      		add r25,r0
 4751 1710 729F      		mul r23,r18
 4752 1712 900D      		add r25,r0
 4753 1714 1124      		clr r1
 4754               	.LVL297:
 4755 1716 E80F      		add r30,r24
 4756 1718 F91F      		adc r31,r25
 4757 171a 81AD      		ldd r24,Z+57
 4758 171c 8695      		lsr r24
 4759 171e 8F70      		andi r24,lo8(15)
 4760 1720 8430      		cpi r24,lo8(4)
 4761 1722 01F4      		brne .L218
 4762 1724 41E0      		ldi r20,lo8(1)
 4763               	.L218:
 4764               	.LM465:
 4765 1726 842F      		mov r24,r20
 4766               	/* epilogue start */
 4767 1728 0895      		ret
 4768               	.LFE82:
 4770               	.global	Timebase_UpCounter_Expired_Event
 4772               	Timebase_UpCounter_Expired_Event:
 4773               	.LFB83:
 4774               	.LM466:
 4775               	.LVL298:
 4776               	/* prologue: function */
 4777               	/* frame size = 0 */
 4778 172a 482F      		mov r20,r24
 4779               	.LM467:
 4780 172c E091 0000 		lds r30,Timebase
 4781 1730 F091 0000 		lds r31,(Timebase)+1
 4782 1734 282F      		mov r18,r24
 4783 1736 30E0      		ldi r19,lo8(0)
 4784               	.LVL299:
 4785 1738 85E1      		ldi r24,lo8(21)
 4786 173a 90E0      		ldi r25,hi8(21)
 4787               	.LVL300:
 4788 173c BC01      		movw r22,r24
 4789 173e 269F      		mul r18,r22
 4790 1740 C001      		movw r24,r0
 4791 1742 279F      		mul r18,r23
 4792 1744 900D      		add r25,r0
 4793 1746 369F      		mul r19,r22
 4794 1748 900D      		add r25,r0
 4795 174a 1124      		clr r1
 4796 174c E80F      		add r30,r24
 4797 174e F91F      		adc r31,r25
 4798 1750 81AD      		ldd r24,Z+57
 4799 1752 8695      		lsr r24
 4800 1754 8F70      		andi r24,lo8(15)
 4801 1756 8430      		cpi r24,lo8(4)
 4802 1758 01F0      		breq .L221
 4803 175a 80E0      		ldi r24,lo8(0)
 4804 175c 0895      		ret
 4805               	.L221:
 4806               	.LBB827:
 4807               	.LBB828:
 4808               	.LM468:
 4809 175e 842F      		mov r24,r20
 4810 1760 0E94 0000 		call Timebase_UpCounter_Reset
 4811               	.LVL301:
 4812 1764 81E0      		ldi r24,lo8(1)
 4813               	.LBE828:
 4814               	.LBE827:
 4815               	.LM469:
 4816 1766 0895      		ret
 4817               	.LFE83:
 4819               	.global	Timebase_UpCounter_Set_Period_Value_Securely
 4821               	Timebase_UpCounter_Set_Period_Value_Securely:
 4822               	.LFB84:
 4823               	.LM470:
 4824               	.LVL302:
 4825 1768 CF93      		push r28
 4826 176a DF93      		push r29
 4827               	/* prologue: function */
 4828               	/* frame size = 0 */
 4829               	.LBB829:
 4830               	.LBB830:
 4831               	.LM471:
 4832 176c C091 0000 		lds r28,Timebase
 4833 1770 D091 0000 		lds r29,(Timebase)+1
 4834 1774 90E0      		ldi r25,lo8(0)
 4835               	.LBE830:
 4836               	.LBE829:
 4837               	.LM472:
 4838 1776 25E1      		ldi r18,lo8(21)
 4839 1778 30E0      		ldi r19,hi8(21)
 4840 177a FC01      		movw r30,r24
 4841               	.LVL303:
 4842 177c E29F      		mul r30,r18
 4843 177e C001      		movw r24,r0
 4844 1780 E39F      		mul r30,r19
 4845 1782 900D      		add r25,r0
 4846 1784 F29F      		mul r31,r18
 4847 1786 900D      		add r25,r0
 4848 1788 1124      		clr r1
 4849 178a C80F      		add r28,r24
 4850 178c D91F      		adc r29,r25
 4851 178e 89AD      		ldd r24,Y+57
 4852 1790 80FD      		sbrc r24,0
 4853 1792 00C0      		rjmp .L226
 4854               	.LBB831:
 4855               	.LBB832:
 4856               	.LM473:
 4857 1794 FE01      		movw r30,r28
 4858 1796 E65B      		subi r30,lo8(-(74))
 4859 1798 FF4F      		sbci r31,hi8(-(74))
 4860 179a CA5B      		subi r28,lo8(-(70))
 4861 179c DF4F      		sbci r29,hi8(-(70))
 4862 179e 8881      		ld r24,Y
 4863 17a0 9981      		ldd r25,Y+1
 4864 17a2 AA81      		ldd r26,Y+2
 4865 17a4 BB81      		ldd r27,Y+3
 4866 17a6 C654      		subi r28,lo8(-(-70))
 4867 17a8 D040      		sbci r29,hi8(-(-70))
 4868 17aa 840F      		add r24,r20
 4869 17ac 951F      		adc r25,r21
 4870 17ae A61F      		adc r26,r22
 4871 17b0 B71F      		adc r27,r23
 4872 17b2 8083      		st Z,r24
 4873 17b4 9183      		std Z+1,r25
 4874 17b6 A283      		std Z+2,r26
 4875 17b8 B383      		std Z+3,r27
 4876               	.LBE832:
 4877               	.LBE831:
 4878               	.LBB833:
 4879               	.LBB834:
 4880               	.LM474:
 4881 17ba 89AD      		ldd r24,Y+57
 4882 17bc 8160      		ori r24,lo8(1)
 4883 17be 89AF      		std Y+57,r24
 4884               	.L226:
 4885               	/* epilogue start */
 4886               	.LBE834:
 4887               	.LBE833:
 4888               	.LM475:
 4889 17c0 DF91      		pop r29
 4890 17c2 CF91      		pop r28
 4891 17c4 0895      		ret
 4892               	.LFE84:
 4894               	.global	Timebase_UpCounter_Get_Remaining_Period_Value
 4896               	Timebase_UpCounter_Get_Remaining_Period_Value:
 4897               	.LFB85:
 4898               	.LM476:
 4899               	.LVL304:
 4900               	/* prologue: function */
 4901               	/* frame size = 0 */
 4902               	.LBB835:
 4903               	.LBB836:
 4904               	.LM477:
 4905 17c6 E091 0000 		lds r30,Timebase
 4906 17ca F091 0000 		lds r31,(Timebase)+1
 4907 17ce 90E0      		ldi r25,lo8(0)
 4908               	.LBE836:
 4909               	.LBE835:
 4910               	.LM478:
 4911 17d0 25E1      		ldi r18,lo8(21)
 4912 17d2 30E0      		ldi r19,hi8(21)
 4913 17d4 AC01      		movw r20,r24
 4914               	.LVL305:
 4915 17d6 429F      		mul r20,r18
 4916 17d8 C001      		movw r24,r0
 4917 17da 439F      		mul r20,r19
 4918 17dc 900D      		add r25,r0
 4919 17de 529F      		mul r21,r18
 4920 17e0 900D      		add r25,r0
 4921 17e2 1124      		clr r1
 4922 17e4 E80F      		add r30,r24
 4923 17e6 F91F      		adc r31,r25
 4924 17e8 DF01      		movw r26,r30
 4925 17ea AA5B      		subi r26,lo8(-(70))
 4926 17ec BF4F      		sbci r27,hi8(-(70))
 4927 17ee E65B      		subi r30,lo8(-(74))
 4928 17f0 FF4F      		sbci r31,hi8(-(74))
 4929 17f2 2081      		ld r18,Z
 4930 17f4 3181      		ldd r19,Z+1
 4931 17f6 4281      		ldd r20,Z+2
 4932 17f8 5381      		ldd r21,Z+3
 4933               	.LVL306:
 4934 17fa 8D91      		ld r24,X+
 4935 17fc 9D91      		ld r25,X+
 4936 17fe 0D90      		ld __tmp_reg__,X+
 4937 1800 BC91      		ld r27,X
 4938 1802 A02D      		mov r26,__tmp_reg__
 4939 1804 281B      		sub r18,r24
 4940 1806 390B      		sbc r19,r25
 4941 1808 4A0B      		sbc r20,r26
 4942 180a 5B0B      		sbc r21,r27
 4943 180c 57FF      		sbrs r21,7
 4944 180e 00C0      		rjmp .L228
 4945 1810 20E0      		ldi r18,lo8(0)
 4946 1812 30E0      		ldi r19,hi8(0)
 4947 1814 40E0      		ldi r20,hlo8(0)
 4948 1816 50E0      		ldi r21,hhi8(0)
 4949               	.L228:
 4950               	.LM479:
 4951 1818 B901      		movw r22,r18
 4952               	.LVL307:
 4953 181a CA01      		movw r24,r20
 4954               	/* epilogue start */
 4955 181c 0895      		ret
 4956               	.LFE85:
 4958               	.global	Timebase_UpCounter_Period_Value_Expired
 4960               	Timebase_UpCounter_Period_Value_Expired:
 4961               	.LFB86:
 4962               	.LM480:
 4963               	.LVL308:
 4964 181e CF93      		push r28
 4965 1820 DF93      		push r29
 4966               	/* prologue: function */
 4967               	/* frame size = 0 */
 4968               	.LBB837:
 4969               	.LBB838:
 4970               	.LBB839:
 4971               	.LBB840:
 4972               	.LM481:
 4973 1822 C091 0000 		lds r28,Timebase
 4974 1826 D091 0000 		lds r29,(Timebase)+1
 4975 182a 682F      		mov r22,r24
 4976 182c 70E0      		ldi r23,lo8(0)
 4977               	.LBE840:
 4978               	.LBE839:
 4979               	.LM482:
 4980 182e 85E1      		ldi r24,lo8(21)
 4981 1830 90E0      		ldi r25,hi8(21)
 4982               	.LVL309:
 4983 1832 689F      		mul r22,r24
 4984 1834 F001      		movw r30,r0
 4985 1836 699F      		mul r22,r25
 4986 1838 F00D      		add r31,r0
 4987 183a 789F      		mul r23,r24
 4988 183c F00D      		add r31,r0
 4989 183e 1124      		clr r1
 4990 1840 EC0F      		add r30,r28
 4991 1842 FD1F      		adc r31,r29
 4992 1844 DF01      		movw r26,r30
 4993 1846 AA5B      		subi r26,lo8(-(70))
 4994 1848 BF4F      		sbci r27,hi8(-(70))
 4995 184a E65B      		subi r30,lo8(-(74))
 4996 184c FF4F      		sbci r31,hi8(-(74))
 4997 184e 2081      		ld r18,Z
 4998 1850 3181      		ldd r19,Z+1
 4999 1852 4281      		ldd r20,Z+2
 5000 1854 5381      		ldd r21,Z+3
 5001               	.LVL310:
 5002 1856 8D91      		ld r24,X+
 5003 1858 9D91      		ld r25,X+
 5004 185a 0D90      		ld __tmp_reg__,X+
 5005 185c BC91      		ld r27,X
 5006 185e A02D      		mov r26,__tmp_reg__
 5007 1860 281B      		sub r18,r24
 5008 1862 390B      		sbc r19,r25
 5009 1864 4A0B      		sbc r20,r26
 5010 1866 5B0B      		sbc r21,r27
 5011               	.LM483:
 5012 1868 57FD      		sbrc r21,7
 5013 186a 00C0      		rjmp .L231
 5014               	.LBE838:
 5015               	.LBE837:
 5016               	.LM484:
 5017 186c 2115      		cp r18,__zero_reg__
 5018 186e 3105      		cpc r19,__zero_reg__
 5019 1870 4105      		cpc r20,__zero_reg__
 5020 1872 5105      		cpc r21,__zero_reg__
 5021 1874 01F0      		breq .L231
 5022 1876 20E0      		ldi r18,lo8(0)
 5023               	.LVL311:
 5024 1878 00C0      		rjmp .L232
 5025               	.LVL312:
 5026               	.L231:
 5027 187a 20E0      		ldi r18,lo8(0)
 5028               	.LVL313:
 5029 187c 85E1      		ldi r24,lo8(21)
 5030 187e 90E0      		ldi r25,hi8(21)
 5031 1880 AC01      		movw r20,r24
 5032 1882 649F      		mul r22,r20
 5033 1884 C001      		movw r24,r0
 5034 1886 659F      		mul r22,r21
 5035 1888 900D      		add r25,r0
 5036 188a 749F      		mul r23,r20
 5037 188c 900D      		add r25,r0
 5038 188e 1124      		clr r1
 5039 1890 C80F      		add r28,r24
 5040 1892 D91F      		adc r29,r25
 5041 1894 89AD      		ldd r24,Y+57
 5042 1896 80FF      		sbrs r24,0
 5043 1898 21E0      		ldi r18,lo8(1)
 5044               	.L233:
 5045 189a 81E0      		ldi r24,lo8(1)
 5046 189c 2827      		eor r18,r24
 5047               	.L232:
 5048               	.LM485:
 5049 189e 822F      		mov r24,r18
 5050               	/* epilogue start */
 5051 18a0 DF91      		pop r29
 5052 18a2 CF91      		pop r28
 5053 18a4 0895      		ret
 5054               	.LFE86:
 5056               	.global	Timebase_UpCounter_Period_Value_Expired_Event
 5058               	Timebase_UpCounter_Period_Value_Expired_Event:
 5059               	.LFB87:
 5060               	.LM486:
 5061               	.LVL314:
 5062 18a6 1F93      		push r17
 5063               	/* prologue: function */
 5064               	/* frame size = 0 */
 5065 18a8 182F      		mov r17,r24
 5066               	.LM487:
 5067 18aa 0E94 0000 		call Timebase_UpCounter_Period_Value_Expired
 5068               	.LVL315:
 5069 18ae 8130      		cpi r24,lo8(1)
 5070 18b0 01F0      		breq .L236
 5071 18b2 80E0      		ldi r24,lo8(0)
 5072 18b4 00C0      		rjmp .L237
 5073               	.L236:
 5074               	.LBB841:
 5075               	.LBB842:
 5076               	.LM488:
 5077 18b6 E091 0000 		lds r30,Timebase
 5078 18ba F091 0000 		lds r31,(Timebase)+1
 5079 18be 212F      		mov r18,r17
 5080 18c0 30E0      		ldi r19,lo8(0)
 5081               	.LVL316:
 5082 18c2 85E1      		ldi r24,lo8(21)
 5083 18c4 90E0      		ldi r25,hi8(21)
 5084 18c6 AC01      		movw r20,r24
 5085 18c8 249F      		mul r18,r20
 5086 18ca C001      		movw r24,r0
 5087 18cc 259F      		mul r18,r21
 5088 18ce 900D      		add r25,r0
 5089 18d0 349F      		mul r19,r20
 5090 18d2 900D      		add r25,r0
 5091 18d4 1124      		clr r1
 5092 18d6 E80F      		add r30,r24
 5093 18d8 F91F      		adc r31,r25
 5094 18da 81AD      		ldd r24,Z+57
 5095 18dc 8E7F      		andi r24,lo8(-2)
 5096 18de 81AF      		std Z+57,r24
 5097 18e0 81E0      		ldi r24,lo8(1)
 5098               	.L237:
 5099               	/* epilogue start */
 5100               	.LBE842:
 5101               	.LBE841:
 5102               	.LM489:
 5103 18e2 1F91      		pop r17
 5104               	.LVL317:
 5105 18e4 0895      		ret
 5106               	.LFE87:
 5108               	.global	Timebase_UpCounter_Update_All
 5110               	Timebase_UpCounter_Update_All:
 5111               	.LFB88:
 5112               	.LM490:
 5113               	/* prologue: function */
 5114               	/* frame size = 0 */
 5115               	.LBB843:
 5116               	.LM491:
 5117 18e6 80E0      		ldi r24,lo8(0)
 5118 18e8 0E94 0000 		call Timebase_UpCounter_Update
 5119               	/* epilogue start */
 5120               	.LBE843:
 5121               	.LM492:
 5122 18ec 0895      		ret
 5123               	.LFE88:
 5125               	.global	Timebase_UpCounter_Reset_All
 5127               	Timebase_UpCounter_Reset_All:
 5128               	.LFB89:
 5129               	.LM493:
 5130               	/* prologue: function */
 5131               	/* frame size = 0 */
 5132               	.LBB844:
 5133               	.LM494:
 5134 18ee 80E0      		ldi r24,lo8(0)
 5135 18f0 0E94 0000 		call Timebase_UpCounter_Reset
 5136               	/* epilogue start */
 5137               	.LBE844:
 5138               	.LM495:
 5139 18f4 0895      		ret
 5140               	.LFE89:
 5142               	.global	Timebase_DownCounter_SS_Get_Status
 5144               	Timebase_DownCounter_SS_Get_Status:
 5145               	.LFB90:
 5146               	.LM496:
 5147               	.LVL318:
 5148               	/* prologue: function */
 5149               	/* frame size = 0 */
 5150               	.LM497:
 5151 18f6 E091 0000 		lds r30,Timebase
 5152 18fa F091 0000 		lds r31,(Timebase)+1
 5153 18fe 90E0      		ldi r25,lo8(0)
 5154               	.LVL319:
 5155 1900 9C01      		movw r18,r24
 5156 1902 44E0      		ldi r20,4
 5157 1904 220F      	1:	lsl r18
 5158 1906 331F      		rol r19
 5159 1908 4A95      		dec r20
 5160 190a 01F4      		brne 1b
 5161 190c 280F      		add r18,r24
 5162 190e 391F      		adc r19,r25
 5163 1910 E20F      		add r30,r18
 5164 1912 F31F      		adc r31,r19
 5165 1914 E25B      		subi r30,lo8(-(78))
 5166 1916 FF4F      		sbci r31,hi8(-(78))
 5167 1918 8081      		ld r24,Z
 5168               	.LVL320:
 5169 191a 8695      		lsr r24
 5170               	.LM498:
 5171 191c 8F70      		andi r24,lo8(15)
 5172               	/* epilogue start */
 5173 191e 0895      		ret
 5174               	.LFE90:
 5176               	.global	Timebase_DownCounter_SS_Set_Status
 5178               	Timebase_DownCounter_SS_Set_Status:
 5179               	.LFB91:
 5180               	.LM499:
 5181               	.LVL321:
 5182               	/* prologue: function */
 5183               	/* frame size = 0 */
 5184               	.LM500:
 5185 1920 E091 0000 		lds r30,Timebase
 5186 1924 F091 0000 		lds r31,(Timebase)+1
 5187 1928 90E0      		ldi r25,lo8(0)
 5188               	.LVL322:
 5189 192a 9C01      		movw r18,r24
 5190 192c 54E0      		ldi r21,4
 5191 192e 220F      	1:	lsl r18
 5192 1930 331F      		rol r19
 5193 1932 5A95      		dec r21
 5194 1934 01F4      		brne 1b
 5195 1936 280F      		add r18,r24
 5196 1938 391F      		adc r19,r25
 5197 193a E20F      		add r30,r18
 5198 193c F31F      		adc r31,r19
 5199 193e E25B      		subi r30,lo8(-(78))
 5200 1940 FF4F      		sbci r31,hi8(-(78))
 5201 1942 6F70      		andi r22,lo8(15)
 5202               	.LVL323:
 5203 1944 660F      		lsl r22
 5204 1946 8081      		ld r24,Z
 5205               	.LVL324:
 5206 1948 817E      		andi r24,lo8(-31)
 5207 194a 862B      		or r24,r22
 5208 194c 8083      		st Z,r24
 5209               	/* epilogue start */
 5210               	.LM501:
 5211 194e 0895      		ret
 5212               	.LFE91:
 5214               	.global	Timebase_DownCounter_SS_Get_Value
 5216               	Timebase_DownCounter_SS_Get_Value:
 5217               	.LFB92:
 5218               	.LM502:
 5219               	.LVL325:
 5220               	/* prologue: function */
 5221               	/* frame size = 0 */
 5222               	.LM503:
 5223 1950 E091 0000 		lds r30,Timebase
 5224 1954 F091 0000 		lds r31,(Timebase)+1
 5225 1958 90E0      		ldi r25,lo8(0)
 5226               	.LVL326:
 5227 195a 9C01      		movw r18,r24
 5228 195c 64E0      		ldi r22,4
 5229 195e 220F      	1:	lsl r18
 5230 1960 331F      		rol r19
 5231 1962 6A95      		dec r22
 5232 1964 01F4      		brne 1b
 5233 1966 280F      		add r18,r24
 5234 1968 391F      		adc r19,r25
 5235 196a E20F      		add r30,r18
 5236 196c F31F      		adc r31,r19
 5237 196e E95A      		subi r30,lo8(-(87))
 5238 1970 FF4F      		sbci r31,hi8(-(87))
 5239 1972 6081      		ld r22,Z
 5240 1974 7181      		ldd r23,Z+1
 5241               	.LM504:
 5242 1976 8281      		ldd r24,Z+2
 5243               	.LVL327:
 5244 1978 9381      		ldd r25,Z+3
 5245               	.LVL328:
 5246               	/* epilogue start */
 5247 197a 0895      		ret
 5248               	.LFE92:
 5250               	.global	Timebase_DownCounter_SS_Set_Value
 5252               	Timebase_DownCounter_SS_Set_Value:
 5253               	.LFB93:
 5254               	.LM505:
 5255               	.LVL329:
 5256               	/* prologue: function */
 5257               	/* frame size = 0 */
 5258               	.LM506:
 5259 197c E091 0000 		lds r30,Timebase
 5260 1980 F091 0000 		lds r31,(Timebase)+1
 5261 1984 90E0      		ldi r25,lo8(0)
 5262               	.LVL330:
 5263 1986 9C01      		movw r18,r24
 5264 1988 A4E0      		ldi r26,4
 5265 198a 220F      	1:	lsl r18
 5266 198c 331F      		rol r19
 5267 198e AA95      		dec r26
 5268 1990 01F4      		brne 1b
 5269 1992 280F      		add r18,r24
 5270 1994 391F      		adc r19,r25
 5271 1996 E20F      		add r30,r18
 5272 1998 F31F      		adc r31,r19
 5273 199a E95A      		subi r30,lo8(-(87))
 5274 199c FF4F      		sbci r31,hi8(-(87))
 5275 199e 4083      		st Z,r20
 5276 19a0 5183      		std Z+1,r21
 5277 19a2 6283      		std Z+2,r22
 5278 19a4 7383      		std Z+3,r23
 5279               	/* epilogue start */
 5280               	.LM507:
 5281 19a6 0895      		ret
 5282               	.LFE93:
 5284               	.global	Timebase_DownCounter_SS_Get_EndValueSec
 5286               	Timebase_DownCounter_SS_Get_EndValueSec:
 5287               	.LFB94:
 5288               	.LM508:
 5289               	.LVL331:
 5290               	/* prologue: function */
 5291               	/* frame size = 0 */
 5292               	.LM509:
 5293 19a8 E091 0000 		lds r30,Timebase
 5294 19ac F091 0000 		lds r31,(Timebase)+1
 5295 19b0 90E0      		ldi r25,lo8(0)
 5296               	.LVL332:
 5297 19b2 9C01      		movw r18,r24
 5298 19b4 B4E0      		ldi r27,4
 5299 19b6 220F      	1:	lsl r18
 5300 19b8 331F      		rol r19
 5301 19ba BA95      		dec r27
 5302 19bc 01F4      		brne 1b
 5303 19be 280F      		add r18,r24
 5304 19c0 391F      		adc r19,r25
 5305 19c2 E20F      		add r30,r18
 5306 19c4 F31F      		adc r31,r19
 5307 19c6 E15B      		subi r30,lo8(-(79))
 5308 19c8 FF4F      		sbci r31,hi8(-(79))
 5309 19ca 6081      		ld r22,Z
 5310 19cc 7181      		ldd r23,Z+1
 5311               	.LM510:
 5312 19ce 8281      		ldd r24,Z+2
 5313               	.LVL333:
 5314 19d0 9381      		ldd r25,Z+3
 5315               	.LVL334:
 5316               	/* epilogue start */
 5317 19d2 0895      		ret
 5318               	.LFE94:
 5320               	.global	Timebase_DownCounter_SS_Get_EndValueSubSec
 5322               	Timebase_DownCounter_SS_Get_EndValueSubSec:
 5323               	.LFB95:
 5324               	.LM511:
 5325               	.LVL335:
 5326               	/* prologue: function */
 5327               	/* frame size = 0 */
 5328               	.LM512:
 5329 19d4 E091 0000 		lds r30,Timebase
 5330 19d8 F091 0000 		lds r31,(Timebase)+1
 5331 19dc 90E0      		ldi r25,lo8(0)
 5332               	.LVL336:
 5333 19de 9C01      		movw r18,r24
 5334 19e0 44E0      		ldi r20,4
 5335 19e2 220F      	1:	lsl r18
 5336 19e4 331F      		rol r19
 5337 19e6 4A95      		dec r20
 5338 19e8 01F4      		brne 1b
 5339 19ea 280F      		add r18,r24
 5340 19ec 391F      		adc r19,r25
 5341 19ee E20F      		add r30,r18
 5342 19f0 F31F      		adc r31,r19
 5343 19f2 ED5A      		subi r30,lo8(-(83))
 5344 19f4 FF4F      		sbci r31,hi8(-(83))
 5345 19f6 6081      		ld r22,Z
 5346 19f8 7181      		ldd r23,Z+1
 5347               	.LM513:
 5348 19fa 8281      		ldd r24,Z+2
 5349               	.LVL337:
 5350 19fc 9381      		ldd r25,Z+3
 5351               	.LVL338:
 5352               	/* epilogue start */
 5353 19fe 0895      		ret
 5354               	.LFE95:
 5356               	.global	Timebase_DownCounter_SS_Set_EndValueSec
 5358               	Timebase_DownCounter_SS_Set_EndValueSec:
 5359               	.LFB96:
 5360               	.LM514:
 5361               	.LVL339:
 5362               	/* prologue: function */
 5363               	/* frame size = 0 */
 5364               	.LM515:
 5365 1a00 E091 0000 		lds r30,Timebase
 5366 1a04 F091 0000 		lds r31,(Timebase)+1
 5367 1a08 90E0      		ldi r25,lo8(0)
 5368               	.LVL340:
 5369 1a0a 9C01      		movw r18,r24
 5370 1a0c A4E0      		ldi r26,4
 5371 1a0e 220F      	1:	lsl r18
 5372 1a10 331F      		rol r19
 5373 1a12 AA95      		dec r26
 5374 1a14 01F4      		brne 1b
 5375 1a16 280F      		add r18,r24
 5376 1a18 391F      		adc r19,r25
 5377 1a1a E20F      		add r30,r18
 5378 1a1c F31F      		adc r31,r19
 5379 1a1e E15B      		subi r30,lo8(-(79))
 5380 1a20 FF4F      		sbci r31,hi8(-(79))
 5381 1a22 4083      		st Z,r20
 5382 1a24 5183      		std Z+1,r21
 5383 1a26 6283      		std Z+2,r22
 5384 1a28 7383      		std Z+3,r23
 5385               	/* epilogue start */
 5386               	.LM516:
 5387 1a2a 0895      		ret
 5388               	.LFE96:
 5390               	.global	Timebase_DownCounter_SS_Set_EndValueSubSec
 5392               	Timebase_DownCounter_SS_Set_EndValueSubSec:
 5393               	.LFB97:
 5394               	.LM517:
 5395               	.LVL341:
 5396               	/* prologue: function */
 5397               	/* frame size = 0 */
 5398               	.LM518:
 5399 1a2c E091 0000 		lds r30,Timebase
 5400 1a30 F091 0000 		lds r31,(Timebase)+1
 5401 1a34 90E0      		ldi r25,lo8(0)
 5402               	.LVL342:
 5403 1a36 9C01      		movw r18,r24
 5404 1a38 B4E0      		ldi r27,4
 5405 1a3a 220F      	1:	lsl r18
 5406 1a3c 331F      		rol r19
 5407 1a3e BA95      		dec r27
 5408 1a40 01F4      		brne 1b
 5409 1a42 280F      		add r18,r24
 5410 1a44 391F      		adc r19,r25
 5411 1a46 E20F      		add r30,r18
 5412 1a48 F31F      		adc r31,r19
 5413 1a4a ED5A      		subi r30,lo8(-(83))
 5414 1a4c FF4F      		sbci r31,hi8(-(83))
 5415 1a4e 4083      		st Z,r20
 5416 1a50 5183      		std Z+1,r21
 5417 1a52 6283      		std Z+2,r22
 5418 1a54 7383      		std Z+3,r23
 5419               	/* epilogue start */
 5420               	.LM519:
 5421 1a56 0895      		ret
 5422               	.LFE97:
 5424               	.global	Timebase_DownCounter_SS_Get_PeriodValue
 5426               	Timebase_DownCounter_SS_Get_PeriodValue:
 5427               	.LFB98:
 5428               	.LM520:
 5429               	.LVL343:
 5430               	/* prologue: function */
 5431               	/* frame size = 0 */
 5432               	.LM521:
 5433 1a58 E091 0000 		lds r30,Timebase
 5434 1a5c F091 0000 		lds r31,(Timebase)+1
 5435 1a60 90E0      		ldi r25,lo8(0)
 5436               	.LVL344:
 5437 1a62 9C01      		movw r18,r24
 5438 1a64 44E0      		ldi r20,4
 5439 1a66 220F      	1:	lsl r18
 5440 1a68 331F      		rol r19
 5441 1a6a 4A95      		dec r20
 5442 1a6c 01F4      		brne 1b
 5443 1a6e 280F      		add r18,r24
 5444 1a70 391F      		adc r19,r25
 5445 1a72 E20F      		add r30,r18
 5446 1a74 F31F      		adc r31,r19
 5447 1a76 E55A      		subi r30,lo8(-(91))
 5448 1a78 FF4F      		sbci r31,hi8(-(91))
 5449 1a7a 6081      		ld r22,Z
 5450 1a7c 7181      		ldd r23,Z+1
 5451               	.LM522:
 5452 1a7e 8281      		ldd r24,Z+2
 5453               	.LVL345:
 5454 1a80 9381      		ldd r25,Z+3
 5455               	.LVL346:
 5456               	/* epilogue start */
 5457 1a82 0895      		ret
 5458               	.LFE98:
 5460               	.global	Timebase_DownCounter_SS_Set_PeriodValue
 5462               	Timebase_DownCounter_SS_Set_PeriodValue:
 5463               	.LFB99:
 5464               	.LM523:
 5465               	.LVL347:
 5466               	/* prologue: function */
 5467               	/* frame size = 0 */
 5468 1a84 E091 0000 		lds r30,Timebase
 5469 1a88 F091 0000 		lds r31,(Timebase)+1
 5470 1a8c 282F      		mov r18,r24
 5471 1a8e 30E0      		ldi r19,lo8(0)
 5472               	.LVL348:
 5473               	.LM524:
 5474 1a90 77FF      		sbrs r23,7
 5475 1a92 00C0      		rjmp .L262
 5476               	.LVL349:
 5477               	.LM525:
 5478 1a94 C901      		movw r24,r18
 5479 1a96 B4E0      		ldi r27,4
 5480 1a98 880F      	1:	lsl r24
 5481 1a9a 991F      		rol r25
 5482 1a9c BA95      		dec r27
 5483 1a9e 01F4      		brne 1b
 5484 1aa0 820F      		add r24,r18
 5485 1aa2 931F      		adc r25,r19
 5486 1aa4 E80F      		add r30,r24
 5487 1aa6 F91F      		adc r31,r25
 5488 1aa8 E55A      		subi r30,lo8(-(91))
 5489 1aaa FF4F      		sbci r31,hi8(-(91))
 5490 1aac 1082      		st Z,__zero_reg__
 5491 1aae 1182      		std Z+1,__zero_reg__
 5492 1ab0 1282      		std Z+2,__zero_reg__
 5493 1ab2 1382      		std Z+3,__zero_reg__
 5494 1ab4 0895      		ret
 5495               	.LVL350:
 5496               	.L262:
 5497               	.LM526:
 5498 1ab6 C901      		movw r24,r18
 5499 1ab8 A4E0      		ldi r26,4
 5500 1aba 880F      	1:	lsl r24
 5501 1abc 991F      		rol r25
 5502 1abe AA95      		dec r26
 5503 1ac0 01F4      		brne 1b
 5504 1ac2 820F      		add r24,r18
 5505 1ac4 931F      		adc r25,r19
 5506 1ac6 E80F      		add r30,r24
 5507 1ac8 F91F      		adc r31,r25
 5508 1aca E55A      		subi r30,lo8(-(91))
 5509 1acc FF4F      		sbci r31,hi8(-(91))
 5510 1ace 4083      		st Z,r20
 5511 1ad0 5183      		std Z+1,r21
 5512 1ad2 6283      		std Z+2,r22
 5513 1ad4 7383      		std Z+3,r23
 5514 1ad6 0895      		ret
 5515               	.LFE99:
 5517               	.global	Timebase_DownCounter_SS_Get_Period_Flag
 5519               	Timebase_DownCounter_SS_Get_Period_Flag:
 5520               	.LFB100:
 5521               	.LM527:
 5522               	.LVL351:
 5523               	/* prologue: function */
 5524               	/* frame size = 0 */
 5525               	.LM528:
 5526 1ad8 E091 0000 		lds r30,Timebase
 5527 1adc F091 0000 		lds r31,(Timebase)+1
 5528 1ae0 90E0      		ldi r25,lo8(0)
 5529               	.LVL352:
 5530 1ae2 9C01      		movw r18,r24
 5531 1ae4 44E0      		ldi r20,4
 5532 1ae6 220F      	1:	lsl r18
 5533 1ae8 331F      		rol r19
 5534 1aea 4A95      		dec r20
 5535 1aec 01F4      		brne 1b
 5536 1aee 280F      		add r18,r24
 5537 1af0 391F      		adc r19,r25
 5538 1af2 E20F      		add r30,r18
 5539 1af4 F31F      		adc r31,r19
 5540 1af6 E25B      		subi r30,lo8(-(78))
 5541 1af8 FF4F      		sbci r31,hi8(-(78))
 5542 1afa 8081      		ld r24,Z
 5543               	.LVL353:
 5544               	.LM529:
 5545 1afc 8170      		andi r24,lo8(1)
 5546               	/* epilogue start */
 5547 1afe 0895      		ret
 5548               	.LFE100:
 5550               	.global	Timebase_DownCounter_SS_Set_Period_Flag
 5552               	Timebase_DownCounter_SS_Set_Period_Flag:
 5553               	.LFB101:
 5554               	.LM530:
 5555               	.LVL354:
 5556               	/* prologue: function */
 5557               	/* frame size = 0 */
 5558               	.LM531:
 5559 1b00 E091 0000 		lds r30,Timebase
 5560 1b04 F091 0000 		lds r31,(Timebase)+1
 5561 1b08 90E0      		ldi r25,lo8(0)
 5562               	.LVL355:
 5563 1b0a 9C01      		movw r18,r24
 5564 1b0c 54E0      		ldi r21,4
 5565 1b0e 220F      	1:	lsl r18
 5566 1b10 331F      		rol r19
 5567 1b12 5A95      		dec r21
 5568 1b14 01F4      		brne 1b
 5569 1b16 280F      		add r18,r24
 5570 1b18 391F      		adc r19,r25
 5571 1b1a E20F      		add r30,r18
 5572 1b1c F31F      		adc r31,r19
 5573 1b1e E25B      		subi r30,lo8(-(78))
 5574 1b20 FF4F      		sbci r31,hi8(-(78))
 5575 1b22 8081      		ld r24,Z
 5576               	.LVL356:
 5577 1b24 8160      		ori r24,lo8(1)
 5578 1b26 8083      		st Z,r24
 5579               	/* epilogue start */
 5580               	.LM532:
 5581 1b28 0895      		ret
 5582               	.LFE101:
 5584               	.global	Timebase_DownCounter_SS_Clear_Period_Flag
 5586               	Timebase_DownCounter_SS_Clear_Period_Flag:
 5587               	.LFB102:
 5588               	.LM533:
 5589               	.LVL357:
 5590               	/* prologue: function */
 5591               	/* frame size = 0 */
 5592               	.LM534:
 5593 1b2a E091 0000 		lds r30,Timebase
 5594 1b2e F091 0000 		lds r31,(Timebase)+1
 5595 1b32 90E0      		ldi r25,lo8(0)
 5596               	.LVL358:
 5597 1b34 9C01      		movw r18,r24
 5598 1b36 64E0      		ldi r22,4
 5599 1b38 220F      	1:	lsl r18
 5600 1b3a 331F      		rol r19
 5601 1b3c 6A95      		dec r22
 5602 1b3e 01F4      		brne 1b
 5603 1b40 280F      		add r18,r24
 5604 1b42 391F      		adc r19,r25
 5605 1b44 E20F      		add r30,r18
 5606 1b46 F31F      		adc r31,r19
 5607 1b48 E25B      		subi r30,lo8(-(78))
 5608 1b4a FF4F      		sbci r31,hi8(-(78))
 5609 1b4c 8081      		ld r24,Z
 5610               	.LVL359:
 5611 1b4e 8E7F      		andi r24,lo8(-2)
 5612 1b50 8083      		st Z,r24
 5613               	/* epilogue start */
 5614               	.LM535:
 5615 1b52 0895      		ret
 5616               	.LFE102:
 5618               	.global	Timebase_DownCounter_SS_Reset
 5620               	Timebase_DownCounter_SS_Reset:
 5621               	.LFB103:
 5622               	.LM536:
 5623               	.LVL360:
 5624               	/* prologue: function */
 5625               	/* frame size = 0 */
 5626               	.LBB845:
 5627               	.LBB846:
 5628               	.LM537:
 5629 1b54 E091 0000 		lds r30,Timebase
 5630 1b58 F091 0000 		lds r31,(Timebase)+1
 5631 1b5c 90E0      		ldi r25,lo8(0)
 5632 1b5e 9C01      		movw r18,r24
 5633               	.LVL361:
 5634 1b60 74E0      		ldi r23,4
 5635 1b62 220F      	1:	lsl r18
 5636 1b64 331F      		rol r19
 5637 1b66 7A95      		dec r23
 5638 1b68 01F4      		brne 1b
 5639 1b6a 280F      		add r18,r24
 5640 1b6c 391F      		adc r19,r25
 5641 1b6e E20F      		add r30,r18
 5642 1b70 F31F      		adc r31,r19
 5643 1b72 ED5A      		subi r30,lo8(-(83))
 5644 1b74 FF4F      		sbci r31,hi8(-(83))
 5645 1b76 1082      		st Z,__zero_reg__
 5646 1b78 1182      		std Z+1,__zero_reg__
 5647 1b7a 1282      		std Z+2,__zero_reg__
 5648 1b7c 1382      		std Z+3,__zero_reg__
 5649               	.LBE846:
 5650               	.LBE845:
 5651               	.LBB847:
 5652               	.LBB848:
 5653               	.LM538:
 5654 1b7e 1292      		st -Z,__zero_reg__
 5655 1b80 1292      		st -Z,__zero_reg__
 5656 1b82 1292      		st -Z,__zero_reg__
 5657 1b84 1292      		st -Z,__zero_reg__
 5658               	.LBE848:
 5659               	.LBE847:
 5660               	.LBB849:
 5661               	.LBB850:
 5662               	.LM539:
 5663 1b86 3896      		adiw r30,8
 5664 1b88 1082      		st Z,__zero_reg__
 5665 1b8a 1182      		std Z+1,__zero_reg__
 5666 1b8c 1282      		std Z+2,__zero_reg__
 5667 1b8e 1382      		std Z+3,__zero_reg__
 5668               	.LBE850:
 5669               	.LBE849:
 5670               	.LBB851:
 5671               	.LBB852:
 5672               	.LM540:
 5673 1b90 3997      		sbiw r30,9
 5674 1b92 8081      		ld r24,Z
 5675               	.LBE852:
 5676               	.LBE851:
 5677               	.LBB853:
 5678               	.LBB854:
 5679               	.LM541:
 5680 1b94 807E      		andi r24,lo8(-32)
 5681 1b96 8083      		st Z,r24
 5682               	/* epilogue start */
 5683               	.LBE854:
 5684               	.LBE853:
 5685               	.LM542:
 5686 1b98 0895      		ret
 5687               	.LFE103:
 5689               	.global	Timebase_DownCounter_SS_Clear_All_Flags
 5691               	Timebase_DownCounter_SS_Clear_All_Flags:
 5692               	.LFB104:
 5693               	.LM543:
 5694               	.LVL362:
 5695               	/* prologue: function */
 5696               	/* frame size = 0 */
 5697               	.LBB855:
 5698               	.LBB856:
 5699               	.LBB857:
 5700               	.LBB858:
 5701               	.LM544:
 5702 1b9a E091 0000 		lds r30,Timebase
 5703 1b9e F091 0000 		lds r31,(Timebase)+1
 5704 1ba2 90E0      		ldi r25,lo8(0)
 5705 1ba4 9C01      		movw r18,r24
 5706               	.LVL363:
 5707 1ba6 A4E0      		ldi r26,4
 5708 1ba8 220F      	1:	lsl r18
 5709 1baa 331F      		rol r19
 5710 1bac AA95      		dec r26
 5711 1bae 01F4      		brne 1b
 5712 1bb0 280F      		add r18,r24
 5713 1bb2 391F      		adc r19,r25
 5714 1bb4 E20F      		add r30,r18
 5715 1bb6 F31F      		adc r31,r19
 5716 1bb8 ED5A      		subi r30,lo8(-(83))
 5717 1bba FF4F      		sbci r31,hi8(-(83))
 5718 1bbc 1082      		st Z,__zero_reg__
 5719 1bbe 1182      		std Z+1,__zero_reg__
 5720 1bc0 1282      		std Z+2,__zero_reg__
 5721 1bc2 1382      		std Z+3,__zero_reg__
 5722               	.LBE858:
 5723               	.LBE857:
 5724               	.LBB859:
 5725               	.LBB860:
 5726               	.LM545:
 5727 1bc4 1292      		st -Z,__zero_reg__
 5728 1bc6 1292      		st -Z,__zero_reg__
 5729 1bc8 1292      		st -Z,__zero_reg__
 5730 1bca 1292      		st -Z,__zero_reg__
 5731               	.LBE860:
 5732               	.LBE859:
 5733               	.LBB861:
 5734               	.LBB862:
 5735               	.LM546:
 5736 1bcc 3896      		adiw r30,8
 5737 1bce 1082      		st Z,__zero_reg__
 5738 1bd0 1182      		std Z+1,__zero_reg__
 5739 1bd2 1282      		std Z+2,__zero_reg__
 5740 1bd4 1382      		std Z+3,__zero_reg__
 5741               	.LBE862:
 5742               	.LBE861:
 5743               	.LBB863:
 5744               	.LBB864:
 5745               	.LM547:
 5746 1bd6 3997      		sbiw r30,9
 5747 1bd8 8081      		ld r24,Z
 5748               	.LBE864:
 5749               	.LBE863:
 5750               	.LBB865:
 5751               	.LBB866:
 5752               	.LM548:
 5753 1bda 807E      		andi r24,lo8(-32)
 5754 1bdc 8083      		st Z,r24
 5755               	/* epilogue start */
 5756               	.LBE866:
 5757               	.LBE865:
 5758               	.LBE856:
 5759               	.LBE855:
 5760               	.LM549:
 5761 1bde 0895      		ret
 5762               	.LFE104:
 5764               	.global	Timebase_DownCounter_SS_Start
 5766               	Timebase_DownCounter_SS_Start:
 5767               	.LFB105:
 5768               	.LM550:
 5769               	.LVL364:
 5770               	/* prologue: function */
 5771               	/* frame size = 0 */
 5772               	.LBB867:
 5773               	.LBB868:
 5774               	.LM551:
 5775 1be0 E091 0000 		lds r30,Timebase
 5776 1be4 F091 0000 		lds r31,(Timebase)+1
 5777 1be8 90E0      		ldi r25,lo8(0)
 5778               	.LBE868:
 5779               	.LBE867:
 5780               	.LM552:
 5781 1bea 9C01      		movw r18,r24
 5782               	.LVL365:
 5783 1bec B4E0      		ldi r27,4
 5784 1bee 220F      	1:	lsl r18
 5785 1bf0 331F      		rol r19
 5786 1bf2 BA95      		dec r27
 5787 1bf4 01F4      		brne 1b
 5788 1bf6 280F      		add r18,r24
 5789 1bf8 391F      		adc r19,r25
 5790 1bfa E20F      		add r30,r18
 5791 1bfc F31F      		adc r31,r19
 5792 1bfe E25B      		subi r30,lo8(-(78))
 5793 1c00 FF4F      		sbci r31,hi8(-(78))
 5794 1c02 9081      		ld r25,Z
 5795 1c04 892F      		mov r24,r25
 5796 1c06 8695      		lsr r24
 5797 1c08 8F70      		andi r24,lo8(15)
 5798 1c0a 8130      		cpi r24,lo8(1)
 5799 1c0c 01F0      		breq .L277
 5800               	.LBB869:
 5801               	.LBB870:
 5802               	.LM553:
 5803 1c0e 917E      		andi r25,lo8(-31)
 5804 1c10 9260      		ori r25,lo8(2)
 5805 1c12 9083      		st Z,r25
 5806               	.L277:
 5807 1c14 0895      		ret
 5808               	.LBE870:
 5809               	.LBE869:
 5810               	.LFE105:
 5812               	.global	Timebase_DownCounter_SS_Stop
 5814               	Timebase_DownCounter_SS_Stop:
 5815               	.LFB106:
 5816               	.LM554:
 5817               	.LVL366:
 5818               	/* prologue: function */
 5819               	/* frame size = 0 */
 5820               	.LBB871:
 5821               	.LBB872:
 5822               	.LM555:
 5823 1c16 E091 0000 		lds r30,Timebase
 5824 1c1a F091 0000 		lds r31,(Timebase)+1
 5825 1c1e 90E0      		ldi r25,lo8(0)
 5826               	.LBE872:
 5827               	.LBE871:
 5828               	.LM556:
 5829 1c20 9C01      		movw r18,r24
 5830               	.LVL367:
 5831 1c22 44E0      		ldi r20,4
 5832 1c24 220F      	1:	lsl r18
 5833 1c26 331F      		rol r19
 5834 1c28 4A95      		dec r20
 5835 1c2a 01F4      		brne 1b
 5836 1c2c 280F      		add r18,r24
 5837 1c2e 391F      		adc r19,r25
 5838 1c30 E20F      		add r30,r18
 5839 1c32 F31F      		adc r31,r19
 5840 1c34 E25B      		subi r30,lo8(-(78))
 5841 1c36 FF4F      		sbci r31,hi8(-(78))
 5842 1c38 9081      		ld r25,Z
 5843 1c3a 892F      		mov r24,r25
 5844 1c3c 8695      		lsr r24
 5845 1c3e 8F70      		andi r24,lo8(15)
 5846 1c40 8230      		cpi r24,lo8(2)
 5847 1c42 01F0      		breq .L280
 5848               	.LBB873:
 5849               	.LBB874:
 5850               	.LM557:
 5851 1c44 917E      		andi r25,lo8(-31)
 5852 1c46 9460      		ori r25,lo8(4)
 5853 1c48 9083      		st Z,r25
 5854               	.L280:
 5855 1c4a 0895      		ret
 5856               	.LBE874:
 5857               	.LBE873:
 5858               	.LFE106:
 5860               	.global	Timebase_DownCounter_SS_Set_Securely
 5862               	Timebase_DownCounter_SS_Set_Securely:
 5863               	.LFB107:
 5864               	.LM558:
 5865               	.LVL368:
 5866 1c4c 2F92      		push r2
 5867 1c4e 3F92      		push r3
 5868 1c50 4F92      		push r4
 5869 1c52 5F92      		push r5
 5870 1c54 6F92      		push r6
 5871 1c56 7F92      		push r7
 5872 1c58 8F92      		push r8
 5873 1c5a 9F92      		push r9
 5874 1c5c AF92      		push r10
 5875 1c5e BF92      		push r11
 5876 1c60 CF92      		push r12
 5877 1c62 DF92      		push r13
 5878 1c64 EF92      		push r14
 5879 1c66 FF92      		push r15
 5880 1c68 0F93      		push r16
 5881 1c6a 1F93      		push r17
 5882 1c6c DF93      		push r29
 5883 1c6e CF93      		push r28
 5884 1c70 00D0      		rcall .
 5885 1c72 00D0      		rcall .
 5886 1c74 CDB7      		in r28,__SP_L__
 5887 1c76 DEB7      		in r29,__SP_H__
 5888               	/* prologue: function */
 5889               	/* frame size = 4 */
 5890 1c78 4A01      		movw r8,r20
 5891 1c7a 5B01      		movw r10,r22
 5892               	.LBB875:
 5893               	.LBB876:
 5894               	.LM559:
 5895 1c7c 2091 0000 		lds r18,Timebase
 5896 1c80 3091 0000 		lds r19,(Timebase)+1
 5897 1c84 3C83      		std Y+4,r19
 5898 1c86 2B83      		std Y+3,r18
 5899 1c88 A82F      		mov r26,r24
 5900 1c8a B0E0      		ldi r27,lo8(0)
 5901 1c8c BA83      		std Y+2,r27
 5902 1c8e A983      		std Y+1,r26
 5903               	.LBE876:
 5904               	.LBE875:
 5905               	.LM560:
 5906 1c90 FD01      		movw r30,r26
 5907 1c92 64E0      		ldi r22,4
 5908 1c94 EE0F      	1:	lsl r30
 5909 1c96 FF1F      		rol r31
 5910 1c98 6A95      		dec r22
 5911 1c9a 01F4      		brne 1b
 5912 1c9c EA0F      		add r30,r26
 5913 1c9e FB1F      		adc r31,r27
 5914 1ca0 E20F      		add r30,r18
 5915 1ca2 F31F      		adc r31,r19
 5916 1ca4 E25B      		subi r30,lo8(-(78))
 5917 1ca6 FF4F      		sbci r31,hi8(-(78))
 5918 1ca8 8081      		ld r24,Z
 5919               	.LVL369:
 5920 1caa EE54      		subi r30,lo8(-(-78))
 5921 1cac F040      		sbci r31,hi8(-(-78))
 5922 1cae 8695      		lsr r24
 5923 1cb0 8F70      		andi r24,lo8(15)
 5924 1cb2 01F0      		breq .+2
 5925 1cb4 00C0      		rjmp .L284
 5926               	.LVL370:
 5927               	.LBB877:
 5928               	.LBB878:
 5929               	.LBB879:
 5930               	.LM561:
 5931 1cb6 E95A      		subi r30,lo8(-(87))
 5932 1cb8 FF4F      		sbci r31,hi8(-(87))
 5933 1cba 8082      		st Z,r8
 5934 1cbc 9182      		std Z+1,r9
 5935 1cbe A282      		std Z+2,r10
 5936 1cc0 B382      		std Z+3,r11
 5937               	.LBE879:
 5938               	.LBE878:
 5939               	.LBB880:
 5940               	.LBB881:
 5941               	.LM562:
 5942 1cc2 F901      		movw r30,r18
 5943 1cc4 C084      		ldd r12,Z+8
 5944 1cc6 D184      		ldd r13,Z+9
 5945               	.LBE881:
 5946               	.LBE880:
 5947               	.LBB882:
 5948               	.LBB883:
 5949               	.LM563:
 5950 1cc8 2284      		ldd r2,Z+10
 5951 1cca 3384      		ldd r3,Z+11
 5952 1ccc 4484      		ldd r4,Z+12
 5953 1cce 5584      		ldd r5,Z+13
 5954               	.LVL371:
 5955               	.LBE883:
 5956               	.LBE882:
 5957               	.LM564:
 5958 1cd0 2181      		ldd r18,Z+1
 5959 1cd2 3281      		ldd r19,Z+2
 5960 1cd4 40E0      		ldi r20,lo8(0)
 5961 1cd6 50E0      		ldi r21,hi8(0)
 5962 1cd8 C501      		movw r24,r10
 5963 1cda B401      		movw r22,r8
 5964 1cdc 0E94 0000 		call __divmodsi4
 5965 1ce0 7B01      		movw r14,r22
 5966 1ce2 8C01      		movw r16,r24
 5967               	.LM565:
 5968 1ce4 AB81      		ldd r26,Y+3
 5969 1ce6 BC81      		ldd r27,Y+4
 5970 1ce8 1196      		adiw r26,1
 5971 1cea 2D91      		ld r18,X+
 5972 1cec 3C91      		ld r19,X
 5973 1cee 1297      		sbiw r26,1+1
 5974 1cf0 40E0      		ldi r20,lo8(0)
 5975 1cf2 50E0      		ldi r21,hi8(0)
 5976 1cf4 C501      		movw r24,r10
 5977 1cf6 B401      		movw r22,r8
 5978 1cf8 0E94 0000 		call __divmodsi4
 5979 1cfc C901      		movw r24,r18
 5980 1cfe DA01      		movw r26,r20
 5981 1d00 3C01      		movw r6,r24
 5982 1d02 4D01      		movw r8,r26
 5983               	.LVL372:
 5984               	.LM566:
 5985 1d04 5601      		movw r10,r12
 5986               	.LVL373:
 5987 1d06 CC24      		clr r12
 5988 1d08 DD24      		clr r13
 5989               	.LVL374:
 5990 1d0a AE0C      		add r10,r14
 5991 1d0c BF1C      		adc r11,r15
 5992 1d0e C01E      		adc r12,r16
 5993 1d10 D11E      		adc r13,r17
 5994               	.LVL375:
 5995               	.LM567:
 5996 1d12 EB81      		ldd r30,Y+3
 5997 1d14 FC81      		ldd r31,Y+4
 5998 1d16 8181      		ldd r24,Z+1
 5999 1d18 9281      		ldd r25,Z+2
 6000               	.LVL376:
 6001 1d1a A0E0      		ldi r26,lo8(0)
 6002 1d1c B0E0      		ldi r27,hi8(0)
 6003 1d1e A816      		cp r10,r24
 6004 1d20 B906      		cpc r11,r25
 6005 1d22 CA06      		cpc r12,r26
 6006 1d24 DB06      		cpc r13,r27
 6007 1d26 04F0      		brlt .L283
 6008               	.LM568:
 6009 1d28 0894      		sec
 6010 1d2a 611C      		adc r6,__zero_reg__
 6011 1d2c 711C      		adc r7,__zero_reg__
 6012 1d2e 811C      		adc r8,__zero_reg__
 6013 1d30 911C      		adc r9,__zero_reg__
 6014               	.LM569:
 6015 1d32 2181      		ldd r18,Z+1
 6016 1d34 3281      		ldd r19,Z+2
 6017 1d36 40E0      		ldi r20,lo8(0)
 6018 1d38 50E0      		ldi r21,hi8(0)
 6019 1d3a C601      		movw r24,r12
 6020 1d3c B501      		movw r22,r10
 6021 1d3e 0E94 0000 		call __divmodsi4
 6022 1d42 AC01      		movw r20,r24
 6023 1d44 CB01      		movw r24,r22
 6024 1d46 DA01      		movw r26,r20
 6025 1d48 5C01      		movw r10,r24
 6026 1d4a 6D01      		movw r12,r26
 6027               	.L283:
 6028               	.LBB884:
 6029               	.LBB885:
 6030               	.LM570:
 6031 1d4c E981      		ldd r30,Y+1
 6032 1d4e FA81      		ldd r31,Y+2
 6033 1d50 54E0      		ldi r21,4
 6034 1d52 EE0F      	1:	lsl r30
 6035 1d54 FF1F      		rol r31
 6036 1d56 5A95      		dec r21
 6037 1d58 01F4      		brne 1b
 6038 1d5a 2981      		ldd r18,Y+1
 6039 1d5c 3A81      		ldd r19,Y+2
 6040 1d5e E20F      		add r30,r18
 6041 1d60 F31F      		adc r31,r19
 6042 1d62 8B81      		ldd r24,Y+3
 6043 1d64 9C81      		ldd r25,Y+4
 6044 1d66 E80F      		add r30,r24
 6045 1d68 F91F      		adc r31,r25
 6046 1d6a E15B      		subi r30,lo8(-(79))
 6047 1d6c FF4F      		sbci r31,hi8(-(79))
 6048 1d6e 260C      		add r2,r6
 6049 1d70 371C      		adc r3,r7
 6050 1d72 481C      		adc r4,r8
 6051 1d74 591C      		adc r5,r9
 6052 1d76 2192      		st Z+,r2
 6053 1d78 3192      		st Z+,r3
 6054 1d7a 4192      		st Z+,r4
 6055 1d7c 5192      		st Z+,r5
 6056               	.LBE885:
 6057               	.LBE884:
 6058               	.LBB886:
 6059               	.LBB887:
 6060               	.LM571:
 6061 1d7e A082      		st Z,r10
 6062 1d80 B182      		std Z+1,r11
 6063 1d82 C282      		std Z+2,r12
 6064 1d84 D382      		std Z+3,r13
 6065               	.LBE887:
 6066               	.LBE886:
 6067               	.LBB888:
 6068               	.LBB889:
 6069               	.LM572:
 6070 1d86 3597      		sbiw r30,5
 6071 1d88 9081      		ld r25,Z
 6072 1d8a 892F      		mov r24,r25
 6073 1d8c 8695      		lsr r24
 6074 1d8e 8F70      		andi r24,lo8(15)
 6075 1d90 8130      		cpi r24,lo8(1)
 6076 1d92 01F0      		breq .L284
 6077               	.LBB890:
 6078               	.LBB891:
 6079               	.LM573:
 6080 1d94 917E      		andi r25,lo8(-31)
 6081 1d96 9260      		ori r25,lo8(2)
 6082 1d98 9083      		st Z,r25
 6083               	.LVL377:
 6084               	.L284:
 6085               	/* epilogue start */
 6086               	.LBE891:
 6087               	.LBE890:
 6088               	.LBE889:
 6089               	.LBE888:
 6090               	.LBE877:
 6091               	.LM574:
 6092 1d9a 0F90      		pop __tmp_reg__
 6093 1d9c 0F90      		pop __tmp_reg__
 6094 1d9e 0F90      		pop __tmp_reg__
 6095 1da0 0F90      		pop __tmp_reg__
 6096 1da2 CF91      		pop r28
 6097 1da4 DF91      		pop r29
 6098 1da6 1F91      		pop r17
 6099 1da8 0F91      		pop r16
 6100 1daa FF90      		pop r15
 6101 1dac EF90      		pop r14
 6102 1dae DF90      		pop r13
 6103 1db0 CF90      		pop r12
 6104               	.LVL378:
 6105 1db2 BF90      		pop r11
 6106 1db4 AF90      		pop r10
 6107               	.LVL379:
 6108 1db6 9F90      		pop r9
 6109 1db8 8F90      		pop r8
 6110               	.LVL380:
 6111 1dba 7F90      		pop r7
 6112 1dbc 6F90      		pop r6
 6113               	.LVL381:
 6114 1dbe 5F90      		pop r5
 6115 1dc0 4F90      		pop r4
 6116 1dc2 3F90      		pop r3
 6117 1dc4 2F90      		pop r2
 6118               	.LVL382:
 6119 1dc6 0895      		ret
 6120               	.LFE107:
 6122               	.global	Timebase_DownCounter_SS_Set_Forcefully
 6124               	Timebase_DownCounter_SS_Set_Forcefully:
 6125               	.LFB108:
 6126               	.LM575:
 6127               	.LVL383:
 6128               	/* prologue: function */
 6129               	/* frame size = 0 */
 6130               	.LBB892:
 6131               	.LBB893:
 6132               	.LBB894:
 6133               	.LBB895:
 6134               	.LM576:
 6135 1dc8 E091 0000 		lds r30,Timebase
 6136 1dcc F091 0000 		lds r31,(Timebase)+1
 6137 1dd0 A82F      		mov r26,r24
 6138 1dd2 B0E0      		ldi r27,lo8(0)
 6139 1dd4 9D01      		movw r18,r26
 6140 1dd6 94E0      		ldi r25,4
 6141 1dd8 220F      	1:	lsl r18
 6142 1dda 331F      		rol r19
 6143 1ddc 9A95      		dec r25
 6144 1dde 01F4      		brne 1b
 6145 1de0 2A0F      		add r18,r26
 6146 1de2 3B1F      		adc r19,r27
 6147 1de4 E20F      		add r30,r18
 6148 1de6 F31F      		adc r31,r19
 6149 1de8 ED5A      		subi r30,lo8(-(83))
 6150 1dea FF4F      		sbci r31,hi8(-(83))
 6151 1dec 1082      		st Z,__zero_reg__
 6152 1dee 1182      		std Z+1,__zero_reg__
 6153 1df0 1282      		std Z+2,__zero_reg__
 6154 1df2 1382      		std Z+3,__zero_reg__
 6155               	.LBE895:
 6156               	.LBE894:
 6157               	.LBB896:
 6158               	.LBB897:
 6159               	.LM577:
 6160 1df4 1292      		st -Z,__zero_reg__
 6161 1df6 1292      		st -Z,__zero_reg__
 6162 1df8 1292      		st -Z,__zero_reg__
 6163 1dfa 1292      		st -Z,__zero_reg__
 6164               	.LBE897:
 6165               	.LBE896:
 6166               	.LBB898:
 6167               	.LBB899:
 6168               	.LM578:
 6169 1dfc 3896      		adiw r30,8
 6170 1dfe 1082      		st Z,__zero_reg__
 6171 1e00 1182      		std Z+1,__zero_reg__
 6172 1e02 1282      		std Z+2,__zero_reg__
 6173 1e04 1382      		std Z+3,__zero_reg__
 6174               	.LBE899:
 6175               	.LBE898:
 6176               	.LBB900:
 6177               	.LBB901:
 6178               	.LM579:
 6179 1e06 3997      		sbiw r30,9
 6180 1e08 9081      		ld r25,Z
 6181               	.LBE901:
 6182               	.LBE900:
 6183               	.LBB902:
 6184               	.LBB903:
 6185               	.LM580:
 6186 1e0a 907E      		andi r25,lo8(-32)
 6187 1e0c 9083      		st Z,r25
 6188               	.LBE903:
 6189               	.LBE902:
 6190               	.LBE893:
 6191               	.LBE892:
 6192               	.LM581:
 6193 1e0e 0E94 0000 		call Timebase_DownCounter_SS_Set_Securely
 6194               	.LVL384:
 6195               	/* epilogue start */
 6196               	.LM582:
 6197 1e12 0895      		ret
 6198               	.LFE108:
 6200               	.global	Timebase_DownCounter_SS_Update
 6202               	Timebase_DownCounter_SS_Update:
 6203               	.LFB109:
 6204               	.LM583:
 6205               	.LVL385:
 6206 1e14 2F92      		push r2
 6207 1e16 3F92      		push r3
 6208 1e18 4F92      		push r4
 6209 1e1a 5F92      		push r5
 6210 1e1c 6F92      		push r6
 6211 1e1e 7F92      		push r7
 6212 1e20 8F92      		push r8
 6213 1e22 9F92      		push r9
 6214 1e24 AF92      		push r10
 6215 1e26 BF92      		push r11
 6216 1e28 CF92      		push r12
 6217 1e2a DF92      		push r13
 6218 1e2c EF92      		push r14
 6219 1e2e FF92      		push r15
 6220 1e30 0F93      		push r16
 6221 1e32 1F93      		push r17
 6222 1e34 CF93      		push r28
 6223 1e36 DF93      		push r29
 6224               	/* prologue: function */
 6225               	/* frame size = 0 */
 6226               	.LBB904:
 6227               	.LBB905:
 6228               	.LM584:
 6229 1e38 C090 0000 		lds r12,Timebase
 6230 1e3c D090 0000 		lds r13,(Timebase)+1
 6231 1e40 082F      		mov r16,r24
 6232 1e42 10E0      		ldi r17,lo8(0)
 6233 1e44 E801      		movw r28,r16
 6234 1e46 34E0      		ldi r19,4
 6235 1e48 CC0F      	1:	lsl r28
 6236 1e4a DD1F      		rol r29
 6237 1e4c 3A95      		dec r19
 6238 1e4e 01F4      		brne 1b
 6239 1e50 C00F      		add r28,r16
 6240 1e52 D11F      		adc r29,r17
 6241 1e54 CC0D      		add r28,r12
 6242 1e56 DD1D      		adc r29,r13
 6243 1e58 C25B      		subi r28,lo8(-(78))
 6244 1e5a DF4F      		sbci r29,hi8(-(78))
 6245 1e5c 8881      		ld r24,Y
 6246               	.LVL386:
 6247 1e5e CE54      		subi r28,lo8(-(-78))
 6248 1e60 D040      		sbci r29,hi8(-(-78))
 6249 1e62 8695      		lsr r24
 6250 1e64 8F70      		andi r24,lo8(15)
 6251               	.LBE905:
 6252               	.LBE904:
 6253               	.LM585:
 6254 1e66 8130      		cpi r24,lo8(1)
 6255 1e68 01F0      		breq .+2
 6256 1e6a 00C0      		rjmp .L288
 6257               	.LBB906:
 6258               	.LBB907:
 6259               	.LBB908:
 6260               	.LM586:
 6261 1e6c F601      		movw r30,r12
 6262 1e6e 8085      		ldd r24,Z+8
 6263 1e70 9185      		ldd r25,Z+9
 6264               	.LBE908:
 6265               	.LBE907:
 6266               	.LM587:
 6267 1e72 4C01      		movw r8,r24
 6268               	.LVL387:
 6269 1e74 AA24      		clr r10
 6270 1e76 BB24      		clr r11
 6271               	.LVL388:
 6272               	.LBB909:
 6273               	.LBB910:
 6274               	.LM588:
 6275 1e78 8285      		ldd r24,Z+10
 6276 1e7a 9385      		ldd r25,Z+11
 6277 1e7c A485      		ldd r26,Z+12
 6278 1e7e B585      		ldd r27,Z+13
 6279               	.LVL389:
 6280               	.LBE910:
 6281               	.LBE909:
 6282               	.LM589:
 6283 1e80 C15B      		subi r28,lo8(-(79))
 6284 1e82 DF4F      		sbci r29,hi8(-(79))
 6285 1e84 2880      		ld r2,Y
 6286 1e86 3980      		ldd r3,Y+1
 6287 1e88 4A80      		ldd r4,Y+2
 6288 1e8a 5B80      		ldd r5,Y+3
 6289               	.LVL390:
 6290 1e8c 281A      		sub r2,r24
 6291 1e8e 390A      		sbc r3,r25
 6292 1e90 4A0A      		sbc r4,r26
 6293 1e92 5B0A      		sbc r5,r27
 6294 1e94 57FE      		sbrs r5,7
 6295 1e96 00C0      		rjmp .L289
 6296 1e98 2224      		clr r2
 6297 1e9a 3324      		clr r3
 6298 1e9c 2101      		movw r4,r2
 6299               	.L289:
 6300               	.LM590:
 6301 1e9e F601      		movw r30,r12
 6302 1ea0 2181      		ldd r18,Z+1
 6303 1ea2 3281      		ldd r19,Z+2
 6304 1ea4 40E0      		ldi r20,lo8(0)
 6305 1ea6 50E0      		ldi r21,hi8(0)
 6306 1ea8 C201      		movw r24,r4
 6307 1eaa B101      		movw r22,r2
 6308 1eac 0E94 0000 		call __mulsi3
 6309               	.LM591:
 6310 1eb0 F801      		movw r30,r16
 6311 1eb2 24E0      		ldi r18,4
 6312 1eb4 EE0F      	1:	lsl r30
 6313 1eb6 FF1F      		rol r31
 6314 1eb8 2A95      		dec r18
 6315 1eba 01F4      		brne 1b
 6316 1ebc E00F      		add r30,r16
 6317 1ebe F11F      		adc r31,r17
 6318 1ec0 EC0D      		add r30,r12
 6319 1ec2 FD1D      		adc r31,r13
 6320 1ec4 EF01      		movw r28,r30
 6321 1ec6 CD5A      		subi r28,lo8(-(83))
 6322 1ec8 DF4F      		sbci r29,hi8(-(83))
 6323 1eca 2881      		ld r18,Y
 6324 1ecc 3981      		ldd r19,Y+1
 6325 1ece 4A81      		ldd r20,Y+2
 6326 1ed0 5B81      		ldd r21,Y+3
 6327               	.LVL391:
 6328 1ed2 2819      		sub r18,r8
 6329 1ed4 3909      		sbc r19,r9
 6330 1ed6 4A09      		sbc r20,r10
 6331 1ed8 5B09      		sbc r21,r11
 6332 1eda 260F      		add r18,r22
 6333 1edc 371F      		adc r19,r23
 6334 1ede 481F      		adc r20,r24
 6335 1ee0 591F      		adc r21,r25
 6336               	.LBB911:
 6337               	.LBB912:
 6338               	.LM592:
 6339 1ee2 DF01      		movw r26,r30
 6340 1ee4 A95A      		subi r26,lo8(-(87))
 6341 1ee6 BF4F      		sbci r27,hi8(-(87))
 6342 1ee8 2D93      		st X+,r18
 6343 1eea 3D93      		st X+,r19
 6344 1eec 4D93      		st X+,r20
 6345 1eee 5C93      		st X,r21
 6346 1ef0 1397      		sbiw r26,3
 6347               	.LBE912:
 6348               	.LBE911:
 6349               	.LM593:
 6350 1ef2 1216      		cp __zero_reg__,r18
 6351 1ef4 1306      		cpc __zero_reg__,r19
 6352 1ef6 1406      		cpc __zero_reg__,r20
 6353 1ef8 1506      		cpc __zero_reg__,r21
 6354 1efa 04F4      		brge .+2
 6355 1efc 00C0      		rjmp .L291
 6356               	.LBB913:
 6357               	.LBB914:
 6358               	.LBB915:
 6359               	.LBB916:
 6360               	.LM594:
 6361 1efe 1882      		st Y,__zero_reg__
 6362 1f00 1982      		std Y+1,__zero_reg__
 6363 1f02 1A82      		std Y+2,__zero_reg__
 6364 1f04 1B82      		std Y+3,__zero_reg__
 6365               	.LBE916:
 6366               	.LBE915:
 6367               	.LBB917:
 6368               	.LBB918:
 6369               	.LM595:
 6370 1f06 E15B      		subi r30,lo8(-(79))
 6371 1f08 FF4F      		sbci r31,hi8(-(79))
 6372 1f0a 1082      		st Z,__zero_reg__
 6373 1f0c 1182      		std Z+1,__zero_reg__
 6374 1f0e 1282      		std Z+2,__zero_reg__
 6375 1f10 1382      		std Z+3,__zero_reg__
 6376               	.LBE918:
 6377               	.LBE917:
 6378               	.LBB919:
 6379               	.LBB920:
 6380               	.LM596:
 6381 1f12 1D92      		st X+,__zero_reg__
 6382 1f14 1D92      		st X+,__zero_reg__
 6383 1f16 1D92      		st X+,__zero_reg__
 6384 1f18 1C92      		st X,__zero_reg__
 6385 1f1a 1397      		sbiw r26,3
 6386               	.LBE920:
 6387               	.LBE919:
 6388               	.LBB921:
 6389               	.LBB922:
 6390               	.LM597:
 6391 1f1c 8291      		ld r24,-Z
 6392               	.LBE922:
 6393               	.LBE921:
 6394               	.LBE914:
 6395               	.LBE913:
 6396               	.LBB923:
 6397               	.LBB924:
 6398               	.LM598:
 6399 1f1e 807E      		andi r24,lo8(-32)
 6400 1f20 8860      		ori r24,lo8(8)
 6401 1f22 8083      		st Z,r24
 6402 1f24 00C0      		rjmp .L291
 6403               	.LVL392:
 6404               	.L288:
 6405               	.LBE924:
 6406               	.LBE923:
 6407               	.LBE906:
 6408               	.LM599:
 6409 1f26 8230      		cpi r24,lo8(2)
 6410 1f28 01F4      		brne .L291
 6411               	.LBB925:
 6412               	.LBB926:
 6413               	.LBB927:
 6414               	.LM600:
 6415 1f2a F601      		movw r30,r12
 6416 1f2c 6084      		ldd r6,Z+8
 6417 1f2e 7184      		ldd r7,Z+9
 6418               	.LBE927:
 6419               	.LBE926:
 6420               	.LBB928:
 6421               	.LBB929:
 6422               	.LM601:
 6423 1f30 E284      		ldd r14,Z+10
 6424 1f32 F384      		ldd r15,Z+11
 6425 1f34 0485      		ldd r16,Z+12
 6426 1f36 1585      		ldd r17,Z+13
 6427               	.LVL393:
 6428               	.LBE929:
 6429               	.LBE928:
 6430               	.LBB930:
 6431               	.LBB931:
 6432               	.LM602:
 6433 1f38 C95A      		subi r28,lo8(-(87))
 6434 1f3a DF4F      		sbci r29,hi8(-(87))
 6435 1f3c 2880      		ld r2,Y
 6436 1f3e 3980      		ldd r3,Y+1
 6437 1f40 4A80      		ldd r4,Y+2
 6438 1f42 5B80      		ldd r5,Y+3
 6439               	.LVL394:
 6440               	.LBE931:
 6441               	.LBE930:
 6442               	.LM603:
 6443 1f44 2181      		ldd r18,Z+1
 6444 1f46 3281      		ldd r19,Z+2
 6445               	.LM604:
 6446 1f48 A180      		ldd r10,Z+1
 6447 1f4a B280      		ldd r11,Z+2
 6448               	.LBB932:
 6449               	.LBB933:
 6450               	.LM605:
 6451 1f4c 2897      		sbiw r28,8
 6452 1f4e 40E0      		ldi r20,lo8(0)
 6453 1f50 50E0      		ldi r21,hi8(0)
 6454 1f52 C201      		movw r24,r4
 6455 1f54 B101      		movw r22,r2
 6456 1f56 0E94 0000 		call __divmodsi4
 6457 1f5a E20E      		add r14,r18
 6458 1f5c F31E      		adc r15,r19
 6459 1f5e 041F      		adc r16,r20
 6460 1f60 151F      		adc r17,r21
 6461 1f62 E992      		st Y+,r14
 6462 1f64 F992      		st Y+,r15
 6463 1f66 0993      		st Y+,r16
 6464 1f68 1993      		st Y+,r17
 6465               	.LBE933:
 6466               	.LBE932:
 6467               	.LBB934:
 6468               	.LBB935:
 6469               	.LM606:
 6470 1f6a CC24      		clr r12
 6471 1f6c DD24      		clr r13
 6472 1f6e C201      		movw r24,r4
 6473 1f70 B101      		movw r22,r2
 6474 1f72 A601      		movw r20,r12
 6475 1f74 9501      		movw r18,r10
 6476 1f76 0E94 0000 		call __divmodsi4
 6477 1f7a 8824      		clr r8
 6478 1f7c 9924      		clr r9
 6479 1f7e 660E      		add r6,r22
 6480 1f80 771E      		adc r7,r23
 6481 1f82 881E      		adc r8,r24
 6482 1f84 991E      		adc r9,r25
 6483 1f86 6882      		st Y,r6
 6484 1f88 7982      		std Y+1,r7
 6485 1f8a 8A82      		std Y+2,r8
 6486 1f8c 9B82      		std Y+3,r9
 6487               	.LVL395:
 6488               	.L291:
 6489               	/* epilogue start */
 6490               	.LBE935:
 6491               	.LBE934:
 6492               	.LBE925:
 6493               	.LM607:
 6494 1f8e DF91      		pop r29
 6495 1f90 CF91      		pop r28
 6496 1f92 1F91      		pop r17
 6497 1f94 0F91      		pop r16
 6498 1f96 FF90      		pop r15
 6499 1f98 EF90      		pop r14
 6500               	.LVL396:
 6501 1f9a DF90      		pop r13
 6502 1f9c CF90      		pop r12
 6503 1f9e BF90      		pop r11
 6504 1fa0 AF90      		pop r10
 6505               	.LVL397:
 6506 1fa2 9F90      		pop r9
 6507 1fa4 8F90      		pop r8
 6508               	.LVL398:
 6509 1fa6 7F90      		pop r7
 6510 1fa8 6F90      		pop r6
 6511 1faa 5F90      		pop r5
 6512 1fac 4F90      		pop r4
 6513 1fae 3F90      		pop r3
 6514 1fb0 2F90      		pop r2
 6515               	.LVL399:
 6516 1fb2 0895      		ret
 6517               	.LFE109:
 6519               	.global	Timebase_DownCounter_SS_Expired
 6521               	Timebase_DownCounter_SS_Expired:
 6522               	.LFB110:
 6523               	.LM608:
 6524               	.LVL400:
 6525               	/* prologue: function */
 6526               	/* frame size = 0 */
 6527               	.LM609:
 6528 1fb4 40E0      		ldi r20,lo8(0)
 6529 1fb6 E091 0000 		lds r30,Timebase
 6530 1fba F091 0000 		lds r31,(Timebase)+1
 6531 1fbe 90E0      		ldi r25,lo8(0)
 6532               	.LVL401:
 6533 1fc0 9C01      		movw r18,r24
 6534 1fc2 54E0      		ldi r21,4
 6535 1fc4 220F      	1:	lsl r18
 6536 1fc6 331F      		rol r19
 6537 1fc8 5A95      		dec r21
 6538 1fca 01F4      		brne 1b
 6539 1fcc 280F      		add r18,r24
 6540 1fce 391F      		adc r19,r25
 6541 1fd0 E20F      		add r30,r18
 6542 1fd2 F31F      		adc r31,r19
 6543 1fd4 E25B      		subi r30,lo8(-(78))
 6544 1fd6 FF4F      		sbci r31,hi8(-(78))
 6545 1fd8 8081      		ld r24,Z
 6546               	.LVL402:
 6547 1fda 8695      		lsr r24
 6548 1fdc 8F70      		andi r24,lo8(15)
 6549 1fde 8430      		cpi r24,lo8(4)
 6550 1fe0 01F4      		brne .L293
 6551 1fe2 41E0      		ldi r20,lo8(1)
 6552               	.L293:
 6553               	.LM610:
 6554 1fe4 842F      		mov r24,r20
 6555               	/* epilogue start */
 6556 1fe6 0895      		ret
 6557               	.LFE110:
 6559               	.global	Timebase_DownCounter_SS_Expired_Event
 6561               	Timebase_DownCounter_SS_Expired_Event:
 6562               	.LFB111:
 6563               	.LM611:
 6564               	.LVL403:
 6565               	/* prologue: function */
 6566               	/* frame size = 0 */
 6567               	.LBB936:
 6568               	.LBB937:
 6569               	.LM612:
 6570 1fe8 E091 0000 		lds r30,Timebase
 6571 1fec F091 0000 		lds r31,(Timebase)+1
 6572 1ff0 90E0      		ldi r25,lo8(0)
 6573               	.LBE937:
 6574               	.LBE936:
 6575               	.LM613:
 6576 1ff2 9C01      		movw r18,r24
 6577               	.LVL404:
 6578 1ff4 64E0      		ldi r22,4
 6579 1ff6 220F      	1:	lsl r18
 6580 1ff8 331F      		rol r19
 6581 1ffa 6A95      		dec r22
 6582 1ffc 01F4      		brne 1b
 6583 1ffe 280F      		add r18,r24
 6584 2000 391F      		adc r19,r25
 6585 2002 E20F      		add r30,r18
 6586 2004 F31F      		adc r31,r19
 6587 2006 DF01      		movw r26,r30
 6588 2008 A25B      		subi r26,lo8(-(78))
 6589 200a BF4F      		sbci r27,hi8(-(78))
 6590 200c 8C91      		ld r24,X
 6591 200e 8695      		lsr r24
 6592 2010 8F70      		andi r24,lo8(15)
 6593 2012 8430      		cpi r24,lo8(4)
 6594 2014 01F0      		breq .L296
 6595 2016 80E0      		ldi r24,lo8(0)
 6596 2018 0895      		ret
 6597               	.L296:
 6598               	.LBB938:
 6599               	.LBB939:
 6600               	.LBB940:
 6601               	.LBB941:
 6602               	.LBB942:
 6603               	.LBB943:
 6604               	.LM614:
 6605 201a ED5A      		subi r30,lo8(-(83))
 6606 201c FF4F      		sbci r31,hi8(-(83))
 6607 201e 1082      		st Z,__zero_reg__
 6608 2020 1182      		std Z+1,__zero_reg__
 6609 2022 1282      		std Z+2,__zero_reg__
 6610 2024 1382      		std Z+3,__zero_reg__
 6611               	.LBE943:
 6612               	.LBE942:
 6613               	.LBB944:
 6614               	.LBB945:
 6615               	.LM615:
 6616 2026 1292      		st -Z,__zero_reg__
 6617 2028 1292      		st -Z,__zero_reg__
 6618 202a 1292      		st -Z,__zero_reg__
 6619 202c 1292      		st -Z,__zero_reg__
 6620               	.LBE945:
 6621               	.LBE944:
 6622               	.LBB946:
 6623               	.LBB947:
 6624               	.LM616:
 6625 202e 3896      		adiw r30,8
 6626 2030 1082      		st Z,__zero_reg__
 6627 2032 1182      		std Z+1,__zero_reg__
 6628 2034 1282      		std Z+2,__zero_reg__
 6629 2036 1382      		std Z+3,__zero_reg__
 6630               	.LBE947:
 6631               	.LBE946:
 6632               	.LBB948:
 6633               	.LBB949:
 6634               	.LM617:
 6635 2038 8C91      		ld r24,X
 6636               	.LBE949:
 6637               	.LBE948:
 6638               	.LBB950:
 6639               	.LBB951:
 6640               	.LM618:
 6641 203a 807E      		andi r24,lo8(-32)
 6642 203c 8C93      		st X,r24
 6643 203e 81E0      		ldi r24,lo8(1)
 6644               	.LBE951:
 6645               	.LBE950:
 6646               	.LBE941:
 6647               	.LBE940:
 6648               	.LBE939:
 6649               	.LBE938:
 6650               	.LM619:
 6651 2040 0895      		ret
 6652               	.LFE111:
 6654               	.global	Timebase_DownCounter_SS_Set_Period_Value_Securely
 6656               	Timebase_DownCounter_SS_Set_Period_Value_Securely:
 6657               	.LFB112:
 6658               	.LM620:
 6659               	.LVL405:
 6660 2042 CF93      		push r28
 6661 2044 DF93      		push r29
 6662               	/* prologue: function */
 6663               	/* frame size = 0 */
 6664               	.LBB952:
 6665               	.LBB953:
 6666               	.LM621:
 6667 2046 C091 0000 		lds r28,Timebase
 6668 204a D091 0000 		lds r29,(Timebase)+1
 6669 204e 282F      		mov r18,r24
 6670 2050 30E0      		ldi r19,lo8(0)
 6671               	.LBE953:
 6672               	.LBE952:
 6673               	.LM622:
 6674 2052 F901      		movw r30,r18
 6675 2054 A4E0      		ldi r26,4
 6676 2056 EE0F      	1:	lsl r30
 6677 2058 FF1F      		rol r31
 6678 205a AA95      		dec r26
 6679 205c 01F4      		brne 1b
 6680 205e E20F      		add r30,r18
 6681 2060 F31F      		adc r31,r19
 6682 2062 EC0F      		add r30,r28
 6683 2064 FD1F      		adc r31,r29
 6684 2066 E25B      		subi r30,lo8(-(78))
 6685 2068 FF4F      		sbci r31,hi8(-(78))
 6686 206a 8081      		ld r24,Z
 6687               	.LVL406:
 6688 206c EE54      		subi r30,lo8(-(-78))
 6689 206e F040      		sbci r31,hi8(-(-78))
 6690 2070 80FD      		sbrc r24,0
 6691 2072 00C0      		rjmp .L303
 6692               	.LM623:
 6693 2074 E95A      		subi r30,lo8(-(87))
 6694 2076 FF4F      		sbci r31,hi8(-(87))
 6695 2078 8191      		ld r24,Z+
 6696 207a 9191      		ld r25,Z+
 6697 207c A191      		ld r26,Z+
 6698 207e B191      		ld r27,Z+
 6699 2080 841B      		sub r24,r20
 6700 2082 950B      		sbc r25,r21
 6701 2084 A60B      		sbc r26,r22
 6702 2086 B70B      		sbc r27,r23
 6703               	.LBB954:
 6704               	.LBB955:
 6705               	.LM624:
 6706 2088 B7FF      		sbrs r27,7
 6707 208a 00C0      		rjmp .L301
 6708               	.LM625:
 6709 208c 1082      		st Z,__zero_reg__
 6710 208e 1182      		std Z+1,__zero_reg__
 6711 2090 1282      		std Z+2,__zero_reg__
 6712 2092 1382      		std Z+3,__zero_reg__
 6713 2094 00C0      		rjmp .L302
 6714               	.L301:
 6715               	.LM626:
 6716 2096 8083      		st Z,r24
 6717 2098 9183      		std Z+1,r25
 6718 209a A283      		std Z+2,r26
 6719 209c B383      		std Z+3,r27
 6720               	.L302:
 6721               	.LBE955:
 6722               	.LBE954:
 6723               	.LBB956:
 6724               	.LBB957:
 6725               	.LM627:
 6726 209e F901      		movw r30,r18
 6727 20a0 74E0      		ldi r23,4
 6728 20a2 EE0F      	1:	lsl r30
 6729 20a4 FF1F      		rol r31
 6730 20a6 7A95      		dec r23
 6731 20a8 01F4      		brne 1b
 6732 20aa E20F      		add r30,r18
 6733 20ac F31F      		adc r31,r19
 6734 20ae EC0F      		add r30,r28
 6735 20b0 FD1F      		adc r31,r29
 6736 20b2 E25B      		subi r30,lo8(-(78))
 6737 20b4 FF4F      		sbci r31,hi8(-(78))
 6738 20b6 8081      		ld r24,Z
 6739 20b8 8160      		ori r24,lo8(1)
 6740 20ba 8083      		st Z,r24
 6741               	.L303:
 6742               	/* epilogue start */
 6743               	.LBE957:
 6744               	.LBE956:
 6745               	.LM628:
 6746 20bc DF91      		pop r29
 6747 20be CF91      		pop r28
 6748 20c0 0895      		ret
 6749               	.LFE112:
 6751               	.global	Timebase_DownCounter_SS_Get_Remaining_Period_Value
 6753               	Timebase_DownCounter_SS_Get_Remaining_Period_Value:
 6754               	.LFB113:
 6755               	.LM629:
 6756               	.LVL407:
 6757               	/* prologue: function */
 6758               	/* frame size = 0 */
 6759               	.LBB958:
 6760               	.LBB959:
 6761               	.LM630:
 6762 20c2 E091 0000 		lds r30,Timebase
 6763 20c6 F091 0000 		lds r31,(Timebase)+1
 6764 20ca 90E0      		ldi r25,lo8(0)
 6765               	.LBE959:
 6766               	.LBE958:
 6767               	.LM631:
 6768 20cc 9C01      		movw r18,r24
 6769               	.LVL408:
 6770 20ce B4E0      		ldi r27,4
 6771 20d0 220F      	1:	lsl r18
 6772 20d2 331F      		rol r19
 6773 20d4 BA95      		dec r27
 6774 20d6 01F4      		brne 1b
 6775 20d8 280F      		add r18,r24
 6776 20da 391F      		adc r19,r25
 6777 20dc E20F      		add r30,r18
 6778 20de F31F      		adc r31,r19
 6779 20e0 DF01      		movw r26,r30
 6780 20e2 A55A      		subi r26,lo8(-(91))
 6781 20e4 BF4F      		sbci r27,hi8(-(91))
 6782 20e6 E95A      		subi r30,lo8(-(87))
 6783 20e8 FF4F      		sbci r31,hi8(-(87))
 6784 20ea 2081      		ld r18,Z
 6785 20ec 3181      		ldd r19,Z+1
 6786 20ee 4281      		ldd r20,Z+2
 6787 20f0 5381      		ldd r21,Z+3
 6788               	.LVL409:
 6789 20f2 8D91      		ld r24,X+
 6790 20f4 9D91      		ld r25,X+
 6791 20f6 0D90      		ld __tmp_reg__,X+
 6792 20f8 BC91      		ld r27,X
 6793 20fa A02D      		mov r26,__tmp_reg__
 6794 20fc 281B      		sub r18,r24
 6795 20fe 390B      		sbc r19,r25
 6796 2100 4A0B      		sbc r20,r26
 6797 2102 5B0B      		sbc r21,r27
 6798 2104 57FF      		sbrs r21,7
 6799 2106 00C0      		rjmp .L305
 6800 2108 20E0      		ldi r18,lo8(0)
 6801 210a 30E0      		ldi r19,hi8(0)
 6802 210c 40E0      		ldi r20,hlo8(0)
 6803 210e 50E0      		ldi r21,hhi8(0)
 6804               	.L305:
 6805               	.LM632:
 6806 2110 B901      		movw r22,r18
 6807               	.LVL410:
 6808 2112 CA01      		movw r24,r20
 6809               	/* epilogue start */
 6810 2114 0895      		ret
 6811               	.LFE113:
 6813               	.global	Timebase_DownCounter_SS_Period_Value_Expired
 6815               	Timebase_DownCounter_SS_Period_Value_Expired:
 6816               	.LFB114:
 6817               	.LM633:
 6818               	.LVL411:
 6819 2116 CF93      		push r28
 6820 2118 DF93      		push r29
 6821               	/* prologue: function */
 6822               	/* frame size = 0 */
 6823               	.LBB960:
 6824               	.LBB961:
 6825               	.LBB962:
 6826               	.LBB963:
 6827               	.LM634:
 6828 211a C091 0000 		lds r28,Timebase
 6829 211e D091 0000 		lds r29,(Timebase)+1
 6830 2122 682F      		mov r22,r24
 6831 2124 70E0      		ldi r23,lo8(0)
 6832               	.LBE963:
 6833               	.LBE962:
 6834               	.LM635:
 6835 2126 FB01      		movw r30,r22
 6836 2128 44E0      		ldi r20,4
 6837 212a EE0F      	1:	lsl r30
 6838 212c FF1F      		rol r31
 6839 212e 4A95      		dec r20
 6840 2130 01F4      		brne 1b
 6841 2132 E60F      		add r30,r22
 6842 2134 F71F      		adc r31,r23
 6843 2136 EC0F      		add r30,r28
 6844 2138 FD1F      		adc r31,r29
 6845 213a DF01      		movw r26,r30
 6846 213c A55A      		subi r26,lo8(-(91))
 6847 213e BF4F      		sbci r27,hi8(-(91))
 6848 2140 E95A      		subi r30,lo8(-(87))
 6849 2142 FF4F      		sbci r31,hi8(-(87))
 6850 2144 2081      		ld r18,Z
 6851 2146 3181      		ldd r19,Z+1
 6852 2148 4281      		ldd r20,Z+2
 6853 214a 5381      		ldd r21,Z+3
 6854               	.LVL412:
 6855 214c 8D91      		ld r24,X+
 6856 214e 9D91      		ld r25,X+
 6857 2150 0D90      		ld __tmp_reg__,X+
 6858 2152 BC91      		ld r27,X
 6859 2154 A02D      		mov r26,__tmp_reg__
 6860               	.LVL413:
 6861 2156 281B      		sub r18,r24
 6862 2158 390B      		sbc r19,r25
 6863 215a 4A0B      		sbc r20,r26
 6864 215c 5B0B      		sbc r21,r27
 6865               	.LM636:
 6866 215e 57FD      		sbrc r21,7
 6867 2160 00C0      		rjmp .L308
 6868               	.LBE961:
 6869               	.LBE960:
 6870               	.LM637:
 6871 2162 2115      		cp r18,__zero_reg__
 6872 2164 3105      		cpc r19,__zero_reg__
 6873 2166 4105      		cpc r20,__zero_reg__
 6874 2168 5105      		cpc r21,__zero_reg__
 6875 216a 01F0      		breq .L308
 6876 216c 20E0      		ldi r18,lo8(0)
 6877               	.LVL414:
 6878 216e 00C0      		rjmp .L309
 6879               	.LVL415:
 6880               	.L308:
 6881 2170 20E0      		ldi r18,lo8(0)
 6882               	.LVL416:
 6883 2172 CB01      		movw r24,r22
 6884 2174 34E0      		ldi r19,4
 6885 2176 880F      	1:	lsl r24
 6886 2178 991F      		rol r25
 6887 217a 3A95      		dec r19
 6888 217c 01F4      		brne 1b
 6889 217e 860F      		add r24,r22
 6890 2180 971F      		adc r25,r23
 6891 2182 C80F      		add r28,r24
 6892 2184 D91F      		adc r29,r25
 6893 2186 C25B      		subi r28,lo8(-(78))
 6894 2188 DF4F      		sbci r29,hi8(-(78))
 6895 218a 8881      		ld r24,Y
 6896 218c 80FF      		sbrs r24,0
 6897 218e 21E0      		ldi r18,lo8(1)
 6898               	.L310:
 6899 2190 81E0      		ldi r24,lo8(1)
 6900 2192 2827      		eor r18,r24
 6901               	.L309:
 6902               	.LM638:
 6903 2194 822F      		mov r24,r18
 6904               	/* epilogue start */
 6905 2196 DF91      		pop r29
 6906 2198 CF91      		pop r28
 6907 219a 0895      		ret
 6908               	.LFE114:
 6910               	.global	Timebase_DownCounter_SS_Period_Value_Expired_Event
 6912               	Timebase_DownCounter_SS_Period_Value_Expired_Event:
 6913               	.LFB115:
 6914               	.LM639:
 6915               	.LVL417:
 6916 219c 1F93      		push r17
 6917               	/* prologue: function */
 6918               	/* frame size = 0 */
 6919 219e 182F      		mov r17,r24
 6920               	.LM640:
 6921 21a0 0E94 0000 		call Timebase_DownCounter_SS_Period_Value_Expired
 6922               	.LVL418:
 6923 21a4 8130      		cpi r24,lo8(1)
 6924 21a6 01F0      		breq .L313
 6925 21a8 80E0      		ldi r24,lo8(0)
 6926 21aa 00C0      		rjmp .L314
 6927               	.L313:
 6928               	.LBB964:
 6929               	.LBB965:
 6930               	.LM641:
 6931 21ac E091 0000 		lds r30,Timebase
 6932 21b0 F091 0000 		lds r31,(Timebase)+1
 6933 21b4 212F      		mov r18,r17
 6934 21b6 30E0      		ldi r19,lo8(0)
 6935               	.LVL419:
 6936 21b8 C901      		movw r24,r18
 6937 21ba 54E0      		ldi r21,4
 6938 21bc 880F      	1:	lsl r24
 6939 21be 991F      		rol r25
 6940 21c0 5A95      		dec r21
 6941 21c2 01F4      		brne 1b
 6942 21c4 820F      		add r24,r18
 6943 21c6 931F      		adc r25,r19
 6944 21c8 E80F      		add r30,r24
 6945 21ca F91F      		adc r31,r25
 6946 21cc E25B      		subi r30,lo8(-(78))
 6947 21ce FF4F      		sbci r31,hi8(-(78))
 6948 21d0 8081      		ld r24,Z
 6949 21d2 8E7F      		andi r24,lo8(-2)
 6950 21d4 8083      		st Z,r24
 6951 21d6 81E0      		ldi r24,lo8(1)
 6952               	.L314:
 6953               	/* epilogue start */
 6954               	.LBE965:
 6955               	.LBE964:
 6956               	.LM642:
 6957 21d8 1F91      		pop r17
 6958               	.LVL420:
 6959 21da 0895      		ret
 6960               	.LFE115:
 6962               	.global	Timebase_DownCounter_SS_Update_All
 6964               	Timebase_DownCounter_SS_Update_All:
 6965               	.LFB116:
 6966               	.LM643:
 6967               	/* prologue: function */
 6968               	/* frame size = 0 */
 6969               	.LBB966:
 6970               	.LM644:
 6971 21dc 80E0      		ldi r24,lo8(0)
 6972 21de 0E94 0000 		call Timebase_DownCounter_SS_Update
 6973               	/* epilogue start */
 6974               	.LBE966:
 6975               	.LM645:
 6976 21e2 0895      		ret
 6977               	.LFE116:
 6979               	.global	Timebase_DownCounter_SS_Reset_All
 6981               	Timebase_DownCounter_SS_Reset_All:
 6982               	.LFB117:
 6983               	.LM646:
 6984               	/* prologue: function */
 6985               	/* frame size = 0 */
 6986               	.LBB967:
 6987               	.LBB968:
 6988               	.LBB969:
 6989               	.LBB970:
 6990               	.LBB971:
 6991               	.LM647:
 6992 21e4 E091 0000 		lds r30,Timebase
 6993 21e8 F091 0000 		lds r31,(Timebase)+1
 6994 21ec ED5A      		subi r30,lo8(-(83))
 6995 21ee FF4F      		sbci r31,hi8(-(83))
 6996 21f0 1082      		st Z,__zero_reg__
 6997 21f2 1182      		std Z+1,__zero_reg__
 6998 21f4 1282      		std Z+2,__zero_reg__
 6999 21f6 1382      		std Z+3,__zero_reg__
 7000               	.LBE971:
 7001               	.LBE970:
 7002               	.LBB972:
 7003               	.LBB973:
 7004               	.LM648:
 7005 21f8 1292      		st -Z,__zero_reg__
 7006 21fa 1292      		st -Z,__zero_reg__
 7007 21fc 1292      		st -Z,__zero_reg__
 7008 21fe 1292      		st -Z,__zero_reg__
 7009               	.LBE973:
 7010               	.LBE972:
 7011               	.LBB974:
 7012               	.LBB975:
 7013               	.LM649:
 7014 2200 3896      		adiw r30,8
 7015 2202 1082      		st Z,__zero_reg__
 7016 2204 1182      		std Z+1,__zero_reg__
 7017 2206 1282      		std Z+2,__zero_reg__
 7018 2208 1382      		std Z+3,__zero_reg__
 7019               	.LBE975:
 7020               	.LBE974:
 7021               	.LBB976:
 7022               	.LBB977:
 7023               	.LM650:
 7024 220a 3997      		sbiw r30,9
 7025 220c 8081      		ld r24,Z
 7026               	.LBE977:
 7027               	.LBE976:
 7028               	.LBB978:
 7029               	.LBB979:
 7030               	.LM651:
 7031 220e 807E      		andi r24,lo8(-32)
 7032 2210 8083      		st Z,r24
 7033               	/* epilogue start */
 7034               	.LBE979:
 7035               	.LBE978:
 7036               	.LBE969:
 7037               	.LBE968:
 7038               	.LBE967:
 7039               	.LM652:
 7040 2212 0895      		ret
 7041               	.LFE117:
 7043               	.global	Timebase_DownCounter_Get_Status
 7045               	Timebase_DownCounter_Get_Status:
 7046               	.LFB118:
 7047               	.LM653:
 7048               	.LVL421:
 7049               	/* prologue: function */
 7050               	/* frame size = 0 */
 7051               	.LM654:
 7052 2214 E091 0000 		lds r30,Timebase
 7053 2218 F091 0000 		lds r31,(Timebase)+1
 7054 221c 90E0      		ldi r25,lo8(0)
 7055               	.LVL422:
 7056 221e 2DE0      		ldi r18,lo8(13)
 7057 2220 30E0      		ldi r19,hi8(13)
 7058 2222 AC01      		movw r20,r24
 7059 2224 429F      		mul r20,r18
 7060 2226 C001      		movw r24,r0
 7061 2228 439F      		mul r20,r19
 7062 222a 900D      		add r25,r0
 7063 222c 529F      		mul r21,r18
 7064 222e 900D      		add r25,r0
 7065 2230 1124      		clr r1
 7066               	.LVL423:
 7067 2232 E80F      		add r30,r24
 7068 2234 F91F      		adc r31,r25
 7069 2236 E15A      		subi r30,lo8(-(95))
 7070 2238 FF4F      		sbci r31,hi8(-(95))
 7071 223a 8081      		ld r24,Z
 7072 223c 8695      		lsr r24
 7073               	.LM655:
 7074 223e 8F70      		andi r24,lo8(15)
 7075               	/* epilogue start */
 7076 2240 0895      		ret
 7077               	.LFE118:
 7079               	.global	Timebase_DownCounter_Set_Status
 7081               	Timebase_DownCounter_Set_Status:
 7082               	.LFB119:
 7083               	.LM656:
 7084               	.LVL424:
 7085               	/* prologue: function */
 7086               	/* frame size = 0 */
 7087               	.LM657:
 7088 2242 E091 0000 		lds r30,Timebase
 7089 2246 F091 0000 		lds r31,(Timebase)+1
 7090 224a 90E0      		ldi r25,lo8(0)
 7091               	.LVL425:
 7092 224c 2DE0      		ldi r18,lo8(13)
 7093 224e 30E0      		ldi r19,hi8(13)
 7094 2250 AC01      		movw r20,r24
 7095 2252 429F      		mul r20,r18
 7096 2254 C001      		movw r24,r0
 7097 2256 439F      		mul r20,r19
 7098 2258 900D      		add r25,r0
 7099 225a 529F      		mul r21,r18
 7100 225c 900D      		add r25,r0
 7101 225e 1124      		clr r1
 7102               	.LVL426:
 7103 2260 E80F      		add r30,r24
 7104 2262 F91F      		adc r31,r25
 7105 2264 E15A      		subi r30,lo8(-(95))
 7106 2266 FF4F      		sbci r31,hi8(-(95))
 7107 2268 6F70      		andi r22,lo8(15)
 7108               	.LVL427:
 7109 226a 660F      		lsl r22
 7110 226c 8081      		ld r24,Z
 7111 226e 817E      		andi r24,lo8(-31)
 7112 2270 862B      		or r24,r22
 7113 2272 8083      		st Z,r24
 7114               	/* epilogue start */
 7115               	.LM658:
 7116 2274 0895      		ret
 7117               	.LFE119:
 7119               	.global	Timebase_DownCounter_Get_Value
 7121               	Timebase_DownCounter_Get_Value:
 7122               	.LFB120:
 7123               	.LM659:
 7124               	.LVL428:
 7125               	/* prologue: function */
 7126               	/* frame size = 0 */
 7127               	.LM660:
 7128 2276 E091 0000 		lds r30,Timebase
 7129 227a F091 0000 		lds r31,(Timebase)+1
 7130 227e 90E0      		ldi r25,lo8(0)
 7131               	.LVL429:
 7132 2280 2DE0      		ldi r18,lo8(13)
 7133 2282 30E0      		ldi r19,hi8(13)
 7134 2284 AC01      		movw r20,r24
 7135 2286 429F      		mul r20,r18
 7136 2288 C001      		movw r24,r0
 7137 228a 439F      		mul r20,r19
 7138 228c 900D      		add r25,r0
 7139 228e 529F      		mul r21,r18
 7140 2290 900D      		add r25,r0
 7141 2292 1124      		clr r1
 7142               	.LVL430:
 7143 2294 E80F      		add r30,r24
 7144 2296 F91F      		adc r31,r25
 7145 2298 EC59      		subi r30,lo8(-(100))
 7146 229a FF4F      		sbci r31,hi8(-(100))
 7147 229c 6081      		ld r22,Z
 7148 229e 7181      		ldd r23,Z+1
 7149               	.LM661:
 7150 22a0 8281      		ldd r24,Z+2
 7151 22a2 9381      		ldd r25,Z+3
 7152               	.LVL431:
 7153               	/* epilogue start */
 7154 22a4 0895      		ret
 7155               	.LFE120:
 7157               	.global	Timebase_DownCounter_Set_Value
 7159               	Timebase_DownCounter_Set_Value:
 7160               	.LFB121:
 7161               	.LM662:
 7162               	.LVL432:
 7163               	/* prologue: function */
 7164               	/* frame size = 0 */
 7165               	.LM663:
 7166 22a6 E091 0000 		lds r30,Timebase
 7167 22aa F091 0000 		lds r31,(Timebase)+1
 7168 22ae 90E0      		ldi r25,lo8(0)
 7169               	.LVL433:
 7170 22b0 2DE0      		ldi r18,lo8(13)
 7171 22b2 30E0      		ldi r19,hi8(13)
 7172 22b4 DC01      		movw r26,r24
 7173 22b6 A29F      		mul r26,r18
 7174 22b8 C001      		movw r24,r0
 7175 22ba A39F      		mul r26,r19
 7176 22bc 900D      		add r25,r0
 7177 22be B29F      		mul r27,r18
 7178 22c0 900D      		add r25,r0
 7179 22c2 1124      		clr r1
 7180               	.LVL434:
 7181 22c4 E80F      		add r30,r24
 7182 22c6 F91F      		adc r31,r25
 7183 22c8 EC59      		subi r30,lo8(-(100))
 7184 22ca FF4F      		sbci r31,hi8(-(100))
 7185 22cc 4083      		st Z,r20
 7186 22ce 5183      		std Z+1,r21
 7187 22d0 6283      		std Z+2,r22
 7188 22d2 7383      		std Z+3,r23
 7189               	/* epilogue start */
 7190               	.LM664:
 7191 22d4 0895      		ret
 7192               	.LFE121:
 7194               	.global	Timebase_DownCounter_Get_EndValue
 7196               	Timebase_DownCounter_Get_EndValue:
 7197               	.LFB122:
 7198               	.LM665:
 7199               	.LVL435:
 7200               	/* prologue: function */
 7201               	/* frame size = 0 */
 7202               	.LM666:
 7203 22d6 E091 0000 		lds r30,Timebase
 7204 22da F091 0000 		lds r31,(Timebase)+1
 7205 22de 90E0      		ldi r25,lo8(0)
 7206               	.LVL436:
 7207 22e0 2DE0      		ldi r18,lo8(13)
 7208 22e2 30E0      		ldi r19,hi8(13)
 7209 22e4 AC01      		movw r20,r24
 7210 22e6 429F      		mul r20,r18
 7211 22e8 C001      		movw r24,r0
 7212 22ea 439F      		mul r20,r19
 7213 22ec 900D      		add r25,r0
 7214 22ee 529F      		mul r21,r18
 7215 22f0 900D      		add r25,r0
 7216 22f2 1124      		clr r1
 7217               	.LVL437:
 7218 22f4 E80F      		add r30,r24
 7219 22f6 F91F      		adc r31,r25
 7220 22f8 E05A      		subi r30,lo8(-(96))
 7221 22fa FF4F      		sbci r31,hi8(-(96))
 7222 22fc 6081      		ld r22,Z
 7223 22fe 7181      		ldd r23,Z+1
 7224               	.LM667:
 7225 2300 8281      		ldd r24,Z+2
 7226 2302 9381      		ldd r25,Z+3
 7227               	.LVL438:
 7228               	/* epilogue start */
 7229 2304 0895      		ret
 7230               	.LFE122:
 7232               	.global	Timebase_DownCounter_Set_EndValue
 7234               	Timebase_DownCounter_Set_EndValue:
 7235               	.LFB123:
 7236               	.LM668:
 7237               	.LVL439:
 7238               	/* prologue: function */
 7239               	/* frame size = 0 */
 7240               	.LM669:
 7241 2306 E091 0000 		lds r30,Timebase
 7242 230a F091 0000 		lds r31,(Timebase)+1
 7243 230e 90E0      		ldi r25,lo8(0)
 7244               	.LVL440:
 7245 2310 2DE0      		ldi r18,lo8(13)
 7246 2312 30E0      		ldi r19,hi8(13)
 7247 2314 DC01      		movw r26,r24
 7248 2316 A29F      		mul r26,r18
 7249 2318 C001      		movw r24,r0
 7250 231a A39F      		mul r26,r19
 7251 231c 900D      		add r25,r0
 7252 231e B29F      		mul r27,r18
 7253 2320 900D      		add r25,r0
 7254 2322 1124      		clr r1
 7255               	.LVL441:
 7256 2324 E80F      		add r30,r24
 7257 2326 F91F      		adc r31,r25
 7258 2328 E05A      		subi r30,lo8(-(96))
 7259 232a FF4F      		sbci r31,hi8(-(96))
 7260 232c 4083      		st Z,r20
 7261 232e 5183      		std Z+1,r21
 7262 2330 6283      		std Z+2,r22
 7263 2332 7383      		std Z+3,r23
 7264               	/* epilogue start */
 7265               	.LM670:
 7266 2334 0895      		ret
 7267               	.LFE123:
 7269               	.global	Timebase_DownCounter_Get_PeriodValue
 7271               	Timebase_DownCounter_Get_PeriodValue:
 7272               	.LFB124:
 7273               	.LM671:
 7274               	.LVL442:
 7275               	/* prologue: function */
 7276               	/* frame size = 0 */
 7277               	.LM672:
 7278 2336 E091 0000 		lds r30,Timebase
 7279 233a F091 0000 		lds r31,(Timebase)+1
 7280 233e 90E0      		ldi r25,lo8(0)
 7281               	.LVL443:
 7282 2340 2DE0      		ldi r18,lo8(13)
 7283 2342 30E0      		ldi r19,hi8(13)
 7284 2344 AC01      		movw r20,r24
 7285 2346 429F      		mul r20,r18
 7286 2348 C001      		movw r24,r0
 7287 234a 439F      		mul r20,r19
 7288 234c 900D      		add r25,r0
 7289 234e 529F      		mul r21,r18
 7290 2350 900D      		add r25,r0
 7291 2352 1124      		clr r1
 7292               	.LVL444:
 7293 2354 E80F      		add r30,r24
 7294 2356 F91F      		adc r31,r25
 7295 2358 E859      		subi r30,lo8(-(104))
 7296 235a FF4F      		sbci r31,hi8(-(104))
 7297 235c 6081      		ld r22,Z
 7298 235e 7181      		ldd r23,Z+1
 7299               	.LM673:
 7300 2360 8281      		ldd r24,Z+2
 7301 2362 9381      		ldd r25,Z+3
 7302               	.LVL445:
 7303               	/* epilogue start */
 7304 2364 0895      		ret
 7305               	.LFE124:
 7307               	.global	Timebase_DownCounter_Set_PeriodValue
 7309               	Timebase_DownCounter_Set_PeriodValue:
 7310               	.LFB125:
 7311               	.LM674:
 7312               	.LVL446:
 7313               	/* prologue: function */
 7314               	/* frame size = 0 */
 7315 2366 E091 0000 		lds r30,Timebase
 7316 236a F091 0000 		lds r31,(Timebase)+1
 7317 236e 282F      		mov r18,r24
 7318 2370 30E0      		ldi r19,lo8(0)
 7319               	.LVL447:
 7320               	.LM675:
 7321 2372 77FF      		sbrs r23,7
 7322 2374 00C0      		rjmp .L335
 7323               	.LVL448:
 7324               	.LM676:
 7325 2376 8DE0      		ldi r24,lo8(13)
 7326 2378 90E0      		ldi r25,hi8(13)
 7327 237a AC01      		movw r20,r24
 7328               	.LVL449:
 7329 237c 249F      		mul r18,r20
 7330 237e C001      		movw r24,r0
 7331 2380 259F      		mul r18,r21
 7332 2382 900D      		add r25,r0
 7333 2384 349F      		mul r19,r20
 7334 2386 900D      		add r25,r0
 7335 2388 1124      		clr r1
 7336 238a E80F      		add r30,r24
 7337 238c F91F      		adc r31,r25
 7338 238e E859      		subi r30,lo8(-(104))
 7339 2390 FF4F      		sbci r31,hi8(-(104))
 7340 2392 1082      		st Z,__zero_reg__
 7341 2394 1182      		std Z+1,__zero_reg__
 7342 2396 1282      		std Z+2,__zero_reg__
 7343 2398 1382      		std Z+3,__zero_reg__
 7344 239a 0895      		ret
 7345               	.LVL450:
 7346               	.L335:
 7347               	.LM677:
 7348 239c 8DE0      		ldi r24,lo8(13)
 7349 239e 90E0      		ldi r25,hi8(13)
 7350 23a0 DC01      		movw r26,r24
 7351 23a2 2A9F      		mul r18,r26
 7352 23a4 C001      		movw r24,r0
 7353 23a6 2B9F      		mul r18,r27
 7354 23a8 900D      		add r25,r0
 7355 23aa 3A9F      		mul r19,r26
 7356 23ac 900D      		add r25,r0
 7357 23ae 1124      		clr r1
 7358 23b0 E80F      		add r30,r24
 7359 23b2 F91F      		adc r31,r25
 7360 23b4 E859      		subi r30,lo8(-(104))
 7361 23b6 FF4F      		sbci r31,hi8(-(104))
 7362 23b8 4083      		st Z,r20
 7363 23ba 5183      		std Z+1,r21
 7364 23bc 6283      		std Z+2,r22
 7365 23be 7383      		std Z+3,r23
 7366 23c0 0895      		ret
 7367               	.LFE125:
 7369               	.global	Timebase_DownCounter_Get_Period_Flag
 7371               	Timebase_DownCounter_Get_Period_Flag:
 7372               	.LFB126:
 7373               	.LM678:
 7374               	.LVL451:
 7375               	/* prologue: function */
 7376               	/* frame size = 0 */
 7377               	.LM679:
 7378 23c2 E091 0000 		lds r30,Timebase
 7379 23c6 F091 0000 		lds r31,(Timebase)+1
 7380 23ca 90E0      		ldi r25,lo8(0)
 7381               	.LVL452:
 7382 23cc 2DE0      		ldi r18,lo8(13)
 7383 23ce 30E0      		ldi r19,hi8(13)
 7384 23d0 AC01      		movw r20,r24
 7385 23d2 429F      		mul r20,r18
 7386 23d4 C001      		movw r24,r0
 7387 23d6 439F      		mul r20,r19
 7388 23d8 900D      		add r25,r0
 7389 23da 529F      		mul r21,r18
 7390 23dc 900D      		add r25,r0
 7391 23de 1124      		clr r1
 7392               	.LVL453:
 7393 23e0 E80F      		add r30,r24
 7394 23e2 F91F      		adc r31,r25
 7395 23e4 E15A      		subi r30,lo8(-(95))
 7396 23e6 FF4F      		sbci r31,hi8(-(95))
 7397 23e8 8081      		ld r24,Z
 7398               	.LM680:
 7399 23ea 8170      		andi r24,lo8(1)
 7400               	/* epilogue start */
 7401 23ec 0895      		ret
 7402               	.LFE126:
 7404               	.global	Timebase_DownCounter_Set_Period_Flag
 7406               	Timebase_DownCounter_Set_Period_Flag:
 7407               	.LFB127:
 7408               	.LM681:
 7409               	.LVL454:
 7410               	/* prologue: function */
 7411               	/* frame size = 0 */
 7412               	.LM682:
 7413 23ee E091 0000 		lds r30,Timebase
 7414 23f2 F091 0000 		lds r31,(Timebase)+1
 7415 23f6 90E0      		ldi r25,lo8(0)
 7416               	.LVL455:
 7417 23f8 2DE0      		ldi r18,lo8(13)
 7418 23fa 30E0      		ldi r19,hi8(13)
 7419 23fc AC01      		movw r20,r24
 7420 23fe 429F      		mul r20,r18
 7421 2400 C001      		movw r24,r0
 7422 2402 439F      		mul r20,r19
 7423 2404 900D      		add r25,r0
 7424 2406 529F      		mul r21,r18
 7425 2408 900D      		add r25,r0
 7426 240a 1124      		clr r1
 7427               	.LVL456:
 7428 240c E80F      		add r30,r24
 7429 240e F91F      		adc r31,r25
 7430 2410 E15A      		subi r30,lo8(-(95))
 7431 2412 FF4F      		sbci r31,hi8(-(95))
 7432 2414 8081      		ld r24,Z
 7433 2416 8160      		ori r24,lo8(1)
 7434 2418 8083      		st Z,r24
 7435               	/* epilogue start */
 7436               	.LM683:
 7437 241a 0895      		ret
 7438               	.LFE127:
 7440               	.global	Timebase_DownCounter_Clear_Period_Flag
 7442               	Timebase_DownCounter_Clear_Period_Flag:
 7443               	.LFB128:
 7444               	.LM684:
 7445               	.LVL457:
 7446               	/* prologue: function */
 7447               	/* frame size = 0 */
 7448               	.LM685:
 7449 241c E091 0000 		lds r30,Timebase
 7450 2420 F091 0000 		lds r31,(Timebase)+1
 7451 2424 90E0      		ldi r25,lo8(0)
 7452               	.LVL458:
 7453 2426 2DE0      		ldi r18,lo8(13)
 7454 2428 30E0      		ldi r19,hi8(13)
 7455 242a AC01      		movw r20,r24
 7456 242c 429F      		mul r20,r18
 7457 242e C001      		movw r24,r0
 7458 2430 439F      		mul r20,r19
 7459 2432 900D      		add r25,r0
 7460 2434 529F      		mul r21,r18
 7461 2436 900D      		add r25,r0
 7462 2438 1124      		clr r1
 7463               	.LVL459:
 7464 243a E80F      		add r30,r24
 7465 243c F91F      		adc r31,r25
 7466 243e E15A      		subi r30,lo8(-(95))
 7467 2440 FF4F      		sbci r31,hi8(-(95))
 7468 2442 8081      		ld r24,Z
 7469 2444 8E7F      		andi r24,lo8(-2)
 7470 2446 8083      		st Z,r24
 7471               	/* epilogue start */
 7472               	.LM686:
 7473 2448 0895      		ret
 7474               	.LFE128:
 7476               	.global	Timebase_DownCounter_Reset
 7478               	Timebase_DownCounter_Reset:
 7479               	.LFB129:
 7480               	.LM687:
 7481               	.LVL460:
 7482               	/* prologue: function */
 7483               	/* frame size = 0 */
 7484               	.LBB980:
 7485               	.LBB981:
 7486               	.LM688:
 7487 244a E091 0000 		lds r30,Timebase
 7488 244e F091 0000 		lds r31,(Timebase)+1
 7489 2452 90E0      		ldi r25,lo8(0)
 7490 2454 2DE0      		ldi r18,lo8(13)
 7491 2456 30E0      		ldi r19,hi8(13)
 7492 2458 AC01      		movw r20,r24
 7493               	.LVL461:
 7494 245a 429F      		mul r20,r18
 7495 245c C001      		movw r24,r0
 7496 245e 439F      		mul r20,r19
 7497 2460 900D      		add r25,r0
 7498 2462 529F      		mul r21,r18
 7499 2464 900D      		add r25,r0
 7500 2466 1124      		clr r1
 7501 2468 E80F      		add r30,r24
 7502 246a F91F      		adc r31,r25
 7503 246c E05A      		subi r30,lo8(-(96))
 7504 246e FF4F      		sbci r31,hi8(-(96))
 7505 2470 1192      		st Z+,__zero_reg__
 7506 2472 1192      		st Z+,__zero_reg__
 7507 2474 1192      		st Z+,__zero_reg__
 7508 2476 1192      		st Z+,__zero_reg__
 7509               	.LBE981:
 7510               	.LBE980:
 7511               	.LBB982:
 7512               	.LBB983:
 7513               	.LM689:
 7514 2478 1082      		st Z,__zero_reg__
 7515 247a 1182      		std Z+1,__zero_reg__
 7516 247c 1282      		std Z+2,__zero_reg__
 7517 247e 1382      		std Z+3,__zero_reg__
 7518               	.LBE983:
 7519               	.LBE982:
 7520               	.LBB984:
 7521               	.LBB985:
 7522               	.LM690:
 7523 2480 3597      		sbiw r30,5
 7524 2482 8081      		ld r24,Z
 7525               	.LBE985:
 7526               	.LBE984:
 7527               	.LBB986:
 7528               	.LBB987:
 7529               	.LM691:
 7530 2484 807E      		andi r24,lo8(-32)
 7531 2486 8083      		st Z,r24
 7532               	/* epilogue start */
 7533               	.LBE987:
 7534               	.LBE986:
 7535               	.LM692:
 7536 2488 0895      		ret
 7537               	.LFE129:
 7539               	.global	Timebase_DownCounter_Clear_All_Flags
 7541               	Timebase_DownCounter_Clear_All_Flags:
 7542               	.LFB130:
 7543               	.LM693:
 7544               	.LVL462:
 7545               	/* prologue: function */
 7546               	/* frame size = 0 */
 7547               	.LBB988:
 7548               	.LBB989:
 7549               	.LBB990:
 7550               	.LBB991:
 7551               	.LM694:
 7552 248a E091 0000 		lds r30,Timebase
 7553 248e F091 0000 		lds r31,(Timebase)+1
 7554 2492 90E0      		ldi r25,lo8(0)
 7555 2494 2DE0      		ldi r18,lo8(13)
 7556 2496 30E0      		ldi r19,hi8(13)
 7557 2498 AC01      		movw r20,r24
 7558               	.LVL463:
 7559 249a 429F      		mul r20,r18
 7560 249c C001      		movw r24,r0
 7561 249e 439F      		mul r20,r19
 7562 24a0 900D      		add r25,r0
 7563 24a2 529F      		mul r21,r18
 7564 24a4 900D      		add r25,r0
 7565 24a6 1124      		clr r1
 7566 24a8 E80F      		add r30,r24
 7567 24aa F91F      		adc r31,r25
 7568 24ac E05A      		subi r30,lo8(-(96))
 7569 24ae FF4F      		sbci r31,hi8(-(96))
 7570 24b0 1192      		st Z+,__zero_reg__
 7571 24b2 1192      		st Z+,__zero_reg__
 7572 24b4 1192      		st Z+,__zero_reg__
 7573 24b6 1192      		st Z+,__zero_reg__
 7574               	.LBE991:
 7575               	.LBE990:
 7576               	.LBB992:
 7577               	.LBB993:
 7578               	.LM695:
 7579 24b8 1082      		st Z,__zero_reg__
 7580 24ba 1182      		std Z+1,__zero_reg__
 7581 24bc 1282      		std Z+2,__zero_reg__
 7582 24be 1382      		std Z+3,__zero_reg__
 7583               	.LBE993:
 7584               	.LBE992:
 7585               	.LBB994:
 7586               	.LBB995:
 7587               	.LM696:
 7588 24c0 3597      		sbiw r30,5
 7589 24c2 8081      		ld r24,Z
 7590               	.LBE995:
 7591               	.LBE994:
 7592               	.LBB996:
 7593               	.LBB997:
 7594               	.LM697:
 7595 24c4 807E      		andi r24,lo8(-32)
 7596 24c6 8083      		st Z,r24
 7597               	/* epilogue start */
 7598               	.LBE997:
 7599               	.LBE996:
 7600               	.LBE989:
 7601               	.LBE988:
 7602               	.LM698:
 7603 24c8 0895      		ret
 7604               	.LFE130:
 7606               	.global	Timebase_DownCounter_Start
 7608               	Timebase_DownCounter_Start:
 7609               	.LFB131:
 7610               	.LM699:
 7611               	.LVL464:
 7612               	/* prologue: function */
 7613               	/* frame size = 0 */
 7614               	.LBB998:
 7615               	.LBB999:
 7616               	.LM700:
 7617 24ca E091 0000 		lds r30,Timebase
 7618 24ce F091 0000 		lds r31,(Timebase)+1
 7619 24d2 90E0      		ldi r25,lo8(0)
 7620               	.LBE999:
 7621               	.LBE998:
 7622               	.LM701:
 7623 24d4 2DE0      		ldi r18,lo8(13)
 7624 24d6 30E0      		ldi r19,hi8(13)
 7625 24d8 AC01      		movw r20,r24
 7626               	.LVL465:
 7627 24da 429F      		mul r20,r18
 7628 24dc C001      		movw r24,r0
 7629 24de 439F      		mul r20,r19
 7630 24e0 900D      		add r25,r0
 7631 24e2 529F      		mul r21,r18
 7632 24e4 900D      		add r25,r0
 7633 24e6 1124      		clr r1
 7634 24e8 E80F      		add r30,r24
 7635 24ea F91F      		adc r31,r25
 7636 24ec E15A      		subi r30,lo8(-(95))
 7637 24ee FF4F      		sbci r31,hi8(-(95))
 7638 24f0 9081      		ld r25,Z
 7639 24f2 892F      		mov r24,r25
 7640 24f4 8695      		lsr r24
 7641 24f6 8F70      		andi r24,lo8(15)
 7642 24f8 8130      		cpi r24,lo8(1)
 7643 24fa 01F0      		breq .L350
 7644               	.LBB1000:
 7645               	.LBB1001:
 7646               	.LM702:
 7647 24fc 917E      		andi r25,lo8(-31)
 7648 24fe 9260      		ori r25,lo8(2)
 7649 2500 9083      		st Z,r25
 7650               	.L350:
 7651 2502 0895      		ret
 7652               	.LBE1001:
 7653               	.LBE1000:
 7654               	.LFE131:
 7656               	.global	Timebase_DownCounter_Stop
 7658               	Timebase_DownCounter_Stop:
 7659               	.LFB132:
 7660               	.LM703:
 7661               	.LVL466:
 7662               	/* prologue: function */
 7663               	/* frame size = 0 */
 7664               	.LBB1002:
 7665               	.LBB1003:
 7666               	.LM704:
 7667 2504 E091 0000 		lds r30,Timebase
 7668 2508 F091 0000 		lds r31,(Timebase)+1
 7669 250c 90E0      		ldi r25,lo8(0)
 7670               	.LBE1003:
 7671               	.LBE1002:
 7672               	.LM705:
 7673 250e 2DE0      		ldi r18,lo8(13)
 7674 2510 30E0      		ldi r19,hi8(13)
 7675 2512 AC01      		movw r20,r24
 7676               	.LVL467:
 7677 2514 429F      		mul r20,r18
 7678 2516 C001      		movw r24,r0
 7679 2518 439F      		mul r20,r19
 7680 251a 900D      		add r25,r0
 7681 251c 529F      		mul r21,r18
 7682 251e 900D      		add r25,r0
 7683 2520 1124      		clr r1
 7684 2522 E80F      		add r30,r24
 7685 2524 F91F      		adc r31,r25
 7686 2526 E15A      		subi r30,lo8(-(95))
 7687 2528 FF4F      		sbci r31,hi8(-(95))
 7688 252a 9081      		ld r25,Z
 7689 252c 892F      		mov r24,r25
 7690 252e 8695      		lsr r24
 7691 2530 8F70      		andi r24,lo8(15)
 7692 2532 8230      		cpi r24,lo8(2)
 7693 2534 01F0      		breq .L353
 7694               	.LBB1004:
 7695               	.LBB1005:
 7696               	.LM706:
 7697 2536 917E      		andi r25,lo8(-31)
 7698 2538 9460      		ori r25,lo8(4)
 7699 253a 9083      		st Z,r25
 7700               	.L353:
 7701 253c 0895      		ret
 7702               	.LBE1005:
 7703               	.LBE1004:
 7704               	.LFE132:
 7706               	.global	Timebase_DownCounter_Set_Securely
 7708               	Timebase_DownCounter_Set_Securely:
 7709               	.LFB133:
 7710               	.LM707:
 7711               	.LVL468:
 7712 253e CF93      		push r28
 7713 2540 DF93      		push r29
 7714               	/* prologue: function */
 7715               	/* frame size = 0 */
 7716               	.LBB1006:
 7717               	.LBB1007:
 7718               	.LM708:
 7719 2542 A091 0000 		lds r26,Timebase
 7720 2546 B091 0000 		lds r27,(Timebase)+1
 7721 254a 90E0      		ldi r25,lo8(0)
 7722               	.LBE1007:
 7723               	.LBE1006:
 7724               	.LM709:
 7725 254c 2DE0      		ldi r18,lo8(13)
 7726 254e 30E0      		ldi r19,hi8(13)
 7727 2550 829F      		mul r24,r18
 7728 2552 F001      		movw r30,r0
 7729 2554 839F      		mul r24,r19
 7730 2556 F00D      		add r31,r0
 7731 2558 929F      		mul r25,r18
 7732 255a F00D      		add r31,r0
 7733 255c 1124      		clr r1
 7734               	.LVL469:
 7735 255e EA0F      		add r30,r26
 7736 2560 FB1F      		adc r31,r27
 7737 2562 EF01      		movw r28,r30
 7738 2564 C15A      		subi r28,lo8(-(95))
 7739 2566 DF4F      		sbci r29,hi8(-(95))
 7740 2568 8881      		ld r24,Y
 7741 256a 8695      		lsr r24
 7742 256c 8F70      		andi r24,lo8(15)
 7743 256e 01F4      		brne .L356
 7744               	.LBB1008:
 7745               	.LBB1009:
 7746               	.LM710:
 7747 2570 EC59      		subi r30,lo8(-(100))
 7748 2572 FF4F      		sbci r31,hi8(-(100))
 7749 2574 4083      		st Z,r20
 7750 2576 5183      		std Z+1,r21
 7751 2578 6283      		std Z+2,r22
 7752 257a 7383      		std Z+3,r23
 7753               	.LBE1009:
 7754               	.LBE1008:
 7755               	.LBB1010:
 7756               	.LBB1011:
 7757               	.LM711:
 7758 257c 1A96      		adiw r26,10
 7759 257e 8D91      		ld r24,X+
 7760 2580 9D91      		ld r25,X+
 7761 2582 0D90      		ld __tmp_reg__,X+
 7762 2584 BC91      		ld r27,X
 7763 2586 A02D      		mov r26,__tmp_reg__
 7764               	.LBE1011:
 7765               	.LBE1010:
 7766               	.LBB1012:
 7767               	.LBB1013:
 7768               	.LM712:
 7769 2588 840F      		add r24,r20
 7770 258a 951F      		adc r25,r21
 7771 258c A61F      		adc r26,r22
 7772 258e B71F      		adc r27,r23
 7773 2590 B293      		st -Z,r27
 7774 2592 A293      		st -Z,r26
 7775 2594 9293      		st -Z,r25
 7776 2596 8293      		st -Z,r24
 7777               	.LBE1013:
 7778               	.LBE1012:
 7779               	.LBB1014:
 7780               	.LBB1015:
 7781               	.LM713:
 7782 2598 9881      		ld r25,Y
 7783 259a 892F      		mov r24,r25
 7784 259c 8695      		lsr r24
 7785 259e 8F70      		andi r24,lo8(15)
 7786 25a0 8130      		cpi r24,lo8(1)
 7787 25a2 01F0      		breq .L356
 7788               	.LBB1016:
 7789               	.LBB1017:
 7790               	.LM714:
 7791 25a4 917E      		andi r25,lo8(-31)
 7792 25a6 9260      		ori r25,lo8(2)
 7793 25a8 9883      		st Y,r25
 7794               	.L356:
 7795               	/* epilogue start */
 7796               	.LBE1017:
 7797               	.LBE1016:
 7798               	.LBE1015:
 7799               	.LBE1014:
 7800               	.LM715:
 7801 25aa DF91      		pop r29
 7802 25ac CF91      		pop r28
 7803 25ae 0895      		ret
 7804               	.LFE133:
 7806               	.global	Timebase_DownCounter_Set_Forcefully
 7808               	Timebase_DownCounter_Set_Forcefully:
 7809               	.LFB134:
 7810               	.LM716:
 7811               	.LVL470:
 7812 25b0 CF93      		push r28
 7813 25b2 DF93      		push r29
 7814               	/* prologue: function */
 7815               	/* frame size = 0 */
 7816               	.LBB1018:
 7817               	.LBB1019:
 7818               	.LBB1020:
 7819               	.LBB1021:
 7820               	.LM717:
 7821 25b4 E091 0000 		lds r30,Timebase
 7822 25b8 F091 0000 		lds r31,(Timebase)+1
 7823 25bc A82F      		mov r26,r24
 7824 25be B0E0      		ldi r27,lo8(0)
 7825 25c0 2DE0      		ldi r18,lo8(13)
 7826 25c2 30E0      		ldi r19,hi8(13)
 7827 25c4 E901      		movw r28,r18
 7828 25c6 AC9F      		mul r26,r28
 7829 25c8 9001      		movw r18,r0
 7830 25ca AD9F      		mul r26,r29
 7831 25cc 300D      		add r19,r0
 7832 25ce BC9F      		mul r27,r28
 7833 25d0 300D      		add r19,r0
 7834 25d2 1124      		clr r1
 7835 25d4 E20F      		add r30,r18
 7836 25d6 F31F      		adc r31,r19
 7837 25d8 E05A      		subi r30,lo8(-(96))
 7838 25da FF4F      		sbci r31,hi8(-(96))
 7839 25dc 1192      		st Z+,__zero_reg__
 7840 25de 1192      		st Z+,__zero_reg__
 7841 25e0 1192      		st Z+,__zero_reg__
 7842 25e2 1192      		st Z+,__zero_reg__
 7843               	.LBE1021:
 7844               	.LBE1020:
 7845               	.LBB1022:
 7846               	.LBB1023:
 7847               	.LM718:
 7848 25e4 1082      		st Z,__zero_reg__
 7849 25e6 1182      		std Z+1,__zero_reg__
 7850 25e8 1282      		std Z+2,__zero_reg__
 7851 25ea 1382      		std Z+3,__zero_reg__
 7852               	.LBE1023:
 7853               	.LBE1022:
 7854               	.LBB1024:
 7855               	.LBB1025:
 7856               	.LM719:
 7857 25ec 3597      		sbiw r30,5
 7858 25ee 9081      		ld r25,Z
 7859               	.LBE1025:
 7860               	.LBE1024:
 7861               	.LBB1026:
 7862               	.LBB1027:
 7863               	.LM720:
 7864 25f0 907E      		andi r25,lo8(-32)
 7865 25f2 9083      		st Z,r25
 7866               	.LBE1027:
 7867               	.LBE1026:
 7868               	.LBE1019:
 7869               	.LBE1018:
 7870               	.LM721:
 7871 25f4 0E94 0000 		call Timebase_DownCounter_Set_Securely
 7872               	.LVL471:
 7873               	/* epilogue start */
 7874               	.LM722:
 7875 25f8 DF91      		pop r29
 7876 25fa CF91      		pop r28
 7877 25fc 0895      		ret
 7878               	.LFE134:
 7880               	.global	Timebase_DownCounter_Update
 7882               	Timebase_DownCounter_Update:
 7883               	.LFB135:
 7884               	.LM723:
 7885               	.LVL472:
 7886 25fe 0F93      		push r16
 7887 2600 1F93      		push r17
 7888 2602 CF93      		push r28
 7889 2604 DF93      		push r29
 7890               	/* prologue: function */
 7891               	/* frame size = 0 */
 7892               	.LBB1028:
 7893               	.LBB1029:
 7894               	.LM724:
 7895 2606 A091 0000 		lds r26,Timebase
 7896 260a B091 0000 		lds r27,(Timebase)+1
 7897 260e 90E0      		ldi r25,lo8(0)
 7898 2610 2DE0      		ldi r18,lo8(13)
 7899 2612 30E0      		ldi r19,hi8(13)
 7900 2614 829F      		mul r24,r18
 7901 2616 F001      		movw r30,r0
 7902 2618 839F      		mul r24,r19
 7903 261a F00D      		add r31,r0
 7904 261c 929F      		mul r25,r18
 7905 261e F00D      		add r31,r0
 7906 2620 1124      		clr r1
 7907               	.LVL473:
 7908 2622 EA0F      		add r30,r26
 7909 2624 FB1F      		adc r31,r27
 7910 2626 8F01      		movw r16,r30
 7911 2628 015A      		subi r16,lo8(-(95))
 7912 262a 1F4F      		sbci r17,hi8(-(95))
 7913 262c E801      		movw r28,r16
 7914 262e 8881      		ld r24,Y
 7915 2630 8695      		lsr r24
 7916 2632 8F70      		andi r24,lo8(15)
 7917               	.LBE1029:
 7918               	.LBE1028:
 7919               	.LM725:
 7920 2634 8130      		cpi r24,lo8(1)
 7921 2636 01F4      		brne .L360
 7922               	.LBB1030:
 7923               	.LBB1031:
 7924               	.LM726:
 7925 2638 1A96      		adiw r26,10
 7926 263a 2D91      		ld r18,X+
 7927 263c 3D91      		ld r19,X+
 7928 263e 4D91      		ld r20,X+
 7929 2640 5C91      		ld r21,X
 7930 2642 1D97      		sbiw r26,10+3
 7931               	.LBE1031:
 7932               	.LBE1030:
 7933               	.LM727:
 7934 2644 BF01      		movw r22,r30
 7935 2646 605A      		subi r22,lo8(-(96))
 7936 2648 7F4F      		sbci r23,hi8(-(96))
 7937 264a EB01      		movw r28,r22
 7938 264c 8881      		ld r24,Y
 7939 264e 9981      		ldd r25,Y+1
 7940 2650 AA81      		ldd r26,Y+2
 7941 2652 BB81      		ldd r27,Y+3
 7942 2654 821B      		sub r24,r18
 7943 2656 930B      		sbc r25,r19
 7944 2658 A40B      		sbc r26,r20
 7945 265a B50B      		sbc r27,r21
 7946               	.LBB1032:
 7947               	.LBB1033:
 7948               	.LM728:
 7949 265c EC59      		subi r30,lo8(-(100))
 7950 265e FF4F      		sbci r31,hi8(-(100))
 7951 2660 8083      		st Z,r24
 7952 2662 9183      		std Z+1,r25
 7953 2664 A283      		std Z+2,r26
 7954 2666 B383      		std Z+3,r27
 7955               	.LBE1033:
 7956               	.LBE1032:
 7957               	.LM729:
 7958 2668 1816      		cp __zero_reg__,r24
 7959 266a 1906      		cpc __zero_reg__,r25
 7960 266c 1A06      		cpc __zero_reg__,r26
 7961 266e 1B06      		cpc __zero_reg__,r27
 7962 2670 04F0      		brlt .L362
 7963               	.LBB1034:
 7964               	.LBB1035:
 7965               	.LBB1036:
 7966               	.LBB1037:
 7967               	.LM730:
 7968 2672 DB01      		movw r26,r22
 7969 2674 1D92      		st X+,__zero_reg__
 7970 2676 1D92      		st X+,__zero_reg__
 7971 2678 1D92      		st X+,__zero_reg__
 7972 267a 1C92      		st X,__zero_reg__
 7973 267c 1397      		sbiw r26,3
 7974               	.LBE1037:
 7975               	.LBE1036:
 7976               	.LBB1038:
 7977               	.LBB1039:
 7978               	.LM731:
 7979 267e 1082      		st Z,__zero_reg__
 7980 2680 1182      		std Z+1,__zero_reg__
 7981 2682 1282      		std Z+2,__zero_reg__
 7982 2684 1382      		std Z+3,__zero_reg__
 7983               	.LBE1039:
 7984               	.LBE1038:
 7985               	.LBB1040:
 7986               	.LBB1041:
 7987               	.LM732:
 7988 2686 E801      		movw r28,r16
 7989 2688 8881      		ld r24,Y
 7990               	.LBE1041:
 7991               	.LBE1040:
 7992               	.LBE1035:
 7993               	.LBE1034:
 7994               	.LBB1042:
 7995               	.LBB1043:
 7996               	.LM733:
 7997 268a 807E      		andi r24,lo8(-32)
 7998 268c 8860      		ori r24,lo8(8)
 7999 268e 8883      		st Y,r24
 8000 2690 00C0      		rjmp .L362
 8001               	.L360:
 8002               	.LBE1043:
 8003               	.LBE1042:
 8004               	.LM734:
 8005 2692 8230      		cpi r24,lo8(2)
 8006 2694 01F4      		brne .L362
 8007               	.LBB1044:
 8008               	.LBB1045:
 8009               	.LM735:
 8010 2696 1A96      		adiw r26,10
 8011 2698 8D91      		ld r24,X+
 8012 269a 9D91      		ld r25,X+
 8013 269c 0D90      		ld __tmp_reg__,X+
 8014 269e BC91      		ld r27,X
 8015 26a0 A02D      		mov r26,__tmp_reg__
 8016               	.LBE1045:
 8017               	.LBE1044:
 8018               	.LBB1046:
 8019               	.LBB1047:
 8020               	.LM736:
 8021 26a2 EC59      		subi r30,lo8(-(100))
 8022 26a4 FF4F      		sbci r31,hi8(-(100))
 8023 26a6 2081      		ld r18,Z
 8024 26a8 3181      		ldd r19,Z+1
 8025 26aa 4281      		ldd r20,Z+2
 8026 26ac 5381      		ldd r21,Z+3
 8027 26ae 820F      		add r24,r18
 8028 26b0 931F      		adc r25,r19
 8029 26b2 A41F      		adc r26,r20
 8030 26b4 B51F      		adc r27,r21
 8031 26b6 B293      		st -Z,r27
 8032 26b8 A293      		st -Z,r26
 8033 26ba 9293      		st -Z,r25
 8034 26bc 8293      		st -Z,r24
 8035               	.L362:
 8036               	/* epilogue start */
 8037               	.LBE1047:
 8038               	.LBE1046:
 8039               	.LM737:
 8040 26be DF91      		pop r29
 8041 26c0 CF91      		pop r28
 8042 26c2 1F91      		pop r17
 8043 26c4 0F91      		pop r16
 8044 26c6 0895      		ret
 8045               	.LFE135:
 8047               	.global	Timebase_DownCounter_Expired
 8049               	Timebase_DownCounter_Expired:
 8050               	.LFB136:
 8051               	.LM738:
 8052               	.LVL474:
 8053               	/* prologue: function */
 8054               	/* frame size = 0 */
 8055               	.LM739:
 8056 26c8 40E0      		ldi r20,lo8(0)
 8057 26ca E091 0000 		lds r30,Timebase
 8058 26ce F091 0000 		lds r31,(Timebase)+1
 8059 26d2 90E0      		ldi r25,lo8(0)
 8060               	.LVL475:
 8061 26d4 2DE0      		ldi r18,lo8(13)
 8062 26d6 30E0      		ldi r19,hi8(13)
 8063 26d8 BC01      		movw r22,r24
 8064 26da 629F      		mul r22,r18
 8065 26dc C001      		movw r24,r0
 8066 26de 639F      		mul r22,r19
 8067 26e0 900D      		add r25,r0
 8068 26e2 729F      		mul r23,r18
 8069 26e4 900D      		add r25,r0
 8070 26e6 1124      		clr r1
 8071               	.LVL476:
 8072 26e8 E80F      		add r30,r24
 8073 26ea F91F      		adc r31,r25
 8074 26ec E15A      		subi r30,lo8(-(95))
 8075 26ee FF4F      		sbci r31,hi8(-(95))
 8076 26f0 8081      		ld r24,Z
 8077 26f2 8695      		lsr r24
 8078 26f4 8F70      		andi r24,lo8(15)
 8079 26f6 8430      		cpi r24,lo8(4)
 8080 26f8 01F4      		brne .L364
 8081 26fa 41E0      		ldi r20,lo8(1)
 8082               	.L364:
 8083               	.LM740:
 8084 26fc 842F      		mov r24,r20
 8085               	/* epilogue start */
 8086 26fe 0895      		ret
 8087               	.LFE136:
 8089               	.global	Timebase_DownCounter_Expired_Event
 8091               	Timebase_DownCounter_Expired_Event:
 8092               	.LFB137:
 8093               	.LM741:
 8094               	.LVL477:
 8095               	/* prologue: function */
 8096               	/* frame size = 0 */
 8097               	.LBB1048:
 8098               	.LBB1049:
 8099               	.LM742:
 8100 2700 E091 0000 		lds r30,Timebase
 8101 2704 F091 0000 		lds r31,(Timebase)+1
 8102 2708 90E0      		ldi r25,lo8(0)
 8103               	.LBE1049:
 8104               	.LBE1048:
 8105               	.LM743:
 8106 270a 2DE0      		ldi r18,lo8(13)
 8107 270c 30E0      		ldi r19,hi8(13)
 8108 270e AC01      		movw r20,r24
 8109               	.LVL478:
 8110 2710 429F      		mul r20,r18
 8111 2712 C001      		movw r24,r0
 8112 2714 439F      		mul r20,r19
 8113 2716 900D      		add r25,r0
 8114 2718 529F      		mul r21,r18
 8115 271a 900D      		add r25,r0
 8116 271c 1124      		clr r1
 8117 271e E80F      		add r30,r24
 8118 2720 F91F      		adc r31,r25
 8119 2722 DF01      		movw r26,r30
 8120 2724 A15A      		subi r26,lo8(-(95))
 8121 2726 BF4F      		sbci r27,hi8(-(95))
 8122 2728 8C91      		ld r24,X
 8123 272a 8695      		lsr r24
 8124 272c 8F70      		andi r24,lo8(15)
 8125 272e 8430      		cpi r24,lo8(4)
 8126 2730 01F0      		breq .L367
 8127 2732 80E0      		ldi r24,lo8(0)
 8128 2734 0895      		ret
 8129               	.L367:
 8130               	.LBB1050:
 8131               	.LBB1051:
 8132               	.LBB1052:
 8133               	.LBB1053:
 8134               	.LBB1054:
 8135               	.LBB1055:
 8136               	.LM744:
 8137 2736 E05A      		subi r30,lo8(-(96))
 8138 2738 FF4F      		sbci r31,hi8(-(96))
 8139 273a 1192      		st Z+,__zero_reg__
 8140 273c 1192      		st Z+,__zero_reg__
 8141 273e 1192      		st Z+,__zero_reg__
 8142 2740 1192      		st Z+,__zero_reg__
 8143               	.LBE1055:
 8144               	.LBE1054:
 8145               	.LBB1056:
 8146               	.LBB1057:
 8147               	.LM745:
 8148 2742 1082      		st Z,__zero_reg__
 8149 2744 1182      		std Z+1,__zero_reg__
 8150 2746 1282      		std Z+2,__zero_reg__
 8151 2748 1382      		std Z+3,__zero_reg__
 8152               	.LBE1057:
 8153               	.LBE1056:
 8154               	.LBB1058:
 8155               	.LBB1059:
 8156               	.LM746:
 8157 274a 8C91      		ld r24,X
 8158               	.LBE1059:
 8159               	.LBE1058:
 8160               	.LBB1060:
 8161               	.LBB1061:
 8162               	.LM747:
 8163 274c 807E      		andi r24,lo8(-32)
 8164 274e 8C93      		st X,r24
 8165 2750 81E0      		ldi r24,lo8(1)
 8166               	.LBE1061:
 8167               	.LBE1060:
 8168               	.LBE1053:
 8169               	.LBE1052:
 8170               	.LBE1051:
 8171               	.LBE1050:
 8172               	.LM748:
 8173 2752 0895      		ret
 8174               	.LFE137:
 8176               	.global	Timebase_DownCounter_Set_Period_Value_Securely
 8178               	Timebase_DownCounter_Set_Period_Value_Securely:
 8179               	.LFB138:
 8180               	.LM749:
 8181               	.LVL479:
 8182 2754 CF93      		push r28
 8183 2756 DF93      		push r29
 8184               	/* prologue: function */
 8185               	/* frame size = 0 */
 8186               	.LBB1062:
 8187               	.LBB1063:
 8188               	.LM750:
 8189 2758 C091 0000 		lds r28,Timebase
 8190 275c D091 0000 		lds r29,(Timebase)+1
 8191 2760 282F      		mov r18,r24
 8192 2762 30E0      		ldi r19,lo8(0)
 8193               	.LBE1063:
 8194               	.LBE1062:
 8195               	.LM751:
 8196 2764 8DE0      		ldi r24,lo8(13)
 8197 2766 90E0      		ldi r25,hi8(13)
 8198               	.LVL480:
 8199 2768 289F      		mul r18,r24
 8200 276a F001      		movw r30,r0
 8201 276c 299F      		mul r18,r25
 8202 276e F00D      		add r31,r0
 8203 2770 389F      		mul r19,r24
 8204 2772 F00D      		add r31,r0
 8205 2774 1124      		clr r1
 8206 2776 EC0F      		add r30,r28
 8207 2778 FD1F      		adc r31,r29
 8208 277a E15A      		subi r30,lo8(-(95))
 8209 277c FF4F      		sbci r31,hi8(-(95))
 8210 277e 8081      		ld r24,Z
 8211 2780 EF55      		subi r30,lo8(-(-95))
 8212 2782 F040      		sbci r31,hi8(-(-95))
 8213 2784 80FD      		sbrc r24,0
 8214 2786 00C0      		rjmp .L374
 8215               	.LM752:
 8216 2788 EC59      		subi r30,lo8(-(100))
 8217 278a FF4F      		sbci r31,hi8(-(100))
 8218 278c 8191      		ld r24,Z+
 8219 278e 9191      		ld r25,Z+
 8220 2790 A191      		ld r26,Z+
 8221 2792 B191      		ld r27,Z+
 8222 2794 841B      		sub r24,r20
 8223 2796 950B      		sbc r25,r21
 8224 2798 A60B      		sbc r26,r22
 8225 279a B70B      		sbc r27,r23
 8226               	.LBB1064:
 8227               	.LBB1065:
 8228               	.LM753:
 8229 279c B7FF      		sbrs r27,7
 8230 279e 00C0      		rjmp .L372
 8231               	.LM754:
 8232 27a0 1082      		st Z,__zero_reg__
 8233 27a2 1182      		std Z+1,__zero_reg__
 8234 27a4 1282      		std Z+2,__zero_reg__
 8235 27a6 1382      		std Z+3,__zero_reg__
 8236 27a8 00C0      		rjmp .L373
 8237               	.L372:
 8238               	.LM755:
 8239 27aa 8083      		st Z,r24
 8240 27ac 9183      		std Z+1,r25
 8241 27ae A283      		std Z+2,r26
 8242 27b0 B383      		std Z+3,r27
 8243               	.L373:
 8244               	.LBE1065:
 8245               	.LBE1064:
 8246               	.LBB1066:
 8247               	.LBB1067:
 8248               	.LM756:
 8249 27b2 8DE0      		ldi r24,lo8(13)
 8250 27b4 90E0      		ldi r25,hi8(13)
 8251 27b6 289F      		mul r18,r24
 8252 27b8 F001      		movw r30,r0
 8253 27ba 299F      		mul r18,r25
 8254 27bc F00D      		add r31,r0
 8255 27be 389F      		mul r19,r24
 8256 27c0 F00D      		add r31,r0
 8257 27c2 1124      		clr r1
 8258 27c4 EC0F      		add r30,r28
 8259 27c6 FD1F      		adc r31,r29
 8260 27c8 E15A      		subi r30,lo8(-(95))
 8261 27ca FF4F      		sbci r31,hi8(-(95))
 8262 27cc 8081      		ld r24,Z
 8263 27ce 8160      		ori r24,lo8(1)
 8264 27d0 8083      		st Z,r24
 8265               	.L374:
 8266               	/* epilogue start */
 8267               	.LBE1067:
 8268               	.LBE1066:
 8269               	.LM757:
 8270 27d2 DF91      		pop r29
 8271 27d4 CF91      		pop r28
 8272 27d6 0895      		ret
 8273               	.LFE138:
 8275               	.global	Timebase_DownCounter_Get_Remaining_Period_Value
 8277               	Timebase_DownCounter_Get_Remaining_Period_Value:
 8278               	.LFB139:
 8279               	.LM758:
 8280               	.LVL481:
 8281               	/* prologue: function */
 8282               	/* frame size = 0 */
 8283               	.LBB1068:
 8284               	.LBB1069:
 8285               	.LM759:
 8286 27d8 E091 0000 		lds r30,Timebase
 8287 27dc F091 0000 		lds r31,(Timebase)+1
 8288 27e0 90E0      		ldi r25,lo8(0)
 8289               	.LBE1069:
 8290               	.LBE1068:
 8291               	.LM760:
 8292 27e2 2DE0      		ldi r18,lo8(13)
 8293 27e4 30E0      		ldi r19,hi8(13)
 8294 27e6 AC01      		movw r20,r24
 8295               	.LVL482:
 8296 27e8 429F      		mul r20,r18
 8297 27ea C001      		movw r24,r0
 8298 27ec 439F      		mul r20,r19
 8299 27ee 900D      		add r25,r0
 8300 27f0 529F      		mul r21,r18
 8301 27f2 900D      		add r25,r0
 8302 27f4 1124      		clr r1
 8303 27f6 E80F      		add r30,r24
 8304 27f8 F91F      		adc r31,r25
 8305 27fa DF01      		movw r26,r30
 8306 27fc A859      		subi r26,lo8(-(104))
 8307 27fe BF4F      		sbci r27,hi8(-(104))
 8308 2800 EC59      		subi r30,lo8(-(100))
 8309 2802 FF4F      		sbci r31,hi8(-(100))
 8310 2804 2081      		ld r18,Z
 8311 2806 3181      		ldd r19,Z+1
 8312 2808 4281      		ldd r20,Z+2
 8313 280a 5381      		ldd r21,Z+3
 8314               	.LVL483:
 8315 280c 8D91      		ld r24,X+
 8316 280e 9D91      		ld r25,X+
 8317 2810 0D90      		ld __tmp_reg__,X+
 8318 2812 BC91      		ld r27,X
 8319 2814 A02D      		mov r26,__tmp_reg__
 8320 2816 281B      		sub r18,r24
 8321 2818 390B      		sbc r19,r25
 8322 281a 4A0B      		sbc r20,r26
 8323 281c 5B0B      		sbc r21,r27
 8324 281e 57FF      		sbrs r21,7
 8325 2820 00C0      		rjmp .L376
 8326 2822 20E0      		ldi r18,lo8(0)
 8327 2824 30E0      		ldi r19,hi8(0)
 8328 2826 40E0      		ldi r20,hlo8(0)
 8329 2828 50E0      		ldi r21,hhi8(0)
 8330               	.L376:
 8331               	.LM761:
 8332 282a B901      		movw r22,r18
 8333               	.LVL484:
 8334 282c CA01      		movw r24,r20
 8335               	/* epilogue start */
 8336 282e 0895      		ret
 8337               	.LFE139:
 8339               	.global	Timebase_DownCounter_Period_Value_Expired
 8341               	Timebase_DownCounter_Period_Value_Expired:
 8342               	.LFB140:
 8343               	.LM762:
 8344               	.LVL485:
 8345 2830 CF93      		push r28
 8346 2832 DF93      		push r29
 8347               	/* prologue: function */
 8348               	/* frame size = 0 */
 8349               	.LBB1070:
 8350               	.LBB1071:
 8351               	.LBB1072:
 8352               	.LBB1073:
 8353               	.LM763:
 8354 2834 C091 0000 		lds r28,Timebase
 8355 2838 D091 0000 		lds r29,(Timebase)+1
 8356 283c 682F      		mov r22,r24
 8357 283e 70E0      		ldi r23,lo8(0)
 8358               	.LBE1073:
 8359               	.LBE1072:
 8360               	.LM764:
 8361 2840 8DE0      		ldi r24,lo8(13)
 8362 2842 90E0      		ldi r25,hi8(13)
 8363               	.LVL486:
 8364 2844 689F      		mul r22,r24
 8365 2846 F001      		movw r30,r0
 8366 2848 699F      		mul r22,r25
 8367 284a F00D      		add r31,r0
 8368 284c 789F      		mul r23,r24
 8369 284e F00D      		add r31,r0
 8370 2850 1124      		clr r1
 8371 2852 EC0F      		add r30,r28
 8372 2854 FD1F      		adc r31,r29
 8373 2856 DF01      		movw r26,r30
 8374 2858 A859      		subi r26,lo8(-(104))
 8375 285a BF4F      		sbci r27,hi8(-(104))
 8376 285c EC59      		subi r30,lo8(-(100))
 8377 285e FF4F      		sbci r31,hi8(-(100))
 8378 2860 2081      		ld r18,Z
 8379 2862 3181      		ldd r19,Z+1
 8380 2864 4281      		ldd r20,Z+2
 8381 2866 5381      		ldd r21,Z+3
 8382               	.LVL487:
 8383 2868 8D91      		ld r24,X+
 8384 286a 9D91      		ld r25,X+
 8385 286c 0D90      		ld __tmp_reg__,X+
 8386 286e BC91      		ld r27,X
 8387 2870 A02D      		mov r26,__tmp_reg__
 8388 2872 281B      		sub r18,r24
 8389 2874 390B      		sbc r19,r25
 8390 2876 4A0B      		sbc r20,r26
 8391 2878 5B0B      		sbc r21,r27
 8392               	.LM765:
 8393 287a 57FD      		sbrc r21,7
 8394 287c 00C0      		rjmp .L379
 8395               	.LBE1071:
 8396               	.LBE1070:
 8397               	.LM766:
 8398 287e 2115      		cp r18,__zero_reg__
 8399 2880 3105      		cpc r19,__zero_reg__
 8400 2882 4105      		cpc r20,__zero_reg__
 8401 2884 5105      		cpc r21,__zero_reg__
 8402 2886 01F0      		breq .L379
 8403 2888 20E0      		ldi r18,lo8(0)
 8404               	.LVL488:
 8405 288a 00C0      		rjmp .L380
 8406               	.LVL489:
 8407               	.L379:
 8408 288c 20E0      		ldi r18,lo8(0)
 8409               	.LVL490:
 8410 288e 8DE0      		ldi r24,lo8(13)
 8411 2890 90E0      		ldi r25,hi8(13)
 8412 2892 AC01      		movw r20,r24
 8413 2894 649F      		mul r22,r20
 8414 2896 C001      		movw r24,r0
 8415 2898 659F      		mul r22,r21
 8416 289a 900D      		add r25,r0
 8417 289c 749F      		mul r23,r20
 8418 289e 900D      		add r25,r0
 8419 28a0 1124      		clr r1
 8420 28a2 C80F      		add r28,r24
 8421 28a4 D91F      		adc r29,r25
 8422 28a6 C15A      		subi r28,lo8(-(95))
 8423 28a8 DF4F      		sbci r29,hi8(-(95))
 8424 28aa 8881      		ld r24,Y
 8425 28ac 80FF      		sbrs r24,0
 8426 28ae 21E0      		ldi r18,lo8(1)
 8427               	.L381:
 8428 28b0 81E0      		ldi r24,lo8(1)
 8429 28b2 2827      		eor r18,r24
 8430               	.L380:
 8431               	.LM767:
 8432 28b4 822F      		mov r24,r18
 8433               	/* epilogue start */
 8434 28b6 DF91      		pop r29
 8435 28b8 CF91      		pop r28
 8436 28ba 0895      		ret
 8437               	.LFE140:
 8439               	.global	Timebase_DownCounter_Period_Value_Expired_Event
 8441               	Timebase_DownCounter_Period_Value_Expired_Event:
 8442               	.LFB141:
 8443               	.LM768:
 8444               	.LVL491:
 8445 28bc 1F93      		push r17
 8446               	/* prologue: function */
 8447               	/* frame size = 0 */
 8448 28be 182F      		mov r17,r24
 8449               	.LM769:
 8450 28c0 0E94 0000 		call Timebase_DownCounter_Period_Value_Expired
 8451               	.LVL492:
 8452 28c4 8130      		cpi r24,lo8(1)
 8453 28c6 01F0      		breq .L384
 8454 28c8 80E0      		ldi r24,lo8(0)
 8455 28ca 00C0      		rjmp .L385
 8456               	.L384:
 8457               	.LBB1074:
 8458               	.LBB1075:
 8459               	.LM770:
 8460 28cc E091 0000 		lds r30,Timebase
 8461 28d0 F091 0000 		lds r31,(Timebase)+1
 8462 28d4 212F      		mov r18,r17
 8463 28d6 30E0      		ldi r19,lo8(0)
 8464               	.LVL493:
 8465 28d8 8DE0      		ldi r24,lo8(13)
 8466 28da 90E0      		ldi r25,hi8(13)
 8467 28dc AC01      		movw r20,r24
 8468 28de 249F      		mul r18,r20
 8469 28e0 C001      		movw r24,r0
 8470 28e2 259F      		mul r18,r21
 8471 28e4 900D      		add r25,r0
 8472 28e6 349F      		mul r19,r20
 8473 28e8 900D      		add r25,r0
 8474 28ea 1124      		clr r1
 8475 28ec E80F      		add r30,r24
 8476 28ee F91F      		adc r31,r25
 8477 28f0 E15A      		subi r30,lo8(-(95))
 8478 28f2 FF4F      		sbci r31,hi8(-(95))
 8479 28f4 8081      		ld r24,Z
 8480 28f6 8E7F      		andi r24,lo8(-2)
 8481 28f8 8083      		st Z,r24
 8482 28fa 81E0      		ldi r24,lo8(1)
 8483               	.L385:
 8484               	/* epilogue start */
 8485               	.LBE1075:
 8486               	.LBE1074:
 8487               	.LM771:
 8488 28fc 1F91      		pop r17
 8489               	.LVL494:
 8490 28fe 0895      		ret
 8491               	.LFE141:
 8493               	.global	Timebase_DownCounter_Update_All
 8495               	Timebase_DownCounter_Update_All:
 8496               	.LFB142:
 8497               	.LM772:
 8498               	/* prologue: function */
 8499               	/* frame size = 0 */
 8500               	.LBB1076:
 8501               	.LM773:
 8502 2900 80E0      		ldi r24,lo8(0)
 8503 2902 0E94 0000 		call Timebase_DownCounter_Update
 8504               	/* epilogue start */
 8505               	.LBE1076:
 8506               	.LM774:
 8507 2906 0895      		ret
 8508               	.LFE142:
 8510               	.global	Timebase_DownCounter_Reset_All
 8512               	Timebase_DownCounter_Reset_All:
 8513               	.LFB143:
 8514               	.LM775:
 8515               	/* prologue: function */
 8516               	/* frame size = 0 */
 8517               	.LBB1077:
 8518               	.LBB1078:
 8519               	.LBB1079:
 8520               	.LBB1080:
 8521               	.LBB1081:
 8522               	.LM776:
 8523 2908 E091 0000 		lds r30,Timebase
 8524 290c F091 0000 		lds r31,(Timebase)+1
 8525 2910 E05A      		subi r30,lo8(-(96))
 8526 2912 FF4F      		sbci r31,hi8(-(96))
 8527 2914 1192      		st Z+,__zero_reg__
 8528 2916 1192      		st Z+,__zero_reg__
 8529 2918 1192      		st Z+,__zero_reg__
 8530 291a 1192      		st Z+,__zero_reg__
 8531               	.LBE1081:
 8532               	.LBE1080:
 8533               	.LBB1082:
 8534               	.LBB1083:
 8535               	.LM777:
 8536 291c 1082      		st Z,__zero_reg__
 8537 291e 1182      		std Z+1,__zero_reg__
 8538 2920 1282      		std Z+2,__zero_reg__
 8539 2922 1382      		std Z+3,__zero_reg__
 8540               	.LBE1083:
 8541               	.LBE1082:
 8542               	.LBB1084:
 8543               	.LBB1085:
 8544               	.LM778:
 8545 2924 3597      		sbiw r30,5
 8546 2926 8081      		ld r24,Z
 8547               	.LBE1085:
 8548               	.LBE1084:
 8549               	.LBB1086:
 8550               	.LBB1087:
 8551               	.LM779:
 8552 2928 807E      		andi r24,lo8(-32)
 8553 292a 8083      		st Z,r24
 8554               	/* epilogue start */
 8555               	.LBE1087:
 8556               	.LBE1086:
 8557               	.LBE1079:
 8558               	.LBE1078:
 8559               	.LBE1077:
 8560               	.LM780:
 8561 292c 0895      		ret
 8562               	.LFE143:
 8564               	.global	Timebase_Reset
 8566               	Timebase_Reset:
 8567               	.LFB144:
 8568               	.LM781:
 8569               	/* prologue: function */
 8570               	/* frame size = 0 */
 8571               	.LM782:
 8572 292e 0E94 0000 		call Timebase_UpCounter_Reset_All
 8573               	.LM783:
 8574 2932 0E94 0000 		call Timebase_DownCounter_SS_Reset_All
 8575               	.LM784:
 8576 2936 0E94 0000 		call Timebase_DownCounter_Reset_All
 8577               	/* epilogue start */
 8578               	.LM785:
 8579 293a 0895      		ret
 8580               	.LFE144:
 8582               	.global	Timebase_Init
 8584               	Timebase_Init:
 8585               	.LFB145:
 8586               	.LM786:
 8587               	.LVL495:
 8588 293c 0F93      		push r16
 8589 293e 1F93      		push r17
 8590               	/* prologue: function */
 8591               	/* frame size = 0 */
 8592 2940 8C01      		movw r16,r24
 8593               	.LM787:
 8594 2942 0E94 0000 		call Timebase_Struct_Init
 8595               	.LVL496:
 8596               	.LM788:
 8597 2946 C801      		movw r24,r16
 8598 2948 0E94 0000 		call Timebase_Timer_Config
 8599               	.LM789:
 8600 294c 0E94 0000 		call Timebase_Reset
 8601               	/* epilogue start */
 8602               	.LM790:
 8603 2950 1F91      		pop r17
 8604 2952 0F91      		pop r16
 8605               	.LVL497:
 8606 2954 0895      		ret
 8607               	.LFE145:
 8609               	.global	Timebase_Main_Loop_Executables
 8611               	Timebase_Main_Loop_Executables:
 8612               	.LFB146:
 8613               	.LM791:
 8614               	/* prologue: function */
 8615               	/* frame size = 0 */
 8616               	.LM792:
 8617 2956 E091 0000 		lds r30,Timebase
 8618 295a F091 0000 		lds r31,(Timebase)+1
 8619 295e 868D      		ldd r24,Z+30
 8620 2960 82FF      		sbrs r24,2
 8621 2962 00C0      		rjmp .L396
 8622               	.LM793:
 8623 2964 0E94 0000 		call Timebase_Timer_Sync_With_Shadow_Variables
 8624               	.LM794:
 8625 2968 E091 0000 		lds r30,Timebase
 8626 296c F091 0000 		lds r31,(Timebase)+1
 8627 2970 868D      		ldd r24,Z+30
 8628 2972 8B7F      		andi r24,lo8(-5)
 8629 2974 868F      		std Z+30,r24
 8630               	.L396:
 8631               	.LM795:
 8632 2976 E091 0000 		lds r30,Timebase
 8633 297a F091 0000 		lds r31,(Timebase)+1
 8634 297e 868D      		ldd r24,Z+30
 8635 2980 80FF      		sbrs r24,0
 8636 2982 00C0      		rjmp .L397
 8637               	.LM796:
 8638 2984 0E94 0000 		call Timebase_Timer_Sync_With_Shadow_Variables
 8639               	.LM797:
 8640 2988 0E94 0000 		call Timebase_UpCounter_Update_All
 8641               	.LM798:
 8642 298c E091 0000 		lds r30,Timebase
 8643 2990 F091 0000 		lds r31,(Timebase)+1
 8644 2994 868D      		ldd r24,Z+30
 8645 2996 8E7F      		andi r24,lo8(-2)
 8646 2998 868F      		std Z+30,r24
 8647               	.L397:
 8648               	.LM799:
 8649 299a E091 0000 		lds r30,Timebase
 8650 299e F091 0000 		lds r31,(Timebase)+1
 8651 29a2 868D      		ldd r24,Z+30
 8652 29a4 83FF      		sbrs r24,3
 8653 29a6 00C0      		rjmp .L398
 8654               	.LM800:
 8655 29a8 0E94 0000 		call Timebase_Timer_Sync_With_Shadow_Variables
 8656               	.LM801:
 8657 29ac 0E94 0000 		call Timebase_DownCounter_SS_Update_All
 8658               	.LM802:
 8659 29b0 E091 0000 		lds r30,Timebase
 8660 29b4 F091 0000 		lds r31,(Timebase)+1
 8661 29b8 868D      		ldd r24,Z+30
 8662 29ba 877F      		andi r24,lo8(-9)
 8663 29bc 868F      		std Z+30,r24
 8664               	.L398:
 8665               	.LM803:
 8666 29be E091 0000 		lds r30,Timebase
 8667 29c2 F091 0000 		lds r31,(Timebase)+1
 8668 29c6 868D      		ldd r24,Z+30
 8669 29c8 81FF      		sbrs r24,1
 8670 29ca 00C0      		rjmp .L399
 8671               	.LM804:
 8672 29cc 0E94 0000 		call Timebase_Timer_Sync_With_Shadow_Variables
 8673               	.LM805:
 8674 29d0 0E94 0000 		call Timebase_DownCounter_Update_All
 8675               	.LM806:
 8676 29d4 E091 0000 		lds r30,Timebase
 8677 29d8 F091 0000 		lds r31,(Timebase)+1
 8678 29dc 868D      		ldd r24,Z+30
 8679 29de 8D7F      		andi r24,lo8(-3)
 8680 29e0 868F      		std Z+30,r24
 8681               	.L399:
 8682               	.LM807:
 8683 29e2 E091 0000 		lds r30,Timebase
 8684 29e6 F091 0000 		lds r31,(Timebase)+1
 8685 29ea 148A      		std Z+20,__zero_reg__
 8686               	/* epilogue start */
 8687               	.LM808:
 8688 29ec 0895      		ret
 8689               	.LFE146:
 8691               	.global	Timebase_ISR_Executables
 8693               	Timebase_ISR_Executables:
 8694               	.LFB147:
 8695               	.LM809:
 8696               	/* prologue: function */
 8697               	/* frame size = 0 */
 8698               	.LM810:
 8699 29ee E091 0000 		lds r30,Timebase
 8700 29f2 F091 0000 		lds r31,(Timebase)+1
 8701 29f6 8685      		ldd r24,Z+14
 8702 29f8 9785      		ldd r25,Z+15
 8703 29fa 0196      		adiw r24,1
 8704 29fc 9787      		std Z+15,r25
 8705 29fe 8687      		std Z+14,r24
 8706               	.LM811:
 8707 2a00 868D      		ldd r24,Z+30
 8708 2a02 8460      		ori r24,lo8(4)
 8709 2a04 868F      		std Z+30,r24
 8710               	.LM812:
 8711 2a06 868D      		ldd r24,Z+30
 8712 2a08 8860      		ori r24,lo8(8)
 8713 2a0a 868F      		std Z+30,r24
 8714               	.LM813:
 8715 2a0c 2685      		ldd r18,Z+14
 8716 2a0e 3785      		ldd r19,Z+15
 8717 2a10 8181      		ldd r24,Z+1
 8718 2a12 9281      		ldd r25,Z+2
 8719 2a14 2817      		cp r18,r24
 8720 2a16 3907      		cpc r19,r25
 8721 2a18 00F0      		brlo .L403
 8722               	.LM814:
 8723 2a1a 8089      		ldd r24,Z+16
 8724 2a1c 9189      		ldd r25,Z+17
 8725 2a1e A289      		ldd r26,Z+18
 8726 2a20 B389      		ldd r27,Z+19
 8727 2a22 0196      		adiw r24,1
 8728 2a24 A11D      		adc r26,__zero_reg__
 8729 2a26 B11D      		adc r27,__zero_reg__
 8730 2a28 808B      		std Z+16,r24
 8731 2a2a 918B      		std Z+17,r25
 8732 2a2c A28B      		std Z+18,r26
 8733 2a2e B38B      		std Z+19,r27
 8734               	.LM815:
 8735 2a30 1786      		std Z+15,__zero_reg__
 8736 2a32 1686      		std Z+14,__zero_reg__
 8737               	.LM816:
 8738 2a34 868D      		ldd r24,Z+30
 8739 2a36 8160      		ori r24,lo8(1)
 8740 2a38 868F      		std Z+30,r24
 8741               	.LM817:
 8742 2a3a 868D      		ldd r24,Z+30
 8743 2a3c 8260      		ori r24,lo8(2)
 8744 2a3e 868F      		std Z+30,r24
 8745               	.L403:
 8746 2a40 0895      		ret
 8747               	.LFE147:
 8749               	.global	__vector_16
 8751               	__vector_16:
 8752               	.LFB148:
 8753               	.LM818:
 8754 2a42 1F92      		push __zero_reg__
 8755 2a44 0F92      		push r0
 8756 2a46 0FB6      		in r0,__SREG__
 8757 2a48 0F92      		push r0
 8758 2a4a 1124      		clr __zero_reg__
 8759 2a4c 2F93      		push r18
 8760 2a4e 3F93      		push r19
 8761 2a50 4F93      		push r20
 8762 2a52 5F93      		push r21
 8763 2a54 6F93      		push r22
 8764 2a56 7F93      		push r23
 8765 2a58 8F93      		push r24
 8766 2a5a 9F93      		push r25
 8767 2a5c AF93      		push r26
 8768 2a5e BF93      		push r27
 8769 2a60 EF93      		push r30
 8770 2a62 FF93      		push r31
 8771               	/* prologue: Signal */
 8772               	/* frame size = 0 */
 8773               	.LM819:
 8774 2a64 E091 0000 		lds r30,Timebase
 8775 2a68 F091 0000 		lds r31,(Timebase)+1
 8776 2a6c 8381      		ldd r24,Z+3
 8777 2a6e 86BD      		out 70-32,r24
 8778               	.LM820:
 8779 2a70 0E94 0000 		call Timebase_ISR_Executables
 8780               	/* epilogue start */
 8781               	.LM821:
 8782 2a74 FF91      		pop r31
 8783 2a76 EF91      		pop r30
 8784 2a78 BF91      		pop r27
 8785 2a7a AF91      		pop r26
 8786 2a7c 9F91      		pop r25
 8787 2a7e 8F91      		pop r24
 8788 2a80 7F91      		pop r23
 8789 2a82 6F91      		pop r22
 8790 2a84 5F91      		pop r21
 8791 2a86 4F91      		pop r20
 8792 2a88 3F91      		pop r19
 8793 2a8a 2F91      		pop r18
 8794 2a8c 0F90      		pop r0
 8795 2a8e 0FBE      		out __SREG__,r0
 8796 2a90 0F90      		pop r0
 8797 2a92 1F90      		pop __zero_reg__
 8798 2a94 1895      		reti
 8799               	.LFE148:
 8801               		.data
 8804               	C.2.1703:
 8805 0000 0100      		.word	1
 8806 0002 0800      		.word	8
 8807 0004 4000      		.word	64
 8808 0006 0001      		.word	256
 8809 0008 0004      		.word	1024
 8810               		.comm Timebase_type,108,1
 8811               		.comm Timebase,2,1
 9972               	.Letext0:
DEFINED SYMBOLS
                            *ABS*:00000000 timebase.c
C:\Users\WALTON\AppData\Local\Temp/cc264Hug.s:2      *ABS*:0000003f __SREG__
C:\Users\WALTON\AppData\Local\Temp/cc264Hug.s:3      *ABS*:0000003e __SP_H__
C:\Users\WALTON\AppData\Local\Temp/cc264Hug.s:4      *ABS*:0000003d __SP_L__
C:\Users\WALTON\AppData\Local\Temp/cc264Hug.s:5      *ABS*:00000034 __CCP__
C:\Users\WALTON\AppData\Local\Temp/cc264Hug.s:6      *ABS*:00000000 __tmp_reg__
C:\Users\WALTON\AppData\Local\Temp/cc264Hug.s:7      *ABS*:00000001 __zero_reg__
C:\Users\WALTON\AppData\Local\Temp/cc264Hug.s:18     .text:00000000 Timebase_Struct_Init
                            *COM*:0000006c Timebase_type
                            *COM*:00000002 Timebase
C:\Users\WALTON\AppData\Local\Temp/cc264Hug.s:197    .text:000001d6 Timebase_Timer_Config
C:\Users\WALTON\AppData\Local\Temp/cc264Hug.s:8804   .data:00000000 C.2.1703
C:\Users\WALTON\AppData\Local\Temp/cc264Hug.s:517    .text:00000370 Timebase_Atomic_Operation_Start
C:\Users\WALTON\AppData\Local\Temp/cc264Hug.s:535    .text:00000374 Timebase_Atomic_Operation_End
C:\Users\WALTON\AppData\Local\Temp/cc264Hug.s:553    .text:00000378 Timebase_Token_Executing
C:\Users\WALTON\AppData\Local\Temp/cc264Hug.s:569    .text:00000384 Timebase_Token_Add
C:\Users\WALTON\AppData\Local\Temp/cc264Hug.s:595    .text:0000039a Timebase_Token_Remove
C:\Users\WALTON\AppData\Local\Temp/cc264Hug.s:621    .text:000003b0 Timebase_Token_Remove_All
C:\Users\WALTON\AppData\Local\Temp/cc264Hug.s:637    .text:000003bc Timebase_Timer_Get_SubSecondsShadow
C:\Users\WALTON\AppData\Local\Temp/cc264Hug.s:655    .text:000003cc Timebase_Timer_Get_SecondsShadow
C:\Users\WALTON\AppData\Local\Temp/cc264Hug.s:676    .text:000003e2 Timebase_Timer_Get_SubSeconds
C:\Users\WALTON\AppData\Local\Temp/cc264Hug.s:694    .text:000003f2 Timebase_Timer_Get_Seconds
C:\Users\WALTON\AppData\Local\Temp/cc264Hug.s:715    .text:00000408 Timebase_Timer_Set_SubSeconds
C:\Users\WALTON\AppData\Local\Temp/cc264Hug.s:733    .text:00000416 Timebase_Timer_Set_Seconds
C:\Users\WALTON\AppData\Local\Temp/cc264Hug.s:753    .text:00000428 Timebase_Timer_Sync_With_Shadow_Variables
C:\Users\WALTON\AppData\Local\Temp/cc264Hug.s:807    .text:00000458 Timebase_Timer_Delay_SubSeconds
C:\Users\WALTON\AppData\Local\Temp/cc264Hug.s:984    .text:00000510 Timebase_Timer_Await_SubSeconds
C:\Users\WALTON\AppData\Local\Temp/cc264Hug.s:1146   .text:000005aa Timebase_Timer_Delay_Seconds
C:\Users\WALTON\AppData\Local\Temp/cc264Hug.s:1243   .text:000005ec Timebase_Window_Timer_Reset
C:\Users\WALTON\AppData\Local\Temp/cc264Hug.s:1269   .text:00000608 Timebase_Window_Timer_Start
C:\Users\WALTON\AppData\Local\Temp/cc264Hug.s:1337   .text:00000640 Timebase_Window_Timer_Get_Interval
C:\Users\WALTON\AppData\Local\Temp/cc264Hug.s:1453   .text:000006be Timebase_Window_Timer_Get_Interval_Reset
C:\Users\WALTON\AppData\Local\Temp/cc264Hug.s:1493   .text:000006e8 Timebase_UpCounter_SS_Get_Status
C:\Users\WALTON\AppData\Local\Temp/cc264Hug.s:1527   .text:00000712 Timebase_UpCounter_SS_Set_Status
C:\Users\WALTON\AppData\Local\Temp/cc264Hug.s:1565   .text:00000742 Timebase_UpCounter_SS_Get_Value
C:\Users\WALTON\AppData\Local\Temp/cc264Hug.s:1608   .text:0000077c Timebase_UpCounter_SS_Set_Value
C:\Users\WALTON\AppData\Local\Temp/cc264Hug.s:1658   .text:000007c0 Timebase_UpCounter_SS_Get_EndValueSec
C:\Users\WALTON\AppData\Local\Temp/cc264Hug.s:1701   .text:000007fa Timebase_UpCounter_SS_Get_EndValueSubSec
C:\Users\WALTON\AppData\Local\Temp/cc264Hug.s:1744   .text:00000834 Timebase_UpCounter_SS_Set_EndValueSec
C:\Users\WALTON\AppData\Local\Temp/cc264Hug.s:1779   .text:00000860 Timebase_UpCounter_SS_Set_EndValueSubSec
C:\Users\WALTON\AppData\Local\Temp/cc264Hug.s:1814   .text:0000088c Timebase_UpCounter_SS_Get_TargetValue
C:\Users\WALTON\AppData\Local\Temp/cc264Hug.s:1857   .text:000008c6 Timebase_UpCounter_SS_Set_TargetValue
C:\Users\WALTON\AppData\Local\Temp/cc264Hug.s:1892   .text:000008f2 Timebase_UpCounter_SS_Get_TemporaryValue
C:\Users\WALTON\AppData\Local\Temp/cc264Hug.s:1935   .text:0000092c Timebase_UpCounter_SS_Set_TemporaryValue
C:\Users\WALTON\AppData\Local\Temp/cc264Hug.s:1985   .text:00000970 Timebase_UpCounter_SS_Get_PeriodValue
C:\Users\WALTON\AppData\Local\Temp/cc264Hug.s:2028   .text:000009aa Timebase_UpCounter_SS_Set_PeriodValue
C:\Users\WALTON\AppData\Local\Temp/cc264Hug.s:2063   .text:000009d6 Timebase_UpCounter_SS_Get_Period_Flag
C:\Users\WALTON\AppData\Local\Temp/cc264Hug.s:2096   .text:000009fe Timebase_UpCounter_SS_Set_Period_Flag
C:\Users\WALTON\AppData\Local\Temp/cc264Hug.s:2130   .text:00000a28 Timebase_UpCounter_SS_Clear_Period_Flag
C:\Users\WALTON\AppData\Local\Temp/cc264Hug.s:2164   .text:00000a52 Timebase_UpCounter_SS_Reset
C:\Users\WALTON\AppData\Local\Temp/cc264Hug.s:2260   .text:00000aac Timebase_UpCounter_SS_Clear_All_Flags
C:\Users\WALTON\AppData\Local\Temp/cc264Hug.s:2276   .text:00000ab2 Timebase_UpCounter_SS_Start
C:\Users\WALTON\AppData\Local\Temp/cc264Hug.s:2324   .text:00000ae8 Timebase_UpCounter_SS_Stop
C:\Users\WALTON\AppData\Local\Temp/cc264Hug.s:2372   .text:00000b1e Timebase_UpCounter_SS_Set_Securely
C:\Users\WALTON\AppData\Local\Temp/cc264Hug.s:2644   .text:00000c9a Timebase_UpCounter_SS_Set_Forcefully
C:\Users\WALTON\AppData\Local\Temp/cc264Hug.s:2680   .text:00000cc4 Timebase_UpCounter_SS_Update
C:\Users\WALTON\AppData\Local\Temp/cc264Hug.s:3226   .text:00000fe2 Timebase_UpCounter_SS_Expired
C:\Users\WALTON\AppData\Local\Temp/cc264Hug.s:3266   .text:00001016 Timebase_UpCounter_SS_Expired_Event
C:\Users\WALTON\AppData\Local\Temp/cc264Hug.s:3315   .text:00001054 Timebase_UpCounter_SS_Set_Period_Value_Securely
C:\Users\WALTON\AppData\Local\Temp/cc264Hug.s:3377   .text:0000109c Timebase_UpCounter_SS_Get_Remaining_Period_Value
C:\Users\WALTON\AppData\Local\Temp/cc264Hug.s:3435   .text:000010e8 Timebase_UpCounter_SS_Period_Value_Expired
C:\Users\WALTON\AppData\Local\Temp/cc264Hug.s:3527   .text:00001164 Timebase_UpCounter_SS_Period_Value_Expired_Event
C:\Users\WALTON\AppData\Local\Temp/cc264Hug.s:3579   .text:000011a4 Timebase_UpCounter_SS_Update_All
C:\Users\WALTON\AppData\Local\Temp/cc264Hug.s:3596   .text:000011ac Timebase_UpCounter_SS_Reset_All
C:\Users\WALTON\AppData\Local\Temp/cc264Hug.s:3613   .text:000011b4 Timebase_UpCounter_Get_Status
C:\Users\WALTON\AppData\Local\Temp/cc264Hug.s:3647   .text:000011de Timebase_UpCounter_Set_Status
C:\Users\WALTON\AppData\Local\Temp/cc264Hug.s:3685   .text:0000120e Timebase_UpCounter_Get_Value
C:\Users\WALTON\AppData\Local\Temp/cc264Hug.s:3723   .text:0000123e Timebase_UpCounter_Set_Value
C:\Users\WALTON\AppData\Local\Temp/cc264Hug.s:3760   .text:0000126e Timebase_UpCounter_Get_EndValue
C:\Users\WALTON\AppData\Local\Temp/cc264Hug.s:3803   .text:000012a8 Timebase_UpCounter_Set_EndValue
C:\Users\WALTON\AppData\Local\Temp/cc264Hug.s:3838   .text:000012d4 Timebase_UpCounter_Get_TargetValue
C:\Users\WALTON\AppData\Local\Temp/cc264Hug.s:3875   .text:00001302 Timebase_UpCounter_Set_TargetValue
C:\Users\WALTON\AppData\Local\Temp/cc264Hug.s:3911   .text:00001330 Timebase_UpCounter_Get_TemporaryValue
C:\Users\WALTON\AppData\Local\Temp/cc264Hug.s:3949   .text:00001360 Timebase_UpCounter_Set_TemporaryValue
C:\Users\WALTON\AppData\Local\Temp/cc264Hug.s:3986   .text:00001390 Timebase_UpCounter_Get_PeriodValue
C:\Users\WALTON\AppData\Local\Temp/cc264Hug.s:4024   .text:000013c0 Timebase_UpCounter_Set_PeriodValue
C:\Users\WALTON\AppData\Local\Temp/cc264Hug.s:4061   .text:000013f0 Timebase_UpCounter_Get_Period_Flag
C:\Users\WALTON\AppData\Local\Temp/cc264Hug.s:4094   .text:00001418 Timebase_UpCounter_Set_Period_Flag
C:\Users\WALTON\AppData\Local\Temp/cc264Hug.s:4128   .text:00001442 Timebase_UpCounter_Clear_Period_Flag
C:\Users\WALTON\AppData\Local\Temp/cc264Hug.s:4162   .text:0000146c Timebase_UpCounter_Reset
C:\Users\WALTON\AppData\Local\Temp/cc264Hug.s:4257   .text:000014ce Timebase_UpCounter_Clear_All_Flags
C:\Users\WALTON\AppData\Local\Temp/cc264Hug.s:4273   .text:000014d4 Timebase_UpCounter_Start
C:\Users\WALTON\AppData\Local\Temp/cc264Hug.s:4321   .text:0000150a Timebase_UpCounter_Stop
C:\Users\WALTON\AppData\Local\Temp/cc264Hug.s:4369   .text:00001540 Timebase_UpCounter_Set_Securely
C:\Users\WALTON\AppData\Local\Temp/cc264Hug.s:4481   .text:000015b6 Timebase_UpCounter_Set_Forcefully
C:\Users\WALTON\AppData\Local\Temp/cc264Hug.s:4517   .text:000015e0 Timebase_UpCounter_Update
C:\Users\WALTON\AppData\Local\Temp/cc264Hug.s:4732   .text:000016f6 Timebase_UpCounter_Expired
C:\Users\WALTON\AppData\Local\Temp/cc264Hug.s:4772   .text:0000172a Timebase_UpCounter_Expired_Event
C:\Users\WALTON\AppData\Local\Temp/cc264Hug.s:4821   .text:00001768 Timebase_UpCounter_Set_Period_Value_Securely
C:\Users\WALTON\AppData\Local\Temp/cc264Hug.s:4896   .text:000017c6 Timebase_UpCounter_Get_Remaining_Period_Value
C:\Users\WALTON\AppData\Local\Temp/cc264Hug.s:4960   .text:0000181e Timebase_UpCounter_Period_Value_Expired
C:\Users\WALTON\AppData\Local\Temp/cc264Hug.s:5058   .text:000018a6 Timebase_UpCounter_Period_Value_Expired_Event
C:\Users\WALTON\AppData\Local\Temp/cc264Hug.s:5110   .text:000018e6 Timebase_UpCounter_Update_All
C:\Users\WALTON\AppData\Local\Temp/cc264Hug.s:5127   .text:000018ee Timebase_UpCounter_Reset_All
C:\Users\WALTON\AppData\Local\Temp/cc264Hug.s:5144   .text:000018f6 Timebase_DownCounter_SS_Get_Status
C:\Users\WALTON\AppData\Local\Temp/cc264Hug.s:5178   .text:00001920 Timebase_DownCounter_SS_Set_Status
C:\Users\WALTON\AppData\Local\Temp/cc264Hug.s:5216   .text:00001950 Timebase_DownCounter_SS_Get_Value
C:\Users\WALTON\AppData\Local\Temp/cc264Hug.s:5252   .text:0000197c Timebase_DownCounter_SS_Set_Value
C:\Users\WALTON\AppData\Local\Temp/cc264Hug.s:5286   .text:000019a8 Timebase_DownCounter_SS_Get_EndValueSec
C:\Users\WALTON\AppData\Local\Temp/cc264Hug.s:5322   .text:000019d4 Timebase_DownCounter_SS_Get_EndValueSubSec
C:\Users\WALTON\AppData\Local\Temp/cc264Hug.s:5358   .text:00001a00 Timebase_DownCounter_SS_Set_EndValueSec
C:\Users\WALTON\AppData\Local\Temp/cc264Hug.s:5392   .text:00001a2c Timebase_DownCounter_SS_Set_EndValueSubSec
C:\Users\WALTON\AppData\Local\Temp/cc264Hug.s:5426   .text:00001a58 Timebase_DownCounter_SS_Get_PeriodValue
C:\Users\WALTON\AppData\Local\Temp/cc264Hug.s:5462   .text:00001a84 Timebase_DownCounter_SS_Set_PeriodValue
C:\Users\WALTON\AppData\Local\Temp/cc264Hug.s:5519   .text:00001ad8 Timebase_DownCounter_SS_Get_Period_Flag
C:\Users\WALTON\AppData\Local\Temp/cc264Hug.s:5552   .text:00001b00 Timebase_DownCounter_SS_Set_Period_Flag
C:\Users\WALTON\AppData\Local\Temp/cc264Hug.s:5586   .text:00001b2a Timebase_DownCounter_SS_Clear_Period_Flag
C:\Users\WALTON\AppData\Local\Temp/cc264Hug.s:5620   .text:00001b54 Timebase_DownCounter_SS_Reset
C:\Users\WALTON\AppData\Local\Temp/cc264Hug.s:5691   .text:00001b9a Timebase_DownCounter_SS_Clear_All_Flags
C:\Users\WALTON\AppData\Local\Temp/cc264Hug.s:5766   .text:00001be0 Timebase_DownCounter_SS_Start
C:\Users\WALTON\AppData\Local\Temp/cc264Hug.s:5814   .text:00001c16 Timebase_DownCounter_SS_Stop
C:\Users\WALTON\AppData\Local\Temp/cc264Hug.s:5862   .text:00001c4c Timebase_DownCounter_SS_Set_Securely
C:\Users\WALTON\AppData\Local\Temp/cc264Hug.s:6124   .text:00001dc8 Timebase_DownCounter_SS_Set_Forcefully
C:\Users\WALTON\AppData\Local\Temp/cc264Hug.s:6202   .text:00001e14 Timebase_DownCounter_SS_Update
C:\Users\WALTON\AppData\Local\Temp/cc264Hug.s:6521   .text:00001fb4 Timebase_DownCounter_SS_Expired
C:\Users\WALTON\AppData\Local\Temp/cc264Hug.s:6561   .text:00001fe8 Timebase_DownCounter_SS_Expired_Event
C:\Users\WALTON\AppData\Local\Temp/cc264Hug.s:6656   .text:00002042 Timebase_DownCounter_SS_Set_Period_Value_Securely
C:\Users\WALTON\AppData\Local\Temp/cc264Hug.s:6753   .text:000020c2 Timebase_DownCounter_SS_Get_Remaining_Period_Value
C:\Users\WALTON\AppData\Local\Temp/cc264Hug.s:6815   .text:00002116 Timebase_DownCounter_SS_Period_Value_Expired
C:\Users\WALTON\AppData\Local\Temp/cc264Hug.s:6912   .text:0000219c Timebase_DownCounter_SS_Period_Value_Expired_Event
C:\Users\WALTON\AppData\Local\Temp/cc264Hug.s:6964   .text:000021dc Timebase_DownCounter_SS_Update_All
C:\Users\WALTON\AppData\Local\Temp/cc264Hug.s:6981   .text:000021e4 Timebase_DownCounter_SS_Reset_All
C:\Users\WALTON\AppData\Local\Temp/cc264Hug.s:7045   .text:00002214 Timebase_DownCounter_Get_Status
C:\Users\WALTON\AppData\Local\Temp/cc264Hug.s:7081   .text:00002242 Timebase_DownCounter_Set_Status
C:\Users\WALTON\AppData\Local\Temp/cc264Hug.s:7121   .text:00002276 Timebase_DownCounter_Get_Value
C:\Users\WALTON\AppData\Local\Temp/cc264Hug.s:7159   .text:000022a6 Timebase_DownCounter_Set_Value
C:\Users\WALTON\AppData\Local\Temp/cc264Hug.s:7196   .text:000022d6 Timebase_DownCounter_Get_EndValue
C:\Users\WALTON\AppData\Local\Temp/cc264Hug.s:7234   .text:00002306 Timebase_DownCounter_Set_EndValue
C:\Users\WALTON\AppData\Local\Temp/cc264Hug.s:7271   .text:00002336 Timebase_DownCounter_Get_PeriodValue
C:\Users\WALTON\AppData\Local\Temp/cc264Hug.s:7309   .text:00002366 Timebase_DownCounter_Set_PeriodValue
C:\Users\WALTON\AppData\Local\Temp/cc264Hug.s:7371   .text:000023c2 Timebase_DownCounter_Get_Period_Flag
C:\Users\WALTON\AppData\Local\Temp/cc264Hug.s:7406   .text:000023ee Timebase_DownCounter_Set_Period_Flag
C:\Users\WALTON\AppData\Local\Temp/cc264Hug.s:7442   .text:0000241c Timebase_DownCounter_Clear_Period_Flag
C:\Users\WALTON\AppData\Local\Temp/cc264Hug.s:7478   .text:0000244a Timebase_DownCounter_Reset
C:\Users\WALTON\AppData\Local\Temp/cc264Hug.s:7541   .text:0000248a Timebase_DownCounter_Clear_All_Flags
C:\Users\WALTON\AppData\Local\Temp/cc264Hug.s:7608   .text:000024ca Timebase_DownCounter_Start
C:\Users\WALTON\AppData\Local\Temp/cc264Hug.s:7658   .text:00002504 Timebase_DownCounter_Stop
C:\Users\WALTON\AppData\Local\Temp/cc264Hug.s:7708   .text:0000253e Timebase_DownCounter_Set_Securely
C:\Users\WALTON\AppData\Local\Temp/cc264Hug.s:7808   .text:000025b0 Timebase_DownCounter_Set_Forcefully
C:\Users\WALTON\AppData\Local\Temp/cc264Hug.s:7882   .text:000025fe Timebase_DownCounter_Update
C:\Users\WALTON\AppData\Local\Temp/cc264Hug.s:8049   .text:000026c8 Timebase_DownCounter_Expired
C:\Users\WALTON\AppData\Local\Temp/cc264Hug.s:8091   .text:00002700 Timebase_DownCounter_Expired_Event
C:\Users\WALTON\AppData\Local\Temp/cc264Hug.s:8178   .text:00002754 Timebase_DownCounter_Set_Period_Value_Securely
C:\Users\WALTON\AppData\Local\Temp/cc264Hug.s:8277   .text:000027d8 Timebase_DownCounter_Get_Remaining_Period_Value
C:\Users\WALTON\AppData\Local\Temp/cc264Hug.s:8341   .text:00002830 Timebase_DownCounter_Period_Value_Expired
C:\Users\WALTON\AppData\Local\Temp/cc264Hug.s:8441   .text:000028bc Timebase_DownCounter_Period_Value_Expired_Event
C:\Users\WALTON\AppData\Local\Temp/cc264Hug.s:8495   .text:00002900 Timebase_DownCounter_Update_All
C:\Users\WALTON\AppData\Local\Temp/cc264Hug.s:8512   .text:00002908 Timebase_DownCounter_Reset_All
C:\Users\WALTON\AppData\Local\Temp/cc264Hug.s:8566   .text:0000292e Timebase_Reset
C:\Users\WALTON\AppData\Local\Temp/cc264Hug.s:8584   .text:0000293c Timebase_Init
C:\Users\WALTON\AppData\Local\Temp/cc264Hug.s:8611   .text:00002956 Timebase_Main_Loop_Executables
C:\Users\WALTON\AppData\Local\Temp/cc264Hug.s:8693   .text:000029ee Timebase_ISR_Executables
C:\Users\WALTON\AppData\Local\Temp/cc264Hug.s:8751   .text:00002a42 __vector_16

UNDEFINED SYMBOLS
__divmodsi4
__mulsi3
__do_copy_data
__do_clear_bss
