   1               		.file	"timebase.c"
   2               	__SREG__ = 0x3f
   3               	__SP_H__ = 0x3e
   4               	__SP_L__ = 0x3d
   5               	__CCP__  = 0x34
   6               	__tmp_reg__ = 0
   7               	__zero_reg__ = 1
  15               	.Ltext0:
  16               	.global	Timebase_Struct_Init
  18               	Timebase_Struct_Init:
  19               	.LFB6:
  20               	.LM1:
  21               	/* prologue: function */
  22               	/* frame size = 0 */
  23               	.LM2:
  24 0000 80E0      		ldi r24,lo8(Timebase_type)
  25 0002 90E0      		ldi r25,hi8(Timebase_type)
  26 0004 9093 0000 		sts (Timebase)+1,r25
  27 0008 8093 0000 		sts Timebase,r24
  28               	.LM3:
  29 000c 1092 0000 		sts Timebase_type,__zero_reg__
  30               	.LM4:
  31 0010 8091 0000 		lds r24,Timebase_type
  32 0014 8460      		ori r24,lo8(4)
  33 0016 8093 0000 		sts Timebase_type,r24
  34               	.LM5:
  35 001a 8091 0000 		lds r24,Timebase_type
  36 001e 8770      		andi r24,lo8(7)
  37 0020 8093 0000 		sts Timebase_type,r24
  38               	.LM6:
  39 0024 81E0      		ldi r24,lo8(1)
  40 0026 90E0      		ldi r25,hi8(1)
  41 0028 9093 0000 		sts (Timebase_type+1)+1,r25
  42 002c 8093 0000 		sts Timebase_type+1,r24
  43               	.LM7:
  44 0030 1092 0000 		sts Timebase_type+3,__zero_reg__
  45               	.LM8:
  46 0034 1092 0000 		sts (Timebase_type+14)+1,__zero_reg__
  47 0038 1092 0000 		sts Timebase_type+14,__zero_reg__
  48               	.LM9:
  49 003c 1092 0000 		sts Timebase_type+16,__zero_reg__
  50 0040 1092 0000 		sts (Timebase_type+16)+1,__zero_reg__
  51 0044 1092 0000 		sts (Timebase_type+16)+2,__zero_reg__
  52 0048 1092 0000 		sts (Timebase_type+16)+3,__zero_reg__
  53               	.LM10:
  54 004c 1092 0000 		sts (Timebase_type+8)+1,__zero_reg__
  55 0050 1092 0000 		sts Timebase_type+8,__zero_reg__
  56               	.LM11:
  57 0054 1092 0000 		sts Timebase_type+10,__zero_reg__
  58 0058 1092 0000 		sts (Timebase_type+10)+1,__zero_reg__
  59 005c 1092 0000 		sts (Timebase_type+10)+2,__zero_reg__
  60 0060 1092 0000 		sts (Timebase_type+10)+3,__zero_reg__
  61               	.LM12:
  62 0064 1092 0000 		sts Timebase_type+20,__zero_reg__
  63               	.LM13:
  64 0068 1092 0000 		sts Timebase_type+4,__zero_reg__
  65 006c 1092 0000 		sts (Timebase_type+4)+1,__zero_reg__
  66 0070 1092 0000 		sts (Timebase_type+4)+2,__zero_reg__
  67 0074 1092 0000 		sts (Timebase_type+4)+3,__zero_reg__
  68               	.LM14:
  69 0078 1092 0000 		sts Timebase_type+21,__zero_reg__
  70 007c 1092 0000 		sts (Timebase_type+21)+1,__zero_reg__
  71 0080 1092 0000 		sts (Timebase_type+21)+2,__zero_reg__
  72 0084 1092 0000 		sts (Timebase_type+21)+3,__zero_reg__
  73               	.LM15:
  74 0088 1092 0000 		sts Timebase_type+25,__zero_reg__
  75 008c 1092 0000 		sts (Timebase_type+25)+1,__zero_reg__
  76 0090 1092 0000 		sts (Timebase_type+25)+2,__zero_reg__
  77 0094 1092 0000 		sts (Timebase_type+25)+3,__zero_reg__
  78               	.LM16:
  79 0098 1092 0000 		sts Timebase_type+29,__zero_reg__
  80               	.LM17:
  81 009c 1092 0000 		sts Timebase_type+30,__zero_reg__
  82               	.LM18:
  83 00a0 1092 0000 		sts Timebase_type+31,__zero_reg__
  84               	.LBB595:
  85               	.LM19:
  86 00a4 1092 0000 		sts Timebase_type+57,__zero_reg__
  87               	.LM20:
  88 00a8 1092 0000 		sts Timebase_type+58,__zero_reg__
  89 00ac 1092 0000 		sts (Timebase_type+58)+1,__zero_reg__
  90 00b0 1092 0000 		sts (Timebase_type+58)+2,__zero_reg__
  91 00b4 1092 0000 		sts (Timebase_type+58)+3,__zero_reg__
  92               	.LM21:
  93 00b8 1092 0000 		sts Timebase_type+62,__zero_reg__
  94 00bc 1092 0000 		sts (Timebase_type+62)+1,__zero_reg__
  95 00c0 1092 0000 		sts (Timebase_type+62)+2,__zero_reg__
  96 00c4 1092 0000 		sts (Timebase_type+62)+3,__zero_reg__
  97               	.LM22:
  98 00c8 1092 0000 		sts Timebase_type+66,__zero_reg__
  99 00cc 1092 0000 		sts (Timebase_type+66)+1,__zero_reg__
 100 00d0 1092 0000 		sts (Timebase_type+66)+2,__zero_reg__
 101 00d4 1092 0000 		sts (Timebase_type+66)+3,__zero_reg__
 102               	.LM23:
 103 00d8 1092 0000 		sts Timebase_type+70,__zero_reg__
 104 00dc 1092 0000 		sts (Timebase_type+70)+1,__zero_reg__
 105 00e0 1092 0000 		sts (Timebase_type+70)+2,__zero_reg__
 106 00e4 1092 0000 		sts (Timebase_type+70)+3,__zero_reg__
 107               	.LM24:
 108 00e8 1092 0000 		sts Timebase_type+74,__zero_reg__
 109 00ec 1092 0000 		sts (Timebase_type+74)+1,__zero_reg__
 110 00f0 1092 0000 		sts (Timebase_type+74)+2,__zero_reg__
 111 00f4 1092 0000 		sts (Timebase_type+74)+3,__zero_reg__
 112               	.LBE595:
 113               	.LBB596:
 114               	.LM25:
 115 00f8 1092 0000 		sts Timebase_type+32,__zero_reg__
 116               	.LM26:
 117 00fc 1092 0000 		sts Timebase_type+33,__zero_reg__
 118 0100 1092 0000 		sts (Timebase_type+33)+1,__zero_reg__
 119 0104 1092 0000 		sts (Timebase_type+33)+2,__zero_reg__
 120 0108 1092 0000 		sts (Timebase_type+33)+3,__zero_reg__
 121               	.LM27:
 122 010c 1092 0000 		sts Timebase_type+37,__zero_reg__
 123 0110 1092 0000 		sts (Timebase_type+37)+1,__zero_reg__
 124 0114 1092 0000 		sts (Timebase_type+37)+2,__zero_reg__
 125 0118 1092 0000 		sts (Timebase_type+37)+3,__zero_reg__
 126               	.LM28:
 127 011c 1092 0000 		sts Timebase_type+41,__zero_reg__
 128 0120 1092 0000 		sts (Timebase_type+41)+1,__zero_reg__
 129 0124 1092 0000 		sts (Timebase_type+41)+2,__zero_reg__
 130 0128 1092 0000 		sts (Timebase_type+41)+3,__zero_reg__
 131               	.LM29:
 132 012c 1092 0000 		sts Timebase_type+45,__zero_reg__
 133 0130 1092 0000 		sts (Timebase_type+45)+1,__zero_reg__
 134 0134 1092 0000 		sts (Timebase_type+45)+2,__zero_reg__
 135 0138 1092 0000 		sts (Timebase_type+45)+3,__zero_reg__
 136               	.LM30:
 137 013c 1092 0000 		sts Timebase_type+49,__zero_reg__
 138 0140 1092 0000 		sts (Timebase_type+49)+1,__zero_reg__
 139 0144 1092 0000 		sts (Timebase_type+49)+2,__zero_reg__
 140 0148 1092 0000 		sts (Timebase_type+49)+3,__zero_reg__
 141               	.LM31:
 142 014c 1092 0000 		sts Timebase_type+53,__zero_reg__
 143 0150 1092 0000 		sts (Timebase_type+53)+1,__zero_reg__
 144 0154 1092 0000 		sts (Timebase_type+53)+2,__zero_reg__
 145 0158 1092 0000 		sts (Timebase_type+53)+3,__zero_reg__
 146               	.LBE596:
 147               	.LBB597:
 148               	.LM32:
 149 015c 1092 0000 		sts Timebase_type+95,__zero_reg__
 150               	.LM33:
 151 0160 1092 0000 		sts Timebase_type+96,__zero_reg__
 152 0164 1092 0000 		sts (Timebase_type+96)+1,__zero_reg__
 153 0168 1092 0000 		sts (Timebase_type+96)+2,__zero_reg__
 154 016c 1092 0000 		sts (Timebase_type+96)+3,__zero_reg__
 155               	.LM34:
 156 0170 1092 0000 		sts Timebase_type+100,__zero_reg__
 157 0174 1092 0000 		sts (Timebase_type+100)+1,__zero_reg__
 158 0178 1092 0000 		sts (Timebase_type+100)+2,__zero_reg__
 159 017c 1092 0000 		sts (Timebase_type+100)+3,__zero_reg__
 160               	.LM35:
 161 0180 1092 0000 		sts Timebase_type+104,__zero_reg__
 162 0184 1092 0000 		sts (Timebase_type+104)+1,__zero_reg__
 163 0188 1092 0000 		sts (Timebase_type+104)+2,__zero_reg__
 164 018c 1092 0000 		sts (Timebase_type+104)+3,__zero_reg__
 165               	.LBE597:
 166               	.LBB598:
 167               	.LM36:
 168 0190 1092 0000 		sts Timebase_type+78,__zero_reg__
 169               	.LM37:
 170 0194 1092 0000 		sts Timebase_type+79,__zero_reg__
 171 0198 1092 0000 		sts (Timebase_type+79)+1,__zero_reg__
 172 019c 1092 0000 		sts (Timebase_type+79)+2,__zero_reg__
 173 01a0 1092 0000 		sts (Timebase_type+79)+3,__zero_reg__
 174               	.LM38:
 175 01a4 1092 0000 		sts Timebase_type+83,__zero_reg__
 176 01a8 1092 0000 		sts (Timebase_type+83)+1,__zero_reg__
 177 01ac 1092 0000 		sts (Timebase_type+83)+2,__zero_reg__
 178 01b0 1092 0000 		sts (Timebase_type+83)+3,__zero_reg__
 179               	.LM39:
 180 01b4 1092 0000 		sts Timebase_type+87,__zero_reg__
 181 01b8 1092 0000 		sts (Timebase_type+87)+1,__zero_reg__
 182 01bc 1092 0000 		sts (Timebase_type+87)+2,__zero_reg__
 183 01c0 1092 0000 		sts (Timebase_type+87)+3,__zero_reg__
 184               	.LM40:
 185 01c4 1092 0000 		sts Timebase_type+91,__zero_reg__
 186 01c8 1092 0000 		sts (Timebase_type+91)+1,__zero_reg__
 187 01cc 1092 0000 		sts (Timebase_type+91)+2,__zero_reg__
 188 01d0 1092 0000 		sts (Timebase_type+91)+3,__zero_reg__
 189               	/* epilogue start */
 190               	.LBE598:
 191               	.LM41:
 192 01d4 0895      		ret
 193               	.LFE6:
 195               	.global	Timebase_Timer_Config
 197               	Timebase_Timer_Config:
 198               	.LFB7:
 199               	.LM42:
 200               	.LVL0:
 201 01d6 7F92      		push r7
 202 01d8 8F92      		push r8
 203 01da 9F92      		push r9
 204 01dc AF92      		push r10
 205 01de BF92      		push r11
 206 01e0 CF92      		push r12
 207 01e2 DF92      		push r13
 208 01e4 EF92      		push r14
 209 01e6 FF92      		push r15
 210 01e8 0F93      		push r16
 211 01ea 1F93      		push r17
 212 01ec DF93      		push r29
 213 01ee CF93      		push r28
 214 01f0 CDB7      		in r28,__SP_L__
 215 01f2 DEB7      		in r29,__SP_H__
 216 01f4 2A97      		sbiw r28,10
 217 01f6 0FB6      		in __tmp_reg__,__SREG__
 218 01f8 F894      		cli
 219 01fa DEBF      		out __SP_H__,r29
 220 01fc 0FBE      		out __SREG__,__tmp_reg__
 221 01fe CDBF      		out __SP_L__,r28
 222               	/* prologue: function */
 223               	/* frame size = 10 */
 224 0200 8C01      		movw r16,r24
 225               	.LM43:
 226 0202 C090 0000 		lds r12,Timebase
 227 0206 D090 0000 		lds r13,(Timebase)+1
 228 020a F601      		movw r30,r12
 229 020c 8081      		ld r24,Z
 230               	.LVL1:
 231 020e 80FF      		sbrs r24,0
 232 0210 00C0      		rjmp .L4
 233               	.LBB599:
 234               	.LM44:
 235 0212 0130      		cpi r16,1
 236 0214 1105      		cpc r17,__zero_reg__
 237 0216 01F4      		brne .L5
 238 0218 96E0      		ldi r25,lo8(6)
 239               	.LVL2:
 240 021a 00C0      		rjmp .L6
 241               	.LVL3:
 242               	.L5:
 243               	.LM45:
 244 021c 0230      		cpi r16,2
 245 021e 1105      		cpc r17,__zero_reg__
 246 0220 01F4      		brne .L7
 247 0222 95E0      		ldi r25,lo8(5)
 248               	.LVL4:
 249 0224 00C0      		rjmp .L6
 250               	.LVL5:
 251               	.L7:
 252               	.LM46:
 253 0226 0430      		cpi r16,4
 254 0228 1105      		cpc r17,__zero_reg__
 255 022a 01F4      		brne .L8
 256 022c 94E0      		ldi r25,lo8(4)
 257               	.LVL6:
 258 022e 00C0      		rjmp .L6
 259               	.LVL7:
 260               	.L8:
 261               	.LM47:
 262 0230 0830      		cpi r16,8
 263 0232 1105      		cpc r17,__zero_reg__
 264 0234 01F4      		brne .L9
 265 0236 93E0      		ldi r25,lo8(3)
 266               	.LVL8:
 267 0238 00C0      		rjmp .L6
 268               	.LVL9:
 269               	.L9:
 270               	.LM48:
 271 023a 0031      		cpi r16,16
 272 023c 1105      		cpc r17,__zero_reg__
 273 023e 01F4      		brne .L10
 274 0240 92E0      		ldi r25,lo8(2)
 275               	.LVL10:
 276 0242 00C0      		rjmp .L6
 277               	.LVL11:
 278               	.L10:
 279 0244 90E0      		ldi r25,lo8(0)
 280               	.LVL12:
 281 0246 0032      		cpi r16,32
 282 0248 1105      		cpc r17,__zero_reg__
 283 024a 01F4      		brne .L6
 284 024c 91E0      		ldi r25,lo8(1)
 285               	.L6:
 286               	.LM49:
 287               	/* #APP */
 288               	 ;  273 "timebase.c" 1
 289 024e F894      		cli
 290               	 ;  0 "" 2
 291               	.LM50:
 292               	/* #NOAPP */
 293 0250 84B7      		in r24,84-32
 294 0252 877F      		andi r24,lo8(-9)
 295 0254 84BF      		out 84-32,r24
 296               	.LM51:
 297 0256 8091 6000 		lds r24,96
 298 025a 8068      		ori r24,lo8(-128)
 299 025c 8093 6000 		sts 96,r24
 300               	.LM52:
 301 0260 8091 6000 		lds r24,96
 302 0264 8861      		ori r24,lo8(24)
 303 0266 8093 6000 		sts 96,r24
 304               	.LM53:
 305 026a 9064      		ori r25,lo8(64)
 306 026c 9093 6000 		sts 96,r25
 307               	.LM54:
 308               	/* #APP */
 309               	 ;  278 "timebase.c" 1
 310 0270 7894      		sei
 311               	 ;  0 "" 2
 312               	/* #NOAPP */
 313 0272 00C0      		rjmp .L12
 314               	.LVL13:
 315               	.L4:
 316               	.LBE599:
 317               	.LM55:
 318 0274 81FD      		sbrc r24,1
 319 0276 00C0      		rjmp .L12
 320               	.LM56:
 321 0278 82FF      		sbrs r24,2
 322 027a 00C0      		rjmp .L12
 323               	.LBB600:
 324               	.LM57:
 325 027c DE01      		movw r26,r28
 326 027e 1196      		adiw r26,1
 327 0280 E0E0      		ldi r30,lo8(C.2.1708)
 328 0282 F0E0      		ldi r31,hi8(C.2.1708)
 329 0284 8AE0      		ldi r24,lo8(10)
 330               	.L13:
 331 0286 0190      		ld r0,Z+
 332 0288 0D92      		st X+,r0
 333 028a 8150      		subi r24,lo8(-(-1))
 334 028c 01F4      		brne .L13
 335               	.LM58:
 336 028e 9801      		movw r18,r16
 337 0290 40E0      		ldi r20,lo8(0)
 338 0292 50E0      		ldi r21,hi8(0)
 339               	.LVL14:
 340 0294 60E0      		ldi r22,lo8(12000000)
 341 0296 7BE1      		ldi r23,hi8(12000000)
 342 0298 87EB      		ldi r24,hlo8(12000000)
 343 029a 90E0      		ldi r25,hhi8(12000000)
 344 029c 0E94 0000 		call __divmodsi4
 345 02a0 722E      		mov r7,r18
 346 02a2 832E      		mov r8,r19
 347 02a4 942E      		mov r9,r20
 348               	.LVL15:
 349 02a6 E52E      		mov r14,r21
 350 02a8 5E01      		movw r10,r28
 351 02aa 0894      		sec
 352 02ac A11C      		adc r10,__zero_reg__
 353 02ae B11C      		adc r11,__zero_reg__
 354 02b0 C901      		movw r24,r18
 355 02b2 DA01      		movw r26,r20
 356 02b4 9C01      		movw r18,r24
 357 02b6 AD01      		movw r20,r26
 358               	.LVL16:
 359 02b8 FF24      		clr r15
 360               	.LVL17:
 361 02ba 00C0      		rjmp .L14
 362               	.LVL18:
 363               	.L16:
 364               	.LM59:
 365 02bc F501      		movw r30,r10
 366 02be 2191      		ld r18,Z+
 367 02c0 3191      		ld r19,Z+
 368               	.LVL19:
 369 02c2 5F01      		movw r10,r30
 370 02c4 40E0      		ldi r20,lo8(0)
 371 02c6 50E0      		ldi r21,hi8(0)
 372 02c8 672D      		mov r22,r7
 373 02ca 782D      		mov r23,r8
 374 02cc 892D      		mov r24,r9
 375               	.LVL20:
 376 02ce 9E2D      		mov r25,r14
 377 02d0 0E94 0000 		call __divmodsi4
 378 02d4 C901      		movw r24,r18
 379 02d6 DA01      		movw r26,r20
 380 02d8 9C01      		movw r18,r24
 381 02da AD01      		movw r20,r26
 382               	.LVL21:
 383               	.LM60:
 384 02dc F394      		inc r15
 385               	.LM61:
 386 02de F5E0      		ldi r31,lo8(5)
 387 02e0 FF16      		cp r15,r31
 388 02e2 01F0      		breq .L15
 389               	.LVL22:
 390               	.L14:
 391               	.LM62:
 392 02e4 2F3F      		cpi r18,lo8(255)
 393 02e6 3105      		cpc r19,__zero_reg__
 394 02e8 4105      		cpc r20,__zero_reg__
 395 02ea 5105      		cpc r21,__zero_reg__
 396 02ec 01F0      		breq .+2
 397 02ee 04F4      		brge .L16
 398               	.L15:
 399               	.LM63:
 400 02f0 8F2D      		mov r24,r15
 401 02f2 8150      		subi r24,lo8(-(-1))
 402               	.LVL23:
 403               	.LM64:
 404 02f4 14BC      		out 68-32,__zero_reg__
 405               	.LM65:
 406 02f6 15BC      		out 69-32,__zero_reg__
 407               	.LM66:
 408 02f8 1092 6E00 		sts 110,__zero_reg__
 409               	.LM67:
 410 02fc 15BA      		out 53-32,__zero_reg__
 411               	.LM68:
 412 02fe 17BC      		out 71-32,__zero_reg__
 413               	.LM69:
 414 0300 18BC      		out 72-32,__zero_reg__
 415               	.LM70:
 416 0302 16BC      		out 70-32,__zero_reg__
 417               	.LM71:
 418 0304 17BC      		out 71-32,__zero_reg__
 419               	.LM72:
 420 0306 8823      		tst r24
 421 0308 01F4      		brne .L17
 422               	.LM73:
 423 030a 81E0      		ldi r24,lo8(1)
 424               	.LVL24:
 425 030c 00C0      		rjmp .L24
 426               	.LVL25:
 427               	.L17:
 428               	.LM74:
 429 030e 8130      		cpi r24,lo8(1)
 430 0310 01F4      		brne .L19
 431               	.LM75:
 432 0312 82E0      		ldi r24,lo8(2)
 433               	.LVL26:
 434 0314 00C0      		rjmp .L24
 435               	.LVL27:
 436               	.L19:
 437               	.LM76:
 438 0316 8230      		cpi r24,lo8(2)
 439 0318 01F4      		brne .L20
 440               	.LM77:
 441 031a 83E0      		ldi r24,lo8(3)
 442               	.LVL28:
 443 031c 00C0      		rjmp .L24
 444               	.LVL29:
 445               	.L20:
 446               	.LM78:
 447 031e 8330      		cpi r24,lo8(3)
 448 0320 01F4      		brne .L21
 449               	.LM79:
 450 0322 84E0      		ldi r24,lo8(4)
 451               	.LVL30:
 452 0324 00C0      		rjmp .L24
 453               	.LVL31:
 454               	.L21:
 455               	.LM80:
 456 0326 8430      		cpi r24,lo8(4)
 457 0328 01F4      		brne .L18
 458               	.LM81:
 459 032a 85E0      		ldi r24,lo8(5)
 460               	.LVL32:
 461               	.L24:
 462 032c 85BD      		out 69-32,r24
 463               	.LVL33:
 464               	.L18:
 465               	.LM82:
 466 032e 822F      		mov r24,r18
 467               	.LVL34:
 468 0330 8095      		com r24
 469 0332 F601      		movw r30,r12
 470 0334 8383      		std Z+3,r24
 471               	.LM83:
 472 0336 8381      		ldd r24,Z+3
 473 0338 86BD      		out 70-32,r24
 474               	.LM84:
 475 033a 81E0      		ldi r24,lo8(1)
 476 033c 8093 6E00 		sts 110,r24
 477               	.LM85:
 478               	/* #APP */
 479               	 ;  326 "timebase.c" 1
 480 0340 7894      		sei
 481               	 ;  0 "" 2
 482               	.LVL35:
 483               	/* #NOAPP */
 484               	.L12:
 485               	.LBE600:
 486               	.LM86:
 487 0342 F601      		movw r30,r12
 488 0344 1283      		std Z+2,r17
 489 0346 0183      		std Z+1,r16
 490               	/* epilogue start */
 491               	.LM87:
 492 0348 2A96      		adiw r28,10
 493 034a 0FB6      		in __tmp_reg__,__SREG__
 494 034c F894      		cli
 495 034e DEBF      		out __SP_H__,r29
 496 0350 0FBE      		out __SREG__,__tmp_reg__
 497 0352 CDBF      		out __SP_L__,r28
 498 0354 CF91      		pop r28
 499 0356 DF91      		pop r29
 500 0358 1F91      		pop r17
 501 035a 0F91      		pop r16
 502               	.LVL36:
 503 035c FF90      		pop r15
 504 035e EF90      		pop r14
 505 0360 DF90      		pop r13
 506 0362 CF90      		pop r12
 507 0364 BF90      		pop r11
 508 0366 AF90      		pop r10
 509 0368 9F90      		pop r9
 510 036a 8F90      		pop r8
 511 036c 7F90      		pop r7
 512 036e 0895      		ret
 513               	.LFE7:
 515               	.global	Timebase_Atomic_Operation_Start
 517               	Timebase_Atomic_Operation_Start:
 518               	.LFB8:
 519               	.LM88:
 520               	/* prologue: function */
 521               	/* frame size = 0 */
 522               	.LM89:
 523               	/* #APP */
 524               	 ;  346 "timebase.c" 1
 525 0370 F894      		cli
 526               	 ;  0 "" 2
 527               	/* epilogue start */
 528               	.LM90:
 529               	/* #NOAPP */
 530 0372 0895      		ret
 531               	.LFE8:
 533               	.global	Timebase_Atomic_Operation_End
 535               	Timebase_Atomic_Operation_End:
 536               	.LFB9:
 537               	.LM91:
 538               	/* prologue: function */
 539               	/* frame size = 0 */
 540               	.LM92:
 541               	/* #APP */
 542               	 ;  350 "timebase.c" 1
 543 0374 7894      		sei
 544               	 ;  0 "" 2
 545               	/* epilogue start */
 546               	.LM93:
 547               	/* #NOAPP */
 548 0376 0895      		ret
 549               	.LFE9:
 551               	.global	Timebase_Token_Executing
 553               	Timebase_Token_Executing:
 554               	.LFB10:
 555               	.LM94:
 556               	/* prologue: function */
 557               	/* frame size = 0 */
 558               	.LM95:
 559 0378 E091 0000 		lds r30,Timebase
 560 037c F091 0000 		lds r31,(Timebase)+1
 561 0380 878D      		ldd r24,Z+31
 562               	/* epilogue start */
 563               	.LM96:
 564 0382 0895      		ret
 565               	.LFE10:
 567               	.global	Timebase_Token_Add
 569               	Timebase_Token_Add:
 570               	.LFB11:
 571               	.LM97:
 572               	/* prologue: function */
 573               	/* frame size = 0 */
 574               	.LBB601:
 575               	.LBB602:
 576               	.LM98:
 577 0384 E091 0000 		lds r30,Timebase
 578 0388 F091 0000 		lds r31,(Timebase)+1
 579 038c 878D      		ldd r24,Z+31
 580               	.LBE602:
 581               	.LBE601:
 582               	.LM99:
 583 038e 8F33      		cpi r24,lo8(63)
 584 0390 00F4      		brsh .L33
 585               	.LM100:
 586 0392 878D      		ldd r24,Z+31
 587 0394 8F5F      		subi r24,lo8(-(1))
 588 0396 878F      		std Z+31,r24
 589               	.L33:
 590 0398 0895      		ret
 591               	.LFE11:
 593               	.global	Timebase_Token_Remove
 595               	Timebase_Token_Remove:
 596               	.LFB12:
 597               	.LM101:
 598               	/* prologue: function */
 599               	/* frame size = 0 */
 600               	.LBB603:
 601               	.LBB604:
 602               	.LM102:
 603 039a E091 0000 		lds r30,Timebase
 604 039e F091 0000 		lds r31,(Timebase)+1
 605 03a2 878D      		ldd r24,Z+31
 606               	.LBE604:
 607               	.LBE603:
 608               	.LM103:
 609 03a4 8823      		tst r24
 610 03a6 01F0      		breq .L36
 611               	.LM104:
 612 03a8 878D      		ldd r24,Z+31
 613 03aa 8150      		subi r24,lo8(-(-1))
 614 03ac 878F      		std Z+31,r24
 615               	.L36:
 616 03ae 0895      		ret
 617               	.LFE12:
 619               	.global	Timebase_Token_Remove_All
 621               	Timebase_Token_Remove_All:
 622               	.LFB13:
 623               	.LM105:
 624               	/* prologue: function */
 625               	/* frame size = 0 */
 626               	.LM106:
 627 03b0 E091 0000 		lds r30,Timebase
 628 03b4 F091 0000 		lds r31,(Timebase)+1
 629 03b8 178E      		std Z+31,__zero_reg__
 630               	/* epilogue start */
 631               	.LM107:
 632 03ba 0895      		ret
 633               	.LFE13:
 635               	.global	Timebase_Timer_Get_SubSecondsShadow
 637               	Timebase_Timer_Get_SubSecondsShadow:
 638               	.LFB14:
 639               	.LM108:
 640               	/* prologue: function */
 641               	/* frame size = 0 */
 642               	.LM109:
 643 03bc E091 0000 		lds r30,Timebase
 644 03c0 F091 0000 		lds r31,(Timebase)+1
 645 03c4 2685      		ldd r18,Z+14
 646 03c6 3785      		ldd r19,Z+15
 647               	.LM110:
 648 03c8 C901      		movw r24,r18
 649               	/* epilogue start */
 650 03ca 0895      		ret
 651               	.LFE14:
 653               	.global	Timebase_Timer_Get_SecondsShadow
 655               	Timebase_Timer_Get_SecondsShadow:
 656               	.LFB15:
 657               	.LM111:
 658               	/* prologue: function */
 659               	/* frame size = 0 */
 660               	.LM112:
 661 03cc E091 0000 		lds r30,Timebase
 662 03d0 F091 0000 		lds r31,(Timebase)+1
 663 03d4 2089      		ldd r18,Z+16
 664 03d6 3189      		ldd r19,Z+17
 665 03d8 4289      		ldd r20,Z+18
 666 03da 5389      		ldd r21,Z+19
 667               	.LM113:
 668 03dc B901      		movw r22,r18
 669 03de CA01      		movw r24,r20
 670               	/* epilogue start */
 671 03e0 0895      		ret
 672               	.LFE15:
 674               	.global	Timebase_Timer_Get_SubSeconds
 676               	Timebase_Timer_Get_SubSeconds:
 677               	.LFB16:
 678               	.LM114:
 679               	/* prologue: function */
 680               	/* frame size = 0 */
 681               	.LM115:
 682 03e2 E091 0000 		lds r30,Timebase
 683 03e6 F091 0000 		lds r31,(Timebase)+1
 684 03ea 2085      		ldd r18,Z+8
 685 03ec 3185      		ldd r19,Z+9
 686               	.LM116:
 687 03ee C901      		movw r24,r18
 688               	/* epilogue start */
 689 03f0 0895      		ret
 690               	.LFE16:
 692               	.global	Timebase_Timer_Get_Seconds
 694               	Timebase_Timer_Get_Seconds:
 695               	.LFB17:
 696               	.LM117:
 697               	/* prologue: function */
 698               	/* frame size = 0 */
 699               	.LM118:
 700 03f2 E091 0000 		lds r30,Timebase
 701 03f6 F091 0000 		lds r31,(Timebase)+1
 702 03fa 2285      		ldd r18,Z+10
 703 03fc 3385      		ldd r19,Z+11
 704 03fe 4485      		ldd r20,Z+12
 705 0400 5585      		ldd r21,Z+13
 706               	.LM119:
 707 0402 B901      		movw r22,r18
 708 0404 CA01      		movw r24,r20
 709               	/* epilogue start */
 710 0406 0895      		ret
 711               	.LFE17:
 713               	.global	Timebase_Timer_Set_SubSeconds
 715               	Timebase_Timer_Set_SubSeconds:
 716               	.LFB18:
 717               	.LM120:
 718               	.LVL37:
 719               	/* prologue: function */
 720               	/* frame size = 0 */
 721               	.LM121:
 722 0408 E091 0000 		lds r30,Timebase
 723 040c F091 0000 		lds r31,(Timebase)+1
 724 0410 9187      		std Z+9,r25
 725 0412 8087      		std Z+8,r24
 726               	/* epilogue start */
 727               	.LM122:
 728 0414 0895      		ret
 729               	.LFE18:
 731               	.global	Timebase_Timer_Set_Seconds
 733               	Timebase_Timer_Set_Seconds:
 734               	.LFB19:
 735               	.LM123:
 736               	.LVL38:
 737               	/* prologue: function */
 738               	/* frame size = 0 */
 739               	.LM124:
 740 0416 E091 0000 		lds r30,Timebase
 741 041a F091 0000 		lds r31,(Timebase)+1
 742 041e 6287      		std Z+10,r22
 743 0420 7387      		std Z+11,r23
 744 0422 8487      		std Z+12,r24
 745 0424 9587      		std Z+13,r25
 746               	/* epilogue start */
 747               	.LM125:
 748 0426 0895      		ret
 749               	.LFE19:
 751               	.global	Timebase_Timer_Sync_With_Shadow_Variables
 753               	Timebase_Timer_Sync_With_Shadow_Variables:
 754               	.LFB20:
 755               	.LM126:
 756               	/* prologue: function */
 757               	/* frame size = 0 */
 758               	.LM127:
 759 0428 E091 0000 		lds r30,Timebase
 760 042c F091 0000 		lds r31,(Timebase)+1
 761 0430 8489      		ldd r24,Z+20
 762 0432 8823      		tst r24
 763 0434 01F4      		brne .L53
 764               	.LBB605:
 765               	.LBB606:
 766               	.LM128:
 767               	/* #APP */
 768               	 ;  346 "timebase.c" 1
 769 0436 F894      		cli
 770               	 ;  0 "" 2
 771               	/* #NOAPP */
 772               	.LBE606:
 773               	.LBE605:
 774               	.LM129:
 775 0438 8685      		ldd r24,Z+14
 776 043a 9785      		ldd r25,Z+15
 777 043c 9187      		std Z+9,r25
 778 043e 8087      		std Z+8,r24
 779               	.LM130:
 780 0440 8089      		ldd r24,Z+16
 781 0442 9189      		ldd r25,Z+17
 782 0444 A289      		ldd r26,Z+18
 783 0446 B389      		ldd r27,Z+19
 784 0448 8287      		std Z+10,r24
 785 044a 9387      		std Z+11,r25
 786 044c A487      		std Z+12,r26
 787 044e B587      		std Z+13,r27
 788               	.LBB607:
 789               	.LBB608:
 790               	.LM131:
 791               	/* #APP */
 792               	 ;  350 "timebase.c" 1
 793 0450 7894      		sei
 794               	 ;  0 "" 2
 795               	/* #NOAPP */
 796               	.LBE608:
 797               	.LBE607:
 798               	.LM132:
 799 0452 81E0      		ldi r24,lo8(1)
 800 0454 848B      		std Z+20,r24
 801               	.L53:
 802 0456 0895      		ret
 803               	.LFE20:
 805               	.global	Timebase_Timer_Delay_SubSeconds
 807               	Timebase_Timer_Delay_SubSeconds:
 808               	.LFB21:
 809               	.LM133:
 810               	.LVL39:
 811 0458 6F92      		push r6
 812 045a 7F92      		push r7
 813 045c 8F92      		push r8
 814 045e 9F92      		push r9
 815 0460 AF92      		push r10
 816 0462 BF92      		push r11
 817 0464 CF92      		push r12
 818 0466 DF92      		push r13
 819 0468 EF92      		push r14
 820 046a FF92      		push r15
 821 046c 0F93      		push r16
 822 046e 1F93      		push r17
 823 0470 CF93      		push r28
 824 0472 DF93      		push r29
 825               	/* prologue: function */
 826               	/* frame size = 0 */
 827 0474 5C01      		movw r10,r24
 828               	.LBB609:
 829               	.LBB610:
 830               	.LM134:
 831               	/* #APP */
 832               	 ;  346 "timebase.c" 1
 833 0476 F894      		cli
 834               	 ;  0 "" 2
 835               	/* #NOAPP */
 836               	.LBE610:
 837               	.LBE609:
 838               	.LBB611:
 839               	.LBB612:
 840               	.LM135:
 841 0478 C091 0000 		lds r28,Timebase
 842 047c D091 0000 		lds r29,(Timebase)+1
 843 0480 EE84      		ldd r14,Y+14
 844 0482 FF84      		ldd r15,Y+15
 845               	.LBE612:
 846               	.LBE611:
 847               	.LBB613:
 848               	.LBB614:
 849               	.LM136:
 850 0484 2889      		ldd r18,Y+16
 851 0486 3989      		ldd r19,Y+17
 852 0488 4A89      		ldd r20,Y+18
 853 048a 5B89      		ldd r21,Y+19
 854               	.LVL40:
 855               	.LBE614:
 856               	.LBE613:
 857               	.LBB615:
 858               	.LBB616:
 859               	.LM137:
 860               	/* #APP */
 861               	 ;  350 "timebase.c" 1
 862 048c 7894      		sei
 863               	 ;  0 "" 2
 864               	/* #NOAPP */
 865               	.LBE616:
 866               	.LBE615:
 867               	.LM138:
 868 048e 6981      		ldd r22,Y+1
 869 0490 7A81      		ldd r23,Y+2
 870 0492 80E0      		ldi r24,lo8(0)
 871 0494 90E0      		ldi r25,hi8(0)
 872               	.LVL41:
 873 0496 0E94 0000 		call __mulsi3
 874               	.LVL42:
 875 049a 3B01      		movw r6,r22
 876 049c 4C01      		movw r8,r24
 877               	.LVL43:
 878               	.LM139:
 879 049e 00E0      		ldi r16,lo8(0)
 880 04a0 10E0      		ldi r17,hi8(0)
 881 04a2 6E0C      		add r6,r14
 882 04a4 7F1C      		adc r7,r15
 883 04a6 801E      		adc r8,r16
 884 04a8 911E      		adc r9,r17
 885               	.LM140:
 886 04aa CC24      		clr r12
 887 04ac DD24      		clr r13
 888               	.LVL44:
 889 04ae 6A0C      		add r6,r10
 890 04b0 7B1C      		adc r7,r11
 891 04b2 8C1C      		adc r8,r12
 892 04b4 9D1C      		adc r9,r13
 893 04b6 60E0      		ldi r22,lo8(0)
 894 04b8 70E0      		ldi r23,hi8(0)
 895 04ba 80E0      		ldi r24,hlo8(0)
 896 04bc 90E0      		ldi r25,hhi8(0)
 897               	.LVL45:
 898 04be 00C0      		rjmp .L55
 899               	.L56:
 900               	.LBB617:
 901               	.LBB618:
 902               	.LM141:
 903               	/* #APP */
 904               	 ;  346 "timebase.c" 1
 905 04c0 F894      		cli
 906               	 ;  0 "" 2
 907               	/* #NOAPP */
 908               	.LBE618:
 909               	.LBE617:
 910               	.LBB619:
 911               	.LBB620:
 912               	.LM142:
 913 04c2 EE84      		ldd r14,Y+14
 914 04c4 FF84      		ldd r15,Y+15
 915               	.LBE620:
 916               	.LBE619:
 917               	.LBB621:
 918               	.LBB622:
 919               	.LM143:
 920 04c6 2889      		ldd r18,Y+16
 921 04c8 3989      		ldd r19,Y+17
 922 04ca 4A89      		ldd r20,Y+18
 923 04cc 5B89      		ldd r21,Y+19
 924               	.LVL46:
 925               	.LBE622:
 926               	.LBE621:
 927               	.LBB623:
 928               	.LBB624:
 929               	.LM144:
 930               	/* #APP */
 931               	 ;  350 "timebase.c" 1
 932 04ce 7894      		sei
 933               	 ;  0 "" 2
 934               	/* #NOAPP */
 935               	.LBE624:
 936               	.LBE623:
 937               	.LM145:
 938 04d0 6981      		ldd r22,Y+1
 939 04d2 7A81      		ldd r23,Y+2
 940               	.LVL47:
 941 04d4 80E0      		ldi r24,lo8(0)
 942 04d6 90E0      		ldi r25,hi8(0)
 943 04d8 0E94 0000 		call __mulsi3
 944               	.LVL48:
 945               	.LM146:
 946 04dc 00E0      		ldi r16,lo8(0)
 947 04de 10E0      		ldi r17,hi8(0)
 948 04e0 6E0D      		add r22,r14
 949 04e2 7F1D      		adc r23,r15
 950 04e4 801F      		adc r24,r16
 951 04e6 911F      		adc r25,r17
 952               	.LVL49:
 953               	.L55:
 954               	.LM147:
 955 04e8 6615      		cp r22,r6
 956 04ea 7705      		cpc r23,r7
 957 04ec 8805      		cpc r24,r8
 958 04ee 9905      		cpc r25,r9
 959 04f0 04F0      		brlt .L56
 960               	/* epilogue start */
 961               	.LM148:
 962 04f2 DF91      		pop r29
 963 04f4 CF91      		pop r28
 964 04f6 1F91      		pop r17
 965 04f8 0F91      		pop r16
 966 04fa FF90      		pop r15
 967 04fc EF90      		pop r14
 968 04fe DF90      		pop r13
 969 0500 CF90      		pop r12
 970               	.LVL50:
 971 0502 BF90      		pop r11
 972 0504 AF90      		pop r10
 973               	.LVL51:
 974 0506 9F90      		pop r9
 975 0508 8F90      		pop r8
 976 050a 7F90      		pop r7
 977 050c 6F90      		pop r6
 978               	.LVL52:
 979 050e 0895      		ret
 980               	.LFE21:
 982               	.global	Timebase_Timer_Await_SubSeconds
 984               	Timebase_Timer_Await_SubSeconds:
 985               	.LFB22:
 986               	.LM149:
 987               	.LVL53:
 988               	/* prologue: function */
 989               	/* frame size = 0 */
 990 0510 BC01      		movw r22,r24
 991               	.LBB625:
 992               	.LBB626:
 993               	.LM150:
 994               	/* #APP */
 995               	 ;  346 "timebase.c" 1
 996 0512 F894      		cli
 997               	 ;  0 "" 2
 998               	/* #NOAPP */
 999               	.LBE626:
 1000               	.LBE625:
 1001               	.LBB627:
 1002               	.LBB628:
 1003               	.LM151:
 1004 0514 E091 0000 		lds r30,Timebase
 1005 0518 F091 0000 		lds r31,(Timebase)+1
 1006 051c 00C0      		rjmp .L63
 1007               	.LVL54:
 1008               	.L60:
 1009               	.LBE628:
 1010               	.LBE627:
 1011               	.LBB629:
 1012               	.LBB630:
 1013               	.LM152:
 1014               	/* #APP */
 1015               	 ;  346 "timebase.c" 1
 1016 051e F894      		cli
 1017               	 ;  0 "" 2
 1018               	.LVL55:
 1019               	/* #NOAPP */
 1020               	.L63:
 1021               	.LBE630:
 1022               	.LBE629:
 1023               	.LBB631:
 1024               	.LBB632:
 1025               	.LM153:
 1026 0520 8685      		ldd r24,Z+14
 1027 0522 9785      		ldd r25,Z+15
 1028               	.LBE632:
 1029               	.LBE631:
 1030               	.LBB633:
 1031               	.LBB634:
 1032               	.LM154:
 1033               	/* #APP */
 1034               	 ;  350 "timebase.c" 1
 1035 0524 7894      		sei
 1036               	 ;  0 "" 2
 1037               	/* #NOAPP */
 1038               	.LBE634:
 1039               	.LBE633:
 1040               	.LM155:
 1041 0526 2481      		ldd r18,Z+4
 1042 0528 3581      		ldd r19,Z+5
 1043 052a 4681      		ldd r20,Z+6
 1044 052c 5781      		ldd r21,Z+7
 1045 052e A0E0      		ldi r26,lo8(0)
 1046 0530 B0E0      		ldi r27,hi8(0)
 1047 0532 8217      		cp r24,r18
 1048 0534 9307      		cpc r25,r19
 1049 0536 A407      		cpc r26,r20
 1050 0538 B507      		cpc r27,r21
 1051 053a 01F4      		brne .L60
 1052               	.LBB635:
 1053               	.LBB636:
 1054               	.LM156:
 1055               	/* #APP */
 1056               	 ;  346 "timebase.c" 1
 1057 053c F894      		cli
 1058               	 ;  0 "" 2
 1059               	/* #NOAPP */
 1060               	.LBE636:
 1061               	.LBE635:
 1062               	.LBB637:
 1063               	.LBB638:
 1064               	.LM157:
 1065 053e 8685      		ldd r24,Z+14
 1066 0540 9785      		ldd r25,Z+15
 1067               	.LVL56:
 1068               	.LBE638:
 1069               	.LBE637:
 1070               	.LBB639:
 1071               	.LBB640:
 1072               	.LM158:
 1073               	/* #APP */
 1074               	 ;  350 "timebase.c" 1
 1075 0542 7894      		sei
 1076               	 ;  0 "" 2
 1077               	/* #NOAPP */
 1078               	.LBE640:
 1079               	.LBE639:
 1080               	.LM159:
 1081 0544 A0E0      		ldi r26,lo8(0)
 1082 0546 B0E0      		ldi r27,hi8(0)
 1083               	.LVL57:
 1084 0548 8483      		std Z+4,r24
 1085 054a 9583      		std Z+5,r25
 1086 054c A683      		std Z+6,r26
 1087 054e B783      		std Z+7,r27
 1088               	.LVL58:
 1089               	.LM160:
 1090 0550 2481      		ldd r18,Z+4
 1091 0552 3581      		ldd r19,Z+5
 1092 0554 4681      		ldd r20,Z+6
 1093 0556 5781      		ldd r21,Z+7
 1094 0558 CB01      		movw r24,r22
 1095 055a A0E0      		ldi r26,lo8(0)
 1096 055c B0E0      		ldi r27,hi8(0)
 1097               	.LVL59:
 1098 055e 820F      		add r24,r18
 1099 0560 931F      		adc r25,r19
 1100 0562 A41F      		adc r26,r20
 1101 0564 B51F      		adc r27,r21
 1102               	.LVL60:
 1103 0566 8483      		std Z+4,r24
 1104 0568 9583      		std Z+5,r25
 1105 056a A683      		std Z+6,r26
 1106 056c B783      		std Z+7,r27
 1107               	.LM161:
 1108 056e 2481      		ldd r18,Z+4
 1109 0570 3581      		ldd r19,Z+5
 1110 0572 4681      		ldd r20,Z+6
 1111 0574 5781      		ldd r21,Z+7
 1112 0576 8181      		ldd r24,Z+1
 1113 0578 9281      		ldd r25,Z+2
 1114               	.LVL61:
 1115 057a A0E0      		ldi r26,lo8(0)
 1116 057c B0E0      		ldi r27,hi8(0)
 1117               	.LVL62:
 1118 057e 2817      		cp r18,r24
 1119 0580 3907      		cpc r19,r25
 1120 0582 4A07      		cpc r20,r26
 1121 0584 5B07      		cpc r21,r27
 1122 0586 04F0      		brlt .L62
 1123               	.LM162:
 1124 0588 2481      		ldd r18,Z+4
 1125 058a 3581      		ldd r19,Z+5
 1126 058c 4681      		ldd r20,Z+6
 1127 058e 5781      		ldd r21,Z+7
 1128 0590 8181      		ldd r24,Z+1
 1129 0592 9281      		ldd r25,Z+2
 1130 0594 A0E0      		ldi r26,lo8(0)
 1131 0596 B0E0      		ldi r27,hi8(0)
 1132 0598 281B      		sub r18,r24
 1133 059a 390B      		sbc r19,r25
 1134 059c 4A0B      		sbc r20,r26
 1135 059e 5B0B      		sbc r21,r27
 1136 05a0 2483      		std Z+4,r18
 1137 05a2 3583      		std Z+5,r19
 1138 05a4 4683      		std Z+6,r20
 1139 05a6 5783      		std Z+7,r21
 1140               	.L62:
 1141 05a8 0895      		ret
 1142               	.LFE22:
 1144               	.global	Timebase_Timer_Delay_Seconds
 1146               	Timebase_Timer_Delay_Seconds:
 1147               	.LFB23:
 1148               	.LM163:
 1149               	.LVL63:
 1150               	/* prologue: function */
 1151               	/* frame size = 0 */
 1152               	.LBB641:
 1153               	.LBB642:
 1154               	.LM164:
 1155               	/* #APP */
 1156               	 ;  346 "timebase.c" 1
 1157 05aa F894      		cli
 1158               	 ;  0 "" 2
 1159               	/* #NOAPP */
 1160               	.LBE642:
 1161               	.LBE641:
 1162               	.LBB643:
 1163               	.LBB644:
 1164               	.LM165:
 1165 05ac E091 0000 		lds r30,Timebase
 1166 05b0 F091 0000 		lds r31,(Timebase)+1
 1167 05b4 2089      		ldd r18,Z+16
 1168 05b6 3189      		ldd r19,Z+17
 1169 05b8 4289      		ldd r20,Z+18
 1170 05ba 5389      		ldd r21,Z+19
 1171               	.LVL64:
 1172               	.LBE644:
 1173               	.LBE643:
 1174               	.LBB645:
 1175               	.LBB646:
 1176               	.LM166:
 1177               	/* #APP */
 1178               	 ;  350 "timebase.c" 1
 1179 05bc 7894      		sei
 1180               	 ;  0 "" 2
 1181               	/* #NOAPP */
 1182               	.LBE646:
 1183               	.LBE645:
 1184               	.LM167:
 1185 05be A0E0      		ldi r26,lo8(0)
 1186 05c0 B0E0      		ldi r27,hi8(0)
 1187               	.LVL65:
 1188 05c2 820F      		add r24,r18
 1189 05c4 931F      		adc r25,r19
 1190 05c6 A41F      		adc r26,r20
 1191 05c8 B51F      		adc r27,r21
 1192               	.LVL66:
 1193 05ca 20E0      		ldi r18,lo8(0)
 1194 05cc 30E0      		ldi r19,hi8(0)
 1195 05ce 40E0      		ldi r20,hlo8(0)
 1196 05d0 50E0      		ldi r21,hhi8(0)
 1197               	.LVL67:
 1198 05d2 00C0      		rjmp .L65
 1199               	.L66:
 1200               	.LBB647:
 1201               	.LBB648:
 1202               	.LM168:
 1203               	/* #APP */
 1204               	 ;  346 "timebase.c" 1
 1205 05d4 F894      		cli
 1206               	 ;  0 "" 2
 1207               	/* #NOAPP */
 1208               	.LBE648:
 1209               	.LBE647:
 1210               	.LBB649:
 1211               	.LBB650:
 1212               	.LM169:
 1213 05d6 2089      		ldd r18,Z+16
 1214 05d8 3189      		ldd r19,Z+17
 1215 05da 4289      		ldd r20,Z+18
 1216 05dc 5389      		ldd r21,Z+19
 1217               	.LBE650:
 1218               	.LBE649:
 1219               	.LBB651:
 1220               	.LBB652:
 1221               	.LM170:
 1222               	/* #APP */
 1223               	 ;  350 "timebase.c" 1
 1224 05de 7894      		sei
 1225               	 ;  0 "" 2
 1226               	/* #NOAPP */
 1227               	.L65:
 1228               	.LBE652:
 1229               	.LBE651:
 1230               	.LM171:
 1231 05e0 2817      		cp r18,r24
 1232 05e2 3907      		cpc r19,r25
 1233 05e4 4A07      		cpc r20,r26
 1234 05e6 5B07      		cpc r21,r27
 1235 05e8 04F0      		brlt .L66
 1236               	/* epilogue start */
 1237               	.LM172:
 1238 05ea 0895      		ret
 1239               	.LFE23:
 1241               	.global	Timebase_Window_Timer_Reset
 1243               	Timebase_Window_Timer_Reset:
 1244               	.LFB24:
 1245               	.LM173:
 1246               	/* prologue: function */
 1247               	/* frame size = 0 */
 1248               	.LM174:
 1249 05ec E091 0000 		lds r30,Timebase
 1250 05f0 F091 0000 		lds r31,(Timebase)+1
 1251 05f4 158A      		std Z+21,__zero_reg__
 1252 05f6 168A      		std Z+22,__zero_reg__
 1253 05f8 178A      		std Z+23,__zero_reg__
 1254 05fa 108E      		std Z+24,__zero_reg__
 1255               	.LM175:
 1256 05fc 118E      		std Z+25,__zero_reg__
 1257 05fe 128E      		std Z+26,__zero_reg__
 1258 0600 138E      		std Z+27,__zero_reg__
 1259 0602 148E      		std Z+28,__zero_reg__
 1260               	.LM176:
 1261 0604 158E      		std Z+29,__zero_reg__
 1262               	/* epilogue start */
 1263               	.LM177:
 1264 0606 0895      		ret
 1265               	.LFE24:
 1267               	.global	Timebase_Window_Timer_Start
 1269               	Timebase_Window_Timer_Start:
 1270               	.LFB25:
 1271               	.LM178:
 1272               	/* prologue: function */
 1273               	/* frame size = 0 */
 1274               	.LM179:
 1275 0608 E091 0000 		lds r30,Timebase
 1276 060c F091 0000 		lds r31,(Timebase)+1
 1277 0610 858D      		ldd r24,Z+29
 1278 0612 8823      		tst r24
 1279 0614 01F4      		brne .L72
 1280               	.LBB653:
 1281               	.LBB654:
 1282               	.LM180:
 1283               	/* #APP */
 1284               	 ;  346 "timebase.c" 1
 1285 0616 F894      		cli
 1286               	 ;  0 "" 2
 1287               	/* #NOAPP */
 1288               	.LBE654:
 1289               	.LBE653:
 1290               	.LBB655:
 1291               	.LBB656:
 1292               	.LM181:
 1293 0618 8089      		ldd r24,Z+16
 1294 061a 9189      		ldd r25,Z+17
 1295 061c A289      		ldd r26,Z+18
 1296 061e B389      		ldd r27,Z+19
 1297               	.LBE656:
 1298               	.LBE655:
 1299               	.LM182:
 1300 0620 858B      		std Z+21,r24
 1301 0622 968B      		std Z+22,r25
 1302 0624 A78B      		std Z+23,r26
 1303 0626 B08F      		std Z+24,r27
 1304               	.LBB657:
 1305               	.LBB658:
 1306               	.LM183:
 1307 0628 8685      		ldd r24,Z+14
 1308 062a 9785      		ldd r25,Z+15
 1309               	.LBE658:
 1310               	.LBE657:
 1311               	.LM184:
 1312 062c A0E0      		ldi r26,lo8(0)
 1313 062e B0E0      		ldi r27,hi8(0)
 1314 0630 818F      		std Z+25,r24
 1315 0632 928F      		std Z+26,r25
 1316 0634 A38F      		std Z+27,r26
 1317 0636 B48F      		std Z+28,r27
 1318               	.LBB659:
 1319               	.LBB660:
 1320               	.LM185:
 1321               	/* #APP */
 1322               	 ;  350 "timebase.c" 1
 1323 0638 7894      		sei
 1324               	 ;  0 "" 2
 1325               	/* #NOAPP */
 1326               	.LBE660:
 1327               	.LBE659:
 1328               	.LM186:
 1329 063a 81E0      		ldi r24,lo8(1)
 1330 063c 858F      		std Z+29,r24
 1331               	.L72:
 1332 063e 0895      		ret
 1333               	.LFE25:
 1335               	.global	Timebase_Window_Timer_Get_Interval
 1337               	Timebase_Window_Timer_Get_Interval:
 1338               	.LFB26:
 1339               	.LM187:
 1340 0640 EF92      		push r14
 1341 0642 FF92      		push r15
 1342 0644 0F93      		push r16
 1343 0646 1F93      		push r17
 1344 0648 CF93      		push r28
 1345 064a DF93      		push r29
 1346               	/* prologue: function */
 1347               	/* frame size = 0 */
 1348               	.LM188:
 1349 064c C091 0000 		lds r28,Timebase
 1350 0650 D091 0000 		lds r29,(Timebase)+1
 1351 0654 8D8D      		ldd r24,Y+29
 1352 0656 8130      		cpi r24,lo8(1)
 1353 0658 01F0      		breq .L74
 1354 065a EE24      		clr r14
 1355 065c FF24      		clr r15
 1356 065e 8701      		movw r16,r14
 1357               	.LVL68:
 1358 0660 00C0      		rjmp .L75
 1359               	.LVL69:
 1360               	.L74:
 1361               	.LBB661:
 1362               	.LBB662:
 1363               	.LM189:
 1364               	/* #APP */
 1365               	 ;  346 "timebase.c" 1
 1366 0662 F894      		cli
 1367               	 ;  0 "" 2
 1368               	/* #NOAPP */
 1369               	.LBE662:
 1370               	.LBE661:
 1371               	.LBB663:
 1372               	.LBB664:
 1373               	.LM190:
 1374 0664 2889      		ldd r18,Y+16
 1375 0666 3989      		ldd r19,Y+17
 1376 0668 4A89      		ldd r20,Y+18
 1377 066a 5B89      		ldd r21,Y+19
 1378               	.LVL70:
 1379               	.LBE664:
 1380               	.LBE663:
 1381               	.LBB665:
 1382               	.LBB666:
 1383               	.LM191:
 1384 066c 8E85      		ldd r24,Y+14
 1385 066e 9F85      		ldd r25,Y+15
 1386               	.LBE666:
 1387               	.LBE665:
 1388               	.LM192:
 1389 0670 7C01      		movw r14,r24
 1390               	.LVL71:
 1391 0672 00E0      		ldi r16,lo8(0)
 1392 0674 10E0      		ldi r17,hi8(0)
 1393               	.LVL72:
 1394               	.LBB667:
 1395               	.LBB668:
 1396               	.LM193:
 1397               	/* #APP */
 1398               	 ;  350 "timebase.c" 1
 1399 0676 7894      		sei
 1400               	 ;  0 "" 2
 1401               	/* #NOAPP */
 1402               	.LBE668:
 1403               	.LBE667:
 1404               	.LM194:
 1405 0678 8D89      		ldd r24,Y+21
 1406 067a 9E89      		ldd r25,Y+22
 1407 067c AF89      		ldd r26,Y+23
 1408 067e B88D      		ldd r27,Y+24
 1409 0680 281B      		sub r18,r24
 1410 0682 390B      		sbc r19,r25
 1411 0684 4A0B      		sbc r20,r26
 1412 0686 5B0B      		sbc r21,r27
 1413               	.LVL73:
 1414               	.LM195:
 1415 0688 6981      		ldd r22,Y+1
 1416 068a 7A81      		ldd r23,Y+2
 1417 068c 80E0      		ldi r24,lo8(0)
 1418 068e 90E0      		ldi r25,hi8(0)
 1419 0690 0E94 0000 		call __mulsi3
 1420               	.LVL74:
 1421               	.LM196:
 1422 0694 298D      		ldd r18,Y+25
 1423 0696 3A8D      		ldd r19,Y+26
 1424 0698 4B8D      		ldd r20,Y+27
 1425 069a 5C8D      		ldd r21,Y+28
 1426 069c E21A      		sub r14,r18
 1427 069e F30A      		sbc r15,r19
 1428 06a0 040B      		sbc r16,r20
 1429 06a2 150B      		sbc r17,r21
 1430               	.LVL75:
 1431 06a4 E60E      		add r14,r22
 1432 06a6 F71E      		adc r15,r23
 1433 06a8 081F      		adc r16,r24
 1434 06aa 191F      		adc r17,r25
 1435               	.L75:
 1436               	.LM197:
 1437 06ac B701      		movw r22,r14
 1438               	.LVL76:
 1439 06ae C801      		movw r24,r16
 1440               	.LVL77:
 1441               	/* epilogue start */
 1442 06b0 DF91      		pop r29
 1443 06b2 CF91      		pop r28
 1444 06b4 1F91      		pop r17
 1445 06b6 0F91      		pop r16
 1446 06b8 FF90      		pop r15
 1447 06ba EF90      		pop r14
 1448 06bc 0895      		ret
 1449               	.LFE26:
 1451               	.global	Timebase_Window_Timer_Get_Interval_Reset
 1453               	Timebase_Window_Timer_Get_Interval_Reset:
 1454               	.LFB27:
 1455               	.LM198:
 1456               	/* prologue: function */
 1457               	/* frame size = 0 */
 1458               	.LM199:
 1459 06be 0E94 0000 		call Timebase_Window_Timer_Get_Interval
 1460 06c2 282F      		mov r18,r24
 1461               	.LVL78:
 1462               	.LM200:
 1463 06c4 E091 0000 		lds r30,Timebase
 1464 06c8 F091 0000 		lds r31,(Timebase)+1
 1465 06cc 858D      		ldd r24,Z+29
 1466 06ce 8130      		cpi r24,lo8(1)
 1467 06d0 01F4      		brne .L78
 1468               	.LBB669:
 1469               	.LBB670:
 1470               	.LM201:
 1471 06d2 158A      		std Z+21,__zero_reg__
 1472 06d4 168A      		std Z+22,__zero_reg__
 1473 06d6 178A      		std Z+23,__zero_reg__
 1474 06d8 108E      		std Z+24,__zero_reg__
 1475               	.LM202:
 1476 06da 118E      		std Z+25,__zero_reg__
 1477 06dc 128E      		std Z+26,__zero_reg__
 1478 06de 138E      		std Z+27,__zero_reg__
 1479 06e0 148E      		std Z+28,__zero_reg__
 1480               	.LM203:
 1481 06e2 158E      		std Z+29,__zero_reg__
 1482               	.L78:
 1483               	.LBE670:
 1484               	.LBE669:
 1485               	.LM204:
 1486 06e4 822F      		mov r24,r18
 1487               	/* epilogue start */
 1488 06e6 0895      		ret
 1489               	.LFE27:
 1491               	.global	Timebase_UpCounter_SS_Get_Status
 1493               	Timebase_UpCounter_SS_Get_Status:
 1494               	.LFB28:
 1495               	.LM205:
 1496               	.LVL79:
 1497               	/* prologue: function */
 1498               	/* frame size = 0 */
 1499               	.LM206:
 1500 06e8 E091 0000 		lds r30,Timebase
 1501 06ec F091 0000 		lds r31,(Timebase)+1
 1502 06f0 90E0      		ldi r25,lo8(0)
 1503               	.LVL80:
 1504 06f2 29E1      		ldi r18,lo8(25)
 1505 06f4 30E0      		ldi r19,hi8(25)
 1506 06f6 AC01      		movw r20,r24
 1507 06f8 429F      		mul r20,r18
 1508 06fa C001      		movw r24,r0
 1509 06fc 439F      		mul r20,r19
 1510 06fe 900D      		add r25,r0
 1511 0700 529F      		mul r21,r18
 1512 0702 900D      		add r25,r0
 1513 0704 1124      		clr r1
 1514               	.LVL81:
 1515 0706 E80F      		add r30,r24
 1516 0708 F91F      		adc r31,r25
 1517 070a 80A1      		ldd r24,Z+32
 1518 070c 8695      		lsr r24
 1519               	.LM207:
 1520 070e 8F70      		andi r24,lo8(15)
 1521               	/* epilogue start */
 1522 0710 0895      		ret
 1523               	.LFE28:
 1525               	.global	Timebase_UpCounter_SS_Set_Status
 1527               	Timebase_UpCounter_SS_Set_Status:
 1528               	.LFB29:
 1529               	.LM208:
 1530               	.LVL82:
 1531               	/* prologue: function */
 1532               	/* frame size = 0 */
 1533               	.LM209:
 1534 0712 E091 0000 		lds r30,Timebase
 1535 0716 F091 0000 		lds r31,(Timebase)+1
 1536 071a 90E0      		ldi r25,lo8(0)
 1537               	.LVL83:
 1538 071c 29E1      		ldi r18,lo8(25)
 1539 071e 30E0      		ldi r19,hi8(25)
 1540 0720 AC01      		movw r20,r24
 1541 0722 429F      		mul r20,r18
 1542 0724 C001      		movw r24,r0
 1543 0726 439F      		mul r20,r19
 1544 0728 900D      		add r25,r0
 1545 072a 529F      		mul r21,r18
 1546 072c 900D      		add r25,r0
 1547 072e 1124      		clr r1
 1548               	.LVL84:
 1549 0730 E80F      		add r30,r24
 1550 0732 F91F      		adc r31,r25
 1551 0734 6F70      		andi r22,lo8(15)
 1552               	.LVL85:
 1553 0736 660F      		lsl r22
 1554 0738 80A1      		ldd r24,Z+32
 1555 073a 817E      		andi r24,lo8(-31)
 1556 073c 862B      		or r24,r22
 1557 073e 80A3      		std Z+32,r24
 1558               	/* epilogue start */
 1559               	.LM210:
 1560 0740 0895      		ret
 1561               	.LFE29:
 1563               	.global	Timebase_UpCounter_SS_Get_Value
 1565               	Timebase_UpCounter_SS_Get_Value:
 1566               	.LFB30:
 1567               	.LM211:
 1568               	.LVL86:
 1569               	/* prologue: function */
 1570               	/* frame size = 0 */
 1571               	.LM212:
 1572 0742 E091 0000 		lds r30,Timebase
 1573 0746 F091 0000 		lds r31,(Timebase)+1
 1574 074a 90E0      		ldi r25,lo8(0)
 1575               	.LVL87:
 1576 074c 29E1      		ldi r18,lo8(25)
 1577 074e 30E0      		ldi r19,hi8(25)
 1578 0750 AC01      		movw r20,r24
 1579 0752 429F      		mul r20,r18
 1580 0754 C001      		movw r24,r0
 1581 0756 439F      		mul r20,r19
 1582 0758 900D      		add r25,r0
 1583 075a 529F      		mul r21,r18
 1584 075c 900D      		add r25,r0
 1585 075e 1124      		clr r1
 1586               	.LVL88:
 1587 0760 E80F      		add r30,r24
 1588 0762 F91F      		adc r31,r25
 1589 0764 DF01      		movw r26,r30
 1590 0766 D196      		adiw r26,49
 1591 0768 61A9      		ldd r22,Z+49
 1592 076a 1196      		adiw r26,1
 1593 076c 7C91      		ld r23,X
 1594 076e 1197      		sbiw r26,1
 1595               	.LM213:
 1596 0770 1296      		adiw r26,2
 1597 0772 8C91      		ld r24,X
 1598 0774 1297      		sbiw r26,2
 1599 0776 1396      		adiw r26,3
 1600 0778 9C91      		ld r25,X
 1601               	.LVL89:
 1602               	/* epilogue start */
 1603 077a 0895      		ret
 1604               	.LFE30:
 1606               	.global	Timebase_UpCounter_SS_Set_Value
 1608               	Timebase_UpCounter_SS_Set_Value:
 1609               	.LFB31:
 1610               	.LM214:
 1611               	.LVL90:
 1612 077c CF93      		push r28
 1613 077e DF93      		push r29
 1614               	/* prologue: function */
 1615               	/* frame size = 0 */
 1616               	.LM215:
 1617 0780 C091 0000 		lds r28,Timebase
 1618 0784 D091 0000 		lds r29,(Timebase)+1
 1619 0788 90E0      		ldi r25,lo8(0)
 1620               	.LVL91:
 1621 078a 29E1      		ldi r18,lo8(25)
 1622 078c 30E0      		ldi r19,hi8(25)
 1623 078e FC01      		movw r30,r24
 1624 0790 E29F      		mul r30,r18
 1625 0792 C001      		movw r24,r0
 1626 0794 E39F      		mul r30,r19
 1627 0796 900D      		add r25,r0
 1628 0798 F29F      		mul r31,r18
 1629 079a 900D      		add r25,r0
 1630 079c 1124      		clr r1
 1631               	.LVL92:
 1632 079e C80F      		add r28,r24
 1633 07a0 D91F      		adc r29,r25
 1634 07a2 CA01      		movw r24,r20
 1635               	.LVL93:
 1636 07a4 DB01      		movw r26,r22
 1637 07a6 B7FF      		sbrs r27,7
 1638 07a8 00C0      		rjmp .L87
 1639               	.LVL94:
 1640 07aa 80E0      		ldi r24,lo8(0)
 1641 07ac 90E0      		ldi r25,hi8(0)
 1642 07ae A0E0      		ldi r26,hlo8(0)
 1643 07b0 B0E0      		ldi r27,hhi8(0)
 1644               	.L87:
 1645 07b2 89AB      		std Y+49,r24
 1646 07b4 9AAB      		std Y+50,r25
 1647 07b6 ABAB      		std Y+51,r26
 1648 07b8 BCAB      		std Y+52,r27
 1649               	/* epilogue start */
 1650               	.LM216:
 1651 07ba DF91      		pop r29
 1652 07bc CF91      		pop r28
 1653 07be 0895      		ret
 1654               	.LFE31:
 1656               	.global	Timebase_UpCounter_SS_Get_EndValueSec
 1658               	Timebase_UpCounter_SS_Get_EndValueSec:
 1659               	.LFB32:
 1660               	.LM217:
 1661               	.LVL95:
 1662               	/* prologue: function */
 1663               	/* frame size = 0 */
 1664               	.LM218:
 1665 07c0 E091 0000 		lds r30,Timebase
 1666 07c4 F091 0000 		lds r31,(Timebase)+1
 1667 07c8 90E0      		ldi r25,lo8(0)
 1668               	.LVL96:
 1669 07ca 29E1      		ldi r18,lo8(25)
 1670 07cc 30E0      		ldi r19,hi8(25)
 1671 07ce AC01      		movw r20,r24
 1672 07d0 429F      		mul r20,r18
 1673 07d2 C001      		movw r24,r0
 1674 07d4 439F      		mul r20,r19
 1675 07d6 900D      		add r25,r0
 1676 07d8 529F      		mul r21,r18
 1677 07da 900D      		add r25,r0
 1678 07dc 1124      		clr r1
 1679               	.LVL97:
 1680 07de E80F      		add r30,r24
 1681 07e0 F91F      		adc r31,r25
 1682 07e2 DF01      		movw r26,r30
 1683 07e4 9196      		adiw r26,33
 1684 07e6 61A1      		ldd r22,Z+33
 1685 07e8 1196      		adiw r26,1
 1686 07ea 7C91      		ld r23,X
 1687 07ec 1197      		sbiw r26,1
 1688               	.LM219:
 1689 07ee 1296      		adiw r26,2
 1690 07f0 8C91      		ld r24,X
 1691 07f2 1297      		sbiw r26,2
 1692 07f4 1396      		adiw r26,3
 1693 07f6 9C91      		ld r25,X
 1694               	.LVL98:
 1695               	/* epilogue start */
 1696 07f8 0895      		ret
 1697               	.LFE32:
 1699               	.global	Timebase_UpCounter_SS_Get_EndValueSubSec
 1701               	Timebase_UpCounter_SS_Get_EndValueSubSec:
 1702               	.LFB33:
 1703               	.LM220:
 1704               	.LVL99:
 1705               	/* prologue: function */
 1706               	/* frame size = 0 */
 1707               	.LM221:
 1708 07fa E091 0000 		lds r30,Timebase
 1709 07fe F091 0000 		lds r31,(Timebase)+1
 1710 0802 90E0      		ldi r25,lo8(0)
 1711               	.LVL100:
 1712 0804 29E1      		ldi r18,lo8(25)
 1713 0806 30E0      		ldi r19,hi8(25)
 1714 0808 AC01      		movw r20,r24
 1715 080a 429F      		mul r20,r18
 1716 080c C001      		movw r24,r0
 1717 080e 439F      		mul r20,r19
 1718 0810 900D      		add r25,r0
 1719 0812 529F      		mul r21,r18
 1720 0814 900D      		add r25,r0
 1721 0816 1124      		clr r1
 1722               	.LVL101:
 1723 0818 E80F      		add r30,r24
 1724 081a F91F      		adc r31,r25
 1725 081c DF01      		movw r26,r30
 1726 081e 9596      		adiw r26,37
 1727 0820 65A1      		ldd r22,Z+37
 1728 0822 1196      		adiw r26,1
 1729 0824 7C91      		ld r23,X
 1730 0826 1197      		sbiw r26,1
 1731               	.LM222:
 1732 0828 1296      		adiw r26,2
 1733 082a 8C91      		ld r24,X
 1734 082c 1297      		sbiw r26,2
 1735 082e 1396      		adiw r26,3
 1736 0830 9C91      		ld r25,X
 1737               	.LVL102:
 1738               	/* epilogue start */
 1739 0832 0895      		ret
 1740               	.LFE33:
 1742               	.global	Timebase_UpCounter_SS_Set_EndValueSec
 1744               	Timebase_UpCounter_SS_Set_EndValueSec:
 1745               	.LFB34:
 1746               	.LM223:
 1747               	.LVL103:
 1748               	/* prologue: function */
 1749               	/* frame size = 0 */
 1750               	.LM224:
 1751 0834 E091 0000 		lds r30,Timebase
 1752 0838 F091 0000 		lds r31,(Timebase)+1
 1753 083c 90E0      		ldi r25,lo8(0)
 1754               	.LVL104:
 1755 083e 29E1      		ldi r18,lo8(25)
 1756 0840 30E0      		ldi r19,hi8(25)
 1757 0842 DC01      		movw r26,r24
 1758 0844 A29F      		mul r26,r18
 1759 0846 C001      		movw r24,r0
 1760 0848 A39F      		mul r26,r19
 1761 084a 900D      		add r25,r0
 1762 084c B29F      		mul r27,r18
 1763 084e 900D      		add r25,r0
 1764 0850 1124      		clr r1
 1765               	.LVL105:
 1766 0852 E80F      		add r30,r24
 1767 0854 F91F      		adc r31,r25
 1768 0856 41A3      		std Z+33,r20
 1769 0858 52A3      		std Z+34,r21
 1770 085a 63A3      		std Z+35,r22
 1771 085c 74A3      		std Z+36,r23
 1772               	/* epilogue start */
 1773               	.LM225:
 1774 085e 0895      		ret
 1775               	.LFE34:
 1777               	.global	Timebase_UpCounter_SS_Set_EndValueSubSec
 1779               	Timebase_UpCounter_SS_Set_EndValueSubSec:
 1780               	.LFB35:
 1781               	.LM226:
 1782               	.LVL106:
 1783               	/* prologue: function */
 1784               	/* frame size = 0 */
 1785               	.LM227:
 1786 0860 E091 0000 		lds r30,Timebase
 1787 0864 F091 0000 		lds r31,(Timebase)+1
 1788 0868 90E0      		ldi r25,lo8(0)
 1789               	.LVL107:
 1790 086a 29E1      		ldi r18,lo8(25)
 1791 086c 30E0      		ldi r19,hi8(25)
 1792 086e DC01      		movw r26,r24
 1793 0870 A29F      		mul r26,r18
 1794 0872 C001      		movw r24,r0
 1795 0874 A39F      		mul r26,r19
 1796 0876 900D      		add r25,r0
 1797 0878 B29F      		mul r27,r18
 1798 087a 900D      		add r25,r0
 1799 087c 1124      		clr r1
 1800               	.LVL108:
 1801 087e E80F      		add r30,r24
 1802 0880 F91F      		adc r31,r25
 1803 0882 45A3      		std Z+37,r20
 1804 0884 56A3      		std Z+38,r21
 1805 0886 67A3      		std Z+39,r22
 1806 0888 70A7      		std Z+40,r23
 1807               	/* epilogue start */
 1808               	.LM228:
 1809 088a 0895      		ret
 1810               	.LFE35:
 1812               	.global	Timebase_UpCounter_SS_Get_TargetValue
 1814               	Timebase_UpCounter_SS_Get_TargetValue:
 1815               	.LFB36:
 1816               	.LM229:
 1817               	.LVL109:
 1818               	/* prologue: function */
 1819               	/* frame size = 0 */
 1820               	.LM230:
 1821 088c E091 0000 		lds r30,Timebase
 1822 0890 F091 0000 		lds r31,(Timebase)+1
 1823 0894 90E0      		ldi r25,lo8(0)
 1824               	.LVL110:
 1825 0896 29E1      		ldi r18,lo8(25)
 1826 0898 30E0      		ldi r19,hi8(25)
 1827 089a AC01      		movw r20,r24
 1828 089c 429F      		mul r20,r18
 1829 089e C001      		movw r24,r0
 1830 08a0 439F      		mul r20,r19
 1831 08a2 900D      		add r25,r0
 1832 08a4 529F      		mul r21,r18
 1833 08a6 900D      		add r25,r0
 1834 08a8 1124      		clr r1
 1835               	.LVL111:
 1836 08aa E80F      		add r30,r24
 1837 08ac F91F      		adc r31,r25
 1838 08ae DF01      		movw r26,r30
 1839 08b0 9996      		adiw r26,41
 1840 08b2 61A5      		ldd r22,Z+41
 1841 08b4 1196      		adiw r26,1
 1842 08b6 7C91      		ld r23,X
 1843 08b8 1197      		sbiw r26,1
 1844               	.LM231:
 1845 08ba 1296      		adiw r26,2
 1846 08bc 8C91      		ld r24,X
 1847 08be 1297      		sbiw r26,2
 1848 08c0 1396      		adiw r26,3
 1849 08c2 9C91      		ld r25,X
 1850               	.LVL112:
 1851               	/* epilogue start */
 1852 08c4 0895      		ret
 1853               	.LFE36:
 1855               	.global	Timebase_UpCounter_SS_Set_TargetValue
 1857               	Timebase_UpCounter_SS_Set_TargetValue:
 1858               	.LFB37:
 1859               	.LM232:
 1860               	.LVL113:
 1861               	/* prologue: function */
 1862               	/* frame size = 0 */
 1863               	.LM233:
 1864 08c6 E091 0000 		lds r30,Timebase
 1865 08ca F091 0000 		lds r31,(Timebase)+1
 1866 08ce 90E0      		ldi r25,lo8(0)
 1867               	.LVL114:
 1868 08d0 29E1      		ldi r18,lo8(25)
 1869 08d2 30E0      		ldi r19,hi8(25)
 1870 08d4 DC01      		movw r26,r24
 1871 08d6 A29F      		mul r26,r18
 1872 08d8 C001      		movw r24,r0
 1873 08da A39F      		mul r26,r19
 1874 08dc 900D      		add r25,r0
 1875 08de B29F      		mul r27,r18
 1876 08e0 900D      		add r25,r0
 1877 08e2 1124      		clr r1
 1878               	.LVL115:
 1879 08e4 E80F      		add r30,r24
 1880 08e6 F91F      		adc r31,r25
 1881 08e8 41A7      		std Z+41,r20
 1882 08ea 52A7      		std Z+42,r21
 1883 08ec 63A7      		std Z+43,r22
 1884 08ee 74A7      		std Z+44,r23
 1885               	/* epilogue start */
 1886               	.LM234:
 1887 08f0 0895      		ret
 1888               	.LFE37:
 1890               	.global	Timebase_UpCounter_SS_Get_TemporaryValue
 1892               	Timebase_UpCounter_SS_Get_TemporaryValue:
 1893               	.LFB38:
 1894               	.LM235:
 1895               	.LVL116:
 1896               	/* prologue: function */
 1897               	/* frame size = 0 */
 1898               	.LM236:
 1899 08f2 E091 0000 		lds r30,Timebase
 1900 08f6 F091 0000 		lds r31,(Timebase)+1
 1901 08fa 90E0      		ldi r25,lo8(0)
 1902               	.LVL117:
 1903 08fc 29E1      		ldi r18,lo8(25)
 1904 08fe 30E0      		ldi r19,hi8(25)
 1905 0900 AC01      		movw r20,r24
 1906 0902 429F      		mul r20,r18
 1907 0904 C001      		movw r24,r0
 1908 0906 439F      		mul r20,r19
 1909 0908 900D      		add r25,r0
 1910 090a 529F      		mul r21,r18
 1911 090c 900D      		add r25,r0
 1912 090e 1124      		clr r1
 1913               	.LVL118:
 1914 0910 E80F      		add r30,r24
 1915 0912 F91F      		adc r31,r25
 1916 0914 DF01      		movw r26,r30
 1917 0916 9D96      		adiw r26,45
 1918 0918 65A5      		ldd r22,Z+45
 1919 091a 1196      		adiw r26,1
 1920 091c 7C91      		ld r23,X
 1921 091e 1197      		sbiw r26,1
 1922               	.LM237:
 1923 0920 1296      		adiw r26,2
 1924 0922 8C91      		ld r24,X
 1925 0924 1297      		sbiw r26,2
 1926 0926 1396      		adiw r26,3
 1927 0928 9C91      		ld r25,X
 1928               	.LVL119:
 1929               	/* epilogue start */
 1930 092a 0895      		ret
 1931               	.LFE38:
 1933               	.global	Timebase_UpCounter_SS_Set_TemporaryValue
 1935               	Timebase_UpCounter_SS_Set_TemporaryValue:
 1936               	.LFB39:
 1937               	.LM238:
 1938               	.LVL120:
 1939 092c CF93      		push r28
 1940 092e DF93      		push r29
 1941               	/* prologue: function */
 1942               	/* frame size = 0 */
 1943               	.LM239:
 1944 0930 C091 0000 		lds r28,Timebase
 1945 0934 D091 0000 		lds r29,(Timebase)+1
 1946 0938 90E0      		ldi r25,lo8(0)
 1947               	.LVL121:
 1948 093a 29E1      		ldi r18,lo8(25)
 1949 093c 30E0      		ldi r19,hi8(25)
 1950 093e FC01      		movw r30,r24
 1951 0940 E29F      		mul r30,r18
 1952 0942 C001      		movw r24,r0
 1953 0944 E39F      		mul r30,r19
 1954 0946 900D      		add r25,r0
 1955 0948 F29F      		mul r31,r18
 1956 094a 900D      		add r25,r0
 1957 094c 1124      		clr r1
 1958               	.LVL122:
 1959 094e C80F      		add r28,r24
 1960 0950 D91F      		adc r29,r25
 1961 0952 CA01      		movw r24,r20
 1962               	.LVL123:
 1963 0954 DB01      		movw r26,r22
 1964 0956 B7FF      		sbrs r27,7
 1965 0958 00C0      		rjmp .L104
 1966               	.LVL124:
 1967 095a 80E0      		ldi r24,lo8(0)
 1968 095c 90E0      		ldi r25,hi8(0)
 1969 095e A0E0      		ldi r26,hlo8(0)
 1970 0960 B0E0      		ldi r27,hhi8(0)
 1971               	.L104:
 1972 0962 8DA7      		std Y+45,r24
 1973 0964 9EA7      		std Y+46,r25
 1974 0966 AFA7      		std Y+47,r26
 1975 0968 B8AB      		std Y+48,r27
 1976               	/* epilogue start */
 1977               	.LM240:
 1978 096a DF91      		pop r29
 1979 096c CF91      		pop r28
 1980 096e 0895      		ret
 1981               	.LFE39:
 1983               	.global	Timebase_UpCounter_SS_Get_PeriodValue
 1985               	Timebase_UpCounter_SS_Get_PeriodValue:
 1986               	.LFB40:
 1987               	.LM241:
 1988               	.LVL125:
 1989               	/* prologue: function */
 1990               	/* frame size = 0 */
 1991               	.LM242:
 1992 0970 E091 0000 		lds r30,Timebase
 1993 0974 F091 0000 		lds r31,(Timebase)+1
 1994 0978 90E0      		ldi r25,lo8(0)
 1995               	.LVL126:
 1996 097a 29E1      		ldi r18,lo8(25)
 1997 097c 30E0      		ldi r19,hi8(25)
 1998 097e AC01      		movw r20,r24
 1999 0980 429F      		mul r20,r18
 2000 0982 C001      		movw r24,r0
 2001 0984 439F      		mul r20,r19
 2002 0986 900D      		add r25,r0
 2003 0988 529F      		mul r21,r18
 2004 098a 900D      		add r25,r0
 2005 098c 1124      		clr r1
 2006               	.LVL127:
 2007 098e E80F      		add r30,r24
 2008 0990 F91F      		adc r31,r25
 2009 0992 DF01      		movw r26,r30
 2010 0994 D596      		adiw r26,53
 2011 0996 65A9      		ldd r22,Z+53
 2012 0998 1196      		adiw r26,1
 2013 099a 7C91      		ld r23,X
 2014 099c 1197      		sbiw r26,1
 2015               	.LM243:
 2016 099e 1296      		adiw r26,2
 2017 09a0 8C91      		ld r24,X
 2018 09a2 1297      		sbiw r26,2
 2019 09a4 1396      		adiw r26,3
 2020 09a6 9C91      		ld r25,X
 2021               	.LVL128:
 2022               	/* epilogue start */
 2023 09a8 0895      		ret
 2024               	.LFE40:
 2026               	.global	Timebase_UpCounter_SS_Set_PeriodValue
 2028               	Timebase_UpCounter_SS_Set_PeriodValue:
 2029               	.LFB41:
 2030               	.LM244:
 2031               	.LVL129:
 2032               	/* prologue: function */
 2033               	/* frame size = 0 */
 2034               	.LM245:
 2035 09aa E091 0000 		lds r30,Timebase
 2036 09ae F091 0000 		lds r31,(Timebase)+1
 2037 09b2 90E0      		ldi r25,lo8(0)
 2038               	.LVL130:
 2039 09b4 29E1      		ldi r18,lo8(25)
 2040 09b6 30E0      		ldi r19,hi8(25)
 2041 09b8 DC01      		movw r26,r24
 2042 09ba A29F      		mul r26,r18
 2043 09bc C001      		movw r24,r0
 2044 09be A39F      		mul r26,r19
 2045 09c0 900D      		add r25,r0
 2046 09c2 B29F      		mul r27,r18
 2047 09c4 900D      		add r25,r0
 2048 09c6 1124      		clr r1
 2049               	.LVL131:
 2050 09c8 E80F      		add r30,r24
 2051 09ca F91F      		adc r31,r25
 2052 09cc 45AB      		std Z+53,r20
 2053 09ce 56AB      		std Z+54,r21
 2054 09d0 67AB      		std Z+55,r22
 2055 09d2 70AF      		std Z+56,r23
 2056               	/* epilogue start */
 2057               	.LM246:
 2058 09d4 0895      		ret
 2059               	.LFE41:
 2061               	.global	Timebase_UpCounter_SS_Get_Period_Flag
 2063               	Timebase_UpCounter_SS_Get_Period_Flag:
 2064               	.LFB42:
 2065               	.LM247:
 2066               	.LVL132:
 2067               	/* prologue: function */
 2068               	/* frame size = 0 */
 2069               	.LM248:
 2070 09d6 E091 0000 		lds r30,Timebase
 2071 09da F091 0000 		lds r31,(Timebase)+1
 2072 09de 90E0      		ldi r25,lo8(0)
 2073               	.LVL133:
 2074 09e0 29E1      		ldi r18,lo8(25)
 2075 09e2 30E0      		ldi r19,hi8(25)
 2076 09e4 AC01      		movw r20,r24
 2077 09e6 429F      		mul r20,r18
 2078 09e8 C001      		movw r24,r0
 2079 09ea 439F      		mul r20,r19
 2080 09ec 900D      		add r25,r0
 2081 09ee 529F      		mul r21,r18
 2082 09f0 900D      		add r25,r0
 2083 09f2 1124      		clr r1
 2084               	.LVL134:
 2085 09f4 E80F      		add r30,r24
 2086 09f6 F91F      		adc r31,r25
 2087 09f8 80A1      		ldd r24,Z+32
 2088               	.LM249:
 2089 09fa 8170      		andi r24,lo8(1)
 2090               	/* epilogue start */
 2091 09fc 0895      		ret
 2092               	.LFE42:
 2094               	.global	Timebase_UpCounter_SS_Set_Period_Flag
 2096               	Timebase_UpCounter_SS_Set_Period_Flag:
 2097               	.LFB43:
 2098               	.LM250:
 2099               	.LVL135:
 2100               	/* prologue: function */
 2101               	/* frame size = 0 */
 2102               	.LM251:
 2103 09fe E091 0000 		lds r30,Timebase
 2104 0a02 F091 0000 		lds r31,(Timebase)+1
 2105 0a06 90E0      		ldi r25,lo8(0)
 2106               	.LVL136:
 2107 0a08 29E1      		ldi r18,lo8(25)
 2108 0a0a 30E0      		ldi r19,hi8(25)
 2109 0a0c AC01      		movw r20,r24
 2110 0a0e 429F      		mul r20,r18
 2111 0a10 C001      		movw r24,r0
 2112 0a12 439F      		mul r20,r19
 2113 0a14 900D      		add r25,r0
 2114 0a16 529F      		mul r21,r18
 2115 0a18 900D      		add r25,r0
 2116 0a1a 1124      		clr r1
 2117               	.LVL137:
 2118 0a1c E80F      		add r30,r24
 2119 0a1e F91F      		adc r31,r25
 2120 0a20 80A1      		ldd r24,Z+32
 2121 0a22 8160      		ori r24,lo8(1)
 2122 0a24 80A3      		std Z+32,r24
 2123               	/* epilogue start */
 2124               	.LM252:
 2125 0a26 0895      		ret
 2126               	.LFE43:
 2128               	.global	Timebase_UpCounter_SS_Clear_Period_Flag
 2130               	Timebase_UpCounter_SS_Clear_Period_Flag:
 2131               	.LFB44:
 2132               	.LM253:
 2133               	.LVL138:
 2134               	/* prologue: function */
 2135               	/* frame size = 0 */
 2136               	.LM254:
 2137 0a28 E091 0000 		lds r30,Timebase
 2138 0a2c F091 0000 		lds r31,(Timebase)+1
 2139 0a30 90E0      		ldi r25,lo8(0)
 2140               	.LVL139:
 2141 0a32 29E1      		ldi r18,lo8(25)
 2142 0a34 30E0      		ldi r19,hi8(25)
 2143 0a36 AC01      		movw r20,r24
 2144 0a38 429F      		mul r20,r18
 2145 0a3a C001      		movw r24,r0
 2146 0a3c 439F      		mul r20,r19
 2147 0a3e 900D      		add r25,r0
 2148 0a40 529F      		mul r21,r18
 2149 0a42 900D      		add r25,r0
 2150 0a44 1124      		clr r1
 2151               	.LVL140:
 2152 0a46 E80F      		add r30,r24
 2153 0a48 F91F      		adc r31,r25
 2154 0a4a 80A1      		ldd r24,Z+32
 2155 0a4c 8E7F      		andi r24,lo8(-2)
 2156 0a4e 80A3      		std Z+32,r24
 2157               	/* epilogue start */
 2158               	.LM255:
 2159 0a50 0895      		ret
 2160               	.LFE44:
 2162               	.global	Timebase_UpCounter_SS_Reset
 2164               	Timebase_UpCounter_SS_Reset:
 2165               	.LFB45:
 2166               	.LM256:
 2167               	.LVL141:
 2168               	/* prologue: function */
 2169               	/* frame size = 0 */
 2170               	.LBB671:
 2171               	.LBB672:
 2172               	.LM257:
 2173 0a52 E091 0000 		lds r30,Timebase
 2174 0a56 F091 0000 		lds r31,(Timebase)+1
 2175 0a5a 90E0      		ldi r25,lo8(0)
 2176 0a5c 29E1      		ldi r18,lo8(25)
 2177 0a5e 30E0      		ldi r19,hi8(25)
 2178 0a60 AC01      		movw r20,r24
 2179               	.LVL142:
 2180 0a62 429F      		mul r20,r18
 2181 0a64 C001      		movw r24,r0
 2182 0a66 439F      		mul r20,r19
 2183 0a68 900D      		add r25,r0
 2184 0a6a 529F      		mul r21,r18
 2185 0a6c 900D      		add r25,r0
 2186 0a6e 1124      		clr r1
 2187 0a70 E80F      		add r30,r24
 2188 0a72 F91F      		adc r31,r25
 2189 0a74 80A1      		ldd r24,Z+32
 2190               	.LBE672:
 2191               	.LBE671:
 2192               	.LBB673:
 2193               	.LBB674:
 2194               	.LM258:
 2195 0a76 11AA      		std Z+49,__zero_reg__
 2196 0a78 12AA      		std Z+50,__zero_reg__
 2197 0a7a 13AA      		std Z+51,__zero_reg__
 2198 0a7c 14AA      		std Z+52,__zero_reg__
 2199               	.LBE674:
 2200               	.LBE673:
 2201               	.LBB675:
 2202               	.LBB676:
 2203               	.LM259:
 2204 0a7e 11A2      		std Z+33,__zero_reg__
 2205 0a80 12A2      		std Z+34,__zero_reg__
 2206 0a82 13A2      		std Z+35,__zero_reg__
 2207 0a84 14A2      		std Z+36,__zero_reg__
 2208               	.LBE676:
 2209               	.LBE675:
 2210               	.LBB677:
 2211               	.LBB678:
 2212               	.LM260:
 2213 0a86 15A2      		std Z+37,__zero_reg__
 2214 0a88 16A2      		std Z+38,__zero_reg__
 2215 0a8a 17A2      		std Z+39,__zero_reg__
 2216 0a8c 10A6      		std Z+40,__zero_reg__
 2217               	.LBE678:
 2218               	.LBE677:
 2219               	.LBB679:
 2220               	.LBB680:
 2221               	.LM261:
 2222 0a8e 11A6      		std Z+41,__zero_reg__
 2223 0a90 12A6      		std Z+42,__zero_reg__
 2224 0a92 13A6      		std Z+43,__zero_reg__
 2225 0a94 14A6      		std Z+44,__zero_reg__
 2226               	.LBE680:
 2227               	.LBE679:
 2228               	.LBB681:
 2229               	.LBB682:
 2230               	.LM262:
 2231 0a96 15A6      		std Z+45,__zero_reg__
 2232 0a98 16A6      		std Z+46,__zero_reg__
 2233 0a9a 17A6      		std Z+47,__zero_reg__
 2234 0a9c 10AA      		std Z+48,__zero_reg__
 2235               	.LBE682:
 2236               	.LBE681:
 2237               	.LBB683:
 2238               	.LBB684:
 2239               	.LM263:
 2240 0a9e 15AA      		std Z+53,__zero_reg__
 2241 0aa0 16AA      		std Z+54,__zero_reg__
 2242 0aa2 17AA      		std Z+55,__zero_reg__
 2243 0aa4 10AE      		std Z+56,__zero_reg__
 2244               	.LBE684:
 2245               	.LBE683:
 2246               	.LBB685:
 2247               	.LBB686:
 2248               	.LM264:
 2249 0aa6 807E      		andi r24,lo8(-32)
 2250 0aa8 80A3      		std Z+32,r24
 2251               	/* epilogue start */
 2252               	.LBE686:
 2253               	.LBE685:
 2254               	.LM265:
 2255 0aaa 0895      		ret
 2256               	.LFE45:
 2258               	.global	Timebase_UpCounter_SS_Clear_All_Flags
 2260               	Timebase_UpCounter_SS_Clear_All_Flags:
 2261               	.LFB46:
 2262               	.LM266:
 2263               	.LVL143:
 2264               	/* prologue: function */
 2265               	/* frame size = 0 */
 2266               	.LM267:
 2267 0aac 0E94 0000 		call Timebase_UpCounter_SS_Reset
 2268               	.LVL144:
 2269               	/* epilogue start */
 2270               	.LM268:
 2271 0ab0 0895      		ret
 2272               	.LFE46:
 2274               	.global	Timebase_UpCounter_SS_Start
 2276               	Timebase_UpCounter_SS_Start:
 2277               	.LFB47:
 2278               	.LM269:
 2279               	.LVL145:
 2280               	/* prologue: function */
 2281               	/* frame size = 0 */
 2282               	.LBB687:
 2283               	.LBB688:
 2284               	.LM270:
 2285 0ab2 E091 0000 		lds r30,Timebase
 2286 0ab6 F091 0000 		lds r31,(Timebase)+1
 2287 0aba 90E0      		ldi r25,lo8(0)
 2288               	.LBE688:
 2289               	.LBE687:
 2290               	.LM271:
 2291 0abc 29E1      		ldi r18,lo8(25)
 2292 0abe 30E0      		ldi r19,hi8(25)
 2293 0ac0 AC01      		movw r20,r24
 2294               	.LVL146:
 2295 0ac2 429F      		mul r20,r18
 2296 0ac4 C001      		movw r24,r0
 2297 0ac6 439F      		mul r20,r19
 2298 0ac8 900D      		add r25,r0
 2299 0aca 529F      		mul r21,r18
 2300 0acc 900D      		add r25,r0
 2301 0ace 1124      		clr r1
 2302 0ad0 E80F      		add r30,r24
 2303 0ad2 F91F      		adc r31,r25
 2304 0ad4 90A1      		ldd r25,Z+32
 2305 0ad6 892F      		mov r24,r25
 2306 0ad8 8695      		lsr r24
 2307 0ada 8F70      		andi r24,lo8(15)
 2308 0adc 8130      		cpi r24,lo8(1)
 2309 0ade 01F0      		breq .L122
 2310               	.LBB689:
 2311               	.LBB690:
 2312               	.LM272:
 2313 0ae0 917E      		andi r25,lo8(-31)
 2314 0ae2 9260      		ori r25,lo8(2)
 2315 0ae4 90A3      		std Z+32,r25
 2316               	.L122:
 2317 0ae6 0895      		ret
 2318               	.LBE690:
 2319               	.LBE689:
 2320               	.LFE47:
 2322               	.global	Timebase_UpCounter_SS_Stop
 2324               	Timebase_UpCounter_SS_Stop:
 2325               	.LFB48:
 2326               	.LM273:
 2327               	.LVL147:
 2328               	/* prologue: function */
 2329               	/* frame size = 0 */
 2330               	.LBB691:
 2331               	.LBB692:
 2332               	.LM274:
 2333 0ae8 E091 0000 		lds r30,Timebase
 2334 0aec F091 0000 		lds r31,(Timebase)+1
 2335 0af0 90E0      		ldi r25,lo8(0)
 2336               	.LBE692:
 2337               	.LBE691:
 2338               	.LM275:
 2339 0af2 29E1      		ldi r18,lo8(25)
 2340 0af4 30E0      		ldi r19,hi8(25)
 2341 0af6 AC01      		movw r20,r24
 2342               	.LVL148:
 2343 0af8 429F      		mul r20,r18
 2344 0afa C001      		movw r24,r0
 2345 0afc 439F      		mul r20,r19
 2346 0afe 900D      		add r25,r0
 2347 0b00 529F      		mul r21,r18
 2348 0b02 900D      		add r25,r0
 2349 0b04 1124      		clr r1
 2350 0b06 E80F      		add r30,r24
 2351 0b08 F91F      		adc r31,r25
 2352 0b0a 90A1      		ldd r25,Z+32
 2353 0b0c 892F      		mov r24,r25
 2354 0b0e 8695      		lsr r24
 2355 0b10 8F70      		andi r24,lo8(15)
 2356 0b12 8230      		cpi r24,lo8(2)
 2357 0b14 01F0      		breq .L125
 2358               	.LBB693:
 2359               	.LBB694:
 2360               	.LM276:
 2361 0b16 917E      		andi r25,lo8(-31)
 2362 0b18 9460      		ori r25,lo8(4)
 2363 0b1a 90A3      		std Z+32,r25
 2364               	.L125:
 2365 0b1c 0895      		ret
 2366               	.LBE694:
 2367               	.LBE693:
 2368               	.LFE48:
 2370               	.global	Timebase_UpCounter_SS_Set_Securely
 2372               	Timebase_UpCounter_SS_Set_Securely:
 2373               	.LFB49:
 2374               	.LM277:
 2375               	.LVL149:
 2376 0b1e 2F92      		push r2
 2377 0b20 3F92      		push r3
 2378 0b22 4F92      		push r4
 2379 0b24 5F92      		push r5
 2380 0b26 6F92      		push r6
 2381 0b28 7F92      		push r7
 2382 0b2a 8F92      		push r8
 2383 0b2c 9F92      		push r9
 2384 0b2e AF92      		push r10
 2385 0b30 BF92      		push r11
 2386 0b32 CF92      		push r12
 2387 0b34 DF92      		push r13
 2388 0b36 EF92      		push r14
 2389 0b38 FF92      		push r15
 2390 0b3a 0F93      		push r16
 2391 0b3c 1F93      		push r17
 2392 0b3e DF93      		push r29
 2393 0b40 CF93      		push r28
 2394 0b42 00D0      		rcall .
 2395 0b44 00D0      		rcall .
 2396 0b46 CDB7      		in r28,__SP_L__
 2397 0b48 DEB7      		in r29,__SP_H__
 2398               	/* prologue: function */
 2399               	/* frame size = 4 */
 2400 0b4a 4A01      		movw r8,r20
 2401 0b4c 5B01      		movw r10,r22
 2402               	.LBB695:
 2403               	.LBB696:
 2404               	.LM278:
 2405 0b4e 2091 0000 		lds r18,Timebase
 2406 0b52 3091 0000 		lds r19,(Timebase)+1
 2407 0b56 3C83      		std Y+4,r19
 2408 0b58 2B83      		std Y+3,r18
 2409 0b5a A82F      		mov r26,r24
 2410 0b5c B0E0      		ldi r27,lo8(0)
 2411 0b5e BA83      		std Y+2,r27
 2412 0b60 A983      		std Y+1,r26
 2413               	.LBE696:
 2414               	.LBE695:
 2415               	.LM279:
 2416 0b62 89E1      		ldi r24,lo8(25)
 2417 0b64 90E0      		ldi r25,hi8(25)
 2418               	.LVL150:
 2419 0b66 A89F      		mul r26,r24
 2420 0b68 F001      		movw r30,r0
 2421 0b6a A99F      		mul r26,r25
 2422 0b6c F00D      		add r31,r0
 2423 0b6e B89F      		mul r27,r24
 2424 0b70 F00D      		add r31,r0
 2425 0b72 1124      		clr r1
 2426 0b74 E20F      		add r30,r18
 2427 0b76 F31F      		adc r31,r19
 2428 0b78 80A1      		ldd r24,Z+32
 2429 0b7a 8695      		lsr r24
 2430 0b7c 8F70      		andi r24,lo8(15)
 2431 0b7e 01F0      		breq .+2
 2432 0b80 00C0      		rjmp .L129
 2433               	.LVL151:
 2434               	.LBB697:
 2435               	.LBB698:
 2436               	.LBB699:
 2437               	.LM280:
 2438 0b82 11AA      		std Z+49,__zero_reg__
 2439 0b84 12AA      		std Z+50,__zero_reg__
 2440 0b86 13AA      		std Z+51,__zero_reg__
 2441 0b88 14AA      		std Z+52,__zero_reg__
 2442               	.LBE699:
 2443               	.LBE698:
 2444               	.LBB700:
 2445               	.LBB701:
 2446               	.LM281:
 2447 0b8a 15A6      		std Z+45,__zero_reg__
 2448 0b8c 16A6      		std Z+46,__zero_reg__
 2449 0b8e 17A6      		std Z+47,__zero_reg__
 2450 0b90 10AA      		std Z+48,__zero_reg__
 2451               	.LBE701:
 2452               	.LBE700:
 2453               	.LBB702:
 2454               	.LBB703:
 2455               	.LM282:
 2456 0b92 41A7      		std Z+41,r20
 2457 0b94 52A7      		std Z+42,r21
 2458 0b96 63A7      		std Z+43,r22
 2459 0b98 74A7      		std Z+44,r23
 2460               	.LBE703:
 2461               	.LBE702:
 2462               	.LBB704:
 2463               	.LBB705:
 2464               	.LM283:
 2465 0b9a F901      		movw r30,r18
 2466 0b9c C084      		ldd r12,Z+8
 2467 0b9e D184      		ldd r13,Z+9
 2468               	.LBE705:
 2469               	.LBE704:
 2470               	.LBB706:
 2471               	.LBB707:
 2472               	.LM284:
 2473 0ba0 2284      		ldd r2,Z+10
 2474 0ba2 3384      		ldd r3,Z+11
 2475 0ba4 4484      		ldd r4,Z+12
 2476 0ba6 5584      		ldd r5,Z+13
 2477               	.LVL152:
 2478               	.LBE707:
 2479               	.LBE706:
 2480               	.LM285:
 2481 0ba8 2181      		ldd r18,Z+1
 2482 0baa 3281      		ldd r19,Z+2
 2483 0bac 40E0      		ldi r20,lo8(0)
 2484 0bae 50E0      		ldi r21,hi8(0)
 2485 0bb0 C501      		movw r24,r10
 2486 0bb2 B401      		movw r22,r8
 2487 0bb4 0E94 0000 		call __divmodsi4
 2488 0bb8 7B01      		movw r14,r22
 2489 0bba 8C01      		movw r16,r24
 2490               	.LM286:
 2491 0bbc AB81      		ldd r26,Y+3
 2492 0bbe BC81      		ldd r27,Y+4
 2493 0bc0 1196      		adiw r26,1
 2494 0bc2 2D91      		ld r18,X+
 2495 0bc4 3C91      		ld r19,X
 2496 0bc6 1297      		sbiw r26,1+1
 2497 0bc8 40E0      		ldi r20,lo8(0)
 2498 0bca 50E0      		ldi r21,hi8(0)
 2499 0bcc C501      		movw r24,r10
 2500 0bce B401      		movw r22,r8
 2501 0bd0 0E94 0000 		call __divmodsi4
 2502 0bd4 C901      		movw r24,r18
 2503 0bd6 DA01      		movw r26,r20
 2504 0bd8 3C01      		movw r6,r24
 2505 0bda 4D01      		movw r8,r26
 2506               	.LVL153:
 2507               	.LM287:
 2508 0bdc 5601      		movw r10,r12
 2509               	.LVL154:
 2510 0bde CC24      		clr r12
 2511 0be0 DD24      		clr r13
 2512               	.LVL155:
 2513 0be2 AE0C      		add r10,r14
 2514 0be4 BF1C      		adc r11,r15
 2515 0be6 C01E      		adc r12,r16
 2516 0be8 D11E      		adc r13,r17
 2517               	.LVL156:
 2518               	.LM288:
 2519 0bea EB81      		ldd r30,Y+3
 2520 0bec FC81      		ldd r31,Y+4
 2521 0bee 8181      		ldd r24,Z+1
 2522 0bf0 9281      		ldd r25,Z+2
 2523               	.LVL157:
 2524 0bf2 A0E0      		ldi r26,lo8(0)
 2525 0bf4 B0E0      		ldi r27,hi8(0)
 2526 0bf6 A816      		cp r10,r24
 2527 0bf8 B906      		cpc r11,r25
 2528 0bfa CA06      		cpc r12,r26
 2529 0bfc DB06      		cpc r13,r27
 2530 0bfe 04F0      		brlt .L128
 2531               	.LM289:
 2532 0c00 0894      		sec
 2533 0c02 611C      		adc r6,__zero_reg__
 2534 0c04 711C      		adc r7,__zero_reg__
 2535 0c06 811C      		adc r8,__zero_reg__
 2536 0c08 911C      		adc r9,__zero_reg__
 2537               	.LM290:
 2538 0c0a 2181      		ldd r18,Z+1
 2539 0c0c 3281      		ldd r19,Z+2
 2540 0c0e 40E0      		ldi r20,lo8(0)
 2541 0c10 50E0      		ldi r21,hi8(0)
 2542 0c12 C601      		movw r24,r12
 2543 0c14 B501      		movw r22,r10
 2544 0c16 0E94 0000 		call __divmodsi4
 2545 0c1a AC01      		movw r20,r24
 2546 0c1c CB01      		movw r24,r22
 2547 0c1e DA01      		movw r26,r20
 2548 0c20 5C01      		movw r10,r24
 2549 0c22 6D01      		movw r12,r26
 2550               	.L128:
 2551               	.LBB708:
 2552               	.LBB709:
 2553               	.LM291:
 2554 0c24 89E1      		ldi r24,lo8(25)
 2555 0c26 90E0      		ldi r25,hi8(25)
 2556 0c28 2981      		ldd r18,Y+1
 2557 0c2a 3A81      		ldd r19,Y+2
 2558 0c2c 289F      		mul r18,r24
 2559 0c2e F001      		movw r30,r0
 2560 0c30 299F      		mul r18,r25
 2561 0c32 F00D      		add r31,r0
 2562 0c34 389F      		mul r19,r24
 2563 0c36 F00D      		add r31,r0
 2564 0c38 1124      		clr r1
 2565 0c3a 8B81      		ldd r24,Y+3
 2566 0c3c 9C81      		ldd r25,Y+4
 2567 0c3e E80F      		add r30,r24
 2568 0c40 F91F      		adc r31,r25
 2569 0c42 260C      		add r2,r6
 2570 0c44 371C      		adc r3,r7
 2571 0c46 481C      		adc r4,r8
 2572 0c48 591C      		adc r5,r9
 2573 0c4a 21A2      		std Z+33,r2
 2574 0c4c 32A2      		std Z+34,r3
 2575 0c4e 43A2      		std Z+35,r4
 2576 0c50 54A2      		std Z+36,r5
 2577               	.LBE709:
 2578               	.LBE708:
 2579               	.LBB710:
 2580               	.LBB711:
 2581               	.LM292:
 2582 0c52 A5A2      		std Z+37,r10
 2583 0c54 B6A2      		std Z+38,r11
 2584 0c56 C7A2      		std Z+39,r12
 2585 0c58 D0A6      		std Z+40,r13
 2586               	.LBE711:
 2587               	.LBE710:
 2588               	.LBB712:
 2589               	.LBB713:
 2590               	.LM293:
 2591 0c5a 90A1      		ldd r25,Z+32
 2592 0c5c 892F      		mov r24,r25
 2593 0c5e 8695      		lsr r24
 2594 0c60 8F70      		andi r24,lo8(15)
 2595 0c62 8130      		cpi r24,lo8(1)
 2596 0c64 01F0      		breq .L129
 2597               	.LBB714:
 2598               	.LBB715:
 2599               	.LM294:
 2600 0c66 917E      		andi r25,lo8(-31)
 2601 0c68 9260      		ori r25,lo8(2)
 2602 0c6a 90A3      		std Z+32,r25
 2603               	.LVL158:
 2604               	.L129:
 2605               	/* epilogue start */
 2606               	.LBE715:
 2607               	.LBE714:
 2608               	.LBE713:
 2609               	.LBE712:
 2610               	.LBE697:
 2611               	.LM295:
 2612 0c6c 0F90      		pop __tmp_reg__
 2613 0c6e 0F90      		pop __tmp_reg__
 2614 0c70 0F90      		pop __tmp_reg__
 2615 0c72 0F90      		pop __tmp_reg__
 2616 0c74 CF91      		pop r28
 2617 0c76 DF91      		pop r29
 2618 0c78 1F91      		pop r17
 2619 0c7a 0F91      		pop r16
 2620 0c7c FF90      		pop r15
 2621 0c7e EF90      		pop r14
 2622 0c80 DF90      		pop r13
 2623 0c82 CF90      		pop r12
 2624               	.LVL159:
 2625 0c84 BF90      		pop r11
 2626 0c86 AF90      		pop r10
 2627               	.LVL160:
 2628 0c88 9F90      		pop r9
 2629 0c8a 8F90      		pop r8
 2630               	.LVL161:
 2631 0c8c 7F90      		pop r7
 2632 0c8e 6F90      		pop r6
 2633               	.LVL162:
 2634 0c90 5F90      		pop r5
 2635 0c92 4F90      		pop r4
 2636 0c94 3F90      		pop r3
 2637 0c96 2F90      		pop r2
 2638               	.LVL163:
 2639 0c98 0895      		ret
 2640               	.LFE49:
 2642               	.global	Timebase_UpCounter_SS_Set_Forcefully
 2644               	Timebase_UpCounter_SS_Set_Forcefully:
 2645               	.LFB50:
 2646               	.LM296:
 2647               	.LVL164:
 2648 0c9a DF92      		push r13
 2649 0c9c EF92      		push r14
 2650 0c9e FF92      		push r15
 2651 0ca0 0F93      		push r16
 2652 0ca2 1F93      		push r17
 2653               	/* prologue: function */
 2654               	/* frame size = 0 */
 2655 0ca4 D82E      		mov r13,r24
 2656 0ca6 7A01      		movw r14,r20
 2657 0ca8 8B01      		movw r16,r22
 2658               	.LM297:
 2659 0caa 0E94 0000 		call Timebase_UpCounter_SS_Reset
 2660               	.LVL165:
 2661               	.LM298:
 2662 0cae 8D2D      		mov r24,r13
 2663 0cb0 B801      		movw r22,r16
 2664 0cb2 A701      		movw r20,r14
 2665 0cb4 0E94 0000 		call Timebase_UpCounter_SS_Set_Securely
 2666               	/* epilogue start */
 2667               	.LM299:
 2668 0cb8 1F91      		pop r17
 2669 0cba 0F91      		pop r16
 2670 0cbc FF90      		pop r15
 2671 0cbe EF90      		pop r14
 2672               	.LVL166:
 2673 0cc0 DF90      		pop r13
 2674               	.LVL167:
 2675 0cc2 0895      		ret
 2676               	.LFE50:
 2678               	.global	Timebase_UpCounter_SS_Update
 2680               	Timebase_UpCounter_SS_Update:
 2681               	.LFB51:
 2682               	.LM300:
 2683               	.LVL168:
 2684 0cc4 2F92      		push r2
 2685 0cc6 3F92      		push r3
 2686 0cc8 4F92      		push r4
 2687 0cca 5F92      		push r5
 2688 0ccc 6F92      		push r6
 2689 0cce 7F92      		push r7
 2690 0cd0 8F92      		push r8
 2691 0cd2 9F92      		push r9
 2692 0cd4 AF92      		push r10
 2693 0cd6 BF92      		push r11
 2694 0cd8 CF92      		push r12
 2695 0cda DF92      		push r13
 2696 0cdc EF92      		push r14
 2697 0cde FF92      		push r15
 2698 0ce0 0F93      		push r16
 2699 0ce2 1F93      		push r17
 2700 0ce4 DF93      		push r29
 2701 0ce6 CF93      		push r28
 2702 0ce8 00D0      		rcall .
 2703 0cea 00D0      		rcall .
 2704 0cec 00D0      		rcall .
 2705 0cee CDB7      		in r28,__SP_L__
 2706 0cf0 DEB7      		in r29,__SP_H__
 2707               	/* prologue: function */
 2708               	/* frame size = 6 */
 2709               	.LBB716:
 2710               	.LBB717:
 2711               	.LM301:
 2712 0cf2 2090 0000 		lds r2,Timebase
 2713 0cf6 3090 0000 		lds r3,(Timebase)+1
 2714 0cfa 282F      		mov r18,r24
 2715 0cfc 30E0      		ldi r19,lo8(0)
 2716 0cfe 3E83      		std Y+6,r19
 2717 0d00 2D83      		std Y+5,r18
 2718 0d02 89E1      		ldi r24,lo8(25)
 2719 0d04 90E0      		ldi r25,hi8(25)
 2720               	.LVL169:
 2721 0d06 289F      		mul r18,r24
 2722 0d08 B001      		movw r22,r0
 2723 0d0a 299F      		mul r18,r25
 2724 0d0c 700D      		add r23,r0
 2725 0d0e 389F      		mul r19,r24
 2726 0d10 700D      		add r23,r0
 2727 0d12 1124      		clr r1
 2728 0d14 620D      		add r22,r2
 2729 0d16 731D      		adc r23,r3
 2730 0d18 DB01      		movw r26,r22
 2731 0d1a 9096      		adiw r26,32
 2732 0d1c 8C91      		ld r24,X
 2733 0d1e 9097      		sbiw r26,32
 2734 0d20 8695      		lsr r24
 2735 0d22 8F70      		andi r24,lo8(15)
 2736               	.LBE717:
 2737               	.LBE716:
 2738               	.LM302:
 2739 0d24 8130      		cpi r24,lo8(1)
 2740 0d26 01F0      		breq .+2
 2741 0d28 00C0      		rjmp .L133
 2742               	.LBB718:
 2743               	.LBB719:
 2744               	.LM303:
 2745 0d2a F101      		movw r30,r2
 2746 0d2c 2285      		ldd r18,Z+10
 2747 0d2e 3385      		ldd r19,Z+11
 2748 0d30 4485      		ldd r20,Z+12
 2749 0d32 5585      		ldd r21,Z+13
 2750               	.LVL170:
 2751               	.LBE719:
 2752               	.LBE718:
 2753               	.LBB720:
 2754               	.LBB721:
 2755               	.LM304:
 2756 0d34 8085      		ldd r24,Z+8
 2757 0d36 9185      		ldd r25,Z+9
 2758               	.LBE721:
 2759               	.LBE720:
 2760               	.LM305:
 2761 0d38 2C01      		movw r4,r24
 2762               	.LVL171:
 2763 0d3a 6624      		clr r6
 2764 0d3c 7724      		clr r7
 2765               	.LVL172:
 2766               	.LM306:
 2767 0d3e 9196      		adiw r26,33
 2768 0d40 8D90      		ld r8,X+
 2769 0d42 9D90      		ld r9,X+
 2770 0d44 AD90      		ld r10,X+
 2771 0d46 BC90      		ld r11,X
 2772 0d48 9497      		sbiw r26,33+3
 2773               	.LVL173:
 2774 0d4a 821A      		sub r8,r18
 2775 0d4c 930A      		sbc r9,r19
 2776 0d4e A40A      		sbc r10,r20
 2777 0d50 B50A      		sbc r11,r21
 2778 0d52 B7FE      		sbrs r11,7
 2779 0d54 00C0      		rjmp .L134
 2780 0d56 8824      		clr r8
 2781 0d58 9924      		clr r9
 2782 0d5a 5401      		movw r10,r8
 2783               	.L134:
 2784               	.LM307:
 2785 0d5c D101      		movw r26,r2
 2786 0d5e 1196      		adiw r26,1
 2787 0d60 2D91      		ld r18,X+
 2788 0d62 3C91      		ld r19,X
 2789 0d64 1297      		sbiw r26,1+1
 2790               	.LM308:
 2791 0d66 89E1      		ldi r24,lo8(25)
 2792 0d68 90E0      		ldi r25,hi8(25)
 2793 0d6a 4D81      		ldd r20,Y+5
 2794 0d6c 5E81      		ldd r21,Y+6
 2795 0d6e 489F      		mul r20,r24
 2796 0d70 F001      		movw r30,r0
 2797 0d72 499F      		mul r20,r25
 2798 0d74 F00D      		add r31,r0
 2799 0d76 589F      		mul r21,r24
 2800 0d78 F00D      		add r31,r0
 2801 0d7a 1124      		clr r1
 2802 0d7c E20D      		add r30,r2
 2803 0d7e F31D      		adc r31,r3
 2804 0d80 E5A0      		ldd r14,Z+37
 2805 0d82 F6A0      		ldd r15,Z+38
 2806 0d84 07A1      		ldd r16,Z+39
 2807 0d86 10A5      		ldd r17,Z+40
 2808               	.LVL174:
 2809 0d88 E418      		sub r14,r4
 2810 0d8a F508      		sbc r15,r5
 2811 0d8c 0609      		sbc r16,r6
 2812 0d8e 1709      		sbc r17,r7
 2813 0d90 17FF      		sbrs r17,7
 2814 0d92 00C0      		rjmp .L135
 2815 0d94 EE24      		clr r14
 2816 0d96 FF24      		clr r15
 2817 0d98 8701      		movw r16,r14
 2818               	.L135:
 2819               	.LM309:
 2820 0d9a 40E0      		ldi r20,lo8(0)
 2821 0d9c 50E0      		ldi r21,hi8(0)
 2822 0d9e C501      		movw r24,r10
 2823 0da0 B401      		movw r22,r8
 2824 0da2 0E94 0000 		call __mulsi3
 2825 0da6 6E0D      		add r22,r14
 2826 0da8 7F1D      		adc r23,r15
 2827 0daa 801F      		adc r24,r16
 2828 0dac 911F      		adc r25,r17
 2829               	.LVL175:
 2830               	.LBB722:
 2831               	.LBB723:
 2832               	.LM310:
 2833 0dae 29E1      		ldi r18,lo8(25)
 2834 0db0 30E0      		ldi r19,hi8(25)
 2835 0db2 AD81      		ldd r26,Y+5
 2836 0db4 BE81      		ldd r27,Y+6
 2837 0db6 A29F      		mul r26,r18
 2838 0db8 F001      		movw r30,r0
 2839 0dba A39F      		mul r26,r19
 2840 0dbc F00D      		add r31,r0
 2841 0dbe B29F      		mul r27,r18
 2842 0dc0 F00D      		add r31,r0
 2843 0dc2 1124      		clr r1
 2844 0dc4 E20D      		add r30,r2
 2845 0dc6 F31D      		adc r31,r3
 2846 0dc8 65A7      		std Z+45,r22
 2847 0dca 76A7      		std Z+46,r23
 2848 0dcc 87A7      		std Z+47,r24
 2849 0dce 90AB      		std Z+48,r25
 2850               	.LBE723:
 2851               	.LBE722:
 2852               	.LM311:
 2853 0dd0 21A5      		ldd r18,Z+41
 2854 0dd2 32A5      		ldd r19,Z+42
 2855 0dd4 43A5      		ldd r20,Z+43
 2856 0dd6 54A5      		ldd r21,Z+44
 2857               	.LVL176:
 2858               	.LBB724:
 2859               	.LBB725:
 2860               	.LM312:
 2861 0dd8 261B      		sub r18,r22
 2862 0dda 370B      		sbc r19,r23
 2863 0ddc 480B      		sbc r20,r24
 2864 0dde 590B      		sbc r21,r25
 2865 0de0 57FF      		sbrs r21,7
 2866 0de2 00C0      		rjmp .L136
 2867 0de4 20E0      		ldi r18,lo8(0)
 2868 0de6 30E0      		ldi r19,hi8(0)
 2869 0de8 40E0      		ldi r20,hlo8(0)
 2870 0dea 50E0      		ldi r21,hhi8(0)
 2871               	.L136:
 2872 0dec 21AB      		std Z+49,r18
 2873 0dee 32AB      		std Z+50,r19
 2874 0df0 43AB      		std Z+51,r20
 2875 0df2 54AB      		std Z+52,r21
 2876               	.LBE725:
 2877               	.LBE724:
 2878               	.LM313:
 2879 0df4 89E1      		ldi r24,lo8(25)
 2880 0df6 90E0      		ldi r25,hi8(25)
 2881 0df8 ED81      		ldd r30,Y+5
 2882 0dfa FE81      		ldd r31,Y+6
 2883 0dfc E89F      		mul r30,r24
 2884 0dfe B001      		movw r22,r0
 2885 0e00 E99F      		mul r30,r25
 2886 0e02 700D      		add r23,r0
 2887 0e04 F89F      		mul r31,r24
 2888 0e06 700D      		add r23,r0
 2889 0e08 1124      		clr r1
 2890               	.LVL177:
 2891 0e0a 620D      		add r22,r2
 2892 0e0c 731D      		adc r23,r3
 2893 0e0e FB01      		movw r30,r22
 2894 0e10 85A5      		ldd r24,Z+45
 2895 0e12 96A5      		ldd r25,Z+46
 2896 0e14 A7A5      		ldd r26,Z+47
 2897 0e16 B0A9      		ldd r27,Z+48
 2898 0e18 1816      		cp __zero_reg__,r24
 2899 0e1a 1906      		cpc __zero_reg__,r25
 2900 0e1c 1A06      		cpc __zero_reg__,r26
 2901 0e1e 1B06      		cpc __zero_reg__,r27
 2902 0e20 04F4      		brge .+2
 2903 0e22 00C0      		rjmp .L141
 2904               	.LBB726:
 2905               	.LBB727:
 2906               	.LM314:
 2907 0e24 DB01      		movw r26,r22
 2908 0e26 9196      		adiw r26,33
 2909 0e28 1D92      		st X+,__zero_reg__
 2910 0e2a 1D92      		st X+,__zero_reg__
 2911 0e2c 1D92      		st X+,__zero_reg__
 2912 0e2e 1C92      		st X,__zero_reg__
 2913 0e30 9497      		sbiw r26,33+3
 2914               	.LBE727:
 2915               	.LBE726:
 2916               	.LBB728:
 2917               	.LBB729:
 2918               	.LM315:
 2919 0e32 15A2      		std Z+37,__zero_reg__
 2920 0e34 16A2      		std Z+38,__zero_reg__
 2921 0e36 17A2      		std Z+39,__zero_reg__
 2922 0e38 10A6      		std Z+40,__zero_reg__
 2923               	.LBE729:
 2924               	.LBE728:
 2925               	.LBB730:
 2926               	.LBB731:
 2927               	.LM316:
 2928 0e3a 9D96      		adiw r26,45
 2929 0e3c 1D92      		st X+,__zero_reg__
 2930 0e3e 1D92      		st X+,__zero_reg__
 2931 0e40 1D92      		st X+,__zero_reg__
 2932 0e42 1C92      		st X,__zero_reg__
 2933 0e44 D097      		sbiw r26,45+3
 2934               	.LBE731:
 2935               	.LBE730:
 2936               	.LBB732:
 2937               	.LBB733:
 2938               	.LM317:
 2939 0e46 B996      		adiw r30,41
 2940               	.LBE733:
 2941               	.LBE732:
 2942               	.LBB734:
 2943               	.LBB735:
 2944               	.LM318:
 2945 0e48 9996      		adiw r26,41
 2946 0e4a 2C91      		ld r18,X
 2947               	.LVL178:
 2948 0e4c 3181      		ldd r19,Z+1
 2949               	.LVL179:
 2950 0e4e 4281      		ldd r20,Z+2
 2951               	.LVL180:
 2952 0e50 5381      		ldd r21,Z+3
 2953               	.LVL181:
 2954 0e52 C901      		movw r24,r18
 2955               	.LVL182:
 2956 0e54 DA01      		movw r26,r20
 2957               	.LVL183:
 2958 0e56 B7FF      		sbrs r27,7
 2959 0e58 00C0      		rjmp .L138
 2960               	.LVL184:
 2961 0e5a 80E0      		ldi r24,lo8(0)
 2962 0e5c 90E0      		ldi r25,hi8(0)
 2963 0e5e A0E0      		ldi r26,hlo8(0)
 2964 0e60 B0E0      		ldi r27,hhi8(0)
 2965               	.L138:
 2966 0e62 FB01      		movw r30,r22
 2967 0e64 81AB      		std Z+49,r24
 2968 0e66 92AB      		std Z+50,r25
 2969 0e68 A3AB      		std Z+51,r26
 2970 0e6a B4AB      		std Z+52,r27
 2971               	.LBE735:
 2972               	.LBE734:
 2973               	.LBB736:
 2974               	.LBB737:
 2975               	.LM319:
 2976 0e6c 89E1      		ldi r24,lo8(25)
 2977 0e6e 90E0      		ldi r25,hi8(25)
 2978               	.LVL185:
 2979 0e70 2D81      		ldd r18,Y+5
 2980 0e72 3E81      		ldd r19,Y+6
 2981 0e74 289F      		mul r18,r24
 2982 0e76 F001      		movw r30,r0
 2983 0e78 299F      		mul r18,r25
 2984 0e7a F00D      		add r31,r0
 2985 0e7c 389F      		mul r19,r24
 2986 0e7e F00D      		add r31,r0
 2987 0e80 1124      		clr r1
 2988 0e82 E20D      		add r30,r2
 2989 0e84 F31D      		adc r31,r3
 2990 0e86 80A1      		ldd r24,Z+32
 2991 0e88 817E      		andi r24,lo8(-31)
 2992 0e8a 8860      		ori r24,lo8(8)
 2993 0e8c 80A3      		std Z+32,r24
 2994 0e8e 00C0      		rjmp .L141
 2995               	.LVL186:
 2996               	.L133:
 2997               	.LBE737:
 2998               	.LBE736:
 2999               	.LM320:
 3000 0e90 8230      		cpi r24,lo8(2)
 3001 0e92 01F0      		breq .+2
 3002 0e94 00C0      		rjmp .L141
 3003               	.LBB738:
 3004               	.LBB739:
 3005               	.LBB740:
 3006               	.LM321:
 3007 0e96 D101      		movw r26,r2
 3008 0e98 1A96      		adiw r26,10
 3009 0e9a 8D91      		ld r24,X+
 3010 0e9c 9D91      		ld r25,X+
 3011 0e9e 0D90      		ld __tmp_reg__,X+
 3012 0ea0 BC91      		ld r27,X
 3013 0ea2 A02D      		mov r26,__tmp_reg__
 3014 0ea4 8983      		std Y+1,r24
 3015 0ea6 9A83      		std Y+2,r25
 3016 0ea8 AB83      		std Y+3,r26
 3017 0eaa BC83      		std Y+4,r27
 3018               	.LVL187:
 3019               	.LBE740:
 3020               	.LBE739:
 3021               	.LBB741:
 3022               	.LBB742:
 3023               	.LM322:
 3024 0eac F101      		movw r30,r2
 3025 0eae 8084      		ldd r8,Z+8
 3026 0eb0 9184      		ldd r9,Z+9
 3027               	.LBE742:
 3028               	.LBE741:
 3029               	.LBB743:
 3030               	.LBB744:
 3031               	.LM323:
 3032 0eb2 DB01      		movw r26,r22
 3033 0eb4 9D96      		adiw r26,45
 3034 0eb6 AD90      		ld r10,X+
 3035 0eb8 BD90      		ld r11,X+
 3036 0eba CD90      		ld r12,X+
 3037 0ebc DC90      		ld r13,X
 3038 0ebe D097      		sbiw r26,45+3
 3039               	.LVL188:
 3040               	.LBE744:
 3041               	.LBE743:
 3042               	.LM324:
 3043 0ec0 2181      		ldd r18,Z+1
 3044 0ec2 3281      		ldd r19,Z+2
 3045 0ec4 40E0      		ldi r20,lo8(0)
 3046 0ec6 50E0      		ldi r21,hi8(0)
 3047 0ec8 C601      		movw r24,r12
 3048 0eca B501      		movw r22,r10
 3049 0ecc 0E94 0000 		call __divmodsi4
 3050 0ed0 7B01      		movw r14,r22
 3051 0ed2 8C01      		movw r16,r24
 3052               	.LM325:
 3053 0ed4 F101      		movw r30,r2
 3054 0ed6 2181      		ldd r18,Z+1
 3055 0ed8 3281      		ldd r19,Z+2
 3056 0eda 40E0      		ldi r20,lo8(0)
 3057 0edc 50E0      		ldi r21,hi8(0)
 3058 0ede C601      		movw r24,r12
 3059 0ee0 B501      		movw r22,r10
 3060 0ee2 0E94 0000 		call __divmodsi4
 3061 0ee6 C901      		movw r24,r18
 3062 0ee8 DA01      		movw r26,r20
 3063 0eea 2C01      		movw r4,r24
 3064 0eec 3D01      		movw r6,r26
 3065               	.LVL189:
 3066               	.LM326:
 3067 0eee AA24      		clr r10
 3068 0ef0 BB24      		clr r11
 3069               	.LVL190:
 3070 0ef2 8E0C      		add r8,r14
 3071 0ef4 9F1C      		adc r9,r15
 3072 0ef6 A01E      		adc r10,r16
 3073 0ef8 B11E      		adc r11,r17
 3074               	.LVL191:
 3075               	.LM327:
 3076 0efa D101      		movw r26,r2
 3077 0efc 1196      		adiw r26,1
 3078 0efe 8D91      		ld r24,X+
 3079 0f00 9C91      		ld r25,X
 3080 0f02 1297      		sbiw r26,1+1
 3081               	.LVL192:
 3082 0f04 A0E0      		ldi r26,lo8(0)
 3083 0f06 B0E0      		ldi r27,hi8(0)
 3084 0f08 8816      		cp r8,r24
 3085 0f0a 9906      		cpc r9,r25
 3086 0f0c AA06      		cpc r10,r26
 3087 0f0e BB06      		cpc r11,r27
 3088 0f10 04F0      		brlt .L139
 3089               	.LM328:
 3090 0f12 0894      		sec
 3091 0f14 411C      		adc r4,__zero_reg__
 3092 0f16 511C      		adc r5,__zero_reg__
 3093 0f18 611C      		adc r6,__zero_reg__
 3094 0f1a 711C      		adc r7,__zero_reg__
 3095               	.LM329:
 3096 0f1c F101      		movw r30,r2
 3097 0f1e 2181      		ldd r18,Z+1
 3098 0f20 3281      		ldd r19,Z+2
 3099 0f22 40E0      		ldi r20,lo8(0)
 3100 0f24 50E0      		ldi r21,hi8(0)
 3101 0f26 C501      		movw r24,r10
 3102 0f28 B401      		movw r22,r8
 3103 0f2a 0E94 0000 		call __divmodsi4
 3104 0f2e AC01      		movw r20,r24
 3105 0f30 CB01      		movw r24,r22
 3106 0f32 DA01      		movw r26,r20
 3107 0f34 4C01      		movw r8,r24
 3108 0f36 5D01      		movw r10,r26
 3109               	.L139:
 3110               	.LBB745:
 3111               	.LBB746:
 3112               	.LM330:
 3113 0f38 89E1      		ldi r24,lo8(25)
 3114 0f3a 90E0      		ldi r25,hi8(25)
 3115 0f3c 2D81      		ldd r18,Y+5
 3116 0f3e 3E81      		ldd r19,Y+6
 3117 0f40 289F      		mul r18,r24
 3118 0f42 8001      		movw r16,r0
 3119 0f44 299F      		mul r18,r25
 3120 0f46 100D      		add r17,r0
 3121 0f48 389F      		mul r19,r24
 3122 0f4a 100D      		add r17,r0
 3123 0f4c 1124      		clr r1
 3124 0f4e 020D      		add r16,r2
 3125 0f50 131D      		adc r17,r3
 3126 0f52 8981      		ldd r24,Y+1
 3127 0f54 9A81      		ldd r25,Y+2
 3128 0f56 AB81      		ldd r26,Y+3
 3129 0f58 BC81      		ldd r27,Y+4
 3130 0f5a 840D      		add r24,r4
 3131 0f5c 951D      		adc r25,r5
 3132 0f5e A61D      		adc r26,r6
 3133 0f60 B71D      		adc r27,r7
 3134 0f62 F801      		movw r30,r16
 3135 0f64 81A3      		std Z+33,r24
 3136 0f66 92A3      		std Z+34,r25
 3137 0f68 A3A3      		std Z+35,r26
 3138 0f6a B4A3      		std Z+36,r27
 3139               	.LBE746:
 3140               	.LBE745:
 3141               	.LBB747:
 3142               	.LBB748:
 3143               	.LM331:
 3144 0f6c D801      		movw r26,r16
 3145 0f6e 9596      		adiw r26,37
 3146 0f70 8D92      		st X+,r8
 3147 0f72 9D92      		st X+,r9
 3148 0f74 AD92      		st X+,r10
 3149 0f76 BC92      		st X,r11
 3150 0f78 9897      		sbiw r26,37+3
 3151               	.LBE748:
 3152               	.LBE747:
 3153               	.LM332:
 3154 0f7a 9996      		adiw r26,41
 3155 0f7c 2D91      		ld r18,X+
 3156 0f7e 3D91      		ld r19,X+
 3157 0f80 4D91      		ld r20,X+
 3158 0f82 5C91      		ld r21,X
 3159 0f84 9C97      		sbiw r26,41+3
 3160               	.LVL193:
 3161 0f86 9D96      		adiw r26,45
 3162 0f88 8D91      		ld r24,X+
 3163 0f8a 9D91      		ld r25,X+
 3164 0f8c 0D90      		ld __tmp_reg__,X+
 3165 0f8e BC91      		ld r27,X
 3166 0f90 A02D      		mov r26,__tmp_reg__
 3167               	.LBB749:
 3168               	.LBB750:
 3169               	.LM333:
 3170 0f92 281B      		sub r18,r24
 3171 0f94 390B      		sbc r19,r25
 3172 0f96 4A0B      		sbc r20,r26
 3173 0f98 5B0B      		sbc r21,r27
 3174 0f9a 57FF      		sbrs r21,7
 3175 0f9c 00C0      		rjmp .L140
 3176 0f9e 20E0      		ldi r18,lo8(0)
 3177 0fa0 30E0      		ldi r19,hi8(0)
 3178 0fa2 40E0      		ldi r20,hlo8(0)
 3179 0fa4 50E0      		ldi r21,hhi8(0)
 3180               	.L140:
 3181 0fa6 F801      		movw r30,r16
 3182 0fa8 21AB      		std Z+49,r18
 3183 0faa 32AB      		std Z+50,r19
 3184 0fac 43AB      		std Z+51,r20
 3185 0fae 54AB      		std Z+52,r21
 3186               	.LVL194:
 3187               	.L141:
 3188               	/* epilogue start */
 3189               	.LBE750:
 3190               	.LBE749:
 3191               	.LBE738:
 3192               	.LM334:
 3193 0fb0 2696      		adiw r28,6
 3194 0fb2 0FB6      		in __tmp_reg__,__SREG__
 3195 0fb4 F894      		cli
 3196 0fb6 DEBF      		out __SP_H__,r29
 3197 0fb8 0FBE      		out __SREG__,__tmp_reg__
 3198 0fba CDBF      		out __SP_L__,r28
 3199 0fbc CF91      		pop r28
 3200 0fbe DF91      		pop r29
 3201 0fc0 1F91      		pop r17
 3202 0fc2 0F91      		pop r16
 3203 0fc4 FF90      		pop r15
 3204 0fc6 EF90      		pop r14
 3205 0fc8 DF90      		pop r13
 3206 0fca CF90      		pop r12
 3207 0fcc BF90      		pop r11
 3208 0fce AF90      		pop r10
 3209               	.LVL195:
 3210 0fd0 9F90      		pop r9
 3211 0fd2 8F90      		pop r8
 3212               	.LVL196:
 3213 0fd4 7F90      		pop r7
 3214 0fd6 6F90      		pop r6
 3215               	.LVL197:
 3216 0fd8 5F90      		pop r5
 3217 0fda 4F90      		pop r4
 3218               	.LVL198:
 3219 0fdc 3F90      		pop r3
 3220 0fde 2F90      		pop r2
 3221 0fe0 0895      		ret
 3222               	.LFE51:
 3224               	.global	Timebase_UpCounter_SS_Expired
 3226               	Timebase_UpCounter_SS_Expired:
 3227               	.LFB52:
 3228               	.LM335:
 3229               	.LVL199:
 3230               	/* prologue: function */
 3231               	/* frame size = 0 */
 3232               	.LM336:
 3233 0fe2 40E0      		ldi r20,lo8(0)
 3234 0fe4 E091 0000 		lds r30,Timebase
 3235 0fe8 F091 0000 		lds r31,(Timebase)+1
 3236 0fec 90E0      		ldi r25,lo8(0)
 3237               	.LVL200:
 3238 0fee 29E1      		ldi r18,lo8(25)
 3239 0ff0 30E0      		ldi r19,hi8(25)
 3240 0ff2 BC01      		movw r22,r24
 3241 0ff4 629F      		mul r22,r18
 3242 0ff6 C001      		movw r24,r0
 3243 0ff8 639F      		mul r22,r19
 3244 0ffa 900D      		add r25,r0
 3245 0ffc 729F      		mul r23,r18
 3246 0ffe 900D      		add r25,r0
 3247 1000 1124      		clr r1
 3248               	.LVL201:
 3249 1002 E80F      		add r30,r24
 3250 1004 F91F      		adc r31,r25
 3251 1006 80A1      		ldd r24,Z+32
 3252 1008 8695      		lsr r24
 3253 100a 8F70      		andi r24,lo8(15)
 3254 100c 8430      		cpi r24,lo8(4)
 3255 100e 01F4      		brne .L143
 3256 1010 41E0      		ldi r20,lo8(1)
 3257               	.L143:
 3258               	.LM337:
 3259 1012 842F      		mov r24,r20
 3260               	/* epilogue start */
 3261 1014 0895      		ret
 3262               	.LFE52:
 3264               	.global	Timebase_UpCounter_SS_Expired_Event
 3266               	Timebase_UpCounter_SS_Expired_Event:
 3267               	.LFB53:
 3268               	.LM338:
 3269               	.LVL202:
 3270               	/* prologue: function */
 3271               	/* frame size = 0 */
 3272 1016 482F      		mov r20,r24
 3273               	.LM339:
 3274 1018 E091 0000 		lds r30,Timebase
 3275 101c F091 0000 		lds r31,(Timebase)+1
 3276 1020 282F      		mov r18,r24
 3277 1022 30E0      		ldi r19,lo8(0)
 3278               	.LVL203:
 3279 1024 89E1      		ldi r24,lo8(25)
 3280 1026 90E0      		ldi r25,hi8(25)
 3281               	.LVL204:
 3282 1028 BC01      		movw r22,r24
 3283 102a 269F      		mul r18,r22
 3284 102c C001      		movw r24,r0
 3285 102e 279F      		mul r18,r23
 3286 1030 900D      		add r25,r0
 3287 1032 369F      		mul r19,r22
 3288 1034 900D      		add r25,r0
 3289 1036 1124      		clr r1
 3290 1038 E80F      		add r30,r24
 3291 103a F91F      		adc r31,r25
 3292 103c 80A1      		ldd r24,Z+32
 3293 103e 8695      		lsr r24
 3294 1040 8F70      		andi r24,lo8(15)
 3295 1042 8430      		cpi r24,lo8(4)
 3296 1044 01F0      		breq .L146
 3297 1046 80E0      		ldi r24,lo8(0)
 3298 1048 0895      		ret
 3299               	.L146:
 3300               	.LBB751:
 3301               	.LBB752:
 3302               	.LM340:
 3303 104a 842F      		mov r24,r20
 3304 104c 0E94 0000 		call Timebase_UpCounter_SS_Reset
 3305               	.LVL205:
 3306 1050 81E0      		ldi r24,lo8(1)
 3307               	.LBE752:
 3308               	.LBE751:
 3309               	.LM341:
 3310 1052 0895      		ret
 3311               	.LFE53:
 3313               	.global	Timebase_UpCounter_SS_Set_Period_Value_Securely
 3315               	Timebase_UpCounter_SS_Set_Period_Value_Securely:
 3316               	.LFB54:
 3317               	.LM342:
 3318               	.LVL206:
 3319               	/* prologue: function */
 3320               	/* frame size = 0 */
 3321               	.LBB753:
 3322               	.LBB754:
 3323               	.LM343:
 3324 1054 E091 0000 		lds r30,Timebase
 3325 1058 F091 0000 		lds r31,(Timebase)+1
 3326 105c 90E0      		ldi r25,lo8(0)
 3327               	.LBE754:
 3328               	.LBE753:
 3329               	.LM344:
 3330 105e 29E1      		ldi r18,lo8(25)
 3331 1060 30E0      		ldi r19,hi8(25)
 3332 1062 DC01      		movw r26,r24
 3333               	.LVL207:
 3334 1064 A29F      		mul r26,r18
 3335 1066 C001      		movw r24,r0
 3336 1068 A39F      		mul r26,r19
 3337 106a 900D      		add r25,r0
 3338 106c B29F      		mul r27,r18
 3339 106e 900D      		add r25,r0
 3340 1070 1124      		clr r1
 3341 1072 E80F      		add r30,r24
 3342 1074 F91F      		adc r31,r25
 3343 1076 80A1      		ldd r24,Z+32
 3344 1078 80FD      		sbrc r24,0
 3345 107a 00C0      		rjmp .L151
 3346               	.LBB755:
 3347               	.LBB756:
 3348               	.LM345:
 3349 107c 81A9      		ldd r24,Z+49
 3350 107e 92A9      		ldd r25,Z+50
 3351 1080 A3A9      		ldd r26,Z+51
 3352 1082 B4A9      		ldd r27,Z+52
 3353 1084 840F      		add r24,r20
 3354 1086 951F      		adc r25,r21
 3355 1088 A61F      		adc r26,r22
 3356 108a B71F      		adc r27,r23
 3357 108c 85AB      		std Z+53,r24
 3358 108e 96AB      		std Z+54,r25
 3359 1090 A7AB      		std Z+55,r26
 3360 1092 B0AF      		std Z+56,r27
 3361               	.LBE756:
 3362               	.LBE755:
 3363               	.LBB757:
 3364               	.LBB758:
 3365               	.LM346:
 3366 1094 80A1      		ldd r24,Z+32
 3367 1096 8160      		ori r24,lo8(1)
 3368 1098 80A3      		std Z+32,r24
 3369               	.L151:
 3370 109a 0895      		ret
 3371               	.LBE758:
 3372               	.LBE757:
 3373               	.LFE54:
 3375               	.global	Timebase_UpCounter_SS_Get_Remaining_Period_Value
 3377               	Timebase_UpCounter_SS_Get_Remaining_Period_Value:
 3378               	.LFB55:
 3379               	.LM347:
 3380               	.LVL208:
 3381               	/* prologue: function */
 3382               	/* frame size = 0 */
 3383               	.LBB759:
 3384               	.LBB760:
 3385               	.LM348:
 3386 109c E091 0000 		lds r30,Timebase
 3387 10a0 F091 0000 		lds r31,(Timebase)+1
 3388 10a4 90E0      		ldi r25,lo8(0)
 3389 10a6 29E1      		ldi r18,lo8(25)
 3390 10a8 30E0      		ldi r19,hi8(25)
 3391 10aa AC01      		movw r20,r24
 3392               	.LVL209:
 3393 10ac 429F      		mul r20,r18
 3394 10ae C001      		movw r24,r0
 3395 10b0 439F      		mul r20,r19
 3396 10b2 900D      		add r25,r0
 3397 10b4 529F      		mul r21,r18
 3398 10b6 900D      		add r25,r0
 3399 10b8 1124      		clr r1
 3400 10ba E80F      		add r30,r24
 3401 10bc F91F      		adc r31,r25
 3402 10be 25A9      		ldd r18,Z+53
 3403 10c0 36A9      		ldd r19,Z+54
 3404 10c2 47A9      		ldd r20,Z+55
 3405 10c4 50AD      		ldd r21,Z+56
 3406               	.LVL210:
 3407               	.LBE760:
 3408               	.LBE759:
 3409               	.LM349:
 3410 10c6 81A9      		ldd r24,Z+49
 3411 10c8 92A9      		ldd r25,Z+50
 3412 10ca A3A9      		ldd r26,Z+51
 3413 10cc B4A9      		ldd r27,Z+52
 3414 10ce 281B      		sub r18,r24
 3415 10d0 390B      		sbc r19,r25
 3416 10d2 4A0B      		sbc r20,r26
 3417 10d4 5B0B      		sbc r21,r27
 3418 10d6 57FF      		sbrs r21,7
 3419 10d8 00C0      		rjmp .L153
 3420 10da 20E0      		ldi r18,lo8(0)
 3421 10dc 30E0      		ldi r19,hi8(0)
 3422 10de 40E0      		ldi r20,hlo8(0)
 3423 10e0 50E0      		ldi r21,hhi8(0)
 3424               	.L153:
 3425               	.LM350:
 3426 10e2 B901      		movw r22,r18
 3427               	.LVL211:
 3428 10e4 CA01      		movw r24,r20
 3429               	/* epilogue start */
 3430 10e6 0895      		ret
 3431               	.LFE55:
 3433               	.global	Timebase_UpCounter_SS_Period_Value_Expired
 3435               	Timebase_UpCounter_SS_Period_Value_Expired:
 3436               	.LFB56:
 3437               	.LM351:
 3438               	.LVL212:
 3439 10e8 CF93      		push r28
 3440 10ea DF93      		push r29
 3441               	/* prologue: function */
 3442               	/* frame size = 0 */
 3443               	.LBB761:
 3444               	.LBB762:
 3445               	.LBB763:
 3446               	.LBB764:
 3447               	.LM352:
 3448 10ec C091 0000 		lds r28,Timebase
 3449 10f0 D091 0000 		lds r29,(Timebase)+1
 3450 10f4 682F      		mov r22,r24
 3451 10f6 70E0      		ldi r23,lo8(0)
 3452 10f8 89E1      		ldi r24,lo8(25)
 3453 10fa 90E0      		ldi r25,hi8(25)
 3454               	.LVL213:
 3455 10fc 689F      		mul r22,r24
 3456 10fe F001      		movw r30,r0
 3457 1100 699F      		mul r22,r25
 3458 1102 F00D      		add r31,r0
 3459 1104 789F      		mul r23,r24
 3460 1106 F00D      		add r31,r0
 3461 1108 1124      		clr r1
 3462 110a EC0F      		add r30,r28
 3463 110c FD1F      		adc r31,r29
 3464 110e 25A9      		ldd r18,Z+53
 3465 1110 36A9      		ldd r19,Z+54
 3466 1112 47A9      		ldd r20,Z+55
 3467 1114 50AD      		ldd r21,Z+56
 3468               	.LVL214:
 3469               	.LBE764:
 3470               	.LBE763:
 3471               	.LM353:
 3472 1116 81A9      		ldd r24,Z+49
 3473 1118 92A9      		ldd r25,Z+50
 3474 111a A3A9      		ldd r26,Z+51
 3475 111c B4A9      		ldd r27,Z+52
 3476 111e 281B      		sub r18,r24
 3477 1120 390B      		sbc r19,r25
 3478 1122 4A0B      		sbc r20,r26
 3479 1124 5B0B      		sbc r21,r27
 3480               	.LM354:
 3481 1126 57FD      		sbrc r21,7
 3482 1128 00C0      		rjmp .L156
 3483               	.LBE762:
 3484               	.LBE761:
 3485               	.LM355:
 3486 112a 2115      		cp r18,__zero_reg__
 3487 112c 3105      		cpc r19,__zero_reg__
 3488 112e 4105      		cpc r20,__zero_reg__
 3489 1130 5105      		cpc r21,__zero_reg__
 3490 1132 01F0      		breq .L156
 3491 1134 20E0      		ldi r18,lo8(0)
 3492               	.LVL215:
 3493 1136 00C0      		rjmp .L157
 3494               	.LVL216:
 3495               	.L156:
 3496 1138 20E0      		ldi r18,lo8(0)
 3497               	.LVL217:
 3498 113a 89E1      		ldi r24,lo8(25)
 3499 113c 90E0      		ldi r25,hi8(25)
 3500 113e AC01      		movw r20,r24
 3501 1140 649F      		mul r22,r20
 3502 1142 C001      		movw r24,r0
 3503 1144 659F      		mul r22,r21
 3504 1146 900D      		add r25,r0
 3505 1148 749F      		mul r23,r20
 3506 114a 900D      		add r25,r0
 3507 114c 1124      		clr r1
 3508 114e C80F      		add r28,r24
 3509 1150 D91F      		adc r29,r25
 3510 1152 88A1      		ldd r24,Y+32
 3511 1154 80FF      		sbrs r24,0
 3512 1156 21E0      		ldi r18,lo8(1)
 3513               	.L158:
 3514 1158 81E0      		ldi r24,lo8(1)
 3515 115a 2827      		eor r18,r24
 3516               	.L157:
 3517               	.LM356:
 3518 115c 822F      		mov r24,r18
 3519               	/* epilogue start */
 3520 115e DF91      		pop r29
 3521 1160 CF91      		pop r28
 3522 1162 0895      		ret
 3523               	.LFE56:
 3525               	.global	Timebase_UpCounter_SS_Period_Value_Expired_Event
 3527               	Timebase_UpCounter_SS_Period_Value_Expired_Event:
 3528               	.LFB57:
 3529               	.LM357:
 3530               	.LVL218:
 3531 1164 1F93      		push r17
 3532               	/* prologue: function */
 3533               	/* frame size = 0 */
 3534 1166 182F      		mov r17,r24
 3535               	.LM358:
 3536 1168 0E94 0000 		call Timebase_UpCounter_SS_Period_Value_Expired
 3537               	.LVL219:
 3538 116c 8130      		cpi r24,lo8(1)
 3539 116e 01F0      		breq .L161
 3540 1170 80E0      		ldi r24,lo8(0)
 3541 1172 00C0      		rjmp .L162
 3542               	.L161:
 3543               	.LBB765:
 3544               	.LBB766:
 3545               	.LM359:
 3546 1174 E091 0000 		lds r30,Timebase
 3547 1178 F091 0000 		lds r31,(Timebase)+1
 3548 117c 212F      		mov r18,r17
 3549 117e 30E0      		ldi r19,lo8(0)
 3550               	.LVL220:
 3551 1180 89E1      		ldi r24,lo8(25)
 3552 1182 90E0      		ldi r25,hi8(25)
 3553 1184 AC01      		movw r20,r24
 3554 1186 249F      		mul r18,r20
 3555 1188 C001      		movw r24,r0
 3556 118a 259F      		mul r18,r21
 3557 118c 900D      		add r25,r0
 3558 118e 349F      		mul r19,r20
 3559 1190 900D      		add r25,r0
 3560 1192 1124      		clr r1
 3561 1194 E80F      		add r30,r24
 3562 1196 F91F      		adc r31,r25
 3563 1198 80A1      		ldd r24,Z+32
 3564 119a 8E7F      		andi r24,lo8(-2)
 3565 119c 80A3      		std Z+32,r24
 3566 119e 81E0      		ldi r24,lo8(1)
 3567               	.L162:
 3568               	/* epilogue start */
 3569               	.LBE766:
 3570               	.LBE765:
 3571               	.LM360:
 3572 11a0 1F91      		pop r17
 3573               	.LVL221:
 3574 11a2 0895      		ret
 3575               	.LFE57:
 3577               	.global	Timebase_UpCounter_SS_Update_All
 3579               	Timebase_UpCounter_SS_Update_All:
 3580               	.LFB58:
 3581               	.LM361:
 3582               	/* prologue: function */
 3583               	/* frame size = 0 */
 3584               	.LBB767:
 3585               	.LM362:
 3586 11a4 80E0      		ldi r24,lo8(0)
 3587 11a6 0E94 0000 		call Timebase_UpCounter_SS_Update
 3588               	/* epilogue start */
 3589               	.LBE767:
 3590               	.LM363:
 3591 11aa 0895      		ret
 3592               	.LFE58:
 3594               	.global	Timebase_UpCounter_SS_Reset_All
 3596               	Timebase_UpCounter_SS_Reset_All:
 3597               	.LFB59:
 3598               	.LM364:
 3599               	/* prologue: function */
 3600               	/* frame size = 0 */
 3601               	.LBB768:
 3602               	.LM365:
 3603 11ac 80E0      		ldi r24,lo8(0)
 3604 11ae 0E94 0000 		call Timebase_UpCounter_SS_Reset
 3605               	/* epilogue start */
 3606               	.LBE768:
 3607               	.LM366:
 3608 11b2 0895      		ret
 3609               	.LFE59:
 3611               	.global	Timebase_UpCounter_Get_Status
 3613               	Timebase_UpCounter_Get_Status:
 3614               	.LFB60:
 3615               	.LM367:
 3616               	.LVL222:
 3617               	/* prologue: function */
 3618               	/* frame size = 0 */
 3619               	.LM368:
 3620 11b4 E091 0000 		lds r30,Timebase
 3621 11b8 F091 0000 		lds r31,(Timebase)+1
 3622 11bc 90E0      		ldi r25,lo8(0)
 3623               	.LVL223:
 3624 11be 25E1      		ldi r18,lo8(21)
 3625 11c0 30E0      		ldi r19,hi8(21)
 3626 11c2 AC01      		movw r20,r24
 3627 11c4 429F      		mul r20,r18
 3628 11c6 C001      		movw r24,r0
 3629 11c8 439F      		mul r20,r19
 3630 11ca 900D      		add r25,r0
 3631 11cc 529F      		mul r21,r18
 3632 11ce 900D      		add r25,r0
 3633 11d0 1124      		clr r1
 3634               	.LVL224:
 3635 11d2 E80F      		add r30,r24
 3636 11d4 F91F      		adc r31,r25
 3637 11d6 81AD      		ldd r24,Z+57
 3638 11d8 8695      		lsr r24
 3639               	.LM369:
 3640 11da 8F70      		andi r24,lo8(15)
 3641               	/* epilogue start */
 3642 11dc 0895      		ret
 3643               	.LFE60:
 3645               	.global	Timebase_UpCounter_Set_Status
 3647               	Timebase_UpCounter_Set_Status:
 3648               	.LFB61:
 3649               	.LM370:
 3650               	.LVL225:
 3651               	/* prologue: function */
 3652               	/* frame size = 0 */
 3653               	.LM371:
 3654 11de E091 0000 		lds r30,Timebase
 3655 11e2 F091 0000 		lds r31,(Timebase)+1
 3656 11e6 90E0      		ldi r25,lo8(0)
 3657               	.LVL226:
 3658 11e8 25E1      		ldi r18,lo8(21)
 3659 11ea 30E0      		ldi r19,hi8(21)
 3660 11ec AC01      		movw r20,r24
 3661 11ee 429F      		mul r20,r18
 3662 11f0 C001      		movw r24,r0
 3663 11f2 439F      		mul r20,r19
 3664 11f4 900D      		add r25,r0
 3665 11f6 529F      		mul r21,r18
 3666 11f8 900D      		add r25,r0
 3667 11fa 1124      		clr r1
 3668               	.LVL227:
 3669 11fc E80F      		add r30,r24
 3670 11fe F91F      		adc r31,r25
 3671 1200 6F70      		andi r22,lo8(15)
 3672               	.LVL228:
 3673 1202 660F      		lsl r22
 3674 1204 81AD      		ldd r24,Z+57
 3675 1206 817E      		andi r24,lo8(-31)
 3676 1208 862B      		or r24,r22
 3677 120a 81AF      		std Z+57,r24
 3678               	/* epilogue start */
 3679               	.LM372:
 3680 120c 0895      		ret
 3681               	.LFE61:
 3683               	.global	Timebase_UpCounter_Get_Value
 3685               	Timebase_UpCounter_Get_Value:
 3686               	.LFB62:
 3687               	.LM373:
 3688               	.LVL229:
 3689               	/* prologue: function */
 3690               	/* frame size = 0 */
 3691               	.LM374:
 3692 120e E091 0000 		lds r30,Timebase
 3693 1212 F091 0000 		lds r31,(Timebase)+1
 3694 1216 90E0      		ldi r25,lo8(0)
 3695               	.LVL230:
 3696 1218 25E1      		ldi r18,lo8(21)
 3697 121a 30E0      		ldi r19,hi8(21)
 3698 121c AC01      		movw r20,r24
 3699 121e 429F      		mul r20,r18
 3700 1220 C001      		movw r24,r0
 3701 1222 439F      		mul r20,r19
 3702 1224 900D      		add r25,r0
 3703 1226 529F      		mul r21,r18
 3704 1228 900D      		add r25,r0
 3705 122a 1124      		clr r1
 3706               	.LVL231:
 3707 122c E80F      		add r30,r24
 3708 122e F91F      		adc r31,r25
 3709 1230 EA5B      		subi r30,lo8(-(70))
 3710 1232 FF4F      		sbci r31,hi8(-(70))
 3711 1234 6081      		ld r22,Z
 3712 1236 7181      		ldd r23,Z+1
 3713               	.LM375:
 3714 1238 8281      		ldd r24,Z+2
 3715 123a 9381      		ldd r25,Z+3
 3716               	.LVL232:
 3717               	/* epilogue start */
 3718 123c 0895      		ret
 3719               	.LFE62:
 3721               	.global	Timebase_UpCounter_Set_Value
 3723               	Timebase_UpCounter_Set_Value:
 3724               	.LFB63:
 3725               	.LM376:
 3726               	.LVL233:
 3727 123e CF93      		push r28
 3728 1240 DF93      		push r29
 3729               	/* prologue: function */
 3730               	/* frame size = 0 */
 3731               	.LM377:
 3732 1242 C091 0000 		lds r28,Timebase
 3733 1246 D091 0000 		lds r29,(Timebase)+1
 3734 124a 90E0      		ldi r25,lo8(0)
 3735               	.LVL234:
 3736 124c 25E1      		ldi r18,lo8(21)
 3737 124e 30E0      		ldi r19,hi8(21)
 3738 1250 FC01      		movw r30,r24
 3739 1252 E29F      		mul r30,r18
 3740 1254 C001      		movw r24,r0
 3741 1256 E39F      		mul r30,r19
 3742 1258 900D      		add r25,r0
 3743 125a F29F      		mul r31,r18
 3744 125c 900D      		add r25,r0
 3745 125e 1124      		clr r1
 3746               	.LVL235:
 3747 1260 C80F      		add r28,r24
 3748 1262 D91F      		adc r29,r25
 3749 1264 CA5B      		subi r28,lo8(-(70))
 3750 1266 DF4F      		sbci r29,hi8(-(70))
 3751 1268 CA01      		movw r24,r20
 3752               	.LVL236:
 3753 126a DB01      		movw r26,r22
 3754 126c B7FF      		sbrs r27,7
 3755 126e 00C0      		rjmp .L175
 3756               	.LVL237:
 3757 1270 80E0      		ldi r24,lo8(0)
 3758 1272 90E0      		ldi r25,hi8(0)
 3759 1274 A0E0      		ldi r26,hlo8(0)
 3760 1276 B0E0      		ldi r27,hhi8(0)
 3761               	.L175:
 3762 1278 8883      		st Y,r24
 3763 127a 9983      		std Y+1,r25
 3764 127c AA83      		std Y+2,r26
 3765 127e BB83      		std Y+3,r27
 3766               	/* epilogue start */
 3767               	.LM378:
 3768 1280 DF91      		pop r29
 3769 1282 CF91      		pop r28
 3770 1284 0895      		ret
 3771               	.LFE63:
 3773               	.global	Timebase_UpCounter_Get_EndValueSec
 3775               	Timebase_UpCounter_Get_EndValueSec:
 3776               	.LFB64:
 3777               	.LM379:
 3778               	.LVL238:
 3779               	/* prologue: function */
 3780               	/* frame size = 0 */
 3781               	.LM380:
 3782 1286 E091 0000 		lds r30,Timebase
 3783 128a F091 0000 		lds r31,(Timebase)+1
 3784 128e 90E0      		ldi r25,lo8(0)
 3785               	.LVL239:
 3786 1290 25E1      		ldi r18,lo8(21)
 3787 1292 30E0      		ldi r19,hi8(21)
 3788 1294 AC01      		movw r20,r24
 3789 1296 429F      		mul r20,r18
 3790 1298 C001      		movw r24,r0
 3791 129a 439F      		mul r20,r19
 3792 129c 900D      		add r25,r0
 3793 129e 529F      		mul r21,r18
 3794 12a0 900D      		add r25,r0
 3795 12a2 1124      		clr r1
 3796               	.LVL240:
 3797 12a4 E80F      		add r30,r24
 3798 12a6 F91F      		adc r31,r25
 3799 12a8 DF01      		movw r26,r30
 3800 12aa DA96      		adiw r26,58
 3801 12ac 62AD      		ldd r22,Z+58
 3802 12ae 1196      		adiw r26,1
 3803 12b0 7C91      		ld r23,X
 3804 12b2 1197      		sbiw r26,1
 3805               	.LM381:
 3806 12b4 1296      		adiw r26,2
 3807 12b6 8C91      		ld r24,X
 3808 12b8 1297      		sbiw r26,2
 3809 12ba 1396      		adiw r26,3
 3810 12bc 9C91      		ld r25,X
 3811               	.LVL241:
 3812               	/* epilogue start */
 3813 12be 0895      		ret
 3814               	.LFE64:
 3816               	.global	Timebase_UpCounter_Get_EndValueSubSec
 3818               	Timebase_UpCounter_Get_EndValueSubSec:
 3819               	.LFB65:
 3820               	.LM382:
 3821               	.LVL242:
 3822               	/* prologue: function */
 3823               	/* frame size = 0 */
 3824               	.LM383:
 3825 12c0 E091 0000 		lds r30,Timebase
 3826 12c4 F091 0000 		lds r31,(Timebase)+1
 3827 12c8 90E0      		ldi r25,lo8(0)
 3828               	.LVL243:
 3829 12ca 25E1      		ldi r18,lo8(21)
 3830 12cc 30E0      		ldi r19,hi8(21)
 3831 12ce AC01      		movw r20,r24
 3832 12d0 429F      		mul r20,r18
 3833 12d2 C001      		movw r24,r0
 3834 12d4 439F      		mul r20,r19
 3835 12d6 900D      		add r25,r0
 3836 12d8 529F      		mul r21,r18
 3837 12da 900D      		add r25,r0
 3838 12dc 1124      		clr r1
 3839               	.LVL244:
 3840 12de E80F      		add r30,r24
 3841 12e0 F91F      		adc r31,r25
 3842 12e2 DF01      		movw r26,r30
 3843 12e4 DA96      		adiw r26,58
 3844 12e6 62AD      		ldd r22,Z+58
 3845 12e8 1196      		adiw r26,1
 3846 12ea 7C91      		ld r23,X
 3847 12ec 1197      		sbiw r26,1
 3848               	.LM384:
 3849 12ee 1296      		adiw r26,2
 3850 12f0 8C91      		ld r24,X
 3851 12f2 1297      		sbiw r26,2
 3852 12f4 1396      		adiw r26,3
 3853 12f6 9C91      		ld r25,X
 3854               	.LVL245:
 3855               	/* epilogue start */
 3856 12f8 0895      		ret
 3857               	.LFE65:
 3859               	.global	Timebase_UpCounter_Set_EndValueSec
 3861               	Timebase_UpCounter_Set_EndValueSec:
 3862               	.LFB66:
 3863               	.LM385:
 3864               	.LVL246:
 3865               	/* prologue: function */
 3866               	/* frame size = 0 */
 3867               	.LM386:
 3868 12fa E091 0000 		lds r30,Timebase
 3869 12fe F091 0000 		lds r31,(Timebase)+1
 3870 1302 90E0      		ldi r25,lo8(0)
 3871               	.LVL247:
 3872 1304 25E1      		ldi r18,lo8(21)
 3873 1306 30E0      		ldi r19,hi8(21)
 3874 1308 DC01      		movw r26,r24
 3875 130a A29F      		mul r26,r18
 3876 130c C001      		movw r24,r0
 3877 130e A39F      		mul r26,r19
 3878 1310 900D      		add r25,r0
 3879 1312 B29F      		mul r27,r18
 3880 1314 900D      		add r25,r0
 3881 1316 1124      		clr r1
 3882               	.LVL248:
 3883 1318 E80F      		add r30,r24
 3884 131a F91F      		adc r31,r25
 3885 131c 42AF      		std Z+58,r20
 3886 131e 53AF      		std Z+59,r21
 3887 1320 64AF      		std Z+60,r22
 3888 1322 75AF      		std Z+61,r23
 3889               	/* epilogue start */
 3890               	.LM387:
 3891 1324 0895      		ret
 3892               	.LFE66:
 3894               	.global	Timebase_UpCounter_Set_EndValueSubSec
 3896               	Timebase_UpCounter_Set_EndValueSubSec:
 3897               	.LFB67:
 3898               	.LM388:
 3899               	.LVL249:
 3900               	/* prologue: function */
 3901               	/* frame size = 0 */
 3902               	.LM389:
 3903 1326 E091 0000 		lds r30,Timebase
 3904 132a F091 0000 		lds r31,(Timebase)+1
 3905 132e 90E0      		ldi r25,lo8(0)
 3906               	.LVL250:
 3907 1330 25E1      		ldi r18,lo8(21)
 3908 1332 30E0      		ldi r19,hi8(21)
 3909 1334 DC01      		movw r26,r24
 3910 1336 A29F      		mul r26,r18
 3911 1338 C001      		movw r24,r0
 3912 133a A39F      		mul r26,r19
 3913 133c 900D      		add r25,r0
 3914 133e B29F      		mul r27,r18
 3915 1340 900D      		add r25,r0
 3916 1342 1124      		clr r1
 3917               	.LVL251:
 3918 1344 E80F      		add r30,r24
 3919 1346 F91F      		adc r31,r25
 3920 1348 42AF      		std Z+58,r20
 3921 134a 53AF      		std Z+59,r21
 3922 134c 64AF      		std Z+60,r22
 3923 134e 75AF      		std Z+61,r23
 3924               	/* epilogue start */
 3925               	.LM390:
 3926 1350 0895      		ret
 3927               	.LFE67:
 3929               	.global	Timebase_UpCounter_Get_TargetValue
 3931               	Timebase_UpCounter_Get_TargetValue:
 3932               	.LFB68:
 3933               	.LM391:
 3934               	.LVL252:
 3935               	/* prologue: function */
 3936               	/* frame size = 0 */
 3937               	.LM392:
 3938 1352 E091 0000 		lds r30,Timebase
 3939 1356 F091 0000 		lds r31,(Timebase)+1
 3940 135a 90E0      		ldi r25,lo8(0)
 3941               	.LVL253:
 3942 135c 25E1      		ldi r18,lo8(21)
 3943 135e 30E0      		ldi r19,hi8(21)
 3944 1360 AC01      		movw r20,r24
 3945 1362 429F      		mul r20,r18
 3946 1364 C001      		movw r24,r0
 3947 1366 439F      		mul r20,r19
 3948 1368 900D      		add r25,r0
 3949 136a 529F      		mul r21,r18
 3950 136c 900D      		add r25,r0
 3951 136e 1124      		clr r1
 3952               	.LVL254:
 3953 1370 E80F      		add r30,r24
 3954 1372 F91F      		adc r31,r25
 3955 1374 FE96      		adiw r30,62
 3956 1376 6081      		ld r22,Z
 3957 1378 7181      		ldd r23,Z+1
 3958               	.LM393:
 3959 137a 8281      		ldd r24,Z+2
 3960 137c 9381      		ldd r25,Z+3
 3961               	.LVL255:
 3962               	/* epilogue start */
 3963 137e 0895      		ret
 3964               	.LFE68:
 3966               	.global	Timebase_UpCounter_Set_TargetValue
 3968               	Timebase_UpCounter_Set_TargetValue:
 3969               	.LFB69:
 3970               	.LM394:
 3971               	.LVL256:
 3972               	/* prologue: function */
 3973               	/* frame size = 0 */
 3974               	.LM395:
 3975 1380 E091 0000 		lds r30,Timebase
 3976 1384 F091 0000 		lds r31,(Timebase)+1
 3977 1388 90E0      		ldi r25,lo8(0)
 3978               	.LVL257:
 3979 138a 25E1      		ldi r18,lo8(21)
 3980 138c 30E0      		ldi r19,hi8(21)
 3981 138e DC01      		movw r26,r24
 3982 1390 A29F      		mul r26,r18
 3983 1392 C001      		movw r24,r0
 3984 1394 A39F      		mul r26,r19
 3985 1396 900D      		add r25,r0
 3986 1398 B29F      		mul r27,r18
 3987 139a 900D      		add r25,r0
 3988 139c 1124      		clr r1
 3989               	.LVL258:
 3990 139e E80F      		add r30,r24
 3991 13a0 F91F      		adc r31,r25
 3992 13a2 FE96      		adiw r30,62
 3993 13a4 4083      		st Z,r20
 3994 13a6 5183      		std Z+1,r21
 3995 13a8 6283      		std Z+2,r22
 3996 13aa 7383      		std Z+3,r23
 3997               	/* epilogue start */
 3998               	.LM396:
 3999 13ac 0895      		ret
 4000               	.LFE69:
 4002               	.global	Timebase_UpCounter_Get_TemporaryValue
 4004               	Timebase_UpCounter_Get_TemporaryValue:
 4005               	.LFB70:
 4006               	.LM397:
 4007               	.LVL259:
 4008               	/* prologue: function */
 4009               	/* frame size = 0 */
 4010               	.LM398:
 4011 13ae E091 0000 		lds r30,Timebase
 4012 13b2 F091 0000 		lds r31,(Timebase)+1
 4013 13b6 90E0      		ldi r25,lo8(0)
 4014               	.LVL260:
 4015 13b8 25E1      		ldi r18,lo8(21)
 4016 13ba 30E0      		ldi r19,hi8(21)
 4017 13bc AC01      		movw r20,r24
 4018 13be 429F      		mul r20,r18
 4019 13c0 C001      		movw r24,r0
 4020 13c2 439F      		mul r20,r19
 4021 13c4 900D      		add r25,r0
 4022 13c6 529F      		mul r21,r18
 4023 13c8 900D      		add r25,r0
 4024 13ca 1124      		clr r1
 4025               	.LVL261:
 4026 13cc E80F      		add r30,r24
 4027 13ce F91F      		adc r31,r25
 4028 13d0 EE5B      		subi r30,lo8(-(66))
 4029 13d2 FF4F      		sbci r31,hi8(-(66))
 4030 13d4 6081      		ld r22,Z
 4031 13d6 7181      		ldd r23,Z+1
 4032               	.LM399:
 4033 13d8 8281      		ldd r24,Z+2
 4034 13da 9381      		ldd r25,Z+3
 4035               	.LVL262:
 4036               	/* epilogue start */
 4037 13dc 0895      		ret
 4038               	.LFE70:
 4040               	.global	Timebase_UpCounter_Set_TemporaryValue
 4042               	Timebase_UpCounter_Set_TemporaryValue:
 4043               	.LFB71:
 4044               	.LM400:
 4045               	.LVL263:
 4046 13de CF93      		push r28
 4047 13e0 DF93      		push r29
 4048               	/* prologue: function */
 4049               	/* frame size = 0 */
 4050               	.LM401:
 4051 13e2 C091 0000 		lds r28,Timebase
 4052 13e6 D091 0000 		lds r29,(Timebase)+1
 4053 13ea 90E0      		ldi r25,lo8(0)
 4054               	.LVL264:
 4055 13ec 25E1      		ldi r18,lo8(21)
 4056 13ee 30E0      		ldi r19,hi8(21)
 4057 13f0 FC01      		movw r30,r24
 4058 13f2 E29F      		mul r30,r18
 4059 13f4 C001      		movw r24,r0
 4060 13f6 E39F      		mul r30,r19
 4061 13f8 900D      		add r25,r0
 4062 13fa F29F      		mul r31,r18
 4063 13fc 900D      		add r25,r0
 4064 13fe 1124      		clr r1
 4065               	.LVL265:
 4066 1400 C80F      		add r28,r24
 4067 1402 D91F      		adc r29,r25
 4068 1404 CE5B      		subi r28,lo8(-(66))
 4069 1406 DF4F      		sbci r29,hi8(-(66))
 4070 1408 CA01      		movw r24,r20
 4071               	.LVL266:
 4072 140a DB01      		movw r26,r22
 4073 140c B7FF      		sbrs r27,7
 4074 140e 00C0      		rjmp .L192
 4075               	.LVL267:
 4076 1410 80E0      		ldi r24,lo8(0)
 4077 1412 90E0      		ldi r25,hi8(0)
 4078 1414 A0E0      		ldi r26,hlo8(0)
 4079 1416 B0E0      		ldi r27,hhi8(0)
 4080               	.L192:
 4081 1418 8883      		st Y,r24
 4082 141a 9983      		std Y+1,r25
 4083 141c AA83      		std Y+2,r26
 4084 141e BB83      		std Y+3,r27
 4085               	/* epilogue start */
 4086               	.LM402:
 4087 1420 DF91      		pop r29
 4088 1422 CF91      		pop r28
 4089 1424 0895      		ret
 4090               	.LFE71:
 4092               	.global	Timebase_UpCounter_Get_PeriodValue
 4094               	Timebase_UpCounter_Get_PeriodValue:
 4095               	.LFB72:
 4096               	.LM403:
 4097               	.LVL268:
 4098               	/* prologue: function */
 4099               	/* frame size = 0 */
 4100               	.LM404:
 4101 1426 E091 0000 		lds r30,Timebase
 4102 142a F091 0000 		lds r31,(Timebase)+1
 4103 142e 90E0      		ldi r25,lo8(0)
 4104               	.LVL269:
 4105 1430 25E1      		ldi r18,lo8(21)
 4106 1432 30E0      		ldi r19,hi8(21)
 4107 1434 AC01      		movw r20,r24
 4108 1436 429F      		mul r20,r18
 4109 1438 C001      		movw r24,r0
 4110 143a 439F      		mul r20,r19
 4111 143c 900D      		add r25,r0
 4112 143e 529F      		mul r21,r18
 4113 1440 900D      		add r25,r0
 4114 1442 1124      		clr r1
 4115               	.LVL270:
 4116 1444 E80F      		add r30,r24
 4117 1446 F91F      		adc r31,r25
 4118 1448 E65B      		subi r30,lo8(-(74))
 4119 144a FF4F      		sbci r31,hi8(-(74))
 4120 144c 6081      		ld r22,Z
 4121 144e 7181      		ldd r23,Z+1
 4122               	.LM405:
 4123 1450 8281      		ldd r24,Z+2
 4124 1452 9381      		ldd r25,Z+3
 4125               	.LVL271:
 4126               	/* epilogue start */
 4127 1454 0895      		ret
 4128               	.LFE72:
 4130               	.global	Timebase_UpCounter_Set_PeriodValue
 4132               	Timebase_UpCounter_Set_PeriodValue:
 4133               	.LFB73:
 4134               	.LM406:
 4135               	.LVL272:
 4136               	/* prologue: function */
 4137               	/* frame size = 0 */
 4138               	.LM407:
 4139 1456 E091 0000 		lds r30,Timebase
 4140 145a F091 0000 		lds r31,(Timebase)+1
 4141 145e 90E0      		ldi r25,lo8(0)
 4142               	.LVL273:
 4143 1460 25E1      		ldi r18,lo8(21)
 4144 1462 30E0      		ldi r19,hi8(21)
 4145 1464 DC01      		movw r26,r24
 4146 1466 A29F      		mul r26,r18
 4147 1468 C001      		movw r24,r0
 4148 146a A39F      		mul r26,r19
 4149 146c 900D      		add r25,r0
 4150 146e B29F      		mul r27,r18
 4151 1470 900D      		add r25,r0
 4152 1472 1124      		clr r1
 4153               	.LVL274:
 4154 1474 E80F      		add r30,r24
 4155 1476 F91F      		adc r31,r25
 4156 1478 E65B      		subi r30,lo8(-(74))
 4157 147a FF4F      		sbci r31,hi8(-(74))
 4158 147c 4083      		st Z,r20
 4159 147e 5183      		std Z+1,r21
 4160 1480 6283      		std Z+2,r22
 4161 1482 7383      		std Z+3,r23
 4162               	/* epilogue start */
 4163               	.LM408:
 4164 1484 0895      		ret
 4165               	.LFE73:
 4167               	.global	Timebase_UpCounter_Get_Period_Flag
 4169               	Timebase_UpCounter_Get_Period_Flag:
 4170               	.LFB74:
 4171               	.LM409:
 4172               	.LVL275:
 4173               	/* prologue: function */
 4174               	/* frame size = 0 */
 4175               	.LM410:
 4176 1486 E091 0000 		lds r30,Timebase
 4177 148a F091 0000 		lds r31,(Timebase)+1
 4178 148e 90E0      		ldi r25,lo8(0)
 4179               	.LVL276:
 4180 1490 25E1      		ldi r18,lo8(21)
 4181 1492 30E0      		ldi r19,hi8(21)
 4182 1494 AC01      		movw r20,r24
 4183 1496 429F      		mul r20,r18
 4184 1498 C001      		movw r24,r0
 4185 149a 439F      		mul r20,r19
 4186 149c 900D      		add r25,r0
 4187 149e 529F      		mul r21,r18
 4188 14a0 900D      		add r25,r0
 4189 14a2 1124      		clr r1
 4190               	.LVL277:
 4191 14a4 E80F      		add r30,r24
 4192 14a6 F91F      		adc r31,r25
 4193 14a8 81AD      		ldd r24,Z+57
 4194               	.LM411:
 4195 14aa 8170      		andi r24,lo8(1)
 4196               	/* epilogue start */
 4197 14ac 0895      		ret
 4198               	.LFE74:
 4200               	.global	Timebase_UpCounter_Set_Period_Flag
 4202               	Timebase_UpCounter_Set_Period_Flag:
 4203               	.LFB75:
 4204               	.LM412:
 4205               	.LVL278:
 4206               	/* prologue: function */
 4207               	/* frame size = 0 */
 4208               	.LM413:
 4209 14ae E091 0000 		lds r30,Timebase
 4210 14b2 F091 0000 		lds r31,(Timebase)+1
 4211 14b6 90E0      		ldi r25,lo8(0)
 4212               	.LVL279:
 4213 14b8 25E1      		ldi r18,lo8(21)
 4214 14ba 30E0      		ldi r19,hi8(21)
 4215 14bc AC01      		movw r20,r24
 4216 14be 429F      		mul r20,r18
 4217 14c0 C001      		movw r24,r0
 4218 14c2 439F      		mul r20,r19
 4219 14c4 900D      		add r25,r0
 4220 14c6 529F      		mul r21,r18
 4221 14c8 900D      		add r25,r0
 4222 14ca 1124      		clr r1
 4223               	.LVL280:
 4224 14cc E80F      		add r30,r24
 4225 14ce F91F      		adc r31,r25
 4226 14d0 81AD      		ldd r24,Z+57
 4227 14d2 8160      		ori r24,lo8(1)
 4228 14d4 81AF      		std Z+57,r24
 4229               	/* epilogue start */
 4230               	.LM414:
 4231 14d6 0895      		ret
 4232               	.LFE75:
 4234               	.global	Timebase_UpCounter_Clear_Period_Flag
 4236               	Timebase_UpCounter_Clear_Period_Flag:
 4237               	.LFB76:
 4238               	.LM415:
 4239               	.LVL281:
 4240               	/* prologue: function */
 4241               	/* frame size = 0 */
 4242               	.LM416:
 4243 14d8 E091 0000 		lds r30,Timebase
 4244 14dc F091 0000 		lds r31,(Timebase)+1
 4245 14e0 90E0      		ldi r25,lo8(0)
 4246               	.LVL282:
 4247 14e2 25E1      		ldi r18,lo8(21)
 4248 14e4 30E0      		ldi r19,hi8(21)
 4249 14e6 AC01      		movw r20,r24
 4250 14e8 429F      		mul r20,r18
 4251 14ea C001      		movw r24,r0
 4252 14ec 439F      		mul r20,r19
 4253 14ee 900D      		add r25,r0
 4254 14f0 529F      		mul r21,r18
 4255 14f2 900D      		add r25,r0
 4256 14f4 1124      		clr r1
 4257               	.LVL283:
 4258 14f6 E80F      		add r30,r24
 4259 14f8 F91F      		adc r31,r25
 4260 14fa 81AD      		ldd r24,Z+57
 4261 14fc 8E7F      		andi r24,lo8(-2)
 4262 14fe 81AF      		std Z+57,r24
 4263               	/* epilogue start */
 4264               	.LM417:
 4265 1500 0895      		ret
 4266               	.LFE76:
 4268               	.global	Timebase_UpCounter_Reset
 4270               	Timebase_UpCounter_Reset:
 4271               	.LFB77:
 4272               	.LM418:
 4273               	.LVL284:
 4274               	/* prologue: function */
 4275               	/* frame size = 0 */
 4276               	.LBB769:
 4277               	.LBB770:
 4278               	.LM419:
 4279 1502 E091 0000 		lds r30,Timebase
 4280 1506 F091 0000 		lds r31,(Timebase)+1
 4281 150a 90E0      		ldi r25,lo8(0)
 4282 150c 25E1      		ldi r18,lo8(21)
 4283 150e 30E0      		ldi r19,hi8(21)
 4284 1510 AC01      		movw r20,r24
 4285               	.LVL285:
 4286 1512 429F      		mul r20,r18
 4287 1514 C001      		movw r24,r0
 4288 1516 439F      		mul r20,r19
 4289 1518 900D      		add r25,r0
 4290 151a 529F      		mul r21,r18
 4291 151c 900D      		add r25,r0
 4292 151e 1124      		clr r1
 4293 1520 E80F      		add r30,r24
 4294 1522 F91F      		adc r31,r25
 4295 1524 81AD      		ldd r24,Z+57
 4296               	.LBE770:
 4297               	.LBE769:
 4298               	.LBB771:
 4299               	.LBB772:
 4300               	.LM420:
 4301 1526 EA5B      		subi r30,lo8(-(70))
 4302 1528 FF4F      		sbci r31,hi8(-(70))
 4303 152a 1082      		st Z,__zero_reg__
 4304 152c 1182      		std Z+1,__zero_reg__
 4305 152e 1282      		std Z+2,__zero_reg__
 4306 1530 1382      		std Z+3,__zero_reg__
 4307 1532 E654      		subi r30,lo8(-(-70))
 4308 1534 F040      		sbci r31,hi8(-(-70))
 4309               	.LBE772:
 4310               	.LBE771:
 4311               	.LBB773:
 4312               	.LBB774:
 4313               	.LM421:
 4314 1536 12AE      		std Z+58,__zero_reg__
 4315 1538 13AE      		std Z+59,__zero_reg__
 4316 153a 14AE      		std Z+60,__zero_reg__
 4317 153c 15AE      		std Z+61,__zero_reg__
 4318               	.LBE774:
 4319               	.LBE773:
 4320               	.LBB775:
 4321               	.LBB776:
 4322               	.LM422:
 4323 153e FE96      		adiw r30,62
 4324 1540 1192      		st Z+,__zero_reg__
 4325 1542 1192      		st Z+,__zero_reg__
 4326 1544 1192      		st Z+,__zero_reg__
 4327 1546 1192      		st Z+,__zero_reg__
 4328               	.LBE776:
 4329               	.LBE775:
 4330               	.LBB777:
 4331               	.LBB778:
 4332               	.LM423:
 4333 1548 1082      		st Z,__zero_reg__
 4334 154a 1182      		std Z+1,__zero_reg__
 4335 154c 1282      		std Z+2,__zero_reg__
 4336 154e 1382      		std Z+3,__zero_reg__
 4337               	.LBE778:
 4338               	.LBE777:
 4339               	.LBB779:
 4340               	.LBB780:
 4341               	.LM424:
 4342 1550 3896      		adiw r30,8
 4343 1552 1082      		st Z,__zero_reg__
 4344 1554 1182      		std Z+1,__zero_reg__
 4345 1556 1282      		std Z+2,__zero_reg__
 4346 1558 1382      		std Z+3,__zero_reg__
 4347 155a EA54      		subi r30,lo8(-(-74))
 4348 155c F040      		sbci r31,hi8(-(-74))
 4349               	.LBE780:
 4350               	.LBE779:
 4351               	.LBB781:
 4352               	.LBB782:
 4353               	.LM425:
 4354 155e 807E      		andi r24,lo8(-32)
 4355 1560 81AF      		std Z+57,r24
 4356               	/* epilogue start */
 4357               	.LBE782:
 4358               	.LBE781:
 4359               	.LM426:
 4360 1562 0895      		ret
 4361               	.LFE77:
 4363               	.global	Timebase_UpCounter_Clear_All_Flags
 4365               	Timebase_UpCounter_Clear_All_Flags:
 4366               	.LFB78:
 4367               	.LM427:
 4368               	.LVL286:
 4369               	/* prologue: function */
 4370               	/* frame size = 0 */
 4371               	.LM428:
 4372 1564 0E94 0000 		call Timebase_UpCounter_Reset
 4373               	.LVL287:
 4374               	/* epilogue start */
 4375               	.LM429:
 4376 1568 0895      		ret
 4377               	.LFE78:
 4379               	.global	Timebase_UpCounter_Start
 4381               	Timebase_UpCounter_Start:
 4382               	.LFB79:
 4383               	.LM430:
 4384               	.LVL288:
 4385               	/* prologue: function */
 4386               	/* frame size = 0 */
 4387               	.LBB783:
 4388               	.LBB784:
 4389               	.LM431:
 4390 156a E091 0000 		lds r30,Timebase
 4391 156e F091 0000 		lds r31,(Timebase)+1
 4392 1572 90E0      		ldi r25,lo8(0)
 4393               	.LBE784:
 4394               	.LBE783:
 4395               	.LM432:
 4396 1574 25E1      		ldi r18,lo8(21)
 4397 1576 30E0      		ldi r19,hi8(21)
 4398 1578 AC01      		movw r20,r24
 4399               	.LVL289:
 4400 157a 429F      		mul r20,r18
 4401 157c C001      		movw r24,r0
 4402 157e 439F      		mul r20,r19
 4403 1580 900D      		add r25,r0
 4404 1582 529F      		mul r21,r18
 4405 1584 900D      		add r25,r0
 4406 1586 1124      		clr r1
 4407 1588 E80F      		add r30,r24
 4408 158a F91F      		adc r31,r25
 4409 158c 91AD      		ldd r25,Z+57
 4410 158e 892F      		mov r24,r25
 4411 1590 8695      		lsr r24
 4412 1592 8F70      		andi r24,lo8(15)
 4413 1594 8130      		cpi r24,lo8(1)
 4414 1596 01F0      		breq .L210
 4415               	.LBB785:
 4416               	.LBB786:
 4417               	.LM433:
 4418 1598 917E      		andi r25,lo8(-31)
 4419 159a 9260      		ori r25,lo8(2)
 4420 159c 91AF      		std Z+57,r25
 4421               	.L210:
 4422 159e 0895      		ret
 4423               	.LBE786:
 4424               	.LBE785:
 4425               	.LFE79:
 4427               	.global	Timebase_UpCounter_Stop
 4429               	Timebase_UpCounter_Stop:
 4430               	.LFB80:
 4431               	.LM434:
 4432               	.LVL290:
 4433               	/* prologue: function */
 4434               	/* frame size = 0 */
 4435               	.LBB787:
 4436               	.LBB788:
 4437               	.LM435:
 4438 15a0 E091 0000 		lds r30,Timebase
 4439 15a4 F091 0000 		lds r31,(Timebase)+1
 4440 15a8 90E0      		ldi r25,lo8(0)
 4441               	.LBE788:
 4442               	.LBE787:
 4443               	.LM436:
 4444 15aa 25E1      		ldi r18,lo8(21)
 4445 15ac 30E0      		ldi r19,hi8(21)
 4446 15ae AC01      		movw r20,r24
 4447               	.LVL291:
 4448 15b0 429F      		mul r20,r18
 4449 15b2 C001      		movw r24,r0
 4450 15b4 439F      		mul r20,r19
 4451 15b6 900D      		add r25,r0
 4452 15b8 529F      		mul r21,r18
 4453 15ba 900D      		add r25,r0
 4454 15bc 1124      		clr r1
 4455 15be E80F      		add r30,r24
 4456 15c0 F91F      		adc r31,r25
 4457 15c2 91AD      		ldd r25,Z+57
 4458 15c4 892F      		mov r24,r25
 4459 15c6 8695      		lsr r24
 4460 15c8 8F70      		andi r24,lo8(15)
 4461 15ca 8230      		cpi r24,lo8(2)
 4462 15cc 01F0      		breq .L213
 4463               	.LBB789:
 4464               	.LBB790:
 4465               	.LM437:
 4466 15ce 917E      		andi r25,lo8(-31)
 4467 15d0 9460      		ori r25,lo8(4)
 4468 15d2 91AF      		std Z+57,r25
 4469               	.L213:
 4470 15d4 0895      		ret
 4471               	.LBE790:
 4472               	.LBE789:
 4473               	.LFE80:
 4475               	.global	Timebase_UpCounter_Set_Securely
 4477               	Timebase_UpCounter_Set_Securely:
 4478               	.LFB81:
 4479               	.LM438:
 4480               	.LVL292:
 4481               	/* prologue: function */
 4482               	/* frame size = 0 */
 4483               	.LBB791:
 4484               	.LBB792:
 4485               	.LM439:
 4486 15d6 A091 0000 		lds r26,Timebase
 4487 15da B091 0000 		lds r27,(Timebase)+1
 4488 15de 90E0      		ldi r25,lo8(0)
 4489               	.LBE792:
 4490               	.LBE791:
 4491               	.LM440:
 4492 15e0 25E1      		ldi r18,lo8(21)
 4493 15e2 30E0      		ldi r19,hi8(21)
 4494 15e4 829F      		mul r24,r18
 4495 15e6 F001      		movw r30,r0
 4496 15e8 839F      		mul r24,r19
 4497 15ea F00D      		add r31,r0
 4498 15ec 929F      		mul r25,r18
 4499 15ee F00D      		add r31,r0
 4500 15f0 1124      		clr r1
 4501               	.LVL293:
 4502 15f2 EA0F      		add r30,r26
 4503 15f4 FB1F      		adc r31,r27
 4504 15f6 81AD      		ldd r24,Z+57
 4505 15f8 8695      		lsr r24
 4506 15fa 8F70      		andi r24,lo8(15)
 4507 15fc 01F4      		brne .L216
 4508               	.LBB793:
 4509               	.LBB794:
 4510               	.LM441:
 4511 15fe EA5B      		subi r30,lo8(-(70))
 4512 1600 FF4F      		sbci r31,hi8(-(70))
 4513 1602 1082      		st Z,__zero_reg__
 4514 1604 1182      		std Z+1,__zero_reg__
 4515 1606 1282      		std Z+2,__zero_reg__
 4516 1608 1382      		std Z+3,__zero_reg__
 4517               	.LBE794:
 4518               	.LBE793:
 4519               	.LBB795:
 4520               	.LBB796:
 4521               	.LM442:
 4522 160a 1292      		st -Z,__zero_reg__
 4523 160c 1292      		st -Z,__zero_reg__
 4524 160e 1292      		st -Z,__zero_reg__
 4525 1610 1292      		st -Z,__zero_reg__
 4526               	.LBE796:
 4527               	.LBE795:
 4528               	.LBB797:
 4529               	.LBB798:
 4530               	.LM443:
 4531 1612 7293      		st -Z,r23
 4532 1614 6293      		st -Z,r22
 4533 1616 5293      		st -Z,r21
 4534 1618 4293      		st -Z,r20
 4535 161a FE97      		sbiw r30,62
 4536               	.LBE798:
 4537               	.LBE797:
 4538               	.LBB799:
 4539               	.LBB800:
 4540               	.LM444:
 4541 161c 1A96      		adiw r26,10
 4542 161e 8D91      		ld r24,X+
 4543 1620 9D91      		ld r25,X+
 4544 1622 0D90      		ld __tmp_reg__,X+
 4545 1624 BC91      		ld r27,X
 4546 1626 A02D      		mov r26,__tmp_reg__
 4547               	.LVL294:
 4548               	.LBE800:
 4549               	.LBE799:
 4550               	.LBB801:
 4551               	.LBB802:
 4552               	.LM445:
 4553 1628 840F      		add r24,r20
 4554 162a 951F      		adc r25,r21
 4555 162c A61F      		adc r26,r22
 4556 162e B71F      		adc r27,r23
 4557 1630 82AF      		std Z+58,r24
 4558 1632 93AF      		std Z+59,r25
 4559 1634 A4AF      		std Z+60,r26
 4560 1636 B5AF      		std Z+61,r27
 4561               	.LBE802:
 4562               	.LBE801:
 4563               	.LBB803:
 4564               	.LBB804:
 4565               	.LM446:
 4566 1638 91AD      		ldd r25,Z+57
 4567 163a 892F      		mov r24,r25
 4568               	.LVL295:
 4569 163c 8695      		lsr r24
 4570 163e 8F70      		andi r24,lo8(15)
 4571 1640 8130      		cpi r24,lo8(1)
 4572 1642 01F0      		breq .L216
 4573               	.LBB805:
 4574               	.LBB806:
 4575               	.LM447:
 4576 1644 917E      		andi r25,lo8(-31)
 4577 1646 9260      		ori r25,lo8(2)
 4578 1648 91AF      		std Z+57,r25
 4579               	.L216:
 4580 164a 0895      		ret
 4581               	.LBE806:
 4582               	.LBE805:
 4583               	.LBE804:
 4584               	.LBE803:
 4585               	.LFE81:
 4587               	.global	Timebase_UpCounter_Set_Forcefully
 4589               	Timebase_UpCounter_Set_Forcefully:
 4590               	.LFB82:
 4591               	.LM448:
 4592               	.LVL296:
 4593 164c DF92      		push r13
 4594 164e EF92      		push r14
 4595 1650 FF92      		push r15
 4596 1652 0F93      		push r16
 4597 1654 1F93      		push r17
 4598               	/* prologue: function */
 4599               	/* frame size = 0 */
 4600 1656 D82E      		mov r13,r24
 4601 1658 7A01      		movw r14,r20
 4602 165a 8B01      		movw r16,r22
 4603               	.LM449:
 4604 165c 0E94 0000 		call Timebase_UpCounter_Reset
 4605               	.LVL297:
 4606               	.LM450:
 4607 1660 8D2D      		mov r24,r13
 4608 1662 B801      		movw r22,r16
 4609 1664 A701      		movw r20,r14
 4610 1666 0E94 0000 		call Timebase_UpCounter_Set_Securely
 4611               	/* epilogue start */
 4612               	.LM451:
 4613 166a 1F91      		pop r17
 4614 166c 0F91      		pop r16
 4615 166e FF90      		pop r15
 4616 1670 EF90      		pop r14
 4617               	.LVL298:
 4618 1672 DF90      		pop r13
 4619               	.LVL299:
 4620 1674 0895      		ret
 4621               	.LFE82:
 4623               	.global	Timebase_UpCounter_Update
 4625               	Timebase_UpCounter_Update:
 4626               	.LFB83:
 4627               	.LM452:
 4628               	.LVL300:
 4629 1676 0F93      		push r16
 4630 1678 1F93      		push r17
 4631 167a CF93      		push r28
 4632 167c DF93      		push r29
 4633               	/* prologue: function */
 4634               	/* frame size = 0 */
 4635               	.LBB807:
 4636               	.LBB808:
 4637               	.LM453:
 4638 167e 6091 0000 		lds r22,Timebase
 4639 1682 7091 0000 		lds r23,(Timebase)+1
 4640 1686 082F      		mov r16,r24
 4641 1688 10E0      		ldi r17,lo8(0)
 4642 168a 85E1      		ldi r24,lo8(21)
 4643 168c 90E0      		ldi r25,hi8(21)
 4644               	.LVL301:
 4645 168e 089F      		mul r16,r24
 4646 1690 F001      		movw r30,r0
 4647 1692 099F      		mul r16,r25
 4648 1694 F00D      		add r31,r0
 4649 1696 189F      		mul r17,r24
 4650 1698 F00D      		add r31,r0
 4651 169a 1124      		clr r1
 4652 169c E60F      		add r30,r22
 4653 169e F71F      		adc r31,r23
 4654 16a0 81AD      		ldd r24,Z+57
 4655 16a2 8695      		lsr r24
 4656 16a4 8F70      		andi r24,lo8(15)
 4657               	.LBE808:
 4658               	.LBE807:
 4659               	.LM454:
 4660 16a6 8130      		cpi r24,lo8(1)
 4661 16a8 01F0      		breq .+2
 4662 16aa 00C0      		rjmp .L220
 4663               	.LBB809:
 4664               	.LBB810:
 4665               	.LM455:
 4666 16ac EB01      		movw r28,r22
 4667 16ae 8A85      		ldd r24,Y+10
 4668 16b0 9B85      		ldd r25,Y+11
 4669 16b2 AC85      		ldd r26,Y+12
 4670 16b4 BD85      		ldd r27,Y+13
 4671               	.LVL302:
 4672               	.LBE810:
 4673               	.LBE809:
 4674               	.LM456:
 4675 16b6 22AD      		ldd r18,Z+58
 4676 16b8 33AD      		ldd r19,Z+59
 4677 16ba 44AD      		ldd r20,Z+60
 4678 16bc 55AD      		ldd r21,Z+61
 4679               	.LVL303:
 4680 16be 281B      		sub r18,r24
 4681 16c0 390B      		sbc r19,r25
 4682 16c2 4A0B      		sbc r20,r26
 4683 16c4 5B0B      		sbc r21,r27
 4684 16c6 57FF      		sbrs r21,7
 4685 16c8 00C0      		rjmp .L221
 4686 16ca 20E0      		ldi r18,lo8(0)
 4687 16cc 30E0      		ldi r19,hi8(0)
 4688 16ce 40E0      		ldi r20,hlo8(0)
 4689 16d0 50E0      		ldi r21,hhi8(0)
 4690               	.L221:
 4691               	.LBB811:
 4692               	.LBB812:
 4693               	.LM457:
 4694 16d2 85E1      		ldi r24,lo8(21)
 4695 16d4 90E0      		ldi r25,hi8(21)
 4696               	.LVL304:
 4697 16d6 089F      		mul r16,r24
 4698 16d8 F001      		movw r30,r0
 4699 16da 099F      		mul r16,r25
 4700 16dc F00D      		add r31,r0
 4701 16de 189F      		mul r17,r24
 4702 16e0 F00D      		add r31,r0
 4703 16e2 1124      		clr r1
 4704 16e4 E60F      		add r30,r22
 4705 16e6 F71F      		adc r31,r23
 4706 16e8 EE5B      		subi r30,lo8(-(66))
 4707 16ea FF4F      		sbci r31,hi8(-(66))
 4708 16ec 2083      		st Z,r18
 4709 16ee 3183      		std Z+1,r19
 4710 16f0 4283      		std Z+2,r20
 4711 16f2 5383      		std Z+3,r21
 4712               	.LBE812:
 4713               	.LBE811:
 4714               	.LM458:
 4715 16f4 B291      		ld r27,-Z
 4716 16f6 A291      		ld r26,-Z
 4717 16f8 9291      		ld r25,-Z
 4718 16fa 8291      		ld r24,-Z
 4719               	.LVL305:
 4720               	.LBB813:
 4721               	.LBB814:
 4722               	.LM459:
 4723 16fc 3896      		adiw r30,8
 4724 16fe 821B      		sub r24,r18
 4725 1700 930B      		sbc r25,r19
 4726 1702 A40B      		sbc r26,r20
 4727 1704 B50B      		sbc r27,r21
 4728 1706 B7FF      		sbrs r27,7
 4729 1708 00C0      		rjmp .L222
 4730 170a 80E0      		ldi r24,lo8(0)
 4731 170c 90E0      		ldi r25,hi8(0)
 4732 170e A0E0      		ldi r26,hlo8(0)
 4733 1710 B0E0      		ldi r27,hhi8(0)
 4734               	.L222:
 4735 1712 8083      		st Z,r24
 4736 1714 9183      		std Z+1,r25
 4737 1716 A283      		std Z+2,r26
 4738 1718 B383      		std Z+3,r27
 4739               	.LBE814:
 4740               	.LBE813:
 4741               	.LM460:
 4742 171a 85E1      		ldi r24,lo8(21)
 4743 171c 90E0      		ldi r25,hi8(21)
 4744               	.LVL306:
 4745 171e 089F      		mul r16,r24
 4746 1720 E001      		movw r28,r0
 4747 1722 099F      		mul r16,r25
 4748 1724 D00D      		add r29,r0
 4749 1726 189F      		mul r17,r24
 4750 1728 D00D      		add r29,r0
 4751 172a 1124      		clr r1
 4752 172c C60F      		add r28,r22
 4753 172e D71F      		adc r29,r23
 4754 1730 FE01      		movw r30,r28
 4755 1732 EE5B      		subi r30,lo8(-(66))
 4756 1734 FF4F      		sbci r31,hi8(-(66))
 4757 1736 8081      		ld r24,Z
 4758 1738 9181      		ldd r25,Z+1
 4759 173a A281      		ldd r26,Z+2
 4760 173c B381      		ldd r27,Z+3
 4761 173e 1816      		cp __zero_reg__,r24
 4762 1740 1906      		cpc __zero_reg__,r25
 4763 1742 1A06      		cpc __zero_reg__,r26
 4764 1744 1B06      		cpc __zero_reg__,r27
 4765 1746 04F4      		brge .+2
 4766 1748 00C0      		rjmp .L226
 4767               	.LBB815:
 4768               	.LBB816:
 4769               	.LM461:
 4770 174a 1AAE      		std Y+58,__zero_reg__
 4771 174c 1BAE      		std Y+59,__zero_reg__
 4772 174e 1CAE      		std Y+60,__zero_reg__
 4773 1750 1DAE      		std Y+61,__zero_reg__
 4774               	.LBE816:
 4775               	.LBE815:
 4776               	.LBB817:
 4777               	.LBB818:
 4778               	.LM462:
 4779 1752 1082      		st Z,__zero_reg__
 4780 1754 1182      		std Z+1,__zero_reg__
 4781 1756 1282      		std Z+2,__zero_reg__
 4782 1758 1382      		std Z+3,__zero_reg__
 4783               	.LBE818:
 4784               	.LBE817:
 4785               	.LBB819:
 4786               	.LBB820:
 4787               	.LM463:
 4788 175a FE01      		movw r30,r28
 4789 175c FE96      		adiw r30,62
 4790               	.LBE820:
 4791               	.LBE819:
 4792               	.LBB821:
 4793               	.LBB822:
 4794               	.LM464:
 4795 175e CA5B      		subi r28,lo8(-(70))
 4796 1760 DF4F      		sbci r29,hi8(-(70))
 4797 1762 2081      		ld r18,Z
 4798               	.LVL307:
 4799 1764 3181      		ldd r19,Z+1
 4800               	.LVL308:
 4801 1766 4281      		ldd r20,Z+2
 4802               	.LVL309:
 4803 1768 5381      		ldd r21,Z+3
 4804               	.LVL310:
 4805 176a C901      		movw r24,r18
 4806               	.LVL311:
 4807 176c DA01      		movw r26,r20
 4808               	.LVL312:
 4809 176e B7FF      		sbrs r27,7
 4810 1770 00C0      		rjmp .L224
 4811               	.LVL313:
 4812 1772 80E0      		ldi r24,lo8(0)
 4813 1774 90E0      		ldi r25,hi8(0)
 4814 1776 A0E0      		ldi r26,hlo8(0)
 4815 1778 B0E0      		ldi r27,hhi8(0)
 4816               	.L224:
 4817 177a 8883      		st Y,r24
 4818 177c 9983      		std Y+1,r25
 4819 177e AA83      		std Y+2,r26
 4820 1780 BB83      		std Y+3,r27
 4821               	.LBE822:
 4822               	.LBE821:
 4823               	.LBB823:
 4824               	.LBB824:
 4825               	.LM465:
 4826 1782 85E1      		ldi r24,lo8(21)
 4827 1784 90E0      		ldi r25,hi8(21)
 4828               	.LVL314:
 4829 1786 089F      		mul r16,r24
 4830 1788 F001      		movw r30,r0
 4831 178a 099F      		mul r16,r25
 4832 178c F00D      		add r31,r0
 4833 178e 189F      		mul r17,r24
 4834 1790 F00D      		add r31,r0
 4835 1792 1124      		clr r1
 4836 1794 E60F      		add r30,r22
 4837 1796 F71F      		adc r31,r23
 4838 1798 81AD      		ldd r24,Z+57
 4839 179a 817E      		andi r24,lo8(-31)
 4840 179c 8860      		ori r24,lo8(8)
 4841 179e 81AF      		std Z+57,r24
 4842 17a0 00C0      		rjmp .L226
 4843               	.LVL315:
 4844               	.L220:
 4845               	.LBE824:
 4846               	.LBE823:
 4847               	.LM466:
 4848 17a2 8230      		cpi r24,lo8(2)
 4849 17a4 01F4      		brne .L226
 4850               	.LBB825:
 4851               	.LBB826:
 4852               	.LM467:
 4853 17a6 EB01      		movw r28,r22
 4854 17a8 8A85      		ldd r24,Y+10
 4855 17aa 9B85      		ldd r25,Y+11
 4856 17ac AC85      		ldd r26,Y+12
 4857 17ae BD85      		ldd r27,Y+13
 4858               	.LVL316:
 4859               	.LBE826:
 4860               	.LBE825:
 4861               	.LBB827:
 4862               	.LBB828:
 4863               	.LM468:
 4864 17b0 EE5B      		subi r30,lo8(-(66))
 4865 17b2 FF4F      		sbci r31,hi8(-(66))
 4866 17b4 2081      		ld r18,Z
 4867 17b6 3181      		ldd r19,Z+1
 4868 17b8 4281      		ldd r20,Z+2
 4869 17ba 5381      		ldd r21,Z+3
 4870 17bc E254      		subi r30,lo8(-(-66))
 4871 17be F040      		sbci r31,hi8(-(-66))
 4872 17c0 820F      		add r24,r18
 4873 17c2 931F      		adc r25,r19
 4874 17c4 A41F      		adc r26,r20
 4875 17c6 B51F      		adc r27,r21
 4876 17c8 82AF      		std Z+58,r24
 4877 17ca 93AF      		std Z+59,r25
 4878 17cc A4AF      		std Z+60,r26
 4879 17ce B5AF      		std Z+61,r27
 4880               	.LBE828:
 4881               	.LBE827:
 4882               	.LM469:
 4883 17d0 FE96      		adiw r30,62
 4884 17d2 8081      		ld r24,Z
 4885 17d4 9181      		ldd r25,Z+1
 4886 17d6 A281      		ldd r26,Z+2
 4887 17d8 B381      		ldd r27,Z+3
 4888               	.LVL317:
 4889               	.LBB829:
 4890               	.LBB830:
 4891               	.LM470:
 4892 17da 3896      		adiw r30,8
 4893 17dc 821B      		sub r24,r18
 4894 17de 930B      		sbc r25,r19
 4895 17e0 A40B      		sbc r26,r20
 4896 17e2 B50B      		sbc r27,r21
 4897 17e4 B7FF      		sbrs r27,7
 4898 17e6 00C0      		rjmp .L225
 4899 17e8 80E0      		ldi r24,lo8(0)
 4900 17ea 90E0      		ldi r25,hi8(0)
 4901 17ec A0E0      		ldi r26,hlo8(0)
 4902 17ee B0E0      		ldi r27,hhi8(0)
 4903               	.L225:
 4904 17f0 8083      		st Z,r24
 4905 17f2 9183      		std Z+1,r25
 4906 17f4 A283      		std Z+2,r26
 4907 17f6 B383      		std Z+3,r27
 4908               	.LVL318:
 4909               	.L226:
 4910               	/* epilogue start */
 4911               	.LBE830:
 4912               	.LBE829:
 4913               	.LM471:
 4914 17f8 DF91      		pop r29
 4915 17fa CF91      		pop r28
 4916 17fc 1F91      		pop r17
 4917 17fe 0F91      		pop r16
 4918 1800 0895      		ret
 4919               	.LFE83:
 4921               	.global	Timebase_UpCounter_Expired
 4923               	Timebase_UpCounter_Expired:
 4924               	.LFB84:
 4925               	.LM472:
 4926               	.LVL319:
 4927               	/* prologue: function */
 4928               	/* frame size = 0 */
 4929               	.LM473:
 4930 1802 40E0      		ldi r20,lo8(0)
 4931 1804 E091 0000 		lds r30,Timebase
 4932 1808 F091 0000 		lds r31,(Timebase)+1
 4933 180c 90E0      		ldi r25,lo8(0)
 4934               	.LVL320:
 4935 180e 25E1      		ldi r18,lo8(21)
 4936 1810 30E0      		ldi r19,hi8(21)
 4937 1812 BC01      		movw r22,r24
 4938 1814 629F      		mul r22,r18
 4939 1816 C001      		movw r24,r0
 4940 1818 639F      		mul r22,r19
 4941 181a 900D      		add r25,r0
 4942 181c 729F      		mul r23,r18
 4943 181e 900D      		add r25,r0
 4944 1820 1124      		clr r1
 4945               	.LVL321:
 4946 1822 E80F      		add r30,r24
 4947 1824 F91F      		adc r31,r25
 4948 1826 81AD      		ldd r24,Z+57
 4949 1828 8695      		lsr r24
 4950 182a 8F70      		andi r24,lo8(15)
 4951 182c 8430      		cpi r24,lo8(4)
 4952 182e 01F4      		brne .L228
 4953 1830 41E0      		ldi r20,lo8(1)
 4954               	.L228:
 4955               	.LM474:
 4956 1832 842F      		mov r24,r20
 4957               	/* epilogue start */
 4958 1834 0895      		ret
 4959               	.LFE84:
 4961               	.global	Timebase_UpCounter_Expired_Event
 4963               	Timebase_UpCounter_Expired_Event:
 4964               	.LFB85:
 4965               	.LM475:
 4966               	.LVL322:
 4967               	/* prologue: function */
 4968               	/* frame size = 0 */
 4969 1836 482F      		mov r20,r24
 4970               	.LM476:
 4971 1838 E091 0000 		lds r30,Timebase
 4972 183c F091 0000 		lds r31,(Timebase)+1
 4973 1840 282F      		mov r18,r24
 4974 1842 30E0      		ldi r19,lo8(0)
 4975               	.LVL323:
 4976 1844 85E1      		ldi r24,lo8(21)
 4977 1846 90E0      		ldi r25,hi8(21)
 4978               	.LVL324:
 4979 1848 BC01      		movw r22,r24
 4980 184a 269F      		mul r18,r22
 4981 184c C001      		movw r24,r0
 4982 184e 279F      		mul r18,r23
 4983 1850 900D      		add r25,r0
 4984 1852 369F      		mul r19,r22
 4985 1854 900D      		add r25,r0
 4986 1856 1124      		clr r1
 4987 1858 E80F      		add r30,r24
 4988 185a F91F      		adc r31,r25
 4989 185c 81AD      		ldd r24,Z+57
 4990 185e 8695      		lsr r24
 4991 1860 8F70      		andi r24,lo8(15)
 4992 1862 8430      		cpi r24,lo8(4)
 4993 1864 01F0      		breq .L231
 4994 1866 80E0      		ldi r24,lo8(0)
 4995 1868 0895      		ret
 4996               	.L231:
 4997               	.LBB831:
 4998               	.LBB832:
 4999               	.LM477:
 5000 186a 842F      		mov r24,r20
 5001 186c 0E94 0000 		call Timebase_UpCounter_Reset
 5002               	.LVL325:
 5003 1870 81E0      		ldi r24,lo8(1)
 5004               	.LBE832:
 5005               	.LBE831:
 5006               	.LM478:
 5007 1872 0895      		ret
 5008               	.LFE85:
 5010               	.global	Timebase_UpCounter_Set_Period_Value_Securely
 5012               	Timebase_UpCounter_Set_Period_Value_Securely:
 5013               	.LFB86:
 5014               	.LM479:
 5015               	.LVL326:
 5016 1874 CF93      		push r28
 5017 1876 DF93      		push r29
 5018               	/* prologue: function */
 5019               	/* frame size = 0 */
 5020               	.LBB833:
 5021               	.LBB834:
 5022               	.LM480:
 5023 1878 C091 0000 		lds r28,Timebase
 5024 187c D091 0000 		lds r29,(Timebase)+1
 5025 1880 90E0      		ldi r25,lo8(0)
 5026               	.LBE834:
 5027               	.LBE833:
 5028               	.LM481:
 5029 1882 25E1      		ldi r18,lo8(21)
 5030 1884 30E0      		ldi r19,hi8(21)
 5031 1886 FC01      		movw r30,r24
 5032               	.LVL327:
 5033 1888 E29F      		mul r30,r18
 5034 188a C001      		movw r24,r0
 5035 188c E39F      		mul r30,r19
 5036 188e 900D      		add r25,r0
 5037 1890 F29F      		mul r31,r18
 5038 1892 900D      		add r25,r0
 5039 1894 1124      		clr r1
 5040 1896 C80F      		add r28,r24
 5041 1898 D91F      		adc r29,r25
 5042 189a 89AD      		ldd r24,Y+57
 5043 189c 80FD      		sbrc r24,0
 5044 189e 00C0      		rjmp .L236
 5045               	.LBB835:
 5046               	.LBB836:
 5047               	.LM482:
 5048 18a0 FE01      		movw r30,r28
 5049 18a2 E65B      		subi r30,lo8(-(74))
 5050 18a4 FF4F      		sbci r31,hi8(-(74))
 5051 18a6 CA5B      		subi r28,lo8(-(70))
 5052 18a8 DF4F      		sbci r29,hi8(-(70))
 5053 18aa 8881      		ld r24,Y
 5054 18ac 9981      		ldd r25,Y+1
 5055 18ae AA81      		ldd r26,Y+2
 5056 18b0 BB81      		ldd r27,Y+3
 5057 18b2 C654      		subi r28,lo8(-(-70))
 5058 18b4 D040      		sbci r29,hi8(-(-70))
 5059 18b6 840F      		add r24,r20
 5060 18b8 951F      		adc r25,r21
 5061 18ba A61F      		adc r26,r22
 5062 18bc B71F      		adc r27,r23
 5063 18be 8083      		st Z,r24
 5064 18c0 9183      		std Z+1,r25
 5065 18c2 A283      		std Z+2,r26
 5066 18c4 B383      		std Z+3,r27
 5067               	.LBE836:
 5068               	.LBE835:
 5069               	.LBB837:
 5070               	.LBB838:
 5071               	.LM483:
 5072 18c6 89AD      		ldd r24,Y+57
 5073 18c8 8160      		ori r24,lo8(1)
 5074 18ca 89AF      		std Y+57,r24
 5075               	.L236:
 5076               	/* epilogue start */
 5077               	.LBE838:
 5078               	.LBE837:
 5079               	.LM484:
 5080 18cc DF91      		pop r29
 5081 18ce CF91      		pop r28
 5082 18d0 0895      		ret
 5083               	.LFE86:
 5085               	.global	Timebase_UpCounter_Get_Remaining_Period_Value
 5087               	Timebase_UpCounter_Get_Remaining_Period_Value:
 5088               	.LFB87:
 5089               	.LM485:
 5090               	.LVL328:
 5091               	/* prologue: function */
 5092               	/* frame size = 0 */
 5093               	.LBB839:
 5094               	.LBB840:
 5095               	.LM486:
 5096 18d2 E091 0000 		lds r30,Timebase
 5097 18d6 F091 0000 		lds r31,(Timebase)+1
 5098 18da 90E0      		ldi r25,lo8(0)
 5099               	.LBE840:
 5100               	.LBE839:
 5101               	.LM487:
 5102 18dc 25E1      		ldi r18,lo8(21)
 5103 18de 30E0      		ldi r19,hi8(21)
 5104 18e0 AC01      		movw r20,r24
 5105               	.LVL329:
 5106 18e2 429F      		mul r20,r18
 5107 18e4 C001      		movw r24,r0
 5108 18e6 439F      		mul r20,r19
 5109 18e8 900D      		add r25,r0
 5110 18ea 529F      		mul r21,r18
 5111 18ec 900D      		add r25,r0
 5112 18ee 1124      		clr r1
 5113 18f0 E80F      		add r30,r24
 5114 18f2 F91F      		adc r31,r25
 5115 18f4 DF01      		movw r26,r30
 5116 18f6 AA5B      		subi r26,lo8(-(70))
 5117 18f8 BF4F      		sbci r27,hi8(-(70))
 5118 18fa E65B      		subi r30,lo8(-(74))
 5119 18fc FF4F      		sbci r31,hi8(-(74))
 5120 18fe 2081      		ld r18,Z
 5121 1900 3181      		ldd r19,Z+1
 5122 1902 4281      		ldd r20,Z+2
 5123 1904 5381      		ldd r21,Z+3
 5124               	.LVL330:
 5125 1906 8D91      		ld r24,X+
 5126 1908 9D91      		ld r25,X+
 5127 190a 0D90      		ld __tmp_reg__,X+
 5128 190c BC91      		ld r27,X
 5129 190e A02D      		mov r26,__tmp_reg__
 5130 1910 281B      		sub r18,r24
 5131 1912 390B      		sbc r19,r25
 5132 1914 4A0B      		sbc r20,r26
 5133 1916 5B0B      		sbc r21,r27
 5134 1918 57FF      		sbrs r21,7
 5135 191a 00C0      		rjmp .L238
 5136 191c 20E0      		ldi r18,lo8(0)
 5137 191e 30E0      		ldi r19,hi8(0)
 5138 1920 40E0      		ldi r20,hlo8(0)
 5139 1922 50E0      		ldi r21,hhi8(0)
 5140               	.L238:
 5141               	.LM488:
 5142 1924 B901      		movw r22,r18
 5143               	.LVL331:
 5144 1926 CA01      		movw r24,r20
 5145               	/* epilogue start */
 5146 1928 0895      		ret
 5147               	.LFE87:
 5149               	.global	Timebase_UpCounter_Period_Value_Expired
 5151               	Timebase_UpCounter_Period_Value_Expired:
 5152               	.LFB88:
 5153               	.LM489:
 5154               	.LVL332:
 5155 192a CF93      		push r28
 5156 192c DF93      		push r29
 5157               	/* prologue: function */
 5158               	/* frame size = 0 */
 5159               	.LBB841:
 5160               	.LBB842:
 5161               	.LBB843:
 5162               	.LBB844:
 5163               	.LM490:
 5164 192e C091 0000 		lds r28,Timebase
 5165 1932 D091 0000 		lds r29,(Timebase)+1
 5166 1936 682F      		mov r22,r24
 5167 1938 70E0      		ldi r23,lo8(0)
 5168               	.LBE844:
 5169               	.LBE843:
 5170               	.LM491:
 5171 193a 85E1      		ldi r24,lo8(21)
 5172 193c 90E0      		ldi r25,hi8(21)
 5173               	.LVL333:
 5174 193e 689F      		mul r22,r24
 5175 1940 F001      		movw r30,r0
 5176 1942 699F      		mul r22,r25
 5177 1944 F00D      		add r31,r0
 5178 1946 789F      		mul r23,r24
 5179 1948 F00D      		add r31,r0
 5180 194a 1124      		clr r1
 5181 194c EC0F      		add r30,r28
 5182 194e FD1F      		adc r31,r29
 5183 1950 DF01      		movw r26,r30
 5184 1952 AA5B      		subi r26,lo8(-(70))
 5185 1954 BF4F      		sbci r27,hi8(-(70))
 5186 1956 E65B      		subi r30,lo8(-(74))
 5187 1958 FF4F      		sbci r31,hi8(-(74))
 5188 195a 2081      		ld r18,Z
 5189 195c 3181      		ldd r19,Z+1
 5190 195e 4281      		ldd r20,Z+2
 5191 1960 5381      		ldd r21,Z+3
 5192               	.LVL334:
 5193 1962 8D91      		ld r24,X+
 5194 1964 9D91      		ld r25,X+
 5195 1966 0D90      		ld __tmp_reg__,X+
 5196 1968 BC91      		ld r27,X
 5197 196a A02D      		mov r26,__tmp_reg__
 5198 196c 281B      		sub r18,r24
 5199 196e 390B      		sbc r19,r25
 5200 1970 4A0B      		sbc r20,r26
 5201 1972 5B0B      		sbc r21,r27
 5202               	.LM492:
 5203 1974 57FD      		sbrc r21,7
 5204 1976 00C0      		rjmp .L241
 5205               	.LBE842:
 5206               	.LBE841:
 5207               	.LM493:
 5208 1978 2115      		cp r18,__zero_reg__
 5209 197a 3105      		cpc r19,__zero_reg__
 5210 197c 4105      		cpc r20,__zero_reg__
 5211 197e 5105      		cpc r21,__zero_reg__
 5212 1980 01F0      		breq .L241
 5213 1982 20E0      		ldi r18,lo8(0)
 5214               	.LVL335:
 5215 1984 00C0      		rjmp .L242
 5216               	.LVL336:
 5217               	.L241:
 5218 1986 20E0      		ldi r18,lo8(0)
 5219               	.LVL337:
 5220 1988 85E1      		ldi r24,lo8(21)
 5221 198a 90E0      		ldi r25,hi8(21)
 5222 198c AC01      		movw r20,r24
 5223 198e 649F      		mul r22,r20
 5224 1990 C001      		movw r24,r0
 5225 1992 659F      		mul r22,r21
 5226 1994 900D      		add r25,r0
 5227 1996 749F      		mul r23,r20
 5228 1998 900D      		add r25,r0
 5229 199a 1124      		clr r1
 5230 199c C80F      		add r28,r24
 5231 199e D91F      		adc r29,r25
 5232 19a0 89AD      		ldd r24,Y+57
 5233 19a2 80FF      		sbrs r24,0
 5234 19a4 21E0      		ldi r18,lo8(1)
 5235               	.L243:
 5236 19a6 81E0      		ldi r24,lo8(1)
 5237 19a8 2827      		eor r18,r24
 5238               	.L242:
 5239               	.LM494:
 5240 19aa 822F      		mov r24,r18
 5241               	/* epilogue start */
 5242 19ac DF91      		pop r29
 5243 19ae CF91      		pop r28
 5244 19b0 0895      		ret
 5245               	.LFE88:
 5247               	.global	Timebase_UpCounter_Period_Value_Expired_Event
 5249               	Timebase_UpCounter_Period_Value_Expired_Event:
 5250               	.LFB89:
 5251               	.LM495:
 5252               	.LVL338:
 5253 19b2 1F93      		push r17
 5254               	/* prologue: function */
 5255               	/* frame size = 0 */
 5256 19b4 182F      		mov r17,r24
 5257               	.LM496:
 5258 19b6 0E94 0000 		call Timebase_UpCounter_Period_Value_Expired
 5259               	.LVL339:
 5260 19ba 8130      		cpi r24,lo8(1)
 5261 19bc 01F0      		breq .L246
 5262 19be 80E0      		ldi r24,lo8(0)
 5263 19c0 00C0      		rjmp .L247
 5264               	.L246:
 5265               	.LBB845:
 5266               	.LBB846:
 5267               	.LM497:
 5268 19c2 E091 0000 		lds r30,Timebase
 5269 19c6 F091 0000 		lds r31,(Timebase)+1
 5270 19ca 212F      		mov r18,r17
 5271 19cc 30E0      		ldi r19,lo8(0)
 5272               	.LVL340:
 5273 19ce 85E1      		ldi r24,lo8(21)
 5274 19d0 90E0      		ldi r25,hi8(21)
 5275 19d2 AC01      		movw r20,r24
 5276 19d4 249F      		mul r18,r20
 5277 19d6 C001      		movw r24,r0
 5278 19d8 259F      		mul r18,r21
 5279 19da 900D      		add r25,r0
 5280 19dc 349F      		mul r19,r20
 5281 19de 900D      		add r25,r0
 5282 19e0 1124      		clr r1
 5283 19e2 E80F      		add r30,r24
 5284 19e4 F91F      		adc r31,r25
 5285 19e6 81AD      		ldd r24,Z+57
 5286 19e8 8E7F      		andi r24,lo8(-2)
 5287 19ea 81AF      		std Z+57,r24
 5288 19ec 81E0      		ldi r24,lo8(1)
 5289               	.L247:
 5290               	/* epilogue start */
 5291               	.LBE846:
 5292               	.LBE845:
 5293               	.LM498:
 5294 19ee 1F91      		pop r17
 5295               	.LVL341:
 5296 19f0 0895      		ret
 5297               	.LFE89:
 5299               	.global	Timebase_UpCounter_Update_All
 5301               	Timebase_UpCounter_Update_All:
 5302               	.LFB90:
 5303               	.LM499:
 5304               	/* prologue: function */
 5305               	/* frame size = 0 */
 5306               	.LBB847:
 5307               	.LM500:
 5308 19f2 80E0      		ldi r24,lo8(0)
 5309 19f4 0E94 0000 		call Timebase_UpCounter_Update
 5310               	/* epilogue start */
 5311               	.LBE847:
 5312               	.LM501:
 5313 19f8 0895      		ret
 5314               	.LFE90:
 5316               	.global	Timebase_UpCounter_Reset_All
 5318               	Timebase_UpCounter_Reset_All:
 5319               	.LFB91:
 5320               	.LM502:
 5321               	/* prologue: function */
 5322               	/* frame size = 0 */
 5323               	.LBB848:
 5324               	.LM503:
 5325 19fa 80E0      		ldi r24,lo8(0)
 5326 19fc 0E94 0000 		call Timebase_UpCounter_Reset
 5327               	/* epilogue start */
 5328               	.LBE848:
 5329               	.LM504:
 5330 1a00 0895      		ret
 5331               	.LFE91:
 5333               	.global	Timebase_DownCounter_SS_Get_Status
 5335               	Timebase_DownCounter_SS_Get_Status:
 5336               	.LFB92:
 5337               	.LM505:
 5338               	.LVL342:
 5339               	/* prologue: function */
 5340               	/* frame size = 0 */
 5341               	.LM506:
 5342 1a02 E091 0000 		lds r30,Timebase
 5343 1a06 F091 0000 		lds r31,(Timebase)+1
 5344 1a0a 90E0      		ldi r25,lo8(0)
 5345               	.LVL343:
 5346 1a0c 9C01      		movw r18,r24
 5347 1a0e 44E0      		ldi r20,4
 5348 1a10 220F      	1:	lsl r18
 5349 1a12 331F      		rol r19
 5350 1a14 4A95      		dec r20
 5351 1a16 01F4      		brne 1b
 5352 1a18 280F      		add r18,r24
 5353 1a1a 391F      		adc r19,r25
 5354 1a1c E20F      		add r30,r18
 5355 1a1e F31F      		adc r31,r19
 5356 1a20 E25B      		subi r30,lo8(-(78))
 5357 1a22 FF4F      		sbci r31,hi8(-(78))
 5358 1a24 8081      		ld r24,Z
 5359               	.LVL344:
 5360 1a26 8695      		lsr r24
 5361               	.LM507:
 5362 1a28 8F70      		andi r24,lo8(15)
 5363               	/* epilogue start */
 5364 1a2a 0895      		ret
 5365               	.LFE92:
 5367               	.global	Timebase_DownCounter_SS_Set_Status
 5369               	Timebase_DownCounter_SS_Set_Status:
 5370               	.LFB93:
 5371               	.LM508:
 5372               	.LVL345:
 5373               	/* prologue: function */
 5374               	/* frame size = 0 */
 5375               	.LM509:
 5376 1a2c E091 0000 		lds r30,Timebase
 5377 1a30 F091 0000 		lds r31,(Timebase)+1
 5378 1a34 90E0      		ldi r25,lo8(0)
 5379               	.LVL346:
 5380 1a36 9C01      		movw r18,r24
 5381 1a38 54E0      		ldi r21,4
 5382 1a3a 220F      	1:	lsl r18
 5383 1a3c 331F      		rol r19
 5384 1a3e 5A95      		dec r21
 5385 1a40 01F4      		brne 1b
 5386 1a42 280F      		add r18,r24
 5387 1a44 391F      		adc r19,r25
 5388 1a46 E20F      		add r30,r18
 5389 1a48 F31F      		adc r31,r19
 5390 1a4a E25B      		subi r30,lo8(-(78))
 5391 1a4c FF4F      		sbci r31,hi8(-(78))
 5392 1a4e 6F70      		andi r22,lo8(15)
 5393               	.LVL347:
 5394 1a50 660F      		lsl r22
 5395 1a52 8081      		ld r24,Z
 5396               	.LVL348:
 5397 1a54 817E      		andi r24,lo8(-31)
 5398 1a56 862B      		or r24,r22
 5399 1a58 8083      		st Z,r24
 5400               	/* epilogue start */
 5401               	.LM510:
 5402 1a5a 0895      		ret
 5403               	.LFE93:
 5405               	.global	Timebase_DownCounter_SS_Get_Value
 5407               	Timebase_DownCounter_SS_Get_Value:
 5408               	.LFB94:
 5409               	.LM511:
 5410               	.LVL349:
 5411               	/* prologue: function */
 5412               	/* frame size = 0 */
 5413               	.LM512:
 5414 1a5c E091 0000 		lds r30,Timebase
 5415 1a60 F091 0000 		lds r31,(Timebase)+1
 5416 1a64 90E0      		ldi r25,lo8(0)
 5417               	.LVL350:
 5418 1a66 9C01      		movw r18,r24
 5419 1a68 64E0      		ldi r22,4
 5420 1a6a 220F      	1:	lsl r18
 5421 1a6c 331F      		rol r19
 5422 1a6e 6A95      		dec r22
 5423 1a70 01F4      		brne 1b
 5424 1a72 280F      		add r18,r24
 5425 1a74 391F      		adc r19,r25
 5426 1a76 E20F      		add r30,r18
 5427 1a78 F31F      		adc r31,r19
 5428 1a7a E95A      		subi r30,lo8(-(87))
 5429 1a7c FF4F      		sbci r31,hi8(-(87))
 5430 1a7e 6081      		ld r22,Z
 5431 1a80 7181      		ldd r23,Z+1
 5432               	.LM513:
 5433 1a82 8281      		ldd r24,Z+2
 5434               	.LVL351:
 5435 1a84 9381      		ldd r25,Z+3
 5436               	.LVL352:
 5437               	/* epilogue start */
 5438 1a86 0895      		ret
 5439               	.LFE94:
 5441               	.global	Timebase_DownCounter_SS_Set_Value
 5443               	Timebase_DownCounter_SS_Set_Value:
 5444               	.LFB95:
 5445               	.LM514:
 5446               	.LVL353:
 5447               	/* prologue: function */
 5448               	/* frame size = 0 */
 5449               	.LM515:
 5450 1a88 E091 0000 		lds r30,Timebase
 5451 1a8c F091 0000 		lds r31,(Timebase)+1
 5452 1a90 90E0      		ldi r25,lo8(0)
 5453               	.LVL354:
 5454 1a92 9C01      		movw r18,r24
 5455 1a94 A4E0      		ldi r26,4
 5456 1a96 220F      	1:	lsl r18
 5457 1a98 331F      		rol r19
 5458 1a9a AA95      		dec r26
 5459 1a9c 01F4      		brne 1b
 5460 1a9e 280F      		add r18,r24
 5461 1aa0 391F      		adc r19,r25
 5462 1aa2 E20F      		add r30,r18
 5463 1aa4 F31F      		adc r31,r19
 5464 1aa6 E95A      		subi r30,lo8(-(87))
 5465 1aa8 FF4F      		sbci r31,hi8(-(87))
 5466 1aaa 4083      		st Z,r20
 5467 1aac 5183      		std Z+1,r21
 5468 1aae 6283      		std Z+2,r22
 5469 1ab0 7383      		std Z+3,r23
 5470               	/* epilogue start */
 5471               	.LM516:
 5472 1ab2 0895      		ret
 5473               	.LFE95:
 5475               	.global	Timebase_DownCounter_SS_Get_EndValueSec
 5477               	Timebase_DownCounter_SS_Get_EndValueSec:
 5478               	.LFB96:
 5479               	.LM517:
 5480               	.LVL355:
 5481               	/* prologue: function */
 5482               	/* frame size = 0 */
 5483               	.LM518:
 5484 1ab4 E091 0000 		lds r30,Timebase
 5485 1ab8 F091 0000 		lds r31,(Timebase)+1
 5486 1abc 90E0      		ldi r25,lo8(0)
 5487               	.LVL356:
 5488 1abe 9C01      		movw r18,r24
 5489 1ac0 B4E0      		ldi r27,4
 5490 1ac2 220F      	1:	lsl r18
 5491 1ac4 331F      		rol r19
 5492 1ac6 BA95      		dec r27
 5493 1ac8 01F4      		brne 1b
 5494 1aca 280F      		add r18,r24
 5495 1acc 391F      		adc r19,r25
 5496 1ace E20F      		add r30,r18
 5497 1ad0 F31F      		adc r31,r19
 5498 1ad2 E15B      		subi r30,lo8(-(79))
 5499 1ad4 FF4F      		sbci r31,hi8(-(79))
 5500 1ad6 6081      		ld r22,Z
 5501 1ad8 7181      		ldd r23,Z+1
 5502               	.LM519:
 5503 1ada 8281      		ldd r24,Z+2
 5504               	.LVL357:
 5505 1adc 9381      		ldd r25,Z+3
 5506               	.LVL358:
 5507               	/* epilogue start */
 5508 1ade 0895      		ret
 5509               	.LFE96:
 5511               	.global	Timebase_DownCounter_SS_Get_EndValueSubSec
 5513               	Timebase_DownCounter_SS_Get_EndValueSubSec:
 5514               	.LFB97:
 5515               	.LM520:
 5516               	.LVL359:
 5517               	/* prologue: function */
 5518               	/* frame size = 0 */
 5519               	.LM521:
 5520 1ae0 E091 0000 		lds r30,Timebase
 5521 1ae4 F091 0000 		lds r31,(Timebase)+1
 5522 1ae8 90E0      		ldi r25,lo8(0)
 5523               	.LVL360:
 5524 1aea 9C01      		movw r18,r24
 5525 1aec 44E0      		ldi r20,4
 5526 1aee 220F      	1:	lsl r18
 5527 1af0 331F      		rol r19
 5528 1af2 4A95      		dec r20
 5529 1af4 01F4      		brne 1b
 5530 1af6 280F      		add r18,r24
 5531 1af8 391F      		adc r19,r25
 5532 1afa E20F      		add r30,r18
 5533 1afc F31F      		adc r31,r19
 5534 1afe ED5A      		subi r30,lo8(-(83))
 5535 1b00 FF4F      		sbci r31,hi8(-(83))
 5536 1b02 6081      		ld r22,Z
 5537 1b04 7181      		ldd r23,Z+1
 5538               	.LM522:
 5539 1b06 8281      		ldd r24,Z+2
 5540               	.LVL361:
 5541 1b08 9381      		ldd r25,Z+3
 5542               	.LVL362:
 5543               	/* epilogue start */
 5544 1b0a 0895      		ret
 5545               	.LFE97:
 5547               	.global	Timebase_DownCounter_SS_Set_EndValueSec
 5549               	Timebase_DownCounter_SS_Set_EndValueSec:
 5550               	.LFB98:
 5551               	.LM523:
 5552               	.LVL363:
 5553               	/* prologue: function */
 5554               	/* frame size = 0 */
 5555               	.LM524:
 5556 1b0c E091 0000 		lds r30,Timebase
 5557 1b10 F091 0000 		lds r31,(Timebase)+1
 5558 1b14 90E0      		ldi r25,lo8(0)
 5559               	.LVL364:
 5560 1b16 9C01      		movw r18,r24
 5561 1b18 A4E0      		ldi r26,4
 5562 1b1a 220F      	1:	lsl r18
 5563 1b1c 331F      		rol r19
 5564 1b1e AA95      		dec r26
 5565 1b20 01F4      		brne 1b
 5566 1b22 280F      		add r18,r24
 5567 1b24 391F      		adc r19,r25
 5568 1b26 E20F      		add r30,r18
 5569 1b28 F31F      		adc r31,r19
 5570 1b2a E15B      		subi r30,lo8(-(79))
 5571 1b2c FF4F      		sbci r31,hi8(-(79))
 5572 1b2e 4083      		st Z,r20
 5573 1b30 5183      		std Z+1,r21
 5574 1b32 6283      		std Z+2,r22
 5575 1b34 7383      		std Z+3,r23
 5576               	/* epilogue start */
 5577               	.LM525:
 5578 1b36 0895      		ret
 5579               	.LFE98:
 5581               	.global	Timebase_DownCounter_SS_Set_EndValueSubSec
 5583               	Timebase_DownCounter_SS_Set_EndValueSubSec:
 5584               	.LFB99:
 5585               	.LM526:
 5586               	.LVL365:
 5587               	/* prologue: function */
 5588               	/* frame size = 0 */
 5589               	.LM527:
 5590 1b38 E091 0000 		lds r30,Timebase
 5591 1b3c F091 0000 		lds r31,(Timebase)+1
 5592 1b40 90E0      		ldi r25,lo8(0)
 5593               	.LVL366:
 5594 1b42 9C01      		movw r18,r24
 5595 1b44 B4E0      		ldi r27,4
 5596 1b46 220F      	1:	lsl r18
 5597 1b48 331F      		rol r19
 5598 1b4a BA95      		dec r27
 5599 1b4c 01F4      		brne 1b
 5600 1b4e 280F      		add r18,r24
 5601 1b50 391F      		adc r19,r25
 5602 1b52 E20F      		add r30,r18
 5603 1b54 F31F      		adc r31,r19
 5604 1b56 ED5A      		subi r30,lo8(-(83))
 5605 1b58 FF4F      		sbci r31,hi8(-(83))
 5606 1b5a 4083      		st Z,r20
 5607 1b5c 5183      		std Z+1,r21
 5608 1b5e 6283      		std Z+2,r22
 5609 1b60 7383      		std Z+3,r23
 5610               	/* epilogue start */
 5611               	.LM528:
 5612 1b62 0895      		ret
 5613               	.LFE99:
 5615               	.global	Timebase_DownCounter_SS_Get_PeriodValue
 5617               	Timebase_DownCounter_SS_Get_PeriodValue:
 5618               	.LFB100:
 5619               	.LM529:
 5620               	.LVL367:
 5621               	/* prologue: function */
 5622               	/* frame size = 0 */
 5623               	.LM530:
 5624 1b64 E091 0000 		lds r30,Timebase
 5625 1b68 F091 0000 		lds r31,(Timebase)+1
 5626 1b6c 90E0      		ldi r25,lo8(0)
 5627               	.LVL368:
 5628 1b6e 9C01      		movw r18,r24
 5629 1b70 44E0      		ldi r20,4
 5630 1b72 220F      	1:	lsl r18
 5631 1b74 331F      		rol r19
 5632 1b76 4A95      		dec r20
 5633 1b78 01F4      		brne 1b
 5634 1b7a 280F      		add r18,r24
 5635 1b7c 391F      		adc r19,r25
 5636 1b7e E20F      		add r30,r18
 5637 1b80 F31F      		adc r31,r19
 5638 1b82 E55A      		subi r30,lo8(-(91))
 5639 1b84 FF4F      		sbci r31,hi8(-(91))
 5640 1b86 6081      		ld r22,Z
 5641 1b88 7181      		ldd r23,Z+1
 5642               	.LM531:
 5643 1b8a 8281      		ldd r24,Z+2
 5644               	.LVL369:
 5645 1b8c 9381      		ldd r25,Z+3
 5646               	.LVL370:
 5647               	/* epilogue start */
 5648 1b8e 0895      		ret
 5649               	.LFE100:
 5651               	.global	Timebase_DownCounter_SS_Set_PeriodValue
 5653               	Timebase_DownCounter_SS_Set_PeriodValue:
 5654               	.LFB101:
 5655               	.LM532:
 5656               	.LVL371:
 5657               	/* prologue: function */
 5658               	/* frame size = 0 */
 5659 1b90 E091 0000 		lds r30,Timebase
 5660 1b94 F091 0000 		lds r31,(Timebase)+1
 5661 1b98 282F      		mov r18,r24
 5662 1b9a 30E0      		ldi r19,lo8(0)
 5663               	.LVL372:
 5664               	.LM533:
 5665 1b9c 77FF      		sbrs r23,7
 5666 1b9e 00C0      		rjmp .L272
 5667               	.LVL373:
 5668               	.LM534:
 5669 1ba0 C901      		movw r24,r18
 5670 1ba2 B4E0      		ldi r27,4
 5671 1ba4 880F      	1:	lsl r24
 5672 1ba6 991F      		rol r25
 5673 1ba8 BA95      		dec r27
 5674 1baa 01F4      		brne 1b
 5675 1bac 820F      		add r24,r18
 5676 1bae 931F      		adc r25,r19
 5677 1bb0 E80F      		add r30,r24
 5678 1bb2 F91F      		adc r31,r25
 5679 1bb4 E55A      		subi r30,lo8(-(91))
 5680 1bb6 FF4F      		sbci r31,hi8(-(91))
 5681 1bb8 1082      		st Z,__zero_reg__
 5682 1bba 1182      		std Z+1,__zero_reg__
 5683 1bbc 1282      		std Z+2,__zero_reg__
 5684 1bbe 1382      		std Z+3,__zero_reg__
 5685 1bc0 0895      		ret
 5686               	.LVL374:
 5687               	.L272:
 5688               	.LM535:
 5689 1bc2 C901      		movw r24,r18
 5690 1bc4 A4E0      		ldi r26,4
 5691 1bc6 880F      	1:	lsl r24
 5692 1bc8 991F      		rol r25
 5693 1bca AA95      		dec r26
 5694 1bcc 01F4      		brne 1b
 5695 1bce 820F      		add r24,r18
 5696 1bd0 931F      		adc r25,r19
 5697 1bd2 E80F      		add r30,r24
 5698 1bd4 F91F      		adc r31,r25
 5699 1bd6 E55A      		subi r30,lo8(-(91))
 5700 1bd8 FF4F      		sbci r31,hi8(-(91))
 5701 1bda 4083      		st Z,r20
 5702 1bdc 5183      		std Z+1,r21
 5703 1bde 6283      		std Z+2,r22
 5704 1be0 7383      		std Z+3,r23
 5705 1be2 0895      		ret
 5706               	.LFE101:
 5708               	.global	Timebase_DownCounter_SS_Get_Period_Flag
 5710               	Timebase_DownCounter_SS_Get_Period_Flag:
 5711               	.LFB102:
 5712               	.LM536:
 5713               	.LVL375:
 5714               	/* prologue: function */
 5715               	/* frame size = 0 */
 5716               	.LM537:
 5717 1be4 E091 0000 		lds r30,Timebase
 5718 1be8 F091 0000 		lds r31,(Timebase)+1
 5719 1bec 90E0      		ldi r25,lo8(0)
 5720               	.LVL376:
 5721 1bee 9C01      		movw r18,r24
 5722 1bf0 44E0      		ldi r20,4
 5723 1bf2 220F      	1:	lsl r18
 5724 1bf4 331F      		rol r19
 5725 1bf6 4A95      		dec r20
 5726 1bf8 01F4      		brne 1b
 5727 1bfa 280F      		add r18,r24
 5728 1bfc 391F      		adc r19,r25
 5729 1bfe E20F      		add r30,r18
 5730 1c00 F31F      		adc r31,r19
 5731 1c02 E25B      		subi r30,lo8(-(78))
 5732 1c04 FF4F      		sbci r31,hi8(-(78))
 5733 1c06 8081      		ld r24,Z
 5734               	.LVL377:
 5735               	.LM538:
 5736 1c08 8170      		andi r24,lo8(1)
 5737               	/* epilogue start */
 5738 1c0a 0895      		ret
 5739               	.LFE102:
 5741               	.global	Timebase_DownCounter_SS_Set_Period_Flag
 5743               	Timebase_DownCounter_SS_Set_Period_Flag:
 5744               	.LFB103:
 5745               	.LM539:
 5746               	.LVL378:
 5747               	/* prologue: function */
 5748               	/* frame size = 0 */
 5749               	.LM540:
 5750 1c0c E091 0000 		lds r30,Timebase
 5751 1c10 F091 0000 		lds r31,(Timebase)+1
 5752 1c14 90E0      		ldi r25,lo8(0)
 5753               	.LVL379:
 5754 1c16 9C01      		movw r18,r24
 5755 1c18 54E0      		ldi r21,4
 5756 1c1a 220F      	1:	lsl r18
 5757 1c1c 331F      		rol r19
 5758 1c1e 5A95      		dec r21
 5759 1c20 01F4      		brne 1b
 5760 1c22 280F      		add r18,r24
 5761 1c24 391F      		adc r19,r25
 5762 1c26 E20F      		add r30,r18
 5763 1c28 F31F      		adc r31,r19
 5764 1c2a E25B      		subi r30,lo8(-(78))
 5765 1c2c FF4F      		sbci r31,hi8(-(78))
 5766 1c2e 8081      		ld r24,Z
 5767               	.LVL380:
 5768 1c30 8160      		ori r24,lo8(1)
 5769 1c32 8083      		st Z,r24
 5770               	/* epilogue start */
 5771               	.LM541:
 5772 1c34 0895      		ret
 5773               	.LFE103:
 5775               	.global	Timebase_DownCounter_SS_Clear_Period_Flag
 5777               	Timebase_DownCounter_SS_Clear_Period_Flag:
 5778               	.LFB104:
 5779               	.LM542:
 5780               	.LVL381:
 5781               	/* prologue: function */
 5782               	/* frame size = 0 */
 5783               	.LM543:
 5784 1c36 E091 0000 		lds r30,Timebase
 5785 1c3a F091 0000 		lds r31,(Timebase)+1
 5786 1c3e 90E0      		ldi r25,lo8(0)
 5787               	.LVL382:
 5788 1c40 9C01      		movw r18,r24
 5789 1c42 64E0      		ldi r22,4
 5790 1c44 220F      	1:	lsl r18
 5791 1c46 331F      		rol r19
 5792 1c48 6A95      		dec r22
 5793 1c4a 01F4      		brne 1b
 5794 1c4c 280F      		add r18,r24
 5795 1c4e 391F      		adc r19,r25
 5796 1c50 E20F      		add r30,r18
 5797 1c52 F31F      		adc r31,r19
 5798 1c54 E25B      		subi r30,lo8(-(78))
 5799 1c56 FF4F      		sbci r31,hi8(-(78))
 5800 1c58 8081      		ld r24,Z
 5801               	.LVL383:
 5802 1c5a 8E7F      		andi r24,lo8(-2)
 5803 1c5c 8083      		st Z,r24
 5804               	/* epilogue start */
 5805               	.LM544:
 5806 1c5e 0895      		ret
 5807               	.LFE104:
 5809               	.global	Timebase_DownCounter_SS_Reset
 5811               	Timebase_DownCounter_SS_Reset:
 5812               	.LFB105:
 5813               	.LM545:
 5814               	.LVL384:
 5815               	/* prologue: function */
 5816               	/* frame size = 0 */
 5817               	.LBB849:
 5818               	.LBB850:
 5819               	.LM546:
 5820 1c60 E091 0000 		lds r30,Timebase
 5821 1c64 F091 0000 		lds r31,(Timebase)+1
 5822 1c68 90E0      		ldi r25,lo8(0)
 5823 1c6a 9C01      		movw r18,r24
 5824               	.LVL385:
 5825 1c6c 74E0      		ldi r23,4
 5826 1c6e 220F      	1:	lsl r18
 5827 1c70 331F      		rol r19
 5828 1c72 7A95      		dec r23
 5829 1c74 01F4      		brne 1b
 5830 1c76 280F      		add r18,r24
 5831 1c78 391F      		adc r19,r25
 5832 1c7a E20F      		add r30,r18
 5833 1c7c F31F      		adc r31,r19
 5834 1c7e ED5A      		subi r30,lo8(-(83))
 5835 1c80 FF4F      		sbci r31,hi8(-(83))
 5836 1c82 1082      		st Z,__zero_reg__
 5837 1c84 1182      		std Z+1,__zero_reg__
 5838 1c86 1282      		std Z+2,__zero_reg__
 5839 1c88 1382      		std Z+3,__zero_reg__
 5840               	.LBE850:
 5841               	.LBE849:
 5842               	.LBB851:
 5843               	.LBB852:
 5844               	.LM547:
 5845 1c8a 1292      		st -Z,__zero_reg__
 5846 1c8c 1292      		st -Z,__zero_reg__
 5847 1c8e 1292      		st -Z,__zero_reg__
 5848 1c90 1292      		st -Z,__zero_reg__
 5849               	.LBE852:
 5850               	.LBE851:
 5851               	.LBB853:
 5852               	.LBB854:
 5853               	.LM548:
 5854 1c92 3896      		adiw r30,8
 5855 1c94 1082      		st Z,__zero_reg__
 5856 1c96 1182      		std Z+1,__zero_reg__
 5857 1c98 1282      		std Z+2,__zero_reg__
 5858 1c9a 1382      		std Z+3,__zero_reg__
 5859               	.LBE854:
 5860               	.LBE853:
 5861               	.LBB855:
 5862               	.LBB856:
 5863               	.LM549:
 5864 1c9c 3997      		sbiw r30,9
 5865 1c9e 8081      		ld r24,Z
 5866               	.LBE856:
 5867               	.LBE855:
 5868               	.LBB857:
 5869               	.LBB858:
 5870               	.LM550:
 5871 1ca0 807E      		andi r24,lo8(-32)
 5872 1ca2 8083      		st Z,r24
 5873               	/* epilogue start */
 5874               	.LBE858:
 5875               	.LBE857:
 5876               	.LM551:
 5877 1ca4 0895      		ret
 5878               	.LFE105:
 5880               	.global	Timebase_DownCounter_SS_Clear_All_Flags
 5882               	Timebase_DownCounter_SS_Clear_All_Flags:
 5883               	.LFB106:
 5884               	.LM552:
 5885               	.LVL386:
 5886               	/* prologue: function */
 5887               	/* frame size = 0 */
 5888               	.LBB859:
 5889               	.LBB860:
 5890               	.LBB861:
 5891               	.LBB862:
 5892               	.LM553:
 5893 1ca6 E091 0000 		lds r30,Timebase
 5894 1caa F091 0000 		lds r31,(Timebase)+1
 5895 1cae 90E0      		ldi r25,lo8(0)
 5896 1cb0 9C01      		movw r18,r24
 5897               	.LVL387:
 5898 1cb2 A4E0      		ldi r26,4
 5899 1cb4 220F      	1:	lsl r18
 5900 1cb6 331F      		rol r19
 5901 1cb8 AA95      		dec r26
 5902 1cba 01F4      		brne 1b
 5903 1cbc 280F      		add r18,r24
 5904 1cbe 391F      		adc r19,r25
 5905 1cc0 E20F      		add r30,r18
 5906 1cc2 F31F      		adc r31,r19
 5907 1cc4 ED5A      		subi r30,lo8(-(83))
 5908 1cc6 FF4F      		sbci r31,hi8(-(83))
 5909 1cc8 1082      		st Z,__zero_reg__
 5910 1cca 1182      		std Z+1,__zero_reg__
 5911 1ccc 1282      		std Z+2,__zero_reg__
 5912 1cce 1382      		std Z+3,__zero_reg__
 5913               	.LBE862:
 5914               	.LBE861:
 5915               	.LBB863:
 5916               	.LBB864:
 5917               	.LM554:
 5918 1cd0 1292      		st -Z,__zero_reg__
 5919 1cd2 1292      		st -Z,__zero_reg__
 5920 1cd4 1292      		st -Z,__zero_reg__
 5921 1cd6 1292      		st -Z,__zero_reg__
 5922               	.LBE864:
 5923               	.LBE863:
 5924               	.LBB865:
 5925               	.LBB866:
 5926               	.LM555:
 5927 1cd8 3896      		adiw r30,8
 5928 1cda 1082      		st Z,__zero_reg__
 5929 1cdc 1182      		std Z+1,__zero_reg__
 5930 1cde 1282      		std Z+2,__zero_reg__
 5931 1ce0 1382      		std Z+3,__zero_reg__
 5932               	.LBE866:
 5933               	.LBE865:
 5934               	.LBB867:
 5935               	.LBB868:
 5936               	.LM556:
 5937 1ce2 3997      		sbiw r30,9
 5938 1ce4 8081      		ld r24,Z
 5939               	.LBE868:
 5940               	.LBE867:
 5941               	.LBB869:
 5942               	.LBB870:
 5943               	.LM557:
 5944 1ce6 807E      		andi r24,lo8(-32)
 5945 1ce8 8083      		st Z,r24
 5946               	/* epilogue start */
 5947               	.LBE870:
 5948               	.LBE869:
 5949               	.LBE860:
 5950               	.LBE859:
 5951               	.LM558:
 5952 1cea 0895      		ret
 5953               	.LFE106:
 5955               	.global	Timebase_DownCounter_SS_Start
 5957               	Timebase_DownCounter_SS_Start:
 5958               	.LFB107:
 5959               	.LM559:
 5960               	.LVL388:
 5961               	/* prologue: function */
 5962               	/* frame size = 0 */
 5963               	.LBB871:
 5964               	.LBB872:
 5965               	.LM560:
 5966 1cec E091 0000 		lds r30,Timebase
 5967 1cf0 F091 0000 		lds r31,(Timebase)+1
 5968 1cf4 90E0      		ldi r25,lo8(0)
 5969               	.LBE872:
 5970               	.LBE871:
 5971               	.LM561:
 5972 1cf6 9C01      		movw r18,r24
 5973               	.LVL389:
 5974 1cf8 B4E0      		ldi r27,4
 5975 1cfa 220F      	1:	lsl r18
 5976 1cfc 331F      		rol r19
 5977 1cfe BA95      		dec r27
 5978 1d00 01F4      		brne 1b
 5979 1d02 280F      		add r18,r24
 5980 1d04 391F      		adc r19,r25
 5981 1d06 E20F      		add r30,r18
 5982 1d08 F31F      		adc r31,r19
 5983 1d0a E25B      		subi r30,lo8(-(78))
 5984 1d0c FF4F      		sbci r31,hi8(-(78))
 5985 1d0e 9081      		ld r25,Z
 5986 1d10 892F      		mov r24,r25
 5987 1d12 8695      		lsr r24
 5988 1d14 8F70      		andi r24,lo8(15)
 5989 1d16 8130      		cpi r24,lo8(1)
 5990 1d18 01F0      		breq .L287
 5991               	.LBB873:
 5992               	.LBB874:
 5993               	.LM562:
 5994 1d1a 917E      		andi r25,lo8(-31)
 5995 1d1c 9260      		ori r25,lo8(2)
 5996 1d1e 9083      		st Z,r25
 5997               	.L287:
 5998 1d20 0895      		ret
 5999               	.LBE874:
 6000               	.LBE873:
 6001               	.LFE107:
 6003               	.global	Timebase_DownCounter_SS_Stop
 6005               	Timebase_DownCounter_SS_Stop:
 6006               	.LFB108:
 6007               	.LM563:
 6008               	.LVL390:
 6009               	/* prologue: function */
 6010               	/* frame size = 0 */
 6011               	.LBB875:
 6012               	.LBB876:
 6013               	.LM564:
 6014 1d22 E091 0000 		lds r30,Timebase
 6015 1d26 F091 0000 		lds r31,(Timebase)+1
 6016 1d2a 90E0      		ldi r25,lo8(0)
 6017               	.LBE876:
 6018               	.LBE875:
 6019               	.LM565:
 6020 1d2c 9C01      		movw r18,r24
 6021               	.LVL391:
 6022 1d2e 44E0      		ldi r20,4
 6023 1d30 220F      	1:	lsl r18
 6024 1d32 331F      		rol r19
 6025 1d34 4A95      		dec r20
 6026 1d36 01F4      		brne 1b
 6027 1d38 280F      		add r18,r24
 6028 1d3a 391F      		adc r19,r25
 6029 1d3c E20F      		add r30,r18
 6030 1d3e F31F      		adc r31,r19
 6031 1d40 E25B      		subi r30,lo8(-(78))
 6032 1d42 FF4F      		sbci r31,hi8(-(78))
 6033 1d44 9081      		ld r25,Z
 6034 1d46 892F      		mov r24,r25
 6035 1d48 8695      		lsr r24
 6036 1d4a 8F70      		andi r24,lo8(15)
 6037 1d4c 8230      		cpi r24,lo8(2)
 6038 1d4e 01F0      		breq .L290
 6039               	.LBB877:
 6040               	.LBB878:
 6041               	.LM566:
 6042 1d50 917E      		andi r25,lo8(-31)
 6043 1d52 9460      		ori r25,lo8(4)
 6044 1d54 9083      		st Z,r25
 6045               	.L290:
 6046 1d56 0895      		ret
 6047               	.LBE878:
 6048               	.LBE877:
 6049               	.LFE108:
 6051               	.global	Timebase_DownCounter_SS_Set_Securely
 6053               	Timebase_DownCounter_SS_Set_Securely:
 6054               	.LFB109:
 6055               	.LM567:
 6056               	.LVL392:
 6057 1d58 2F92      		push r2
 6058 1d5a 3F92      		push r3
 6059 1d5c 4F92      		push r4
 6060 1d5e 5F92      		push r5
 6061 1d60 6F92      		push r6
 6062 1d62 7F92      		push r7
 6063 1d64 8F92      		push r8
 6064 1d66 9F92      		push r9
 6065 1d68 AF92      		push r10
 6066 1d6a BF92      		push r11
 6067 1d6c CF92      		push r12
 6068 1d6e DF92      		push r13
 6069 1d70 EF92      		push r14
 6070 1d72 FF92      		push r15
 6071 1d74 0F93      		push r16
 6072 1d76 1F93      		push r17
 6073 1d78 DF93      		push r29
 6074 1d7a CF93      		push r28
 6075 1d7c 00D0      		rcall .
 6076 1d7e 00D0      		rcall .
 6077 1d80 CDB7      		in r28,__SP_L__
 6078 1d82 DEB7      		in r29,__SP_H__
 6079               	/* prologue: function */
 6080               	/* frame size = 4 */
 6081 1d84 4A01      		movw r8,r20
 6082 1d86 5B01      		movw r10,r22
 6083               	.LBB879:
 6084               	.LBB880:
 6085               	.LM568:
 6086 1d88 2091 0000 		lds r18,Timebase
 6087 1d8c 3091 0000 		lds r19,(Timebase)+1
 6088 1d90 3C83      		std Y+4,r19
 6089 1d92 2B83      		std Y+3,r18
 6090 1d94 A82F      		mov r26,r24
 6091 1d96 B0E0      		ldi r27,lo8(0)
 6092 1d98 BA83      		std Y+2,r27
 6093 1d9a A983      		std Y+1,r26
 6094               	.LBE880:
 6095               	.LBE879:
 6096               	.LM569:
 6097 1d9c FD01      		movw r30,r26
 6098 1d9e 64E0      		ldi r22,4
 6099 1da0 EE0F      	1:	lsl r30
 6100 1da2 FF1F      		rol r31
 6101 1da4 6A95      		dec r22
 6102 1da6 01F4      		brne 1b
 6103 1da8 EA0F      		add r30,r26
 6104 1daa FB1F      		adc r31,r27
 6105 1dac E20F      		add r30,r18
 6106 1dae F31F      		adc r31,r19
 6107 1db0 E25B      		subi r30,lo8(-(78))
 6108 1db2 FF4F      		sbci r31,hi8(-(78))
 6109 1db4 8081      		ld r24,Z
 6110               	.LVL393:
 6111 1db6 EE54      		subi r30,lo8(-(-78))
 6112 1db8 F040      		sbci r31,hi8(-(-78))
 6113 1dba 8695      		lsr r24
 6114 1dbc 8F70      		andi r24,lo8(15)
 6115 1dbe 01F0      		breq .+2
 6116 1dc0 00C0      		rjmp .L294
 6117               	.LVL394:
 6118               	.LBB881:
 6119               	.LBB882:
 6120               	.LBB883:
 6121               	.LM570:
 6122 1dc2 E95A      		subi r30,lo8(-(87))
 6123 1dc4 FF4F      		sbci r31,hi8(-(87))
 6124 1dc6 8082      		st Z,r8
 6125 1dc8 9182      		std Z+1,r9
 6126 1dca A282      		std Z+2,r10
 6127 1dcc B382      		std Z+3,r11
 6128               	.LBE883:
 6129               	.LBE882:
 6130               	.LBB884:
 6131               	.LBB885:
 6132               	.LM571:
 6133 1dce F901      		movw r30,r18
 6134 1dd0 C084      		ldd r12,Z+8
 6135 1dd2 D184      		ldd r13,Z+9
 6136               	.LBE885:
 6137               	.LBE884:
 6138               	.LBB886:
 6139               	.LBB887:
 6140               	.LM572:
 6141 1dd4 2284      		ldd r2,Z+10
 6142 1dd6 3384      		ldd r3,Z+11
 6143 1dd8 4484      		ldd r4,Z+12
 6144 1dda 5584      		ldd r5,Z+13
 6145               	.LVL395:
 6146               	.LBE887:
 6147               	.LBE886:
 6148               	.LM573:
 6149 1ddc 2181      		ldd r18,Z+1
 6150 1dde 3281      		ldd r19,Z+2
 6151 1de0 40E0      		ldi r20,lo8(0)
 6152 1de2 50E0      		ldi r21,hi8(0)
 6153 1de4 C501      		movw r24,r10
 6154 1de6 B401      		movw r22,r8
 6155 1de8 0E94 0000 		call __divmodsi4
 6156 1dec 7B01      		movw r14,r22
 6157 1dee 8C01      		movw r16,r24
 6158               	.LM574:
 6159 1df0 AB81      		ldd r26,Y+3
 6160 1df2 BC81      		ldd r27,Y+4
 6161 1df4 1196      		adiw r26,1
 6162 1df6 2D91      		ld r18,X+
 6163 1df8 3C91      		ld r19,X
 6164 1dfa 1297      		sbiw r26,1+1
 6165 1dfc 40E0      		ldi r20,lo8(0)
 6166 1dfe 50E0      		ldi r21,hi8(0)
 6167 1e00 C501      		movw r24,r10
 6168 1e02 B401      		movw r22,r8
 6169 1e04 0E94 0000 		call __divmodsi4
 6170 1e08 C901      		movw r24,r18
 6171 1e0a DA01      		movw r26,r20
 6172 1e0c 3C01      		movw r6,r24
 6173 1e0e 4D01      		movw r8,r26
 6174               	.LVL396:
 6175               	.LM575:
 6176 1e10 5601      		movw r10,r12
 6177               	.LVL397:
 6178 1e12 CC24      		clr r12
 6179 1e14 DD24      		clr r13
 6180               	.LVL398:
 6181 1e16 AE0C      		add r10,r14
 6182 1e18 BF1C      		adc r11,r15
 6183 1e1a C01E      		adc r12,r16
 6184 1e1c D11E      		adc r13,r17
 6185               	.LVL399:
 6186               	.LM576:
 6187 1e1e EB81      		ldd r30,Y+3
 6188 1e20 FC81      		ldd r31,Y+4
 6189 1e22 8181      		ldd r24,Z+1
 6190 1e24 9281      		ldd r25,Z+2
 6191               	.LVL400:
 6192 1e26 A0E0      		ldi r26,lo8(0)
 6193 1e28 B0E0      		ldi r27,hi8(0)
 6194 1e2a A816      		cp r10,r24
 6195 1e2c B906      		cpc r11,r25
 6196 1e2e CA06      		cpc r12,r26
 6197 1e30 DB06      		cpc r13,r27
 6198 1e32 04F0      		brlt .L293
 6199               	.LM577:
 6200 1e34 0894      		sec
 6201 1e36 611C      		adc r6,__zero_reg__
 6202 1e38 711C      		adc r7,__zero_reg__
 6203 1e3a 811C      		adc r8,__zero_reg__
 6204 1e3c 911C      		adc r9,__zero_reg__
 6205               	.LM578:
 6206 1e3e 2181      		ldd r18,Z+1
 6207 1e40 3281      		ldd r19,Z+2
 6208 1e42 40E0      		ldi r20,lo8(0)
 6209 1e44 50E0      		ldi r21,hi8(0)
 6210 1e46 C601      		movw r24,r12
 6211 1e48 B501      		movw r22,r10
 6212 1e4a 0E94 0000 		call __divmodsi4
 6213 1e4e AC01      		movw r20,r24
 6214 1e50 CB01      		movw r24,r22
 6215 1e52 DA01      		movw r26,r20
 6216 1e54 5C01      		movw r10,r24
 6217 1e56 6D01      		movw r12,r26
 6218               	.L293:
 6219               	.LBB888:
 6220               	.LBB889:
 6221               	.LM579:
 6222 1e58 E981      		ldd r30,Y+1
 6223 1e5a FA81      		ldd r31,Y+2
 6224 1e5c 54E0      		ldi r21,4
 6225 1e5e EE0F      	1:	lsl r30
 6226 1e60 FF1F      		rol r31
 6227 1e62 5A95      		dec r21
 6228 1e64 01F4      		brne 1b
 6229 1e66 2981      		ldd r18,Y+1
 6230 1e68 3A81      		ldd r19,Y+2
 6231 1e6a E20F      		add r30,r18
 6232 1e6c F31F      		adc r31,r19
 6233 1e6e 8B81      		ldd r24,Y+3
 6234 1e70 9C81      		ldd r25,Y+4
 6235 1e72 E80F      		add r30,r24
 6236 1e74 F91F      		adc r31,r25
 6237 1e76 E15B      		subi r30,lo8(-(79))
 6238 1e78 FF4F      		sbci r31,hi8(-(79))
 6239 1e7a 260C      		add r2,r6
 6240 1e7c 371C      		adc r3,r7
 6241 1e7e 481C      		adc r4,r8
 6242 1e80 591C      		adc r5,r9
 6243 1e82 2192      		st Z+,r2
 6244 1e84 3192      		st Z+,r3
 6245 1e86 4192      		st Z+,r4
 6246 1e88 5192      		st Z+,r5
 6247               	.LBE889:
 6248               	.LBE888:
 6249               	.LBB890:
 6250               	.LBB891:
 6251               	.LM580:
 6252 1e8a A082      		st Z,r10
 6253 1e8c B182      		std Z+1,r11
 6254 1e8e C282      		std Z+2,r12
 6255 1e90 D382      		std Z+3,r13
 6256               	.LBE891:
 6257               	.LBE890:
 6258               	.LBB892:
 6259               	.LBB893:
 6260               	.LM581:
 6261 1e92 3597      		sbiw r30,5
 6262 1e94 9081      		ld r25,Z
 6263 1e96 892F      		mov r24,r25
 6264 1e98 8695      		lsr r24
 6265 1e9a 8F70      		andi r24,lo8(15)
 6266 1e9c 8130      		cpi r24,lo8(1)
 6267 1e9e 01F0      		breq .L294
 6268               	.LBB894:
 6269               	.LBB895:
 6270               	.LM582:
 6271 1ea0 917E      		andi r25,lo8(-31)
 6272 1ea2 9260      		ori r25,lo8(2)
 6273 1ea4 9083      		st Z,r25
 6274               	.LVL401:
 6275               	.L294:
 6276               	/* epilogue start */
 6277               	.LBE895:
 6278               	.LBE894:
 6279               	.LBE893:
 6280               	.LBE892:
 6281               	.LBE881:
 6282               	.LM583:
 6283 1ea6 0F90      		pop __tmp_reg__
 6284 1ea8 0F90      		pop __tmp_reg__
 6285 1eaa 0F90      		pop __tmp_reg__
 6286 1eac 0F90      		pop __tmp_reg__
 6287 1eae CF91      		pop r28
 6288 1eb0 DF91      		pop r29
 6289 1eb2 1F91      		pop r17
 6290 1eb4 0F91      		pop r16
 6291 1eb6 FF90      		pop r15
 6292 1eb8 EF90      		pop r14
 6293 1eba DF90      		pop r13
 6294 1ebc CF90      		pop r12
 6295               	.LVL402:
 6296 1ebe BF90      		pop r11
 6297 1ec0 AF90      		pop r10
 6298               	.LVL403:
 6299 1ec2 9F90      		pop r9
 6300 1ec4 8F90      		pop r8
 6301               	.LVL404:
 6302 1ec6 7F90      		pop r7
 6303 1ec8 6F90      		pop r6
 6304               	.LVL405:
 6305 1eca 5F90      		pop r5
 6306 1ecc 4F90      		pop r4
 6307 1ece 3F90      		pop r3
 6308 1ed0 2F90      		pop r2
 6309               	.LVL406:
 6310 1ed2 0895      		ret
 6311               	.LFE109:
 6313               	.global	Timebase_DownCounter_SS_Set_Forcefully
 6315               	Timebase_DownCounter_SS_Set_Forcefully:
 6316               	.LFB110:
 6317               	.LM584:
 6318               	.LVL407:
 6319               	/* prologue: function */
 6320               	/* frame size = 0 */
 6321               	.LBB896:
 6322               	.LBB897:
 6323               	.LBB898:
 6324               	.LBB899:
 6325               	.LM585:
 6326 1ed4 E091 0000 		lds r30,Timebase
 6327 1ed8 F091 0000 		lds r31,(Timebase)+1
 6328 1edc A82F      		mov r26,r24
 6329 1ede B0E0      		ldi r27,lo8(0)
 6330 1ee0 9D01      		movw r18,r26
 6331 1ee2 94E0      		ldi r25,4
 6332 1ee4 220F      	1:	lsl r18
 6333 1ee6 331F      		rol r19
 6334 1ee8 9A95      		dec r25
 6335 1eea 01F4      		brne 1b
 6336 1eec 2A0F      		add r18,r26
 6337 1eee 3B1F      		adc r19,r27
 6338 1ef0 E20F      		add r30,r18
 6339 1ef2 F31F      		adc r31,r19
 6340 1ef4 ED5A      		subi r30,lo8(-(83))
 6341 1ef6 FF4F      		sbci r31,hi8(-(83))
 6342 1ef8 1082      		st Z,__zero_reg__
 6343 1efa 1182      		std Z+1,__zero_reg__
 6344 1efc 1282      		std Z+2,__zero_reg__
 6345 1efe 1382      		std Z+3,__zero_reg__
 6346               	.LBE899:
 6347               	.LBE898:
 6348               	.LBB900:
 6349               	.LBB901:
 6350               	.LM586:
 6351 1f00 1292      		st -Z,__zero_reg__
 6352 1f02 1292      		st -Z,__zero_reg__
 6353 1f04 1292      		st -Z,__zero_reg__
 6354 1f06 1292      		st -Z,__zero_reg__
 6355               	.LBE901:
 6356               	.LBE900:
 6357               	.LBB902:
 6358               	.LBB903:
 6359               	.LM587:
 6360 1f08 3896      		adiw r30,8
 6361 1f0a 1082      		st Z,__zero_reg__
 6362 1f0c 1182      		std Z+1,__zero_reg__
 6363 1f0e 1282      		std Z+2,__zero_reg__
 6364 1f10 1382      		std Z+3,__zero_reg__
 6365               	.LBE903:
 6366               	.LBE902:
 6367               	.LBB904:
 6368               	.LBB905:
 6369               	.LM588:
 6370 1f12 3997      		sbiw r30,9
 6371 1f14 9081      		ld r25,Z
 6372               	.LBE905:
 6373               	.LBE904:
 6374               	.LBB906:
 6375               	.LBB907:
 6376               	.LM589:
 6377 1f16 907E      		andi r25,lo8(-32)
 6378 1f18 9083      		st Z,r25
 6379               	.LBE907:
 6380               	.LBE906:
 6381               	.LBE897:
 6382               	.LBE896:
 6383               	.LM590:
 6384 1f1a 0E94 0000 		call Timebase_DownCounter_SS_Set_Securely
 6385               	.LVL408:
 6386               	/* epilogue start */
 6387               	.LM591:
 6388 1f1e 0895      		ret
 6389               	.LFE110:
 6391               	.global	Timebase_DownCounter_SS_Update
 6393               	Timebase_DownCounter_SS_Update:
 6394               	.LFB111:
 6395               	.LM592:
 6396               	.LVL409:
 6397 1f20 2F92      		push r2
 6398 1f22 3F92      		push r3
 6399 1f24 4F92      		push r4
 6400 1f26 5F92      		push r5
 6401 1f28 6F92      		push r6
 6402 1f2a 7F92      		push r7
 6403 1f2c 8F92      		push r8
 6404 1f2e 9F92      		push r9
 6405 1f30 AF92      		push r10
 6406 1f32 BF92      		push r11
 6407 1f34 CF92      		push r12
 6408 1f36 DF92      		push r13
 6409 1f38 EF92      		push r14
 6410 1f3a FF92      		push r15
 6411 1f3c 0F93      		push r16
 6412 1f3e 1F93      		push r17
 6413 1f40 CF93      		push r28
 6414 1f42 DF93      		push r29
 6415               	/* prologue: function */
 6416               	/* frame size = 0 */
 6417               	.LBB908:
 6418               	.LBB909:
 6419               	.LM593:
 6420 1f44 C090 0000 		lds r12,Timebase
 6421 1f48 D090 0000 		lds r13,(Timebase)+1
 6422 1f4c 082F      		mov r16,r24
 6423 1f4e 10E0      		ldi r17,lo8(0)
 6424 1f50 E801      		movw r28,r16
 6425 1f52 34E0      		ldi r19,4
 6426 1f54 CC0F      	1:	lsl r28
 6427 1f56 DD1F      		rol r29
 6428 1f58 3A95      		dec r19
 6429 1f5a 01F4      		brne 1b
 6430 1f5c C00F      		add r28,r16
 6431 1f5e D11F      		adc r29,r17
 6432 1f60 CC0D      		add r28,r12
 6433 1f62 DD1D      		adc r29,r13
 6434 1f64 C25B      		subi r28,lo8(-(78))
 6435 1f66 DF4F      		sbci r29,hi8(-(78))
 6436 1f68 8881      		ld r24,Y
 6437               	.LVL410:
 6438 1f6a CE54      		subi r28,lo8(-(-78))
 6439 1f6c D040      		sbci r29,hi8(-(-78))
 6440 1f6e 8695      		lsr r24
 6441 1f70 8F70      		andi r24,lo8(15)
 6442               	.LBE909:
 6443               	.LBE908:
 6444               	.LM594:
 6445 1f72 8130      		cpi r24,lo8(1)
 6446 1f74 01F0      		breq .+2
 6447 1f76 00C0      		rjmp .L298
 6448               	.LBB910:
 6449               	.LBB911:
 6450               	.LBB912:
 6451               	.LM595:
 6452 1f78 F601      		movw r30,r12
 6453 1f7a 8085      		ldd r24,Z+8
 6454 1f7c 9185      		ldd r25,Z+9
 6455               	.LBE912:
 6456               	.LBE911:
 6457               	.LM596:
 6458 1f7e 4C01      		movw r8,r24
 6459               	.LVL411:
 6460 1f80 AA24      		clr r10
 6461 1f82 BB24      		clr r11
 6462               	.LVL412:
 6463               	.LBB913:
 6464               	.LBB914:
 6465               	.LM597:
 6466 1f84 8285      		ldd r24,Z+10
 6467 1f86 9385      		ldd r25,Z+11
 6468 1f88 A485      		ldd r26,Z+12
 6469 1f8a B585      		ldd r27,Z+13
 6470               	.LVL413:
 6471               	.LBE914:
 6472               	.LBE913:
 6473               	.LM598:
 6474 1f8c C15B      		subi r28,lo8(-(79))
 6475 1f8e DF4F      		sbci r29,hi8(-(79))
 6476 1f90 2880      		ld r2,Y
 6477 1f92 3980      		ldd r3,Y+1
 6478 1f94 4A80      		ldd r4,Y+2
 6479 1f96 5B80      		ldd r5,Y+3
 6480               	.LVL414:
 6481 1f98 281A      		sub r2,r24
 6482 1f9a 390A      		sbc r3,r25
 6483 1f9c 4A0A      		sbc r4,r26
 6484 1f9e 5B0A      		sbc r5,r27
 6485 1fa0 57FE      		sbrs r5,7
 6486 1fa2 00C0      		rjmp .L299
 6487 1fa4 2224      		clr r2
 6488 1fa6 3324      		clr r3
 6489 1fa8 2101      		movw r4,r2
 6490               	.L299:
 6491               	.LM599:
 6492 1faa F601      		movw r30,r12
 6493 1fac 2181      		ldd r18,Z+1
 6494 1fae 3281      		ldd r19,Z+2
 6495 1fb0 40E0      		ldi r20,lo8(0)
 6496 1fb2 50E0      		ldi r21,hi8(0)
 6497 1fb4 C201      		movw r24,r4
 6498 1fb6 B101      		movw r22,r2
 6499 1fb8 0E94 0000 		call __mulsi3
 6500               	.LM600:
 6501 1fbc F801      		movw r30,r16
 6502 1fbe 24E0      		ldi r18,4
 6503 1fc0 EE0F      	1:	lsl r30
 6504 1fc2 FF1F      		rol r31
 6505 1fc4 2A95      		dec r18
 6506 1fc6 01F4      		brne 1b
 6507 1fc8 E00F      		add r30,r16
 6508 1fca F11F      		adc r31,r17
 6509 1fcc EC0D      		add r30,r12
 6510 1fce FD1D      		adc r31,r13
 6511 1fd0 EF01      		movw r28,r30
 6512 1fd2 CD5A      		subi r28,lo8(-(83))
 6513 1fd4 DF4F      		sbci r29,hi8(-(83))
 6514 1fd6 2881      		ld r18,Y
 6515 1fd8 3981      		ldd r19,Y+1
 6516 1fda 4A81      		ldd r20,Y+2
 6517 1fdc 5B81      		ldd r21,Y+3
 6518               	.LVL415:
 6519 1fde 2819      		sub r18,r8
 6520 1fe0 3909      		sbc r19,r9
 6521 1fe2 4A09      		sbc r20,r10
 6522 1fe4 5B09      		sbc r21,r11
 6523 1fe6 260F      		add r18,r22
 6524 1fe8 371F      		adc r19,r23
 6525 1fea 481F      		adc r20,r24
 6526 1fec 591F      		adc r21,r25
 6527               	.LBB915:
 6528               	.LBB916:
 6529               	.LM601:
 6530 1fee DF01      		movw r26,r30
 6531 1ff0 A95A      		subi r26,lo8(-(87))
 6532 1ff2 BF4F      		sbci r27,hi8(-(87))
 6533 1ff4 2D93      		st X+,r18
 6534 1ff6 3D93      		st X+,r19
 6535 1ff8 4D93      		st X+,r20
 6536 1ffa 5C93      		st X,r21
 6537 1ffc 1397      		sbiw r26,3
 6538               	.LBE916:
 6539               	.LBE915:
 6540               	.LM602:
 6541 1ffe 1216      		cp __zero_reg__,r18
 6542 2000 1306      		cpc __zero_reg__,r19
 6543 2002 1406      		cpc __zero_reg__,r20
 6544 2004 1506      		cpc __zero_reg__,r21
 6545 2006 04F4      		brge .+2
 6546 2008 00C0      		rjmp .L301
 6547               	.LBB917:
 6548               	.LBB918:
 6549               	.LBB919:
 6550               	.LBB920:
 6551               	.LM603:
 6552 200a 1882      		st Y,__zero_reg__
 6553 200c 1982      		std Y+1,__zero_reg__
 6554 200e 1A82      		std Y+2,__zero_reg__
 6555 2010 1B82      		std Y+3,__zero_reg__
 6556               	.LBE920:
 6557               	.LBE919:
 6558               	.LBB921:
 6559               	.LBB922:
 6560               	.LM604:
 6561 2012 E15B      		subi r30,lo8(-(79))
 6562 2014 FF4F      		sbci r31,hi8(-(79))
 6563 2016 1082      		st Z,__zero_reg__
 6564 2018 1182      		std Z+1,__zero_reg__
 6565 201a 1282      		std Z+2,__zero_reg__
 6566 201c 1382      		std Z+3,__zero_reg__
 6567               	.LBE922:
 6568               	.LBE921:
 6569               	.LBB923:
 6570               	.LBB924:
 6571               	.LM605:
 6572 201e 1D92      		st X+,__zero_reg__
 6573 2020 1D92      		st X+,__zero_reg__
 6574 2022 1D92      		st X+,__zero_reg__
 6575 2024 1C92      		st X,__zero_reg__
 6576 2026 1397      		sbiw r26,3
 6577               	.LBE924:
 6578               	.LBE923:
 6579               	.LBB925:
 6580               	.LBB926:
 6581               	.LM606:
 6582 2028 8291      		ld r24,-Z
 6583               	.LBE926:
 6584               	.LBE925:
 6585               	.LBE918:
 6586               	.LBE917:
 6587               	.LBB927:
 6588               	.LBB928:
 6589               	.LM607:
 6590 202a 807E      		andi r24,lo8(-32)
 6591 202c 8860      		ori r24,lo8(8)
 6592 202e 8083      		st Z,r24
 6593 2030 00C0      		rjmp .L301
 6594               	.LVL416:
 6595               	.L298:
 6596               	.LBE928:
 6597               	.LBE927:
 6598               	.LBE910:
 6599               	.LM608:
 6600 2032 8230      		cpi r24,lo8(2)
 6601 2034 01F4      		brne .L301
 6602               	.LBB929:
 6603               	.LBB930:
 6604               	.LBB931:
 6605               	.LM609:
 6606 2036 F601      		movw r30,r12
 6607 2038 6084      		ldd r6,Z+8
 6608 203a 7184      		ldd r7,Z+9
 6609               	.LBE931:
 6610               	.LBE930:
 6611               	.LBB932:
 6612               	.LBB933:
 6613               	.LM610:
 6614 203c E284      		ldd r14,Z+10
 6615 203e F384      		ldd r15,Z+11
 6616 2040 0485      		ldd r16,Z+12
 6617 2042 1585      		ldd r17,Z+13
 6618               	.LVL417:
 6619               	.LBE933:
 6620               	.LBE932:
 6621               	.LBB934:
 6622               	.LBB935:
 6623               	.LM611:
 6624 2044 C95A      		subi r28,lo8(-(87))
 6625 2046 DF4F      		sbci r29,hi8(-(87))
 6626 2048 2880      		ld r2,Y
 6627 204a 3980      		ldd r3,Y+1
 6628 204c 4A80      		ldd r4,Y+2
 6629 204e 5B80      		ldd r5,Y+3
 6630               	.LVL418:
 6631               	.LBE935:
 6632               	.LBE934:
 6633               	.LM612:
 6634 2050 2181      		ldd r18,Z+1
 6635 2052 3281      		ldd r19,Z+2
 6636               	.LM613:
 6637 2054 A180      		ldd r10,Z+1
 6638 2056 B280      		ldd r11,Z+2
 6639               	.LBB936:
 6640               	.LBB937:
 6641               	.LM614:
 6642 2058 2897      		sbiw r28,8
 6643 205a 40E0      		ldi r20,lo8(0)
 6644 205c 50E0      		ldi r21,hi8(0)
 6645 205e C201      		movw r24,r4
 6646 2060 B101      		movw r22,r2
 6647 2062 0E94 0000 		call __divmodsi4
 6648 2066 E20E      		add r14,r18
 6649 2068 F31E      		adc r15,r19
 6650 206a 041F      		adc r16,r20
 6651 206c 151F      		adc r17,r21
 6652 206e E992      		st Y+,r14
 6653 2070 F992      		st Y+,r15
 6654 2072 0993      		st Y+,r16
 6655 2074 1993      		st Y+,r17
 6656               	.LBE937:
 6657               	.LBE936:
 6658               	.LBB938:
 6659               	.LBB939:
 6660               	.LM615:
 6661 2076 CC24      		clr r12
 6662 2078 DD24      		clr r13
 6663 207a C201      		movw r24,r4
 6664 207c B101      		movw r22,r2
 6665 207e A601      		movw r20,r12
 6666 2080 9501      		movw r18,r10
 6667 2082 0E94 0000 		call __divmodsi4
 6668 2086 8824      		clr r8
 6669 2088 9924      		clr r9
 6670 208a 660E      		add r6,r22
 6671 208c 771E      		adc r7,r23
 6672 208e 881E      		adc r8,r24
 6673 2090 991E      		adc r9,r25
 6674 2092 6882      		st Y,r6
 6675 2094 7982      		std Y+1,r7
 6676 2096 8A82      		std Y+2,r8
 6677 2098 9B82      		std Y+3,r9
 6678               	.LVL419:
 6679               	.L301:
 6680               	/* epilogue start */
 6681               	.LBE939:
 6682               	.LBE938:
 6683               	.LBE929:
 6684               	.LM616:
 6685 209a DF91      		pop r29
 6686 209c CF91      		pop r28
 6687 209e 1F91      		pop r17
 6688 20a0 0F91      		pop r16
 6689 20a2 FF90      		pop r15
 6690 20a4 EF90      		pop r14
 6691               	.LVL420:
 6692 20a6 DF90      		pop r13
 6693 20a8 CF90      		pop r12
 6694 20aa BF90      		pop r11
 6695 20ac AF90      		pop r10
 6696               	.LVL421:
 6697 20ae 9F90      		pop r9
 6698 20b0 8F90      		pop r8
 6699               	.LVL422:
 6700 20b2 7F90      		pop r7
 6701 20b4 6F90      		pop r6
 6702 20b6 5F90      		pop r5
 6703 20b8 4F90      		pop r4
 6704 20ba 3F90      		pop r3
 6705 20bc 2F90      		pop r2
 6706               	.LVL423:
 6707 20be 0895      		ret
 6708               	.LFE111:
 6710               	.global	Timebase_DownCounter_SS_Expired
 6712               	Timebase_DownCounter_SS_Expired:
 6713               	.LFB112:
 6714               	.LM617:
 6715               	.LVL424:
 6716               	/* prologue: function */
 6717               	/* frame size = 0 */
 6718               	.LM618:
 6719 20c0 40E0      		ldi r20,lo8(0)
 6720 20c2 E091 0000 		lds r30,Timebase
 6721 20c6 F091 0000 		lds r31,(Timebase)+1
 6722 20ca 90E0      		ldi r25,lo8(0)
 6723               	.LVL425:
 6724 20cc 9C01      		movw r18,r24
 6725 20ce 54E0      		ldi r21,4
 6726 20d0 220F      	1:	lsl r18
 6727 20d2 331F      		rol r19
 6728 20d4 5A95      		dec r21
 6729 20d6 01F4      		brne 1b
 6730 20d8 280F      		add r18,r24
 6731 20da 391F      		adc r19,r25
 6732 20dc E20F      		add r30,r18
 6733 20de F31F      		adc r31,r19
 6734 20e0 E25B      		subi r30,lo8(-(78))
 6735 20e2 FF4F      		sbci r31,hi8(-(78))
 6736 20e4 8081      		ld r24,Z
 6737               	.LVL426:
 6738 20e6 8695      		lsr r24
 6739 20e8 8F70      		andi r24,lo8(15)
 6740 20ea 8430      		cpi r24,lo8(4)
 6741 20ec 01F4      		brne .L303
 6742 20ee 41E0      		ldi r20,lo8(1)
 6743               	.L303:
 6744               	.LM619:
 6745 20f0 842F      		mov r24,r20
 6746               	/* epilogue start */
 6747 20f2 0895      		ret
 6748               	.LFE112:
 6750               	.global	Timebase_DownCounter_SS_Expired_Event
 6752               	Timebase_DownCounter_SS_Expired_Event:
 6753               	.LFB113:
 6754               	.LM620:
 6755               	.LVL427:
 6756               	/* prologue: function */
 6757               	/* frame size = 0 */
 6758               	.LBB940:
 6759               	.LBB941:
 6760               	.LM621:
 6761 20f4 E091 0000 		lds r30,Timebase
 6762 20f8 F091 0000 		lds r31,(Timebase)+1
 6763 20fc 90E0      		ldi r25,lo8(0)
 6764               	.LBE941:
 6765               	.LBE940:
 6766               	.LM622:
 6767 20fe 9C01      		movw r18,r24
 6768               	.LVL428:
 6769 2100 64E0      		ldi r22,4
 6770 2102 220F      	1:	lsl r18
 6771 2104 331F      		rol r19
 6772 2106 6A95      		dec r22
 6773 2108 01F4      		brne 1b
 6774 210a 280F      		add r18,r24
 6775 210c 391F      		adc r19,r25
 6776 210e E20F      		add r30,r18
 6777 2110 F31F      		adc r31,r19
 6778 2112 DF01      		movw r26,r30
 6779 2114 A25B      		subi r26,lo8(-(78))
 6780 2116 BF4F      		sbci r27,hi8(-(78))
 6781 2118 8C91      		ld r24,X
 6782 211a 8695      		lsr r24
 6783 211c 8F70      		andi r24,lo8(15)
 6784 211e 8430      		cpi r24,lo8(4)
 6785 2120 01F0      		breq .L306
 6786 2122 80E0      		ldi r24,lo8(0)
 6787 2124 0895      		ret
 6788               	.L306:
 6789               	.LBB942:
 6790               	.LBB943:
 6791               	.LBB944:
 6792               	.LBB945:
 6793               	.LBB946:
 6794               	.LBB947:
 6795               	.LM623:
 6796 2126 ED5A      		subi r30,lo8(-(83))
 6797 2128 FF4F      		sbci r31,hi8(-(83))
 6798 212a 1082      		st Z,__zero_reg__
 6799 212c 1182      		std Z+1,__zero_reg__
 6800 212e 1282      		std Z+2,__zero_reg__
 6801 2130 1382      		std Z+3,__zero_reg__
 6802               	.LBE947:
 6803               	.LBE946:
 6804               	.LBB948:
 6805               	.LBB949:
 6806               	.LM624:
 6807 2132 1292      		st -Z,__zero_reg__
 6808 2134 1292      		st -Z,__zero_reg__
 6809 2136 1292      		st -Z,__zero_reg__
 6810 2138 1292      		st -Z,__zero_reg__
 6811               	.LBE949:
 6812               	.LBE948:
 6813               	.LBB950:
 6814               	.LBB951:
 6815               	.LM625:
 6816 213a 3896      		adiw r30,8
 6817 213c 1082      		st Z,__zero_reg__
 6818 213e 1182      		std Z+1,__zero_reg__
 6819 2140 1282      		std Z+2,__zero_reg__
 6820 2142 1382      		std Z+3,__zero_reg__
 6821               	.LBE951:
 6822               	.LBE950:
 6823               	.LBB952:
 6824               	.LBB953:
 6825               	.LM626:
 6826 2144 8C91      		ld r24,X
 6827               	.LBE953:
 6828               	.LBE952:
 6829               	.LBB954:
 6830               	.LBB955:
 6831               	.LM627:
 6832 2146 807E      		andi r24,lo8(-32)
 6833 2148 8C93      		st X,r24
 6834 214a 81E0      		ldi r24,lo8(1)
 6835               	.LBE955:
 6836               	.LBE954:
 6837               	.LBE945:
 6838               	.LBE944:
 6839               	.LBE943:
 6840               	.LBE942:
 6841               	.LM628:
 6842 214c 0895      		ret
 6843               	.LFE113:
 6845               	.global	Timebase_DownCounter_SS_Set_Period_Value_Securely
 6847               	Timebase_DownCounter_SS_Set_Period_Value_Securely:
 6848               	.LFB114:
 6849               	.LM629:
 6850               	.LVL429:
 6851 214e CF93      		push r28
 6852 2150 DF93      		push r29
 6853               	/* prologue: function */
 6854               	/* frame size = 0 */
 6855               	.LBB956:
 6856               	.LBB957:
 6857               	.LM630:
 6858 2152 C091 0000 		lds r28,Timebase
 6859 2156 D091 0000 		lds r29,(Timebase)+1
 6860 215a 282F      		mov r18,r24
 6861 215c 30E0      		ldi r19,lo8(0)
 6862               	.LBE957:
 6863               	.LBE956:
 6864               	.LM631:
 6865 215e F901      		movw r30,r18
 6866 2160 A4E0      		ldi r26,4
 6867 2162 EE0F      	1:	lsl r30
 6868 2164 FF1F      		rol r31
 6869 2166 AA95      		dec r26
 6870 2168 01F4      		brne 1b
 6871 216a E20F      		add r30,r18
 6872 216c F31F      		adc r31,r19
 6873 216e EC0F      		add r30,r28
 6874 2170 FD1F      		adc r31,r29
 6875 2172 E25B      		subi r30,lo8(-(78))
 6876 2174 FF4F      		sbci r31,hi8(-(78))
 6877 2176 8081      		ld r24,Z
 6878               	.LVL430:
 6879 2178 EE54      		subi r30,lo8(-(-78))
 6880 217a F040      		sbci r31,hi8(-(-78))
 6881 217c 80FD      		sbrc r24,0
 6882 217e 00C0      		rjmp .L313
 6883               	.LM632:
 6884 2180 E95A      		subi r30,lo8(-(87))
 6885 2182 FF4F      		sbci r31,hi8(-(87))
 6886 2184 8191      		ld r24,Z+
 6887 2186 9191      		ld r25,Z+
 6888 2188 A191      		ld r26,Z+
 6889 218a B191      		ld r27,Z+
 6890 218c 841B      		sub r24,r20
 6891 218e 950B      		sbc r25,r21
 6892 2190 A60B      		sbc r26,r22
 6893 2192 B70B      		sbc r27,r23
 6894               	.LBB958:
 6895               	.LBB959:
 6896               	.LM633:
 6897 2194 B7FF      		sbrs r27,7
 6898 2196 00C0      		rjmp .L311
 6899               	.LM634:
 6900 2198 1082      		st Z,__zero_reg__
 6901 219a 1182      		std Z+1,__zero_reg__
 6902 219c 1282      		std Z+2,__zero_reg__
 6903 219e 1382      		std Z+3,__zero_reg__
 6904 21a0 00C0      		rjmp .L312
 6905               	.L311:
 6906               	.LM635:
 6907 21a2 8083      		st Z,r24
 6908 21a4 9183      		std Z+1,r25
 6909 21a6 A283      		std Z+2,r26
 6910 21a8 B383      		std Z+3,r27
 6911               	.L312:
 6912               	.LBE959:
 6913               	.LBE958:
 6914               	.LBB960:
 6915               	.LBB961:
 6916               	.LM636:
 6917 21aa F901      		movw r30,r18
 6918 21ac 74E0      		ldi r23,4
 6919 21ae EE0F      	1:	lsl r30
 6920 21b0 FF1F      		rol r31
 6921 21b2 7A95      		dec r23
 6922 21b4 01F4      		brne 1b
 6923 21b6 E20F      		add r30,r18
 6924 21b8 F31F      		adc r31,r19
 6925 21ba EC0F      		add r30,r28
 6926 21bc FD1F      		adc r31,r29
 6927 21be E25B      		subi r30,lo8(-(78))
 6928 21c0 FF4F      		sbci r31,hi8(-(78))
 6929 21c2 8081      		ld r24,Z
 6930 21c4 8160      		ori r24,lo8(1)
 6931 21c6 8083      		st Z,r24
 6932               	.L313:
 6933               	/* epilogue start */
 6934               	.LBE961:
 6935               	.LBE960:
 6936               	.LM637:
 6937 21c8 DF91      		pop r29
 6938 21ca CF91      		pop r28
 6939 21cc 0895      		ret
 6940               	.LFE114:
 6942               	.global	Timebase_DownCounter_SS_Get_Remaining_Period_Value
 6944               	Timebase_DownCounter_SS_Get_Remaining_Period_Value:
 6945               	.LFB115:
 6946               	.LM638:
 6947               	.LVL431:
 6948               	/* prologue: function */
 6949               	/* frame size = 0 */
 6950               	.LBB962:
 6951               	.LBB963:
 6952               	.LM639:
 6953 21ce E091 0000 		lds r30,Timebase
 6954 21d2 F091 0000 		lds r31,(Timebase)+1
 6955 21d6 90E0      		ldi r25,lo8(0)
 6956               	.LBE963:
 6957               	.LBE962:
 6958               	.LM640:
 6959 21d8 9C01      		movw r18,r24
 6960               	.LVL432:
 6961 21da B4E0      		ldi r27,4
 6962 21dc 220F      	1:	lsl r18
 6963 21de 331F      		rol r19
 6964 21e0 BA95      		dec r27
 6965 21e2 01F4      		brne 1b
 6966 21e4 280F      		add r18,r24
 6967 21e6 391F      		adc r19,r25
 6968 21e8 E20F      		add r30,r18
 6969 21ea F31F      		adc r31,r19
 6970 21ec DF01      		movw r26,r30
 6971 21ee A55A      		subi r26,lo8(-(91))
 6972 21f0 BF4F      		sbci r27,hi8(-(91))
 6973 21f2 E95A      		subi r30,lo8(-(87))
 6974 21f4 FF4F      		sbci r31,hi8(-(87))
 6975 21f6 2081      		ld r18,Z
 6976 21f8 3181      		ldd r19,Z+1
 6977 21fa 4281      		ldd r20,Z+2
 6978 21fc 5381      		ldd r21,Z+3
 6979               	.LVL433:
 6980 21fe 8D91      		ld r24,X+
 6981 2200 9D91      		ld r25,X+
 6982 2202 0D90      		ld __tmp_reg__,X+
 6983 2204 BC91      		ld r27,X
 6984 2206 A02D      		mov r26,__tmp_reg__
 6985 2208 281B      		sub r18,r24
 6986 220a 390B      		sbc r19,r25
 6987 220c 4A0B      		sbc r20,r26
 6988 220e 5B0B      		sbc r21,r27
 6989 2210 57FF      		sbrs r21,7
 6990 2212 00C0      		rjmp .L315
 6991 2214 20E0      		ldi r18,lo8(0)
 6992 2216 30E0      		ldi r19,hi8(0)
 6993 2218 40E0      		ldi r20,hlo8(0)
 6994 221a 50E0      		ldi r21,hhi8(0)
 6995               	.L315:
 6996               	.LM641:
 6997 221c B901      		movw r22,r18
 6998               	.LVL434:
 6999 221e CA01      		movw r24,r20
 7000               	/* epilogue start */
 7001 2220 0895      		ret
 7002               	.LFE115:
 7004               	.global	Timebase_DownCounter_SS_Period_Value_Expired
 7006               	Timebase_DownCounter_SS_Period_Value_Expired:
 7007               	.LFB116:
 7008               	.LM642:
 7009               	.LVL435:
 7010 2222 CF93      		push r28
 7011 2224 DF93      		push r29
 7012               	/* prologue: function */
 7013               	/* frame size = 0 */
 7014               	.LBB964:
 7015               	.LBB965:
 7016               	.LBB966:
 7017               	.LBB967:
 7018               	.LM643:
 7019 2226 C091 0000 		lds r28,Timebase
 7020 222a D091 0000 		lds r29,(Timebase)+1
 7021 222e 682F      		mov r22,r24
 7022 2230 70E0      		ldi r23,lo8(0)
 7023               	.LBE967:
 7024               	.LBE966:
 7025               	.LM644:
 7026 2232 FB01      		movw r30,r22
 7027 2234 44E0      		ldi r20,4
 7028 2236 EE0F      	1:	lsl r30
 7029 2238 FF1F      		rol r31
 7030 223a 4A95      		dec r20
 7031 223c 01F4      		brne 1b
 7032 223e E60F      		add r30,r22
 7033 2240 F71F      		adc r31,r23
 7034 2242 EC0F      		add r30,r28
 7035 2244 FD1F      		adc r31,r29
 7036 2246 DF01      		movw r26,r30
 7037 2248 A55A      		subi r26,lo8(-(91))
 7038 224a BF4F      		sbci r27,hi8(-(91))
 7039 224c E95A      		subi r30,lo8(-(87))
 7040 224e FF4F      		sbci r31,hi8(-(87))
 7041 2250 2081      		ld r18,Z
 7042 2252 3181      		ldd r19,Z+1
 7043 2254 4281      		ldd r20,Z+2
 7044 2256 5381      		ldd r21,Z+3
 7045               	.LVL436:
 7046 2258 8D91      		ld r24,X+
 7047 225a 9D91      		ld r25,X+
 7048 225c 0D90      		ld __tmp_reg__,X+
 7049 225e BC91      		ld r27,X
 7050 2260 A02D      		mov r26,__tmp_reg__
 7051               	.LVL437:
 7052 2262 281B      		sub r18,r24
 7053 2264 390B      		sbc r19,r25
 7054 2266 4A0B      		sbc r20,r26
 7055 2268 5B0B      		sbc r21,r27
 7056               	.LM645:
 7057 226a 57FD      		sbrc r21,7
 7058 226c 00C0      		rjmp .L318
 7059               	.LBE965:
 7060               	.LBE964:
 7061               	.LM646:
 7062 226e 2115      		cp r18,__zero_reg__
 7063 2270 3105      		cpc r19,__zero_reg__
 7064 2272 4105      		cpc r20,__zero_reg__
 7065 2274 5105      		cpc r21,__zero_reg__
 7066 2276 01F0      		breq .L318
 7067 2278 20E0      		ldi r18,lo8(0)
 7068               	.LVL438:
 7069 227a 00C0      		rjmp .L319
 7070               	.LVL439:
 7071               	.L318:
 7072 227c 20E0      		ldi r18,lo8(0)
 7073               	.LVL440:
 7074 227e CB01      		movw r24,r22
 7075 2280 34E0      		ldi r19,4
 7076 2282 880F      	1:	lsl r24
 7077 2284 991F      		rol r25
 7078 2286 3A95      		dec r19
 7079 2288 01F4      		brne 1b
 7080 228a 860F      		add r24,r22
 7081 228c 971F      		adc r25,r23
 7082 228e C80F      		add r28,r24
 7083 2290 D91F      		adc r29,r25
 7084 2292 C25B      		subi r28,lo8(-(78))
 7085 2294 DF4F      		sbci r29,hi8(-(78))
 7086 2296 8881      		ld r24,Y
 7087 2298 80FF      		sbrs r24,0
 7088 229a 21E0      		ldi r18,lo8(1)
 7089               	.L320:
 7090 229c 81E0      		ldi r24,lo8(1)
 7091 229e 2827      		eor r18,r24
 7092               	.L319:
 7093               	.LM647:
 7094 22a0 822F      		mov r24,r18
 7095               	/* epilogue start */
 7096 22a2 DF91      		pop r29
 7097 22a4 CF91      		pop r28
 7098 22a6 0895      		ret
 7099               	.LFE116:
 7101               	.global	Timebase_DownCounter_SS_Period_Value_Expired_Event
 7103               	Timebase_DownCounter_SS_Period_Value_Expired_Event:
 7104               	.LFB117:
 7105               	.LM648:
 7106               	.LVL441:
 7107 22a8 1F93      		push r17
 7108               	/* prologue: function */
 7109               	/* frame size = 0 */
 7110 22aa 182F      		mov r17,r24
 7111               	.LM649:
 7112 22ac 0E94 0000 		call Timebase_DownCounter_SS_Period_Value_Expired
 7113               	.LVL442:
 7114 22b0 8130      		cpi r24,lo8(1)
 7115 22b2 01F0      		breq .L323
 7116 22b4 80E0      		ldi r24,lo8(0)
 7117 22b6 00C0      		rjmp .L324
 7118               	.L323:
 7119               	.LBB968:
 7120               	.LBB969:
 7121               	.LM650:
 7122 22b8 E091 0000 		lds r30,Timebase
 7123 22bc F091 0000 		lds r31,(Timebase)+1
 7124 22c0 212F      		mov r18,r17
 7125 22c2 30E0      		ldi r19,lo8(0)
 7126               	.LVL443:
 7127 22c4 C901      		movw r24,r18
 7128 22c6 54E0      		ldi r21,4
 7129 22c8 880F      	1:	lsl r24
 7130 22ca 991F      		rol r25
 7131 22cc 5A95      		dec r21
 7132 22ce 01F4      		brne 1b
 7133 22d0 820F      		add r24,r18
 7134 22d2 931F      		adc r25,r19
 7135 22d4 E80F      		add r30,r24
 7136 22d6 F91F      		adc r31,r25
 7137 22d8 E25B      		subi r30,lo8(-(78))
 7138 22da FF4F      		sbci r31,hi8(-(78))
 7139 22dc 8081      		ld r24,Z
 7140 22de 8E7F      		andi r24,lo8(-2)
 7141 22e0 8083      		st Z,r24
 7142 22e2 81E0      		ldi r24,lo8(1)
 7143               	.L324:
 7144               	/* epilogue start */
 7145               	.LBE969:
 7146               	.LBE968:
 7147               	.LM651:
 7148 22e4 1F91      		pop r17
 7149               	.LVL444:
 7150 22e6 0895      		ret
 7151               	.LFE117:
 7153               	.global	Timebase_DownCounter_SS_Update_All
 7155               	Timebase_DownCounter_SS_Update_All:
 7156               	.LFB118:
 7157               	.LM652:
 7158               	/* prologue: function */
 7159               	/* frame size = 0 */
 7160               	.LBB970:
 7161               	.LM653:
 7162 22e8 80E0      		ldi r24,lo8(0)
 7163 22ea 0E94 0000 		call Timebase_DownCounter_SS_Update
 7164               	/* epilogue start */
 7165               	.LBE970:
 7166               	.LM654:
 7167 22ee 0895      		ret
 7168               	.LFE118:
 7170               	.global	Timebase_DownCounter_SS_Reset_All
 7172               	Timebase_DownCounter_SS_Reset_All:
 7173               	.LFB119:
 7174               	.LM655:
 7175               	/* prologue: function */
 7176               	/* frame size = 0 */
 7177               	.LBB971:
 7178               	.LBB972:
 7179               	.LBB973:
 7180               	.LBB974:
 7181               	.LBB975:
 7182               	.LM656:
 7183 22f0 E091 0000 		lds r30,Timebase
 7184 22f4 F091 0000 		lds r31,(Timebase)+1
 7185 22f8 ED5A      		subi r30,lo8(-(83))
 7186 22fa FF4F      		sbci r31,hi8(-(83))
 7187 22fc 1082      		st Z,__zero_reg__
 7188 22fe 1182      		std Z+1,__zero_reg__
 7189 2300 1282      		std Z+2,__zero_reg__
 7190 2302 1382      		std Z+3,__zero_reg__
 7191               	.LBE975:
 7192               	.LBE974:
 7193               	.LBB976:
 7194               	.LBB977:
 7195               	.LM657:
 7196 2304 1292      		st -Z,__zero_reg__
 7197 2306 1292      		st -Z,__zero_reg__
 7198 2308 1292      		st -Z,__zero_reg__
 7199 230a 1292      		st -Z,__zero_reg__
 7200               	.LBE977:
 7201               	.LBE976:
 7202               	.LBB978:
 7203               	.LBB979:
 7204               	.LM658:
 7205 230c 3896      		adiw r30,8
 7206 230e 1082      		st Z,__zero_reg__
 7207 2310 1182      		std Z+1,__zero_reg__
 7208 2312 1282      		std Z+2,__zero_reg__
 7209 2314 1382      		std Z+3,__zero_reg__
 7210               	.LBE979:
 7211               	.LBE978:
 7212               	.LBB980:
 7213               	.LBB981:
 7214               	.LM659:
 7215 2316 3997      		sbiw r30,9
 7216 2318 8081      		ld r24,Z
 7217               	.LBE981:
 7218               	.LBE980:
 7219               	.LBB982:
 7220               	.LBB983:
 7221               	.LM660:
 7222 231a 807E      		andi r24,lo8(-32)
 7223 231c 8083      		st Z,r24
 7224               	/* epilogue start */
 7225               	.LBE983:
 7226               	.LBE982:
 7227               	.LBE973:
 7228               	.LBE972:
 7229               	.LBE971:
 7230               	.LM661:
 7231 231e 0895      		ret
 7232               	.LFE119:
 7234               	.global	Timebase_DownCounter_Get_Status
 7236               	Timebase_DownCounter_Get_Status:
 7237               	.LFB120:
 7238               	.LM662:
 7239               	.LVL445:
 7240               	/* prologue: function */
 7241               	/* frame size = 0 */
 7242               	.LM663:
 7243 2320 E091 0000 		lds r30,Timebase
 7244 2324 F091 0000 		lds r31,(Timebase)+1
 7245 2328 90E0      		ldi r25,lo8(0)
 7246               	.LVL446:
 7247 232a 2DE0      		ldi r18,lo8(13)
 7248 232c 30E0      		ldi r19,hi8(13)
 7249 232e AC01      		movw r20,r24
 7250 2330 429F      		mul r20,r18
 7251 2332 C001      		movw r24,r0
 7252 2334 439F      		mul r20,r19
 7253 2336 900D      		add r25,r0
 7254 2338 529F      		mul r21,r18
 7255 233a 900D      		add r25,r0
 7256 233c 1124      		clr r1
 7257               	.LVL447:
 7258 233e E80F      		add r30,r24
 7259 2340 F91F      		adc r31,r25
 7260 2342 E15A      		subi r30,lo8(-(95))
 7261 2344 FF4F      		sbci r31,hi8(-(95))
 7262 2346 8081      		ld r24,Z
 7263 2348 8695      		lsr r24
 7264               	.LM664:
 7265 234a 8F70      		andi r24,lo8(15)
 7266               	/* epilogue start */
 7267 234c 0895      		ret
 7268               	.LFE120:
 7270               	.global	Timebase_DownCounter_Set_Status
 7272               	Timebase_DownCounter_Set_Status:
 7273               	.LFB121:
 7274               	.LM665:
 7275               	.LVL448:
 7276               	/* prologue: function */
 7277               	/* frame size = 0 */
 7278               	.LM666:
 7279 234e E091 0000 		lds r30,Timebase
 7280 2352 F091 0000 		lds r31,(Timebase)+1
 7281 2356 90E0      		ldi r25,lo8(0)
 7282               	.LVL449:
 7283 2358 2DE0      		ldi r18,lo8(13)
 7284 235a 30E0      		ldi r19,hi8(13)
 7285 235c AC01      		movw r20,r24
 7286 235e 429F      		mul r20,r18
 7287 2360 C001      		movw r24,r0
 7288 2362 439F      		mul r20,r19
 7289 2364 900D      		add r25,r0
 7290 2366 529F      		mul r21,r18
 7291 2368 900D      		add r25,r0
 7292 236a 1124      		clr r1
 7293               	.LVL450:
 7294 236c E80F      		add r30,r24
 7295 236e F91F      		adc r31,r25
 7296 2370 E15A      		subi r30,lo8(-(95))
 7297 2372 FF4F      		sbci r31,hi8(-(95))
 7298 2374 6F70      		andi r22,lo8(15)
 7299               	.LVL451:
 7300 2376 660F      		lsl r22
 7301 2378 8081      		ld r24,Z
 7302 237a 817E      		andi r24,lo8(-31)
 7303 237c 862B      		or r24,r22
 7304 237e 8083      		st Z,r24
 7305               	/* epilogue start */
 7306               	.LM667:
 7307 2380 0895      		ret
 7308               	.LFE121:
 7310               	.global	Timebase_DownCounter_Get_Value
 7312               	Timebase_DownCounter_Get_Value:
 7313               	.LFB122:
 7314               	.LM668:
 7315               	.LVL452:
 7316               	/* prologue: function */
 7317               	/* frame size = 0 */
 7318               	.LM669:
 7319 2382 E091 0000 		lds r30,Timebase
 7320 2386 F091 0000 		lds r31,(Timebase)+1
 7321 238a 90E0      		ldi r25,lo8(0)
 7322               	.LVL453:
 7323 238c 2DE0      		ldi r18,lo8(13)
 7324 238e 30E0      		ldi r19,hi8(13)
 7325 2390 AC01      		movw r20,r24
 7326 2392 429F      		mul r20,r18
 7327 2394 C001      		movw r24,r0
 7328 2396 439F      		mul r20,r19
 7329 2398 900D      		add r25,r0
 7330 239a 529F      		mul r21,r18
 7331 239c 900D      		add r25,r0
 7332 239e 1124      		clr r1
 7333               	.LVL454:
 7334 23a0 E80F      		add r30,r24
 7335 23a2 F91F      		adc r31,r25
 7336 23a4 EC59      		subi r30,lo8(-(100))
 7337 23a6 FF4F      		sbci r31,hi8(-(100))
 7338 23a8 6081      		ld r22,Z
 7339 23aa 7181      		ldd r23,Z+1
 7340               	.LM670:
 7341 23ac 8281      		ldd r24,Z+2
 7342 23ae 9381      		ldd r25,Z+3
 7343               	.LVL455:
 7344               	/* epilogue start */
 7345 23b0 0895      		ret
 7346               	.LFE122:
 7348               	.global	Timebase_DownCounter_Set_Value
 7350               	Timebase_DownCounter_Set_Value:
 7351               	.LFB123:
 7352               	.LM671:
 7353               	.LVL456:
 7354               	/* prologue: function */
 7355               	/* frame size = 0 */
 7356               	.LM672:
 7357 23b2 E091 0000 		lds r30,Timebase
 7358 23b6 F091 0000 		lds r31,(Timebase)+1
 7359 23ba 90E0      		ldi r25,lo8(0)
 7360               	.LVL457:
 7361 23bc 2DE0      		ldi r18,lo8(13)
 7362 23be 30E0      		ldi r19,hi8(13)
 7363 23c0 DC01      		movw r26,r24
 7364 23c2 A29F      		mul r26,r18
 7365 23c4 C001      		movw r24,r0
 7366 23c6 A39F      		mul r26,r19
 7367 23c8 900D      		add r25,r0
 7368 23ca B29F      		mul r27,r18
 7369 23cc 900D      		add r25,r0
 7370 23ce 1124      		clr r1
 7371               	.LVL458:
 7372 23d0 E80F      		add r30,r24
 7373 23d2 F91F      		adc r31,r25
 7374 23d4 EC59      		subi r30,lo8(-(100))
 7375 23d6 FF4F      		sbci r31,hi8(-(100))
 7376 23d8 4083      		st Z,r20
 7377 23da 5183      		std Z+1,r21
 7378 23dc 6283      		std Z+2,r22
 7379 23de 7383      		std Z+3,r23
 7380               	/* epilogue start */
 7381               	.LM673:
 7382 23e0 0895      		ret
 7383               	.LFE123:
 7385               	.global	Timebase_DownCounter_Get_EndValue
 7387               	Timebase_DownCounter_Get_EndValue:
 7388               	.LFB124:
 7389               	.LM674:
 7390               	.LVL459:
 7391               	/* prologue: function */
 7392               	/* frame size = 0 */
 7393               	.LM675:
 7394 23e2 E091 0000 		lds r30,Timebase
 7395 23e6 F091 0000 		lds r31,(Timebase)+1
 7396 23ea 90E0      		ldi r25,lo8(0)
 7397               	.LVL460:
 7398 23ec 2DE0      		ldi r18,lo8(13)
 7399 23ee 30E0      		ldi r19,hi8(13)
 7400 23f0 AC01      		movw r20,r24
 7401 23f2 429F      		mul r20,r18
 7402 23f4 C001      		movw r24,r0
 7403 23f6 439F      		mul r20,r19
 7404 23f8 900D      		add r25,r0
 7405 23fa 529F      		mul r21,r18
 7406 23fc 900D      		add r25,r0
 7407 23fe 1124      		clr r1
 7408               	.LVL461:
 7409 2400 E80F      		add r30,r24
 7410 2402 F91F      		adc r31,r25
 7411 2404 E05A      		subi r30,lo8(-(96))
 7412 2406 FF4F      		sbci r31,hi8(-(96))
 7413 2408 6081      		ld r22,Z
 7414 240a 7181      		ldd r23,Z+1
 7415               	.LM676:
 7416 240c 8281      		ldd r24,Z+2
 7417 240e 9381      		ldd r25,Z+3
 7418               	.LVL462:
 7419               	/* epilogue start */
 7420 2410 0895      		ret
 7421               	.LFE124:
 7423               	.global	Timebase_DownCounter_Set_EndValue
 7425               	Timebase_DownCounter_Set_EndValue:
 7426               	.LFB125:
 7427               	.LM677:
 7428               	.LVL463:
 7429               	/* prologue: function */
 7430               	/* frame size = 0 */
 7431               	.LM678:
 7432 2412 E091 0000 		lds r30,Timebase
 7433 2416 F091 0000 		lds r31,(Timebase)+1
 7434 241a 90E0      		ldi r25,lo8(0)
 7435               	.LVL464:
 7436 241c 2DE0      		ldi r18,lo8(13)
 7437 241e 30E0      		ldi r19,hi8(13)
 7438 2420 DC01      		movw r26,r24
 7439 2422 A29F      		mul r26,r18
 7440 2424 C001      		movw r24,r0
 7441 2426 A39F      		mul r26,r19
 7442 2428 900D      		add r25,r0
 7443 242a B29F      		mul r27,r18
 7444 242c 900D      		add r25,r0
 7445 242e 1124      		clr r1
 7446               	.LVL465:
 7447 2430 E80F      		add r30,r24
 7448 2432 F91F      		adc r31,r25
 7449 2434 E05A      		subi r30,lo8(-(96))
 7450 2436 FF4F      		sbci r31,hi8(-(96))
 7451 2438 4083      		st Z,r20
 7452 243a 5183      		std Z+1,r21
 7453 243c 6283      		std Z+2,r22
 7454 243e 7383      		std Z+3,r23
 7455               	/* epilogue start */
 7456               	.LM679:
 7457 2440 0895      		ret
 7458               	.LFE125:
 7460               	.global	Timebase_DownCounter_Get_PeriodValue
 7462               	Timebase_DownCounter_Get_PeriodValue:
 7463               	.LFB126:
 7464               	.LM680:
 7465               	.LVL466:
 7466               	/* prologue: function */
 7467               	/* frame size = 0 */
 7468               	.LM681:
 7469 2442 E091 0000 		lds r30,Timebase
 7470 2446 F091 0000 		lds r31,(Timebase)+1
 7471 244a 90E0      		ldi r25,lo8(0)
 7472               	.LVL467:
 7473 244c 2DE0      		ldi r18,lo8(13)
 7474 244e 30E0      		ldi r19,hi8(13)
 7475 2450 AC01      		movw r20,r24
 7476 2452 429F      		mul r20,r18
 7477 2454 C001      		movw r24,r0
 7478 2456 439F      		mul r20,r19
 7479 2458 900D      		add r25,r0
 7480 245a 529F      		mul r21,r18
 7481 245c 900D      		add r25,r0
 7482 245e 1124      		clr r1
 7483               	.LVL468:
 7484 2460 E80F      		add r30,r24
 7485 2462 F91F      		adc r31,r25
 7486 2464 E859      		subi r30,lo8(-(104))
 7487 2466 FF4F      		sbci r31,hi8(-(104))
 7488 2468 6081      		ld r22,Z
 7489 246a 7181      		ldd r23,Z+1
 7490               	.LM682:
 7491 246c 8281      		ldd r24,Z+2
 7492 246e 9381      		ldd r25,Z+3
 7493               	.LVL469:
 7494               	/* epilogue start */
 7495 2470 0895      		ret
 7496               	.LFE126:
 7498               	.global	Timebase_DownCounter_Set_PeriodValue
 7500               	Timebase_DownCounter_Set_PeriodValue:
 7501               	.LFB127:
 7502               	.LM683:
 7503               	.LVL470:
 7504               	/* prologue: function */
 7505               	/* frame size = 0 */
 7506 2472 E091 0000 		lds r30,Timebase
 7507 2476 F091 0000 		lds r31,(Timebase)+1
 7508 247a 282F      		mov r18,r24
 7509 247c 30E0      		ldi r19,lo8(0)
 7510               	.LVL471:
 7511               	.LM684:
 7512 247e 77FF      		sbrs r23,7
 7513 2480 00C0      		rjmp .L345
 7514               	.LVL472:
 7515               	.LM685:
 7516 2482 8DE0      		ldi r24,lo8(13)
 7517 2484 90E0      		ldi r25,hi8(13)
 7518 2486 AC01      		movw r20,r24
 7519               	.LVL473:
 7520 2488 249F      		mul r18,r20
 7521 248a C001      		movw r24,r0
 7522 248c 259F      		mul r18,r21
 7523 248e 900D      		add r25,r0
 7524 2490 349F      		mul r19,r20
 7525 2492 900D      		add r25,r0
 7526 2494 1124      		clr r1
 7527 2496 E80F      		add r30,r24
 7528 2498 F91F      		adc r31,r25
 7529 249a E859      		subi r30,lo8(-(104))
 7530 249c FF4F      		sbci r31,hi8(-(104))
 7531 249e 1082      		st Z,__zero_reg__
 7532 24a0 1182      		std Z+1,__zero_reg__
 7533 24a2 1282      		std Z+2,__zero_reg__
 7534 24a4 1382      		std Z+3,__zero_reg__
 7535 24a6 0895      		ret
 7536               	.LVL474:
 7537               	.L345:
 7538               	.LM686:
 7539 24a8 8DE0      		ldi r24,lo8(13)
 7540 24aa 90E0      		ldi r25,hi8(13)
 7541 24ac DC01      		movw r26,r24
 7542 24ae 2A9F      		mul r18,r26
 7543 24b0 C001      		movw r24,r0
 7544 24b2 2B9F      		mul r18,r27
 7545 24b4 900D      		add r25,r0
 7546 24b6 3A9F      		mul r19,r26
 7547 24b8 900D      		add r25,r0
 7548 24ba 1124      		clr r1
 7549 24bc E80F      		add r30,r24
 7550 24be F91F      		adc r31,r25
 7551 24c0 E859      		subi r30,lo8(-(104))
 7552 24c2 FF4F      		sbci r31,hi8(-(104))
 7553 24c4 4083      		st Z,r20
 7554 24c6 5183      		std Z+1,r21
 7555 24c8 6283      		std Z+2,r22
 7556 24ca 7383      		std Z+3,r23
 7557 24cc 0895      		ret
 7558               	.LFE127:
 7560               	.global	Timebase_DownCounter_Get_Period_Flag
 7562               	Timebase_DownCounter_Get_Period_Flag:
 7563               	.LFB128:
 7564               	.LM687:
 7565               	.LVL475:
 7566               	/* prologue: function */
 7567               	/* frame size = 0 */
 7568               	.LM688:
 7569 24ce E091 0000 		lds r30,Timebase
 7570 24d2 F091 0000 		lds r31,(Timebase)+1
 7571 24d6 90E0      		ldi r25,lo8(0)
 7572               	.LVL476:
 7573 24d8 2DE0      		ldi r18,lo8(13)
 7574 24da 30E0      		ldi r19,hi8(13)
 7575 24dc AC01      		movw r20,r24
 7576 24de 429F      		mul r20,r18
 7577 24e0 C001      		movw r24,r0
 7578 24e2 439F      		mul r20,r19
 7579 24e4 900D      		add r25,r0
 7580 24e6 529F      		mul r21,r18
 7581 24e8 900D      		add r25,r0
 7582 24ea 1124      		clr r1
 7583               	.LVL477:
 7584 24ec E80F      		add r30,r24
 7585 24ee F91F      		adc r31,r25
 7586 24f0 E15A      		subi r30,lo8(-(95))
 7587 24f2 FF4F      		sbci r31,hi8(-(95))
 7588 24f4 8081      		ld r24,Z
 7589               	.LM689:
 7590 24f6 8170      		andi r24,lo8(1)
 7591               	/* epilogue start */
 7592 24f8 0895      		ret
 7593               	.LFE128:
 7595               	.global	Timebase_DownCounter_Set_Period_Flag
 7597               	Timebase_DownCounter_Set_Period_Flag:
 7598               	.LFB129:
 7599               	.LM690:
 7600               	.LVL478:
 7601               	/* prologue: function */
 7602               	/* frame size = 0 */
 7603               	.LM691:
 7604 24fa E091 0000 		lds r30,Timebase
 7605 24fe F091 0000 		lds r31,(Timebase)+1
 7606 2502 90E0      		ldi r25,lo8(0)
 7607               	.LVL479:
 7608 2504 2DE0      		ldi r18,lo8(13)
 7609 2506 30E0      		ldi r19,hi8(13)
 7610 2508 AC01      		movw r20,r24
 7611 250a 429F      		mul r20,r18
 7612 250c C001      		movw r24,r0
 7613 250e 439F      		mul r20,r19
 7614 2510 900D      		add r25,r0
 7615 2512 529F      		mul r21,r18
 7616 2514 900D      		add r25,r0
 7617 2516 1124      		clr r1
 7618               	.LVL480:
 7619 2518 E80F      		add r30,r24
 7620 251a F91F      		adc r31,r25
 7621 251c E15A      		subi r30,lo8(-(95))
 7622 251e FF4F      		sbci r31,hi8(-(95))
 7623 2520 8081      		ld r24,Z
 7624 2522 8160      		ori r24,lo8(1)
 7625 2524 8083      		st Z,r24
 7626               	/* epilogue start */
 7627               	.LM692:
 7628 2526 0895      		ret
 7629               	.LFE129:
 7631               	.global	Timebase_DownCounter_Clear_Period_Flag
 7633               	Timebase_DownCounter_Clear_Period_Flag:
 7634               	.LFB130:
 7635               	.LM693:
 7636               	.LVL481:
 7637               	/* prologue: function */
 7638               	/* frame size = 0 */
 7639               	.LM694:
 7640 2528 E091 0000 		lds r30,Timebase
 7641 252c F091 0000 		lds r31,(Timebase)+1
 7642 2530 90E0      		ldi r25,lo8(0)
 7643               	.LVL482:
 7644 2532 2DE0      		ldi r18,lo8(13)
 7645 2534 30E0      		ldi r19,hi8(13)
 7646 2536 AC01      		movw r20,r24
 7647 2538 429F      		mul r20,r18
 7648 253a C001      		movw r24,r0
 7649 253c 439F      		mul r20,r19
 7650 253e 900D      		add r25,r0
 7651 2540 529F      		mul r21,r18
 7652 2542 900D      		add r25,r0
 7653 2544 1124      		clr r1
 7654               	.LVL483:
 7655 2546 E80F      		add r30,r24
 7656 2548 F91F      		adc r31,r25
 7657 254a E15A      		subi r30,lo8(-(95))
 7658 254c FF4F      		sbci r31,hi8(-(95))
 7659 254e 8081      		ld r24,Z
 7660 2550 8E7F      		andi r24,lo8(-2)
 7661 2552 8083      		st Z,r24
 7662               	/* epilogue start */
 7663               	.LM695:
 7664 2554 0895      		ret
 7665               	.LFE130:
 7667               	.global	Timebase_DownCounter_Reset
 7669               	Timebase_DownCounter_Reset:
 7670               	.LFB131:
 7671               	.LM696:
 7672               	.LVL484:
 7673               	/* prologue: function */
 7674               	/* frame size = 0 */
 7675               	.LBB984:
 7676               	.LBB985:
 7677               	.LM697:
 7678 2556 E091 0000 		lds r30,Timebase
 7679 255a F091 0000 		lds r31,(Timebase)+1
 7680 255e 90E0      		ldi r25,lo8(0)
 7681 2560 2DE0      		ldi r18,lo8(13)
 7682 2562 30E0      		ldi r19,hi8(13)
 7683 2564 AC01      		movw r20,r24
 7684               	.LVL485:
 7685 2566 429F      		mul r20,r18
 7686 2568 C001      		movw r24,r0
 7687 256a 439F      		mul r20,r19
 7688 256c 900D      		add r25,r0
 7689 256e 529F      		mul r21,r18
 7690 2570 900D      		add r25,r0
 7691 2572 1124      		clr r1
 7692 2574 E80F      		add r30,r24
 7693 2576 F91F      		adc r31,r25
 7694 2578 E05A      		subi r30,lo8(-(96))
 7695 257a FF4F      		sbci r31,hi8(-(96))
 7696 257c 1192      		st Z+,__zero_reg__
 7697 257e 1192      		st Z+,__zero_reg__
 7698 2580 1192      		st Z+,__zero_reg__
 7699 2582 1192      		st Z+,__zero_reg__
 7700               	.LBE985:
 7701               	.LBE984:
 7702               	.LBB986:
 7703               	.LBB987:
 7704               	.LM698:
 7705 2584 1082      		st Z,__zero_reg__
 7706 2586 1182      		std Z+1,__zero_reg__
 7707 2588 1282      		std Z+2,__zero_reg__
 7708 258a 1382      		std Z+3,__zero_reg__
 7709               	.LBE987:
 7710               	.LBE986:
 7711               	.LBB988:
 7712               	.LBB989:
 7713               	.LM699:
 7714 258c 3597      		sbiw r30,5
 7715 258e 8081      		ld r24,Z
 7716               	.LBE989:
 7717               	.LBE988:
 7718               	.LBB990:
 7719               	.LBB991:
 7720               	.LM700:
 7721 2590 807E      		andi r24,lo8(-32)
 7722 2592 8083      		st Z,r24
 7723               	/* epilogue start */
 7724               	.LBE991:
 7725               	.LBE990:
 7726               	.LM701:
 7727 2594 0895      		ret
 7728               	.LFE131:
 7730               	.global	Timebase_DownCounter_Clear_All_Flags
 7732               	Timebase_DownCounter_Clear_All_Flags:
 7733               	.LFB132:
 7734               	.LM702:
 7735               	.LVL486:
 7736               	/* prologue: function */
 7737               	/* frame size = 0 */
 7738               	.LBB992:
 7739               	.LBB993:
 7740               	.LBB994:
 7741               	.LBB995:
 7742               	.LM703:
 7743 2596 E091 0000 		lds r30,Timebase
 7744 259a F091 0000 		lds r31,(Timebase)+1
 7745 259e 90E0      		ldi r25,lo8(0)
 7746 25a0 2DE0      		ldi r18,lo8(13)
 7747 25a2 30E0      		ldi r19,hi8(13)
 7748 25a4 AC01      		movw r20,r24
 7749               	.LVL487:
 7750 25a6 429F      		mul r20,r18
 7751 25a8 C001      		movw r24,r0
 7752 25aa 439F      		mul r20,r19
 7753 25ac 900D      		add r25,r0
 7754 25ae 529F      		mul r21,r18
 7755 25b0 900D      		add r25,r0
 7756 25b2 1124      		clr r1
 7757 25b4 E80F      		add r30,r24
 7758 25b6 F91F      		adc r31,r25
 7759 25b8 E05A      		subi r30,lo8(-(96))
 7760 25ba FF4F      		sbci r31,hi8(-(96))
 7761 25bc 1192      		st Z+,__zero_reg__
 7762 25be 1192      		st Z+,__zero_reg__
 7763 25c0 1192      		st Z+,__zero_reg__
 7764 25c2 1192      		st Z+,__zero_reg__
 7765               	.LBE995:
 7766               	.LBE994:
 7767               	.LBB996:
 7768               	.LBB997:
 7769               	.LM704:
 7770 25c4 1082      		st Z,__zero_reg__
 7771 25c6 1182      		std Z+1,__zero_reg__
 7772 25c8 1282      		std Z+2,__zero_reg__
 7773 25ca 1382      		std Z+3,__zero_reg__
 7774               	.LBE997:
 7775               	.LBE996:
 7776               	.LBB998:
 7777               	.LBB999:
 7778               	.LM705:
 7779 25cc 3597      		sbiw r30,5
 7780 25ce 8081      		ld r24,Z
 7781               	.LBE999:
 7782               	.LBE998:
 7783               	.LBB1000:
 7784               	.LBB1001:
 7785               	.LM706:
 7786 25d0 807E      		andi r24,lo8(-32)
 7787 25d2 8083      		st Z,r24
 7788               	/* epilogue start */
 7789               	.LBE1001:
 7790               	.LBE1000:
 7791               	.LBE993:
 7792               	.LBE992:
 7793               	.LM707:
 7794 25d4 0895      		ret
 7795               	.LFE132:
 7797               	.global	Timebase_DownCounter_Start
 7799               	Timebase_DownCounter_Start:
 7800               	.LFB133:
 7801               	.LM708:
 7802               	.LVL488:
 7803               	/* prologue: function */
 7804               	/* frame size = 0 */
 7805               	.LBB1002:
 7806               	.LBB1003:
 7807               	.LM709:
 7808 25d6 E091 0000 		lds r30,Timebase
 7809 25da F091 0000 		lds r31,(Timebase)+1
 7810 25de 90E0      		ldi r25,lo8(0)
 7811               	.LBE1003:
 7812               	.LBE1002:
 7813               	.LM710:
 7814 25e0 2DE0      		ldi r18,lo8(13)
 7815 25e2 30E0      		ldi r19,hi8(13)
 7816 25e4 AC01      		movw r20,r24
 7817               	.LVL489:
 7818 25e6 429F      		mul r20,r18
 7819 25e8 C001      		movw r24,r0
 7820 25ea 439F      		mul r20,r19
 7821 25ec 900D      		add r25,r0
 7822 25ee 529F      		mul r21,r18
 7823 25f0 900D      		add r25,r0
 7824 25f2 1124      		clr r1
 7825 25f4 E80F      		add r30,r24
 7826 25f6 F91F      		adc r31,r25
 7827 25f8 E15A      		subi r30,lo8(-(95))
 7828 25fa FF4F      		sbci r31,hi8(-(95))
 7829 25fc 9081      		ld r25,Z
 7830 25fe 892F      		mov r24,r25
 7831 2600 8695      		lsr r24
 7832 2602 8F70      		andi r24,lo8(15)
 7833 2604 8130      		cpi r24,lo8(1)
 7834 2606 01F0      		breq .L360
 7835               	.LBB1004:
 7836               	.LBB1005:
 7837               	.LM711:
 7838 2608 917E      		andi r25,lo8(-31)
 7839 260a 9260      		ori r25,lo8(2)
 7840 260c 9083      		st Z,r25
 7841               	.L360:
 7842 260e 0895      		ret
 7843               	.LBE1005:
 7844               	.LBE1004:
 7845               	.LFE133:
 7847               	.global	Timebase_DownCounter_Stop
 7849               	Timebase_DownCounter_Stop:
 7850               	.LFB134:
 7851               	.LM712:
 7852               	.LVL490:
 7853               	/* prologue: function */
 7854               	/* frame size = 0 */
 7855               	.LBB1006:
 7856               	.LBB1007:
 7857               	.LM713:
 7858 2610 E091 0000 		lds r30,Timebase
 7859 2614 F091 0000 		lds r31,(Timebase)+1
 7860 2618 90E0      		ldi r25,lo8(0)
 7861               	.LBE1007:
 7862               	.LBE1006:
 7863               	.LM714:
 7864 261a 2DE0      		ldi r18,lo8(13)
 7865 261c 30E0      		ldi r19,hi8(13)
 7866 261e AC01      		movw r20,r24
 7867               	.LVL491:
 7868 2620 429F      		mul r20,r18
 7869 2622 C001      		movw r24,r0
 7870 2624 439F      		mul r20,r19
 7871 2626 900D      		add r25,r0
 7872 2628 529F      		mul r21,r18
 7873 262a 900D      		add r25,r0
 7874 262c 1124      		clr r1
 7875 262e E80F      		add r30,r24
 7876 2630 F91F      		adc r31,r25
 7877 2632 E15A      		subi r30,lo8(-(95))
 7878 2634 FF4F      		sbci r31,hi8(-(95))
 7879 2636 9081      		ld r25,Z
 7880 2638 892F      		mov r24,r25
 7881 263a 8695      		lsr r24
 7882 263c 8F70      		andi r24,lo8(15)
 7883 263e 8230      		cpi r24,lo8(2)
 7884 2640 01F0      		breq .L363
 7885               	.LBB1008:
 7886               	.LBB1009:
 7887               	.LM715:
 7888 2642 917E      		andi r25,lo8(-31)
 7889 2644 9460      		ori r25,lo8(4)
 7890 2646 9083      		st Z,r25
 7891               	.L363:
 7892 2648 0895      		ret
 7893               	.LBE1009:
 7894               	.LBE1008:
 7895               	.LFE134:
 7897               	.global	Timebase_DownCounter_Set_Securely
 7899               	Timebase_DownCounter_Set_Securely:
 7900               	.LFB135:
 7901               	.LM716:
 7902               	.LVL492:
 7903 264a CF93      		push r28
 7904 264c DF93      		push r29
 7905               	/* prologue: function */
 7906               	/* frame size = 0 */
 7907               	.LBB1010:
 7908               	.LBB1011:
 7909               	.LM717:
 7910 264e A091 0000 		lds r26,Timebase
 7911 2652 B091 0000 		lds r27,(Timebase)+1
 7912 2656 90E0      		ldi r25,lo8(0)
 7913               	.LBE1011:
 7914               	.LBE1010:
 7915               	.LM718:
 7916 2658 2DE0      		ldi r18,lo8(13)
 7917 265a 30E0      		ldi r19,hi8(13)
 7918 265c 829F      		mul r24,r18
 7919 265e F001      		movw r30,r0
 7920 2660 839F      		mul r24,r19
 7921 2662 F00D      		add r31,r0
 7922 2664 929F      		mul r25,r18
 7923 2666 F00D      		add r31,r0
 7924 2668 1124      		clr r1
 7925               	.LVL493:
 7926 266a EA0F      		add r30,r26
 7927 266c FB1F      		adc r31,r27
 7928 266e EF01      		movw r28,r30
 7929 2670 C15A      		subi r28,lo8(-(95))
 7930 2672 DF4F      		sbci r29,hi8(-(95))
 7931 2674 8881      		ld r24,Y
 7932 2676 8695      		lsr r24
 7933 2678 8F70      		andi r24,lo8(15)
 7934 267a 01F4      		brne .L366
 7935               	.LBB1012:
 7936               	.LBB1013:
 7937               	.LM719:
 7938 267c EC59      		subi r30,lo8(-(100))
 7939 267e FF4F      		sbci r31,hi8(-(100))
 7940 2680 4083      		st Z,r20
 7941 2682 5183      		std Z+1,r21
 7942 2684 6283      		std Z+2,r22
 7943 2686 7383      		std Z+3,r23
 7944               	.LBE1013:
 7945               	.LBE1012:
 7946               	.LBB1014:
 7947               	.LBB1015:
 7948               	.LM720:
 7949 2688 1A96      		adiw r26,10
 7950 268a 8D91      		ld r24,X+
 7951 268c 9D91      		ld r25,X+
 7952 268e 0D90      		ld __tmp_reg__,X+
 7953 2690 BC91      		ld r27,X
 7954 2692 A02D      		mov r26,__tmp_reg__
 7955               	.LBE1015:
 7956               	.LBE1014:
 7957               	.LBB1016:
 7958               	.LBB1017:
 7959               	.LM721:
 7960 2694 840F      		add r24,r20
 7961 2696 951F      		adc r25,r21
 7962 2698 A61F      		adc r26,r22
 7963 269a B71F      		adc r27,r23
 7964 269c B293      		st -Z,r27
 7965 269e A293      		st -Z,r26
 7966 26a0 9293      		st -Z,r25
 7967 26a2 8293      		st -Z,r24
 7968               	.LBE1017:
 7969               	.LBE1016:
 7970               	.LBB1018:
 7971               	.LBB1019:
 7972               	.LM722:
 7973 26a4 9881      		ld r25,Y
 7974 26a6 892F      		mov r24,r25
 7975 26a8 8695      		lsr r24
 7976 26aa 8F70      		andi r24,lo8(15)
 7977 26ac 8130      		cpi r24,lo8(1)
 7978 26ae 01F0      		breq .L366
 7979               	.LBB1020:
 7980               	.LBB1021:
 7981               	.LM723:
 7982 26b0 917E      		andi r25,lo8(-31)
 7983 26b2 9260      		ori r25,lo8(2)
 7984 26b4 9883      		st Y,r25
 7985               	.L366:
 7986               	/* epilogue start */
 7987               	.LBE1021:
 7988               	.LBE1020:
 7989               	.LBE1019:
 7990               	.LBE1018:
 7991               	.LM724:
 7992 26b6 DF91      		pop r29
 7993 26b8 CF91      		pop r28
 7994 26ba 0895      		ret
 7995               	.LFE135:
 7997               	.global	Timebase_DownCounter_Set_Forcefully
 7999               	Timebase_DownCounter_Set_Forcefully:
 8000               	.LFB136:
 8001               	.LM725:
 8002               	.LVL494:
 8003 26bc CF93      		push r28
 8004 26be DF93      		push r29
 8005               	/* prologue: function */
 8006               	/* frame size = 0 */
 8007               	.LBB1022:
 8008               	.LBB1023:
 8009               	.LBB1024:
 8010               	.LBB1025:
 8011               	.LM726:
 8012 26c0 E091 0000 		lds r30,Timebase
 8013 26c4 F091 0000 		lds r31,(Timebase)+1
 8014 26c8 A82F      		mov r26,r24
 8015 26ca B0E0      		ldi r27,lo8(0)
 8016 26cc 2DE0      		ldi r18,lo8(13)
 8017 26ce 30E0      		ldi r19,hi8(13)
 8018 26d0 E901      		movw r28,r18
 8019 26d2 AC9F      		mul r26,r28
 8020 26d4 9001      		movw r18,r0
 8021 26d6 AD9F      		mul r26,r29
 8022 26d8 300D      		add r19,r0
 8023 26da BC9F      		mul r27,r28
 8024 26dc 300D      		add r19,r0
 8025 26de 1124      		clr r1
 8026 26e0 E20F      		add r30,r18
 8027 26e2 F31F      		adc r31,r19
 8028 26e4 E05A      		subi r30,lo8(-(96))
 8029 26e6 FF4F      		sbci r31,hi8(-(96))
 8030 26e8 1192      		st Z+,__zero_reg__
 8031 26ea 1192      		st Z+,__zero_reg__
 8032 26ec 1192      		st Z+,__zero_reg__
 8033 26ee 1192      		st Z+,__zero_reg__
 8034               	.LBE1025:
 8035               	.LBE1024:
 8036               	.LBB1026:
 8037               	.LBB1027:
 8038               	.LM727:
 8039 26f0 1082      		st Z,__zero_reg__
 8040 26f2 1182      		std Z+1,__zero_reg__
 8041 26f4 1282      		std Z+2,__zero_reg__
 8042 26f6 1382      		std Z+3,__zero_reg__
 8043               	.LBE1027:
 8044               	.LBE1026:
 8045               	.LBB1028:
 8046               	.LBB1029:
 8047               	.LM728:
 8048 26f8 3597      		sbiw r30,5
 8049 26fa 9081      		ld r25,Z
 8050               	.LBE1029:
 8051               	.LBE1028:
 8052               	.LBB1030:
 8053               	.LBB1031:
 8054               	.LM729:
 8055 26fc 907E      		andi r25,lo8(-32)
 8056 26fe 9083      		st Z,r25
 8057               	.LBE1031:
 8058               	.LBE1030:
 8059               	.LBE1023:
 8060               	.LBE1022:
 8061               	.LM730:
 8062 2700 0E94 0000 		call Timebase_DownCounter_Set_Securely
 8063               	.LVL495:
 8064               	/* epilogue start */
 8065               	.LM731:
 8066 2704 DF91      		pop r29
 8067 2706 CF91      		pop r28
 8068 2708 0895      		ret
 8069               	.LFE136:
 8071               	.global	Timebase_DownCounter_Update
 8073               	Timebase_DownCounter_Update:
 8074               	.LFB137:
 8075               	.LM732:
 8076               	.LVL496:
 8077 270a 0F93      		push r16
 8078 270c 1F93      		push r17
 8079 270e CF93      		push r28
 8080 2710 DF93      		push r29
 8081               	/* prologue: function */
 8082               	/* frame size = 0 */
 8083               	.LBB1032:
 8084               	.LBB1033:
 8085               	.LM733:
 8086 2712 A091 0000 		lds r26,Timebase
 8087 2716 B091 0000 		lds r27,(Timebase)+1
 8088 271a 90E0      		ldi r25,lo8(0)
 8089 271c 2DE0      		ldi r18,lo8(13)
 8090 271e 30E0      		ldi r19,hi8(13)
 8091 2720 829F      		mul r24,r18
 8092 2722 F001      		movw r30,r0
 8093 2724 839F      		mul r24,r19
 8094 2726 F00D      		add r31,r0
 8095 2728 929F      		mul r25,r18
 8096 272a F00D      		add r31,r0
 8097 272c 1124      		clr r1
 8098               	.LVL497:
 8099 272e EA0F      		add r30,r26
 8100 2730 FB1F      		adc r31,r27
 8101 2732 8F01      		movw r16,r30
 8102 2734 015A      		subi r16,lo8(-(95))
 8103 2736 1F4F      		sbci r17,hi8(-(95))
 8104 2738 E801      		movw r28,r16
 8105 273a 8881      		ld r24,Y
 8106 273c 8695      		lsr r24
 8107 273e 8F70      		andi r24,lo8(15)
 8108               	.LBE1033:
 8109               	.LBE1032:
 8110               	.LM734:
 8111 2740 8130      		cpi r24,lo8(1)
 8112 2742 01F4      		brne .L370
 8113               	.LBB1034:
 8114               	.LBB1035:
 8115               	.LM735:
 8116 2744 1A96      		adiw r26,10
 8117 2746 2D91      		ld r18,X+
 8118 2748 3D91      		ld r19,X+
 8119 274a 4D91      		ld r20,X+
 8120 274c 5C91      		ld r21,X
 8121 274e 1D97      		sbiw r26,10+3
 8122               	.LBE1035:
 8123               	.LBE1034:
 8124               	.LM736:
 8125 2750 BF01      		movw r22,r30
 8126 2752 605A      		subi r22,lo8(-(96))
 8127 2754 7F4F      		sbci r23,hi8(-(96))
 8128 2756 EB01      		movw r28,r22
 8129 2758 8881      		ld r24,Y
 8130 275a 9981      		ldd r25,Y+1
 8131 275c AA81      		ldd r26,Y+2
 8132 275e BB81      		ldd r27,Y+3
 8133 2760 821B      		sub r24,r18
 8134 2762 930B      		sbc r25,r19
 8135 2764 A40B      		sbc r26,r20
 8136 2766 B50B      		sbc r27,r21
 8137               	.LBB1036:
 8138               	.LBB1037:
 8139               	.LM737:
 8140 2768 EC59      		subi r30,lo8(-(100))
 8141 276a FF4F      		sbci r31,hi8(-(100))
 8142 276c 8083      		st Z,r24
 8143 276e 9183      		std Z+1,r25
 8144 2770 A283      		std Z+2,r26
 8145 2772 B383      		std Z+3,r27
 8146               	.LBE1037:
 8147               	.LBE1036:
 8148               	.LM738:
 8149 2774 1816      		cp __zero_reg__,r24
 8150 2776 1906      		cpc __zero_reg__,r25
 8151 2778 1A06      		cpc __zero_reg__,r26
 8152 277a 1B06      		cpc __zero_reg__,r27
 8153 277c 04F0      		brlt .L372
 8154               	.LBB1038:
 8155               	.LBB1039:
 8156               	.LBB1040:
 8157               	.LBB1041:
 8158               	.LM739:
 8159 277e DB01      		movw r26,r22
 8160 2780 1D92      		st X+,__zero_reg__
 8161 2782 1D92      		st X+,__zero_reg__
 8162 2784 1D92      		st X+,__zero_reg__
 8163 2786 1C92      		st X,__zero_reg__
 8164 2788 1397      		sbiw r26,3
 8165               	.LBE1041:
 8166               	.LBE1040:
 8167               	.LBB1042:
 8168               	.LBB1043:
 8169               	.LM740:
 8170 278a 1082      		st Z,__zero_reg__
 8171 278c 1182      		std Z+1,__zero_reg__
 8172 278e 1282      		std Z+2,__zero_reg__
 8173 2790 1382      		std Z+3,__zero_reg__
 8174               	.LBE1043:
 8175               	.LBE1042:
 8176               	.LBB1044:
 8177               	.LBB1045:
 8178               	.LM741:
 8179 2792 E801      		movw r28,r16
 8180 2794 8881      		ld r24,Y
 8181               	.LBE1045:
 8182               	.LBE1044:
 8183               	.LBE1039:
 8184               	.LBE1038:
 8185               	.LBB1046:
 8186               	.LBB1047:
 8187               	.LM742:
 8188 2796 807E      		andi r24,lo8(-32)
 8189 2798 8860      		ori r24,lo8(8)
 8190 279a 8883      		st Y,r24
 8191 279c 00C0      		rjmp .L372
 8192               	.L370:
 8193               	.LBE1047:
 8194               	.LBE1046:
 8195               	.LM743:
 8196 279e 8230      		cpi r24,lo8(2)
 8197 27a0 01F4      		brne .L372
 8198               	.LBB1048:
 8199               	.LBB1049:
 8200               	.LM744:
 8201 27a2 1A96      		adiw r26,10
 8202 27a4 8D91      		ld r24,X+
 8203 27a6 9D91      		ld r25,X+
 8204 27a8 0D90      		ld __tmp_reg__,X+
 8205 27aa BC91      		ld r27,X
 8206 27ac A02D      		mov r26,__tmp_reg__
 8207               	.LBE1049:
 8208               	.LBE1048:
 8209               	.LBB1050:
 8210               	.LBB1051:
 8211               	.LM745:
 8212 27ae EC59      		subi r30,lo8(-(100))
 8213 27b0 FF4F      		sbci r31,hi8(-(100))
 8214 27b2 2081      		ld r18,Z
 8215 27b4 3181      		ldd r19,Z+1
 8216 27b6 4281      		ldd r20,Z+2
 8217 27b8 5381      		ldd r21,Z+3
 8218 27ba 820F      		add r24,r18
 8219 27bc 931F      		adc r25,r19
 8220 27be A41F      		adc r26,r20
 8221 27c0 B51F      		adc r27,r21
 8222 27c2 B293      		st -Z,r27
 8223 27c4 A293      		st -Z,r26
 8224 27c6 9293      		st -Z,r25
 8225 27c8 8293      		st -Z,r24
 8226               	.L372:
 8227               	/* epilogue start */
 8228               	.LBE1051:
 8229               	.LBE1050:
 8230               	.LM746:
 8231 27ca DF91      		pop r29
 8232 27cc CF91      		pop r28
 8233 27ce 1F91      		pop r17
 8234 27d0 0F91      		pop r16
 8235 27d2 0895      		ret
 8236               	.LFE137:
 8238               	.global	Timebase_DownCounter_Expired
 8240               	Timebase_DownCounter_Expired:
 8241               	.LFB138:
 8242               	.LM747:
 8243               	.LVL498:
 8244               	/* prologue: function */
 8245               	/* frame size = 0 */
 8246               	.LM748:
 8247 27d4 40E0      		ldi r20,lo8(0)
 8248 27d6 E091 0000 		lds r30,Timebase
 8249 27da F091 0000 		lds r31,(Timebase)+1
 8250 27de 90E0      		ldi r25,lo8(0)
 8251               	.LVL499:
 8252 27e0 2DE0      		ldi r18,lo8(13)
 8253 27e2 30E0      		ldi r19,hi8(13)
 8254 27e4 BC01      		movw r22,r24
 8255 27e6 629F      		mul r22,r18
 8256 27e8 C001      		movw r24,r0
 8257 27ea 639F      		mul r22,r19
 8258 27ec 900D      		add r25,r0
 8259 27ee 729F      		mul r23,r18
 8260 27f0 900D      		add r25,r0
 8261 27f2 1124      		clr r1
 8262               	.LVL500:
 8263 27f4 E80F      		add r30,r24
 8264 27f6 F91F      		adc r31,r25
 8265 27f8 E15A      		subi r30,lo8(-(95))
 8266 27fa FF4F      		sbci r31,hi8(-(95))
 8267 27fc 8081      		ld r24,Z
 8268 27fe 8695      		lsr r24
 8269 2800 8F70      		andi r24,lo8(15)
 8270 2802 8430      		cpi r24,lo8(4)
 8271 2804 01F4      		brne .L374
 8272 2806 41E0      		ldi r20,lo8(1)
 8273               	.L374:
 8274               	.LM749:
 8275 2808 842F      		mov r24,r20
 8276               	/* epilogue start */
 8277 280a 0895      		ret
 8278               	.LFE138:
 8280               	.global	Timebase_DownCounter_Expired_Event
 8282               	Timebase_DownCounter_Expired_Event:
 8283               	.LFB139:
 8284               	.LM750:
 8285               	.LVL501:
 8286               	/* prologue: function */
 8287               	/* frame size = 0 */
 8288               	.LBB1052:
 8289               	.LBB1053:
 8290               	.LM751:
 8291 280c E091 0000 		lds r30,Timebase
 8292 2810 F091 0000 		lds r31,(Timebase)+1
 8293 2814 90E0      		ldi r25,lo8(0)
 8294               	.LBE1053:
 8295               	.LBE1052:
 8296               	.LM752:
 8297 2816 2DE0      		ldi r18,lo8(13)
 8298 2818 30E0      		ldi r19,hi8(13)
 8299 281a AC01      		movw r20,r24
 8300               	.LVL502:
 8301 281c 429F      		mul r20,r18
 8302 281e C001      		movw r24,r0
 8303 2820 439F      		mul r20,r19
 8304 2822 900D      		add r25,r0
 8305 2824 529F      		mul r21,r18
 8306 2826 900D      		add r25,r0
 8307 2828 1124      		clr r1
 8308 282a E80F      		add r30,r24
 8309 282c F91F      		adc r31,r25
 8310 282e DF01      		movw r26,r30
 8311 2830 A15A      		subi r26,lo8(-(95))
 8312 2832 BF4F      		sbci r27,hi8(-(95))
 8313 2834 8C91      		ld r24,X
 8314 2836 8695      		lsr r24
 8315 2838 8F70      		andi r24,lo8(15)
 8316 283a 8430      		cpi r24,lo8(4)
 8317 283c 01F0      		breq .L377
 8318 283e 80E0      		ldi r24,lo8(0)
 8319 2840 0895      		ret
 8320               	.L377:
 8321               	.LBB1054:
 8322               	.LBB1055:
 8323               	.LBB1056:
 8324               	.LBB1057:
 8325               	.LBB1058:
 8326               	.LBB1059:
 8327               	.LM753:
 8328 2842 E05A      		subi r30,lo8(-(96))
 8329 2844 FF4F      		sbci r31,hi8(-(96))
 8330 2846 1192      		st Z+,__zero_reg__
 8331 2848 1192      		st Z+,__zero_reg__
 8332 284a 1192      		st Z+,__zero_reg__
 8333 284c 1192      		st Z+,__zero_reg__
 8334               	.LBE1059:
 8335               	.LBE1058:
 8336               	.LBB1060:
 8337               	.LBB1061:
 8338               	.LM754:
 8339 284e 1082      		st Z,__zero_reg__
 8340 2850 1182      		std Z+1,__zero_reg__
 8341 2852 1282      		std Z+2,__zero_reg__
 8342 2854 1382      		std Z+3,__zero_reg__
 8343               	.LBE1061:
 8344               	.LBE1060:
 8345               	.LBB1062:
 8346               	.LBB1063:
 8347               	.LM755:
 8348 2856 8C91      		ld r24,X
 8349               	.LBE1063:
 8350               	.LBE1062:
 8351               	.LBB1064:
 8352               	.LBB1065:
 8353               	.LM756:
 8354 2858 807E      		andi r24,lo8(-32)
 8355 285a 8C93      		st X,r24
 8356 285c 81E0      		ldi r24,lo8(1)
 8357               	.LBE1065:
 8358               	.LBE1064:
 8359               	.LBE1057:
 8360               	.LBE1056:
 8361               	.LBE1055:
 8362               	.LBE1054:
 8363               	.LM757:
 8364 285e 0895      		ret
 8365               	.LFE139:
 8367               	.global	Timebase_DownCounter_Set_Period_Value_Securely
 8369               	Timebase_DownCounter_Set_Period_Value_Securely:
 8370               	.LFB140:
 8371               	.LM758:
 8372               	.LVL503:
 8373 2860 CF93      		push r28
 8374 2862 DF93      		push r29
 8375               	/* prologue: function */
 8376               	/* frame size = 0 */
 8377               	.LBB1066:
 8378               	.LBB1067:
 8379               	.LM759:
 8380 2864 C091 0000 		lds r28,Timebase
 8381 2868 D091 0000 		lds r29,(Timebase)+1
 8382 286c 282F      		mov r18,r24
 8383 286e 30E0      		ldi r19,lo8(0)
 8384               	.LBE1067:
 8385               	.LBE1066:
 8386               	.LM760:
 8387 2870 8DE0      		ldi r24,lo8(13)
 8388 2872 90E0      		ldi r25,hi8(13)
 8389               	.LVL504:
 8390 2874 289F      		mul r18,r24
 8391 2876 F001      		movw r30,r0
 8392 2878 299F      		mul r18,r25
 8393 287a F00D      		add r31,r0
 8394 287c 389F      		mul r19,r24
 8395 287e F00D      		add r31,r0
 8396 2880 1124      		clr r1
 8397 2882 EC0F      		add r30,r28
 8398 2884 FD1F      		adc r31,r29
 8399 2886 E15A      		subi r30,lo8(-(95))
 8400 2888 FF4F      		sbci r31,hi8(-(95))
 8401 288a 8081      		ld r24,Z
 8402 288c EF55      		subi r30,lo8(-(-95))
 8403 288e F040      		sbci r31,hi8(-(-95))
 8404 2890 80FD      		sbrc r24,0
 8405 2892 00C0      		rjmp .L384
 8406               	.LM761:
 8407 2894 EC59      		subi r30,lo8(-(100))
 8408 2896 FF4F      		sbci r31,hi8(-(100))
 8409 2898 8191      		ld r24,Z+
 8410 289a 9191      		ld r25,Z+
 8411 289c A191      		ld r26,Z+
 8412 289e B191      		ld r27,Z+
 8413 28a0 841B      		sub r24,r20
 8414 28a2 950B      		sbc r25,r21
 8415 28a4 A60B      		sbc r26,r22
 8416 28a6 B70B      		sbc r27,r23
 8417               	.LBB1068:
 8418               	.LBB1069:
 8419               	.LM762:
 8420 28a8 B7FF      		sbrs r27,7
 8421 28aa 00C0      		rjmp .L382
 8422               	.LM763:
 8423 28ac 1082      		st Z,__zero_reg__
 8424 28ae 1182      		std Z+1,__zero_reg__
 8425 28b0 1282      		std Z+2,__zero_reg__
 8426 28b2 1382      		std Z+3,__zero_reg__
 8427 28b4 00C0      		rjmp .L383
 8428               	.L382:
 8429               	.LM764:
 8430 28b6 8083      		st Z,r24
 8431 28b8 9183      		std Z+1,r25
 8432 28ba A283      		std Z+2,r26
 8433 28bc B383      		std Z+3,r27
 8434               	.L383:
 8435               	.LBE1069:
 8436               	.LBE1068:
 8437               	.LBB1070:
 8438               	.LBB1071:
 8439               	.LM765:
 8440 28be 8DE0      		ldi r24,lo8(13)
 8441 28c0 90E0      		ldi r25,hi8(13)
 8442 28c2 289F      		mul r18,r24
 8443 28c4 F001      		movw r30,r0
 8444 28c6 299F      		mul r18,r25
 8445 28c8 F00D      		add r31,r0
 8446 28ca 389F      		mul r19,r24
 8447 28cc F00D      		add r31,r0
 8448 28ce 1124      		clr r1
 8449 28d0 EC0F      		add r30,r28
 8450 28d2 FD1F      		adc r31,r29
 8451 28d4 E15A      		subi r30,lo8(-(95))
 8452 28d6 FF4F      		sbci r31,hi8(-(95))
 8453 28d8 8081      		ld r24,Z
 8454 28da 8160      		ori r24,lo8(1)
 8455 28dc 8083      		st Z,r24
 8456               	.L384:
 8457               	/* epilogue start */
 8458               	.LBE1071:
 8459               	.LBE1070:
 8460               	.LM766:
 8461 28de DF91      		pop r29
 8462 28e0 CF91      		pop r28
 8463 28e2 0895      		ret
 8464               	.LFE140:
 8466               	.global	Timebase_DownCounter_Get_Remaining_Period_Value
 8468               	Timebase_DownCounter_Get_Remaining_Period_Value:
 8469               	.LFB141:
 8470               	.LM767:
 8471               	.LVL505:
 8472               	/* prologue: function */
 8473               	/* frame size = 0 */
 8474               	.LBB1072:
 8475               	.LBB1073:
 8476               	.LM768:
 8477 28e4 E091 0000 		lds r30,Timebase
 8478 28e8 F091 0000 		lds r31,(Timebase)+1
 8479 28ec 90E0      		ldi r25,lo8(0)
 8480               	.LBE1073:
 8481               	.LBE1072:
 8482               	.LM769:
 8483 28ee 2DE0      		ldi r18,lo8(13)
 8484 28f0 30E0      		ldi r19,hi8(13)
 8485 28f2 AC01      		movw r20,r24
 8486               	.LVL506:
 8487 28f4 429F      		mul r20,r18
 8488 28f6 C001      		movw r24,r0
 8489 28f8 439F      		mul r20,r19
 8490 28fa 900D      		add r25,r0
 8491 28fc 529F      		mul r21,r18
 8492 28fe 900D      		add r25,r0
 8493 2900 1124      		clr r1
 8494 2902 E80F      		add r30,r24
 8495 2904 F91F      		adc r31,r25
 8496 2906 DF01      		movw r26,r30
 8497 2908 A859      		subi r26,lo8(-(104))
 8498 290a BF4F      		sbci r27,hi8(-(104))
 8499 290c EC59      		subi r30,lo8(-(100))
 8500 290e FF4F      		sbci r31,hi8(-(100))
 8501 2910 2081      		ld r18,Z
 8502 2912 3181      		ldd r19,Z+1
 8503 2914 4281      		ldd r20,Z+2
 8504 2916 5381      		ldd r21,Z+3
 8505               	.LVL507:
 8506 2918 8D91      		ld r24,X+
 8507 291a 9D91      		ld r25,X+
 8508 291c 0D90      		ld __tmp_reg__,X+
 8509 291e BC91      		ld r27,X
 8510 2920 A02D      		mov r26,__tmp_reg__
 8511 2922 281B      		sub r18,r24
 8512 2924 390B      		sbc r19,r25
 8513 2926 4A0B      		sbc r20,r26
 8514 2928 5B0B      		sbc r21,r27
 8515 292a 57FF      		sbrs r21,7
 8516 292c 00C0      		rjmp .L386
 8517 292e 20E0      		ldi r18,lo8(0)
 8518 2930 30E0      		ldi r19,hi8(0)
 8519 2932 40E0      		ldi r20,hlo8(0)
 8520 2934 50E0      		ldi r21,hhi8(0)
 8521               	.L386:
 8522               	.LM770:
 8523 2936 B901      		movw r22,r18
 8524               	.LVL508:
 8525 2938 CA01      		movw r24,r20
 8526               	/* epilogue start */
 8527 293a 0895      		ret
 8528               	.LFE141:
 8530               	.global	Timebase_DownCounter_Period_Value_Expired
 8532               	Timebase_DownCounter_Period_Value_Expired:
 8533               	.LFB142:
 8534               	.LM771:
 8535               	.LVL509:
 8536 293c CF93      		push r28
 8537 293e DF93      		push r29
 8538               	/* prologue: function */
 8539               	/* frame size = 0 */
 8540               	.LBB1074:
 8541               	.LBB1075:
 8542               	.LBB1076:
 8543               	.LBB1077:
 8544               	.LM772:
 8545 2940 C091 0000 		lds r28,Timebase
 8546 2944 D091 0000 		lds r29,(Timebase)+1
 8547 2948 682F      		mov r22,r24
 8548 294a 70E0      		ldi r23,lo8(0)
 8549               	.LBE1077:
 8550               	.LBE1076:
 8551               	.LM773:
 8552 294c 8DE0      		ldi r24,lo8(13)
 8553 294e 90E0      		ldi r25,hi8(13)
 8554               	.LVL510:
 8555 2950 689F      		mul r22,r24
 8556 2952 F001      		movw r30,r0
 8557 2954 699F      		mul r22,r25
 8558 2956 F00D      		add r31,r0
 8559 2958 789F      		mul r23,r24
 8560 295a F00D      		add r31,r0
 8561 295c 1124      		clr r1
 8562 295e EC0F      		add r30,r28
 8563 2960 FD1F      		adc r31,r29
 8564 2962 DF01      		movw r26,r30
 8565 2964 A859      		subi r26,lo8(-(104))
 8566 2966 BF4F      		sbci r27,hi8(-(104))
 8567 2968 EC59      		subi r30,lo8(-(100))
 8568 296a FF4F      		sbci r31,hi8(-(100))
 8569 296c 2081      		ld r18,Z
 8570 296e 3181      		ldd r19,Z+1
 8571 2970 4281      		ldd r20,Z+2
 8572 2972 5381      		ldd r21,Z+3
 8573               	.LVL511:
 8574 2974 8D91      		ld r24,X+
 8575 2976 9D91      		ld r25,X+
 8576 2978 0D90      		ld __tmp_reg__,X+
 8577 297a BC91      		ld r27,X
 8578 297c A02D      		mov r26,__tmp_reg__
 8579 297e 281B      		sub r18,r24
 8580 2980 390B      		sbc r19,r25
 8581 2982 4A0B      		sbc r20,r26
 8582 2984 5B0B      		sbc r21,r27
 8583               	.LM774:
 8584 2986 57FD      		sbrc r21,7
 8585 2988 00C0      		rjmp .L389
 8586               	.LBE1075:
 8587               	.LBE1074:
 8588               	.LM775:
 8589 298a 2115      		cp r18,__zero_reg__
 8590 298c 3105      		cpc r19,__zero_reg__
 8591 298e 4105      		cpc r20,__zero_reg__
 8592 2990 5105      		cpc r21,__zero_reg__
 8593 2992 01F0      		breq .L389
 8594 2994 20E0      		ldi r18,lo8(0)
 8595               	.LVL512:
 8596 2996 00C0      		rjmp .L390
 8597               	.LVL513:
 8598               	.L389:
 8599 2998 20E0      		ldi r18,lo8(0)
 8600               	.LVL514:
 8601 299a 8DE0      		ldi r24,lo8(13)
 8602 299c 90E0      		ldi r25,hi8(13)
 8603 299e AC01      		movw r20,r24
 8604 29a0 649F      		mul r22,r20
 8605 29a2 C001      		movw r24,r0
 8606 29a4 659F      		mul r22,r21
 8607 29a6 900D      		add r25,r0
 8608 29a8 749F      		mul r23,r20
 8609 29aa 900D      		add r25,r0
 8610 29ac 1124      		clr r1
 8611 29ae C80F      		add r28,r24
 8612 29b0 D91F      		adc r29,r25
 8613 29b2 C15A      		subi r28,lo8(-(95))
 8614 29b4 DF4F      		sbci r29,hi8(-(95))
 8615 29b6 8881      		ld r24,Y
 8616 29b8 80FF      		sbrs r24,0
 8617 29ba 21E0      		ldi r18,lo8(1)
 8618               	.L391:
 8619 29bc 81E0      		ldi r24,lo8(1)
 8620 29be 2827      		eor r18,r24
 8621               	.L390:
 8622               	.LM776:
 8623 29c0 822F      		mov r24,r18
 8624               	/* epilogue start */
 8625 29c2 DF91      		pop r29
 8626 29c4 CF91      		pop r28
 8627 29c6 0895      		ret
 8628               	.LFE142:
 8630               	.global	Timebase_DownCounter_Period_Value_Expired_Event
 8632               	Timebase_DownCounter_Period_Value_Expired_Event:
 8633               	.LFB143:
 8634               	.LM777:
 8635               	.LVL515:
 8636 29c8 1F93      		push r17
 8637               	/* prologue: function */
 8638               	/* frame size = 0 */
 8639 29ca 182F      		mov r17,r24
 8640               	.LM778:
 8641 29cc 0E94 0000 		call Timebase_DownCounter_Period_Value_Expired
 8642               	.LVL516:
 8643 29d0 8130      		cpi r24,lo8(1)
 8644 29d2 01F0      		breq .L394
 8645 29d4 80E0      		ldi r24,lo8(0)
 8646 29d6 00C0      		rjmp .L395
 8647               	.L394:
 8648               	.LBB1078:
 8649               	.LBB1079:
 8650               	.LM779:
 8651 29d8 E091 0000 		lds r30,Timebase
 8652 29dc F091 0000 		lds r31,(Timebase)+1
 8653 29e0 212F      		mov r18,r17
 8654 29e2 30E0      		ldi r19,lo8(0)
 8655               	.LVL517:
 8656 29e4 8DE0      		ldi r24,lo8(13)
 8657 29e6 90E0      		ldi r25,hi8(13)
 8658 29e8 AC01      		movw r20,r24
 8659 29ea 249F      		mul r18,r20
 8660 29ec C001      		movw r24,r0
 8661 29ee 259F      		mul r18,r21
 8662 29f0 900D      		add r25,r0
 8663 29f2 349F      		mul r19,r20
 8664 29f4 900D      		add r25,r0
 8665 29f6 1124      		clr r1
 8666 29f8 E80F      		add r30,r24
 8667 29fa F91F      		adc r31,r25
 8668 29fc E15A      		subi r30,lo8(-(95))
 8669 29fe FF4F      		sbci r31,hi8(-(95))
 8670 2a00 8081      		ld r24,Z
 8671 2a02 8E7F      		andi r24,lo8(-2)
 8672 2a04 8083      		st Z,r24
 8673 2a06 81E0      		ldi r24,lo8(1)
 8674               	.L395:
 8675               	/* epilogue start */
 8676               	.LBE1079:
 8677               	.LBE1078:
 8678               	.LM780:
 8679 2a08 1F91      		pop r17
 8680               	.LVL518:
 8681 2a0a 0895      		ret
 8682               	.LFE143:
 8684               	.global	Timebase_DownCounter_Update_All
 8686               	Timebase_DownCounter_Update_All:
 8687               	.LFB144:
 8688               	.LM781:
 8689               	/* prologue: function */
 8690               	/* frame size = 0 */
 8691               	.LBB1080:
 8692               	.LM782:
 8693 2a0c 80E0      		ldi r24,lo8(0)
 8694 2a0e 0E94 0000 		call Timebase_DownCounter_Update
 8695               	/* epilogue start */
 8696               	.LBE1080:
 8697               	.LM783:
 8698 2a12 0895      		ret
 8699               	.LFE144:
 8701               	.global	Timebase_DownCounter_Reset_All
 8703               	Timebase_DownCounter_Reset_All:
 8704               	.LFB145:
 8705               	.LM784:
 8706               	/* prologue: function */
 8707               	/* frame size = 0 */
 8708               	.LBB1081:
 8709               	.LBB1082:
 8710               	.LBB1083:
 8711               	.LBB1084:
 8712               	.LBB1085:
 8713               	.LM785:
 8714 2a14 E091 0000 		lds r30,Timebase
 8715 2a18 F091 0000 		lds r31,(Timebase)+1
 8716 2a1c E05A      		subi r30,lo8(-(96))
 8717 2a1e FF4F      		sbci r31,hi8(-(96))
 8718 2a20 1192      		st Z+,__zero_reg__
 8719 2a22 1192      		st Z+,__zero_reg__
 8720 2a24 1192      		st Z+,__zero_reg__
 8721 2a26 1192      		st Z+,__zero_reg__
 8722               	.LBE1085:
 8723               	.LBE1084:
 8724               	.LBB1086:
 8725               	.LBB1087:
 8726               	.LM786:
 8727 2a28 1082      		st Z,__zero_reg__
 8728 2a2a 1182      		std Z+1,__zero_reg__
 8729 2a2c 1282      		std Z+2,__zero_reg__
 8730 2a2e 1382      		std Z+3,__zero_reg__
 8731               	.LBE1087:
 8732               	.LBE1086:
 8733               	.LBB1088:
 8734               	.LBB1089:
 8735               	.LM787:
 8736 2a30 3597      		sbiw r30,5
 8737 2a32 8081      		ld r24,Z
 8738               	.LBE1089:
 8739               	.LBE1088:
 8740               	.LBB1090:
 8741               	.LBB1091:
 8742               	.LM788:
 8743 2a34 807E      		andi r24,lo8(-32)
 8744 2a36 8083      		st Z,r24
 8745               	/* epilogue start */
 8746               	.LBE1091:
 8747               	.LBE1090:
 8748               	.LBE1083:
 8749               	.LBE1082:
 8750               	.LBE1081:
 8751               	.LM789:
 8752 2a38 0895      		ret
 8753               	.LFE145:
 8755               	.global	Timebase_Reset
 8757               	Timebase_Reset:
 8758               	.LFB146:
 8759               	.LM790:
 8760               	/* prologue: function */
 8761               	/* frame size = 0 */
 8762               	.LM791:
 8763 2a3a 0E94 0000 		call Timebase_UpCounter_Reset_All
 8764               	.LM792:
 8765 2a3e 0E94 0000 		call Timebase_DownCounter_SS_Reset_All
 8766               	.LM793:
 8767 2a42 0E94 0000 		call Timebase_DownCounter_Reset_All
 8768               	/* epilogue start */
 8769               	.LM794:
 8770 2a46 0895      		ret
 8771               	.LFE146:
 8773               	.global	Timebase_Init
 8775               	Timebase_Init:
 8776               	.LFB147:
 8777               	.LM795:
 8778               	.LVL519:
 8779 2a48 0F93      		push r16
 8780 2a4a 1F93      		push r17
 8781               	/* prologue: function */
 8782               	/* frame size = 0 */
 8783 2a4c 8C01      		movw r16,r24
 8784               	.LM796:
 8785 2a4e 0E94 0000 		call Timebase_Struct_Init
 8786               	.LVL520:
 8787               	.LM797:
 8788 2a52 C801      		movw r24,r16
 8789 2a54 0E94 0000 		call Timebase_Timer_Config
 8790               	.LM798:
 8791 2a58 0E94 0000 		call Timebase_Reset
 8792               	/* epilogue start */
 8793               	.LM799:
 8794 2a5c 1F91      		pop r17
 8795 2a5e 0F91      		pop r16
 8796               	.LVL521:
 8797 2a60 0895      		ret
 8798               	.LFE147:
 8800               	.global	Timebase_Main_Loop_Executables
 8802               	Timebase_Main_Loop_Executables:
 8803               	.LFB148:
 8804               	.LM800:
 8805               	/* prologue: function */
 8806               	/* frame size = 0 */
 8807               	.LM801:
 8808 2a62 E091 0000 		lds r30,Timebase
 8809 2a66 F091 0000 		lds r31,(Timebase)+1
 8810 2a6a 868D      		ldd r24,Z+30
 8811 2a6c 82FF      		sbrs r24,2
 8812 2a6e 00C0      		rjmp .L406
 8813               	.LM802:
 8814 2a70 0E94 0000 		call Timebase_Timer_Sync_With_Shadow_Variables
 8815               	.LM803:
 8816 2a74 0E94 0000 		call Timebase_UpCounter_SS_Update_All
 8817               	.LM804:
 8818 2a78 E091 0000 		lds r30,Timebase
 8819 2a7c F091 0000 		lds r31,(Timebase)+1
 8820 2a80 868D      		ldd r24,Z+30
 8821 2a82 8B7F      		andi r24,lo8(-5)
 8822 2a84 868F      		std Z+30,r24
 8823               	.L406:
 8824               	.LM805:
 8825 2a86 E091 0000 		lds r30,Timebase
 8826 2a8a F091 0000 		lds r31,(Timebase)+1
 8827 2a8e 868D      		ldd r24,Z+30
 8828 2a90 80FF      		sbrs r24,0
 8829 2a92 00C0      		rjmp .L407
 8830               	.LM806:
 8831 2a94 0E94 0000 		call Timebase_Timer_Sync_With_Shadow_Variables
 8832               	.LM807:
 8833 2a98 0E94 0000 		call Timebase_UpCounter_Update_All
 8834               	.LM808:
 8835 2a9c E091 0000 		lds r30,Timebase
 8836 2aa0 F091 0000 		lds r31,(Timebase)+1
 8837 2aa4 868D      		ldd r24,Z+30
 8838 2aa6 8E7F      		andi r24,lo8(-2)
 8839 2aa8 868F      		std Z+30,r24
 8840               	.L407:
 8841               	.LM809:
 8842 2aaa E091 0000 		lds r30,Timebase
 8843 2aae F091 0000 		lds r31,(Timebase)+1
 8844 2ab2 868D      		ldd r24,Z+30
 8845 2ab4 83FF      		sbrs r24,3
 8846 2ab6 00C0      		rjmp .L408
 8847               	.LM810:
 8848 2ab8 0E94 0000 		call Timebase_Timer_Sync_With_Shadow_Variables
 8849               	.LM811:
 8850 2abc 0E94 0000 		call Timebase_DownCounter_SS_Update_All
 8851               	.LM812:
 8852 2ac0 E091 0000 		lds r30,Timebase
 8853 2ac4 F091 0000 		lds r31,(Timebase)+1
 8854 2ac8 868D      		ldd r24,Z+30
 8855 2aca 877F      		andi r24,lo8(-9)
 8856 2acc 868F      		std Z+30,r24
 8857               	.L408:
 8858               	.LM813:
 8859 2ace E091 0000 		lds r30,Timebase
 8860 2ad2 F091 0000 		lds r31,(Timebase)+1
 8861 2ad6 868D      		ldd r24,Z+30
 8862 2ad8 81FF      		sbrs r24,1
 8863 2ada 00C0      		rjmp .L409
 8864               	.LM814:
 8865 2adc 0E94 0000 		call Timebase_Timer_Sync_With_Shadow_Variables
 8866               	.LM815:
 8867 2ae0 0E94 0000 		call Timebase_DownCounter_Update_All
 8868               	.LM816:
 8869 2ae4 E091 0000 		lds r30,Timebase
 8870 2ae8 F091 0000 		lds r31,(Timebase)+1
 8871 2aec 868D      		ldd r24,Z+30
 8872 2aee 8D7F      		andi r24,lo8(-3)
 8873 2af0 868F      		std Z+30,r24
 8874               	.L409:
 8875               	.LM817:
 8876 2af2 E091 0000 		lds r30,Timebase
 8877 2af6 F091 0000 		lds r31,(Timebase)+1
 8878 2afa 148A      		std Z+20,__zero_reg__
 8879               	/* epilogue start */
 8880               	.LM818:
 8881 2afc 0895      		ret
 8882               	.LFE148:
 8884               	.global	Timebase_ISR_Executables
 8886               	Timebase_ISR_Executables:
 8887               	.LFB149:
 8888               	.LM819:
 8889               	/* prologue: function */
 8890               	/* frame size = 0 */
 8891               	.LM820:
 8892 2afe E091 0000 		lds r30,Timebase
 8893 2b02 F091 0000 		lds r31,(Timebase)+1
 8894 2b06 8685      		ldd r24,Z+14
 8895 2b08 9785      		ldd r25,Z+15
 8896 2b0a 0196      		adiw r24,1
 8897 2b0c 9787      		std Z+15,r25
 8898 2b0e 8687      		std Z+14,r24
 8899               	.LM821:
 8900 2b10 868D      		ldd r24,Z+30
 8901 2b12 8460      		ori r24,lo8(4)
 8902 2b14 868F      		std Z+30,r24
 8903               	.LM822:
 8904 2b16 868D      		ldd r24,Z+30
 8905 2b18 8860      		ori r24,lo8(8)
 8906 2b1a 868F      		std Z+30,r24
 8907               	.LM823:
 8908 2b1c 2685      		ldd r18,Z+14
 8909 2b1e 3785      		ldd r19,Z+15
 8910 2b20 8181      		ldd r24,Z+1
 8911 2b22 9281      		ldd r25,Z+2
 8912 2b24 2817      		cp r18,r24
 8913 2b26 3907      		cpc r19,r25
 8914 2b28 00F0      		brlo .L413
 8915               	.LM824:
 8916 2b2a 8089      		ldd r24,Z+16
 8917 2b2c 9189      		ldd r25,Z+17
 8918 2b2e A289      		ldd r26,Z+18
 8919 2b30 B389      		ldd r27,Z+19
 8920 2b32 0196      		adiw r24,1
 8921 2b34 A11D      		adc r26,__zero_reg__
 8922 2b36 B11D      		adc r27,__zero_reg__
 8923 2b38 808B      		std Z+16,r24
 8924 2b3a 918B      		std Z+17,r25
 8925 2b3c A28B      		std Z+18,r26
 8926 2b3e B38B      		std Z+19,r27
 8927               	.LM825:
 8928 2b40 1786      		std Z+15,__zero_reg__
 8929 2b42 1686      		std Z+14,__zero_reg__
 8930               	.LM826:
 8931 2b44 868D      		ldd r24,Z+30
 8932 2b46 8160      		ori r24,lo8(1)
 8933 2b48 868F      		std Z+30,r24
 8934               	.LM827:
 8935 2b4a 868D      		ldd r24,Z+30
 8936 2b4c 8260      		ori r24,lo8(2)
 8937 2b4e 868F      		std Z+30,r24
 8938               	.L413:
 8939 2b50 0895      		ret
 8940               	.LFE149:
 8942               	.global	__vector_16
 8944               	__vector_16:
 8945               	.LFB150:
 8946               	.LM828:
 8947 2b52 1F92      		push __zero_reg__
 8948 2b54 0F92      		push r0
 8949 2b56 0FB6      		in r0,__SREG__
 8950 2b58 0F92      		push r0
 8951 2b5a 1124      		clr __zero_reg__
 8952 2b5c 2F93      		push r18
 8953 2b5e 3F93      		push r19
 8954 2b60 4F93      		push r20
 8955 2b62 5F93      		push r21
 8956 2b64 6F93      		push r22
 8957 2b66 7F93      		push r23
 8958 2b68 8F93      		push r24
 8959 2b6a 9F93      		push r25
 8960 2b6c AF93      		push r26
 8961 2b6e BF93      		push r27
 8962 2b70 EF93      		push r30
 8963 2b72 FF93      		push r31
 8964               	/* prologue: Signal */
 8965               	/* frame size = 0 */
 8966               	.LM829:
 8967 2b74 E091 0000 		lds r30,Timebase
 8968 2b78 F091 0000 		lds r31,(Timebase)+1
 8969 2b7c 8381      		ldd r24,Z+3
 8970 2b7e 86BD      		out 70-32,r24
 8971               	.LM830:
 8972 2b80 0E94 0000 		call Timebase_ISR_Executables
 8973               	/* epilogue start */
 8974               	.LM831:
 8975 2b84 FF91      		pop r31
 8976 2b86 EF91      		pop r30
 8977 2b88 BF91      		pop r27
 8978 2b8a AF91      		pop r26
 8979 2b8c 9F91      		pop r25
 8980 2b8e 8F91      		pop r24
 8981 2b90 7F91      		pop r23
 8982 2b92 6F91      		pop r22
 8983 2b94 5F91      		pop r21
 8984 2b96 4F91      		pop r20
 8985 2b98 3F91      		pop r19
 8986 2b9a 2F91      		pop r18
 8987 2b9c 0F90      		pop r0
 8988 2b9e 0FBE      		out __SREG__,r0
 8989 2ba0 0F90      		pop r0
 8990 2ba2 1F90      		pop __zero_reg__
 8991 2ba4 1895      		reti
 8992               	.LFE150:
 8994               		.data
 8997               	C.2.1708:
 8998 0000 0100      		.word	1
 8999 0002 0800      		.word	8
 9000 0004 4000      		.word	64
 9001 0006 0001      		.word	256
 9002 0008 0004      		.word	1024
 9003               		.comm Timebase_type,108,1
 9004               		.comm Timebase,2,1
 10181               	.Letext0:
DEFINED SYMBOLS
                            *ABS*:00000000 timebase.c
C:\Users\WALTON\AppData\Local\Temp/cch3HpkB.s:2      *ABS*:0000003f __SREG__
C:\Users\WALTON\AppData\Local\Temp/cch3HpkB.s:3      *ABS*:0000003e __SP_H__
C:\Users\WALTON\AppData\Local\Temp/cch3HpkB.s:4      *ABS*:0000003d __SP_L__
C:\Users\WALTON\AppData\Local\Temp/cch3HpkB.s:5      *ABS*:00000034 __CCP__
C:\Users\WALTON\AppData\Local\Temp/cch3HpkB.s:6      *ABS*:00000000 __tmp_reg__
C:\Users\WALTON\AppData\Local\Temp/cch3HpkB.s:7      *ABS*:00000001 __zero_reg__
C:\Users\WALTON\AppData\Local\Temp/cch3HpkB.s:18     .text:00000000 Timebase_Struct_Init
                            *COM*:0000006c Timebase_type
                            *COM*:00000002 Timebase
C:\Users\WALTON\AppData\Local\Temp/cch3HpkB.s:197    .text:000001d6 Timebase_Timer_Config
C:\Users\WALTON\AppData\Local\Temp/cch3HpkB.s:8997   .data:00000000 C.2.1708
C:\Users\WALTON\AppData\Local\Temp/cch3HpkB.s:517    .text:00000370 Timebase_Atomic_Operation_Start
C:\Users\WALTON\AppData\Local\Temp/cch3HpkB.s:535    .text:00000374 Timebase_Atomic_Operation_End
C:\Users\WALTON\AppData\Local\Temp/cch3HpkB.s:553    .text:00000378 Timebase_Token_Executing
C:\Users\WALTON\AppData\Local\Temp/cch3HpkB.s:569    .text:00000384 Timebase_Token_Add
C:\Users\WALTON\AppData\Local\Temp/cch3HpkB.s:595    .text:0000039a Timebase_Token_Remove
C:\Users\WALTON\AppData\Local\Temp/cch3HpkB.s:621    .text:000003b0 Timebase_Token_Remove_All
C:\Users\WALTON\AppData\Local\Temp/cch3HpkB.s:637    .text:000003bc Timebase_Timer_Get_SubSecondsShadow
C:\Users\WALTON\AppData\Local\Temp/cch3HpkB.s:655    .text:000003cc Timebase_Timer_Get_SecondsShadow
C:\Users\WALTON\AppData\Local\Temp/cch3HpkB.s:676    .text:000003e2 Timebase_Timer_Get_SubSeconds
C:\Users\WALTON\AppData\Local\Temp/cch3HpkB.s:694    .text:000003f2 Timebase_Timer_Get_Seconds
C:\Users\WALTON\AppData\Local\Temp/cch3HpkB.s:715    .text:00000408 Timebase_Timer_Set_SubSeconds
C:\Users\WALTON\AppData\Local\Temp/cch3HpkB.s:733    .text:00000416 Timebase_Timer_Set_Seconds
C:\Users\WALTON\AppData\Local\Temp/cch3HpkB.s:753    .text:00000428 Timebase_Timer_Sync_With_Shadow_Variables
C:\Users\WALTON\AppData\Local\Temp/cch3HpkB.s:807    .text:00000458 Timebase_Timer_Delay_SubSeconds
C:\Users\WALTON\AppData\Local\Temp/cch3HpkB.s:984    .text:00000510 Timebase_Timer_Await_SubSeconds
C:\Users\WALTON\AppData\Local\Temp/cch3HpkB.s:1146   .text:000005aa Timebase_Timer_Delay_Seconds
C:\Users\WALTON\AppData\Local\Temp/cch3HpkB.s:1243   .text:000005ec Timebase_Window_Timer_Reset
C:\Users\WALTON\AppData\Local\Temp/cch3HpkB.s:1269   .text:00000608 Timebase_Window_Timer_Start
C:\Users\WALTON\AppData\Local\Temp/cch3HpkB.s:1337   .text:00000640 Timebase_Window_Timer_Get_Interval
C:\Users\WALTON\AppData\Local\Temp/cch3HpkB.s:1453   .text:000006be Timebase_Window_Timer_Get_Interval_Reset
C:\Users\WALTON\AppData\Local\Temp/cch3HpkB.s:1493   .text:000006e8 Timebase_UpCounter_SS_Get_Status
C:\Users\WALTON\AppData\Local\Temp/cch3HpkB.s:1527   .text:00000712 Timebase_UpCounter_SS_Set_Status
C:\Users\WALTON\AppData\Local\Temp/cch3HpkB.s:1565   .text:00000742 Timebase_UpCounter_SS_Get_Value
C:\Users\WALTON\AppData\Local\Temp/cch3HpkB.s:1608   .text:0000077c Timebase_UpCounter_SS_Set_Value
C:\Users\WALTON\AppData\Local\Temp/cch3HpkB.s:1658   .text:000007c0 Timebase_UpCounter_SS_Get_EndValueSec
C:\Users\WALTON\AppData\Local\Temp/cch3HpkB.s:1701   .text:000007fa Timebase_UpCounter_SS_Get_EndValueSubSec
C:\Users\WALTON\AppData\Local\Temp/cch3HpkB.s:1744   .text:00000834 Timebase_UpCounter_SS_Set_EndValueSec
C:\Users\WALTON\AppData\Local\Temp/cch3HpkB.s:1779   .text:00000860 Timebase_UpCounter_SS_Set_EndValueSubSec
C:\Users\WALTON\AppData\Local\Temp/cch3HpkB.s:1814   .text:0000088c Timebase_UpCounter_SS_Get_TargetValue
C:\Users\WALTON\AppData\Local\Temp/cch3HpkB.s:1857   .text:000008c6 Timebase_UpCounter_SS_Set_TargetValue
C:\Users\WALTON\AppData\Local\Temp/cch3HpkB.s:1892   .text:000008f2 Timebase_UpCounter_SS_Get_TemporaryValue
C:\Users\WALTON\AppData\Local\Temp/cch3HpkB.s:1935   .text:0000092c Timebase_UpCounter_SS_Set_TemporaryValue
C:\Users\WALTON\AppData\Local\Temp/cch3HpkB.s:1985   .text:00000970 Timebase_UpCounter_SS_Get_PeriodValue
C:\Users\WALTON\AppData\Local\Temp/cch3HpkB.s:2028   .text:000009aa Timebase_UpCounter_SS_Set_PeriodValue
C:\Users\WALTON\AppData\Local\Temp/cch3HpkB.s:2063   .text:000009d6 Timebase_UpCounter_SS_Get_Period_Flag
C:\Users\WALTON\AppData\Local\Temp/cch3HpkB.s:2096   .text:000009fe Timebase_UpCounter_SS_Set_Period_Flag
C:\Users\WALTON\AppData\Local\Temp/cch3HpkB.s:2130   .text:00000a28 Timebase_UpCounter_SS_Clear_Period_Flag
C:\Users\WALTON\AppData\Local\Temp/cch3HpkB.s:2164   .text:00000a52 Timebase_UpCounter_SS_Reset
C:\Users\WALTON\AppData\Local\Temp/cch3HpkB.s:2260   .text:00000aac Timebase_UpCounter_SS_Clear_All_Flags
C:\Users\WALTON\AppData\Local\Temp/cch3HpkB.s:2276   .text:00000ab2 Timebase_UpCounter_SS_Start
C:\Users\WALTON\AppData\Local\Temp/cch3HpkB.s:2324   .text:00000ae8 Timebase_UpCounter_SS_Stop
C:\Users\WALTON\AppData\Local\Temp/cch3HpkB.s:2372   .text:00000b1e Timebase_UpCounter_SS_Set_Securely
C:\Users\WALTON\AppData\Local\Temp/cch3HpkB.s:2644   .text:00000c9a Timebase_UpCounter_SS_Set_Forcefully
C:\Users\WALTON\AppData\Local\Temp/cch3HpkB.s:2680   .text:00000cc4 Timebase_UpCounter_SS_Update
C:\Users\WALTON\AppData\Local\Temp/cch3HpkB.s:3226   .text:00000fe2 Timebase_UpCounter_SS_Expired
C:\Users\WALTON\AppData\Local\Temp/cch3HpkB.s:3266   .text:00001016 Timebase_UpCounter_SS_Expired_Event
C:\Users\WALTON\AppData\Local\Temp/cch3HpkB.s:3315   .text:00001054 Timebase_UpCounter_SS_Set_Period_Value_Securely
C:\Users\WALTON\AppData\Local\Temp/cch3HpkB.s:3377   .text:0000109c Timebase_UpCounter_SS_Get_Remaining_Period_Value
C:\Users\WALTON\AppData\Local\Temp/cch3HpkB.s:3435   .text:000010e8 Timebase_UpCounter_SS_Period_Value_Expired
C:\Users\WALTON\AppData\Local\Temp/cch3HpkB.s:3527   .text:00001164 Timebase_UpCounter_SS_Period_Value_Expired_Event
C:\Users\WALTON\AppData\Local\Temp/cch3HpkB.s:3579   .text:000011a4 Timebase_UpCounter_SS_Update_All
C:\Users\WALTON\AppData\Local\Temp/cch3HpkB.s:3596   .text:000011ac Timebase_UpCounter_SS_Reset_All
C:\Users\WALTON\AppData\Local\Temp/cch3HpkB.s:3613   .text:000011b4 Timebase_UpCounter_Get_Status
C:\Users\WALTON\AppData\Local\Temp/cch3HpkB.s:3647   .text:000011de Timebase_UpCounter_Set_Status
C:\Users\WALTON\AppData\Local\Temp/cch3HpkB.s:3685   .text:0000120e Timebase_UpCounter_Get_Value
C:\Users\WALTON\AppData\Local\Temp/cch3HpkB.s:3723   .text:0000123e Timebase_UpCounter_Set_Value
C:\Users\WALTON\AppData\Local\Temp/cch3HpkB.s:3775   .text:00001286 Timebase_UpCounter_Get_EndValueSec
C:\Users\WALTON\AppData\Local\Temp/cch3HpkB.s:3818   .text:000012c0 Timebase_UpCounter_Get_EndValueSubSec
C:\Users\WALTON\AppData\Local\Temp/cch3HpkB.s:3861   .text:000012fa Timebase_UpCounter_Set_EndValueSec
C:\Users\WALTON\AppData\Local\Temp/cch3HpkB.s:3896   .text:00001326 Timebase_UpCounter_Set_EndValueSubSec
C:\Users\WALTON\AppData\Local\Temp/cch3HpkB.s:3931   .text:00001352 Timebase_UpCounter_Get_TargetValue
C:\Users\WALTON\AppData\Local\Temp/cch3HpkB.s:3968   .text:00001380 Timebase_UpCounter_Set_TargetValue
C:\Users\WALTON\AppData\Local\Temp/cch3HpkB.s:4004   .text:000013ae Timebase_UpCounter_Get_TemporaryValue
C:\Users\WALTON\AppData\Local\Temp/cch3HpkB.s:4042   .text:000013de Timebase_UpCounter_Set_TemporaryValue
C:\Users\WALTON\AppData\Local\Temp/cch3HpkB.s:4094   .text:00001426 Timebase_UpCounter_Get_PeriodValue
C:\Users\WALTON\AppData\Local\Temp/cch3HpkB.s:4132   .text:00001456 Timebase_UpCounter_Set_PeriodValue
C:\Users\WALTON\AppData\Local\Temp/cch3HpkB.s:4169   .text:00001486 Timebase_UpCounter_Get_Period_Flag
C:\Users\WALTON\AppData\Local\Temp/cch3HpkB.s:4202   .text:000014ae Timebase_UpCounter_Set_Period_Flag
C:\Users\WALTON\AppData\Local\Temp/cch3HpkB.s:4236   .text:000014d8 Timebase_UpCounter_Clear_Period_Flag
C:\Users\WALTON\AppData\Local\Temp/cch3HpkB.s:4270   .text:00001502 Timebase_UpCounter_Reset
C:\Users\WALTON\AppData\Local\Temp/cch3HpkB.s:4365   .text:00001564 Timebase_UpCounter_Clear_All_Flags
C:\Users\WALTON\AppData\Local\Temp/cch3HpkB.s:4381   .text:0000156a Timebase_UpCounter_Start
C:\Users\WALTON\AppData\Local\Temp/cch3HpkB.s:4429   .text:000015a0 Timebase_UpCounter_Stop
C:\Users\WALTON\AppData\Local\Temp/cch3HpkB.s:4477   .text:000015d6 Timebase_UpCounter_Set_Securely
C:\Users\WALTON\AppData\Local\Temp/cch3HpkB.s:4589   .text:0000164c Timebase_UpCounter_Set_Forcefully
C:\Users\WALTON\AppData\Local\Temp/cch3HpkB.s:4625   .text:00001676 Timebase_UpCounter_Update
C:\Users\WALTON\AppData\Local\Temp/cch3HpkB.s:4923   .text:00001802 Timebase_UpCounter_Expired
C:\Users\WALTON\AppData\Local\Temp/cch3HpkB.s:4963   .text:00001836 Timebase_UpCounter_Expired_Event
C:\Users\WALTON\AppData\Local\Temp/cch3HpkB.s:5012   .text:00001874 Timebase_UpCounter_Set_Period_Value_Securely
C:\Users\WALTON\AppData\Local\Temp/cch3HpkB.s:5087   .text:000018d2 Timebase_UpCounter_Get_Remaining_Period_Value
C:\Users\WALTON\AppData\Local\Temp/cch3HpkB.s:5151   .text:0000192a Timebase_UpCounter_Period_Value_Expired
C:\Users\WALTON\AppData\Local\Temp/cch3HpkB.s:5249   .text:000019b2 Timebase_UpCounter_Period_Value_Expired_Event
C:\Users\WALTON\AppData\Local\Temp/cch3HpkB.s:5301   .text:000019f2 Timebase_UpCounter_Update_All
C:\Users\WALTON\AppData\Local\Temp/cch3HpkB.s:5318   .text:000019fa Timebase_UpCounter_Reset_All
C:\Users\WALTON\AppData\Local\Temp/cch3HpkB.s:5335   .text:00001a02 Timebase_DownCounter_SS_Get_Status
C:\Users\WALTON\AppData\Local\Temp/cch3HpkB.s:5369   .text:00001a2c Timebase_DownCounter_SS_Set_Status
C:\Users\WALTON\AppData\Local\Temp/cch3HpkB.s:5407   .text:00001a5c Timebase_DownCounter_SS_Get_Value
C:\Users\WALTON\AppData\Local\Temp/cch3HpkB.s:5443   .text:00001a88 Timebase_DownCounter_SS_Set_Value
C:\Users\WALTON\AppData\Local\Temp/cch3HpkB.s:5477   .text:00001ab4 Timebase_DownCounter_SS_Get_EndValueSec
C:\Users\WALTON\AppData\Local\Temp/cch3HpkB.s:5513   .text:00001ae0 Timebase_DownCounter_SS_Get_EndValueSubSec
C:\Users\WALTON\AppData\Local\Temp/cch3HpkB.s:5549   .text:00001b0c Timebase_DownCounter_SS_Set_EndValueSec
C:\Users\WALTON\AppData\Local\Temp/cch3HpkB.s:5583   .text:00001b38 Timebase_DownCounter_SS_Set_EndValueSubSec
C:\Users\WALTON\AppData\Local\Temp/cch3HpkB.s:5617   .text:00001b64 Timebase_DownCounter_SS_Get_PeriodValue
C:\Users\WALTON\AppData\Local\Temp/cch3HpkB.s:5653   .text:00001b90 Timebase_DownCounter_SS_Set_PeriodValue
C:\Users\WALTON\AppData\Local\Temp/cch3HpkB.s:5710   .text:00001be4 Timebase_DownCounter_SS_Get_Period_Flag
C:\Users\WALTON\AppData\Local\Temp/cch3HpkB.s:5743   .text:00001c0c Timebase_DownCounter_SS_Set_Period_Flag
C:\Users\WALTON\AppData\Local\Temp/cch3HpkB.s:5777   .text:00001c36 Timebase_DownCounter_SS_Clear_Period_Flag
C:\Users\WALTON\AppData\Local\Temp/cch3HpkB.s:5811   .text:00001c60 Timebase_DownCounter_SS_Reset
C:\Users\WALTON\AppData\Local\Temp/cch3HpkB.s:5882   .text:00001ca6 Timebase_DownCounter_SS_Clear_All_Flags
C:\Users\WALTON\AppData\Local\Temp/cch3HpkB.s:5957   .text:00001cec Timebase_DownCounter_SS_Start
C:\Users\WALTON\AppData\Local\Temp/cch3HpkB.s:6005   .text:00001d22 Timebase_DownCounter_SS_Stop
C:\Users\WALTON\AppData\Local\Temp/cch3HpkB.s:6053   .text:00001d58 Timebase_DownCounter_SS_Set_Securely
C:\Users\WALTON\AppData\Local\Temp/cch3HpkB.s:6315   .text:00001ed4 Timebase_DownCounter_SS_Set_Forcefully
C:\Users\WALTON\AppData\Local\Temp/cch3HpkB.s:6393   .text:00001f20 Timebase_DownCounter_SS_Update
C:\Users\WALTON\AppData\Local\Temp/cch3HpkB.s:6712   .text:000020c0 Timebase_DownCounter_SS_Expired
C:\Users\WALTON\AppData\Local\Temp/cch3HpkB.s:6752   .text:000020f4 Timebase_DownCounter_SS_Expired_Event
C:\Users\WALTON\AppData\Local\Temp/cch3HpkB.s:6847   .text:0000214e Timebase_DownCounter_SS_Set_Period_Value_Securely
C:\Users\WALTON\AppData\Local\Temp/cch3HpkB.s:6944   .text:000021ce Timebase_DownCounter_SS_Get_Remaining_Period_Value
C:\Users\WALTON\AppData\Local\Temp/cch3HpkB.s:7006   .text:00002222 Timebase_DownCounter_SS_Period_Value_Expired
C:\Users\WALTON\AppData\Local\Temp/cch3HpkB.s:7103   .text:000022a8 Timebase_DownCounter_SS_Period_Value_Expired_Event
C:\Users\WALTON\AppData\Local\Temp/cch3HpkB.s:7155   .text:000022e8 Timebase_DownCounter_SS_Update_All
C:\Users\WALTON\AppData\Local\Temp/cch3HpkB.s:7172   .text:000022f0 Timebase_DownCounter_SS_Reset_All
C:\Users\WALTON\AppData\Local\Temp/cch3HpkB.s:7236   .text:00002320 Timebase_DownCounter_Get_Status
C:\Users\WALTON\AppData\Local\Temp/cch3HpkB.s:7272   .text:0000234e Timebase_DownCounter_Set_Status
C:\Users\WALTON\AppData\Local\Temp/cch3HpkB.s:7312   .text:00002382 Timebase_DownCounter_Get_Value
C:\Users\WALTON\AppData\Local\Temp/cch3HpkB.s:7350   .text:000023b2 Timebase_DownCounter_Set_Value
C:\Users\WALTON\AppData\Local\Temp/cch3HpkB.s:7387   .text:000023e2 Timebase_DownCounter_Get_EndValue
C:\Users\WALTON\AppData\Local\Temp/cch3HpkB.s:7425   .text:00002412 Timebase_DownCounter_Set_EndValue
C:\Users\WALTON\AppData\Local\Temp/cch3HpkB.s:7462   .text:00002442 Timebase_DownCounter_Get_PeriodValue
C:\Users\WALTON\AppData\Local\Temp/cch3HpkB.s:7500   .text:00002472 Timebase_DownCounter_Set_PeriodValue
C:\Users\WALTON\AppData\Local\Temp/cch3HpkB.s:7562   .text:000024ce Timebase_DownCounter_Get_Period_Flag
C:\Users\WALTON\AppData\Local\Temp/cch3HpkB.s:7597   .text:000024fa Timebase_DownCounter_Set_Period_Flag
C:\Users\WALTON\AppData\Local\Temp/cch3HpkB.s:7633   .text:00002528 Timebase_DownCounter_Clear_Period_Flag
C:\Users\WALTON\AppData\Local\Temp/cch3HpkB.s:7669   .text:00002556 Timebase_DownCounter_Reset
C:\Users\WALTON\AppData\Local\Temp/cch3HpkB.s:7732   .text:00002596 Timebase_DownCounter_Clear_All_Flags
C:\Users\WALTON\AppData\Local\Temp/cch3HpkB.s:7799   .text:000025d6 Timebase_DownCounter_Start
C:\Users\WALTON\AppData\Local\Temp/cch3HpkB.s:7849   .text:00002610 Timebase_DownCounter_Stop
C:\Users\WALTON\AppData\Local\Temp/cch3HpkB.s:7899   .text:0000264a Timebase_DownCounter_Set_Securely
C:\Users\WALTON\AppData\Local\Temp/cch3HpkB.s:7999   .text:000026bc Timebase_DownCounter_Set_Forcefully
C:\Users\WALTON\AppData\Local\Temp/cch3HpkB.s:8073   .text:0000270a Timebase_DownCounter_Update
C:\Users\WALTON\AppData\Local\Temp/cch3HpkB.s:8240   .text:000027d4 Timebase_DownCounter_Expired
C:\Users\WALTON\AppData\Local\Temp/cch3HpkB.s:8282   .text:0000280c Timebase_DownCounter_Expired_Event
C:\Users\WALTON\AppData\Local\Temp/cch3HpkB.s:8369   .text:00002860 Timebase_DownCounter_Set_Period_Value_Securely
C:\Users\WALTON\AppData\Local\Temp/cch3HpkB.s:8468   .text:000028e4 Timebase_DownCounter_Get_Remaining_Period_Value
C:\Users\WALTON\AppData\Local\Temp/cch3HpkB.s:8532   .text:0000293c Timebase_DownCounter_Period_Value_Expired
C:\Users\WALTON\AppData\Local\Temp/cch3HpkB.s:8632   .text:000029c8 Timebase_DownCounter_Period_Value_Expired_Event
C:\Users\WALTON\AppData\Local\Temp/cch3HpkB.s:8686   .text:00002a0c Timebase_DownCounter_Update_All
C:\Users\WALTON\AppData\Local\Temp/cch3HpkB.s:8703   .text:00002a14 Timebase_DownCounter_Reset_All
C:\Users\WALTON\AppData\Local\Temp/cch3HpkB.s:8757   .text:00002a3a Timebase_Reset
C:\Users\WALTON\AppData\Local\Temp/cch3HpkB.s:8775   .text:00002a48 Timebase_Init
C:\Users\WALTON\AppData\Local\Temp/cch3HpkB.s:8802   .text:00002a62 Timebase_Main_Loop_Executables
C:\Users\WALTON\AppData\Local\Temp/cch3HpkB.s:8886   .text:00002afe Timebase_ISR_Executables
C:\Users\WALTON\AppData\Local\Temp/cch3HpkB.s:8944   .text:00002b52 __vector_16

UNDEFINED SYMBOLS
__divmodsi4
__mulsi3
__do_copy_data
__do_clear_bss
