   1               		.file	"timebase.c"
   2               	__SREG__ = 0x3f
   3               	__SP_H__ = 0x3e
   4               	__SP_L__ = 0x3d
   5               	__CCP__  = 0x34
   6               	__tmp_reg__ = 0
   7               	__zero_reg__ = 1
  15               	.Ltext0:
  16               	.global	Timebase_Struct_Init
  18               	Timebase_Struct_Init:
  19               	.LFB6:
  20               	.LM1:
  21               	/* prologue: function */
  22               	/* frame size = 0 */
  23               	.LM2:
  24 0000 80E0      		ldi r24,lo8(Timebase_type)
  25 0002 90E0      		ldi r25,hi8(Timebase_type)
  26 0004 9093 0000 		sts (Timebase)+1,r25
  27 0008 8093 0000 		sts Timebase,r24
  28               	.LM3:
  29 000c 1092 0000 		sts Timebase_type,__zero_reg__
  30               	.LM4:
  31 0010 8091 0000 		lds r24,Timebase_type
  32 0014 8460      		ori r24,lo8(4)
  33 0016 8093 0000 		sts Timebase_type,r24
  34               	.LM5:
  35 001a 8091 0000 		lds r24,Timebase_type
  36 001e 8770      		andi r24,lo8(7)
  37 0020 8093 0000 		sts Timebase_type,r24
  38               	.LM6:
  39 0024 81E0      		ldi r24,lo8(1)
  40 0026 90E0      		ldi r25,hi8(1)
  41 0028 9093 0000 		sts (Timebase_type+1)+1,r25
  42 002c 8093 0000 		sts Timebase_type+1,r24
  43               	.LM7:
  44 0030 1092 0000 		sts Timebase_type+3,__zero_reg__
  45               	.LM8:
  46 0034 1092 0000 		sts (Timebase_type+8)+1,__zero_reg__
  47 0038 1092 0000 		sts Timebase_type+8,__zero_reg__
  48               	.LM9:
  49 003c 1092 0000 		sts Timebase_type+10,__zero_reg__
  50 0040 1092 0000 		sts (Timebase_type+10)+1,__zero_reg__
  51 0044 1092 0000 		sts (Timebase_type+10)+2,__zero_reg__
  52 0048 1092 0000 		sts (Timebase_type+10)+3,__zero_reg__
  53               	.LM10:
  54 004c 1092 0000 		sts Timebase_type+4,__zero_reg__
  55 0050 1092 0000 		sts (Timebase_type+4)+1,__zero_reg__
  56 0054 1092 0000 		sts (Timebase_type+4)+2,__zero_reg__
  57 0058 1092 0000 		sts (Timebase_type+4)+3,__zero_reg__
  58               	.LM11:
  59 005c 1092 0000 		sts Timebase_type+14,__zero_reg__
  60 0060 1092 0000 		sts (Timebase_type+14)+1,__zero_reg__
  61 0064 1092 0000 		sts (Timebase_type+14)+2,__zero_reg__
  62 0068 1092 0000 		sts (Timebase_type+14)+3,__zero_reg__
  63               	.LM12:
  64 006c 1092 0000 		sts Timebase_type+18,__zero_reg__
  65 0070 1092 0000 		sts (Timebase_type+18)+1,__zero_reg__
  66 0074 1092 0000 		sts (Timebase_type+18)+2,__zero_reg__
  67 0078 1092 0000 		sts (Timebase_type+18)+3,__zero_reg__
  68               	.LM13:
  69 007c 1092 0000 		sts Timebase_type+22,__zero_reg__
  70               	.LM14:
  71 0080 1092 0000 		sts Timebase_type+23,__zero_reg__
  72               	.LBB276:
  73               	.LM15:
  74 0084 1092 0000 		sts Timebase_type+24,__zero_reg__
  75               	.LM16:
  76 0088 1092 0000 		sts Timebase_type+25,__zero_reg__
  77 008c 1092 0000 		sts (Timebase_type+25)+1,__zero_reg__
  78 0090 1092 0000 		sts (Timebase_type+25)+2,__zero_reg__
  79 0094 1092 0000 		sts (Timebase_type+25)+3,__zero_reg__
  80               	.LM17:
  81 0098 1092 0000 		sts Timebase_type+29,__zero_reg__
  82 009c 1092 0000 		sts (Timebase_type+29)+1,__zero_reg__
  83 00a0 1092 0000 		sts (Timebase_type+29)+2,__zero_reg__
  84 00a4 1092 0000 		sts (Timebase_type+29)+3,__zero_reg__
  85               	.LM18:
  86 00a8 1092 0000 		sts Timebase_type+33,__zero_reg__
  87 00ac 1092 0000 		sts (Timebase_type+33)+1,__zero_reg__
  88 00b0 1092 0000 		sts (Timebase_type+33)+2,__zero_reg__
  89 00b4 1092 0000 		sts (Timebase_type+33)+3,__zero_reg__
  90               	.LM19:
  91 00b8 1092 0000 		sts Timebase_type+37,__zero_reg__
  92 00bc 1092 0000 		sts (Timebase_type+37)+1,__zero_reg__
  93 00c0 1092 0000 		sts (Timebase_type+37)+2,__zero_reg__
  94 00c4 1092 0000 		sts (Timebase_type+37)+3,__zero_reg__
  95               	.LM20:
  96 00c8 1092 0000 		sts Timebase_type+41,__zero_reg__
  97 00cc 1092 0000 		sts (Timebase_type+41)+1,__zero_reg__
  98 00d0 1092 0000 		sts (Timebase_type+41)+2,__zero_reg__
  99 00d4 1092 0000 		sts (Timebase_type+41)+3,__zero_reg__
 100               	.LBE276:
 101               	.LBB277:
 102               	.LM21:
 103 00d8 1092 0000 		sts Timebase_type+45,__zero_reg__
 104               	.LM22:
 105 00dc 1092 0000 		sts Timebase_type+46,__zero_reg__
 106 00e0 1092 0000 		sts (Timebase_type+46)+1,__zero_reg__
 107 00e4 1092 0000 		sts (Timebase_type+46)+2,__zero_reg__
 108 00e8 1092 0000 		sts (Timebase_type+46)+3,__zero_reg__
 109               	.LM23:
 110 00ec 1092 0000 		sts Timebase_type+50,__zero_reg__
 111 00f0 1092 0000 		sts (Timebase_type+50)+1,__zero_reg__
 112 00f4 1092 0000 		sts (Timebase_type+50)+2,__zero_reg__
 113 00f8 1092 0000 		sts (Timebase_type+50)+3,__zero_reg__
 114               	.LM24:
 115 00fc 1092 0000 		sts Timebase_type+54,__zero_reg__
 116 0100 1092 0000 		sts (Timebase_type+54)+1,__zero_reg__
 117 0104 1092 0000 		sts (Timebase_type+54)+2,__zero_reg__
 118 0108 1092 0000 		sts (Timebase_type+54)+3,__zero_reg__
 119               	.LM25:
 120 010c 1092 0000 		sts Timebase_type+58,__zero_reg__
 121 0110 1092 0000 		sts (Timebase_type+58)+1,__zero_reg__
 122 0114 1092 0000 		sts (Timebase_type+58)+2,__zero_reg__
 123 0118 1092 0000 		sts (Timebase_type+58)+3,__zero_reg__
 124               	.LM26:
 125 011c 1092 0000 		sts Timebase_type+62,__zero_reg__
 126 0120 1092 0000 		sts (Timebase_type+62)+1,__zero_reg__
 127 0124 1092 0000 		sts (Timebase_type+62)+2,__zero_reg__
 128 0128 1092 0000 		sts (Timebase_type+62)+3,__zero_reg__
 129               	.LBE277:
 130               	.LBB278:
 131               	.LM27:
 132 012c 1092 0000 		sts Timebase_type+66,__zero_reg__
 133               	.LM28:
 134 0130 1092 0000 		sts Timebase_type+67,__zero_reg__
 135 0134 1092 0000 		sts (Timebase_type+67)+1,__zero_reg__
 136 0138 1092 0000 		sts (Timebase_type+67)+2,__zero_reg__
 137 013c 1092 0000 		sts (Timebase_type+67)+3,__zero_reg__
 138               	.LM29:
 139 0140 1092 0000 		sts Timebase_type+71,__zero_reg__
 140 0144 1092 0000 		sts (Timebase_type+71)+1,__zero_reg__
 141 0148 1092 0000 		sts (Timebase_type+71)+2,__zero_reg__
 142 014c 1092 0000 		sts (Timebase_type+71)+3,__zero_reg__
 143               	.LM30:
 144 0150 1092 0000 		sts Timebase_type+75,__zero_reg__
 145 0154 1092 0000 		sts (Timebase_type+75)+1,__zero_reg__
 146 0158 1092 0000 		sts (Timebase_type+75)+2,__zero_reg__
 147 015c 1092 0000 		sts (Timebase_type+75)+3,__zero_reg__
 148               	.LBE278:
 149               	.LBB279:
 150               	.LM31:
 151 0160 1092 0000 		sts Timebase_type+79,__zero_reg__
 152               	.LM32:
 153 0164 1092 0000 		sts Timebase_type+80,__zero_reg__
 154 0168 1092 0000 		sts (Timebase_type+80)+1,__zero_reg__
 155 016c 1092 0000 		sts (Timebase_type+80)+2,__zero_reg__
 156 0170 1092 0000 		sts (Timebase_type+80)+3,__zero_reg__
 157               	.LM33:
 158 0174 1092 0000 		sts Timebase_type+84,__zero_reg__
 159 0178 1092 0000 		sts (Timebase_type+84)+1,__zero_reg__
 160 017c 1092 0000 		sts (Timebase_type+84)+2,__zero_reg__
 161 0180 1092 0000 		sts (Timebase_type+84)+3,__zero_reg__
 162               	.LM34:
 163 0184 1092 0000 		sts Timebase_type+88,__zero_reg__
 164 0188 1092 0000 		sts (Timebase_type+88)+1,__zero_reg__
 165 018c 1092 0000 		sts (Timebase_type+88)+2,__zero_reg__
 166 0190 1092 0000 		sts (Timebase_type+88)+3,__zero_reg__
 167               	/* epilogue start */
 168               	.LBE279:
 169               	.LM35:
 170 0194 0895      		ret
 171               	.LFE6:
 173               	.global	Timebase_Timer_Config
 175               	Timebase_Timer_Config:
 176               	.LFB7:
 177               	.LM36:
 178               	.LVL0:
 179 0196 7F92      		push r7
 180 0198 8F92      		push r8
 181 019a 9F92      		push r9
 182 019c AF92      		push r10
 183 019e BF92      		push r11
 184 01a0 CF92      		push r12
 185 01a2 DF92      		push r13
 186 01a4 EF92      		push r14
 187 01a6 FF92      		push r15
 188 01a8 0F93      		push r16
 189 01aa 1F93      		push r17
 190 01ac DF93      		push r29
 191 01ae CF93      		push r28
 192 01b0 CDB7      		in r28,__SP_L__
 193 01b2 DEB7      		in r29,__SP_H__
 194 01b4 2A97      		sbiw r28,10
 195 01b6 0FB6      		in __tmp_reg__,__SREG__
 196 01b8 F894      		cli
 197 01ba DEBF      		out __SP_H__,r29
 198 01bc 0FBE      		out __SREG__,__tmp_reg__
 199 01be CDBF      		out __SP_L__,r28
 200               	/* prologue: function */
 201               	/* frame size = 10 */
 202 01c0 8C01      		movw r16,r24
 203               	.LM37:
 204 01c2 C090 0000 		lds r12,Timebase
 205 01c6 D090 0000 		lds r13,(Timebase)+1
 206 01ca F601      		movw r30,r12
 207 01cc 8081      		ld r24,Z
 208               	.LVL1:
 209 01ce 80FF      		sbrs r24,0
 210 01d0 00C0      		rjmp .L4
 211               	.LBB280:
 212               	.LM38:
 213 01d2 0130      		cpi r16,1
 214 01d4 1105      		cpc r17,__zero_reg__
 215 01d6 01F4      		brne .L5
 216 01d8 96E0      		ldi r25,lo8(6)
 217               	.LVL2:
 218 01da 00C0      		rjmp .L6
 219               	.LVL3:
 220               	.L5:
 221               	.LM39:
 222 01dc 0230      		cpi r16,2
 223 01de 1105      		cpc r17,__zero_reg__
 224 01e0 01F4      		brne .L7
 225 01e2 95E0      		ldi r25,lo8(5)
 226               	.LVL4:
 227 01e4 00C0      		rjmp .L6
 228               	.LVL5:
 229               	.L7:
 230               	.LM40:
 231 01e6 0430      		cpi r16,4
 232 01e8 1105      		cpc r17,__zero_reg__
 233 01ea 01F4      		brne .L8
 234 01ec 94E0      		ldi r25,lo8(4)
 235               	.LVL6:
 236 01ee 00C0      		rjmp .L6
 237               	.LVL7:
 238               	.L8:
 239               	.LM41:
 240 01f0 0830      		cpi r16,8
 241 01f2 1105      		cpc r17,__zero_reg__
 242 01f4 01F4      		brne .L9
 243 01f6 93E0      		ldi r25,lo8(3)
 244               	.LVL8:
 245 01f8 00C0      		rjmp .L6
 246               	.LVL9:
 247               	.L9:
 248               	.LM42:
 249 01fa 0031      		cpi r16,16
 250 01fc 1105      		cpc r17,__zero_reg__
 251 01fe 01F4      		brne .L10
 252 0200 92E0      		ldi r25,lo8(2)
 253               	.LVL10:
 254 0202 00C0      		rjmp .L6
 255               	.LVL11:
 256               	.L10:
 257 0204 90E0      		ldi r25,lo8(0)
 258               	.LVL12:
 259 0206 0032      		cpi r16,32
 260 0208 1105      		cpc r17,__zero_reg__
 261 020a 01F4      		brne .L6
 262 020c 91E0      		ldi r25,lo8(1)
 263               	.L6:
 264               	.LM43:
 265               	/* #APP */
 266               	 ;  241 "timebase.c" 1
 267 020e F894      		cli
 268               	 ;  0 "" 2
 269               	.LM44:
 270               	/* #NOAPP */
 271 0210 84B7      		in r24,84-32
 272 0212 877F      		andi r24,lo8(-9)
 273 0214 84BF      		out 84-32,r24
 274               	.LM45:
 275 0216 8091 6000 		lds r24,96
 276 021a 8068      		ori r24,lo8(-128)
 277 021c 8093 6000 		sts 96,r24
 278               	.LM46:
 279 0220 8091 6000 		lds r24,96
 280 0224 8861      		ori r24,lo8(24)
 281 0226 8093 6000 		sts 96,r24
 282               	.LM47:
 283 022a 9064      		ori r25,lo8(64)
 284 022c 9093 6000 		sts 96,r25
 285               	.LM48:
 286               	/* #APP */
 287               	 ;  246 "timebase.c" 1
 288 0230 7894      		sei
 289               	 ;  0 "" 2
 290               	/* #NOAPP */
 291 0232 00C0      		rjmp .L12
 292               	.LVL13:
 293               	.L4:
 294               	.LBE280:
 295               	.LM49:
 296 0234 81FD      		sbrc r24,1
 297 0236 00C0      		rjmp .L12
 298               	.LM50:
 299 0238 82FF      		sbrs r24,2
 300 023a 00C0      		rjmp .L12
 301               	.LBB281:
 302               	.LM51:
 303 023c DE01      		movw r26,r28
 304 023e 1196      		adiw r26,1
 305 0240 E0E0      		ldi r30,lo8(C.2.1368)
 306 0242 F0E0      		ldi r31,hi8(C.2.1368)
 307 0244 8AE0      		ldi r24,lo8(10)
 308               	.L13:
 309 0246 0190      		ld r0,Z+
 310 0248 0D92      		st X+,r0
 311 024a 8150      		subi r24,lo8(-(-1))
 312 024c 01F4      		brne .L13
 313               	.LM52:
 314 024e 9801      		movw r18,r16
 315 0250 40E0      		ldi r20,lo8(0)
 316 0252 50E0      		ldi r21,hi8(0)
 317               	.LVL14:
 318 0254 60E0      		ldi r22,lo8(8000000)
 319 0256 72E1      		ldi r23,hi8(8000000)
 320 0258 8AE7      		ldi r24,hlo8(8000000)
 321 025a 90E0      		ldi r25,hhi8(8000000)
 322 025c 0E94 0000 		call __divmodsi4
 323 0260 722E      		mov r7,r18
 324 0262 832E      		mov r8,r19
 325 0264 942E      		mov r9,r20
 326               	.LVL15:
 327 0266 E52E      		mov r14,r21
 328 0268 5E01      		movw r10,r28
 329 026a 0894      		sec
 330 026c A11C      		adc r10,__zero_reg__
 331 026e B11C      		adc r11,__zero_reg__
 332 0270 C901      		movw r24,r18
 333 0272 DA01      		movw r26,r20
 334 0274 9C01      		movw r18,r24
 335 0276 AD01      		movw r20,r26
 336               	.LVL16:
 337 0278 FF24      		clr r15
 338               	.LVL17:
 339 027a 00C0      		rjmp .L14
 340               	.LVL18:
 341               	.L16:
 342               	.LM53:
 343 027c F501      		movw r30,r10
 344 027e 2191      		ld r18,Z+
 345 0280 3191      		ld r19,Z+
 346               	.LVL19:
 347 0282 5F01      		movw r10,r30
 348 0284 40E0      		ldi r20,lo8(0)
 349 0286 50E0      		ldi r21,hi8(0)
 350 0288 672D      		mov r22,r7
 351 028a 782D      		mov r23,r8
 352 028c 892D      		mov r24,r9
 353               	.LVL20:
 354 028e 9E2D      		mov r25,r14
 355 0290 0E94 0000 		call __divmodsi4
 356 0294 C901      		movw r24,r18
 357 0296 DA01      		movw r26,r20
 358 0298 9C01      		movw r18,r24
 359 029a AD01      		movw r20,r26
 360               	.LVL21:
 361               	.LM54:
 362 029c F394      		inc r15
 363               	.LM55:
 364 029e F5E0      		ldi r31,lo8(5)
 365 02a0 FF16      		cp r15,r31
 366 02a2 01F0      		breq .L15
 367               	.LVL22:
 368               	.L14:
 369               	.LM56:
 370 02a4 2F3F      		cpi r18,lo8(255)
 371 02a6 3105      		cpc r19,__zero_reg__
 372 02a8 4105      		cpc r20,__zero_reg__
 373 02aa 5105      		cpc r21,__zero_reg__
 374 02ac 01F0      		breq .+2
 375 02ae 04F4      		brge .L16
 376               	.L15:
 377               	.LM57:
 378 02b0 8F2D      		mov r24,r15
 379 02b2 8150      		subi r24,lo8(-(-1))
 380               	.LVL23:
 381               	.LM58:
 382 02b4 14BC      		out 68-32,__zero_reg__
 383               	.LM59:
 384 02b6 15BC      		out 69-32,__zero_reg__
 385               	.LM60:
 386 02b8 1092 6E00 		sts 110,__zero_reg__
 387               	.LM61:
 388 02bc 15BA      		out 53-32,__zero_reg__
 389               	.LM62:
 390 02be 17BC      		out 71-32,__zero_reg__
 391               	.LM63:
 392 02c0 18BC      		out 72-32,__zero_reg__
 393               	.LM64:
 394 02c2 16BC      		out 70-32,__zero_reg__
 395               	.LM65:
 396 02c4 17BC      		out 71-32,__zero_reg__
 397               	.LM66:
 398 02c6 8823      		tst r24
 399 02c8 01F4      		brne .L17
 400               	.LM67:
 401 02ca 81E0      		ldi r24,lo8(1)
 402               	.LVL24:
 403 02cc 00C0      		rjmp .L24
 404               	.LVL25:
 405               	.L17:
 406               	.LM68:
 407 02ce 8130      		cpi r24,lo8(1)
 408 02d0 01F4      		brne .L19
 409               	.LM69:
 410 02d2 82E0      		ldi r24,lo8(2)
 411               	.LVL26:
 412 02d4 00C0      		rjmp .L24
 413               	.LVL27:
 414               	.L19:
 415               	.LM70:
 416 02d6 8230      		cpi r24,lo8(2)
 417 02d8 01F4      		brne .L20
 418               	.LM71:
 419 02da 83E0      		ldi r24,lo8(3)
 420               	.LVL28:
 421 02dc 00C0      		rjmp .L24
 422               	.LVL29:
 423               	.L20:
 424               	.LM72:
 425 02de 8330      		cpi r24,lo8(3)
 426 02e0 01F4      		brne .L21
 427               	.LM73:
 428 02e2 84E0      		ldi r24,lo8(4)
 429               	.LVL30:
 430 02e4 00C0      		rjmp .L24
 431               	.LVL31:
 432               	.L21:
 433               	.LM74:
 434 02e6 8430      		cpi r24,lo8(4)
 435 02e8 01F4      		brne .L18
 436               	.LM75:
 437 02ea 85E0      		ldi r24,lo8(5)
 438               	.LVL32:
 439               	.L24:
 440 02ec 85BD      		out 69-32,r24
 441               	.LVL33:
 442               	.L18:
 443               	.LM76:
 444 02ee 822F      		mov r24,r18
 445               	.LVL34:
 446 02f0 8095      		com r24
 447 02f2 F601      		movw r30,r12
 448 02f4 8383      		std Z+3,r24
 449               	.LM77:
 450 02f6 8381      		ldd r24,Z+3
 451 02f8 86BD      		out 70-32,r24
 452               	.LM78:
 453 02fa 81E0      		ldi r24,lo8(1)
 454 02fc 8093 6E00 		sts 110,r24
 455               	.LM79:
 456               	/* #APP */
 457               	 ;  294 "timebase.c" 1
 458 0300 7894      		sei
 459               	 ;  0 "" 2
 460               	.LVL35:
 461               	/* #NOAPP */
 462               	.L12:
 463               	.LBE281:
 464               	.LM80:
 465 0302 F601      		movw r30,r12
 466 0304 1283      		std Z+2,r17
 467 0306 0183      		std Z+1,r16
 468               	/* epilogue start */
 469               	.LM81:
 470 0308 2A96      		adiw r28,10
 471 030a 0FB6      		in __tmp_reg__,__SREG__
 472 030c F894      		cli
 473 030e DEBF      		out __SP_H__,r29
 474 0310 0FBE      		out __SREG__,__tmp_reg__
 475 0312 CDBF      		out __SP_L__,r28
 476 0314 CF91      		pop r28
 477 0316 DF91      		pop r29
 478 0318 1F91      		pop r17
 479 031a 0F91      		pop r16
 480               	.LVL36:
 481 031c FF90      		pop r15
 482 031e EF90      		pop r14
 483 0320 DF90      		pop r13
 484 0322 CF90      		pop r12
 485 0324 BF90      		pop r11
 486 0326 AF90      		pop r10
 487 0328 9F90      		pop r9
 488 032a 8F90      		pop r8
 489 032c 7F90      		pop r7
 490 032e 0895      		ret
 491               	.LFE7:
 493               	.global	Timebase_Token_Executing
 495               	Timebase_Token_Executing:
 496               	.LFB8:
 497               	.LM82:
 498               	/* prologue: function */
 499               	/* frame size = 0 */
 500               	.LM83:
 501 0330 E091 0000 		lds r30,Timebase
 502 0334 F091 0000 		lds r31,(Timebase)+1
 503 0338 8789      		ldd r24,Z+23
 504               	/* epilogue start */
 505               	.LM84:
 506 033a 0895      		ret
 507               	.LFE8:
 509               	.global	Timebase_Token_Add
 511               	Timebase_Token_Add:
 512               	.LFB9:
 513               	.LM85:
 514               	/* prologue: function */
 515               	/* frame size = 0 */
 516               	.LBB282:
 517               	.LBB283:
 518               	.LM86:
 519 033c E091 0000 		lds r30,Timebase
 520 0340 F091 0000 		lds r31,(Timebase)+1
 521 0344 8789      		ldd r24,Z+23
 522               	.LBE283:
 523               	.LBE282:
 524               	.LM87:
 525 0346 8F33      		cpi r24,lo8(63)
 526 0348 00F4      		brsh .L29
 527               	.LM88:
 528 034a 8789      		ldd r24,Z+23
 529 034c 8F5F      		subi r24,lo8(-(1))
 530 034e 878B      		std Z+23,r24
 531               	.L29:
 532 0350 0895      		ret
 533               	.LFE9:
 535               	.global	Timebase_Token_Remove
 537               	Timebase_Token_Remove:
 538               	.LFB10:
 539               	.LM89:
 540               	/* prologue: function */
 541               	/* frame size = 0 */
 542               	.LBB284:
 543               	.LBB285:
 544               	.LM90:
 545 0352 E091 0000 		lds r30,Timebase
 546 0356 F091 0000 		lds r31,(Timebase)+1
 547 035a 8789      		ldd r24,Z+23
 548               	.LBE285:
 549               	.LBE284:
 550               	.LM91:
 551 035c 8823      		tst r24
 552 035e 01F0      		breq .L32
 553               	.LM92:
 554 0360 8789      		ldd r24,Z+23
 555 0362 8150      		subi r24,lo8(-(-1))
 556 0364 878B      		std Z+23,r24
 557               	.L32:
 558 0366 0895      		ret
 559               	.LFE10:
 561               	.global	Timebase_Token_Remove_All
 563               	Timebase_Token_Remove_All:
 564               	.LFB11:
 565               	.LM93:
 566               	/* prologue: function */
 567               	/* frame size = 0 */
 568               	.LM94:
 569 0368 E091 0000 		lds r30,Timebase
 570 036c F091 0000 		lds r31,(Timebase)+1
 571 0370 178A      		std Z+23,__zero_reg__
 572               	/* epilogue start */
 573               	.LM95:
 574 0372 0895      		ret
 575               	.LFE11:
 577               	.global	Timebase_Timer_Get_SubSeconds
 579               	Timebase_Timer_Get_SubSeconds:
 580               	.LFB12:
 581               	.LM96:
 582               	/* prologue: function */
 583               	/* frame size = 0 */
 584               	.LM97:
 585 0374 E091 0000 		lds r30,Timebase
 586 0378 F091 0000 		lds r31,(Timebase)+1
 587 037c 2085      		ldd r18,Z+8
 588 037e 3185      		ldd r19,Z+9
 589               	.LM98:
 590 0380 C901      		movw r24,r18
 591               	/* epilogue start */
 592 0382 0895      		ret
 593               	.LFE12:
 595               	.global	Timebase_Timer_Get_Seconds
 597               	Timebase_Timer_Get_Seconds:
 598               	.LFB13:
 599               	.LM99:
 600               	/* prologue: function */
 601               	/* frame size = 0 */
 602               	.LM100:
 603 0384 E091 0000 		lds r30,Timebase
 604 0388 F091 0000 		lds r31,(Timebase)+1
 605 038c 2285      		ldd r18,Z+10
 606 038e 3385      		ldd r19,Z+11
 607 0390 4485      		ldd r20,Z+12
 608 0392 5585      		ldd r21,Z+13
 609               	.LM101:
 610 0394 B901      		movw r22,r18
 611 0396 CA01      		movw r24,r20
 612               	/* epilogue start */
 613 0398 0895      		ret
 614               	.LFE13:
 616               	.global	Timebase_Timer_Set_SubSeconds
 618               	Timebase_Timer_Set_SubSeconds:
 619               	.LFB14:
 620               	.LM102:
 621               	.LVL37:
 622               	/* prologue: function */
 623               	/* frame size = 0 */
 624               	.LM103:
 625 039a E091 0000 		lds r30,Timebase
 626 039e F091 0000 		lds r31,(Timebase)+1
 627 03a2 9187      		std Z+9,r25
 628 03a4 8087      		std Z+8,r24
 629               	/* epilogue start */
 630               	.LM104:
 631 03a6 0895      		ret
 632               	.LFE14:
 634               	.global	Timebase_Timer_Set_Seconds
 636               	Timebase_Timer_Set_Seconds:
 637               	.LFB15:
 638               	.LM105:
 639               	.LVL38:
 640               	/* prologue: function */
 641               	/* frame size = 0 */
 642               	.LM106:
 643 03a8 E091 0000 		lds r30,Timebase
 644 03ac F091 0000 		lds r31,(Timebase)+1
 645 03b0 6287      		std Z+10,r22
 646 03b2 7387      		std Z+11,r23
 647 03b4 8487      		std Z+12,r24
 648 03b6 9587      		std Z+13,r25
 649               	/* epilogue start */
 650               	.LM107:
 651 03b8 0895      		ret
 652               	.LFE15:
 654               	.global	Timebase_Timer_Delay_SubSeconds
 656               	Timebase_Timer_Delay_SubSeconds:
 657               	.LFB16:
 658               	.LM108:
 659               	.LVL39:
 660               	/* prologue: function */
 661               	/* frame size = 0 */
 662 03ba 9C01      		movw r18,r24
 663               	.LBB286:
 664               	.LBB287:
 665               	.LBB288:
 666               	.LBB289:
 667               	.LM109:
 668 03bc E091 0000 		lds r30,Timebase
 669 03c0 F091 0000 		lds r31,(Timebase)+1
 670 03c4 8789      		ldd r24,Z+23
 671               	.LVL40:
 672               	.LBE289:
 673               	.LBE288:
 674               	.LM110:
 675 03c6 8F33      		cpi r24,lo8(63)
 676 03c8 00F4      		brsh .L44
 677               	.LM111:
 678 03ca 8789      		ldd r24,Z+23
 679 03cc 8F5F      		subi r24,lo8(-(1))
 680 03ce 878B      		std Z+23,r24
 681               	.L44:
 682               	.LBE287:
 683               	.LBE286:
 684               	.LBB290:
 685               	.LBB291:
 686               	.LM112:
 687 03d0 8085      		ldd r24,Z+8
 688 03d2 9185      		ldd r25,Z+9
 689               	.LBE291:
 690               	.LBE290:
 691               	.LM113:
 692 03d4 A0E0      		ldi r26,lo8(0)
 693 03d6 B0E0      		ldi r27,hi8(0)
 694               	.LVL41:
 695               	.LM114:
 696 03d8 40E0      		ldi r20,lo8(0)
 697 03da 50E0      		ldi r21,hi8(0)
 698               	.LVL42:
 699 03dc 280F      		add r18,r24
 700 03de 391F      		adc r19,r25
 701 03e0 4A1F      		adc r20,r26
 702 03e2 5B1F      		adc r21,r27
 703               	.LVL43:
 704               	.L45:
 705               	.LBB292:
 706               	.LBB293:
 707               	.LM115:
 708 03e4 8085      		ldd r24,Z+8
 709 03e6 9185      		ldd r25,Z+9
 710               	.LBE293:
 711               	.LBE292:
 712               	.LM116:
 713 03e8 A0E0      		ldi r26,lo8(0)
 714 03ea B0E0      		ldi r27,hi8(0)
 715 03ec 8217      		cp r24,r18
 716 03ee 9307      		cpc r25,r19
 717 03f0 A407      		cpc r26,r20
 718 03f2 B507      		cpc r27,r21
 719 03f4 04F0      		brlt .L45
 720               	.LBB294:
 721               	.LBB295:
 722               	.LBB296:
 723               	.LBB297:
 724               	.LM117:
 725 03f6 8789      		ldd r24,Z+23
 726               	.LBE297:
 727               	.LBE296:
 728               	.LM118:
 729 03f8 8823      		tst r24
 730 03fa 01F0      		breq .L47
 731               	.LM119:
 732 03fc 8789      		ldd r24,Z+23
 733 03fe 8150      		subi r24,lo8(-(-1))
 734 0400 878B      		std Z+23,r24
 735               	.L47:
 736 0402 0895      		ret
 737               	.LBE295:
 738               	.LBE294:
 739               	.LFE16:
 741               	.global	Timebase_Timer_Await_SubSeconds
 743               	Timebase_Timer_Await_SubSeconds:
 744               	.LFB17:
 745               	.LM120:
 746               	.LVL44:
 747               	/* prologue: function */
 748               	/* frame size = 0 */
 749 0404 BC01      		movw r22,r24
 750               	.LBB298:
 751               	.LBB299:
 752               	.LM121:
 753 0406 E091 0000 		lds r30,Timebase
 754 040a F091 0000 		lds r31,(Timebase)+1
 755               	.LVL45:
 756               	.L50:
 757 040e 8085      		ldd r24,Z+8
 758 0410 9185      		ldd r25,Z+9
 759               	.LBE299:
 760               	.LBE298:
 761               	.LM122:
 762 0412 2481      		ldd r18,Z+4
 763 0414 3581      		ldd r19,Z+5
 764 0416 4681      		ldd r20,Z+6
 765 0418 5781      		ldd r21,Z+7
 766 041a A0E0      		ldi r26,lo8(0)
 767 041c B0E0      		ldi r27,hi8(0)
 768 041e 8217      		cp r24,r18
 769 0420 9307      		cpc r25,r19
 770 0422 A407      		cpc r26,r20
 771 0424 B507      		cpc r27,r21
 772 0426 01F4      		brne .L50
 773               	.LBB300:
 774               	.LBB301:
 775               	.LM123:
 776 0428 8085      		ldd r24,Z+8
 777 042a 9185      		ldd r25,Z+9
 778               	.LBE301:
 779               	.LBE300:
 780               	.LM124:
 781 042c 860F      		add r24,r22
 782 042e 971F      		adc r25,r23
 783 0430 A0E0      		ldi r26,lo8(0)
 784 0432 B0E0      		ldi r27,hi8(0)
 785 0434 8483      		std Z+4,r24
 786 0436 9583      		std Z+5,r25
 787 0438 A683      		std Z+6,r26
 788 043a B783      		std Z+7,r27
 789               	.LM125:
 790 043c 2481      		ldd r18,Z+4
 791 043e 3581      		ldd r19,Z+5
 792 0440 4681      		ldd r20,Z+6
 793 0442 5781      		ldd r21,Z+7
 794 0444 8181      		ldd r24,Z+1
 795 0446 9281      		ldd r25,Z+2
 796 0448 A0E0      		ldi r26,lo8(0)
 797 044a B0E0      		ldi r27,hi8(0)
 798 044c 2817      		cp r18,r24
 799 044e 3907      		cpc r19,r25
 800 0450 4A07      		cpc r20,r26
 801 0452 5B07      		cpc r21,r27
 802 0454 04F0      		brlt .L52
 803               	.LM126:
 804 0456 2481      		ldd r18,Z+4
 805 0458 3581      		ldd r19,Z+5
 806 045a 4681      		ldd r20,Z+6
 807 045c 5781      		ldd r21,Z+7
 808 045e 8181      		ldd r24,Z+1
 809 0460 9281      		ldd r25,Z+2
 810 0462 A0E0      		ldi r26,lo8(0)
 811 0464 B0E0      		ldi r27,hi8(0)
 812 0466 281B      		sub r18,r24
 813 0468 390B      		sbc r19,r25
 814 046a 4A0B      		sbc r20,r26
 815 046c 5B0B      		sbc r21,r27
 816 046e 2483      		std Z+4,r18
 817 0470 3583      		std Z+5,r19
 818 0472 4683      		std Z+6,r20
 819 0474 5783      		std Z+7,r21
 820               	.L52:
 821 0476 0895      		ret
 822               	.LFE17:
 824               	.global	Timebase_Timer_Delay_Seconds
 826               	Timebase_Timer_Delay_Seconds:
 827               	.LFB18:
 828               	.LM127:
 829               	.LVL46:
 830 0478 EF92      		push r14
 831 047a FF92      		push r15
 832 047c 0F93      		push r16
 833 047e 1F93      		push r17
 834               	/* prologue: function */
 835               	/* frame size = 0 */
 836               	.LBB302:
 837               	.LBB303:
 838               	.LM128:
 839 0480 E091 0000 		lds r30,Timebase
 840 0484 F091 0000 		lds r31,(Timebase)+1
 841 0488 2285      		ldd r18,Z+10
 842 048a 3385      		ldd r19,Z+11
 843 048c 4485      		ldd r20,Z+12
 844 048e 5585      		ldd r21,Z+13
 845               	.LBE303:
 846               	.LBE302:
 847               	.LM129:
 848 0490 7C01      		movw r14,r24
 849               	.LVL47:
 850 0492 00E0      		ldi r16,lo8(0)
 851 0494 10E0      		ldi r17,hi8(0)
 852               	.LVL48:
 853 0496 E20E      		add r14,r18
 854 0498 F31E      		adc r15,r19
 855 049a 041F      		adc r16,r20
 856 049c 151F      		adc r17,r21
 857               	.LVL49:
 858               	.L55:
 859               	.LBB304:
 860               	.LBB305:
 861               	.LM130:
 862 049e 8285      		ldd r24,Z+10
 863 04a0 9385      		ldd r25,Z+11
 864 04a2 A485      		ldd r26,Z+12
 865 04a4 B585      		ldd r27,Z+13
 866               	.LVL50:
 867               	.LBE305:
 868               	.LBE304:
 869               	.LM131:
 870 04a6 8E15      		cp r24,r14
 871 04a8 9F05      		cpc r25,r15
 872 04aa A007      		cpc r26,r16
 873 04ac B107      		cpc r27,r17
 874 04ae 04F0      		brlt .L55
 875               	/* epilogue start */
 876               	.LM132:
 877 04b0 1F91      		pop r17
 878 04b2 0F91      		pop r16
 879               	.LVL51:
 880 04b4 FF90      		pop r15
 881 04b6 EF90      		pop r14
 882               	.LVL52:
 883 04b8 0895      		ret
 884               	.LFE18:
 886               	.global	Timebase_Window_Timer_Reset
 888               	Timebase_Window_Timer_Reset:
 889               	.LFB19:
 890               	.LM133:
 891               	/* prologue: function */
 892               	/* frame size = 0 */
 893               	.LM134:
 894 04ba E091 0000 		lds r30,Timebase
 895 04be F091 0000 		lds r31,(Timebase)+1
 896 04c2 1686      		std Z+14,__zero_reg__
 897 04c4 1786      		std Z+15,__zero_reg__
 898 04c6 108A      		std Z+16,__zero_reg__
 899 04c8 118A      		std Z+17,__zero_reg__
 900               	.LM135:
 901 04ca 128A      		std Z+18,__zero_reg__
 902 04cc 138A      		std Z+19,__zero_reg__
 903 04ce 148A      		std Z+20,__zero_reg__
 904 04d0 158A      		std Z+21,__zero_reg__
 905               	.LM136:
 906 04d2 168A      		std Z+22,__zero_reg__
 907               	/* epilogue start */
 908               	.LM137:
 909 04d4 0895      		ret
 910               	.LFE19:
 912               	.global	Timebase_Window_Timer_Start
 914               	Timebase_Window_Timer_Start:
 915               	.LFB20:
 916               	.LM138:
 917               	/* prologue: function */
 918               	/* frame size = 0 */
 919               	.LM139:
 920 04d6 E091 0000 		lds r30,Timebase
 921 04da F091 0000 		lds r31,(Timebase)+1
 922 04de 8689      		ldd r24,Z+22
 923 04e0 8823      		tst r24
 924 04e2 01F4      		brne .L62
 925               	.LBB306:
 926               	.LBB307:
 927               	.LM140:
 928 04e4 8285      		ldd r24,Z+10
 929 04e6 9385      		ldd r25,Z+11
 930 04e8 A485      		ldd r26,Z+12
 931 04ea B585      		ldd r27,Z+13
 932               	.LBE307:
 933               	.LBE306:
 934               	.LM141:
 935 04ec 8687      		std Z+14,r24
 936 04ee 9787      		std Z+15,r25
 937 04f0 A08B      		std Z+16,r26
 938 04f2 B18B      		std Z+17,r27
 939               	.LBB308:
 940               	.LBB309:
 941               	.LM142:
 942 04f4 8085      		ldd r24,Z+8
 943 04f6 9185      		ldd r25,Z+9
 944               	.LBE309:
 945               	.LBE308:
 946               	.LM143:
 947 04f8 A0E0      		ldi r26,lo8(0)
 948 04fa B0E0      		ldi r27,hi8(0)
 949 04fc 828B      		std Z+18,r24
 950 04fe 938B      		std Z+19,r25
 951 0500 A48B      		std Z+20,r26
 952 0502 B58B      		std Z+21,r27
 953               	.LM144:
 954 0504 81E0      		ldi r24,lo8(1)
 955 0506 868B      		std Z+22,r24
 956               	.L62:
 957 0508 0895      		ret
 958               	.LFE20:
 960               	.global	Timebase_Window_Timer_Get_Interval
 962               	Timebase_Window_Timer_Get_Interval:
 963               	.LFB21:
 964               	.LM145:
 965 050a EF92      		push r14
 966 050c FF92      		push r15
 967 050e 0F93      		push r16
 968 0510 1F93      		push r17
 969 0512 CF93      		push r28
 970 0514 DF93      		push r29
 971               	/* prologue: function */
 972               	/* frame size = 0 */
 973               	.LM146:
 974 0516 C091 0000 		lds r28,Timebase
 975 051a D091 0000 		lds r29,(Timebase)+1
 976 051e 8E89      		ldd r24,Y+22
 977 0520 8130      		cpi r24,lo8(1)
 978 0522 01F0      		breq .L64
 979 0524 EE24      		clr r14
 980 0526 FF24      		clr r15
 981 0528 8701      		movw r16,r14
 982               	.LVL53:
 983 052a 00C0      		rjmp .L65
 984               	.LVL54:
 985               	.L64:
 986               	.LBB310:
 987               	.LBB311:
 988               	.LBB312:
 989               	.LM147:
 990 052c 2A85      		ldd r18,Y+10
 991 052e 3B85      		ldd r19,Y+11
 992 0530 4C85      		ldd r20,Y+12
 993 0532 5D85      		ldd r21,Y+13
 994               	.LVL55:
 995               	.LBE312:
 996               	.LBE311:
 997               	.LBB313:
 998               	.LBB314:
 999               	.LM148:
 1000 0534 8885      		ldd r24,Y+8
 1001 0536 9985      		ldd r25,Y+9
 1002               	.LBE314:
 1003               	.LBE313:
 1004               	.LM149:
 1005 0538 7C01      		movw r14,r24
 1006               	.LVL56:
 1007 053a 00E0      		ldi r16,lo8(0)
 1008 053c 10E0      		ldi r17,hi8(0)
 1009               	.LVL57:
 1010               	.LM150:
 1011 053e 8E85      		ldd r24,Y+14
 1012 0540 9F85      		ldd r25,Y+15
 1013 0542 A889      		ldd r26,Y+16
 1014 0544 B989      		ldd r27,Y+17
 1015 0546 281B      		sub r18,r24
 1016 0548 390B      		sbc r19,r25
 1017 054a 4A0B      		sbc r20,r26
 1018 054c 5B0B      		sbc r21,r27
 1019               	.LVL58:
 1020               	.LM151:
 1021 054e 6981      		ldd r22,Y+1
 1022 0550 7A81      		ldd r23,Y+2
 1023 0552 80E0      		ldi r24,lo8(0)
 1024 0554 90E0      		ldi r25,hi8(0)
 1025 0556 0E94 0000 		call __mulsi3
 1026               	.LVL59:
 1027               	.LM152:
 1028 055a 2A89      		ldd r18,Y+18
 1029 055c 3B89      		ldd r19,Y+19
 1030 055e 4C89      		ldd r20,Y+20
 1031 0560 5D89      		ldd r21,Y+21
 1032 0562 E21A      		sub r14,r18
 1033 0564 F30A      		sbc r15,r19
 1034 0566 040B      		sbc r16,r20
 1035 0568 150B      		sbc r17,r21
 1036               	.LVL60:
 1037 056a E60E      		add r14,r22
 1038 056c F71E      		adc r15,r23
 1039 056e 081F      		adc r16,r24
 1040 0570 191F      		adc r17,r25
 1041               	.L65:
 1042               	.LBE310:
 1043               	.LM153:
 1044 0572 B701      		movw r22,r14
 1045               	.LVL61:
 1046 0574 C801      		movw r24,r16
 1047               	.LVL62:
 1048               	/* epilogue start */
 1049 0576 DF91      		pop r29
 1050 0578 CF91      		pop r28
 1051 057a 1F91      		pop r17
 1052 057c 0F91      		pop r16
 1053 057e FF90      		pop r15
 1054 0580 EF90      		pop r14
 1055 0582 0895      		ret
 1056               	.LFE21:
 1058               	.global	Timebase_Window_Timer_Get_Interval_Reset
 1060               	Timebase_Window_Timer_Get_Interval_Reset:
 1061               	.LFB22:
 1062               	.LM154:
 1063               	/* prologue: function */
 1064               	/* frame size = 0 */
 1065               	.LM155:
 1066 0584 0E94 0000 		call Timebase_Window_Timer_Get_Interval
 1067 0588 282F      		mov r18,r24
 1068               	.LVL63:
 1069               	.LM156:
 1070 058a E091 0000 		lds r30,Timebase
 1071 058e F091 0000 		lds r31,(Timebase)+1
 1072 0592 8689      		ldd r24,Z+22
 1073 0594 8130      		cpi r24,lo8(1)
 1074 0596 01F4      		brne .L68
 1075               	.LBB315:
 1076               	.LBB316:
 1077               	.LM157:
 1078 0598 1686      		std Z+14,__zero_reg__
 1079 059a 1786      		std Z+15,__zero_reg__
 1080 059c 108A      		std Z+16,__zero_reg__
 1081 059e 118A      		std Z+17,__zero_reg__
 1082               	.LM158:
 1083 05a0 128A      		std Z+18,__zero_reg__
 1084 05a2 138A      		std Z+19,__zero_reg__
 1085 05a4 148A      		std Z+20,__zero_reg__
 1086 05a6 158A      		std Z+21,__zero_reg__
 1087               	.LM159:
 1088 05a8 168A      		std Z+22,__zero_reg__
 1089               	.L68:
 1090               	.LBE316:
 1091               	.LBE315:
 1092               	.LM160:
 1093 05aa 822F      		mov r24,r18
 1094               	/* epilogue start */
 1095 05ac 0895      		ret
 1096               	.LFE22:
 1098               	.global	Timebase_UpCounter_Get_Status
 1100               	Timebase_UpCounter_Get_Status:
 1101               	.LFB23:
 1102               	.LM161:
 1103               	.LVL64:
 1104               	/* prologue: function */
 1105               	/* frame size = 0 */
 1106               	.LM162:
 1107 05ae E091 0000 		lds r30,Timebase
 1108 05b2 F091 0000 		lds r31,(Timebase)+1
 1109 05b6 90E0      		ldi r25,lo8(0)
 1110               	.LVL65:
 1111 05b8 2AE2      		ldi r18,lo8(42)
 1112 05ba 30E0      		ldi r19,hi8(42)
 1113 05bc AC01      		movw r20,r24
 1114 05be 429F      		mul r20,r18
 1115 05c0 C001      		movw r24,r0
 1116 05c2 439F      		mul r20,r19
 1117 05c4 900D      		add r25,r0
 1118 05c6 529F      		mul r21,r18
 1119 05c8 900D      		add r25,r0
 1120 05ca 1124      		clr r1
 1121               	.LVL66:
 1122 05cc E80F      		add r30,r24
 1123 05ce F91F      		adc r31,r25
 1124 05d0 808D      		ldd r24,Z+24
 1125 05d2 8695      		lsr r24
 1126               	.LM163:
 1127 05d4 8F70      		andi r24,lo8(15)
 1128               	/* epilogue start */
 1129 05d6 0895      		ret
 1130               	.LFE23:
 1132               	.global	Timebase_UpCounter_Set_Status
 1134               	Timebase_UpCounter_Set_Status:
 1135               	.LFB24:
 1136               	.LM164:
 1137               	.LVL67:
 1138               	/* prologue: function */
 1139               	/* frame size = 0 */
 1140               	.LM165:
 1141 05d8 E091 0000 		lds r30,Timebase
 1142 05dc F091 0000 		lds r31,(Timebase)+1
 1143 05e0 90E0      		ldi r25,lo8(0)
 1144               	.LVL68:
 1145 05e2 2AE2      		ldi r18,lo8(42)
 1146 05e4 30E0      		ldi r19,hi8(42)
 1147 05e6 AC01      		movw r20,r24
 1148 05e8 429F      		mul r20,r18
 1149 05ea C001      		movw r24,r0
 1150 05ec 439F      		mul r20,r19
 1151 05ee 900D      		add r25,r0
 1152 05f0 529F      		mul r21,r18
 1153 05f2 900D      		add r25,r0
 1154 05f4 1124      		clr r1
 1155               	.LVL69:
 1156 05f6 E80F      		add r30,r24
 1157 05f8 F91F      		adc r31,r25
 1158 05fa 6F70      		andi r22,lo8(15)
 1159               	.LVL70:
 1160 05fc 660F      		lsl r22
 1161 05fe 808D      		ldd r24,Z+24
 1162 0600 817E      		andi r24,lo8(-31)
 1163 0602 862B      		or r24,r22
 1164 0604 808F      		std Z+24,r24
 1165               	/* epilogue start */
 1166               	.LM166:
 1167 0606 0895      		ret
 1168               	.LFE24:
 1170               	.global	Timebase_UpCounter_Get_Value
 1172               	Timebase_UpCounter_Get_Value:
 1173               	.LFB25:
 1174               	.LM167:
 1175               	.LVL71:
 1176               	/* prologue: function */
 1177               	/* frame size = 0 */
 1178               	.LM168:
 1179 0608 E091 0000 		lds r30,Timebase
 1180 060c F091 0000 		lds r31,(Timebase)+1
 1181 0610 90E0      		ldi r25,lo8(0)
 1182               	.LVL72:
 1183 0612 2AE2      		ldi r18,lo8(42)
 1184 0614 30E0      		ldi r19,hi8(42)
 1185 0616 AC01      		movw r20,r24
 1186 0618 429F      		mul r20,r18
 1187 061a C001      		movw r24,r0
 1188 061c 439F      		mul r20,r19
 1189 061e 900D      		add r25,r0
 1190 0620 529F      		mul r21,r18
 1191 0622 900D      		add r25,r0
 1192 0624 1124      		clr r1
 1193               	.LVL73:
 1194 0626 E80F      		add r30,r24
 1195 0628 F91F      		adc r31,r25
 1196 062a DF01      		movw r26,r30
 1197 062c 9596      		adiw r26,37
 1198 062e 65A1      		ldd r22,Z+37
 1199 0630 1196      		adiw r26,1
 1200 0632 7C91      		ld r23,X
 1201 0634 1197      		sbiw r26,1
 1202               	.LM169:
 1203 0636 1296      		adiw r26,2
 1204 0638 8C91      		ld r24,X
 1205 063a 1297      		sbiw r26,2
 1206 063c 1396      		adiw r26,3
 1207 063e 9C91      		ld r25,X
 1208               	.LVL74:
 1209               	/* epilogue start */
 1210 0640 0895      		ret
 1211               	.LFE25:
 1213               	.global	Timebase_UpCounter_Set_Value
 1215               	Timebase_UpCounter_Set_Value:
 1216               	.LFB26:
 1217               	.LM170:
 1218               	.LVL75:
 1219               	/* prologue: function */
 1220               	/* frame size = 0 */
 1221               	.LM171:
 1222 0642 E091 0000 		lds r30,Timebase
 1223 0646 F091 0000 		lds r31,(Timebase)+1
 1224 064a 90E0      		ldi r25,lo8(0)
 1225               	.LVL76:
 1226 064c 2AE2      		ldi r18,lo8(42)
 1227 064e 30E0      		ldi r19,hi8(42)
 1228 0650 DC01      		movw r26,r24
 1229 0652 A29F      		mul r26,r18
 1230 0654 C001      		movw r24,r0
 1231 0656 A39F      		mul r26,r19
 1232 0658 900D      		add r25,r0
 1233 065a B29F      		mul r27,r18
 1234 065c 900D      		add r25,r0
 1235 065e 1124      		clr r1
 1236               	.LVL77:
 1237 0660 E80F      		add r30,r24
 1238 0662 F91F      		adc r31,r25
 1239 0664 45A3      		std Z+37,r20
 1240 0666 56A3      		std Z+38,r21
 1241 0668 67A3      		std Z+39,r22
 1242 066a 70A7      		std Z+40,r23
 1243               	/* epilogue start */
 1244               	.LM172:
 1245 066c 0895      		ret
 1246               	.LFE26:
 1248               	.global	Timebase_UpCounter_Get_EndValue
 1250               	Timebase_UpCounter_Get_EndValue:
 1251               	.LFB27:
 1252               	.LM173:
 1253               	.LVL78:
 1254               	/* prologue: function */
 1255               	/* frame size = 0 */
 1256               	.LM174:
 1257 066e E091 0000 		lds r30,Timebase
 1258 0672 F091 0000 		lds r31,(Timebase)+1
 1259 0676 90E0      		ldi r25,lo8(0)
 1260               	.LVL79:
 1261 0678 2AE2      		ldi r18,lo8(42)
 1262 067a 30E0      		ldi r19,hi8(42)
 1263 067c AC01      		movw r20,r24
 1264 067e 429F      		mul r20,r18
 1265 0680 C001      		movw r24,r0
 1266 0682 439F      		mul r20,r19
 1267 0684 900D      		add r25,r0
 1268 0686 529F      		mul r21,r18
 1269 0688 900D      		add r25,r0
 1270 068a 1124      		clr r1
 1271               	.LVL80:
 1272 068c E80F      		add r30,r24
 1273 068e F91F      		adc r31,r25
 1274 0690 DF01      		movw r26,r30
 1275 0692 5996      		adiw r26,25
 1276 0694 618D      		ldd r22,Z+25
 1277 0696 1196      		adiw r26,1
 1278 0698 7C91      		ld r23,X
 1279 069a 1197      		sbiw r26,1
 1280               	.LM175:
 1281 069c 1296      		adiw r26,2
 1282 069e 8C91      		ld r24,X
 1283 06a0 1297      		sbiw r26,2
 1284 06a2 1396      		adiw r26,3
 1285 06a4 9C91      		ld r25,X
 1286               	.LVL81:
 1287               	/* epilogue start */
 1288 06a6 0895      		ret
 1289               	.LFE27:
 1291               	.global	Timebase_UpCounter_Set_EndValue
 1293               	Timebase_UpCounter_Set_EndValue:
 1294               	.LFB28:
 1295               	.LM176:
 1296               	.LVL82:
 1297               	/* prologue: function */
 1298               	/* frame size = 0 */
 1299               	.LM177:
 1300 06a8 E091 0000 		lds r30,Timebase
 1301 06ac F091 0000 		lds r31,(Timebase)+1
 1302 06b0 90E0      		ldi r25,lo8(0)
 1303               	.LVL83:
 1304 06b2 2AE2      		ldi r18,lo8(42)
 1305 06b4 30E0      		ldi r19,hi8(42)
 1306 06b6 DC01      		movw r26,r24
 1307 06b8 A29F      		mul r26,r18
 1308 06ba C001      		movw r24,r0
 1309 06bc A39F      		mul r26,r19
 1310 06be 900D      		add r25,r0
 1311 06c0 B29F      		mul r27,r18
 1312 06c2 900D      		add r25,r0
 1313 06c4 1124      		clr r1
 1314               	.LVL84:
 1315 06c6 E80F      		add r30,r24
 1316 06c8 F91F      		adc r31,r25
 1317 06ca 418F      		std Z+25,r20
 1318 06cc 528F      		std Z+26,r21
 1319 06ce 638F      		std Z+27,r22
 1320 06d0 748F      		std Z+28,r23
 1321               	/* epilogue start */
 1322               	.LM178:
 1323 06d2 0895      		ret
 1324               	.LFE28:
 1326               	.global	Timebase_UpCounter_Get_TargetValue
 1328               	Timebase_UpCounter_Get_TargetValue:
 1329               	.LFB29:
 1330               	.LM179:
 1331               	.LVL85:
 1332               	/* prologue: function */
 1333               	/* frame size = 0 */
 1334               	.LM180:
 1335 06d4 E091 0000 		lds r30,Timebase
 1336 06d8 F091 0000 		lds r31,(Timebase)+1
 1337 06dc 90E0      		ldi r25,lo8(0)
 1338               	.LVL86:
 1339 06de 2AE2      		ldi r18,lo8(42)
 1340 06e0 30E0      		ldi r19,hi8(42)
 1341 06e2 AC01      		movw r20,r24
 1342 06e4 429F      		mul r20,r18
 1343 06e6 C001      		movw r24,r0
 1344 06e8 439F      		mul r20,r19
 1345 06ea 900D      		add r25,r0
 1346 06ec 529F      		mul r21,r18
 1347 06ee 900D      		add r25,r0
 1348 06f0 1124      		clr r1
 1349               	.LVL87:
 1350 06f2 E80F      		add r30,r24
 1351 06f4 F91F      		adc r31,r25
 1352 06f6 DF01      		movw r26,r30
 1353 06f8 5D96      		adiw r26,29
 1354 06fa 658D      		ldd r22,Z+29
 1355 06fc 1196      		adiw r26,1
 1356 06fe 7C91      		ld r23,X
 1357 0700 1197      		sbiw r26,1
 1358               	.LM181:
 1359 0702 1296      		adiw r26,2
 1360 0704 8C91      		ld r24,X
 1361 0706 1297      		sbiw r26,2
 1362 0708 1396      		adiw r26,3
 1363 070a 9C91      		ld r25,X
 1364               	.LVL88:
 1365               	/* epilogue start */
 1366 070c 0895      		ret
 1367               	.LFE29:
 1369               	.global	Timebase_UpCounter_Set_TargetValue
 1371               	Timebase_UpCounter_Set_TargetValue:
 1372               	.LFB30:
 1373               	.LM182:
 1374               	.LVL89:
 1375               	/* prologue: function */
 1376               	/* frame size = 0 */
 1377               	.LM183:
 1378 070e E091 0000 		lds r30,Timebase
 1379 0712 F091 0000 		lds r31,(Timebase)+1
 1380 0716 90E0      		ldi r25,lo8(0)
 1381               	.LVL90:
 1382 0718 2AE2      		ldi r18,lo8(42)
 1383 071a 30E0      		ldi r19,hi8(42)
 1384 071c DC01      		movw r26,r24
 1385 071e A29F      		mul r26,r18
 1386 0720 C001      		movw r24,r0
 1387 0722 A39F      		mul r26,r19
 1388 0724 900D      		add r25,r0
 1389 0726 B29F      		mul r27,r18
 1390 0728 900D      		add r25,r0
 1391 072a 1124      		clr r1
 1392               	.LVL91:
 1393 072c E80F      		add r30,r24
 1394 072e F91F      		adc r31,r25
 1395 0730 458F      		std Z+29,r20
 1396 0732 568F      		std Z+30,r21
 1397 0734 678F      		std Z+31,r22
 1398 0736 70A3      		std Z+32,r23
 1399               	/* epilogue start */
 1400               	.LM184:
 1401 0738 0895      		ret
 1402               	.LFE30:
 1404               	.global	Timebase_UpCounter_Get_TemporaryValue
 1406               	Timebase_UpCounter_Get_TemporaryValue:
 1407               	.LFB31:
 1408               	.LM185:
 1409               	.LVL92:
 1410               	/* prologue: function */
 1411               	/* frame size = 0 */
 1412               	.LM186:
 1413 073a E091 0000 		lds r30,Timebase
 1414 073e F091 0000 		lds r31,(Timebase)+1
 1415 0742 90E0      		ldi r25,lo8(0)
 1416               	.LVL93:
 1417 0744 2AE2      		ldi r18,lo8(42)
 1418 0746 30E0      		ldi r19,hi8(42)
 1419 0748 AC01      		movw r20,r24
 1420 074a 429F      		mul r20,r18
 1421 074c C001      		movw r24,r0
 1422 074e 439F      		mul r20,r19
 1423 0750 900D      		add r25,r0
 1424 0752 529F      		mul r21,r18
 1425 0754 900D      		add r25,r0
 1426 0756 1124      		clr r1
 1427               	.LVL94:
 1428 0758 E80F      		add r30,r24
 1429 075a F91F      		adc r31,r25
 1430 075c DF01      		movw r26,r30
 1431 075e 9196      		adiw r26,33
 1432 0760 61A1      		ldd r22,Z+33
 1433 0762 1196      		adiw r26,1
 1434 0764 7C91      		ld r23,X
 1435 0766 1197      		sbiw r26,1
 1436               	.LM187:
 1437 0768 1296      		adiw r26,2
 1438 076a 8C91      		ld r24,X
 1439 076c 1297      		sbiw r26,2
 1440 076e 1396      		adiw r26,3
 1441 0770 9C91      		ld r25,X
 1442               	.LVL95:
 1443               	/* epilogue start */
 1444 0772 0895      		ret
 1445               	.LFE31:
 1447               	.global	Timebase_UpCounter_Set_TemporaryValue
 1449               	Timebase_UpCounter_Set_TemporaryValue:
 1450               	.LFB32:
 1451               	.LM188:
 1452               	.LVL96:
 1453               	/* prologue: function */
 1454               	/* frame size = 0 */
 1455               	.LM189:
 1456 0774 E091 0000 		lds r30,Timebase
 1457 0778 F091 0000 		lds r31,(Timebase)+1
 1458 077c 90E0      		ldi r25,lo8(0)
 1459               	.LVL97:
 1460 077e 2AE2      		ldi r18,lo8(42)
 1461 0780 30E0      		ldi r19,hi8(42)
 1462 0782 DC01      		movw r26,r24
 1463 0784 A29F      		mul r26,r18
 1464 0786 C001      		movw r24,r0
 1465 0788 A39F      		mul r26,r19
 1466 078a 900D      		add r25,r0
 1467 078c B29F      		mul r27,r18
 1468 078e 900D      		add r25,r0
 1469 0790 1124      		clr r1
 1470               	.LVL98:
 1471 0792 E80F      		add r30,r24
 1472 0794 F91F      		adc r31,r25
 1473 0796 41A3      		std Z+33,r20
 1474 0798 52A3      		std Z+34,r21
 1475 079a 63A3      		std Z+35,r22
 1476 079c 74A3      		std Z+36,r23
 1477               	/* epilogue start */
 1478               	.LM190:
 1479 079e 0895      		ret
 1480               	.LFE32:
 1482               	.global	Timebase_UpCounter_Get_PeriodValue
 1484               	Timebase_UpCounter_Get_PeriodValue:
 1485               	.LFB33:
 1486               	.LM191:
 1487               	.LVL99:
 1488               	/* prologue: function */
 1489               	/* frame size = 0 */
 1490               	.LM192:
 1491 07a0 E091 0000 		lds r30,Timebase
 1492 07a4 F091 0000 		lds r31,(Timebase)+1
 1493 07a8 90E0      		ldi r25,lo8(0)
 1494               	.LVL100:
 1495 07aa 2AE2      		ldi r18,lo8(42)
 1496 07ac 30E0      		ldi r19,hi8(42)
 1497 07ae AC01      		movw r20,r24
 1498 07b0 429F      		mul r20,r18
 1499 07b2 C001      		movw r24,r0
 1500 07b4 439F      		mul r20,r19
 1501 07b6 900D      		add r25,r0
 1502 07b8 529F      		mul r21,r18
 1503 07ba 900D      		add r25,r0
 1504 07bc 1124      		clr r1
 1505               	.LVL101:
 1506 07be E80F      		add r30,r24
 1507 07c0 F91F      		adc r31,r25
 1508 07c2 DF01      		movw r26,r30
 1509 07c4 9996      		adiw r26,41
 1510 07c6 61A5      		ldd r22,Z+41
 1511 07c8 1196      		adiw r26,1
 1512 07ca 7C91      		ld r23,X
 1513 07cc 1197      		sbiw r26,1
 1514               	.LM193:
 1515 07ce 1296      		adiw r26,2
 1516 07d0 8C91      		ld r24,X
 1517 07d2 1297      		sbiw r26,2
 1518 07d4 1396      		adiw r26,3
 1519 07d6 9C91      		ld r25,X
 1520               	.LVL102:
 1521               	/* epilogue start */
 1522 07d8 0895      		ret
 1523               	.LFE33:
 1525               	.global	Timebase_UpCounter_Set_PeriodValue
 1527               	Timebase_UpCounter_Set_PeriodValue:
 1528               	.LFB34:
 1529               	.LM194:
 1530               	.LVL103:
 1531               	/* prologue: function */
 1532               	/* frame size = 0 */
 1533               	.LM195:
 1534 07da E091 0000 		lds r30,Timebase
 1535 07de F091 0000 		lds r31,(Timebase)+1
 1536 07e2 90E0      		ldi r25,lo8(0)
 1537               	.LVL104:
 1538 07e4 2AE2      		ldi r18,lo8(42)
 1539 07e6 30E0      		ldi r19,hi8(42)
 1540 07e8 DC01      		movw r26,r24
 1541 07ea A29F      		mul r26,r18
 1542 07ec C001      		movw r24,r0
 1543 07ee A39F      		mul r26,r19
 1544 07f0 900D      		add r25,r0
 1545 07f2 B29F      		mul r27,r18
 1546 07f4 900D      		add r25,r0
 1547 07f6 1124      		clr r1
 1548               	.LVL105:
 1549 07f8 E80F      		add r30,r24
 1550 07fa F91F      		adc r31,r25
 1551 07fc 41A7      		std Z+41,r20
 1552 07fe 52A7      		std Z+42,r21
 1553 0800 63A7      		std Z+43,r22
 1554 0802 74A7      		std Z+44,r23
 1555               	/* epilogue start */
 1556               	.LM196:
 1557 0804 0895      		ret
 1558               	.LFE34:
 1560               	.global	Timebase_UpCounter_Get_Period_Flag
 1562               	Timebase_UpCounter_Get_Period_Flag:
 1563               	.LFB35:
 1564               	.LM197:
 1565               	.LVL106:
 1566               	/* prologue: function */
 1567               	/* frame size = 0 */
 1568               	.LM198:
 1569 0806 E091 0000 		lds r30,Timebase
 1570 080a F091 0000 		lds r31,(Timebase)+1
 1571 080e 90E0      		ldi r25,lo8(0)
 1572               	.LVL107:
 1573 0810 2AE2      		ldi r18,lo8(42)
 1574 0812 30E0      		ldi r19,hi8(42)
 1575 0814 AC01      		movw r20,r24
 1576 0816 429F      		mul r20,r18
 1577 0818 C001      		movw r24,r0
 1578 081a 439F      		mul r20,r19
 1579 081c 900D      		add r25,r0
 1580 081e 529F      		mul r21,r18
 1581 0820 900D      		add r25,r0
 1582 0822 1124      		clr r1
 1583               	.LVL108:
 1584 0824 E80F      		add r30,r24
 1585 0826 F91F      		adc r31,r25
 1586 0828 808D      		ldd r24,Z+24
 1587               	.LM199:
 1588 082a 8170      		andi r24,lo8(1)
 1589               	/* epilogue start */
 1590 082c 0895      		ret
 1591               	.LFE35:
 1593               	.global	Timebase_UpCounter_Set_Period_Flag
 1595               	Timebase_UpCounter_Set_Period_Flag:
 1596               	.LFB36:
 1597               	.LM200:
 1598               	.LVL109:
 1599               	/* prologue: function */
 1600               	/* frame size = 0 */
 1601               	.LM201:
 1602 082e E091 0000 		lds r30,Timebase
 1603 0832 F091 0000 		lds r31,(Timebase)+1
 1604 0836 90E0      		ldi r25,lo8(0)
 1605               	.LVL110:
 1606 0838 2AE2      		ldi r18,lo8(42)
 1607 083a 30E0      		ldi r19,hi8(42)
 1608 083c AC01      		movw r20,r24
 1609 083e 429F      		mul r20,r18
 1610 0840 C001      		movw r24,r0
 1611 0842 439F      		mul r20,r19
 1612 0844 900D      		add r25,r0
 1613 0846 529F      		mul r21,r18
 1614 0848 900D      		add r25,r0
 1615 084a 1124      		clr r1
 1616               	.LVL111:
 1617 084c E80F      		add r30,r24
 1618 084e F91F      		adc r31,r25
 1619 0850 808D      		ldd r24,Z+24
 1620 0852 8160      		ori r24,lo8(1)
 1621 0854 808F      		std Z+24,r24
 1622               	/* epilogue start */
 1623               	.LM202:
 1624 0856 0895      		ret
 1625               	.LFE36:
 1627               	.global	Timebase_UpCounter_Clear_Period_Flag
 1629               	Timebase_UpCounter_Clear_Period_Flag:
 1630               	.LFB37:
 1631               	.LM203:
 1632               	.LVL112:
 1633               	/* prologue: function */
 1634               	/* frame size = 0 */
 1635               	.LM204:
 1636 0858 E091 0000 		lds r30,Timebase
 1637 085c F091 0000 		lds r31,(Timebase)+1
 1638 0860 90E0      		ldi r25,lo8(0)
 1639               	.LVL113:
 1640 0862 2AE2      		ldi r18,lo8(42)
 1641 0864 30E0      		ldi r19,hi8(42)
 1642 0866 AC01      		movw r20,r24
 1643 0868 429F      		mul r20,r18
 1644 086a C001      		movw r24,r0
 1645 086c 439F      		mul r20,r19
 1646 086e 900D      		add r25,r0
 1647 0870 529F      		mul r21,r18
 1648 0872 900D      		add r25,r0
 1649 0874 1124      		clr r1
 1650               	.LVL114:
 1651 0876 E80F      		add r30,r24
 1652 0878 F91F      		adc r31,r25
 1653 087a 808D      		ldd r24,Z+24
 1654 087c 8E7F      		andi r24,lo8(-2)
 1655 087e 808F      		std Z+24,r24
 1656               	/* epilogue start */
 1657               	.LM205:
 1658 0880 0895      		ret
 1659               	.LFE37:
 1661               	.global	Timebase_UpCounter_Reset
 1663               	Timebase_UpCounter_Reset:
 1664               	.LFB38:
 1665               	.LM206:
 1666               	.LVL115:
 1667               	/* prologue: function */
 1668               	/* frame size = 0 */
 1669               	.LBB317:
 1670               	.LBB318:
 1671               	.LM207:
 1672 0882 E091 0000 		lds r30,Timebase
 1673 0886 F091 0000 		lds r31,(Timebase)+1
 1674 088a 90E0      		ldi r25,lo8(0)
 1675 088c 2AE2      		ldi r18,lo8(42)
 1676 088e 30E0      		ldi r19,hi8(42)
 1677 0890 AC01      		movw r20,r24
 1678               	.LVL116:
 1679 0892 429F      		mul r20,r18
 1680 0894 C001      		movw r24,r0
 1681 0896 439F      		mul r20,r19
 1682 0898 900D      		add r25,r0
 1683 089a 529F      		mul r21,r18
 1684 089c 900D      		add r25,r0
 1685 089e 1124      		clr r1
 1686 08a0 E80F      		add r30,r24
 1687 08a2 F91F      		adc r31,r25
 1688 08a4 808D      		ldd r24,Z+24
 1689               	.LBE318:
 1690               	.LBE317:
 1691               	.LBB319:
 1692               	.LBB320:
 1693               	.LM208:
 1694 08a6 15A2      		std Z+37,__zero_reg__
 1695 08a8 16A2      		std Z+38,__zero_reg__
 1696 08aa 17A2      		std Z+39,__zero_reg__
 1697 08ac 10A6      		std Z+40,__zero_reg__
 1698               	.LBE320:
 1699               	.LBE319:
 1700               	.LBB321:
 1701               	.LBB322:
 1702               	.LM209:
 1703 08ae 118E      		std Z+25,__zero_reg__
 1704 08b0 128E      		std Z+26,__zero_reg__
 1705 08b2 138E      		std Z+27,__zero_reg__
 1706 08b4 148E      		std Z+28,__zero_reg__
 1707               	.LBE322:
 1708               	.LBE321:
 1709               	.LBB323:
 1710               	.LBB324:
 1711               	.LM210:
 1712 08b6 158E      		std Z+29,__zero_reg__
 1713 08b8 168E      		std Z+30,__zero_reg__
 1714 08ba 178E      		std Z+31,__zero_reg__
 1715 08bc 10A2      		std Z+32,__zero_reg__
 1716               	.LBE324:
 1717               	.LBE323:
 1718               	.LBB325:
 1719               	.LBB326:
 1720               	.LM211:
 1721 08be 11A2      		std Z+33,__zero_reg__
 1722 08c0 12A2      		std Z+34,__zero_reg__
 1723 08c2 13A2      		std Z+35,__zero_reg__
 1724 08c4 14A2      		std Z+36,__zero_reg__
 1725               	.LBE326:
 1726               	.LBE325:
 1727               	.LBB327:
 1728               	.LBB328:
 1729               	.LM212:
 1730 08c6 11A6      		std Z+41,__zero_reg__
 1731 08c8 12A6      		std Z+42,__zero_reg__
 1732 08ca 13A6      		std Z+43,__zero_reg__
 1733 08cc 14A6      		std Z+44,__zero_reg__
 1734               	.LBE328:
 1735               	.LBE327:
 1736               	.LBB329:
 1737               	.LBB330:
 1738               	.LM213:
 1739 08ce 807E      		andi r24,lo8(-32)
 1740 08d0 808F      		std Z+24,r24
 1741               	/* epilogue start */
 1742               	.LBE330:
 1743               	.LBE329:
 1744               	.LM214:
 1745 08d2 0895      		ret
 1746               	.LFE38:
 1748               	.global	Timebase_UpCounter_Clear_All_Flags
 1750               	Timebase_UpCounter_Clear_All_Flags:
 1751               	.LFB39:
 1752               	.LM215:
 1753               	.LVL117:
 1754               	/* prologue: function */
 1755               	/* frame size = 0 */
 1756               	.LM216:
 1757 08d4 0E94 0000 		call Timebase_UpCounter_Reset
 1758               	.LVL118:
 1759               	/* epilogue start */
 1760               	.LM217:
 1761 08d8 0895      		ret
 1762               	.LFE39:
 1764               	.global	Timebase_UpCounter_Start
 1766               	Timebase_UpCounter_Start:
 1767               	.LFB40:
 1768               	.LM218:
 1769               	.LVL119:
 1770               	/* prologue: function */
 1771               	/* frame size = 0 */
 1772               	.LBB331:
 1773               	.LBB332:
 1774               	.LM219:
 1775 08da E091 0000 		lds r30,Timebase
 1776 08de F091 0000 		lds r31,(Timebase)+1
 1777 08e2 90E0      		ldi r25,lo8(0)
 1778               	.LBE332:
 1779               	.LBE331:
 1780               	.LM220:
 1781 08e4 2AE2      		ldi r18,lo8(42)
 1782 08e6 30E0      		ldi r19,hi8(42)
 1783 08e8 AC01      		movw r20,r24
 1784               	.LVL120:
 1785 08ea 429F      		mul r20,r18
 1786 08ec C001      		movw r24,r0
 1787 08ee 439F      		mul r20,r19
 1788 08f0 900D      		add r25,r0
 1789 08f2 529F      		mul r21,r18
 1790 08f4 900D      		add r25,r0
 1791 08f6 1124      		clr r1
 1792 08f8 E80F      		add r30,r24
 1793 08fa F91F      		adc r31,r25
 1794 08fc 908D      		ldd r25,Z+24
 1795 08fe 892F      		mov r24,r25
 1796 0900 8695      		lsr r24
 1797 0902 8F70      		andi r24,lo8(15)
 1798 0904 8130      		cpi r24,lo8(1)
 1799 0906 01F0      		breq .L106
 1800               	.LBB333:
 1801               	.LBB334:
 1802               	.LM221:
 1803 0908 917E      		andi r25,lo8(-31)
 1804 090a 9260      		ori r25,lo8(2)
 1805 090c 908F      		std Z+24,r25
 1806               	.L106:
 1807 090e 0895      		ret
 1808               	.LBE334:
 1809               	.LBE333:
 1810               	.LFE40:
 1812               	.global	Timebase_UpCounter_Stop
 1814               	Timebase_UpCounter_Stop:
 1815               	.LFB41:
 1816               	.LM222:
 1817               	.LVL121:
 1818               	/* prologue: function */
 1819               	/* frame size = 0 */
 1820               	.LBB335:
 1821               	.LBB336:
 1822               	.LM223:
 1823 0910 E091 0000 		lds r30,Timebase
 1824 0914 F091 0000 		lds r31,(Timebase)+1
 1825 0918 90E0      		ldi r25,lo8(0)
 1826               	.LBE336:
 1827               	.LBE335:
 1828               	.LM224:
 1829 091a 2AE2      		ldi r18,lo8(42)
 1830 091c 30E0      		ldi r19,hi8(42)
 1831 091e AC01      		movw r20,r24
 1832               	.LVL122:
 1833 0920 429F      		mul r20,r18
 1834 0922 C001      		movw r24,r0
 1835 0924 439F      		mul r20,r19
 1836 0926 900D      		add r25,r0
 1837 0928 529F      		mul r21,r18
 1838 092a 900D      		add r25,r0
 1839 092c 1124      		clr r1
 1840 092e E80F      		add r30,r24
 1841 0930 F91F      		adc r31,r25
 1842 0932 908D      		ldd r25,Z+24
 1843 0934 892F      		mov r24,r25
 1844 0936 8695      		lsr r24
 1845 0938 8F70      		andi r24,lo8(15)
 1846 093a 8230      		cpi r24,lo8(2)
 1847 093c 01F0      		breq .L109
 1848               	.LBB337:
 1849               	.LBB338:
 1850               	.LM225:
 1851 093e 917E      		andi r25,lo8(-31)
 1852 0940 9460      		ori r25,lo8(4)
 1853 0942 908F      		std Z+24,r25
 1854               	.L109:
 1855 0944 0895      		ret
 1856               	.LBE338:
 1857               	.LBE337:
 1858               	.LFE41:
 1860               	.global	Timebase_UpCounter_Set_Securely
 1862               	Timebase_UpCounter_Set_Securely:
 1863               	.LFB42:
 1864               	.LM226:
 1865               	.LVL123:
 1866               	/* prologue: function */
 1867               	/* frame size = 0 */
 1868               	.LBB339:
 1869               	.LBB340:
 1870               	.LM227:
 1871 0946 A091 0000 		lds r26,Timebase
 1872 094a B091 0000 		lds r27,(Timebase)+1
 1873 094e 90E0      		ldi r25,lo8(0)
 1874               	.LBE340:
 1875               	.LBE339:
 1876               	.LM228:
 1877 0950 2AE2      		ldi r18,lo8(42)
 1878 0952 30E0      		ldi r19,hi8(42)
 1879 0954 829F      		mul r24,r18
 1880 0956 F001      		movw r30,r0
 1881 0958 839F      		mul r24,r19
 1882 095a F00D      		add r31,r0
 1883 095c 929F      		mul r25,r18
 1884 095e F00D      		add r31,r0
 1885 0960 1124      		clr r1
 1886               	.LVL124:
 1887 0962 EA0F      		add r30,r26
 1888 0964 FB1F      		adc r31,r27
 1889 0966 808D      		ldd r24,Z+24
 1890 0968 8695      		lsr r24
 1891 096a 8F70      		andi r24,lo8(15)
 1892 096c 01F4      		brne .L112
 1893               	.LBB341:
 1894               	.LBB342:
 1895               	.LM229:
 1896 096e 15A2      		std Z+37,__zero_reg__
 1897 0970 16A2      		std Z+38,__zero_reg__
 1898 0972 17A2      		std Z+39,__zero_reg__
 1899 0974 10A6      		std Z+40,__zero_reg__
 1900               	.LBE342:
 1901               	.LBE341:
 1902               	.LBB343:
 1903               	.LBB344:
 1904               	.LM230:
 1905 0976 11A2      		std Z+33,__zero_reg__
 1906 0978 12A2      		std Z+34,__zero_reg__
 1907 097a 13A2      		std Z+35,__zero_reg__
 1908 097c 14A2      		std Z+36,__zero_reg__
 1909               	.LBE344:
 1910               	.LBE343:
 1911               	.LBB345:
 1912               	.LBB346:
 1913               	.LM231:
 1914 097e 458F      		std Z+29,r20
 1915 0980 568F      		std Z+30,r21
 1916 0982 678F      		std Z+31,r22
 1917 0984 70A3      		std Z+32,r23
 1918               	.LBE346:
 1919               	.LBE345:
 1920               	.LBB347:
 1921               	.LBB348:
 1922               	.LM232:
 1923 0986 1A96      		adiw r26,10
 1924 0988 8D91      		ld r24,X+
 1925 098a 9D91      		ld r25,X+
 1926 098c 0D90      		ld __tmp_reg__,X+
 1927 098e BC91      		ld r27,X
 1928 0990 A02D      		mov r26,__tmp_reg__
 1929               	.LBE348:
 1930               	.LBE347:
 1931               	.LBB349:
 1932               	.LBB350:
 1933               	.LM233:
 1934 0992 840F      		add r24,r20
 1935 0994 951F      		adc r25,r21
 1936 0996 A61F      		adc r26,r22
 1937 0998 B71F      		adc r27,r23
 1938 099a 818F      		std Z+25,r24
 1939 099c 928F      		std Z+26,r25
 1940 099e A38F      		std Z+27,r26
 1941 09a0 B48F      		std Z+28,r27
 1942               	.LBE350:
 1943               	.LBE349:
 1944               	.LBB351:
 1945               	.LBB352:
 1946               	.LM234:
 1947 09a2 908D      		ldd r25,Z+24
 1948 09a4 892F      		mov r24,r25
 1949 09a6 8695      		lsr r24
 1950 09a8 8F70      		andi r24,lo8(15)
 1951 09aa 8130      		cpi r24,lo8(1)
 1952 09ac 01F0      		breq .L112
 1953               	.LBB353:
 1954               	.LBB354:
 1955               	.LM235:
 1956 09ae 917E      		andi r25,lo8(-31)
 1957 09b0 9260      		ori r25,lo8(2)
 1958 09b2 908F      		std Z+24,r25
 1959               	.L112:
 1960 09b4 0895      		ret
 1961               	.LBE354:
 1962               	.LBE353:
 1963               	.LBE352:
 1964               	.LBE351:
 1965               	.LFE42:
 1967               	.global	Timebase_UpCounter_Set_Forcefully
 1969               	Timebase_UpCounter_Set_Forcefully:
 1970               	.LFB43:
 1971               	.LM236:
 1972               	.LVL125:
 1973 09b6 DF92      		push r13
 1974 09b8 EF92      		push r14
 1975 09ba FF92      		push r15
 1976 09bc 0F93      		push r16
 1977 09be 1F93      		push r17
 1978               	/* prologue: function */
 1979               	/* frame size = 0 */
 1980 09c0 D82E      		mov r13,r24
 1981 09c2 7A01      		movw r14,r20
 1982 09c4 8B01      		movw r16,r22
 1983               	.LM237:
 1984 09c6 0E94 0000 		call Timebase_UpCounter_Reset
 1985               	.LVL126:
 1986               	.LM238:
 1987 09ca 8D2D      		mov r24,r13
 1988 09cc B801      		movw r22,r16
 1989 09ce A701      		movw r20,r14
 1990 09d0 0E94 0000 		call Timebase_UpCounter_Set_Securely
 1991               	/* epilogue start */
 1992               	.LM239:
 1993 09d4 1F91      		pop r17
 1994 09d6 0F91      		pop r16
 1995 09d8 FF90      		pop r15
 1996 09da EF90      		pop r14
 1997               	.LVL127:
 1998 09dc DF90      		pop r13
 1999               	.LVL128:
 2000 09de 0895      		ret
 2001               	.LFE43:
 2003               	.global	Timebase_UpCounter_Update
 2005               	Timebase_UpCounter_Update:
 2006               	.LFB44:
 2007               	.LM240:
 2008               	.LVL129:
 2009 09e0 EF92      		push r14
 2010 09e2 FF92      		push r15
 2011 09e4 0F93      		push r16
 2012 09e6 1F93      		push r17
 2013               	/* prologue: function */
 2014               	/* frame size = 0 */
 2015               	.LBB355:
 2016               	.LBB356:
 2017               	.LM241:
 2018 09e8 A091 0000 		lds r26,Timebase
 2019 09ec B091 0000 		lds r27,(Timebase)+1
 2020 09f0 90E0      		ldi r25,lo8(0)
 2021 09f2 2AE2      		ldi r18,lo8(42)
 2022 09f4 30E0      		ldi r19,hi8(42)
 2023 09f6 829F      		mul r24,r18
 2024 09f8 F001      		movw r30,r0
 2025 09fa 839F      		mul r24,r19
 2026 09fc F00D      		add r31,r0
 2027 09fe 929F      		mul r25,r18
 2028 0a00 F00D      		add r31,r0
 2029 0a02 1124      		clr r1
 2030               	.LVL130:
 2031 0a04 EA0F      		add r30,r26
 2032 0a06 FB1F      		adc r31,r27
 2033 0a08 808D      		ldd r24,Z+24
 2034 0a0a 8695      		lsr r24
 2035 0a0c 8F70      		andi r24,lo8(15)
 2036               	.LBE356:
 2037               	.LBE355:
 2038               	.LM242:
 2039 0a0e 8130      		cpi r24,lo8(1)
 2040 0a10 01F4      		brne .L116
 2041               	.LBB357:
 2042               	.LBB358:
 2043               	.LM243:
 2044 0a12 1A96      		adiw r26,10
 2045 0a14 8D91      		ld r24,X+
 2046 0a16 9D91      		ld r25,X+
 2047 0a18 0D90      		ld __tmp_reg__,X+
 2048 0a1a BC91      		ld r27,X
 2049 0a1c A02D      		mov r26,__tmp_reg__
 2050               	.LBE358:
 2051               	.LBE357:
 2052               	.LM244:
 2053 0a1e 218D      		ldd r18,Z+25
 2054 0a20 328D      		ldd r19,Z+26
 2055 0a22 438D      		ldd r20,Z+27
 2056 0a24 548D      		ldd r21,Z+28
 2057 0a26 281B      		sub r18,r24
 2058 0a28 390B      		sbc r19,r25
 2059 0a2a 4A0B      		sbc r20,r26
 2060 0a2c 5B0B      		sbc r21,r27
 2061               	.LBB359:
 2062               	.LBB360:
 2063               	.LM245:
 2064 0a2e 21A3      		std Z+33,r18
 2065 0a30 32A3      		std Z+34,r19
 2066 0a32 43A3      		std Z+35,r20
 2067 0a34 54A3      		std Z+36,r21
 2068               	.LBE360:
 2069               	.LBE359:
 2070               	.LBB361:
 2071               	.LBB362:
 2072               	.LM246:
 2073 0a36 E58C      		ldd r14,Z+29
 2074 0a38 F68C      		ldd r15,Z+30
 2075 0a3a 078D      		ldd r16,Z+31
 2076 0a3c 10A1      		ldd r17,Z+32
 2077 0a3e D801      		movw r26,r16
 2078 0a40 C701      		movw r24,r14
 2079 0a42 821B      		sub r24,r18
 2080 0a44 930B      		sbc r25,r19
 2081 0a46 A40B      		sbc r26,r20
 2082 0a48 B50B      		sbc r27,r21
 2083 0a4a 85A3      		std Z+37,r24
 2084 0a4c 96A3      		std Z+38,r25
 2085 0a4e A7A3      		std Z+39,r26
 2086 0a50 B0A7      		std Z+40,r27
 2087               	.LBE362:
 2088               	.LBE361:
 2089               	.LM247:
 2090 0a52 1216      		cp __zero_reg__,r18
 2091 0a54 1306      		cpc __zero_reg__,r19
 2092 0a56 1406      		cpc __zero_reg__,r20
 2093 0a58 1506      		cpc __zero_reg__,r21
 2094 0a5a 04F0      		brlt .L118
 2095               	.LBB363:
 2096               	.LBB364:
 2097               	.LM248:
 2098 0a5c 118E      		std Z+25,__zero_reg__
 2099 0a5e 128E      		std Z+26,__zero_reg__
 2100 0a60 138E      		std Z+27,__zero_reg__
 2101 0a62 148E      		std Z+28,__zero_reg__
 2102               	.LBE364:
 2103               	.LBE363:
 2104               	.LBB365:
 2105               	.LBB366:
 2106               	.LM249:
 2107 0a64 11A2      		std Z+33,__zero_reg__
 2108 0a66 12A2      		std Z+34,__zero_reg__
 2109 0a68 13A2      		std Z+35,__zero_reg__
 2110 0a6a 14A2      		std Z+36,__zero_reg__
 2111               	.LBE366:
 2112               	.LBE365:
 2113               	.LBB367:
 2114               	.LBB368:
 2115               	.LM250:
 2116 0a6c E5A2      		std Z+37,r14
 2117 0a6e F6A2      		std Z+38,r15
 2118 0a70 07A3      		std Z+39,r16
 2119 0a72 10A7      		std Z+40,r17
 2120               	.LBE368:
 2121               	.LBE367:
 2122               	.LBB369:
 2123               	.LBB370:
 2124               	.LM251:
 2125 0a74 808D      		ldd r24,Z+24
 2126 0a76 817E      		andi r24,lo8(-31)
 2127 0a78 8860      		ori r24,lo8(8)
 2128 0a7a 808F      		std Z+24,r24
 2129 0a7c 00C0      		rjmp .L118
 2130               	.L116:
 2131               	.LBE370:
 2132               	.LBE369:
 2133               	.LM252:
 2134 0a7e 8230      		cpi r24,lo8(2)
 2135 0a80 01F4      		brne .L118
 2136               	.LBB371:
 2137               	.LBB372:
 2138               	.LM253:
 2139 0a82 1A96      		adiw r26,10
 2140 0a84 8D91      		ld r24,X+
 2141 0a86 9D91      		ld r25,X+
 2142 0a88 0D90      		ld __tmp_reg__,X+
 2143 0a8a BC91      		ld r27,X
 2144 0a8c A02D      		mov r26,__tmp_reg__
 2145               	.LBE372:
 2146               	.LBE371:
 2147               	.LBB373:
 2148               	.LBB374:
 2149               	.LM254:
 2150 0a8e 21A1      		ldd r18,Z+33
 2151 0a90 32A1      		ldd r19,Z+34
 2152 0a92 43A1      		ldd r20,Z+35
 2153 0a94 54A1      		ldd r21,Z+36
 2154 0a96 820F      		add r24,r18
 2155 0a98 931F      		adc r25,r19
 2156 0a9a A41F      		adc r26,r20
 2157 0a9c B51F      		adc r27,r21
 2158 0a9e 818F      		std Z+25,r24
 2159 0aa0 928F      		std Z+26,r25
 2160 0aa2 A38F      		std Z+27,r26
 2161 0aa4 B48F      		std Z+28,r27
 2162               	.LBE374:
 2163               	.LBE373:
 2164               	.LBB375:
 2165               	.LBB376:
 2166               	.LM255:
 2167 0aa6 858D      		ldd r24,Z+29
 2168 0aa8 968D      		ldd r25,Z+30
 2169 0aaa A78D      		ldd r26,Z+31
 2170 0aac B0A1      		ldd r27,Z+32
 2171 0aae 821B      		sub r24,r18
 2172 0ab0 930B      		sbc r25,r19
 2173 0ab2 A40B      		sbc r26,r20
 2174 0ab4 B50B      		sbc r27,r21
 2175 0ab6 85A3      		std Z+37,r24
 2176 0ab8 96A3      		std Z+38,r25
 2177 0aba A7A3      		std Z+39,r26
 2178 0abc B0A7      		std Z+40,r27
 2179               	.L118:
 2180               	/* epilogue start */
 2181               	.LBE376:
 2182               	.LBE375:
 2183               	.LM256:
 2184 0abe 1F91      		pop r17
 2185 0ac0 0F91      		pop r16
 2186 0ac2 FF90      		pop r15
 2187 0ac4 EF90      		pop r14
 2188 0ac6 0895      		ret
 2189               	.LFE44:
 2191               	.global	Timebase_UpCounter_Expired
 2193               	Timebase_UpCounter_Expired:
 2194               	.LFB45:
 2195               	.LM257:
 2196               	.LVL131:
 2197               	/* prologue: function */
 2198               	/* frame size = 0 */
 2199               	.LM258:
 2200 0ac8 40E0      		ldi r20,lo8(0)
 2201 0aca E091 0000 		lds r30,Timebase
 2202 0ace F091 0000 		lds r31,(Timebase)+1
 2203 0ad2 90E0      		ldi r25,lo8(0)
 2204               	.LVL132:
 2205 0ad4 2AE2      		ldi r18,lo8(42)
 2206 0ad6 30E0      		ldi r19,hi8(42)
 2207 0ad8 BC01      		movw r22,r24
 2208 0ada 629F      		mul r22,r18
 2209 0adc C001      		movw r24,r0
 2210 0ade 639F      		mul r22,r19
 2211 0ae0 900D      		add r25,r0
 2212 0ae2 729F      		mul r23,r18
 2213 0ae4 900D      		add r25,r0
 2214 0ae6 1124      		clr r1
 2215               	.LVL133:
 2216 0ae8 E80F      		add r30,r24
 2217 0aea F91F      		adc r31,r25
 2218 0aec 808D      		ldd r24,Z+24
 2219 0aee 8695      		lsr r24
 2220 0af0 8F70      		andi r24,lo8(15)
 2221 0af2 8430      		cpi r24,lo8(4)
 2222 0af4 01F4      		brne .L120
 2223 0af6 41E0      		ldi r20,lo8(1)
 2224               	.L120:
 2225               	.LM259:
 2226 0af8 842F      		mov r24,r20
 2227               	/* epilogue start */
 2228 0afa 0895      		ret
 2229               	.LFE45:
 2231               	.global	Timebase_UpCounter_Expired_Event
 2233               	Timebase_UpCounter_Expired_Event:
 2234               	.LFB46:
 2235               	.LM260:
 2236               	.LVL134:
 2237               	/* prologue: function */
 2238               	/* frame size = 0 */
 2239 0afc 482F      		mov r20,r24
 2240               	.LM261:
 2241 0afe E091 0000 		lds r30,Timebase
 2242 0b02 F091 0000 		lds r31,(Timebase)+1
 2243 0b06 282F      		mov r18,r24
 2244 0b08 30E0      		ldi r19,lo8(0)
 2245               	.LVL135:
 2246 0b0a 8AE2      		ldi r24,lo8(42)
 2247 0b0c 90E0      		ldi r25,hi8(42)
 2248               	.LVL136:
 2249 0b0e BC01      		movw r22,r24
 2250 0b10 269F      		mul r18,r22
 2251 0b12 C001      		movw r24,r0
 2252 0b14 279F      		mul r18,r23
 2253 0b16 900D      		add r25,r0
 2254 0b18 369F      		mul r19,r22
 2255 0b1a 900D      		add r25,r0
 2256 0b1c 1124      		clr r1
 2257 0b1e E80F      		add r30,r24
 2258 0b20 F91F      		adc r31,r25
 2259 0b22 808D      		ldd r24,Z+24
 2260 0b24 8695      		lsr r24
 2261 0b26 8F70      		andi r24,lo8(15)
 2262 0b28 8430      		cpi r24,lo8(4)
 2263 0b2a 01F0      		breq .L123
 2264 0b2c 80E0      		ldi r24,lo8(0)
 2265 0b2e 0895      		ret
 2266               	.L123:
 2267               	.LBB377:
 2268               	.LBB378:
 2269               	.LM262:
 2270 0b30 842F      		mov r24,r20
 2271 0b32 0E94 0000 		call Timebase_UpCounter_Reset
 2272               	.LVL137:
 2273 0b36 81E0      		ldi r24,lo8(1)
 2274               	.LBE378:
 2275               	.LBE377:
 2276               	.LM263:
 2277 0b38 0895      		ret
 2278               	.LFE46:
 2280               	.global	Timebase_UpCounter_Set_Period_Value_Securely
 2282               	Timebase_UpCounter_Set_Period_Value_Securely:
 2283               	.LFB47:
 2284               	.LM264:
 2285               	.LVL138:
 2286               	/* prologue: function */
 2287               	/* frame size = 0 */
 2288               	.LBB379:
 2289               	.LBB380:
 2290               	.LM265:
 2291 0b3a E091 0000 		lds r30,Timebase
 2292 0b3e F091 0000 		lds r31,(Timebase)+1
 2293 0b42 90E0      		ldi r25,lo8(0)
 2294               	.LBE380:
 2295               	.LBE379:
 2296               	.LM266:
 2297 0b44 2AE2      		ldi r18,lo8(42)
 2298 0b46 30E0      		ldi r19,hi8(42)
 2299 0b48 DC01      		movw r26,r24
 2300               	.LVL139:
 2301 0b4a A29F      		mul r26,r18
 2302 0b4c C001      		movw r24,r0
 2303 0b4e A39F      		mul r26,r19
 2304 0b50 900D      		add r25,r0
 2305 0b52 B29F      		mul r27,r18
 2306 0b54 900D      		add r25,r0
 2307 0b56 1124      		clr r1
 2308 0b58 E80F      		add r30,r24
 2309 0b5a F91F      		adc r31,r25
 2310 0b5c 808D      		ldd r24,Z+24
 2311 0b5e 80FD      		sbrc r24,0
 2312 0b60 00C0      		rjmp .L128
 2313               	.LBB381:
 2314               	.LBB382:
 2315               	.LM267:
 2316 0b62 85A1      		ldd r24,Z+37
 2317 0b64 96A1      		ldd r25,Z+38
 2318 0b66 A7A1      		ldd r26,Z+39
 2319 0b68 B0A5      		ldd r27,Z+40
 2320 0b6a 840F      		add r24,r20
 2321 0b6c 951F      		adc r25,r21
 2322 0b6e A61F      		adc r26,r22
 2323 0b70 B71F      		adc r27,r23
 2324 0b72 81A7      		std Z+41,r24
 2325 0b74 92A7      		std Z+42,r25
 2326 0b76 A3A7      		std Z+43,r26
 2327 0b78 B4A7      		std Z+44,r27
 2328               	.LBE382:
 2329               	.LBE381:
 2330               	.LBB383:
 2331               	.LBB384:
 2332               	.LM268:
 2333 0b7a 808D      		ldd r24,Z+24
 2334 0b7c 8160      		ori r24,lo8(1)
 2335 0b7e 808F      		std Z+24,r24
 2336               	.L128:
 2337 0b80 0895      		ret
 2338               	.LBE384:
 2339               	.LBE383:
 2340               	.LFE47:
 2342               	.global	Timebase_UpCounter_Get_Remaining_Period_Value
 2344               	Timebase_UpCounter_Get_Remaining_Period_Value:
 2345               	.LFB48:
 2346               	.LM269:
 2347               	.LVL140:
 2348               	/* prologue: function */
 2349               	/* frame size = 0 */
 2350               	.LBB385:
 2351               	.LBB386:
 2352               	.LM270:
 2353 0b82 E091 0000 		lds r30,Timebase
 2354 0b86 F091 0000 		lds r31,(Timebase)+1
 2355 0b8a 90E0      		ldi r25,lo8(0)
 2356               	.LBE386:
 2357               	.LBE385:
 2358               	.LM271:
 2359 0b8c 2AE2      		ldi r18,lo8(42)
 2360 0b8e 30E0      		ldi r19,hi8(42)
 2361 0b90 AC01      		movw r20,r24
 2362               	.LVL141:
 2363 0b92 429F      		mul r20,r18
 2364 0b94 C001      		movw r24,r0
 2365 0b96 439F      		mul r20,r19
 2366 0b98 900D      		add r25,r0
 2367 0b9a 529F      		mul r21,r18
 2368 0b9c 900D      		add r25,r0
 2369 0b9e 1124      		clr r1
 2370 0ba0 E80F      		add r30,r24
 2371 0ba2 F91F      		adc r31,r25
 2372 0ba4 21A5      		ldd r18,Z+41
 2373 0ba6 32A5      		ldd r19,Z+42
 2374 0ba8 43A5      		ldd r20,Z+43
 2375 0baa 54A5      		ldd r21,Z+44
 2376               	.LVL142:
 2377 0bac 85A1      		ldd r24,Z+37
 2378 0bae 96A1      		ldd r25,Z+38
 2379 0bb0 A7A1      		ldd r26,Z+39
 2380 0bb2 B0A5      		ldd r27,Z+40
 2381 0bb4 281B      		sub r18,r24
 2382 0bb6 390B      		sbc r19,r25
 2383 0bb8 4A0B      		sbc r20,r26
 2384 0bba 5B0B      		sbc r21,r27
 2385 0bbc 57FF      		sbrs r21,7
 2386 0bbe 00C0      		rjmp .L130
 2387 0bc0 20E0      		ldi r18,lo8(0)
 2388 0bc2 30E0      		ldi r19,hi8(0)
 2389 0bc4 40E0      		ldi r20,hlo8(0)
 2390 0bc6 50E0      		ldi r21,hhi8(0)
 2391               	.L130:
 2392               	.LM272:
 2393 0bc8 B901      		movw r22,r18
 2394               	.LVL143:
 2395 0bca CA01      		movw r24,r20
 2396               	/* epilogue start */
 2397 0bcc 0895      		ret
 2398               	.LFE48:
 2400               	.global	Timebase_UpCounter_Period_Value_Expired
 2402               	Timebase_UpCounter_Period_Value_Expired:
 2403               	.LFB49:
 2404               	.LM273:
 2405               	.LVL144:
 2406 0bce CF93      		push r28
 2407 0bd0 DF93      		push r29
 2408               	/* prologue: function */
 2409               	/* frame size = 0 */
 2410               	.LBB387:
 2411               	.LBB388:
 2412               	.LBB389:
 2413               	.LBB390:
 2414               	.LM274:
 2415 0bd2 C091 0000 		lds r28,Timebase
 2416 0bd6 D091 0000 		lds r29,(Timebase)+1
 2417 0bda 682F      		mov r22,r24
 2418 0bdc 70E0      		ldi r23,lo8(0)
 2419               	.LBE390:
 2420               	.LBE389:
 2421               	.LM275:
 2422 0bde 8AE2      		ldi r24,lo8(42)
 2423 0be0 90E0      		ldi r25,hi8(42)
 2424               	.LVL145:
 2425 0be2 689F      		mul r22,r24
 2426 0be4 F001      		movw r30,r0
 2427 0be6 699F      		mul r22,r25
 2428 0be8 F00D      		add r31,r0
 2429 0bea 789F      		mul r23,r24
 2430 0bec F00D      		add r31,r0
 2431 0bee 1124      		clr r1
 2432 0bf0 EC0F      		add r30,r28
 2433 0bf2 FD1F      		adc r31,r29
 2434 0bf4 21A5      		ldd r18,Z+41
 2435 0bf6 32A5      		ldd r19,Z+42
 2436 0bf8 43A5      		ldd r20,Z+43
 2437 0bfa 54A5      		ldd r21,Z+44
 2438               	.LVL146:
 2439 0bfc 85A1      		ldd r24,Z+37
 2440 0bfe 96A1      		ldd r25,Z+38
 2441 0c00 A7A1      		ldd r26,Z+39
 2442 0c02 B0A5      		ldd r27,Z+40
 2443 0c04 281B      		sub r18,r24
 2444 0c06 390B      		sbc r19,r25
 2445 0c08 4A0B      		sbc r20,r26
 2446 0c0a 5B0B      		sbc r21,r27
 2447               	.LM276:
 2448 0c0c 57FD      		sbrc r21,7
 2449 0c0e 00C0      		rjmp .L133
 2450               	.LBE388:
 2451               	.LBE387:
 2452               	.LM277:
 2453 0c10 2115      		cp r18,__zero_reg__
 2454 0c12 3105      		cpc r19,__zero_reg__
 2455 0c14 4105      		cpc r20,__zero_reg__
 2456 0c16 5105      		cpc r21,__zero_reg__
 2457 0c18 01F0      		breq .L133
 2458 0c1a 20E0      		ldi r18,lo8(0)
 2459               	.LVL147:
 2460 0c1c 00C0      		rjmp .L134
 2461               	.LVL148:
 2462               	.L133:
 2463 0c1e 20E0      		ldi r18,lo8(0)
 2464               	.LVL149:
 2465 0c20 8AE2      		ldi r24,lo8(42)
 2466 0c22 90E0      		ldi r25,hi8(42)
 2467 0c24 AC01      		movw r20,r24
 2468 0c26 649F      		mul r22,r20
 2469 0c28 C001      		movw r24,r0
 2470 0c2a 659F      		mul r22,r21
 2471 0c2c 900D      		add r25,r0
 2472 0c2e 749F      		mul r23,r20
 2473 0c30 900D      		add r25,r0
 2474 0c32 1124      		clr r1
 2475 0c34 C80F      		add r28,r24
 2476 0c36 D91F      		adc r29,r25
 2477 0c38 888D      		ldd r24,Y+24
 2478 0c3a 80FF      		sbrs r24,0
 2479 0c3c 21E0      		ldi r18,lo8(1)
 2480               	.L135:
 2481 0c3e 81E0      		ldi r24,lo8(1)
 2482 0c40 2827      		eor r18,r24
 2483               	.L134:
 2484               	.LM278:
 2485 0c42 822F      		mov r24,r18
 2486               	/* epilogue start */
 2487 0c44 DF91      		pop r29
 2488 0c46 CF91      		pop r28
 2489 0c48 0895      		ret
 2490               	.LFE49:
 2492               	.global	Timebase_UpCounter_Period_Value_Expired_Event
 2494               	Timebase_UpCounter_Period_Value_Expired_Event:
 2495               	.LFB50:
 2496               	.LM279:
 2497               	.LVL150:
 2498 0c4a 1F93      		push r17
 2499               	/* prologue: function */
 2500               	/* frame size = 0 */
 2501 0c4c 182F      		mov r17,r24
 2502               	.LM280:
 2503 0c4e 0E94 0000 		call Timebase_UpCounter_Period_Value_Expired
 2504               	.LVL151:
 2505 0c52 8130      		cpi r24,lo8(1)
 2506 0c54 01F0      		breq .L138
 2507 0c56 80E0      		ldi r24,lo8(0)
 2508 0c58 00C0      		rjmp .L139
 2509               	.L138:
 2510               	.LBB391:
 2511               	.LBB392:
 2512               	.LM281:
 2513 0c5a E091 0000 		lds r30,Timebase
 2514 0c5e F091 0000 		lds r31,(Timebase)+1
 2515 0c62 212F      		mov r18,r17
 2516 0c64 30E0      		ldi r19,lo8(0)
 2517               	.LVL152:
 2518 0c66 8AE2      		ldi r24,lo8(42)
 2519 0c68 90E0      		ldi r25,hi8(42)
 2520 0c6a AC01      		movw r20,r24
 2521 0c6c 249F      		mul r18,r20
 2522 0c6e C001      		movw r24,r0
 2523 0c70 259F      		mul r18,r21
 2524 0c72 900D      		add r25,r0
 2525 0c74 349F      		mul r19,r20
 2526 0c76 900D      		add r25,r0
 2527 0c78 1124      		clr r1
 2528 0c7a E80F      		add r30,r24
 2529 0c7c F91F      		adc r31,r25
 2530 0c7e 808D      		ldd r24,Z+24
 2531 0c80 8E7F      		andi r24,lo8(-2)
 2532 0c82 808F      		std Z+24,r24
 2533 0c84 81E0      		ldi r24,lo8(1)
 2534               	.L139:
 2535               	/* epilogue start */
 2536               	.LBE392:
 2537               	.LBE391:
 2538               	.LM282:
 2539 0c86 1F91      		pop r17
 2540               	.LVL153:
 2541 0c88 0895      		ret
 2542               	.LFE50:
 2544               	.global	Timebase_UpCounter_Update_All
 2546               	Timebase_UpCounter_Update_All:
 2547               	.LFB51:
 2548               	.LM283:
 2549               	/* prologue: function */
 2550               	/* frame size = 0 */
 2551               	.LBB393:
 2552               	.LM284:
 2553 0c8a 80E0      		ldi r24,lo8(0)
 2554 0c8c 0E94 0000 		call Timebase_UpCounter_Update
 2555               	/* epilogue start */
 2556               	.LBE393:
 2557               	.LM285:
 2558 0c90 0895      		ret
 2559               	.LFE51:
 2561               	.global	Timebase_UpCounter_Reset_All
 2563               	Timebase_UpCounter_Reset_All:
 2564               	.LFB52:
 2565               	.LM286:
 2566               	/* prologue: function */
 2567               	/* frame size = 0 */
 2568               	.LBB394:
 2569               	.LM287:
 2570 0c92 80E0      		ldi r24,lo8(0)
 2571 0c94 0E94 0000 		call Timebase_UpCounter_Reset
 2572               	/* epilogue start */
 2573               	.LBE394:
 2574               	.LM288:
 2575 0c98 0895      		ret
 2576               	.LFE52:
 2578               	.global	Timebase_DownCounter_Get_Status
 2580               	Timebase_DownCounter_Get_Status:
 2581               	.LFB53:
 2582               	.LM289:
 2583               	.LVL154:
 2584               	/* prologue: function */
 2585               	/* frame size = 0 */
 2586               	.LM290:
 2587 0c9a E091 0000 		lds r30,Timebase
 2588 0c9e F091 0000 		lds r31,(Timebase)+1
 2589 0ca2 90E0      		ldi r25,lo8(0)
 2590               	.LVL155:
 2591 0ca4 2AE1      		ldi r18,lo8(26)
 2592 0ca6 30E0      		ldi r19,hi8(26)
 2593 0ca8 AC01      		movw r20,r24
 2594 0caa 429F      		mul r20,r18
 2595 0cac C001      		movw r24,r0
 2596 0cae 439F      		mul r20,r19
 2597 0cb0 900D      		add r25,r0
 2598 0cb2 529F      		mul r21,r18
 2599 0cb4 900D      		add r25,r0
 2600 0cb6 1124      		clr r1
 2601               	.LVL156:
 2602 0cb8 E80F      		add r30,r24
 2603 0cba F91F      		adc r31,r25
 2604 0cbc EE5B      		subi r30,lo8(-(66))
 2605 0cbe FF4F      		sbci r31,hi8(-(66))
 2606 0cc0 8081      		ld r24,Z
 2607 0cc2 8695      		lsr r24
 2608               	.LM291:
 2609 0cc4 8F70      		andi r24,lo8(15)
 2610               	/* epilogue start */
 2611 0cc6 0895      		ret
 2612               	.LFE53:
 2614               	.global	Timebase_DownCounter_Set_Status
 2616               	Timebase_DownCounter_Set_Status:
 2617               	.LFB54:
 2618               	.LM292:
 2619               	.LVL157:
 2620               	/* prologue: function */
 2621               	/* frame size = 0 */
 2622               	.LM293:
 2623 0cc8 E091 0000 		lds r30,Timebase
 2624 0ccc F091 0000 		lds r31,(Timebase)+1
 2625 0cd0 90E0      		ldi r25,lo8(0)
 2626               	.LVL158:
 2627 0cd2 2AE1      		ldi r18,lo8(26)
 2628 0cd4 30E0      		ldi r19,hi8(26)
 2629 0cd6 AC01      		movw r20,r24
 2630 0cd8 429F      		mul r20,r18
 2631 0cda C001      		movw r24,r0
 2632 0cdc 439F      		mul r20,r19
 2633 0cde 900D      		add r25,r0
 2634 0ce0 529F      		mul r21,r18
 2635 0ce2 900D      		add r25,r0
 2636 0ce4 1124      		clr r1
 2637               	.LVL159:
 2638 0ce6 E80F      		add r30,r24
 2639 0ce8 F91F      		adc r31,r25
 2640 0cea EE5B      		subi r30,lo8(-(66))
 2641 0cec FF4F      		sbci r31,hi8(-(66))
 2642 0cee 6F70      		andi r22,lo8(15)
 2643               	.LVL160:
 2644 0cf0 660F      		lsl r22
 2645 0cf2 8081      		ld r24,Z
 2646 0cf4 817E      		andi r24,lo8(-31)
 2647 0cf6 862B      		or r24,r22
 2648 0cf8 8083      		st Z,r24
 2649               	/* epilogue start */
 2650               	.LM294:
 2651 0cfa 0895      		ret
 2652               	.LFE54:
 2654               	.global	Timebase_DownCounter_Get_Value
 2656               	Timebase_DownCounter_Get_Value:
 2657               	.LFB55:
 2658               	.LM295:
 2659               	.LVL161:
 2660               	/* prologue: function */
 2661               	/* frame size = 0 */
 2662               	.LM296:
 2663 0cfc E091 0000 		lds r30,Timebase
 2664 0d00 F091 0000 		lds r31,(Timebase)+1
 2665 0d04 90E0      		ldi r25,lo8(0)
 2666               	.LVL162:
 2667 0d06 2AE1      		ldi r18,lo8(26)
 2668 0d08 30E0      		ldi r19,hi8(26)
 2669 0d0a AC01      		movw r20,r24
 2670 0d0c 429F      		mul r20,r18
 2671 0d0e C001      		movw r24,r0
 2672 0d10 439F      		mul r20,r19
 2673 0d12 900D      		add r25,r0
 2674 0d14 529F      		mul r21,r18
 2675 0d16 900D      		add r25,r0
 2676 0d18 1124      		clr r1
 2677               	.LVL163:
 2678 0d1a E80F      		add r30,r24
 2679 0d1c F91F      		adc r31,r25
 2680 0d1e E95B      		subi r30,lo8(-(71))
 2681 0d20 FF4F      		sbci r31,hi8(-(71))
 2682 0d22 6081      		ld r22,Z
 2683 0d24 7181      		ldd r23,Z+1
 2684               	.LM297:
 2685 0d26 8281      		ldd r24,Z+2
 2686 0d28 9381      		ldd r25,Z+3
 2687               	.LVL164:
 2688               	/* epilogue start */
 2689 0d2a 0895      		ret
 2690               	.LFE55:
 2692               	.global	Timebase_DownCounter_Set_Value
 2694               	Timebase_DownCounter_Set_Value:
 2695               	.LFB56:
 2696               	.LM298:
 2697               	.LVL165:
 2698               	/* prologue: function */
 2699               	/* frame size = 0 */
 2700               	.LM299:
 2701 0d2c E091 0000 		lds r30,Timebase
 2702 0d30 F091 0000 		lds r31,(Timebase)+1
 2703 0d34 90E0      		ldi r25,lo8(0)
 2704               	.LVL166:
 2705 0d36 2AE1      		ldi r18,lo8(26)
 2706 0d38 30E0      		ldi r19,hi8(26)
 2707 0d3a DC01      		movw r26,r24
 2708 0d3c A29F      		mul r26,r18
 2709 0d3e C001      		movw r24,r0
 2710 0d40 A39F      		mul r26,r19
 2711 0d42 900D      		add r25,r0
 2712 0d44 B29F      		mul r27,r18
 2713 0d46 900D      		add r25,r0
 2714 0d48 1124      		clr r1
 2715               	.LVL167:
 2716 0d4a E80F      		add r30,r24
 2717 0d4c F91F      		adc r31,r25
 2718 0d4e E95B      		subi r30,lo8(-(71))
 2719 0d50 FF4F      		sbci r31,hi8(-(71))
 2720 0d52 4083      		st Z,r20
 2721 0d54 5183      		std Z+1,r21
 2722 0d56 6283      		std Z+2,r22
 2723 0d58 7383      		std Z+3,r23
 2724               	/* epilogue start */
 2725               	.LM300:
 2726 0d5a 0895      		ret
 2727               	.LFE56:
 2729               	.global	Timebase_DownCounter_Get_EndValue
 2731               	Timebase_DownCounter_Get_EndValue:
 2732               	.LFB57:
 2733               	.LM301:
 2734               	.LVL168:
 2735               	/* prologue: function */
 2736               	/* frame size = 0 */
 2737               	.LM302:
 2738 0d5c E091 0000 		lds r30,Timebase
 2739 0d60 F091 0000 		lds r31,(Timebase)+1
 2740 0d64 90E0      		ldi r25,lo8(0)
 2741               	.LVL169:
 2742 0d66 2AE1      		ldi r18,lo8(26)
 2743 0d68 30E0      		ldi r19,hi8(26)
 2744 0d6a AC01      		movw r20,r24
 2745 0d6c 429F      		mul r20,r18
 2746 0d6e C001      		movw r24,r0
 2747 0d70 439F      		mul r20,r19
 2748 0d72 900D      		add r25,r0
 2749 0d74 529F      		mul r21,r18
 2750 0d76 900D      		add r25,r0
 2751 0d78 1124      		clr r1
 2752               	.LVL170:
 2753 0d7a E80F      		add r30,r24
 2754 0d7c F91F      		adc r31,r25
 2755 0d7e ED5B      		subi r30,lo8(-(67))
 2756 0d80 FF4F      		sbci r31,hi8(-(67))
 2757 0d82 6081      		ld r22,Z
 2758 0d84 7181      		ldd r23,Z+1
 2759               	.LM303:
 2760 0d86 8281      		ldd r24,Z+2
 2761 0d88 9381      		ldd r25,Z+3
 2762               	.LVL171:
 2763               	/* epilogue start */
 2764 0d8a 0895      		ret
 2765               	.LFE57:
 2767               	.global	Timebase_DownCounter_Set_EndValue
 2769               	Timebase_DownCounter_Set_EndValue:
 2770               	.LFB58:
 2771               	.LM304:
 2772               	.LVL172:
 2773               	/* prologue: function */
 2774               	/* frame size = 0 */
 2775               	.LM305:
 2776 0d8c E091 0000 		lds r30,Timebase
 2777 0d90 F091 0000 		lds r31,(Timebase)+1
 2778 0d94 90E0      		ldi r25,lo8(0)
 2779               	.LVL173:
 2780 0d96 2AE1      		ldi r18,lo8(26)
 2781 0d98 30E0      		ldi r19,hi8(26)
 2782 0d9a DC01      		movw r26,r24
 2783 0d9c A29F      		mul r26,r18
 2784 0d9e C001      		movw r24,r0
 2785 0da0 A39F      		mul r26,r19
 2786 0da2 900D      		add r25,r0
 2787 0da4 B29F      		mul r27,r18
 2788 0da6 900D      		add r25,r0
 2789 0da8 1124      		clr r1
 2790               	.LVL174:
 2791 0daa E80F      		add r30,r24
 2792 0dac F91F      		adc r31,r25
 2793 0dae ED5B      		subi r30,lo8(-(67))
 2794 0db0 FF4F      		sbci r31,hi8(-(67))
 2795 0db2 4083      		st Z,r20
 2796 0db4 5183      		std Z+1,r21
 2797 0db6 6283      		std Z+2,r22
 2798 0db8 7383      		std Z+3,r23
 2799               	/* epilogue start */
 2800               	.LM306:
 2801 0dba 0895      		ret
 2802               	.LFE58:
 2804               	.global	Timebase_DownCounter_Get_PeriodValue
 2806               	Timebase_DownCounter_Get_PeriodValue:
 2807               	.LFB59:
 2808               	.LM307:
 2809               	.LVL175:
 2810               	/* prologue: function */
 2811               	/* frame size = 0 */
 2812               	.LM308:
 2813 0dbc E091 0000 		lds r30,Timebase
 2814 0dc0 F091 0000 		lds r31,(Timebase)+1
 2815 0dc4 90E0      		ldi r25,lo8(0)
 2816               	.LVL176:
 2817 0dc6 2AE1      		ldi r18,lo8(26)
 2818 0dc8 30E0      		ldi r19,hi8(26)
 2819 0dca AC01      		movw r20,r24
 2820 0dcc 429F      		mul r20,r18
 2821 0dce C001      		movw r24,r0
 2822 0dd0 439F      		mul r20,r19
 2823 0dd2 900D      		add r25,r0
 2824 0dd4 529F      		mul r21,r18
 2825 0dd6 900D      		add r25,r0
 2826 0dd8 1124      		clr r1
 2827               	.LVL177:
 2828 0dda E80F      		add r30,r24
 2829 0ddc F91F      		adc r31,r25
 2830 0dde E55B      		subi r30,lo8(-(75))
 2831 0de0 FF4F      		sbci r31,hi8(-(75))
 2832 0de2 6081      		ld r22,Z
 2833 0de4 7181      		ldd r23,Z+1
 2834               	.LM309:
 2835 0de6 8281      		ldd r24,Z+2
 2836 0de8 9381      		ldd r25,Z+3
 2837               	.LVL178:
 2838               	/* epilogue start */
 2839 0dea 0895      		ret
 2840               	.LFE59:
 2842               	.global	Timebase_DownCounter_Set_PeriodValue
 2844               	Timebase_DownCounter_Set_PeriodValue:
 2845               	.LFB60:
 2846               	.LM310:
 2847               	.LVL179:
 2848               	/* prologue: function */
 2849               	/* frame size = 0 */
 2850 0dec E091 0000 		lds r30,Timebase
 2851 0df0 F091 0000 		lds r31,(Timebase)+1
 2852 0df4 282F      		mov r18,r24
 2853 0df6 30E0      		ldi r19,lo8(0)
 2854               	.LVL180:
 2855               	.LM311:
 2856 0df8 77FF      		sbrs r23,7
 2857 0dfa 00C0      		rjmp .L160
 2858               	.LVL181:
 2859               	.LM312:
 2860 0dfc 8AE1      		ldi r24,lo8(26)
 2861 0dfe 90E0      		ldi r25,hi8(26)
 2862 0e00 AC01      		movw r20,r24
 2863               	.LVL182:
 2864 0e02 249F      		mul r18,r20
 2865 0e04 C001      		movw r24,r0
 2866 0e06 259F      		mul r18,r21
 2867 0e08 900D      		add r25,r0
 2868 0e0a 349F      		mul r19,r20
 2869 0e0c 900D      		add r25,r0
 2870 0e0e 1124      		clr r1
 2871 0e10 E80F      		add r30,r24
 2872 0e12 F91F      		adc r31,r25
 2873 0e14 E55B      		subi r30,lo8(-(75))
 2874 0e16 FF4F      		sbci r31,hi8(-(75))
 2875 0e18 1082      		st Z,__zero_reg__
 2876 0e1a 1182      		std Z+1,__zero_reg__
 2877 0e1c 1282      		std Z+2,__zero_reg__
 2878 0e1e 1382      		std Z+3,__zero_reg__
 2879 0e20 0895      		ret
 2880               	.LVL183:
 2881               	.L160:
 2882               	.LM313:
 2883 0e22 8AE1      		ldi r24,lo8(26)
 2884 0e24 90E0      		ldi r25,hi8(26)
 2885 0e26 DC01      		movw r26,r24
 2886 0e28 2A9F      		mul r18,r26
 2887 0e2a C001      		movw r24,r0
 2888 0e2c 2B9F      		mul r18,r27
 2889 0e2e 900D      		add r25,r0
 2890 0e30 3A9F      		mul r19,r26
 2891 0e32 900D      		add r25,r0
 2892 0e34 1124      		clr r1
 2893 0e36 E80F      		add r30,r24
 2894 0e38 F91F      		adc r31,r25
 2895 0e3a E55B      		subi r30,lo8(-(75))
 2896 0e3c FF4F      		sbci r31,hi8(-(75))
 2897 0e3e 4083      		st Z,r20
 2898 0e40 5183      		std Z+1,r21
 2899 0e42 6283      		std Z+2,r22
 2900 0e44 7383      		std Z+3,r23
 2901 0e46 0895      		ret
 2902               	.LFE60:
 2904               	.global	Timebase_DownCounter_Get_Period_Flag
 2906               	Timebase_DownCounter_Get_Period_Flag:
 2907               	.LFB61:
 2908               	.LM314:
 2909               	.LVL184:
 2910               	/* prologue: function */
 2911               	/* frame size = 0 */
 2912               	.LM315:
 2913 0e48 E091 0000 		lds r30,Timebase
 2914 0e4c F091 0000 		lds r31,(Timebase)+1
 2915 0e50 90E0      		ldi r25,lo8(0)
 2916               	.LVL185:
 2917 0e52 2AE1      		ldi r18,lo8(26)
 2918 0e54 30E0      		ldi r19,hi8(26)
 2919 0e56 AC01      		movw r20,r24
 2920 0e58 429F      		mul r20,r18
 2921 0e5a C001      		movw r24,r0
 2922 0e5c 439F      		mul r20,r19
 2923 0e5e 900D      		add r25,r0
 2924 0e60 529F      		mul r21,r18
 2925 0e62 900D      		add r25,r0
 2926 0e64 1124      		clr r1
 2927               	.LVL186:
 2928 0e66 E80F      		add r30,r24
 2929 0e68 F91F      		adc r31,r25
 2930 0e6a EE5B      		subi r30,lo8(-(66))
 2931 0e6c FF4F      		sbci r31,hi8(-(66))
 2932 0e6e 8081      		ld r24,Z
 2933               	.LM316:
 2934 0e70 8170      		andi r24,lo8(1)
 2935               	/* epilogue start */
 2936 0e72 0895      		ret
 2937               	.LFE61:
 2939               	.global	Timebase_DownCounter_Set_Period_Flag
 2941               	Timebase_DownCounter_Set_Period_Flag:
 2942               	.LFB62:
 2943               	.LM317:
 2944               	.LVL187:
 2945               	/* prologue: function */
 2946               	/* frame size = 0 */
 2947               	.LM318:
 2948 0e74 E091 0000 		lds r30,Timebase
 2949 0e78 F091 0000 		lds r31,(Timebase)+1
 2950 0e7c 90E0      		ldi r25,lo8(0)
 2951               	.LVL188:
 2952 0e7e 2AE1      		ldi r18,lo8(26)
 2953 0e80 30E0      		ldi r19,hi8(26)
 2954 0e82 AC01      		movw r20,r24
 2955 0e84 429F      		mul r20,r18
 2956 0e86 C001      		movw r24,r0
 2957 0e88 439F      		mul r20,r19
 2958 0e8a 900D      		add r25,r0
 2959 0e8c 529F      		mul r21,r18
 2960 0e8e 900D      		add r25,r0
 2961 0e90 1124      		clr r1
 2962               	.LVL189:
 2963 0e92 E80F      		add r30,r24
 2964 0e94 F91F      		adc r31,r25
 2965 0e96 EE5B      		subi r30,lo8(-(66))
 2966 0e98 FF4F      		sbci r31,hi8(-(66))
 2967 0e9a 8081      		ld r24,Z
 2968 0e9c 8160      		ori r24,lo8(1)
 2969 0e9e 8083      		st Z,r24
 2970               	/* epilogue start */
 2971               	.LM319:
 2972 0ea0 0895      		ret
 2973               	.LFE62:
 2975               	.global	Timebase_DownCounter_Clear_Period_Flag
 2977               	Timebase_DownCounter_Clear_Period_Flag:
 2978               	.LFB63:
 2979               	.LM320:
 2980               	.LVL190:
 2981               	/* prologue: function */
 2982               	/* frame size = 0 */
 2983               	.LM321:
 2984 0ea2 E091 0000 		lds r30,Timebase
 2985 0ea6 F091 0000 		lds r31,(Timebase)+1
 2986 0eaa 90E0      		ldi r25,lo8(0)
 2987               	.LVL191:
 2988 0eac 2AE1      		ldi r18,lo8(26)
 2989 0eae 30E0      		ldi r19,hi8(26)
 2990 0eb0 AC01      		movw r20,r24
 2991 0eb2 429F      		mul r20,r18
 2992 0eb4 C001      		movw r24,r0
 2993 0eb6 439F      		mul r20,r19
 2994 0eb8 900D      		add r25,r0
 2995 0eba 529F      		mul r21,r18
 2996 0ebc 900D      		add r25,r0
 2997 0ebe 1124      		clr r1
 2998               	.LVL192:
 2999 0ec0 E80F      		add r30,r24
 3000 0ec2 F91F      		adc r31,r25
 3001 0ec4 EE5B      		subi r30,lo8(-(66))
 3002 0ec6 FF4F      		sbci r31,hi8(-(66))
 3003 0ec8 8081      		ld r24,Z
 3004 0eca 8E7F      		andi r24,lo8(-2)
 3005 0ecc 8083      		st Z,r24
 3006               	/* epilogue start */
 3007               	.LM322:
 3008 0ece 0895      		ret
 3009               	.LFE63:
 3011               	.global	Timebase_DownCounter_Reset
 3013               	Timebase_DownCounter_Reset:
 3014               	.LFB64:
 3015               	.LM323:
 3016               	.LVL193:
 3017               	/* prologue: function */
 3018               	/* frame size = 0 */
 3019               	.LBB395:
 3020               	.LBB396:
 3021               	.LM324:
 3022 0ed0 E091 0000 		lds r30,Timebase
 3023 0ed4 F091 0000 		lds r31,(Timebase)+1
 3024 0ed8 90E0      		ldi r25,lo8(0)
 3025 0eda 2AE1      		ldi r18,lo8(26)
 3026 0edc 30E0      		ldi r19,hi8(26)
 3027 0ede AC01      		movw r20,r24
 3028               	.LVL194:
 3029 0ee0 429F      		mul r20,r18
 3030 0ee2 C001      		movw r24,r0
 3031 0ee4 439F      		mul r20,r19
 3032 0ee6 900D      		add r25,r0
 3033 0ee8 529F      		mul r21,r18
 3034 0eea 900D      		add r25,r0
 3035 0eec 1124      		clr r1
 3036 0eee E80F      		add r30,r24
 3037 0ef0 F91F      		adc r31,r25
 3038 0ef2 ED5B      		subi r30,lo8(-(67))
 3039 0ef4 FF4F      		sbci r31,hi8(-(67))
 3040 0ef6 1192      		st Z+,__zero_reg__
 3041 0ef8 1192      		st Z+,__zero_reg__
 3042 0efa 1192      		st Z+,__zero_reg__
 3043 0efc 1192      		st Z+,__zero_reg__
 3044               	.LBE396:
 3045               	.LBE395:
 3046               	.LBB397:
 3047               	.LBB398:
 3048               	.LM325:
 3049 0efe 1082      		st Z,__zero_reg__
 3050 0f00 1182      		std Z+1,__zero_reg__
 3051 0f02 1282      		std Z+2,__zero_reg__
 3052 0f04 1382      		std Z+3,__zero_reg__
 3053               	.LBE398:
 3054               	.LBE397:
 3055               	.LBB399:
 3056               	.LBB400:
 3057               	.LM326:
 3058 0f06 3597      		sbiw r30,5
 3059 0f08 8081      		ld r24,Z
 3060               	.LBE400:
 3061               	.LBE399:
 3062               	.LBB401:
 3063               	.LBB402:
 3064               	.LM327:
 3065 0f0a 807E      		andi r24,lo8(-32)
 3066 0f0c 8083      		st Z,r24
 3067               	/* epilogue start */
 3068               	.LBE402:
 3069               	.LBE401:
 3070               	.LM328:
 3071 0f0e 0895      		ret
 3072               	.LFE64:
 3074               	.global	Timebase_DownCounter_Clear_All_Flags
 3076               	Timebase_DownCounter_Clear_All_Flags:
 3077               	.LFB65:
 3078               	.LM329:
 3079               	.LVL195:
 3080               	/* prologue: function */
 3081               	/* frame size = 0 */
 3082               	.LBB403:
 3083               	.LBB404:
 3084               	.LBB405:
 3085               	.LBB406:
 3086               	.LM330:
 3087 0f10 E091 0000 		lds r30,Timebase
 3088 0f14 F091 0000 		lds r31,(Timebase)+1
 3089 0f18 90E0      		ldi r25,lo8(0)
 3090 0f1a 2AE1      		ldi r18,lo8(26)
 3091 0f1c 30E0      		ldi r19,hi8(26)
 3092 0f1e AC01      		movw r20,r24
 3093               	.LVL196:
 3094 0f20 429F      		mul r20,r18
 3095 0f22 C001      		movw r24,r0
 3096 0f24 439F      		mul r20,r19
 3097 0f26 900D      		add r25,r0
 3098 0f28 529F      		mul r21,r18
 3099 0f2a 900D      		add r25,r0
 3100 0f2c 1124      		clr r1
 3101 0f2e E80F      		add r30,r24
 3102 0f30 F91F      		adc r31,r25
 3103 0f32 ED5B      		subi r30,lo8(-(67))
 3104 0f34 FF4F      		sbci r31,hi8(-(67))
 3105 0f36 1192      		st Z+,__zero_reg__
 3106 0f38 1192      		st Z+,__zero_reg__
 3107 0f3a 1192      		st Z+,__zero_reg__
 3108 0f3c 1192      		st Z+,__zero_reg__
 3109               	.LBE406:
 3110               	.LBE405:
 3111               	.LBB407:
 3112               	.LBB408:
 3113               	.LM331:
 3114 0f3e 1082      		st Z,__zero_reg__
 3115 0f40 1182      		std Z+1,__zero_reg__
 3116 0f42 1282      		std Z+2,__zero_reg__
 3117 0f44 1382      		std Z+3,__zero_reg__
 3118               	.LBE408:
 3119               	.LBE407:
 3120               	.LBB409:
 3121               	.LBB410:
 3122               	.LM332:
 3123 0f46 3597      		sbiw r30,5
 3124 0f48 8081      		ld r24,Z
 3125               	.LBE410:
 3126               	.LBE409:
 3127               	.LBB411:
 3128               	.LBB412:
 3129               	.LM333:
 3130 0f4a 807E      		andi r24,lo8(-32)
 3131 0f4c 8083      		st Z,r24
 3132               	/* epilogue start */
 3133               	.LBE412:
 3134               	.LBE411:
 3135               	.LBE404:
 3136               	.LBE403:
 3137               	.LM334:
 3138 0f4e 0895      		ret
 3139               	.LFE65:
 3141               	.global	Timebase_DownCounter_Start
 3143               	Timebase_DownCounter_Start:
 3144               	.LFB66:
 3145               	.LM335:
 3146               	.LVL197:
 3147               	/* prologue: function */
 3148               	/* frame size = 0 */
 3149               	.LBB413:
 3150               	.LBB414:
 3151               	.LM336:
 3152 0f50 E091 0000 		lds r30,Timebase
 3153 0f54 F091 0000 		lds r31,(Timebase)+1
 3154 0f58 90E0      		ldi r25,lo8(0)
 3155               	.LBE414:
 3156               	.LBE413:
 3157               	.LM337:
 3158 0f5a 2AE1      		ldi r18,lo8(26)
 3159 0f5c 30E0      		ldi r19,hi8(26)
 3160 0f5e AC01      		movw r20,r24
 3161               	.LVL198:
 3162 0f60 429F      		mul r20,r18
 3163 0f62 C001      		movw r24,r0
 3164 0f64 439F      		mul r20,r19
 3165 0f66 900D      		add r25,r0
 3166 0f68 529F      		mul r21,r18
 3167 0f6a 900D      		add r25,r0
 3168 0f6c 1124      		clr r1
 3169 0f6e E80F      		add r30,r24
 3170 0f70 F91F      		adc r31,r25
 3171 0f72 EE5B      		subi r30,lo8(-(66))
 3172 0f74 FF4F      		sbci r31,hi8(-(66))
 3173 0f76 9081      		ld r25,Z
 3174 0f78 892F      		mov r24,r25
 3175 0f7a 8695      		lsr r24
 3176 0f7c 8F70      		andi r24,lo8(15)
 3177 0f7e 8130      		cpi r24,lo8(1)
 3178 0f80 01F0      		breq .L175
 3179               	.LBB415:
 3180               	.LBB416:
 3181               	.LM338:
 3182 0f82 917E      		andi r25,lo8(-31)
 3183 0f84 9260      		ori r25,lo8(2)
 3184 0f86 9083      		st Z,r25
 3185               	.L175:
 3186 0f88 0895      		ret
 3187               	.LBE416:
 3188               	.LBE415:
 3189               	.LFE66:
 3191               	.global	Timebase_DownCounter_Stop
 3193               	Timebase_DownCounter_Stop:
 3194               	.LFB67:
 3195               	.LM339:
 3196               	.LVL199:
 3197               	/* prologue: function */
 3198               	/* frame size = 0 */
 3199               	.LBB417:
 3200               	.LBB418:
 3201               	.LM340:
 3202 0f8a E091 0000 		lds r30,Timebase
 3203 0f8e F091 0000 		lds r31,(Timebase)+1
 3204 0f92 90E0      		ldi r25,lo8(0)
 3205               	.LBE418:
 3206               	.LBE417:
 3207               	.LM341:
 3208 0f94 2AE1      		ldi r18,lo8(26)
 3209 0f96 30E0      		ldi r19,hi8(26)
 3210 0f98 AC01      		movw r20,r24
 3211               	.LVL200:
 3212 0f9a 429F      		mul r20,r18
 3213 0f9c C001      		movw r24,r0
 3214 0f9e 439F      		mul r20,r19
 3215 0fa0 900D      		add r25,r0
 3216 0fa2 529F      		mul r21,r18
 3217 0fa4 900D      		add r25,r0
 3218 0fa6 1124      		clr r1
 3219 0fa8 E80F      		add r30,r24
 3220 0faa F91F      		adc r31,r25
 3221 0fac EE5B      		subi r30,lo8(-(66))
 3222 0fae FF4F      		sbci r31,hi8(-(66))
 3223 0fb0 9081      		ld r25,Z
 3224 0fb2 892F      		mov r24,r25
 3225 0fb4 8695      		lsr r24
 3226 0fb6 8F70      		andi r24,lo8(15)
 3227 0fb8 8230      		cpi r24,lo8(2)
 3228 0fba 01F0      		breq .L178
 3229               	.LBB419:
 3230               	.LBB420:
 3231               	.LM342:
 3232 0fbc 917E      		andi r25,lo8(-31)
 3233 0fbe 9460      		ori r25,lo8(4)
 3234 0fc0 9083      		st Z,r25
 3235               	.L178:
 3236 0fc2 0895      		ret
 3237               	.LBE420:
 3238               	.LBE419:
 3239               	.LFE67:
 3241               	.global	Timebase_DownCounter_Set_Securely
 3243               	Timebase_DownCounter_Set_Securely:
 3244               	.LFB68:
 3245               	.LM343:
 3246               	.LVL201:
 3247 0fc4 CF93      		push r28
 3248 0fc6 DF93      		push r29
 3249               	/* prologue: function */
 3250               	/* frame size = 0 */
 3251               	.LBB421:
 3252               	.LBB422:
 3253               	.LM344:
 3254 0fc8 A091 0000 		lds r26,Timebase
 3255 0fcc B091 0000 		lds r27,(Timebase)+1
 3256 0fd0 90E0      		ldi r25,lo8(0)
 3257               	.LBE422:
 3258               	.LBE421:
 3259               	.LM345:
 3260 0fd2 2AE1      		ldi r18,lo8(26)
 3261 0fd4 30E0      		ldi r19,hi8(26)
 3262 0fd6 829F      		mul r24,r18
 3263 0fd8 F001      		movw r30,r0
 3264 0fda 839F      		mul r24,r19
 3265 0fdc F00D      		add r31,r0
 3266 0fde 929F      		mul r25,r18
 3267 0fe0 F00D      		add r31,r0
 3268 0fe2 1124      		clr r1
 3269               	.LVL202:
 3270 0fe4 EA0F      		add r30,r26
 3271 0fe6 FB1F      		adc r31,r27
 3272 0fe8 EF01      		movw r28,r30
 3273 0fea CE5B      		subi r28,lo8(-(66))
 3274 0fec DF4F      		sbci r29,hi8(-(66))
 3275 0fee 8881      		ld r24,Y
 3276 0ff0 8695      		lsr r24
 3277 0ff2 8F70      		andi r24,lo8(15)
 3278 0ff4 01F4      		brne .L181
 3279               	.LBB423:
 3280               	.LBB424:
 3281               	.LM346:
 3282 0ff6 E95B      		subi r30,lo8(-(71))
 3283 0ff8 FF4F      		sbci r31,hi8(-(71))
 3284 0ffa 4083      		st Z,r20
 3285 0ffc 5183      		std Z+1,r21
 3286 0ffe 6283      		std Z+2,r22
 3287 1000 7383      		std Z+3,r23
 3288               	.LBE424:
 3289               	.LBE423:
 3290               	.LBB425:
 3291               	.LBB426:
 3292               	.LM347:
 3293 1002 1A96      		adiw r26,10
 3294 1004 8D91      		ld r24,X+
 3295 1006 9D91      		ld r25,X+
 3296 1008 0D90      		ld __tmp_reg__,X+
 3297 100a BC91      		ld r27,X
 3298 100c A02D      		mov r26,__tmp_reg__
 3299               	.LBE426:
 3300               	.LBE425:
 3301               	.LBB427:
 3302               	.LBB428:
 3303               	.LM348:
 3304 100e 840F      		add r24,r20
 3305 1010 951F      		adc r25,r21
 3306 1012 A61F      		adc r26,r22
 3307 1014 B71F      		adc r27,r23
 3308 1016 B293      		st -Z,r27
 3309 1018 A293      		st -Z,r26
 3310 101a 9293      		st -Z,r25
 3311 101c 8293      		st -Z,r24
 3312               	.LBE428:
 3313               	.LBE427:
 3314               	.LBB429:
 3315               	.LBB430:
 3316               	.LM349:
 3317 101e 9881      		ld r25,Y
 3318 1020 892F      		mov r24,r25
 3319 1022 8695      		lsr r24
 3320 1024 8F70      		andi r24,lo8(15)
 3321 1026 8130      		cpi r24,lo8(1)
 3322 1028 01F0      		breq .L181
 3323               	.LBB431:
 3324               	.LBB432:
 3325               	.LM350:
 3326 102a 917E      		andi r25,lo8(-31)
 3327 102c 9260      		ori r25,lo8(2)
 3328 102e 9883      		st Y,r25
 3329               	.L181:
 3330               	/* epilogue start */
 3331               	.LBE432:
 3332               	.LBE431:
 3333               	.LBE430:
 3334               	.LBE429:
 3335               	.LM351:
 3336 1030 DF91      		pop r29
 3337 1032 CF91      		pop r28
 3338 1034 0895      		ret
 3339               	.LFE68:
 3341               	.global	Timebase_DownCounter_Set_Forcefully
 3343               	Timebase_DownCounter_Set_Forcefully:
 3344               	.LFB69:
 3345               	.LM352:
 3346               	.LVL203:
 3347 1036 CF93      		push r28
 3348 1038 DF93      		push r29
 3349               	/* prologue: function */
 3350               	/* frame size = 0 */
 3351               	.LBB433:
 3352               	.LBB434:
 3353               	.LBB435:
 3354               	.LBB436:
 3355               	.LM353:
 3356 103a E091 0000 		lds r30,Timebase
 3357 103e F091 0000 		lds r31,(Timebase)+1
 3358 1042 A82F      		mov r26,r24
 3359 1044 B0E0      		ldi r27,lo8(0)
 3360 1046 2AE1      		ldi r18,lo8(26)
 3361 1048 30E0      		ldi r19,hi8(26)
 3362 104a E901      		movw r28,r18
 3363 104c AC9F      		mul r26,r28
 3364 104e 9001      		movw r18,r0
 3365 1050 AD9F      		mul r26,r29
 3366 1052 300D      		add r19,r0
 3367 1054 BC9F      		mul r27,r28
 3368 1056 300D      		add r19,r0
 3369 1058 1124      		clr r1
 3370 105a E20F      		add r30,r18
 3371 105c F31F      		adc r31,r19
 3372 105e ED5B      		subi r30,lo8(-(67))
 3373 1060 FF4F      		sbci r31,hi8(-(67))
 3374 1062 1192      		st Z+,__zero_reg__
 3375 1064 1192      		st Z+,__zero_reg__
 3376 1066 1192      		st Z+,__zero_reg__
 3377 1068 1192      		st Z+,__zero_reg__
 3378               	.LBE436:
 3379               	.LBE435:
 3380               	.LBB437:
 3381               	.LBB438:
 3382               	.LM354:
 3383 106a 1082      		st Z,__zero_reg__
 3384 106c 1182      		std Z+1,__zero_reg__
 3385 106e 1282      		std Z+2,__zero_reg__
 3386 1070 1382      		std Z+3,__zero_reg__
 3387               	.LBE438:
 3388               	.LBE437:
 3389               	.LBB439:
 3390               	.LBB440:
 3391               	.LM355:
 3392 1072 3597      		sbiw r30,5
 3393 1074 9081      		ld r25,Z
 3394               	.LBE440:
 3395               	.LBE439:
 3396               	.LBB441:
 3397               	.LBB442:
 3398               	.LM356:
 3399 1076 907E      		andi r25,lo8(-32)
 3400 1078 9083      		st Z,r25
 3401               	.LBE442:
 3402               	.LBE441:
 3403               	.LBE434:
 3404               	.LBE433:
 3405               	.LM357:
 3406 107a 0E94 0000 		call Timebase_DownCounter_Set_Securely
 3407               	.LVL204:
 3408               	/* epilogue start */
 3409               	.LM358:
 3410 107e DF91      		pop r29
 3411 1080 CF91      		pop r28
 3412 1082 0895      		ret
 3413               	.LFE69:
 3415               	.global	Timebase_DownCounter_Update
 3417               	Timebase_DownCounter_Update:
 3418               	.LFB70:
 3419               	.LM359:
 3420               	.LVL205:
 3421 1084 0F93      		push r16
 3422 1086 1F93      		push r17
 3423 1088 CF93      		push r28
 3424 108a DF93      		push r29
 3425               	/* prologue: function */
 3426               	/* frame size = 0 */
 3427               	.LBB443:
 3428               	.LBB444:
 3429               	.LM360:
 3430 108c A091 0000 		lds r26,Timebase
 3431 1090 B091 0000 		lds r27,(Timebase)+1
 3432 1094 90E0      		ldi r25,lo8(0)
 3433 1096 2AE1      		ldi r18,lo8(26)
 3434 1098 30E0      		ldi r19,hi8(26)
 3435 109a 829F      		mul r24,r18
 3436 109c F001      		movw r30,r0
 3437 109e 839F      		mul r24,r19
 3438 10a0 F00D      		add r31,r0
 3439 10a2 929F      		mul r25,r18
 3440 10a4 F00D      		add r31,r0
 3441 10a6 1124      		clr r1
 3442               	.LVL206:
 3443 10a8 EA0F      		add r30,r26
 3444 10aa FB1F      		adc r31,r27
 3445 10ac 8F01      		movw r16,r30
 3446 10ae 0E5B      		subi r16,lo8(-(66))
 3447 10b0 1F4F      		sbci r17,hi8(-(66))
 3448 10b2 E801      		movw r28,r16
 3449 10b4 8881      		ld r24,Y
 3450 10b6 8695      		lsr r24
 3451 10b8 8F70      		andi r24,lo8(15)
 3452               	.LBE444:
 3453               	.LBE443:
 3454               	.LM361:
 3455 10ba 8130      		cpi r24,lo8(1)
 3456 10bc 01F4      		brne .L185
 3457               	.LBB445:
 3458               	.LBB446:
 3459               	.LM362:
 3460 10be 1A96      		adiw r26,10
 3461 10c0 2D91      		ld r18,X+
 3462 10c2 3D91      		ld r19,X+
 3463 10c4 4D91      		ld r20,X+
 3464 10c6 5C91      		ld r21,X
 3465 10c8 1D97      		sbiw r26,10+3
 3466               	.LBE446:
 3467               	.LBE445:
 3468               	.LM363:
 3469 10ca BF01      		movw r22,r30
 3470 10cc 6D5B      		subi r22,lo8(-(67))
 3471 10ce 7F4F      		sbci r23,hi8(-(67))
 3472 10d0 EB01      		movw r28,r22
 3473 10d2 8881      		ld r24,Y
 3474 10d4 9981      		ldd r25,Y+1
 3475 10d6 AA81      		ldd r26,Y+2
 3476 10d8 BB81      		ldd r27,Y+3
 3477 10da 821B      		sub r24,r18
 3478 10dc 930B      		sbc r25,r19
 3479 10de A40B      		sbc r26,r20
 3480 10e0 B50B      		sbc r27,r21
 3481               	.LBB447:
 3482               	.LBB448:
 3483               	.LM364:
 3484 10e2 E95B      		subi r30,lo8(-(71))
 3485 10e4 FF4F      		sbci r31,hi8(-(71))
 3486 10e6 8083      		st Z,r24
 3487 10e8 9183      		std Z+1,r25
 3488 10ea A283      		std Z+2,r26
 3489 10ec B383      		std Z+3,r27
 3490               	.LBE448:
 3491               	.LBE447:
 3492               	.LM365:
 3493 10ee 1816      		cp __zero_reg__,r24
 3494 10f0 1906      		cpc __zero_reg__,r25
 3495 10f2 1A06      		cpc __zero_reg__,r26
 3496 10f4 1B06      		cpc __zero_reg__,r27
 3497 10f6 04F0      		brlt .L187
 3498               	.LBB449:
 3499               	.LBB450:
 3500               	.LBB451:
 3501               	.LBB452:
 3502               	.LM366:
 3503 10f8 DB01      		movw r26,r22
 3504 10fa 1D92      		st X+,__zero_reg__
 3505 10fc 1D92      		st X+,__zero_reg__
 3506 10fe 1D92      		st X+,__zero_reg__
 3507 1100 1C92      		st X,__zero_reg__
 3508 1102 1397      		sbiw r26,3
 3509               	.LBE452:
 3510               	.LBE451:
 3511               	.LBB453:
 3512               	.LBB454:
 3513               	.LM367:
 3514 1104 1082      		st Z,__zero_reg__
 3515 1106 1182      		std Z+1,__zero_reg__
 3516 1108 1282      		std Z+2,__zero_reg__
 3517 110a 1382      		std Z+3,__zero_reg__
 3518               	.LBE454:
 3519               	.LBE453:
 3520               	.LBB455:
 3521               	.LBB456:
 3522               	.LM368:
 3523 110c E801      		movw r28,r16
 3524 110e 8881      		ld r24,Y
 3525               	.LBE456:
 3526               	.LBE455:
 3527               	.LBE450:
 3528               	.LBE449:
 3529               	.LBB457:
 3530               	.LBB458:
 3531               	.LM369:
 3532 1110 807E      		andi r24,lo8(-32)
 3533 1112 8860      		ori r24,lo8(8)
 3534 1114 8883      		st Y,r24
 3535 1116 00C0      		rjmp .L187
 3536               	.L185:
 3537               	.LBE458:
 3538               	.LBE457:
 3539               	.LM370:
 3540 1118 8230      		cpi r24,lo8(2)
 3541 111a 01F4      		brne .L187
 3542               	.LBB459:
 3543               	.LBB460:
 3544               	.LM371:
 3545 111c 1A96      		adiw r26,10
 3546 111e 8D91      		ld r24,X+
 3547 1120 9D91      		ld r25,X+
 3548 1122 0D90      		ld __tmp_reg__,X+
 3549 1124 BC91      		ld r27,X
 3550 1126 A02D      		mov r26,__tmp_reg__
 3551               	.LBE460:
 3552               	.LBE459:
 3553               	.LBB461:
 3554               	.LBB462:
 3555               	.LM372:
 3556 1128 E95B      		subi r30,lo8(-(71))
 3557 112a FF4F      		sbci r31,hi8(-(71))
 3558 112c 2081      		ld r18,Z
 3559 112e 3181      		ldd r19,Z+1
 3560 1130 4281      		ldd r20,Z+2
 3561 1132 5381      		ldd r21,Z+3
 3562 1134 820F      		add r24,r18
 3563 1136 931F      		adc r25,r19
 3564 1138 A41F      		adc r26,r20
 3565 113a B51F      		adc r27,r21
 3566 113c B293      		st -Z,r27
 3567 113e A293      		st -Z,r26
 3568 1140 9293      		st -Z,r25
 3569 1142 8293      		st -Z,r24
 3570               	.L187:
 3571               	/* epilogue start */
 3572               	.LBE462:
 3573               	.LBE461:
 3574               	.LM373:
 3575 1144 DF91      		pop r29
 3576 1146 CF91      		pop r28
 3577 1148 1F91      		pop r17
 3578 114a 0F91      		pop r16
 3579 114c 0895      		ret
 3580               	.LFE70:
 3582               	.global	Timebase_DownCounter_Expired
 3584               	Timebase_DownCounter_Expired:
 3585               	.LFB71:
 3586               	.LM374:
 3587               	.LVL207:
 3588               	/* prologue: function */
 3589               	/* frame size = 0 */
 3590               	.LM375:
 3591 114e 40E0      		ldi r20,lo8(0)
 3592 1150 E091 0000 		lds r30,Timebase
 3593 1154 F091 0000 		lds r31,(Timebase)+1
 3594 1158 90E0      		ldi r25,lo8(0)
 3595               	.LVL208:
 3596 115a 2AE1      		ldi r18,lo8(26)
 3597 115c 30E0      		ldi r19,hi8(26)
 3598 115e BC01      		movw r22,r24
 3599 1160 629F      		mul r22,r18
 3600 1162 C001      		movw r24,r0
 3601 1164 639F      		mul r22,r19
 3602 1166 900D      		add r25,r0
 3603 1168 729F      		mul r23,r18
 3604 116a 900D      		add r25,r0
 3605 116c 1124      		clr r1
 3606               	.LVL209:
 3607 116e E80F      		add r30,r24
 3608 1170 F91F      		adc r31,r25
 3609 1172 EE5B      		subi r30,lo8(-(66))
 3610 1174 FF4F      		sbci r31,hi8(-(66))
 3611 1176 8081      		ld r24,Z
 3612 1178 8695      		lsr r24
 3613 117a 8F70      		andi r24,lo8(15)
 3614 117c 8430      		cpi r24,lo8(4)
 3615 117e 01F4      		brne .L189
 3616 1180 41E0      		ldi r20,lo8(1)
 3617               	.L189:
 3618               	.LM376:
 3619 1182 842F      		mov r24,r20
 3620               	/* epilogue start */
 3621 1184 0895      		ret
 3622               	.LFE71:
 3624               	.global	Timebase_DownCounter_Expired_Event
 3626               	Timebase_DownCounter_Expired_Event:
 3627               	.LFB72:
 3628               	.LM377:
 3629               	.LVL210:
 3630               	/* prologue: function */
 3631               	/* frame size = 0 */
 3632               	.LBB463:
 3633               	.LBB464:
 3634               	.LM378:
 3635 1186 E091 0000 		lds r30,Timebase
 3636 118a F091 0000 		lds r31,(Timebase)+1
 3637 118e 90E0      		ldi r25,lo8(0)
 3638               	.LBE464:
 3639               	.LBE463:
 3640               	.LM379:
 3641 1190 2AE1      		ldi r18,lo8(26)
 3642 1192 30E0      		ldi r19,hi8(26)
 3643 1194 AC01      		movw r20,r24
 3644               	.LVL211:
 3645 1196 429F      		mul r20,r18
 3646 1198 C001      		movw r24,r0
 3647 119a 439F      		mul r20,r19
 3648 119c 900D      		add r25,r0
 3649 119e 529F      		mul r21,r18
 3650 11a0 900D      		add r25,r0
 3651 11a2 1124      		clr r1
 3652 11a4 E80F      		add r30,r24
 3653 11a6 F91F      		adc r31,r25
 3654 11a8 DF01      		movw r26,r30
 3655 11aa AE5B      		subi r26,lo8(-(66))
 3656 11ac BF4F      		sbci r27,hi8(-(66))
 3657 11ae 8C91      		ld r24,X
 3658 11b0 8695      		lsr r24
 3659 11b2 8F70      		andi r24,lo8(15)
 3660 11b4 8430      		cpi r24,lo8(4)
 3661 11b6 01F0      		breq .L192
 3662 11b8 80E0      		ldi r24,lo8(0)
 3663 11ba 0895      		ret
 3664               	.L192:
 3665               	.LBB465:
 3666               	.LBB466:
 3667               	.LBB467:
 3668               	.LBB468:
 3669               	.LBB469:
 3670               	.LBB470:
 3671               	.LM380:
 3672 11bc ED5B      		subi r30,lo8(-(67))
 3673 11be FF4F      		sbci r31,hi8(-(67))
 3674 11c0 1192      		st Z+,__zero_reg__
 3675 11c2 1192      		st Z+,__zero_reg__
 3676 11c4 1192      		st Z+,__zero_reg__
 3677 11c6 1192      		st Z+,__zero_reg__
 3678               	.LBE470:
 3679               	.LBE469:
 3680               	.LBB471:
 3681               	.LBB472:
 3682               	.LM381:
 3683 11c8 1082      		st Z,__zero_reg__
 3684 11ca 1182      		std Z+1,__zero_reg__
 3685 11cc 1282      		std Z+2,__zero_reg__
 3686 11ce 1382      		std Z+3,__zero_reg__
 3687               	.LBE472:
 3688               	.LBE471:
 3689               	.LBB473:
 3690               	.LBB474:
 3691               	.LM382:
 3692 11d0 8C91      		ld r24,X
 3693               	.LBE474:
 3694               	.LBE473:
 3695               	.LBB475:
 3696               	.LBB476:
 3697               	.LM383:
 3698 11d2 807E      		andi r24,lo8(-32)
 3699 11d4 8C93      		st X,r24
 3700 11d6 81E0      		ldi r24,lo8(1)
 3701               	.LBE476:
 3702               	.LBE475:
 3703               	.LBE468:
 3704               	.LBE467:
 3705               	.LBE466:
 3706               	.LBE465:
 3707               	.LM384:
 3708 11d8 0895      		ret
 3709               	.LFE72:
 3711               	.global	Timebase_DownCounter_Set_Period_Value_Securely
 3713               	Timebase_DownCounter_Set_Period_Value_Securely:
 3714               	.LFB73:
 3715               	.LM385:
 3716               	.LVL212:
 3717 11da CF93      		push r28
 3718 11dc DF93      		push r29
 3719               	/* prologue: function */
 3720               	/* frame size = 0 */
 3721               	.LBB477:
 3722               	.LBB478:
 3723               	.LM386:
 3724 11de C091 0000 		lds r28,Timebase
 3725 11e2 D091 0000 		lds r29,(Timebase)+1
 3726 11e6 282F      		mov r18,r24
 3727 11e8 30E0      		ldi r19,lo8(0)
 3728               	.LBE478:
 3729               	.LBE477:
 3730               	.LM387:
 3731 11ea 8AE1      		ldi r24,lo8(26)
 3732 11ec 90E0      		ldi r25,hi8(26)
 3733               	.LVL213:
 3734 11ee 289F      		mul r18,r24
 3735 11f0 F001      		movw r30,r0
 3736 11f2 299F      		mul r18,r25
 3737 11f4 F00D      		add r31,r0
 3738 11f6 389F      		mul r19,r24
 3739 11f8 F00D      		add r31,r0
 3740 11fa 1124      		clr r1
 3741 11fc EC0F      		add r30,r28
 3742 11fe FD1F      		adc r31,r29
 3743 1200 EE5B      		subi r30,lo8(-(66))
 3744 1202 FF4F      		sbci r31,hi8(-(66))
 3745 1204 8081      		ld r24,Z
 3746 1206 E254      		subi r30,lo8(-(-66))
 3747 1208 F040      		sbci r31,hi8(-(-66))
 3748 120a 80FD      		sbrc r24,0
 3749 120c 00C0      		rjmp .L199
 3750               	.LM388:
 3751 120e E95B      		subi r30,lo8(-(71))
 3752 1210 FF4F      		sbci r31,hi8(-(71))
 3753 1212 8191      		ld r24,Z+
 3754 1214 9191      		ld r25,Z+
 3755 1216 A191      		ld r26,Z+
 3756 1218 B191      		ld r27,Z+
 3757 121a 841B      		sub r24,r20
 3758 121c 950B      		sbc r25,r21
 3759 121e A60B      		sbc r26,r22
 3760 1220 B70B      		sbc r27,r23
 3761               	.LBB479:
 3762               	.LBB480:
 3763               	.LM389:
 3764 1222 B7FF      		sbrs r27,7
 3765 1224 00C0      		rjmp .L197
 3766               	.LM390:
 3767 1226 1082      		st Z,__zero_reg__
 3768 1228 1182      		std Z+1,__zero_reg__
 3769 122a 1282      		std Z+2,__zero_reg__
 3770 122c 1382      		std Z+3,__zero_reg__
 3771 122e 00C0      		rjmp .L198
 3772               	.L197:
 3773               	.LM391:
 3774 1230 8083      		st Z,r24
 3775 1232 9183      		std Z+1,r25
 3776 1234 A283      		std Z+2,r26
 3777 1236 B383      		std Z+3,r27
 3778               	.L198:
 3779               	.LBE480:
 3780               	.LBE479:
 3781               	.LBB481:
 3782               	.LBB482:
 3783               	.LM392:
 3784 1238 8AE1      		ldi r24,lo8(26)
 3785 123a 90E0      		ldi r25,hi8(26)
 3786 123c 289F      		mul r18,r24
 3787 123e F001      		movw r30,r0
 3788 1240 299F      		mul r18,r25
 3789 1242 F00D      		add r31,r0
 3790 1244 389F      		mul r19,r24
 3791 1246 F00D      		add r31,r0
 3792 1248 1124      		clr r1
 3793 124a EC0F      		add r30,r28
 3794 124c FD1F      		adc r31,r29
 3795 124e EE5B      		subi r30,lo8(-(66))
 3796 1250 FF4F      		sbci r31,hi8(-(66))
 3797 1252 8081      		ld r24,Z
 3798 1254 8160      		ori r24,lo8(1)
 3799 1256 8083      		st Z,r24
 3800               	.L199:
 3801               	/* epilogue start */
 3802               	.LBE482:
 3803               	.LBE481:
 3804               	.LM393:
 3805 1258 DF91      		pop r29
 3806 125a CF91      		pop r28
 3807 125c 0895      		ret
 3808               	.LFE73:
 3810               	.global	Timebase_DownCounter_Get_Remaining_Period_Value
 3812               	Timebase_DownCounter_Get_Remaining_Period_Value:
 3813               	.LFB74:
 3814               	.LM394:
 3815               	.LVL214:
 3816               	/* prologue: function */
 3817               	/* frame size = 0 */
 3818               	.LBB483:
 3819               	.LBB484:
 3820               	.LM395:
 3821 125e E091 0000 		lds r30,Timebase
 3822 1262 F091 0000 		lds r31,(Timebase)+1
 3823 1266 90E0      		ldi r25,lo8(0)
 3824               	.LBE484:
 3825               	.LBE483:
 3826               	.LM396:
 3827 1268 2AE1      		ldi r18,lo8(26)
 3828 126a 30E0      		ldi r19,hi8(26)
 3829 126c AC01      		movw r20,r24
 3830               	.LVL215:
 3831 126e 429F      		mul r20,r18
 3832 1270 C001      		movw r24,r0
 3833 1272 439F      		mul r20,r19
 3834 1274 900D      		add r25,r0
 3835 1276 529F      		mul r21,r18
 3836 1278 900D      		add r25,r0
 3837 127a 1124      		clr r1
 3838 127c E80F      		add r30,r24
 3839 127e F91F      		adc r31,r25
 3840 1280 DF01      		movw r26,r30
 3841 1282 A55B      		subi r26,lo8(-(75))
 3842 1284 BF4F      		sbci r27,hi8(-(75))
 3843 1286 E95B      		subi r30,lo8(-(71))
 3844 1288 FF4F      		sbci r31,hi8(-(71))
 3845 128a 2081      		ld r18,Z
 3846 128c 3181      		ldd r19,Z+1
 3847 128e 4281      		ldd r20,Z+2
 3848 1290 5381      		ldd r21,Z+3
 3849               	.LVL216:
 3850 1292 8D91      		ld r24,X+
 3851 1294 9D91      		ld r25,X+
 3852 1296 0D90      		ld __tmp_reg__,X+
 3853 1298 BC91      		ld r27,X
 3854 129a A02D      		mov r26,__tmp_reg__
 3855 129c 281B      		sub r18,r24
 3856 129e 390B      		sbc r19,r25
 3857 12a0 4A0B      		sbc r20,r26
 3858 12a2 5B0B      		sbc r21,r27
 3859 12a4 57FF      		sbrs r21,7
 3860 12a6 00C0      		rjmp .L201
 3861 12a8 20E0      		ldi r18,lo8(0)
 3862 12aa 30E0      		ldi r19,hi8(0)
 3863 12ac 40E0      		ldi r20,hlo8(0)
 3864 12ae 50E0      		ldi r21,hhi8(0)
 3865               	.L201:
 3866               	.LM397:
 3867 12b0 B901      		movw r22,r18
 3868               	.LVL217:
 3869 12b2 CA01      		movw r24,r20
 3870               	/* epilogue start */
 3871 12b4 0895      		ret
 3872               	.LFE74:
 3874               	.global	Timebase_DownCounter_Period_Value_Expired
 3876               	Timebase_DownCounter_Period_Value_Expired:
 3877               	.LFB75:
 3878               	.LM398:
 3879               	.LVL218:
 3880 12b6 CF93      		push r28
 3881 12b8 DF93      		push r29
 3882               	/* prologue: function */
 3883               	/* frame size = 0 */
 3884               	.LBB485:
 3885               	.LBB486:
 3886               	.LBB487:
 3887               	.LBB488:
 3888               	.LM399:
 3889 12ba C091 0000 		lds r28,Timebase
 3890 12be D091 0000 		lds r29,(Timebase)+1
 3891 12c2 682F      		mov r22,r24
 3892 12c4 70E0      		ldi r23,lo8(0)
 3893               	.LBE488:
 3894               	.LBE487:
 3895               	.LM400:
 3896 12c6 8AE1      		ldi r24,lo8(26)
 3897 12c8 90E0      		ldi r25,hi8(26)
 3898               	.LVL219:
 3899 12ca 689F      		mul r22,r24
 3900 12cc F001      		movw r30,r0
 3901 12ce 699F      		mul r22,r25
 3902 12d0 F00D      		add r31,r0
 3903 12d2 789F      		mul r23,r24
 3904 12d4 F00D      		add r31,r0
 3905 12d6 1124      		clr r1
 3906 12d8 EC0F      		add r30,r28
 3907 12da FD1F      		adc r31,r29
 3908 12dc DF01      		movw r26,r30
 3909 12de A55B      		subi r26,lo8(-(75))
 3910 12e0 BF4F      		sbci r27,hi8(-(75))
 3911 12e2 E95B      		subi r30,lo8(-(71))
 3912 12e4 FF4F      		sbci r31,hi8(-(71))
 3913 12e6 2081      		ld r18,Z
 3914 12e8 3181      		ldd r19,Z+1
 3915 12ea 4281      		ldd r20,Z+2
 3916 12ec 5381      		ldd r21,Z+3
 3917               	.LVL220:
 3918 12ee 8D91      		ld r24,X+
 3919 12f0 9D91      		ld r25,X+
 3920 12f2 0D90      		ld __tmp_reg__,X+
 3921 12f4 BC91      		ld r27,X
 3922 12f6 A02D      		mov r26,__tmp_reg__
 3923 12f8 281B      		sub r18,r24
 3924 12fa 390B      		sbc r19,r25
 3925 12fc 4A0B      		sbc r20,r26
 3926 12fe 5B0B      		sbc r21,r27
 3927               	.LM401:
 3928 1300 57FD      		sbrc r21,7
 3929 1302 00C0      		rjmp .L204
 3930               	.LBE486:
 3931               	.LBE485:
 3932               	.LM402:
 3933 1304 2115      		cp r18,__zero_reg__
 3934 1306 3105      		cpc r19,__zero_reg__
 3935 1308 4105      		cpc r20,__zero_reg__
 3936 130a 5105      		cpc r21,__zero_reg__
 3937 130c 01F0      		breq .L204
 3938 130e 20E0      		ldi r18,lo8(0)
 3939               	.LVL221:
 3940 1310 00C0      		rjmp .L205
 3941               	.LVL222:
 3942               	.L204:
 3943 1312 20E0      		ldi r18,lo8(0)
 3944               	.LVL223:
 3945 1314 8AE1      		ldi r24,lo8(26)
 3946 1316 90E0      		ldi r25,hi8(26)
 3947 1318 AC01      		movw r20,r24
 3948 131a 649F      		mul r22,r20
 3949 131c C001      		movw r24,r0
 3950 131e 659F      		mul r22,r21
 3951 1320 900D      		add r25,r0
 3952 1322 749F      		mul r23,r20
 3953 1324 900D      		add r25,r0
 3954 1326 1124      		clr r1
 3955 1328 C80F      		add r28,r24
 3956 132a D91F      		adc r29,r25
 3957 132c CE5B      		subi r28,lo8(-(66))
 3958 132e DF4F      		sbci r29,hi8(-(66))
 3959 1330 8881      		ld r24,Y
 3960 1332 80FF      		sbrs r24,0
 3961 1334 21E0      		ldi r18,lo8(1)
 3962               	.L206:
 3963 1336 81E0      		ldi r24,lo8(1)
 3964 1338 2827      		eor r18,r24
 3965               	.L205:
 3966               	.LM403:
 3967 133a 822F      		mov r24,r18
 3968               	/* epilogue start */
 3969 133c DF91      		pop r29
 3970 133e CF91      		pop r28
 3971 1340 0895      		ret
 3972               	.LFE75:
 3974               	.global	Timebase_DownCounter_Period_Value_Expired_Event
 3976               	Timebase_DownCounter_Period_Value_Expired_Event:
 3977               	.LFB76:
 3978               	.LM404:
 3979               	.LVL224:
 3980 1342 1F93      		push r17
 3981               	/* prologue: function */
 3982               	/* frame size = 0 */
 3983 1344 182F      		mov r17,r24
 3984               	.LM405:
 3985 1346 0E94 0000 		call Timebase_DownCounter_Period_Value_Expired
 3986               	.LVL225:
 3987 134a 8130      		cpi r24,lo8(1)
 3988 134c 01F0      		breq .L209
 3989 134e 80E0      		ldi r24,lo8(0)
 3990 1350 00C0      		rjmp .L210
 3991               	.L209:
 3992               	.LBB489:
 3993               	.LBB490:
 3994               	.LM406:
 3995 1352 E091 0000 		lds r30,Timebase
 3996 1356 F091 0000 		lds r31,(Timebase)+1
 3997 135a 212F      		mov r18,r17
 3998 135c 30E0      		ldi r19,lo8(0)
 3999               	.LVL226:
 4000 135e 8AE1      		ldi r24,lo8(26)
 4001 1360 90E0      		ldi r25,hi8(26)
 4002 1362 AC01      		movw r20,r24
 4003 1364 249F      		mul r18,r20
 4004 1366 C001      		movw r24,r0
 4005 1368 259F      		mul r18,r21
 4006 136a 900D      		add r25,r0
 4007 136c 349F      		mul r19,r20
 4008 136e 900D      		add r25,r0
 4009 1370 1124      		clr r1
 4010 1372 E80F      		add r30,r24
 4011 1374 F91F      		adc r31,r25
 4012 1376 EE5B      		subi r30,lo8(-(66))
 4013 1378 FF4F      		sbci r31,hi8(-(66))
 4014 137a 8081      		ld r24,Z
 4015 137c 8E7F      		andi r24,lo8(-2)
 4016 137e 8083      		st Z,r24
 4017 1380 81E0      		ldi r24,lo8(1)
 4018               	.L210:
 4019               	/* epilogue start */
 4020               	.LBE490:
 4021               	.LBE489:
 4022               	.LM407:
 4023 1382 1F91      		pop r17
 4024               	.LVL227:
 4025 1384 0895      		ret
 4026               	.LFE76:
 4028               	.global	Timebase_DownCounter_Update_All
 4030               	Timebase_DownCounter_Update_All:
 4031               	.LFB77:
 4032               	.LM408:
 4033               	/* prologue: function */
 4034               	/* frame size = 0 */
 4035               	.LBB491:
 4036               	.LM409:
 4037 1386 80E0      		ldi r24,lo8(0)
 4038 1388 0E94 0000 		call Timebase_DownCounter_Update
 4039               	/* epilogue start */
 4040               	.LBE491:
 4041               	.LM410:
 4042 138c 0895      		ret
 4043               	.LFE77:
 4045               	.global	Timebase_DownCounter_Reset_All
 4047               	Timebase_DownCounter_Reset_All:
 4048               	.LFB78:
 4049               	.LM411:
 4050               	/* prologue: function */
 4051               	/* frame size = 0 */
 4052               	.LBB492:
 4053               	.LBB493:
 4054               	.LBB494:
 4055               	.LBB495:
 4056               	.LBB496:
 4057               	.LM412:
 4058 138e E091 0000 		lds r30,Timebase
 4059 1392 F091 0000 		lds r31,(Timebase)+1
 4060 1396 ED5B      		subi r30,lo8(-(67))
 4061 1398 FF4F      		sbci r31,hi8(-(67))
 4062 139a 1192      		st Z+,__zero_reg__
 4063 139c 1192      		st Z+,__zero_reg__
 4064 139e 1192      		st Z+,__zero_reg__
 4065 13a0 1192      		st Z+,__zero_reg__
 4066               	.LBE496:
 4067               	.LBE495:
 4068               	.LBB497:
 4069               	.LBB498:
 4070               	.LM413:
 4071 13a2 1082      		st Z,__zero_reg__
 4072 13a4 1182      		std Z+1,__zero_reg__
 4073 13a6 1282      		std Z+2,__zero_reg__
 4074 13a8 1382      		std Z+3,__zero_reg__
 4075               	.LBE498:
 4076               	.LBE497:
 4077               	.LBB499:
 4078               	.LBB500:
 4079               	.LM414:
 4080 13aa 3597      		sbiw r30,5
 4081 13ac 8081      		ld r24,Z
 4082               	.LBE500:
 4083               	.LBE499:
 4084               	.LBB501:
 4085               	.LBB502:
 4086               	.LM415:
 4087 13ae 807E      		andi r24,lo8(-32)
 4088 13b0 8083      		st Z,r24
 4089               	/* epilogue start */
 4090               	.LBE502:
 4091               	.LBE501:
 4092               	.LBE494:
 4093               	.LBE493:
 4094               	.LBE492:
 4095               	.LM416:
 4096 13b2 0895      		ret
 4097               	.LFE78:
 4099               	.global	Timebase_Reset
 4101               	Timebase_Reset:
 4102               	.LFB79:
 4103               	.LM417:
 4104               	/* prologue: function */
 4105               	/* frame size = 0 */
 4106               	.LM418:
 4107 13b4 0E94 0000 		call Timebase_UpCounter_Reset_All
 4108               	.LM419:
 4109 13b8 0E94 0000 		call Timebase_DownCounter_Reset_All
 4110               	/* epilogue start */
 4111               	.LM420:
 4112 13bc 0895      		ret
 4113               	.LFE79:
 4115               	.global	Timebase_Init
 4117               	Timebase_Init:
 4118               	.LFB80:
 4119               	.LM421:
 4120               	.LVL228:
 4121 13be 0F93      		push r16
 4122 13c0 1F93      		push r17
 4123               	/* prologue: function */
 4124               	/* frame size = 0 */
 4125 13c2 8C01      		movw r16,r24
 4126               	.LM422:
 4127 13c4 0E94 0000 		call Timebase_Struct_Init
 4128               	.LVL229:
 4129               	.LM423:
 4130 13c8 C801      		movw r24,r16
 4131 13ca 0E94 0000 		call Timebase_Timer_Config
 4132               	.LM424:
 4133 13ce 0E94 0000 		call Timebase_Reset
 4134               	/* epilogue start */
 4135               	.LM425:
 4136 13d2 1F91      		pop r17
 4137 13d4 0F91      		pop r16
 4138               	.LVL230:
 4139 13d6 0895      		ret
 4140               	.LFE80:
 4142               	.global	Timebase_Main_Loop_Executables
 4144               	Timebase_Main_Loop_Executables:
 4145               	.LFB81:
 4146               	.LM426:
 4147               	/* prologue: function */
 4148               	/* frame size = 0 */
 4149               	.LM427:
 4150 13d8 0E94 0000 		call Timebase_UpCounter_Update_All
 4151               	.LM428:
 4152 13dc 0E94 0000 		call Timebase_DownCounter_Update_All
 4153               	/* epilogue start */
 4154               	.LM429:
 4155 13e0 0895      		ret
 4156               	.LFE81:
 4158               	.global	Timebase_ISR_Executables
 4160               	Timebase_ISR_Executables:
 4161               	.LFB82:
 4162               	.LM430:
 4163               	/* prologue: function */
 4164               	/* frame size = 0 */
 4165               	.LM431:
 4166 13e2 E091 0000 		lds r30,Timebase
 4167 13e6 F091 0000 		lds r31,(Timebase)+1
 4168 13ea 8085      		ldd r24,Z+8
 4169 13ec 9185      		ldd r25,Z+9
 4170 13ee 0196      		adiw r24,1
 4171 13f0 9187      		std Z+9,r25
 4172 13f2 8087      		std Z+8,r24
 4173               	.LM432:
 4174 13f4 8381      		ldd r24,Z+3
 4175 13f6 86BD      		out 70-32,r24
 4176               	.LM433:
 4177 13f8 8085      		ldd r24,Z+8
 4178 13fa 9185      		ldd r25,Z+9
 4179 13fc 6181      		ldd r22,Z+1
 4180 13fe 7281      		ldd r23,Z+2
 4181 1400 0E94 0000 		call __udivmodhi4
 4182 1404 892B      		or r24,r25
 4183 1406 01F4      		brne .L224
 4184               	.LM434:
 4185 1408 8285      		ldd r24,Z+10
 4186 140a 9385      		ldd r25,Z+11
 4187 140c A485      		ldd r26,Z+12
 4188 140e B585      		ldd r27,Z+13
 4189 1410 0196      		adiw r24,1
 4190 1412 A11D      		adc r26,__zero_reg__
 4191 1414 B11D      		adc r27,__zero_reg__
 4192 1416 8287      		std Z+10,r24
 4193 1418 9387      		std Z+11,r25
 4194 141a A487      		std Z+12,r26
 4195 141c B587      		std Z+13,r27
 4196               	.LBB503:
 4197               	.LBB504:
 4198               	.LM435:
 4199 141e 8789      		ldd r24,Z+23
 4200               	.LBE504:
 4201               	.LBE503:
 4202               	.LM436:
 4203 1420 8823      		tst r24
 4204 1422 01F4      		brne .L224
 4205               	.LM437:
 4206 1424 1186      		std Z+9,__zero_reg__
 4207 1426 1086      		std Z+8,__zero_reg__
 4208               	.L224:
 4209 1428 0895      		ret
 4210               	.LFE82:
 4212               	.global	__vector_16
 4214               	__vector_16:
 4215               	.LFB83:
 4216               	.LM438:
 4217 142a 1F92      		push __zero_reg__
 4218 142c 0F92      		push r0
 4219 142e 0FB6      		in r0,__SREG__
 4220 1430 0F92      		push r0
 4221 1432 1124      		clr __zero_reg__
 4222 1434 2F93      		push r18
 4223 1436 3F93      		push r19
 4224 1438 4F93      		push r20
 4225 143a 5F93      		push r21
 4226 143c 6F93      		push r22
 4227 143e 7F93      		push r23
 4228 1440 8F93      		push r24
 4229 1442 9F93      		push r25
 4230 1444 AF93      		push r26
 4231 1446 BF93      		push r27
 4232 1448 EF93      		push r30
 4233 144a FF93      		push r31
 4234               	/* prologue: Signal */
 4235               	/* frame size = 0 */
 4236               	.LM439:
 4237 144c 5D9A      		sbi 43-32,5
 4238               	.LM440:
 4239 144e 0E94 0000 		call Timebase_ISR_Executables
 4240               	.LM441:
 4241 1452 5D98      		cbi 43-32,5
 4242               	/* epilogue start */
 4243               	.LM442:
 4244 1454 FF91      		pop r31
 4245 1456 EF91      		pop r30
 4246 1458 BF91      		pop r27
 4247 145a AF91      		pop r26
 4248 145c 9F91      		pop r25
 4249 145e 8F91      		pop r24
 4250 1460 7F91      		pop r23
 4251 1462 6F91      		pop r22
 4252 1464 5F91      		pop r21
 4253 1466 4F91      		pop r20
 4254 1468 3F91      		pop r19
 4255 146a 2F91      		pop r18
 4256 146c 0F90      		pop r0
 4257 146e 0FBE      		out __SREG__,r0
 4258 1470 0F90      		pop r0
 4259 1472 1F90      		pop __zero_reg__
 4260 1474 1895      		reti
 4261               	.LFE83:
 4263               		.data
 4266               	C.2.1368:
 4267 0000 0100      		.word	1
 4268 0002 0800      		.word	8
 4269 0004 4000      		.word	64
 4270 0006 0001      		.word	256
 4271 0008 0004      		.word	1024
 4272               		.comm Timebase_type,92,1
 4273               		.comm Timebase,2,1
 4914               	.Letext0:
DEFINED SYMBOLS
                            *ABS*:00000000 timebase.c
C:\Users\FARIDU~1\AppData\Local\Temp/cceMXJ5U.s:2      *ABS*:0000003f __SREG__
C:\Users\FARIDU~1\AppData\Local\Temp/cceMXJ5U.s:3      *ABS*:0000003e __SP_H__
C:\Users\FARIDU~1\AppData\Local\Temp/cceMXJ5U.s:4      *ABS*:0000003d __SP_L__
C:\Users\FARIDU~1\AppData\Local\Temp/cceMXJ5U.s:5      *ABS*:00000034 __CCP__
C:\Users\FARIDU~1\AppData\Local\Temp/cceMXJ5U.s:6      *ABS*:00000000 __tmp_reg__
C:\Users\FARIDU~1\AppData\Local\Temp/cceMXJ5U.s:7      *ABS*:00000001 __zero_reg__
C:\Users\FARIDU~1\AppData\Local\Temp/cceMXJ5U.s:18     .text:00000000 Timebase_Struct_Init
                            *COM*:0000005c Timebase_type
                            *COM*:00000002 Timebase
C:\Users\FARIDU~1\AppData\Local\Temp/cceMXJ5U.s:175    .text:00000196 Timebase_Timer_Config
C:\Users\FARIDU~1\AppData\Local\Temp/cceMXJ5U.s:4266   .data:00000000 C.2.1368
C:\Users\FARIDU~1\AppData\Local\Temp/cceMXJ5U.s:495    .text:00000330 Timebase_Token_Executing
C:\Users\FARIDU~1\AppData\Local\Temp/cceMXJ5U.s:511    .text:0000033c Timebase_Token_Add
C:\Users\FARIDU~1\AppData\Local\Temp/cceMXJ5U.s:537    .text:00000352 Timebase_Token_Remove
C:\Users\FARIDU~1\AppData\Local\Temp/cceMXJ5U.s:563    .text:00000368 Timebase_Token_Remove_All
C:\Users\FARIDU~1\AppData\Local\Temp/cceMXJ5U.s:579    .text:00000374 Timebase_Timer_Get_SubSeconds
C:\Users\FARIDU~1\AppData\Local\Temp/cceMXJ5U.s:597    .text:00000384 Timebase_Timer_Get_Seconds
C:\Users\FARIDU~1\AppData\Local\Temp/cceMXJ5U.s:618    .text:0000039a Timebase_Timer_Set_SubSeconds
C:\Users\FARIDU~1\AppData\Local\Temp/cceMXJ5U.s:636    .text:000003a8 Timebase_Timer_Set_Seconds
C:\Users\FARIDU~1\AppData\Local\Temp/cceMXJ5U.s:656    .text:000003ba Timebase_Timer_Delay_SubSeconds
C:\Users\FARIDU~1\AppData\Local\Temp/cceMXJ5U.s:743    .text:00000404 Timebase_Timer_Await_SubSeconds
C:\Users\FARIDU~1\AppData\Local\Temp/cceMXJ5U.s:826    .text:00000478 Timebase_Timer_Delay_Seconds
C:\Users\FARIDU~1\AppData\Local\Temp/cceMXJ5U.s:888    .text:000004ba Timebase_Window_Timer_Reset
C:\Users\FARIDU~1\AppData\Local\Temp/cceMXJ5U.s:914    .text:000004d6 Timebase_Window_Timer_Start
C:\Users\FARIDU~1\AppData\Local\Temp/cceMXJ5U.s:962    .text:0000050a Timebase_Window_Timer_Get_Interval
C:\Users\FARIDU~1\AppData\Local\Temp/cceMXJ5U.s:1060   .text:00000584 Timebase_Window_Timer_Get_Interval_Reset
C:\Users\FARIDU~1\AppData\Local\Temp/cceMXJ5U.s:1100   .text:000005ae Timebase_UpCounter_Get_Status
C:\Users\FARIDU~1\AppData\Local\Temp/cceMXJ5U.s:1134   .text:000005d8 Timebase_UpCounter_Set_Status
C:\Users\FARIDU~1\AppData\Local\Temp/cceMXJ5U.s:1172   .text:00000608 Timebase_UpCounter_Get_Value
C:\Users\FARIDU~1\AppData\Local\Temp/cceMXJ5U.s:1215   .text:00000642 Timebase_UpCounter_Set_Value
C:\Users\FARIDU~1\AppData\Local\Temp/cceMXJ5U.s:1250   .text:0000066e Timebase_UpCounter_Get_EndValue
C:\Users\FARIDU~1\AppData\Local\Temp/cceMXJ5U.s:1293   .text:000006a8 Timebase_UpCounter_Set_EndValue
C:\Users\FARIDU~1\AppData\Local\Temp/cceMXJ5U.s:1328   .text:000006d4 Timebase_UpCounter_Get_TargetValue
C:\Users\FARIDU~1\AppData\Local\Temp/cceMXJ5U.s:1371   .text:0000070e Timebase_UpCounter_Set_TargetValue
C:\Users\FARIDU~1\AppData\Local\Temp/cceMXJ5U.s:1406   .text:0000073a Timebase_UpCounter_Get_TemporaryValue
C:\Users\FARIDU~1\AppData\Local\Temp/cceMXJ5U.s:1449   .text:00000774 Timebase_UpCounter_Set_TemporaryValue
C:\Users\FARIDU~1\AppData\Local\Temp/cceMXJ5U.s:1484   .text:000007a0 Timebase_UpCounter_Get_PeriodValue
C:\Users\FARIDU~1\AppData\Local\Temp/cceMXJ5U.s:1527   .text:000007da Timebase_UpCounter_Set_PeriodValue
C:\Users\FARIDU~1\AppData\Local\Temp/cceMXJ5U.s:1562   .text:00000806 Timebase_UpCounter_Get_Period_Flag
C:\Users\FARIDU~1\AppData\Local\Temp/cceMXJ5U.s:1595   .text:0000082e Timebase_UpCounter_Set_Period_Flag
C:\Users\FARIDU~1\AppData\Local\Temp/cceMXJ5U.s:1629   .text:00000858 Timebase_UpCounter_Clear_Period_Flag
C:\Users\FARIDU~1\AppData\Local\Temp/cceMXJ5U.s:1663   .text:00000882 Timebase_UpCounter_Reset
C:\Users\FARIDU~1\AppData\Local\Temp/cceMXJ5U.s:1750   .text:000008d4 Timebase_UpCounter_Clear_All_Flags
C:\Users\FARIDU~1\AppData\Local\Temp/cceMXJ5U.s:1766   .text:000008da Timebase_UpCounter_Start
C:\Users\FARIDU~1\AppData\Local\Temp/cceMXJ5U.s:1814   .text:00000910 Timebase_UpCounter_Stop
C:\Users\FARIDU~1\AppData\Local\Temp/cceMXJ5U.s:1862   .text:00000946 Timebase_UpCounter_Set_Securely
C:\Users\FARIDU~1\AppData\Local\Temp/cceMXJ5U.s:1969   .text:000009b6 Timebase_UpCounter_Set_Forcefully
C:\Users\FARIDU~1\AppData\Local\Temp/cceMXJ5U.s:2005   .text:000009e0 Timebase_UpCounter_Update
C:\Users\FARIDU~1\AppData\Local\Temp/cceMXJ5U.s:2193   .text:00000ac8 Timebase_UpCounter_Expired
C:\Users\FARIDU~1\AppData\Local\Temp/cceMXJ5U.s:2233   .text:00000afc Timebase_UpCounter_Expired_Event
C:\Users\FARIDU~1\AppData\Local\Temp/cceMXJ5U.s:2282   .text:00000b3a Timebase_UpCounter_Set_Period_Value_Securely
C:\Users\FARIDU~1\AppData\Local\Temp/cceMXJ5U.s:2344   .text:00000b82 Timebase_UpCounter_Get_Remaining_Period_Value
C:\Users\FARIDU~1\AppData\Local\Temp/cceMXJ5U.s:2402   .text:00000bce Timebase_UpCounter_Period_Value_Expired
C:\Users\FARIDU~1\AppData\Local\Temp/cceMXJ5U.s:2494   .text:00000c4a Timebase_UpCounter_Period_Value_Expired_Event
C:\Users\FARIDU~1\AppData\Local\Temp/cceMXJ5U.s:2546   .text:00000c8a Timebase_UpCounter_Update_All
C:\Users\FARIDU~1\AppData\Local\Temp/cceMXJ5U.s:2563   .text:00000c92 Timebase_UpCounter_Reset_All
C:\Users\FARIDU~1\AppData\Local\Temp/cceMXJ5U.s:2580   .text:00000c9a Timebase_DownCounter_Get_Status
C:\Users\FARIDU~1\AppData\Local\Temp/cceMXJ5U.s:2616   .text:00000cc8 Timebase_DownCounter_Set_Status
C:\Users\FARIDU~1\AppData\Local\Temp/cceMXJ5U.s:2656   .text:00000cfc Timebase_DownCounter_Get_Value
C:\Users\FARIDU~1\AppData\Local\Temp/cceMXJ5U.s:2694   .text:00000d2c Timebase_DownCounter_Set_Value
C:\Users\FARIDU~1\AppData\Local\Temp/cceMXJ5U.s:2731   .text:00000d5c Timebase_DownCounter_Get_EndValue
C:\Users\FARIDU~1\AppData\Local\Temp/cceMXJ5U.s:2769   .text:00000d8c Timebase_DownCounter_Set_EndValue
C:\Users\FARIDU~1\AppData\Local\Temp/cceMXJ5U.s:2806   .text:00000dbc Timebase_DownCounter_Get_PeriodValue
C:\Users\FARIDU~1\AppData\Local\Temp/cceMXJ5U.s:2844   .text:00000dec Timebase_DownCounter_Set_PeriodValue
C:\Users\FARIDU~1\AppData\Local\Temp/cceMXJ5U.s:2906   .text:00000e48 Timebase_DownCounter_Get_Period_Flag
C:\Users\FARIDU~1\AppData\Local\Temp/cceMXJ5U.s:2941   .text:00000e74 Timebase_DownCounter_Set_Period_Flag
C:\Users\FARIDU~1\AppData\Local\Temp/cceMXJ5U.s:2977   .text:00000ea2 Timebase_DownCounter_Clear_Period_Flag
C:\Users\FARIDU~1\AppData\Local\Temp/cceMXJ5U.s:3013   .text:00000ed0 Timebase_DownCounter_Reset
C:\Users\FARIDU~1\AppData\Local\Temp/cceMXJ5U.s:3076   .text:00000f10 Timebase_DownCounter_Clear_All_Flags
C:\Users\FARIDU~1\AppData\Local\Temp/cceMXJ5U.s:3143   .text:00000f50 Timebase_DownCounter_Start
C:\Users\FARIDU~1\AppData\Local\Temp/cceMXJ5U.s:3193   .text:00000f8a Timebase_DownCounter_Stop
C:\Users\FARIDU~1\AppData\Local\Temp/cceMXJ5U.s:3243   .text:00000fc4 Timebase_DownCounter_Set_Securely
C:\Users\FARIDU~1\AppData\Local\Temp/cceMXJ5U.s:3343   .text:00001036 Timebase_DownCounter_Set_Forcefully
C:\Users\FARIDU~1\AppData\Local\Temp/cceMXJ5U.s:3417   .text:00001084 Timebase_DownCounter_Update
C:\Users\FARIDU~1\AppData\Local\Temp/cceMXJ5U.s:3584   .text:0000114e Timebase_DownCounter_Expired
C:\Users\FARIDU~1\AppData\Local\Temp/cceMXJ5U.s:3626   .text:00001186 Timebase_DownCounter_Expired_Event
C:\Users\FARIDU~1\AppData\Local\Temp/cceMXJ5U.s:3713   .text:000011da Timebase_DownCounter_Set_Period_Value_Securely
C:\Users\FARIDU~1\AppData\Local\Temp/cceMXJ5U.s:3812   .text:0000125e Timebase_DownCounter_Get_Remaining_Period_Value
C:\Users\FARIDU~1\AppData\Local\Temp/cceMXJ5U.s:3876   .text:000012b6 Timebase_DownCounter_Period_Value_Expired
C:\Users\FARIDU~1\AppData\Local\Temp/cceMXJ5U.s:3976   .text:00001342 Timebase_DownCounter_Period_Value_Expired_Event
C:\Users\FARIDU~1\AppData\Local\Temp/cceMXJ5U.s:4030   .text:00001386 Timebase_DownCounter_Update_All
C:\Users\FARIDU~1\AppData\Local\Temp/cceMXJ5U.s:4047   .text:0000138e Timebase_DownCounter_Reset_All
C:\Users\FARIDU~1\AppData\Local\Temp/cceMXJ5U.s:4101   .text:000013b4 Timebase_Reset
C:\Users\FARIDU~1\AppData\Local\Temp/cceMXJ5U.s:4117   .text:000013be Timebase_Init
C:\Users\FARIDU~1\AppData\Local\Temp/cceMXJ5U.s:4144   .text:000013d8 Timebase_Main_Loop_Executables
C:\Users\FARIDU~1\AppData\Local\Temp/cceMXJ5U.s:4160   .text:000013e2 Timebase_ISR_Executables
C:\Users\FARIDU~1\AppData\Local\Temp/cceMXJ5U.s:4214   .text:0000142a __vector_16

UNDEFINED SYMBOLS
__divmodsi4
__mulsi3
__udivmodhi4
__do_copy_data
__do_clear_bss
