   1               		.file	"timebase.c"
   2               	__SREG__ = 0x3f
   3               	__SP_H__ = 0x3e
   4               	__SP_L__ = 0x3d
   5               	__CCP__  = 0x34
   6               	__tmp_reg__ = 0
   7               	__zero_reg__ = 1
  15               	.Ltext0:
  16               	.global	Timebase_Struct_Init
  18               	Timebase_Struct_Init:
  19               	.LFB6:
  20               	.LM1:
  21               	/* prologue: function */
  22               	/* frame size = 0 */
  23               	.LM2:
  24 0000 80E0      		ldi r24,lo8(Timebase_type)
  25 0002 90E0      		ldi r25,hi8(Timebase_type)
  26 0004 9093 0000 		sts (Timebase)+1,r25
  27 0008 8093 0000 		sts Timebase,r24
  28               	.LM3:
  29 000c 1092 0000 		sts Timebase_type,__zero_reg__
  30               	.LM4:
  31 0010 8091 0000 		lds r24,Timebase_type
  32 0014 8460      		ori r24,lo8(4)
  33 0016 8093 0000 		sts Timebase_type,r24
  34               	.LM5:
  35 001a 8091 0000 		lds r24,Timebase_type
  36 001e 8770      		andi r24,lo8(7)
  37 0020 8093 0000 		sts Timebase_type,r24
  38               	.LM6:
  39 0024 81E0      		ldi r24,lo8(1)
  40 0026 90E0      		ldi r25,hi8(1)
  41 0028 9093 0000 		sts (Timebase_type+1)+1,r25
  42 002c 8093 0000 		sts Timebase_type+1,r24
  43               	.LM7:
  44 0030 1092 0000 		sts Timebase_type+7,__zero_reg__
  45 0034 1092 0000 		sts (Timebase_type+7)+1,__zero_reg__
  46 0038 1092 0000 		sts (Timebase_type+7)+2,__zero_reg__
  47 003c 1092 0000 		sts (Timebase_type+7)+3,__zero_reg__
  48               	.LM8:
  49 0040 1092 0000 		sts Timebase_type+11,__zero_reg__
  50 0044 1092 0000 		sts (Timebase_type+11)+1,__zero_reg__
  51 0048 1092 0000 		sts (Timebase_type+11)+2,__zero_reg__
  52 004c 1092 0000 		sts (Timebase_type+11)+3,__zero_reg__
  53               	.LM9:
  54 0050 1092 0000 		sts Timebase_type+3,__zero_reg__
  55 0054 1092 0000 		sts (Timebase_type+3)+1,__zero_reg__
  56 0058 1092 0000 		sts (Timebase_type+3)+2,__zero_reg__
  57 005c 1092 0000 		sts (Timebase_type+3)+3,__zero_reg__
  58               	.LM10:
  59 0060 1092 0000 		sts Timebase_type+15,__zero_reg__
  60               	.LBB70:
  61               	.LM11:
  62 0064 1092 0000 		sts Timebase_type+16,__zero_reg__
  63               	.LM12:
  64 0068 1092 0000 		sts Timebase_type+17,__zero_reg__
  65 006c 1092 0000 		sts (Timebase_type+17)+1,__zero_reg__
  66 0070 1092 0000 		sts (Timebase_type+17)+2,__zero_reg__
  67 0074 1092 0000 		sts (Timebase_type+17)+3,__zero_reg__
  68               	.LM13:
  69 0078 1092 0000 		sts Timebase_type+21,__zero_reg__
  70 007c 1092 0000 		sts (Timebase_type+21)+1,__zero_reg__
  71 0080 1092 0000 		sts (Timebase_type+21)+2,__zero_reg__
  72 0084 1092 0000 		sts (Timebase_type+21)+3,__zero_reg__
  73               	.LM14:
  74 0088 1092 0000 		sts Timebase_type+25,__zero_reg__
  75 008c 1092 0000 		sts (Timebase_type+25)+1,__zero_reg__
  76 0090 1092 0000 		sts (Timebase_type+25)+2,__zero_reg__
  77 0094 1092 0000 		sts (Timebase_type+25)+3,__zero_reg__
  78               	.LM15:
  79 0098 1092 0000 		sts Timebase_type+29,__zero_reg__
  80               	.LM16:
  81 009c 1092 0000 		sts Timebase_type+30,__zero_reg__
  82 00a0 1092 0000 		sts (Timebase_type+30)+1,__zero_reg__
  83 00a4 1092 0000 		sts (Timebase_type+30)+2,__zero_reg__
  84 00a8 1092 0000 		sts (Timebase_type+30)+3,__zero_reg__
  85               	.LM17:
  86 00ac 1092 0000 		sts Timebase_type+34,__zero_reg__
  87 00b0 1092 0000 		sts (Timebase_type+34)+1,__zero_reg__
  88 00b4 1092 0000 		sts (Timebase_type+34)+2,__zero_reg__
  89 00b8 1092 0000 		sts (Timebase_type+34)+3,__zero_reg__
  90               	.LM18:
  91 00bc 1092 0000 		sts Timebase_type+38,__zero_reg__
  92 00c0 1092 0000 		sts (Timebase_type+38)+1,__zero_reg__
  93 00c4 1092 0000 		sts (Timebase_type+38)+2,__zero_reg__
  94 00c8 1092 0000 		sts (Timebase_type+38)+3,__zero_reg__
  95               	.LM19:
  96 00cc 1092 0000 		sts Timebase_type+42,__zero_reg__
  97               	.LM20:
  98 00d0 1092 0000 		sts Timebase_type+43,__zero_reg__
  99 00d4 1092 0000 		sts (Timebase_type+43)+1,__zero_reg__
 100 00d8 1092 0000 		sts (Timebase_type+43)+2,__zero_reg__
 101 00dc 1092 0000 		sts (Timebase_type+43)+3,__zero_reg__
 102               	.LM21:
 103 00e0 1092 0000 		sts Timebase_type+47,__zero_reg__
 104 00e4 1092 0000 		sts (Timebase_type+47)+1,__zero_reg__
 105 00e8 1092 0000 		sts (Timebase_type+47)+2,__zero_reg__
 106 00ec 1092 0000 		sts (Timebase_type+47)+3,__zero_reg__
 107               	.LM22:
 108 00f0 1092 0000 		sts Timebase_type+51,__zero_reg__
 109 00f4 1092 0000 		sts (Timebase_type+51)+1,__zero_reg__
 110 00f8 1092 0000 		sts (Timebase_type+51)+2,__zero_reg__
 111 00fc 1092 0000 		sts (Timebase_type+51)+3,__zero_reg__
 112               	.LBE70:
 113               	.LBB71:
 114               	.LM23:
 115 0100 1092 0000 		sts Timebase_type+55,__zero_reg__
 116               	.LM24:
 117 0104 1092 0000 		sts Timebase_type+56,__zero_reg__
 118 0108 1092 0000 		sts (Timebase_type+56)+1,__zero_reg__
 119 010c 1092 0000 		sts (Timebase_type+56)+2,__zero_reg__
 120 0110 1092 0000 		sts (Timebase_type+56)+3,__zero_reg__
 121               	.LM25:
 122 0114 1092 0000 		sts Timebase_type+60,__zero_reg__
 123 0118 1092 0000 		sts (Timebase_type+60)+1,__zero_reg__
 124 011c 1092 0000 		sts (Timebase_type+60)+2,__zero_reg__
 125 0120 1092 0000 		sts (Timebase_type+60)+3,__zero_reg__
 126               	.LM26:
 127 0124 1092 0000 		sts Timebase_type+64,__zero_reg__
 128               	.LM27:
 129 0128 1092 0000 		sts Timebase_type+65,__zero_reg__
 130 012c 1092 0000 		sts (Timebase_type+65)+1,__zero_reg__
 131 0130 1092 0000 		sts (Timebase_type+65)+2,__zero_reg__
 132 0134 1092 0000 		sts (Timebase_type+65)+3,__zero_reg__
 133               	.LM28:
 134 0138 1092 0000 		sts Timebase_type+69,__zero_reg__
 135 013c 1092 0000 		sts (Timebase_type+69)+1,__zero_reg__
 136 0140 1092 0000 		sts (Timebase_type+69)+2,__zero_reg__
 137 0144 1092 0000 		sts (Timebase_type+69)+3,__zero_reg__
 138               	.LM29:
 139 0148 1092 0000 		sts Timebase_type+73,__zero_reg__
 140               	.LM30:
 141 014c 1092 0000 		sts Timebase_type+74,__zero_reg__
 142 0150 1092 0000 		sts (Timebase_type+74)+1,__zero_reg__
 143 0154 1092 0000 		sts (Timebase_type+74)+2,__zero_reg__
 144 0158 1092 0000 		sts (Timebase_type+74)+3,__zero_reg__
 145               	.LM31:
 146 015c 1092 0000 		sts Timebase_type+78,__zero_reg__
 147 0160 1092 0000 		sts (Timebase_type+78)+1,__zero_reg__
 148 0164 1092 0000 		sts (Timebase_type+78)+2,__zero_reg__
 149 0168 1092 0000 		sts (Timebase_type+78)+3,__zero_reg__
 150               	/* epilogue start */
 151               	.LBE71:
 152               	.LM32:
 153 016c 0895      		ret
 154               	.LFE6:
 156               	.global	Timebase_Timer_Config
 158               	Timebase_Timer_Config:
 159               	.LFB7:
 160               	.LM33:
 161               	.LVL0:
 162               	/* prologue: function */
 163               	/* frame size = 0 */
 164 016e 9C01      		movw r18,r24
 165               	.LM34:
 166 0170 E091 0000 		lds r30,Timebase
 167 0174 F091 0000 		lds r31,(Timebase)+1
 168 0178 8081      		ld r24,Z
 169               	.LVL1:
 170 017a 80FF      		sbrs r24,0
 171 017c 00C0      		rjmp .L4
 172               	.LBB72:
 173               	.LM35:
 174 017e 2130      		cpi r18,1
 175 0180 3105      		cpc r19,__zero_reg__
 176 0182 01F4      		brne .L5
 177 0184 96E0      		ldi r25,lo8(6)
 178               	.LVL2:
 179 0186 00C0      		rjmp .L6
 180               	.LVL3:
 181               	.L5:
 182               	.LM36:
 183 0188 2230      		cpi r18,2
 184 018a 3105      		cpc r19,__zero_reg__
 185 018c 01F4      		brne .L7
 186 018e 95E0      		ldi r25,lo8(5)
 187               	.LVL4:
 188 0190 00C0      		rjmp .L6
 189               	.LVL5:
 190               	.L7:
 191               	.LM37:
 192 0192 2430      		cpi r18,4
 193 0194 3105      		cpc r19,__zero_reg__
 194 0196 01F4      		brne .L8
 195 0198 94E0      		ldi r25,lo8(4)
 196               	.LVL6:
 197 019a 00C0      		rjmp .L6
 198               	.LVL7:
 199               	.L8:
 200               	.LM38:
 201 019c 2830      		cpi r18,8
 202 019e 3105      		cpc r19,__zero_reg__
 203 01a0 01F4      		brne .L9
 204 01a2 93E0      		ldi r25,lo8(3)
 205               	.LVL8:
 206 01a4 00C0      		rjmp .L6
 207               	.LVL9:
 208               	.L9:
 209               	.LM39:
 210 01a6 2031      		cpi r18,16
 211 01a8 3105      		cpc r19,__zero_reg__
 212 01aa 01F4      		brne .L10
 213 01ac 92E0      		ldi r25,lo8(2)
 214               	.LVL10:
 215 01ae 00C0      		rjmp .L6
 216               	.LVL11:
 217               	.L10:
 218 01b0 90E0      		ldi r25,lo8(0)
 219               	.LVL12:
 220 01b2 2032      		cpi r18,32
 221 01b4 3105      		cpc r19,__zero_reg__
 222 01b6 01F4      		brne .L6
 223 01b8 91E0      		ldi r25,lo8(1)
 224               	.L6:
 225               	.LM40:
 226               	/* #APP */
 227               	 ;  108 "timebase.c" 1
 228 01ba F894      		cli
 229               	 ;  0 "" 2
 230               	.LM41:
 231               	/* #NOAPP */
 232 01bc 84B7      		in r24,84-32
 233 01be 877F      		andi r24,lo8(-9)
 234 01c0 84BF      		out 84-32,r24
 235               	.LM42:
 236 01c2 8091 6000 		lds r24,96
 237 01c6 8068      		ori r24,lo8(-128)
 238 01c8 8093 6000 		sts 96,r24
 239               	.LM43:
 240 01cc 8091 6000 		lds r24,96
 241 01d0 8861      		ori r24,lo8(24)
 242 01d2 8093 6000 		sts 96,r24
 243               	.LM44:
 244 01d6 9064      		ori r25,lo8(64)
 245 01d8 9093 6000 		sts 96,r25
 246               	.LM45:
 247               	/* #APP */
 248               	 ;  113 "timebase.c" 1
 249 01dc 7894      		sei
 250               	 ;  0 "" 2
 251               	/* #NOAPP */
 252 01de 00C0      		rjmp .L12
 253               	.LVL13:
 254               	.L4:
 255               	.LBE72:
 256               	.LM46:
 257 01e0 81FD      		sbrc r24,1
 258 01e2 00C0      		rjmp .L12
 259               	.LM47:
 260 01e4 82FF      		sbrs r24,2
 261 01e6 00C0      		rjmp .L12
 262               	.LM48:
 263 01e8 14BC      		out 68-32,__zero_reg__
 264               	.LM49:
 265 01ea 15BC      		out 69-32,__zero_reg__
 266               	.LM50:
 267 01ec 1092 6E00 		sts 110,__zero_reg__
 268               	.LM51:
 269 01f0 15BA      		out 53-32,__zero_reg__
 270               	.LM52:
 271 01f2 17BC      		out 71-32,__zero_reg__
 272               	.LM53:
 273 01f4 18BC      		out 72-32,__zero_reg__
 274               	.LM54:
 275 01f6 16BC      		out 70-32,__zero_reg__
 276               	.LM55:
 277 01f8 8AEF      		ldi r24,lo8(-6)
 278 01fa 87BD      		out 71-32,r24
 279               	.LM56:
 280 01fc 92E0      		ldi r25,lo8(2)
 281 01fe 94BD      		out 68-32,r25
 282               	.LM57:
 283 0200 83E0      		ldi r24,lo8(3)
 284 0202 85BD      		out 69-32,r24
 285               	.LM58:
 286 0204 9093 6E00 		sts 110,r25
 287               	.LM59:
 288               	/* #APP */
 289               	 ;  128 "timebase.c" 1
 290 0208 7894      		sei
 291               	 ;  0 "" 2
 292               	.LVL14:
 293               	/* #NOAPP */
 294               	.L12:
 295               	.LM60:
 296 020a 3283      		std Z+2,r19
 297 020c 2183      		std Z+1,r18
 298               	/* epilogue start */
 299               	.LM61:
 300 020e 0895      		ret
 301               	.LFE7:
 303               	.global	Timebase_Wait_Unit_Time
 305               	Timebase_Wait_Unit_Time:
 306               	.LFB8:
 307               	.LM62:
 308               	/* prologue: function */
 309               	/* frame size = 0 */
 310               	.LM63:
 311 0210 E091 0000 		lds r30,Timebase
 312 0214 F091 0000 		lds r31,(Timebase)+1
 313               	.L15:
 314 0218 2381      		ldd r18,Z+3
 315 021a 3481      		ldd r19,Z+4
 316 021c 4581      		ldd r20,Z+5
 317 021e 5681      		ldd r21,Z+6
 318 0220 8781      		ldd r24,Z+7
 319 0222 9085      		ldd r25,Z+8
 320 0224 A185      		ldd r26,Z+9
 321 0226 B285      		ldd r27,Z+10
 322 0228 2817      		cp r18,r24
 323 022a 3907      		cpc r19,r25
 324 022c 4A07      		cpc r20,r26
 325 022e 5B07      		cpc r21,r27
 326 0230 01F0      		breq .L15
 327               	.LM64:
 328 0232 8781      		ldd r24,Z+7
 329 0234 9085      		ldd r25,Z+8
 330 0236 A185      		ldd r26,Z+9
 331 0238 B285      		ldd r27,Z+10
 332 023a 8383      		std Z+3,r24
 333 023c 9483      		std Z+4,r25
 334 023e A583      		std Z+5,r26
 335 0240 B683      		std Z+6,r27
 336               	/* epilogue start */
 337               	.LM65:
 338 0242 0895      		ret
 339               	.LFE8:
 341               	.global	Timebase_Tokens_Executing
 343               	Timebase_Tokens_Executing:
 344               	.LFB9:
 345               	.LM66:
 346               	/* prologue: function */
 347               	/* frame size = 0 */
 348               	.LM67:
 349 0244 E091 0000 		lds r30,Timebase
 350 0248 F091 0000 		lds r31,(Timebase)+1
 351 024c 8785      		ldd r24,Z+15
 352               	/* epilogue start */
 353               	.LM68:
 354 024e 0895      		ret
 355               	.LFE9:
 357               	.global	Timebase_Add_Token
 359               	Timebase_Add_Token:
 360               	.LFB10:
 361               	.LM69:
 362               	/* prologue: function */
 363               	/* frame size = 0 */
 364               	.LBB73:
 365               	.LBB74:
 366               	.LM70:
 367 0250 E091 0000 		lds r30,Timebase
 368 0254 F091 0000 		lds r31,(Timebase)+1
 369 0258 8785      		ldd r24,Z+15
 370               	.LBE74:
 371               	.LBE73:
 372               	.LM71:
 373 025a 8F33      		cpi r24,lo8(63)
 374 025c 00F4      		brsh .L22
 375               	.LM72:
 376 025e 8785      		ldd r24,Z+15
 377 0260 8F5F      		subi r24,lo8(-(1))
 378 0262 8787      		std Z+15,r24
 379               	.L22:
 380 0264 0895      		ret
 381               	.LFE10:
 383               	.global	Timebase_Remove_Token
 385               	Timebase_Remove_Token:
 386               	.LFB11:
 387               	.LM73:
 388               	/* prologue: function */
 389               	/* frame size = 0 */
 390               	.LBB75:
 391               	.LBB76:
 392               	.LM74:
 393 0266 E091 0000 		lds r30,Timebase
 394 026a F091 0000 		lds r31,(Timebase)+1
 395 026e 8785      		ldd r24,Z+15
 396               	.LBE76:
 397               	.LBE75:
 398               	.LM75:
 399 0270 8823      		tst r24
 400 0272 01F0      		breq .L25
 401               	.LM76:
 402 0274 8785      		ldd r24,Z+15
 403 0276 8150      		subi r24,lo8(-(-1))
 404 0278 8787      		std Z+15,r24
 405               	.L25:
 406 027a 0895      		ret
 407               	.LFE11:
 409               	.global	Timebase_Remove_All_Tokens
 411               	Timebase_Remove_All_Tokens:
 412               	.LFB12:
 413               	.LM77:
 414               	/* prologue: function */
 415               	/* frame size = 0 */
 416               	.LM78:
 417 027c E091 0000 		lds r30,Timebase
 418 0280 F091 0000 		lds r31,(Timebase)+1
 419 0284 1786      		std Z+15,__zero_reg__
 420               	/* epilogue start */
 421               	.LM79:
 422 0286 0895      		ret
 423               	.LFE12:
 425               	.global	Timebase_Get_SubSeconds
 427               	Timebase_Get_SubSeconds:
 428               	.LFB13:
 429               	.LM80:
 430               	/* prologue: function */
 431               	/* frame size = 0 */
 432               	.LM81:
 433 0288 E091 0000 		lds r30,Timebase
 434 028c F091 0000 		lds r31,(Timebase)+1
 435 0290 2781      		ldd r18,Z+7
 436 0292 3085      		ldd r19,Z+8
 437 0294 4185      		ldd r20,Z+9
 438 0296 5285      		ldd r21,Z+10
 439               	.LM82:
 440 0298 B901      		movw r22,r18
 441 029a CA01      		movw r24,r20
 442               	/* epilogue start */
 443 029c 0895      		ret
 444               	.LFE13:
 446               	.global	Timebase_Get_Seconds
 448               	Timebase_Get_Seconds:
 449               	.LFB14:
 450               	.LM83:
 451               	/* prologue: function */
 452               	/* frame size = 0 */
 453               	.LM84:
 454 029e E091 0000 		lds r30,Timebase
 455 02a2 F091 0000 		lds r31,(Timebase)+1
 456 02a6 2385      		ldd r18,Z+11
 457 02a8 3485      		ldd r19,Z+12
 458 02aa 4585      		ldd r20,Z+13
 459 02ac 5685      		ldd r21,Z+14
 460               	.LM85:
 461 02ae B901      		movw r22,r18
 462 02b0 CA01      		movw r24,r20
 463               	/* epilogue start */
 464 02b2 0895      		ret
 465               	.LFE14:
 467               	.global	Timebase_Set_SubSeconds
 469               	Timebase_Set_SubSeconds:
 470               	.LFB15:
 471               	.LM86:
 472               	.LVL15:
 473               	/* prologue: function */
 474               	/* frame size = 0 */
 475               	.LM87:
 476 02b4 E091 0000 		lds r30,Timebase
 477 02b8 F091 0000 		lds r31,(Timebase)+1
 478 02bc 6783      		std Z+7,r22
 479 02be 7087      		std Z+8,r23
 480 02c0 8187      		std Z+9,r24
 481 02c2 9287      		std Z+10,r25
 482               	/* epilogue start */
 483               	.LM88:
 484 02c4 0895      		ret
 485               	.LFE15:
 487               	.global	Timebase_Set_Seconds
 489               	Timebase_Set_Seconds:
 490               	.LFB16:
 491               	.LM89:
 492               	.LVL16:
 493               	/* prologue: function */
 494               	/* frame size = 0 */
 495               	.LM90:
 496 02c6 E091 0000 		lds r30,Timebase
 497 02ca F091 0000 		lds r31,(Timebase)+1
 498 02ce 6387      		std Z+11,r22
 499 02d0 7487      		std Z+12,r23
 500 02d2 8587      		std Z+13,r24
 501 02d4 9687      		std Z+14,r25
 502               	/* epilogue start */
 503               	.LM91:
 504 02d6 0895      		ret
 505               	.LFE16:
 507               	.global	Timebase_Reset_UpCounter
 509               	Timebase_Reset_UpCounter:
 510               	.LFB17:
 511               	.LM92:
 512               	.LVL17:
 513               	/* prologue: function */
 514               	/* frame size = 0 */
 515               	.LM93:
 516 02d8 E091 0000 		lds r30,Timebase
 517 02dc F091 0000 		lds r31,(Timebase)+1
 518 02e0 90E0      		ldi r25,lo8(0)
 519 02e2 2DE0      		ldi r18,lo8(13)
 520 02e4 30E0      		ldi r19,hi8(13)
 521 02e6 AC01      		movw r20,r24
 522               	.LVL18:
 523 02e8 429F      		mul r20,r18
 524 02ea C001      		movw r24,r0
 525 02ec 439F      		mul r20,r19
 526 02ee 900D      		add r25,r0
 527 02f0 529F      		mul r21,r18
 528 02f2 900D      		add r25,r0
 529 02f4 1124      		clr r1
 530 02f6 E80F      		add r30,r24
 531 02f8 F91F      		adc r31,r25
 532 02fa 108A      		std Z+16,__zero_reg__
 533               	.LM94:
 534 02fc 118E      		std Z+25,__zero_reg__
 535 02fe 128E      		std Z+26,__zero_reg__
 536 0300 138E      		std Z+27,__zero_reg__
 537 0302 148E      		std Z+28,__zero_reg__
 538               	.LM95:
 539 0304 118A      		std Z+17,__zero_reg__
 540 0306 128A      		std Z+18,__zero_reg__
 541 0308 138A      		std Z+19,__zero_reg__
 542 030a 148A      		std Z+20,__zero_reg__
 543               	.LM96:
 544 030c 158A      		std Z+21,__zero_reg__
 545 030e 168A      		std Z+22,__zero_reg__
 546 0310 178A      		std Z+23,__zero_reg__
 547 0312 108E      		std Z+24,__zero_reg__
 548               	/* epilogue start */
 549               	.LM97:
 550 0314 0895      		ret
 551               	.LFE17:
 553               	.global	Timebase_Start_UpCounter
 555               	Timebase_Start_UpCounter:
 556               	.LFB18:
 557               	.LM98:
 558               	.LVL19:
 559               	/* prologue: function */
 560               	/* frame size = 0 */
 561               	.LM99:
 562 0316 E091 0000 		lds r30,Timebase
 563 031a F091 0000 		lds r31,(Timebase)+1
 564 031e 90E0      		ldi r25,lo8(0)
 565               	.LVL20:
 566 0320 2DE0      		ldi r18,lo8(13)
 567 0322 30E0      		ldi r19,hi8(13)
 568 0324 AC01      		movw r20,r24
 569 0326 429F      		mul r20,r18
 570 0328 C001      		movw r24,r0
 571 032a 439F      		mul r20,r19
 572 032c 900D      		add r25,r0
 573 032e 529F      		mul r21,r18
 574 0330 900D      		add r25,r0
 575 0332 1124      		clr r1
 576               	.LVL21:
 577 0334 E80F      		add r30,r24
 578 0336 F91F      		adc r31,r25
 579 0338 81E0      		ldi r24,lo8(1)
 580 033a 808B      		std Z+16,r24
 581               	/* epilogue start */
 582               	.LM100:
 583 033c 0895      		ret
 584               	.LFE18:
 586               	.global	Timebase_Stop_UpCounter
 588               	Timebase_Stop_UpCounter:
 589               	.LFB19:
 590               	.LM101:
 591               	.LVL22:
 592               	/* prologue: function */
 593               	/* frame size = 0 */
 594               	.LM102:
 595 033e E091 0000 		lds r30,Timebase
 596 0342 F091 0000 		lds r31,(Timebase)+1
 597 0346 90E0      		ldi r25,lo8(0)
 598               	.LVL23:
 599 0348 2DE0      		ldi r18,lo8(13)
 600 034a 30E0      		ldi r19,hi8(13)
 601 034c AC01      		movw r20,r24
 602 034e 429F      		mul r20,r18
 603 0350 C001      		movw r24,r0
 604 0352 439F      		mul r20,r19
 605 0354 900D      		add r25,r0
 606 0356 529F      		mul r21,r18
 607 0358 900D      		add r25,r0
 608 035a 1124      		clr r1
 609               	.LVL24:
 610 035c E80F      		add r30,r24
 611 035e F91F      		adc r31,r25
 612 0360 82E0      		ldi r24,lo8(2)
 613 0362 808B      		std Z+16,r24
 614               	/* epilogue start */
 615               	.LM103:
 616 0364 0895      		ret
 617               	.LFE19:
 619               	.global	Timebase_Check_UpCounter_Status
 621               	Timebase_Check_UpCounter_Status:
 622               	.LFB20:
 623               	.LM104:
 624               	.LVL25:
 625               	/* prologue: function */
 626               	/* frame size = 0 */
 627               	.LM105:
 628 0366 E091 0000 		lds r30,Timebase
 629 036a F091 0000 		lds r31,(Timebase)+1
 630 036e 90E0      		ldi r25,lo8(0)
 631               	.LVL26:
 632 0370 2DE0      		ldi r18,lo8(13)
 633 0372 30E0      		ldi r19,hi8(13)
 634 0374 AC01      		movw r20,r24
 635 0376 429F      		mul r20,r18
 636 0378 C001      		movw r24,r0
 637 037a 439F      		mul r20,r19
 638 037c 900D      		add r25,r0
 639 037e 529F      		mul r21,r18
 640 0380 900D      		add r25,r0
 641 0382 1124      		clr r1
 642               	.LVL27:
 643 0384 E80F      		add r30,r24
 644 0386 F91F      		adc r31,r25
 645               	.LM106:
 646 0388 8089      		ldd r24,Z+16
 647               	/* epilogue start */
 648 038a 0895      		ret
 649               	.LFE20:
 651               	.global	Timebase_Get_UpCounter_Value
 653               	Timebase_Get_UpCounter_Value:
 654               	.LFB21:
 655               	.LM107:
 656               	.LVL28:
 657               	/* prologue: function */
 658               	/* frame size = 0 */
 659               	.LM108:
 660 038c E091 0000 		lds r30,Timebase
 661 0390 F091 0000 		lds r31,(Timebase)+1
 662 0394 90E0      		ldi r25,lo8(0)
 663               	.LVL29:
 664 0396 2DE0      		ldi r18,lo8(13)
 665 0398 30E0      		ldi r19,hi8(13)
 666 039a AC01      		movw r20,r24
 667 039c 429F      		mul r20,r18
 668 039e C001      		movw r24,r0
 669 03a0 439F      		mul r20,r19
 670 03a2 900D      		add r25,r0
 671 03a4 529F      		mul r21,r18
 672 03a6 900D      		add r25,r0
 673 03a8 1124      		clr r1
 674               	.LVL30:
 675 03aa E80F      		add r30,r24
 676 03ac F91F      		adc r31,r25
 677 03ae DF01      		movw r26,r30
 678 03b0 5996      		adiw r26,25
 679 03b2 618D      		ldd r22,Z+25
 680 03b4 1196      		adiw r26,1
 681 03b6 7C91      		ld r23,X
 682 03b8 1197      		sbiw r26,1
 683               	.LM109:
 684 03ba 1296      		adiw r26,2
 685 03bc 8C91      		ld r24,X
 686 03be 1297      		sbiw r26,2
 687 03c0 1396      		adiw r26,3
 688 03c2 9C91      		ld r25,X
 689               	.LVL31:
 690               	/* epilogue start */
 691 03c4 0895      		ret
 692               	.LFE21:
 694               	.global	Timebase_Securely_Set_UpCounter
 696               	Timebase_Securely_Set_UpCounter:
 697               	.LFB22:
 698               	.LM110:
 699               	.LVL32:
 700 03c6 CF93      		push r28
 701 03c8 DF93      		push r29
 702               	/* prologue: function */
 703               	/* frame size = 0 */
 704               	.LBB77:
 705               	.LBB78:
 706               	.LM111:
 707 03ca C091 0000 		lds r28,Timebase
 708 03ce D091 0000 		lds r29,(Timebase)+1
 709 03d2 90E0      		ldi r25,lo8(0)
 710               	.LBE78:
 711               	.LBE77:
 712               	.LM112:
 713 03d4 2DE0      		ldi r18,lo8(13)
 714 03d6 30E0      		ldi r19,hi8(13)
 715 03d8 829F      		mul r24,r18
 716 03da F001      		movw r30,r0
 717 03dc 839F      		mul r24,r19
 718 03de F00D      		add r31,r0
 719 03e0 929F      		mul r25,r18
 720 03e2 F00D      		add r31,r0
 721 03e4 1124      		clr r1
 722               	.LVL33:
 723 03e6 EC0F      		add r30,r28
 724 03e8 FD1F      		adc r31,r29
 725 03ea 8089      		ldd r24,Z+16
 726 03ec 8823      		tst r24
 727 03ee 01F4      		brne .L48
 728               	.LM113:
 729 03f0 118E      		std Z+25,__zero_reg__
 730 03f2 128E      		std Z+26,__zero_reg__
 731 03f4 138E      		std Z+27,__zero_reg__
 732 03f6 148E      		std Z+28,__zero_reg__
 733               	.LM114:
 734 03f8 8B85      		ldd r24,Y+11
 735 03fa 9C85      		ldd r25,Y+12
 736 03fc AD85      		ldd r26,Y+13
 737 03fe BE85      		ldd r27,Y+14
 738 0400 858B      		std Z+21,r24
 739 0402 968B      		std Z+22,r25
 740 0404 A78B      		std Z+23,r26
 741 0406 B08F      		std Z+24,r27
 742               	.LM115:
 743 0408 8B85      		ldd r24,Y+11
 744 040a 9C85      		ldd r25,Y+12
 745 040c AD85      		ldd r26,Y+13
 746 040e BE85      		ldd r27,Y+14
 747 0410 840F      		add r24,r20
 748 0412 951F      		adc r25,r21
 749 0414 A61F      		adc r26,r22
 750 0416 B71F      		adc r27,r23
 751 0418 818B      		std Z+17,r24
 752 041a 928B      		std Z+18,r25
 753 041c A38B      		std Z+19,r26
 754 041e B48B      		std Z+20,r27
 755               	.LBB79:
 756               	.LBB80:
 757               	.LM116:
 758 0420 81E0      		ldi r24,lo8(1)
 759 0422 808B      		std Z+16,r24
 760               	.L48:
 761               	/* epilogue start */
 762               	.LBE80:
 763               	.LBE79:
 764               	.LM117:
 765 0424 DF91      		pop r29
 766 0426 CF91      		pop r28
 767 0428 0895      		ret
 768               	.LFE22:
 770               	.global	Timebase_Forcefully_Set_UpCounter
 772               	Timebase_Forcefully_Set_UpCounter:
 773               	.LFB23:
 774               	.LM118:
 775               	.LVL34:
 776 042a 0F93      		push r16
 777 042c 1F93      		push r17
 778 042e CF93      		push r28
 779 0430 DF93      		push r29
 780               	/* prologue: function */
 781               	/* frame size = 0 */
 782               	.LBB81:
 783               	.LBB82:
 784               	.LM119:
 785 0432 0091 0000 		lds r16,Timebase
 786 0436 1091 0000 		lds r17,(Timebase)+1
 787 043a 90E0      		ldi r25,lo8(0)
 788 043c 2DE0      		ldi r18,lo8(13)
 789 043e 30E0      		ldi r19,hi8(13)
 790 0440 829F      		mul r24,r18
 791 0442 F001      		movw r30,r0
 792 0444 839F      		mul r24,r19
 793 0446 F00D      		add r31,r0
 794 0448 929F      		mul r25,r18
 795 044a F00D      		add r31,r0
 796 044c 1124      		clr r1
 797               	.LVL35:
 798 044e E00F      		add r30,r16
 799 0450 F11F      		adc r31,r17
 800 0452 108A      		std Z+16,__zero_reg__
 801               	.LM120:
 802 0454 118A      		std Z+17,__zero_reg__
 803 0456 128A      		std Z+18,__zero_reg__
 804 0458 138A      		std Z+19,__zero_reg__
 805 045a 148A      		std Z+20,__zero_reg__
 806               	.LM121:
 807 045c 158A      		std Z+21,__zero_reg__
 808 045e 168A      		std Z+22,__zero_reg__
 809 0460 178A      		std Z+23,__zero_reg__
 810 0462 108E      		std Z+24,__zero_reg__
 811               	.LBE82:
 812               	.LBE81:
 813               	.LBB83:
 814               	.LBB84:
 815               	.LM122:
 816 0464 118E      		std Z+25,__zero_reg__
 817 0466 128E      		std Z+26,__zero_reg__
 818 0468 138E      		std Z+27,__zero_reg__
 819 046a 148E      		std Z+28,__zero_reg__
 820               	.LM123:
 821 046c E801      		movw r28,r16
 822 046e 8B85      		ldd r24,Y+11
 823 0470 9C85      		ldd r25,Y+12
 824 0472 AD85      		ldd r26,Y+13
 825 0474 BE85      		ldd r27,Y+14
 826 0476 858B      		std Z+21,r24
 827 0478 968B      		std Z+22,r25
 828 047a A78B      		std Z+23,r26
 829 047c B08F      		std Z+24,r27
 830               	.LM124:
 831 047e 8B85      		ldd r24,Y+11
 832 0480 9C85      		ldd r25,Y+12
 833 0482 AD85      		ldd r26,Y+13
 834 0484 BE85      		ldd r27,Y+14
 835 0486 840F      		add r24,r20
 836 0488 951F      		adc r25,r21
 837 048a A61F      		adc r26,r22
 838 048c B71F      		adc r27,r23
 839 048e 818B      		std Z+17,r24
 840 0490 928B      		std Z+18,r25
 841 0492 A38B      		std Z+19,r26
 842 0494 B48B      		std Z+20,r27
 843               	.LBB85:
 844               	.LBB86:
 845               	.LM125:
 846 0496 81E0      		ldi r24,lo8(1)
 847 0498 808B      		std Z+16,r24
 848               	/* epilogue start */
 849               	.LBE86:
 850               	.LBE85:
 851               	.LBE84:
 852               	.LBE83:
 853               	.LM126:
 854 049a DF91      		pop r29
 855 049c CF91      		pop r28
 856 049e 1F91      		pop r17
 857 04a0 0F91      		pop r16
 858 04a2 0895      		ret
 859               	.LFE23:
 861               	.global	Timebase_Update_UpCounter
 863               	Timebase_Update_UpCounter:
 864               	.LFB24:
 865               	.LM127:
 866               	.LVL36:
 867 04a4 CF93      		push r28
 868 04a6 DF93      		push r29
 869               	/* prologue: function */
 870               	/* frame size = 0 */
 871               	.LBB87:
 872               	.LBB88:
 873               	.LM128:
 874 04a8 C091 0000 		lds r28,Timebase
 875 04ac D091 0000 		lds r29,(Timebase)+1
 876 04b0 90E0      		ldi r25,lo8(0)
 877 04b2 2DE0      		ldi r18,lo8(13)
 878 04b4 30E0      		ldi r19,hi8(13)
 879 04b6 829F      		mul r24,r18
 880 04b8 F001      		movw r30,r0
 881 04ba 839F      		mul r24,r19
 882 04bc F00D      		add r31,r0
 883 04be 929F      		mul r25,r18
 884 04c0 F00D      		add r31,r0
 885 04c2 1124      		clr r1
 886               	.LVL37:
 887 04c4 EC0F      		add r30,r28
 888 04c6 FD1F      		adc r31,r29
 889 04c8 8089      		ldd r24,Z+16
 890               	.LBE88:
 891               	.LBE87:
 892               	.LM129:
 893 04ca 8130      		cpi r24,lo8(1)
 894 04cc 01F4      		brne .L53
 895               	.LM130:
 896 04ce 8B85      		ldd r24,Y+11
 897 04d0 9C85      		ldd r25,Y+12
 898 04d2 AD85      		ldd r26,Y+13
 899 04d4 BE85      		ldd r27,Y+14
 900 04d6 2589      		ldd r18,Z+21
 901 04d8 3689      		ldd r19,Z+22
 902 04da 4789      		ldd r20,Z+23
 903 04dc 508D      		ldd r21,Z+24
 904 04de 821B      		sub r24,r18
 905 04e0 930B      		sbc r25,r19
 906 04e2 A40B      		sbc r26,r20
 907 04e4 B50B      		sbc r27,r21
 908 04e6 818F      		std Z+25,r24
 909 04e8 928F      		std Z+26,r25
 910 04ea A38F      		std Z+27,r26
 911 04ec B48F      		std Z+28,r27
 912               	.LM131:
 913 04ee 2B85      		ldd r18,Y+11
 914 04f0 3C85      		ldd r19,Y+12
 915 04f2 4D85      		ldd r20,Y+13
 916 04f4 5E85      		ldd r21,Y+14
 917 04f6 8189      		ldd r24,Z+17
 918 04f8 9289      		ldd r25,Z+18
 919 04fa A389      		ldd r26,Z+19
 920 04fc B489      		ldd r27,Z+20
 921 04fe 2817      		cp r18,r24
 922 0500 3907      		cpc r19,r25
 923 0502 4A07      		cpc r20,r26
 924 0504 5B07      		cpc r21,r27
 925 0506 00F0      		brlo .L55
 926               	.LBB89:
 927               	.LBB90:
 928               	.LM132:
 929 0508 118E      		std Z+25,__zero_reg__
 930 050a 128E      		std Z+26,__zero_reg__
 931 050c 138E      		std Z+27,__zero_reg__
 932 050e 148E      		std Z+28,__zero_reg__
 933               	.LM133:
 934 0510 118A      		std Z+17,__zero_reg__
 935 0512 128A      		std Z+18,__zero_reg__
 936 0514 138A      		std Z+19,__zero_reg__
 937 0516 148A      		std Z+20,__zero_reg__
 938               	.LM134:
 939 0518 158A      		std Z+21,__zero_reg__
 940 051a 168A      		std Z+22,__zero_reg__
 941 051c 178A      		std Z+23,__zero_reg__
 942 051e 108E      		std Z+24,__zero_reg__
 943               	.LBE90:
 944               	.LBE89:
 945               	.LM135:
 946 0520 84E0      		ldi r24,lo8(4)
 947 0522 808B      		std Z+16,r24
 948 0524 00C0      		rjmp .L55
 949               	.L53:
 950               	.LM136:
 951 0526 8230      		cpi r24,lo8(2)
 952 0528 01F4      		brne .L55
 953               	.LM137:
 954 052a 2B85      		ldd r18,Y+11
 955 052c 3C85      		ldd r19,Y+12
 956 052e 4D85      		ldd r20,Y+13
 957 0530 5E85      		ldd r21,Y+14
 958 0532 818D      		ldd r24,Z+25
 959 0534 928D      		ldd r25,Z+26
 960 0536 A38D      		ldd r26,Z+27
 961 0538 B48D      		ldd r27,Z+28
 962 053a 820F      		add r24,r18
 963 053c 931F      		adc r25,r19
 964 053e A41F      		adc r26,r20
 965 0540 B51F      		adc r27,r21
 966 0542 818B      		std Z+17,r24
 967 0544 928B      		std Z+18,r25
 968 0546 A38B      		std Z+19,r26
 969 0548 B48B      		std Z+20,r27
 970               	.L55:
 971               	/* epilogue start */
 972               	.LM138:
 973 054a DF91      		pop r29
 974 054c CF91      		pop r28
 975 054e 0895      		ret
 976               	.LFE24:
 978               	.global	Timebase_UpCounter_Clear_Flags
 980               	Timebase_UpCounter_Clear_Flags:
 981               	.LFB25:
 982               	.LM139:
 983               	.LVL38:
 984               	/* prologue: function */
 985               	/* frame size = 0 */
 986               	.LBB91:
 987               	.LBB92:
 988               	.LM140:
 989 0550 E091 0000 		lds r30,Timebase
 990 0554 F091 0000 		lds r31,(Timebase)+1
 991 0558 90E0      		ldi r25,lo8(0)
 992 055a 2DE0      		ldi r18,lo8(13)
 993 055c 30E0      		ldi r19,hi8(13)
 994 055e AC01      		movw r20,r24
 995               	.LVL39:
 996 0560 429F      		mul r20,r18
 997 0562 C001      		movw r24,r0
 998 0564 439F      		mul r20,r19
 999 0566 900D      		add r25,r0
 1000 0568 529F      		mul r21,r18
 1001 056a 900D      		add r25,r0
 1002 056c 1124      		clr r1
 1003 056e E80F      		add r30,r24
 1004 0570 F91F      		adc r31,r25
 1005 0572 108A      		std Z+16,__zero_reg__
 1006               	.LM141:
 1007 0574 118E      		std Z+25,__zero_reg__
 1008 0576 128E      		std Z+26,__zero_reg__
 1009 0578 138E      		std Z+27,__zero_reg__
 1010 057a 148E      		std Z+28,__zero_reg__
 1011               	.LM142:
 1012 057c 118A      		std Z+17,__zero_reg__
 1013 057e 128A      		std Z+18,__zero_reg__
 1014 0580 138A      		std Z+19,__zero_reg__
 1015 0582 148A      		std Z+20,__zero_reg__
 1016               	.LM143:
 1017 0584 158A      		std Z+21,__zero_reg__
 1018 0586 168A      		std Z+22,__zero_reg__
 1019 0588 178A      		std Z+23,__zero_reg__
 1020 058a 108E      		std Z+24,__zero_reg__
 1021               	/* epilogue start */
 1022               	.LBE92:
 1023               	.LBE91:
 1024               	.LM144:
 1025 058c 0895      		ret
 1026               	.LFE25:
 1028               	.global	Timebase_UpCounter_Expired
 1030               	Timebase_UpCounter_Expired:
 1031               	.LFB26:
 1032               	.LM145:
 1033               	.LVL40:
 1034               	/* prologue: function */
 1035               	/* frame size = 0 */
 1036               	.LM146:
 1037 058e 40E0      		ldi r20,lo8(0)
 1038 0590 E091 0000 		lds r30,Timebase
 1039 0594 F091 0000 		lds r31,(Timebase)+1
 1040 0598 90E0      		ldi r25,lo8(0)
 1041               	.LVL41:
 1042 059a 2DE0      		ldi r18,lo8(13)
 1043 059c 30E0      		ldi r19,hi8(13)
 1044 059e BC01      		movw r22,r24
 1045 05a0 629F      		mul r22,r18
 1046 05a2 C001      		movw r24,r0
 1047 05a4 639F      		mul r22,r19
 1048 05a6 900D      		add r25,r0
 1049 05a8 729F      		mul r23,r18
 1050 05aa 900D      		add r25,r0
 1051 05ac 1124      		clr r1
 1052               	.LVL42:
 1053 05ae E80F      		add r30,r24
 1054 05b0 F91F      		adc r31,r25
 1055 05b2 8089      		ldd r24,Z+16
 1056 05b4 8430      		cpi r24,lo8(4)
 1057 05b6 01F4      		brne .L59
 1058 05b8 41E0      		ldi r20,lo8(1)
 1059               	.L59:
 1060               	.LM147:
 1061 05ba 842F      		mov r24,r20
 1062               	/* epilogue start */
 1063 05bc 0895      		ret
 1064               	.LFE26:
 1066               	.global	Timebase_UpCounter_Expired_Event
 1068               	Timebase_UpCounter_Expired_Event:
 1069               	.LFB27:
 1070               	.LM148:
 1071               	.LVL43:
 1072               	/* prologue: function */
 1073               	/* frame size = 0 */
 1074               	.LBB93:
 1075               	.LBB94:
 1076               	.LM149:
 1077 05be E091 0000 		lds r30,Timebase
 1078 05c2 F091 0000 		lds r31,(Timebase)+1
 1079 05c6 90E0      		ldi r25,lo8(0)
 1080               	.LBE94:
 1081               	.LBE93:
 1082               	.LM150:
 1083 05c8 2DE0      		ldi r18,lo8(13)
 1084 05ca 30E0      		ldi r19,hi8(13)
 1085 05cc AC01      		movw r20,r24
 1086               	.LVL44:
 1087 05ce 429F      		mul r20,r18
 1088 05d0 C001      		movw r24,r0
 1089 05d2 439F      		mul r20,r19
 1090 05d4 900D      		add r25,r0
 1091 05d6 529F      		mul r21,r18
 1092 05d8 900D      		add r25,r0
 1093 05da 1124      		clr r1
 1094 05dc E80F      		add r30,r24
 1095 05de F91F      		adc r31,r25
 1096 05e0 8089      		ldd r24,Z+16
 1097 05e2 8430      		cpi r24,lo8(4)
 1098 05e4 01F0      		breq .L62
 1099 05e6 80E0      		ldi r24,lo8(0)
 1100 05e8 0895      		ret
 1101               	.L62:
 1102               	.LBB95:
 1103               	.LBB96:
 1104               	.LBB97:
 1105               	.LBB98:
 1106               	.LM151:
 1107 05ea 108A      		std Z+16,__zero_reg__
 1108               	.LM152:
 1109 05ec 118E      		std Z+25,__zero_reg__
 1110 05ee 128E      		std Z+26,__zero_reg__
 1111 05f0 138E      		std Z+27,__zero_reg__
 1112 05f2 148E      		std Z+28,__zero_reg__
 1113               	.LM153:
 1114 05f4 118A      		std Z+17,__zero_reg__
 1115 05f6 128A      		std Z+18,__zero_reg__
 1116 05f8 138A      		std Z+19,__zero_reg__
 1117 05fa 148A      		std Z+20,__zero_reg__
 1118               	.LM154:
 1119 05fc 158A      		std Z+21,__zero_reg__
 1120 05fe 168A      		std Z+22,__zero_reg__
 1121 0600 178A      		std Z+23,__zero_reg__
 1122 0602 108E      		std Z+24,__zero_reg__
 1123 0604 81E0      		ldi r24,lo8(1)
 1124               	.LBE98:
 1125               	.LBE97:
 1126               	.LBE96:
 1127               	.LBE95:
 1128               	.LM155:
 1129 0606 0895      		ret
 1130               	.LFE27:
 1132               	.global	Timebase_Update_UpCounters
 1134               	Timebase_Update_UpCounters:
 1135               	.LFB28:
 1136               	.LM156:
 1137               	/* prologue: function */
 1138               	/* frame size = 0 */
 1139               	.LBB99:
 1140               	.LM157:
 1141 0608 80E0      		ldi r24,lo8(0)
 1142 060a 0E94 0000 		call Timebase_Update_UpCounter
 1143 060e 81E0      		ldi r24,lo8(1)
 1144 0610 0E94 0000 		call Timebase_Update_UpCounter
 1145 0614 82E0      		ldi r24,lo8(2)
 1146 0616 0E94 0000 		call Timebase_Update_UpCounter
 1147               	/* epilogue start */
 1148               	.LBE99:
 1149               	.LM158:
 1150 061a 0895      		ret
 1151               	.LFE28:
 1153               	.global	Timebase_Reset_UpCounters
 1155               	Timebase_Reset_UpCounters:
 1156               	.LFB29:
 1157               	.LM159:
 1158               	/* prologue: function */
 1159               	/* frame size = 0 */
 1160               	.LBB100:
 1161               	.LBB101:
 1162               	.LBB102:
 1163               	.LM160:
 1164 061c E091 0000 		lds r30,Timebase
 1165 0620 F091 0000 		lds r31,(Timebase)+1
 1166 0624 108A      		std Z+16,__zero_reg__
 1167               	.LM161:
 1168 0626 118E      		std Z+25,__zero_reg__
 1169 0628 128E      		std Z+26,__zero_reg__
 1170 062a 138E      		std Z+27,__zero_reg__
 1171 062c 148E      		std Z+28,__zero_reg__
 1172               	.LM162:
 1173 062e 118A      		std Z+17,__zero_reg__
 1174 0630 128A      		std Z+18,__zero_reg__
 1175 0632 138A      		std Z+19,__zero_reg__
 1176 0634 148A      		std Z+20,__zero_reg__
 1177               	.LM163:
 1178 0636 158A      		std Z+21,__zero_reg__
 1179 0638 168A      		std Z+22,__zero_reg__
 1180 063a 178A      		std Z+23,__zero_reg__
 1181 063c 108E      		std Z+24,__zero_reg__
 1182               	.LM164:
 1183 063e 158E      		std Z+29,__zero_reg__
 1184               	.LM165:
 1185 0640 16A2      		std Z+38,__zero_reg__
 1186 0642 17A2      		std Z+39,__zero_reg__
 1187 0644 10A6      		std Z+40,__zero_reg__
 1188 0646 11A6      		std Z+41,__zero_reg__
 1189               	.LM166:
 1190 0648 168E      		std Z+30,__zero_reg__
 1191 064a 178E      		std Z+31,__zero_reg__
 1192 064c 10A2      		std Z+32,__zero_reg__
 1193 064e 11A2      		std Z+33,__zero_reg__
 1194               	.LM167:
 1195 0650 12A2      		std Z+34,__zero_reg__
 1196 0652 13A2      		std Z+35,__zero_reg__
 1197 0654 14A2      		std Z+36,__zero_reg__
 1198 0656 15A2      		std Z+37,__zero_reg__
 1199               	.LM168:
 1200 0658 12A6      		std Z+42,__zero_reg__
 1201               	.LM169:
 1202 065a 13AA      		std Z+51,__zero_reg__
 1203 065c 14AA      		std Z+52,__zero_reg__
 1204 065e 15AA      		std Z+53,__zero_reg__
 1205 0660 16AA      		std Z+54,__zero_reg__
 1206               	.LM170:
 1207 0662 13A6      		std Z+43,__zero_reg__
 1208 0664 14A6      		std Z+44,__zero_reg__
 1209 0666 15A6      		std Z+45,__zero_reg__
 1210 0668 16A6      		std Z+46,__zero_reg__
 1211               	.LM171:
 1212 066a 17A6      		std Z+47,__zero_reg__
 1213 066c 10AA      		std Z+48,__zero_reg__
 1214 066e 11AA      		std Z+49,__zero_reg__
 1215 0670 12AA      		std Z+50,__zero_reg__
 1216               	/* epilogue start */
 1217               	.LBE102:
 1218               	.LBE101:
 1219               	.LBE100:
 1220               	.LM172:
 1221 0672 0895      		ret
 1222               	.LFE29:
 1224               	.global	Timebase_Reset_DownCounter
 1226               	Timebase_Reset_DownCounter:
 1227               	.LFB30:
 1228               	.LM173:
 1229               	.LVL45:
 1230               	/* prologue: function */
 1231               	/* frame size = 0 */
 1232               	.LM174:
 1233 0674 E091 0000 		lds r30,Timebase
 1234 0678 F091 0000 		lds r31,(Timebase)+1
 1235 067c 90E0      		ldi r25,lo8(0)
 1236 067e 9C01      		movw r18,r24
 1237               	.LVL46:
 1238 0680 43E0      		ldi r20,3
 1239 0682 220F      	1:	lsl r18
 1240 0684 331F      		rol r19
 1241 0686 4A95      		dec r20
 1242 0688 01F4      		brne 1b
 1243 068a 280F      		add r18,r24
 1244 068c 391F      		adc r19,r25
 1245 068e E20F      		add r30,r18
 1246 0690 F31F      		adc r31,r19
 1247 0692 10AE      		std Z+56,__zero_reg__
 1248 0694 11AE      		std Z+57,__zero_reg__
 1249 0696 12AE      		std Z+58,__zero_reg__
 1250 0698 13AE      		std Z+59,__zero_reg__
 1251               	.LM175:
 1252 069a 14AE      		std Z+60,__zero_reg__
 1253 069c 15AE      		std Z+61,__zero_reg__
 1254 069e 16AE      		std Z+62,__zero_reg__
 1255 06a0 17AE      		std Z+63,__zero_reg__
 1256               	.LM176:
 1257 06a2 17AA      		std Z+55,__zero_reg__
 1258               	/* epilogue start */
 1259               	.LM177:
 1260 06a4 0895      		ret
 1261               	.LFE30:
 1263               	.global	Timebase_Start_DownCounter
 1265               	Timebase_Start_DownCounter:
 1266               	.LFB31:
 1267               	.LM178:
 1268               	.LVL47:
 1269               	/* prologue: function */
 1270               	/* frame size = 0 */
 1271               	.LM179:
 1272 06a6 E091 0000 		lds r30,Timebase
 1273 06aa F091 0000 		lds r31,(Timebase)+1
 1274 06ae 90E0      		ldi r25,lo8(0)
 1275               	.LVL48:
 1276 06b0 9C01      		movw r18,r24
 1277 06b2 53E0      		ldi r21,3
 1278 06b4 220F      	1:	lsl r18
 1279 06b6 331F      		rol r19
 1280 06b8 5A95      		dec r21
 1281 06ba 01F4      		brne 1b
 1282 06bc 280F      		add r18,r24
 1283 06be 391F      		adc r19,r25
 1284 06c0 E20F      		add r30,r18
 1285 06c2 F31F      		adc r31,r19
 1286 06c4 81E0      		ldi r24,lo8(1)
 1287               	.LVL49:
 1288 06c6 87AB      		std Z+55,r24
 1289               	/* epilogue start */
 1290               	.LM180:
 1291 06c8 0895      		ret
 1292               	.LFE31:
 1294               	.global	Timebase_Stop_DownCounter
 1296               	Timebase_Stop_DownCounter:
 1297               	.LFB32:
 1298               	.LM181:
 1299               	.LVL50:
 1300               	/* prologue: function */
 1301               	/* frame size = 0 */
 1302               	.LM182:
 1303 06ca E091 0000 		lds r30,Timebase
 1304 06ce F091 0000 		lds r31,(Timebase)+1
 1305 06d2 90E0      		ldi r25,lo8(0)
 1306               	.LVL51:
 1307 06d4 9C01      		movw r18,r24
 1308 06d6 63E0      		ldi r22,3
 1309 06d8 220F      	1:	lsl r18
 1310 06da 331F      		rol r19
 1311 06dc 6A95      		dec r22
 1312 06de 01F4      		brne 1b
 1313 06e0 280F      		add r18,r24
 1314 06e2 391F      		adc r19,r25
 1315 06e4 E20F      		add r30,r18
 1316 06e6 F31F      		adc r31,r19
 1317 06e8 82E0      		ldi r24,lo8(2)
 1318               	.LVL52:
 1319 06ea 87AB      		std Z+55,r24
 1320               	/* epilogue start */
 1321               	.LM183:
 1322 06ec 0895      		ret
 1323               	.LFE32:
 1325               	.global	Timebase_Check_DownCounter_Status
 1327               	Timebase_Check_DownCounter_Status:
 1328               	.LFB33:
 1329               	.LM184:
 1330               	.LVL53:
 1331               	/* prologue: function */
 1332               	/* frame size = 0 */
 1333               	.LM185:
 1334 06ee E091 0000 		lds r30,Timebase
 1335 06f2 F091 0000 		lds r31,(Timebase)+1
 1336 06f6 90E0      		ldi r25,lo8(0)
 1337               	.LVL54:
 1338 06f8 9C01      		movw r18,r24
 1339 06fa 73E0      		ldi r23,3
 1340 06fc 220F      	1:	lsl r18
 1341 06fe 331F      		rol r19
 1342 0700 7A95      		dec r23
 1343 0702 01F4      		brne 1b
 1344 0704 280F      		add r18,r24
 1345 0706 391F      		adc r19,r25
 1346 0708 E20F      		add r30,r18
 1347 070a F31F      		adc r31,r19
 1348               	.LM186:
 1349 070c 87A9      		ldd r24,Z+55
 1350               	.LVL55:
 1351               	/* epilogue start */
 1352 070e 0895      		ret
 1353               	.LFE33:
 1355               	.global	Timebase_Get_DownCounter_Value
 1357               	Timebase_Get_DownCounter_Value:
 1358               	.LFB34:
 1359               	.LM187:
 1360               	.LVL56:
 1361               	/* prologue: function */
 1362               	/* frame size = 0 */
 1363               	.LM188:
 1364 0710 E091 0000 		lds r30,Timebase
 1365 0714 F091 0000 		lds r31,(Timebase)+1
 1366 0718 90E0      		ldi r25,lo8(0)
 1367               	.LVL57:
 1368 071a 9C01      		movw r18,r24
 1369 071c A3E0      		ldi r26,3
 1370 071e 220F      	1:	lsl r18
 1371 0720 331F      		rol r19
 1372 0722 AA95      		dec r26
 1373 0724 01F4      		brne 1b
 1374 0726 280F      		add r18,r24
 1375 0728 391F      		adc r19,r25
 1376 072a E20F      		add r30,r18
 1377 072c F31F      		adc r31,r19
 1378 072e DF01      		movw r26,r30
 1379 0730 DC96      		adiw r26,60
 1380 0732 64AD      		ldd r22,Z+60
 1381 0734 1196      		adiw r26,1
 1382 0736 7C91      		ld r23,X
 1383 0738 1197      		sbiw r26,1
 1384               	.LM189:
 1385 073a 1296      		adiw r26,2
 1386 073c 8C91      		ld r24,X
 1387 073e 1297      		sbiw r26,2
 1388               	.LVL58:
 1389 0740 1396      		adiw r26,3
 1390 0742 9C91      		ld r25,X
 1391               	.LVL59:
 1392               	/* epilogue start */
 1393 0744 0895      		ret
 1394               	.LFE34:
 1396               	.global	Timebase_Securely_Set_DownCounter
 1398               	Timebase_Securely_Set_DownCounter:
 1399               	.LFB35:
 1400               	.LM190:
 1401               	.LVL60:
 1402               	/* prologue: function */
 1403               	/* frame size = 0 */
 1404               	.LBB103:
 1405               	.LBB104:
 1406               	.LM191:
 1407 0746 A091 0000 		lds r26,Timebase
 1408 074a B091 0000 		lds r27,(Timebase)+1
 1409 074e 90E0      		ldi r25,lo8(0)
 1410               	.LBE104:
 1411               	.LBE103:
 1412               	.LM192:
 1413 0750 FC01      		movw r30,r24
 1414               	.LVL61:
 1415 0752 23E0      		ldi r18,3
 1416 0754 EE0F      	1:	lsl r30
 1417 0756 FF1F      		rol r31
 1418 0758 2A95      		dec r18
 1419 075a 01F4      		brne 1b
 1420 075c E80F      		add r30,r24
 1421 075e F91F      		adc r31,r25
 1422 0760 EA0F      		add r30,r26
 1423 0762 FB1F      		adc r31,r27
 1424 0764 87A9      		ldd r24,Z+55
 1425 0766 8823      		tst r24
 1426 0768 01F4      		brne .L81
 1427               	.LM193:
 1428 076a 44AF      		std Z+60,r20
 1429 076c 55AF      		std Z+61,r21
 1430 076e 66AF      		std Z+62,r22
 1431 0770 77AF      		std Z+63,r23
 1432               	.LM194:
 1433 0772 1B96      		adiw r26,11
 1434 0774 8D91      		ld r24,X+
 1435 0776 9D91      		ld r25,X+
 1436 0778 0D90      		ld __tmp_reg__,X+
 1437 077a BC91      		ld r27,X
 1438 077c A02D      		mov r26,__tmp_reg__
 1439 077e 840F      		add r24,r20
 1440 0780 951F      		adc r25,r21
 1441 0782 A61F      		adc r26,r22
 1442 0784 B71F      		adc r27,r23
 1443 0786 80AF      		std Z+56,r24
 1444 0788 91AF      		std Z+57,r25
 1445 078a A2AF      		std Z+58,r26
 1446 078c B3AF      		std Z+59,r27
 1447               	.LBB105:
 1448               	.LBB106:
 1449               	.LM195:
 1450 078e 81E0      		ldi r24,lo8(1)
 1451 0790 87AB      		std Z+55,r24
 1452               	.L81:
 1453 0792 0895      		ret
 1454               	.LBE106:
 1455               	.LBE105:
 1456               	.LFE35:
 1458               	.global	Timebase_Forcefully_Set_DownCounter
 1460               	Timebase_Forcefully_Set_DownCounter:
 1461               	.LFB36:
 1462               	.LM196:
 1463               	.LVL62:
 1464               	/* prologue: function */
 1465               	/* frame size = 0 */
 1466               	.LBB107:
 1467               	.LBB108:
 1468               	.LM197:
 1469 0794 A091 0000 		lds r26,Timebase
 1470 0798 B091 0000 		lds r27,(Timebase)+1
 1471 079c 90E0      		ldi r25,lo8(0)
 1472 079e FC01      		movw r30,r24
 1473               	.LVL63:
 1474 07a0 33E0      		ldi r19,3
 1475 07a2 EE0F      	1:	lsl r30
 1476 07a4 FF1F      		rol r31
 1477 07a6 3A95      		dec r19
 1478 07a8 01F4      		brne 1b
 1479 07aa E80F      		add r30,r24
 1480 07ac F91F      		adc r31,r25
 1481 07ae EA0F      		add r30,r26
 1482 07b0 FB1F      		adc r31,r27
 1483 07b2 10AE      		std Z+56,__zero_reg__
 1484 07b4 11AE      		std Z+57,__zero_reg__
 1485 07b6 12AE      		std Z+58,__zero_reg__
 1486 07b8 13AE      		std Z+59,__zero_reg__
 1487               	.LM198:
 1488 07ba 17AA      		std Z+55,__zero_reg__
 1489               	.LBE108:
 1490               	.LBE107:
 1491               	.LBB109:
 1492               	.LBB110:
 1493               	.LM199:
 1494 07bc 44AF      		std Z+60,r20
 1495 07be 55AF      		std Z+61,r21
 1496 07c0 66AF      		std Z+62,r22
 1497 07c2 77AF      		std Z+63,r23
 1498               	.LM200:
 1499 07c4 1B96      		adiw r26,11
 1500 07c6 8D91      		ld r24,X+
 1501 07c8 9D91      		ld r25,X+
 1502 07ca 0D90      		ld __tmp_reg__,X+
 1503 07cc BC91      		ld r27,X
 1504 07ce A02D      		mov r26,__tmp_reg__
 1505 07d0 840F      		add r24,r20
 1506 07d2 951F      		adc r25,r21
 1507 07d4 A61F      		adc r26,r22
 1508 07d6 B71F      		adc r27,r23
 1509 07d8 80AF      		std Z+56,r24
 1510 07da 91AF      		std Z+57,r25
 1511 07dc A2AF      		std Z+58,r26
 1512 07de B3AF      		std Z+59,r27
 1513               	.LBB111:
 1514               	.LBB112:
 1515               	.LM201:
 1516 07e0 81E0      		ldi r24,lo8(1)
 1517 07e2 87AB      		std Z+55,r24
 1518               	/* epilogue start */
 1519               	.LBE112:
 1520               	.LBE111:
 1521               	.LBE110:
 1522               	.LBE109:
 1523               	.LM202:
 1524 07e4 0895      		ret
 1525               	.LFE36:
 1527               	.global	Timebase_Update_DownCounter
 1529               	Timebase_Update_DownCounter:
 1530               	.LFB37:
 1531               	.LM203:
 1532               	.LVL64:
 1533               	/* prologue: function */
 1534               	/* frame size = 0 */
 1535               	.LBB113:
 1536               	.LBB114:
 1537               	.LM204:
 1538 07e6 A091 0000 		lds r26,Timebase
 1539 07ea B091 0000 		lds r27,(Timebase)+1
 1540 07ee 90E0      		ldi r25,lo8(0)
 1541 07f0 FC01      		movw r30,r24
 1542               	.LVL65:
 1543 07f2 43E0      		ldi r20,3
 1544 07f4 EE0F      	1:	lsl r30
 1545 07f6 FF1F      		rol r31
 1546 07f8 4A95      		dec r20
 1547 07fa 01F4      		brne 1b
 1548 07fc E80F      		add r30,r24
 1549 07fe F91F      		adc r31,r25
 1550 0800 EA0F      		add r30,r26
 1551 0802 FB1F      		adc r31,r27
 1552 0804 87A9      		ldd r24,Z+55
 1553               	.LBE114:
 1554               	.LBE113:
 1555               	.LM205:
 1556 0806 8130      		cpi r24,lo8(1)
 1557 0808 01F4      		brne .L85
 1558               	.LM206:
 1559 080a 1B96      		adiw r26,11
 1560 080c 2D91      		ld r18,X+
 1561 080e 3D91      		ld r19,X+
 1562 0810 4D91      		ld r20,X+
 1563 0812 5C91      		ld r21,X
 1564 0814 1E97      		sbiw r26,11+3
 1565 0816 80AD      		ldd r24,Z+56
 1566 0818 91AD      		ldd r25,Z+57
 1567 081a A2AD      		ldd r26,Z+58
 1568 081c B3AD      		ldd r27,Z+59
 1569 081e 821B      		sub r24,r18
 1570 0820 930B      		sbc r25,r19
 1571 0822 A40B      		sbc r26,r20
 1572 0824 B50B      		sbc r27,r21
 1573 0826 84AF      		std Z+60,r24
 1574 0828 95AF      		std Z+61,r25
 1575 082a A6AF      		std Z+62,r26
 1576 082c B7AF      		std Z+63,r27
 1577               	.LM207:
 1578 082e 1816      		cp __zero_reg__,r24
 1579 0830 1906      		cpc __zero_reg__,r25
 1580 0832 1A06      		cpc __zero_reg__,r26
 1581 0834 1B06      		cpc __zero_reg__,r27
 1582 0836 04F0      		brlt .L87
 1583               	.LBB115:
 1584               	.LBB116:
 1585               	.LM208:
 1586 0838 10AE      		std Z+56,__zero_reg__
 1587 083a 11AE      		std Z+57,__zero_reg__
 1588 083c 12AE      		std Z+58,__zero_reg__
 1589 083e 13AE      		std Z+59,__zero_reg__
 1590               	.LM209:
 1591 0840 14AE      		std Z+60,__zero_reg__
 1592 0842 15AE      		std Z+61,__zero_reg__
 1593 0844 16AE      		std Z+62,__zero_reg__
 1594 0846 17AE      		std Z+63,__zero_reg__
 1595               	.LBE116:
 1596               	.LBE115:
 1597               	.LM210:
 1598 0848 84E0      		ldi r24,lo8(4)
 1599 084a 87AB      		std Z+55,r24
 1600 084c 0895      		ret
 1601               	.L85:
 1602               	.LM211:
 1603 084e 8230      		cpi r24,lo8(2)
 1604 0850 01F4      		brne .L87
 1605               	.LM212:
 1606 0852 1B96      		adiw r26,11
 1607 0854 2D91      		ld r18,X+
 1608 0856 3D91      		ld r19,X+
 1609 0858 4D91      		ld r20,X+
 1610 085a 5C91      		ld r21,X
 1611 085c 1E97      		sbiw r26,11+3
 1612 085e 84AD      		ldd r24,Z+60
 1613 0860 95AD      		ldd r25,Z+61
 1614 0862 A6AD      		ldd r26,Z+62
 1615 0864 B7AD      		ldd r27,Z+63
 1616 0866 820F      		add r24,r18
 1617 0868 931F      		adc r25,r19
 1618 086a A41F      		adc r26,r20
 1619 086c B51F      		adc r27,r21
 1620 086e 80AF      		std Z+56,r24
 1621 0870 91AF      		std Z+57,r25
 1622 0872 A2AF      		std Z+58,r26
 1623 0874 B3AF      		std Z+59,r27
 1624               	.L87:
 1625 0876 0895      		ret
 1626               	.LFE37:
 1628               	.global	Timebase_DownCounter_Clear_Flags
 1630               	Timebase_DownCounter_Clear_Flags:
 1631               	.LFB38:
 1632               	.LM213:
 1633               	.LVL66:
 1634               	/* prologue: function */
 1635               	/* frame size = 0 */
 1636               	.LBB117:
 1637               	.LBB118:
 1638               	.LM214:
 1639 0878 E091 0000 		lds r30,Timebase
 1640 087c F091 0000 		lds r31,(Timebase)+1
 1641 0880 90E0      		ldi r25,lo8(0)
 1642 0882 9C01      		movw r18,r24
 1643               	.LVL67:
 1644 0884 53E0      		ldi r21,3
 1645 0886 220F      	1:	lsl r18
 1646 0888 331F      		rol r19
 1647 088a 5A95      		dec r21
 1648 088c 01F4      		brne 1b
 1649 088e 280F      		add r18,r24
 1650 0890 391F      		adc r19,r25
 1651 0892 E20F      		add r30,r18
 1652 0894 F31F      		adc r31,r19
 1653 0896 10AE      		std Z+56,__zero_reg__
 1654 0898 11AE      		std Z+57,__zero_reg__
 1655 089a 12AE      		std Z+58,__zero_reg__
 1656 089c 13AE      		std Z+59,__zero_reg__
 1657               	.LM215:
 1658 089e 14AE      		std Z+60,__zero_reg__
 1659 08a0 15AE      		std Z+61,__zero_reg__
 1660 08a2 16AE      		std Z+62,__zero_reg__
 1661 08a4 17AE      		std Z+63,__zero_reg__
 1662               	.LM216:
 1663 08a6 17AA      		std Z+55,__zero_reg__
 1664               	/* epilogue start */
 1665               	.LBE118:
 1666               	.LBE117:
 1667               	.LM217:
 1668 08a8 0895      		ret
 1669               	.LFE38:
 1671               	.global	Timebase_DownCounter_Expired
 1673               	Timebase_DownCounter_Expired:
 1674               	.LFB39:
 1675               	.LM218:
 1676               	.LVL68:
 1677               	/* prologue: function */
 1678               	/* frame size = 0 */
 1679               	.LM219:
 1680 08aa 40E0      		ldi r20,lo8(0)
 1681 08ac E091 0000 		lds r30,Timebase
 1682 08b0 F091 0000 		lds r31,(Timebase)+1
 1683 08b4 90E0      		ldi r25,lo8(0)
 1684               	.LVL69:
 1685 08b6 9C01      		movw r18,r24
 1686 08b8 63E0      		ldi r22,3
 1687 08ba 220F      	1:	lsl r18
 1688 08bc 331F      		rol r19
 1689 08be 6A95      		dec r22
 1690 08c0 01F4      		brne 1b
 1691 08c2 280F      		add r18,r24
 1692 08c4 391F      		adc r19,r25
 1693 08c6 E20F      		add r30,r18
 1694 08c8 F31F      		adc r31,r19
 1695 08ca 87A9      		ldd r24,Z+55
 1696               	.LVL70:
 1697 08cc 8430      		cpi r24,lo8(4)
 1698 08ce 01F4      		brne .L91
 1699 08d0 41E0      		ldi r20,lo8(1)
 1700               	.L91:
 1701               	.LM220:
 1702 08d2 842F      		mov r24,r20
 1703               	/* epilogue start */
 1704 08d4 0895      		ret
 1705               	.LFE39:
 1707               	.global	Timebase_DownCounter_Expired_Event
 1709               	Timebase_DownCounter_Expired_Event:
 1710               	.LFB40:
 1711               	.LM221:
 1712               	.LVL71:
 1713               	/* prologue: function */
 1714               	/* frame size = 0 */
 1715               	.LBB119:
 1716               	.LBB120:
 1717               	.LM222:
 1718 08d6 E091 0000 		lds r30,Timebase
 1719 08da F091 0000 		lds r31,(Timebase)+1
 1720 08de 90E0      		ldi r25,lo8(0)
 1721               	.LBE120:
 1722               	.LBE119:
 1723               	.LM223:
 1724 08e0 9C01      		movw r18,r24
 1725               	.LVL72:
 1726 08e2 73E0      		ldi r23,3
 1727 08e4 220F      	1:	lsl r18
 1728 08e6 331F      		rol r19
 1729 08e8 7A95      		dec r23
 1730 08ea 01F4      		brne 1b
 1731 08ec 280F      		add r18,r24
 1732 08ee 391F      		adc r19,r25
 1733 08f0 E20F      		add r30,r18
 1734 08f2 F31F      		adc r31,r19
 1735 08f4 87A9      		ldd r24,Z+55
 1736 08f6 8430      		cpi r24,lo8(4)
 1737 08f8 01F0      		breq .L94
 1738 08fa 80E0      		ldi r24,lo8(0)
 1739 08fc 0895      		ret
 1740               	.L94:
 1741               	.LBB121:
 1742               	.LBB122:
 1743               	.LBB123:
 1744               	.LBB124:
 1745               	.LM224:
 1746 08fe 10AE      		std Z+56,__zero_reg__
 1747 0900 11AE      		std Z+57,__zero_reg__
 1748 0902 12AE      		std Z+58,__zero_reg__
 1749 0904 13AE      		std Z+59,__zero_reg__
 1750               	.LM225:
 1751 0906 14AE      		std Z+60,__zero_reg__
 1752 0908 15AE      		std Z+61,__zero_reg__
 1753 090a 16AE      		std Z+62,__zero_reg__
 1754 090c 17AE      		std Z+63,__zero_reg__
 1755               	.LM226:
 1756 090e 17AA      		std Z+55,__zero_reg__
 1757 0910 81E0      		ldi r24,lo8(1)
 1758               	.LBE124:
 1759               	.LBE123:
 1760               	.LBE122:
 1761               	.LBE121:
 1762               	.LM227:
 1763 0912 0895      		ret
 1764               	.LFE40:
 1766               	.global	Timebase_Update_DownCounters
 1768               	Timebase_Update_DownCounters:
 1769               	.LFB41:
 1770               	.LM228:
 1771               	/* prologue: function */
 1772               	/* frame size = 0 */
 1773               	.LBB125:
 1774               	.LM229:
 1775 0914 80E0      		ldi r24,lo8(0)
 1776 0916 0E94 0000 		call Timebase_Update_DownCounter
 1777 091a 81E0      		ldi r24,lo8(1)
 1778 091c 0E94 0000 		call Timebase_Update_DownCounter
 1779 0920 82E0      		ldi r24,lo8(2)
 1780 0922 0E94 0000 		call Timebase_Update_DownCounter
 1781               	/* epilogue start */
 1782               	.LBE125:
 1783               	.LM230:
 1784 0926 0895      		ret
 1785               	.LFE41:
 1787               	.global	Timebase_Reset_DownCounters
 1789               	Timebase_Reset_DownCounters:
 1790               	.LFB42:
 1791               	.LM231:
 1792               	/* prologue: function */
 1793               	/* frame size = 0 */
 1794               	.LBB126:
 1795               	.LBB127:
 1796               	.LBB128:
 1797               	.LM232:
 1798 0928 E091 0000 		lds r30,Timebase
 1799 092c F091 0000 		lds r31,(Timebase)+1
 1800 0930 10AE      		std Z+56,__zero_reg__
 1801 0932 11AE      		std Z+57,__zero_reg__
 1802 0934 12AE      		std Z+58,__zero_reg__
 1803 0936 13AE      		std Z+59,__zero_reg__
 1804               	.LM233:
 1805 0938 14AE      		std Z+60,__zero_reg__
 1806 093a 15AE      		std Z+61,__zero_reg__
 1807 093c 16AE      		std Z+62,__zero_reg__
 1808 093e 17AE      		std Z+63,__zero_reg__
 1809               	.LM234:
 1810 0940 17AA      		std Z+55,__zero_reg__
 1811               	.LM235:
 1812 0942 EF5B      		subi r30,lo8(-(65))
 1813 0944 FF4F      		sbci r31,hi8(-(65))
 1814 0946 1192      		st Z+,__zero_reg__
 1815 0948 1192      		st Z+,__zero_reg__
 1816 094a 1192      		st Z+,__zero_reg__
 1817 094c 1192      		st Z+,__zero_reg__
 1818               	.LM236:
 1819 094e 1082      		st Z,__zero_reg__
 1820 0950 1182      		std Z+1,__zero_reg__
 1821 0952 1282      		std Z+2,__zero_reg__
 1822 0954 1382      		std Z+3,__zero_reg__
 1823               	.LM237:
 1824 0956 3597      		sbiw r30,5
 1825 0958 1082      		st Z,__zero_reg__
 1826               	.LM238:
 1827 095a 3A96      		adiw r30,10
 1828 095c 1192      		st Z+,__zero_reg__
 1829 095e 1192      		st Z+,__zero_reg__
 1830 0960 1192      		st Z+,__zero_reg__
 1831 0962 1192      		st Z+,__zero_reg__
 1832               	.LM239:
 1833 0964 1082      		st Z,__zero_reg__
 1834 0966 1182      		std Z+1,__zero_reg__
 1835 0968 1282      		std Z+2,__zero_reg__
 1836 096a 1382      		std Z+3,__zero_reg__
 1837               	.LM240:
 1838 096c 3597      		sbiw r30,5
 1839 096e 1082      		st Z,__zero_reg__
 1840               	/* epilogue start */
 1841               	.LBE128:
 1842               	.LBE127:
 1843               	.LBE126:
 1844               	.LM241:
 1845 0970 0895      		ret
 1846               	.LFE42:
 1848               	.global	Timebase_Reset
 1850               	Timebase_Reset:
 1851               	.LFB43:
 1852               	.LM242:
 1853               	/* prologue: function */
 1854               	/* frame size = 0 */
 1855               	.LM243:
 1856 0972 0E94 0000 		call Timebase_Reset_UpCounters
 1857               	.LM244:
 1858 0976 0E94 0000 		call Timebase_Reset_DownCounters
 1859               	/* epilogue start */
 1860               	.LM245:
 1861 097a 0895      		ret
 1862               	.LFE43:
 1864               	.global	Timebase_Init
 1866               	Timebase_Init:
 1867               	.LFB44:
 1868               	.LM246:
 1869               	.LVL73:
 1870 097c 0F93      		push r16
 1871 097e 1F93      		push r17
 1872               	/* prologue: function */
 1873               	/* frame size = 0 */
 1874 0980 8C01      		movw r16,r24
 1875               	.LM247:
 1876 0982 0E94 0000 		call Timebase_Struct_Init
 1877               	.LVL74:
 1878               	.LM248:
 1879 0986 C801      		movw r24,r16
 1880 0988 0E94 0000 		call Timebase_Timer_Config
 1881               	.LM249:
 1882 098c 0E94 0000 		call Timebase_Reset
 1883               	/* epilogue start */
 1884               	.LM250:
 1885 0990 1F91      		pop r17
 1886 0992 0F91      		pop r16
 1887               	.LVL75:
 1888 0994 0895      		ret
 1889               	.LFE44:
 1891               	.global	Timebase_Main_Loop_Executables
 1893               	Timebase_Main_Loop_Executables:
 1894               	.LFB45:
 1895               	.LM251:
 1896               	/* prologue: function */
 1897               	/* frame size = 0 */
 1898               	.LM252:
 1899 0996 0E94 0000 		call Timebase_Update_UpCounters
 1900               	.LM253:
 1901 099a 0E94 0000 		call Timebase_Update_DownCounters
 1902               	/* epilogue start */
 1903               	.LM254:
 1904 099e 0895      		ret
 1905               	.LFE45:
 1907               	.global	Timebase_ISR_Executables
 1909               	Timebase_ISR_Executables:
 1910               	.LFB46:
 1911               	.LM255:
 1912 09a0 CF93      		push r28
 1913 09a2 DF93      		push r29
 1914               	/* prologue: function */
 1915               	/* frame size = 0 */
 1916               	.LM256:
 1917 09a4 C091 0000 		lds r28,Timebase
 1918 09a8 D091 0000 		lds r29,(Timebase)+1
 1919 09ac 8F81      		ldd r24,Y+7
 1920 09ae 9885      		ldd r25,Y+8
 1921 09b0 A985      		ldd r26,Y+9
 1922 09b2 BA85      		ldd r27,Y+10
 1923 09b4 0196      		adiw r24,1
 1924 09b6 A11D      		adc r26,__zero_reg__
 1925 09b8 B11D      		adc r27,__zero_reg__
 1926 09ba 8F83      		std Y+7,r24
 1927 09bc 9887      		std Y+8,r25
 1928 09be A987      		std Y+9,r26
 1929 09c0 BA87      		std Y+10,r27
 1930               	.LM257:
 1931 09c2 6F81      		ldd r22,Y+7
 1932 09c4 7885      		ldd r23,Y+8
 1933 09c6 8985      		ldd r24,Y+9
 1934 09c8 9A85      		ldd r25,Y+10
 1935 09ca 2981      		ldd r18,Y+1
 1936 09cc 3A81      		ldd r19,Y+2
 1937 09ce 40E0      		ldi r20,lo8(0)
 1938 09d0 50E0      		ldi r21,hi8(0)
 1939 09d2 0E94 0000 		call __udivmodsi4
 1940 09d6 6115      		cp r22,__zero_reg__
 1941 09d8 7105      		cpc r23,__zero_reg__
 1942 09da 8105      		cpc r24,__zero_reg__
 1943 09dc 9105      		cpc r25,__zero_reg__
 1944 09de 01F4      		brne .L109
 1945               	.LM258:
 1946 09e0 8B85      		ldd r24,Y+11
 1947 09e2 9C85      		ldd r25,Y+12
 1948 09e4 AD85      		ldd r26,Y+13
 1949 09e6 BE85      		ldd r27,Y+14
 1950 09e8 0196      		adiw r24,1
 1951 09ea A11D      		adc r26,__zero_reg__
 1952 09ec B11D      		adc r27,__zero_reg__
 1953 09ee 8B87      		std Y+11,r24
 1954 09f0 9C87      		std Y+12,r25
 1955 09f2 AD87      		std Y+13,r26
 1956 09f4 BE87      		std Y+14,r27
 1957               	.LBB129:
 1958               	.LBB130:
 1959               	.LM259:
 1960 09f6 8F85      		ldd r24,Y+15
 1961               	.LBE130:
 1962               	.LBE129:
 1963               	.LM260:
 1964 09f8 8823      		tst r24
 1965 09fa 01F4      		brne .L109
 1966               	.LM261:
 1967 09fc 1F82      		std Y+7,__zero_reg__
 1968 09fe 1886      		std Y+8,__zero_reg__
 1969 0a00 1986      		std Y+9,__zero_reg__
 1970 0a02 1A86      		std Y+10,__zero_reg__
 1971               	.L109:
 1972               	/* epilogue start */
 1973               	.LM262:
 1974 0a04 DF91      		pop r29
 1975 0a06 CF91      		pop r28
 1976 0a08 0895      		ret
 1977               	.LFE46:
 1979               	.global	__vector_14
 1981               	__vector_14:
 1982               	.LFB47:
 1983               	.LM263:
 1984 0a0a 1F92      		push __zero_reg__
 1985 0a0c 0F92      		push r0
 1986 0a0e 0FB6      		in r0,__SREG__
 1987 0a10 0F92      		push r0
 1988 0a12 1124      		clr __zero_reg__
 1989 0a14 2F93      		push r18
 1990 0a16 3F93      		push r19
 1991 0a18 4F93      		push r20
 1992 0a1a 5F93      		push r21
 1993 0a1c 6F93      		push r22
 1994 0a1e 7F93      		push r23
 1995 0a20 8F93      		push r24
 1996 0a22 9F93      		push r25
 1997 0a24 AF93      		push r26
 1998 0a26 BF93      		push r27
 1999 0a28 EF93      		push r30
 2000 0a2a FF93      		push r31
 2001               	/* prologue: Signal */
 2002               	/* frame size = 0 */
 2003               	.LM264:
 2004 0a2c 0E94 0000 		call Timebase_ISR_Executables
 2005               	/* epilogue start */
 2006               	.LM265:
 2007 0a30 FF91      		pop r31
 2008 0a32 EF91      		pop r30
 2009 0a34 BF91      		pop r27
 2010 0a36 AF91      		pop r26
 2011 0a38 9F91      		pop r25
 2012 0a3a 8F91      		pop r24
 2013 0a3c 7F91      		pop r23
 2014 0a3e 6F91      		pop r22
 2015 0a40 5F91      		pop r21
 2016 0a42 4F91      		pop r20
 2017 0a44 3F91      		pop r19
 2018 0a46 2F91      		pop r18
 2019 0a48 0F90      		pop r0
 2020 0a4a 0FBE      		out __SREG__,r0
 2021 0a4c 0F90      		pop r0
 2022 0a4e 1F90      		pop __zero_reg__
 2023 0a50 1895      		reti
 2024               	.LFE47:
 2026               		.comm Timebase_type,82,1
 2027               		.comm Timebase,2,1
 2380               	.Letext0:
DEFINED SYMBOLS
                            *ABS*:00000000 timebase.c
C:\Users\EED-R&I\AppData\Local\Temp/ccnJ2yMd.s:2      *ABS*:0000003f __SREG__
C:\Users\EED-R&I\AppData\Local\Temp/ccnJ2yMd.s:3      *ABS*:0000003e __SP_H__
C:\Users\EED-R&I\AppData\Local\Temp/ccnJ2yMd.s:4      *ABS*:0000003d __SP_L__
C:\Users\EED-R&I\AppData\Local\Temp/ccnJ2yMd.s:5      *ABS*:00000034 __CCP__
C:\Users\EED-R&I\AppData\Local\Temp/ccnJ2yMd.s:6      *ABS*:00000000 __tmp_reg__
C:\Users\EED-R&I\AppData\Local\Temp/ccnJ2yMd.s:7      *ABS*:00000001 __zero_reg__
C:\Users\EED-R&I\AppData\Local\Temp/ccnJ2yMd.s:18     .text:00000000 Timebase_Struct_Init
                            *COM*:00000052 Timebase_type
                            *COM*:00000002 Timebase
C:\Users\EED-R&I\AppData\Local\Temp/ccnJ2yMd.s:158    .text:0000016e Timebase_Timer_Config
C:\Users\EED-R&I\AppData\Local\Temp/ccnJ2yMd.s:305    .text:00000210 Timebase_Wait_Unit_Time
C:\Users\EED-R&I\AppData\Local\Temp/ccnJ2yMd.s:343    .text:00000244 Timebase_Tokens_Executing
C:\Users\EED-R&I\AppData\Local\Temp/ccnJ2yMd.s:359    .text:00000250 Timebase_Add_Token
C:\Users\EED-R&I\AppData\Local\Temp/ccnJ2yMd.s:385    .text:00000266 Timebase_Remove_Token
C:\Users\EED-R&I\AppData\Local\Temp/ccnJ2yMd.s:411    .text:0000027c Timebase_Remove_All_Tokens
C:\Users\EED-R&I\AppData\Local\Temp/ccnJ2yMd.s:427    .text:00000288 Timebase_Get_SubSeconds
C:\Users\EED-R&I\AppData\Local\Temp/ccnJ2yMd.s:448    .text:0000029e Timebase_Get_Seconds
C:\Users\EED-R&I\AppData\Local\Temp/ccnJ2yMd.s:469    .text:000002b4 Timebase_Set_SubSeconds
C:\Users\EED-R&I\AppData\Local\Temp/ccnJ2yMd.s:489    .text:000002c6 Timebase_Set_Seconds
C:\Users\EED-R&I\AppData\Local\Temp/ccnJ2yMd.s:509    .text:000002d8 Timebase_Reset_UpCounter
C:\Users\EED-R&I\AppData\Local\Temp/ccnJ2yMd.s:555    .text:00000316 Timebase_Start_UpCounter
C:\Users\EED-R&I\AppData\Local\Temp/ccnJ2yMd.s:588    .text:0000033e Timebase_Stop_UpCounter
C:\Users\EED-R&I\AppData\Local\Temp/ccnJ2yMd.s:621    .text:00000366 Timebase_Check_UpCounter_Status
C:\Users\EED-R&I\AppData\Local\Temp/ccnJ2yMd.s:653    .text:0000038c Timebase_Get_UpCounter_Value
C:\Users\EED-R&I\AppData\Local\Temp/ccnJ2yMd.s:696    .text:000003c6 Timebase_Securely_Set_UpCounter
C:\Users\EED-R&I\AppData\Local\Temp/ccnJ2yMd.s:772    .text:0000042a Timebase_Forcefully_Set_UpCounter
C:\Users\EED-R&I\AppData\Local\Temp/ccnJ2yMd.s:863    .text:000004a4 Timebase_Update_UpCounter
C:\Users\EED-R&I\AppData\Local\Temp/ccnJ2yMd.s:980    .text:00000550 Timebase_UpCounter_Clear_Flags
C:\Users\EED-R&I\AppData\Local\Temp/ccnJ2yMd.s:1030   .text:0000058e Timebase_UpCounter_Expired
C:\Users\EED-R&I\AppData\Local\Temp/ccnJ2yMd.s:1068   .text:000005be Timebase_UpCounter_Expired_Event
C:\Users\EED-R&I\AppData\Local\Temp/ccnJ2yMd.s:1134   .text:00000608 Timebase_Update_UpCounters
C:\Users\EED-R&I\AppData\Local\Temp/ccnJ2yMd.s:1155   .text:0000061c Timebase_Reset_UpCounters
C:\Users\EED-R&I\AppData\Local\Temp/ccnJ2yMd.s:1226   .text:00000674 Timebase_Reset_DownCounter
C:\Users\EED-R&I\AppData\Local\Temp/ccnJ2yMd.s:1265   .text:000006a6 Timebase_Start_DownCounter
C:\Users\EED-R&I\AppData\Local\Temp/ccnJ2yMd.s:1296   .text:000006ca Timebase_Stop_DownCounter
C:\Users\EED-R&I\AppData\Local\Temp/ccnJ2yMd.s:1327   .text:000006ee Timebase_Check_DownCounter_Status
C:\Users\EED-R&I\AppData\Local\Temp/ccnJ2yMd.s:1357   .text:00000710 Timebase_Get_DownCounter_Value
C:\Users\EED-R&I\AppData\Local\Temp/ccnJ2yMd.s:1398   .text:00000746 Timebase_Securely_Set_DownCounter
C:\Users\EED-R&I\AppData\Local\Temp/ccnJ2yMd.s:1460   .text:00000794 Timebase_Forcefully_Set_DownCounter
C:\Users\EED-R&I\AppData\Local\Temp/ccnJ2yMd.s:1529   .text:000007e6 Timebase_Update_DownCounter
C:\Users\EED-R&I\AppData\Local\Temp/ccnJ2yMd.s:1630   .text:00000878 Timebase_DownCounter_Clear_Flags
C:\Users\EED-R&I\AppData\Local\Temp/ccnJ2yMd.s:1673   .text:000008aa Timebase_DownCounter_Expired
C:\Users\EED-R&I\AppData\Local\Temp/ccnJ2yMd.s:1709   .text:000008d6 Timebase_DownCounter_Expired_Event
C:\Users\EED-R&I\AppData\Local\Temp/ccnJ2yMd.s:1768   .text:00000914 Timebase_Update_DownCounters
C:\Users\EED-R&I\AppData\Local\Temp/ccnJ2yMd.s:1789   .text:00000928 Timebase_Reset_DownCounters
C:\Users\EED-R&I\AppData\Local\Temp/ccnJ2yMd.s:1850   .text:00000972 Timebase_Reset
C:\Users\EED-R&I\AppData\Local\Temp/ccnJ2yMd.s:1866   .text:0000097c Timebase_Init
C:\Users\EED-R&I\AppData\Local\Temp/ccnJ2yMd.s:1893   .text:00000996 Timebase_Main_Loop_Executables
C:\Users\EED-R&I\AppData\Local\Temp/ccnJ2yMd.s:1909   .text:000009a0 Timebase_ISR_Executables
C:\Users\EED-R&I\AppData\Local\Temp/ccnJ2yMd.s:1981   .text:00000a0a __vector_14

UNDEFINED SYMBOLS
__udivmodsi4
__do_clear_bss
