   1               		.file	"timebase.c"
   2               	__SREG__ = 0x3f
   3               	__SP_H__ = 0x3e
   4               	__SP_L__ = 0x3d
   5               	__CCP__  = 0x34
   6               	__tmp_reg__ = 0
   7               	__zero_reg__ = 1
  15               	.Ltext0:
  16               	.global	Timebase_Struct_Init
  18               	Timebase_Struct_Init:
  19               	.LFB6:
  20               	.LM1:
  21               	/* prologue: function */
  22               	/* frame size = 0 */
  23               	.LM2:
  24 0000 80E0      		ldi r24,lo8(Timebase_type)
  25 0002 90E0      		ldi r25,hi8(Timebase_type)
  26 0004 9093 0000 		sts (Timebase)+1,r25
  27 0008 8093 0000 		sts Timebase,r24
  28               	.LM3:
  29 000c 81E0      		ldi r24,lo8(1)
  30 000e 90E0      		ldi r25,hi8(1)
  31 0010 9093 0000 		sts (Timebase_type)+1,r25
  32 0014 8093 0000 		sts Timebase_type,r24
  33               	.LM4:
  34 0018 1092 0000 		sts Timebase_type+2,__zero_reg__
  35               	.LM5:
  36 001c 1092 0000 		sts (Timebase_type+13)+1,__zero_reg__
  37 0020 1092 0000 		sts Timebase_type+13,__zero_reg__
  38               	.LM6:
  39 0024 1092 0000 		sts Timebase_type+15,__zero_reg__
  40 0028 1092 0000 		sts (Timebase_type+15)+1,__zero_reg__
  41 002c 1092 0000 		sts (Timebase_type+15)+2,__zero_reg__
  42 0030 1092 0000 		sts (Timebase_type+15)+3,__zero_reg__
  43               	.LM7:
  44 0034 1092 0000 		sts (Timebase_type+7)+1,__zero_reg__
  45 0038 1092 0000 		sts Timebase_type+7,__zero_reg__
  46               	.LM8:
  47 003c 1092 0000 		sts Timebase_type+9,__zero_reg__
  48 0040 1092 0000 		sts (Timebase_type+9)+1,__zero_reg__
  49 0044 1092 0000 		sts (Timebase_type+9)+2,__zero_reg__
  50 0048 1092 0000 		sts (Timebase_type+9)+3,__zero_reg__
  51               	.LM9:
  52 004c 1092 0000 		sts Timebase_type+19,__zero_reg__
  53               	.LM10:
  54 0050 1092 0000 		sts Timebase_type+3,__zero_reg__
  55 0054 1092 0000 		sts (Timebase_type+3)+1,__zero_reg__
  56 0058 1092 0000 		sts (Timebase_type+3)+2,__zero_reg__
  57 005c 1092 0000 		sts (Timebase_type+3)+3,__zero_reg__
  58               	.LM11:
  59 0060 1092 0000 		sts Timebase_type+20,__zero_reg__
  60               	.LBB568:
  61               	.LM12:
  62 0064 1092 0000 		sts Timebase_type+46,__zero_reg__
  63               	.LM13:
  64 0068 1092 0000 		sts Timebase_type+47,__zero_reg__
  65 006c 1092 0000 		sts (Timebase_type+47)+1,__zero_reg__
  66 0070 1092 0000 		sts (Timebase_type+47)+2,__zero_reg__
  67 0074 1092 0000 		sts (Timebase_type+47)+3,__zero_reg__
  68               	.LM14:
  69 0078 1092 0000 		sts Timebase_type+51,__zero_reg__
  70 007c 1092 0000 		sts (Timebase_type+51)+1,__zero_reg__
  71 0080 1092 0000 		sts (Timebase_type+51)+2,__zero_reg__
  72 0084 1092 0000 		sts (Timebase_type+51)+3,__zero_reg__
  73               	.LM15:
  74 0088 1092 0000 		sts Timebase_type+55,__zero_reg__
  75 008c 1092 0000 		sts (Timebase_type+55)+1,__zero_reg__
  76 0090 1092 0000 		sts (Timebase_type+55)+2,__zero_reg__
  77 0094 1092 0000 		sts (Timebase_type+55)+3,__zero_reg__
  78               	.LM16:
  79 0098 1092 0000 		sts Timebase_type+59,__zero_reg__
  80 009c 1092 0000 		sts (Timebase_type+59)+1,__zero_reg__
  81 00a0 1092 0000 		sts (Timebase_type+59)+2,__zero_reg__
  82 00a4 1092 0000 		sts (Timebase_type+59)+3,__zero_reg__
  83               	.LM17:
  84 00a8 1092 0000 		sts Timebase_type+63,__zero_reg__
  85 00ac 1092 0000 		sts (Timebase_type+63)+1,__zero_reg__
  86 00b0 1092 0000 		sts (Timebase_type+63)+2,__zero_reg__
  87 00b4 1092 0000 		sts (Timebase_type+63)+3,__zero_reg__
  88               	.LBE568:
  89               	.LBB569:
  90               	.LM18:
  91 00b8 1092 0000 		sts Timebase_type+21,__zero_reg__
  92               	.LM19:
  93 00bc 1092 0000 		sts Timebase_type+22,__zero_reg__
  94 00c0 1092 0000 		sts (Timebase_type+22)+1,__zero_reg__
  95 00c4 1092 0000 		sts (Timebase_type+22)+2,__zero_reg__
  96 00c8 1092 0000 		sts (Timebase_type+22)+3,__zero_reg__
  97               	.LM20:
  98 00cc 1092 0000 		sts Timebase_type+26,__zero_reg__
  99 00d0 1092 0000 		sts (Timebase_type+26)+1,__zero_reg__
 100 00d4 1092 0000 		sts (Timebase_type+26)+2,__zero_reg__
 101 00d8 1092 0000 		sts (Timebase_type+26)+3,__zero_reg__
 102               	.LM21:
 103 00dc 1092 0000 		sts Timebase_type+30,__zero_reg__
 104 00e0 1092 0000 		sts (Timebase_type+30)+1,__zero_reg__
 105 00e4 1092 0000 		sts (Timebase_type+30)+2,__zero_reg__
 106 00e8 1092 0000 		sts (Timebase_type+30)+3,__zero_reg__
 107               	.LM22:
 108 00ec 1092 0000 		sts Timebase_type+34,__zero_reg__
 109 00f0 1092 0000 		sts (Timebase_type+34)+1,__zero_reg__
 110 00f4 1092 0000 		sts (Timebase_type+34)+2,__zero_reg__
 111 00f8 1092 0000 		sts (Timebase_type+34)+3,__zero_reg__
 112               	.LM23:
 113 00fc 1092 0000 		sts Timebase_type+38,__zero_reg__
 114 0100 1092 0000 		sts (Timebase_type+38)+1,__zero_reg__
 115 0104 1092 0000 		sts (Timebase_type+38)+2,__zero_reg__
 116 0108 1092 0000 		sts (Timebase_type+38)+3,__zero_reg__
 117               	.LM24:
 118 010c 1092 0000 		sts Timebase_type+42,__zero_reg__
 119 0110 1092 0000 		sts (Timebase_type+42)+1,__zero_reg__
 120 0114 1092 0000 		sts (Timebase_type+42)+2,__zero_reg__
 121 0118 1092 0000 		sts (Timebase_type+42)+3,__zero_reg__
 122               	.LBE569:
 123               	.LBB570:
 124               	.LM25:
 125 011c 1092 0000 		sts Timebase_type+84,__zero_reg__
 126               	.LM26:
 127 0120 1092 0000 		sts Timebase_type+85,__zero_reg__
 128 0124 1092 0000 		sts (Timebase_type+85)+1,__zero_reg__
 129 0128 1092 0000 		sts (Timebase_type+85)+2,__zero_reg__
 130 012c 1092 0000 		sts (Timebase_type+85)+3,__zero_reg__
 131               	.LM27:
 132 0130 1092 0000 		sts Timebase_type+89,__zero_reg__
 133 0134 1092 0000 		sts (Timebase_type+89)+1,__zero_reg__
 134 0138 1092 0000 		sts (Timebase_type+89)+2,__zero_reg__
 135 013c 1092 0000 		sts (Timebase_type+89)+3,__zero_reg__
 136               	.LM28:
 137 0140 1092 0000 		sts Timebase_type+93,__zero_reg__
 138 0144 1092 0000 		sts (Timebase_type+93)+1,__zero_reg__
 139 0148 1092 0000 		sts (Timebase_type+93)+2,__zero_reg__
 140 014c 1092 0000 		sts (Timebase_type+93)+3,__zero_reg__
 141               	.LBE570:
 142               	.LBB571:
 143               	.LM29:
 144 0150 1092 0000 		sts Timebase_type+67,__zero_reg__
 145               	.LM30:
 146 0154 1092 0000 		sts Timebase_type+68,__zero_reg__
 147 0158 1092 0000 		sts (Timebase_type+68)+1,__zero_reg__
 148 015c 1092 0000 		sts (Timebase_type+68)+2,__zero_reg__
 149 0160 1092 0000 		sts (Timebase_type+68)+3,__zero_reg__
 150               	.LM31:
 151 0164 1092 0000 		sts Timebase_type+72,__zero_reg__
 152 0168 1092 0000 		sts (Timebase_type+72)+1,__zero_reg__
 153 016c 1092 0000 		sts (Timebase_type+72)+2,__zero_reg__
 154 0170 1092 0000 		sts (Timebase_type+72)+3,__zero_reg__
 155               	.LM32:
 156 0174 1092 0000 		sts Timebase_type+76,__zero_reg__
 157 0178 1092 0000 		sts (Timebase_type+76)+1,__zero_reg__
 158 017c 1092 0000 		sts (Timebase_type+76)+2,__zero_reg__
 159 0180 1092 0000 		sts (Timebase_type+76)+3,__zero_reg__
 160               	.LM33:
 161 0184 1092 0000 		sts Timebase_type+80,__zero_reg__
 162 0188 1092 0000 		sts (Timebase_type+80)+1,__zero_reg__
 163 018c 1092 0000 		sts (Timebase_type+80)+2,__zero_reg__
 164 0190 1092 0000 		sts (Timebase_type+80)+3,__zero_reg__
 165               	/* epilogue start */
 166               	.LBE571:
 167               	.LM34:
 168 0194 0895      		ret
 169               	.LFE6:
 171               	.global	Timebase_Timer_Config
 173               	Timebase_Timer_Config:
 174               	.LFB7:
 175               	.LM35:
 176               	.LVL0:
 177 0196 8F92      		push r8
 178 0198 9F92      		push r9
 179 019a BF92      		push r11
 180 019c CF92      		push r12
 181 019e DF92      		push r13
 182 01a0 EF92      		push r14
 183 01a2 FF92      		push r15
 184 01a4 0F93      		push r16
 185 01a6 1F93      		push r17
 186 01a8 DF93      		push r29
 187 01aa CF93      		push r28
 188 01ac CDB7      		in r28,__SP_L__
 189 01ae DEB7      		in r29,__SP_H__
 190 01b0 2A97      		sbiw r28,10
 191 01b2 0FB6      		in __tmp_reg__,__SREG__
 192 01b4 F894      		cli
 193 01b6 DEBF      		out __SP_H__,r29
 194 01b8 0FBE      		out __SREG__,__tmp_reg__
 195 01ba CDBF      		out __SP_L__,r28
 196               	/* prologue: function */
 197               	/* frame size = 10 */
 198 01bc 4C01      		movw r8,r24
 199               	.LM36:
 200 01be DE01      		movw r26,r28
 201 01c0 1196      		adiw r26,1
 202 01c2 E0E0      		ldi r30,lo8(C.1.1677)
 203 01c4 F0E0      		ldi r31,hi8(C.1.1677)
 204 01c6 8AE0      		ldi r24,lo8(10)
 205               	.LVL1:
 206               	.L4:
 207 01c8 0190      		ld r0,Z+
 208 01ca 0D92      		st X+,r0
 209 01cc 8150      		subi r24,lo8(-(-1))
 210 01ce 01F4      		brne .L4
 211               	.LM37:
 212 01d0 9401      		movw r18,r8
 213 01d2 40E0      		ldi r20,lo8(0)
 214 01d4 50E0      		ldi r21,hi8(0)
 215               	.LVL2:
 216 01d6 60E0      		ldi r22,lo8(12000000)
 217 01d8 7BE1      		ldi r23,hi8(12000000)
 218 01da 87EB      		ldi r24,hlo8(12000000)
 219 01dc 90E0      		ldi r25,hhi8(12000000)
 220 01de 0E94 0000 		call __divmodsi4
 221 01e2 B22E      		mov r11,r18
 222 01e4 C32E      		mov r12,r19
 223 01e6 D42E      		mov r13,r20
 224               	.LVL3:
 225 01e8 052F      		mov r16,r21
 226 01ea 7E01      		movw r14,r28
 227 01ec 0894      		sec
 228 01ee E11C      		adc r14,__zero_reg__
 229 01f0 F11C      		adc r15,__zero_reg__
 230 01f2 C901      		movw r24,r18
 231 01f4 DA01      		movw r26,r20
 232 01f6 9C01      		movw r18,r24
 233 01f8 AD01      		movw r20,r26
 234               	.LVL4:
 235 01fa 10E0      		ldi r17,lo8(0)
 236               	.LVL5:
 237 01fc 00C0      		rjmp .L5
 238               	.LVL6:
 239               	.L7:
 240               	.LM38:
 241 01fe F701      		movw r30,r14
 242 0200 2191      		ld r18,Z+
 243 0202 3191      		ld r19,Z+
 244               	.LVL7:
 245 0204 7F01      		movw r14,r30
 246 0206 40E0      		ldi r20,lo8(0)
 247 0208 50E0      		ldi r21,hi8(0)
 248 020a 6B2D      		mov r22,r11
 249 020c 7C2D      		mov r23,r12
 250 020e 8D2D      		mov r24,r13
 251               	.LVL8:
 252 0210 902F      		mov r25,r16
 253 0212 0E94 0000 		call __divmodsi4
 254 0216 C901      		movw r24,r18
 255 0218 DA01      		movw r26,r20
 256 021a 9C01      		movw r18,r24
 257 021c AD01      		movw r20,r26
 258               	.LVL9:
 259               	.LM39:
 260 021e 1F5F      		subi r17,lo8(-(1))
 261               	.LM40:
 262 0220 1530      		cpi r17,lo8(5)
 263 0222 01F0      		breq .L6
 264               	.LVL10:
 265               	.L5:
 266               	.LM41:
 267 0224 2F3F      		cpi r18,lo8(255)
 268 0226 3105      		cpc r19,__zero_reg__
 269 0228 4105      		cpc r20,__zero_reg__
 270 022a 5105      		cpc r21,__zero_reg__
 271 022c 01F0      		breq .+2
 272 022e 04F4      		brge .L7
 273               	.L6:
 274               	.LM42:
 275 0230 812F      		mov r24,r17
 276 0232 8150      		subi r24,lo8(-(-1))
 277               	.LVL11:
 278               	.LM43:
 279 0234 14BC      		out 68-32,__zero_reg__
 280               	.LM44:
 281 0236 15BC      		out 69-32,__zero_reg__
 282               	.LM45:
 283 0238 1092 6E00 		sts 110,__zero_reg__
 284               	.LM46:
 285 023c 15BA      		out 53-32,__zero_reg__
 286               	.LM47:
 287 023e 17BC      		out 71-32,__zero_reg__
 288               	.LM48:
 289 0240 18BC      		out 72-32,__zero_reg__
 290               	.LM49:
 291 0242 16BC      		out 70-32,__zero_reg__
 292               	.LM50:
 293 0244 17BC      		out 71-32,__zero_reg__
 294               	.LM51:
 295 0246 8823      		tst r24
 296 0248 01F4      		brne .L8
 297               	.LM52:
 298 024a 81E0      		ldi r24,lo8(1)
 299               	.LVL12:
 300 024c 00C0      		rjmp .L15
 301               	.LVL13:
 302               	.L8:
 303               	.LM53:
 304 024e 8130      		cpi r24,lo8(1)
 305 0250 01F4      		brne .L10
 306               	.LM54:
 307 0252 82E0      		ldi r24,lo8(2)
 308               	.LVL14:
 309 0254 00C0      		rjmp .L15
 310               	.LVL15:
 311               	.L10:
 312               	.LM55:
 313 0256 8230      		cpi r24,lo8(2)
 314 0258 01F4      		brne .L11
 315               	.LM56:
 316 025a 83E0      		ldi r24,lo8(3)
 317               	.LVL16:
 318 025c 00C0      		rjmp .L15
 319               	.LVL17:
 320               	.L11:
 321               	.LM57:
 322 025e 8330      		cpi r24,lo8(3)
 323 0260 01F4      		brne .L12
 324               	.LM58:
 325 0262 84E0      		ldi r24,lo8(4)
 326               	.LVL18:
 327 0264 00C0      		rjmp .L15
 328               	.LVL19:
 329               	.L12:
 330               	.LM59:
 331 0266 8430      		cpi r24,lo8(4)
 332 0268 01F4      		brne .L9
 333               	.LM60:
 334 026a 85E0      		ldi r24,lo8(5)
 335               	.LVL20:
 336               	.L15:
 337 026c 85BD      		out 69-32,r24
 338               	.LVL21:
 339               	.L9:
 340               	.LM61:
 341 026e E091 0000 		lds r30,Timebase
 342 0272 F091 0000 		lds r31,(Timebase)+1
 343 0276 822F      		mov r24,r18
 344               	.LVL22:
 345 0278 8095      		com r24
 346 027a 8283      		std Z+2,r24
 347               	.LM62:
 348 027c 8281      		ldd r24,Z+2
 349 027e 86BD      		out 70-32,r24
 350               	.LM63:
 351 0280 81E0      		ldi r24,lo8(1)
 352 0282 8093 6E00 		sts 110,r24
 353               	.LM64:
 354               	/* #APP */
 355               	 ;  292 "timebase.c" 1
 356 0286 7894      		sei
 357               	 ;  0 "" 2
 358               	.LM65:
 359               	/* #NOAPP */
 360 0288 9182      		std Z+1,r9
 361 028a 8082      		st Z,r8
 362               	/* epilogue start */
 363               	.LM66:
 364 028c 2A96      		adiw r28,10
 365 028e 0FB6      		in __tmp_reg__,__SREG__
 366 0290 F894      		cli
 367 0292 DEBF      		out __SP_H__,r29
 368 0294 0FBE      		out __SREG__,__tmp_reg__
 369 0296 CDBF      		out __SP_L__,r28
 370 0298 CF91      		pop r28
 371 029a DF91      		pop r29
 372 029c 1F91      		pop r17
 373 029e 0F91      		pop r16
 374 02a0 FF90      		pop r15
 375 02a2 EF90      		pop r14
 376 02a4 DF90      		pop r13
 377 02a6 CF90      		pop r12
 378 02a8 BF90      		pop r11
 379 02aa 9F90      		pop r9
 380 02ac 8F90      		pop r8
 381               	.LVL23:
 382 02ae 0895      		ret
 383               	.LFE7:
 385               	.global	Timebase_Atomic_Operation_Start
 387               	Timebase_Atomic_Operation_Start:
 388               	.LFB8:
 389               	.LM67:
 390               	/* prologue: function */
 391               	/* frame size = 0 */
 392               	.LM68:
 393               	/* #APP */
 394               	 ;  312 "timebase.c" 1
 395 02b0 F894      		cli
 396               	 ;  0 "" 2
 397               	/* epilogue start */
 398               	.LM69:
 399               	/* #NOAPP */
 400 02b2 0895      		ret
 401               	.LFE8:
 403               	.global	Timebase_Atomic_Operation_End
 405               	Timebase_Atomic_Operation_End:
 406               	.LFB9:
 407               	.LM70:
 408               	/* prologue: function */
 409               	/* frame size = 0 */
 410               	.LM71:
 411               	/* #APP */
 412               	 ;  316 "timebase.c" 1
 413 02b4 7894      		sei
 414               	 ;  0 "" 2
 415               	/* epilogue start */
 416               	.LM72:
 417               	/* #NOAPP */
 418 02b6 0895      		ret
 419               	.LFE9:
 421               	.global	Timebase_Timer_Get_SubSecondsShadow
 423               	Timebase_Timer_Get_SubSecondsShadow:
 424               	.LFB11:
 425               	.LM73:
 426               	/* prologue: function */
 427               	/* frame size = 0 */
 428               	.LM74:
 429 02b8 E091 0000 		lds r30,Timebase
 430 02bc F091 0000 		lds r31,(Timebase)+1
 431 02c0 2585      		ldd r18,Z+13
 432 02c2 3685      		ldd r19,Z+14
 433               	.LM75:
 434 02c4 C901      		movw r24,r18
 435               	/* epilogue start */
 436 02c6 0895      		ret
 437               	.LFE11:
 439               	.global	Timebase_Timer_Get_SecondsShadow
 441               	Timebase_Timer_Get_SecondsShadow:
 442               	.LFB12:
 443               	.LM76:
 444               	/* prologue: function */
 445               	/* frame size = 0 */
 446               	.LM77:
 447 02c8 E091 0000 		lds r30,Timebase
 448 02cc F091 0000 		lds r31,(Timebase)+1
 449 02d0 2785      		ldd r18,Z+15
 450 02d2 3089      		ldd r19,Z+16
 451 02d4 4189      		ldd r20,Z+17
 452 02d6 5289      		ldd r21,Z+18
 453               	.LM78:
 454 02d8 B901      		movw r22,r18
 455 02da CA01      		movw r24,r20
 456               	/* epilogue start */
 457 02dc 0895      		ret
 458               	.LFE12:
 460               	.global	Timebase_Timer_Get_SubSeconds
 462               	Timebase_Timer_Get_SubSeconds:
 463               	.LFB13:
 464               	.LM79:
 465               	/* prologue: function */
 466               	/* frame size = 0 */
 467               	.LM80:
 468 02de E091 0000 		lds r30,Timebase
 469 02e2 F091 0000 		lds r31,(Timebase)+1
 470 02e6 2781      		ldd r18,Z+7
 471 02e8 3085      		ldd r19,Z+8
 472               	.LM81:
 473 02ea C901      		movw r24,r18
 474               	/* epilogue start */
 475 02ec 0895      		ret
 476               	.LFE13:
 478               	.global	Timebase_Timer_Get_Seconds
 480               	Timebase_Timer_Get_Seconds:
 481               	.LFB14:
 482               	.LM82:
 483               	/* prologue: function */
 484               	/* frame size = 0 */
 485               	.LM83:
 486 02ee E091 0000 		lds r30,Timebase
 487 02f2 F091 0000 		lds r31,(Timebase)+1
 488 02f6 2185      		ldd r18,Z+9
 489 02f8 3285      		ldd r19,Z+10
 490 02fa 4385      		ldd r20,Z+11
 491 02fc 5485      		ldd r21,Z+12
 492               	.LM84:
 493 02fe B901      		movw r22,r18
 494 0300 CA01      		movw r24,r20
 495               	/* epilogue start */
 496 0302 0895      		ret
 497               	.LFE14:
 499               	.global	Timebase_Timer_Set_SubSeconds
 501               	Timebase_Timer_Set_SubSeconds:
 502               	.LFB15:
 503               	.LM85:
 504               	.LVL24:
 505               	/* prologue: function */
 506               	/* frame size = 0 */
 507               	.LM86:
 508 0304 E091 0000 		lds r30,Timebase
 509 0308 F091 0000 		lds r31,(Timebase)+1
 510 030c 9087      		std Z+8,r25
 511 030e 8783      		std Z+7,r24
 512               	/* epilogue start */
 513               	.LM87:
 514 0310 0895      		ret
 515               	.LFE15:
 517               	.global	Timebase_Timer_Set_Seconds
 519               	Timebase_Timer_Set_Seconds:
 520               	.LFB16:
 521               	.LM88:
 522               	.LVL25:
 523               	/* prologue: function */
 524               	/* frame size = 0 */
 525               	.LM89:
 526 0312 E091 0000 		lds r30,Timebase
 527 0316 F091 0000 		lds r31,(Timebase)+1
 528 031a 6187      		std Z+9,r22
 529 031c 7287      		std Z+10,r23
 530 031e 8387      		std Z+11,r24
 531 0320 9487      		std Z+12,r25
 532               	/* epilogue start */
 533               	.LM90:
 534 0322 0895      		ret
 535               	.LFE16:
 537               	.global	Timebase_Timer_Sync_With_Shadow_Variables
 539               	Timebase_Timer_Sync_With_Shadow_Variables:
 540               	.LFB17:
 541               	.LM91:
 542               	/* prologue: function */
 543               	/* frame size = 0 */
 544               	.LM92:
 545 0324 E091 0000 		lds r30,Timebase
 546 0328 F091 0000 		lds r31,(Timebase)+1
 547 032c 8389      		ldd r24,Z+19
 548 032e 8823      		tst r24
 549 0330 01F4      		brne .L34
 550               	.LBB572:
 551               	.LBB573:
 552               	.LM93:
 553               	/* #APP */
 554               	 ;  312 "timebase.c" 1
 555 0332 F894      		cli
 556               	 ;  0 "" 2
 557               	/* #NOAPP */
 558               	.LBE573:
 559               	.LBE572:
 560               	.LM94:
 561 0334 8585      		ldd r24,Z+13
 562 0336 9685      		ldd r25,Z+14
 563 0338 9087      		std Z+8,r25
 564 033a 8783      		std Z+7,r24
 565               	.LM95:
 566 033c 8785      		ldd r24,Z+15
 567 033e 9089      		ldd r25,Z+16
 568 0340 A189      		ldd r26,Z+17
 569 0342 B289      		ldd r27,Z+18
 570 0344 8187      		std Z+9,r24
 571 0346 9287      		std Z+10,r25
 572 0348 A387      		std Z+11,r26
 573 034a B487      		std Z+12,r27
 574               	.LBB574:
 575               	.LBB575:
 576               	.LM96:
 577               	/* #APP */
 578               	 ;  316 "timebase.c" 1
 579 034c 7894      		sei
 580               	 ;  0 "" 2
 581               	/* #NOAPP */
 582               	.LBE575:
 583               	.LBE574:
 584               	.LM97:
 585 034e 81E0      		ldi r24,lo8(1)
 586 0350 838B      		std Z+19,r24
 587               	.L34:
 588 0352 0895      		ret
 589               	.LFE17:
 591               	.global	Timebase_Timer_Delay_SubSeconds
 593               	Timebase_Timer_Delay_SubSeconds:
 594               	.LFB18:
 595               	.LM98:
 596               	.LVL26:
 597 0354 6F92      		push r6
 598 0356 7F92      		push r7
 599 0358 8F92      		push r8
 600 035a 9F92      		push r9
 601 035c AF92      		push r10
 602 035e BF92      		push r11
 603 0360 CF92      		push r12
 604 0362 DF92      		push r13
 605 0364 EF92      		push r14
 606 0366 FF92      		push r15
 607 0368 0F93      		push r16
 608 036a 1F93      		push r17
 609 036c CF93      		push r28
 610 036e DF93      		push r29
 611               	/* prologue: function */
 612               	/* frame size = 0 */
 613 0370 5C01      		movw r10,r24
 614               	.LBB576:
 615               	.LBB577:
 616               	.LM99:
 617               	/* #APP */
 618               	 ;  312 "timebase.c" 1
 619 0372 F894      		cli
 620               	 ;  0 "" 2
 621               	/* #NOAPP */
 622               	.LBE577:
 623               	.LBE576:
 624               	.LBB578:
 625               	.LBB579:
 626               	.LM100:
 627 0374 C091 0000 		lds r28,Timebase
 628 0378 D091 0000 		lds r29,(Timebase)+1
 629 037c ED84      		ldd r14,Y+13
 630 037e FE84      		ldd r15,Y+14
 631               	.LBE579:
 632               	.LBE578:
 633               	.LBB580:
 634               	.LBB581:
 635               	.LM101:
 636 0380 2F85      		ldd r18,Y+15
 637 0382 3889      		ldd r19,Y+16
 638 0384 4989      		ldd r20,Y+17
 639 0386 5A89      		ldd r21,Y+18
 640               	.LVL27:
 641               	.LBE581:
 642               	.LBE580:
 643               	.LBB582:
 644               	.LBB583:
 645               	.LM102:
 646               	/* #APP */
 647               	 ;  316 "timebase.c" 1
 648 0388 7894      		sei
 649               	 ;  0 "" 2
 650               	/* #NOAPP */
 651               	.LBE583:
 652               	.LBE582:
 653               	.LM103:
 654 038a 6881      		ld r22,Y
 655 038c 7981      		ldd r23,Y+1
 656 038e 80E0      		ldi r24,lo8(0)
 657 0390 90E0      		ldi r25,hi8(0)
 658               	.LVL28:
 659 0392 0E94 0000 		call __mulsi3
 660               	.LVL29:
 661 0396 3B01      		movw r6,r22
 662 0398 4C01      		movw r8,r24
 663               	.LVL30:
 664               	.LM104:
 665 039a 00E0      		ldi r16,lo8(0)
 666 039c 10E0      		ldi r17,hi8(0)
 667 039e 6E0C      		add r6,r14
 668 03a0 7F1C      		adc r7,r15
 669 03a2 801E      		adc r8,r16
 670 03a4 911E      		adc r9,r17
 671               	.LM105:
 672 03a6 CC24      		clr r12
 673 03a8 DD24      		clr r13
 674               	.LVL31:
 675 03aa 6A0C      		add r6,r10
 676 03ac 7B1C      		adc r7,r11
 677 03ae 8C1C      		adc r8,r12
 678 03b0 9D1C      		adc r9,r13
 679 03b2 60E0      		ldi r22,lo8(0)
 680 03b4 70E0      		ldi r23,hi8(0)
 681 03b6 80E0      		ldi r24,hlo8(0)
 682 03b8 90E0      		ldi r25,hhi8(0)
 683               	.LVL32:
 684 03ba 00C0      		rjmp .L36
 685               	.L37:
 686               	.LBB584:
 687               	.LBB585:
 688               	.LM106:
 689               	/* #APP */
 690               	 ;  312 "timebase.c" 1
 691 03bc F894      		cli
 692               	 ;  0 "" 2
 693               	/* #NOAPP */
 694               	.LBE585:
 695               	.LBE584:
 696               	.LBB586:
 697               	.LBB587:
 698               	.LM107:
 699 03be ED84      		ldd r14,Y+13
 700 03c0 FE84      		ldd r15,Y+14
 701               	.LBE587:
 702               	.LBE586:
 703               	.LBB588:
 704               	.LBB589:
 705               	.LM108:
 706 03c2 2F85      		ldd r18,Y+15
 707 03c4 3889      		ldd r19,Y+16
 708 03c6 4989      		ldd r20,Y+17
 709 03c8 5A89      		ldd r21,Y+18
 710               	.LVL33:
 711               	.LBE589:
 712               	.LBE588:
 713               	.LBB590:
 714               	.LBB591:
 715               	.LM109:
 716               	/* #APP */
 717               	 ;  316 "timebase.c" 1
 718 03ca 7894      		sei
 719               	 ;  0 "" 2
 720               	/* #NOAPP */
 721               	.LBE591:
 722               	.LBE590:
 723               	.LM110:
 724 03cc 6881      		ld r22,Y
 725 03ce 7981      		ldd r23,Y+1
 726               	.LVL34:
 727 03d0 80E0      		ldi r24,lo8(0)
 728 03d2 90E0      		ldi r25,hi8(0)
 729 03d4 0E94 0000 		call __mulsi3
 730               	.LVL35:
 731               	.LM111:
 732 03d8 00E0      		ldi r16,lo8(0)
 733 03da 10E0      		ldi r17,hi8(0)
 734 03dc 6E0D      		add r22,r14
 735 03de 7F1D      		adc r23,r15
 736 03e0 801F      		adc r24,r16
 737 03e2 911F      		adc r25,r17
 738               	.LVL36:
 739               	.L36:
 740               	.LM112:
 741 03e4 6615      		cp r22,r6
 742 03e6 7705      		cpc r23,r7
 743 03e8 8805      		cpc r24,r8
 744 03ea 9905      		cpc r25,r9
 745 03ec 04F0      		brlt .L37
 746               	/* epilogue start */
 747               	.LM113:
 748 03ee DF91      		pop r29
 749 03f0 CF91      		pop r28
 750 03f2 1F91      		pop r17
 751 03f4 0F91      		pop r16
 752 03f6 FF90      		pop r15
 753 03f8 EF90      		pop r14
 754 03fa DF90      		pop r13
 755 03fc CF90      		pop r12
 756               	.LVL37:
 757 03fe BF90      		pop r11
 758 0400 AF90      		pop r10
 759               	.LVL38:
 760 0402 9F90      		pop r9
 761 0404 8F90      		pop r8
 762 0406 7F90      		pop r7
 763 0408 6F90      		pop r6
 764               	.LVL39:
 765 040a 0895      		ret
 766               	.LFE18:
 768               	.global	Timebase_Timer_Await_SubSeconds
 770               	Timebase_Timer_Await_SubSeconds:
 771               	.LFB19:
 772               	.LM114:
 773               	.LVL40:
 774               	/* prologue: function */
 775               	/* frame size = 0 */
 776 040c BC01      		movw r22,r24
 777               	.LBB592:
 778               	.LBB593:
 779               	.LM115:
 780               	/* #APP */
 781               	 ;  312 "timebase.c" 1
 782 040e F894      		cli
 783               	 ;  0 "" 2
 784               	/* #NOAPP */
 785               	.LBE593:
 786               	.LBE592:
 787               	.LBB594:
 788               	.LBB595:
 789               	.LM116:
 790 0410 E091 0000 		lds r30,Timebase
 791 0414 F091 0000 		lds r31,(Timebase)+1
 792 0418 00C0      		rjmp .L44
 793               	.LVL41:
 794               	.L41:
 795               	.LBE595:
 796               	.LBE594:
 797               	.LBB596:
 798               	.LBB597:
 799               	.LM117:
 800               	/* #APP */
 801               	 ;  312 "timebase.c" 1
 802 041a F894      		cli
 803               	 ;  0 "" 2
 804               	.LVL42:
 805               	/* #NOAPP */
 806               	.L44:
 807               	.LBE597:
 808               	.LBE596:
 809               	.LBB598:
 810               	.LBB599:
 811               	.LM118:
 812 041c 8585      		ldd r24,Z+13
 813 041e 9685      		ldd r25,Z+14
 814               	.LBE599:
 815               	.LBE598:
 816               	.LBB600:
 817               	.LBB601:
 818               	.LM119:
 819               	/* #APP */
 820               	 ;  316 "timebase.c" 1
 821 0420 7894      		sei
 822               	 ;  0 "" 2
 823               	/* #NOAPP */
 824               	.LBE601:
 825               	.LBE600:
 826               	.LM120:
 827 0422 2381      		ldd r18,Z+3
 828 0424 3481      		ldd r19,Z+4
 829 0426 4581      		ldd r20,Z+5
 830 0428 5681      		ldd r21,Z+6
 831 042a A0E0      		ldi r26,lo8(0)
 832 042c B0E0      		ldi r27,hi8(0)
 833 042e 8217      		cp r24,r18
 834 0430 9307      		cpc r25,r19
 835 0432 A407      		cpc r26,r20
 836 0434 B507      		cpc r27,r21
 837 0436 01F4      		brne .L41
 838               	.LBB602:
 839               	.LBB603:
 840               	.LM121:
 841               	/* #APP */
 842               	 ;  312 "timebase.c" 1
 843 0438 F894      		cli
 844               	 ;  0 "" 2
 845               	/* #NOAPP */
 846               	.LBE603:
 847               	.LBE602:
 848               	.LBB604:
 849               	.LBB605:
 850               	.LM122:
 851 043a 8585      		ldd r24,Z+13
 852 043c 9685      		ldd r25,Z+14
 853               	.LVL43:
 854               	.LBE605:
 855               	.LBE604:
 856               	.LBB606:
 857               	.LBB607:
 858               	.LM123:
 859               	/* #APP */
 860               	 ;  316 "timebase.c" 1
 861 043e 7894      		sei
 862               	 ;  0 "" 2
 863               	/* #NOAPP */
 864               	.LBE607:
 865               	.LBE606:
 866               	.LM124:
 867 0440 A0E0      		ldi r26,lo8(0)
 868 0442 B0E0      		ldi r27,hi8(0)
 869               	.LVL44:
 870 0444 8383      		std Z+3,r24
 871 0446 9483      		std Z+4,r25
 872 0448 A583      		std Z+5,r26
 873 044a B683      		std Z+6,r27
 874               	.LVL45:
 875               	.LM125:
 876 044c 2381      		ldd r18,Z+3
 877 044e 3481      		ldd r19,Z+4
 878 0450 4581      		ldd r20,Z+5
 879 0452 5681      		ldd r21,Z+6
 880 0454 CB01      		movw r24,r22
 881 0456 A0E0      		ldi r26,lo8(0)
 882 0458 B0E0      		ldi r27,hi8(0)
 883               	.LVL46:
 884 045a 820F      		add r24,r18
 885 045c 931F      		adc r25,r19
 886 045e A41F      		adc r26,r20
 887 0460 B51F      		adc r27,r21
 888               	.LVL47:
 889 0462 8383      		std Z+3,r24
 890 0464 9483      		std Z+4,r25
 891 0466 A583      		std Z+5,r26
 892 0468 B683      		std Z+6,r27
 893               	.LM126:
 894 046a 2381      		ldd r18,Z+3
 895 046c 3481      		ldd r19,Z+4
 896 046e 4581      		ldd r20,Z+5
 897 0470 5681      		ldd r21,Z+6
 898 0472 8081      		ld r24,Z
 899 0474 9181      		ldd r25,Z+1
 900               	.LVL48:
 901 0476 A0E0      		ldi r26,lo8(0)
 902 0478 B0E0      		ldi r27,hi8(0)
 903               	.LVL49:
 904 047a 2817      		cp r18,r24
 905 047c 3907      		cpc r19,r25
 906 047e 4A07      		cpc r20,r26
 907 0480 5B07      		cpc r21,r27
 908 0482 04F0      		brlt .L43
 909               	.LM127:
 910 0484 2381      		ldd r18,Z+3
 911 0486 3481      		ldd r19,Z+4
 912 0488 4581      		ldd r20,Z+5
 913 048a 5681      		ldd r21,Z+6
 914 048c 8081      		ld r24,Z
 915 048e 9181      		ldd r25,Z+1
 916 0490 A0E0      		ldi r26,lo8(0)
 917 0492 B0E0      		ldi r27,hi8(0)
 918 0494 281B      		sub r18,r24
 919 0496 390B      		sbc r19,r25
 920 0498 4A0B      		sbc r20,r26
 921 049a 5B0B      		sbc r21,r27
 922 049c 2383      		std Z+3,r18
 923 049e 3483      		std Z+4,r19
 924 04a0 4583      		std Z+5,r20
 925 04a2 5683      		std Z+6,r21
 926               	.L43:
 927 04a4 0895      		ret
 928               	.LFE19:
 930               	.global	Timebase_Timer_Delay_Seconds
 932               	Timebase_Timer_Delay_Seconds:
 933               	.LFB20:
 934               	.LM128:
 935               	.LVL50:
 936               	/* prologue: function */
 937               	/* frame size = 0 */
 938               	.LBB608:
 939               	.LBB609:
 940               	.LM129:
 941               	/* #APP */
 942               	 ;  312 "timebase.c" 1
 943 04a6 F894      		cli
 944               	 ;  0 "" 2
 945               	/* #NOAPP */
 946               	.LBE609:
 947               	.LBE608:
 948               	.LBB610:
 949               	.LBB611:
 950               	.LM130:
 951 04a8 E091 0000 		lds r30,Timebase
 952 04ac F091 0000 		lds r31,(Timebase)+1
 953 04b0 2785      		ldd r18,Z+15
 954 04b2 3089      		ldd r19,Z+16
 955 04b4 4189      		ldd r20,Z+17
 956 04b6 5289      		ldd r21,Z+18
 957               	.LVL51:
 958               	.LBE611:
 959               	.LBE610:
 960               	.LBB612:
 961               	.LBB613:
 962               	.LM131:
 963               	/* #APP */
 964               	 ;  316 "timebase.c" 1
 965 04b8 7894      		sei
 966               	 ;  0 "" 2
 967               	/* #NOAPP */
 968               	.LBE613:
 969               	.LBE612:
 970               	.LM132:
 971 04ba A0E0      		ldi r26,lo8(0)
 972 04bc B0E0      		ldi r27,hi8(0)
 973               	.LVL52:
 974 04be 820F      		add r24,r18
 975 04c0 931F      		adc r25,r19
 976 04c2 A41F      		adc r26,r20
 977 04c4 B51F      		adc r27,r21
 978               	.LVL53:
 979 04c6 20E0      		ldi r18,lo8(0)
 980 04c8 30E0      		ldi r19,hi8(0)
 981 04ca 40E0      		ldi r20,hlo8(0)
 982 04cc 50E0      		ldi r21,hhi8(0)
 983               	.LVL54:
 984 04ce 00C0      		rjmp .L46
 985               	.L47:
 986               	.LBB614:
 987               	.LBB615:
 988               	.LM133:
 989               	/* #APP */
 990               	 ;  312 "timebase.c" 1
 991 04d0 F894      		cli
 992               	 ;  0 "" 2
 993               	/* #NOAPP */
 994               	.LBE615:
 995               	.LBE614:
 996               	.LBB616:
 997               	.LBB617:
 998               	.LM134:
 999 04d2 2785      		ldd r18,Z+15
 1000 04d4 3089      		ldd r19,Z+16
 1001 04d6 4189      		ldd r20,Z+17
 1002 04d8 5289      		ldd r21,Z+18
 1003               	.LBE617:
 1004               	.LBE616:
 1005               	.LBB618:
 1006               	.LBB619:
 1007               	.LM135:
 1008               	/* #APP */
 1009               	 ;  316 "timebase.c" 1
 1010 04da 7894      		sei
 1011               	 ;  0 "" 2
 1012               	/* #NOAPP */
 1013               	.L46:
 1014               	.LBE619:
 1015               	.LBE618:
 1016               	.LM136:
 1017 04dc 2817      		cp r18,r24
 1018 04de 3907      		cpc r19,r25
 1019 04e0 4A07      		cpc r20,r26
 1020 04e2 5B07      		cpc r21,r27
 1021 04e4 04F0      		brlt .L47
 1022               	/* epilogue start */
 1023               	.LM137:
 1024 04e6 0895      		ret
 1025               	.LFE20:
 1027               	.global	Timebase_UpCounter_SS_Get_Status
 1029               	Timebase_UpCounter_SS_Get_Status:
 1030               	.LFB21:
 1031               	.LM138:
 1032               	.LVL55:
 1033               	/* prologue: function */
 1034               	/* frame size = 0 */
 1035               	.LM139:
 1036 04e8 E091 0000 		lds r30,Timebase
 1037 04ec F091 0000 		lds r31,(Timebase)+1
 1038 04f0 90E0      		ldi r25,lo8(0)
 1039               	.LVL56:
 1040 04f2 29E1      		ldi r18,lo8(25)
 1041 04f4 30E0      		ldi r19,hi8(25)
 1042 04f6 AC01      		movw r20,r24
 1043 04f8 429F      		mul r20,r18
 1044 04fa C001      		movw r24,r0
 1045 04fc 439F      		mul r20,r19
 1046 04fe 900D      		add r25,r0
 1047 0500 529F      		mul r21,r18
 1048 0502 900D      		add r25,r0
 1049 0504 1124      		clr r1
 1050               	.LVL57:
 1051 0506 E80F      		add r30,r24
 1052 0508 F91F      		adc r31,r25
 1053 050a 8589      		ldd r24,Z+21
 1054 050c 8695      		lsr r24
 1055               	.LM140:
 1056 050e 8F70      		andi r24,lo8(15)
 1057               	/* epilogue start */
 1058 0510 0895      		ret
 1059               	.LFE21:
 1061               	.global	Timebase_UpCounter_SS_Set_Status
 1063               	Timebase_UpCounter_SS_Set_Status:
 1064               	.LFB22:
 1065               	.LM141:
 1066               	.LVL58:
 1067               	/* prologue: function */
 1068               	/* frame size = 0 */
 1069               	.LM142:
 1070 0512 E091 0000 		lds r30,Timebase
 1071 0516 F091 0000 		lds r31,(Timebase)+1
 1072 051a 90E0      		ldi r25,lo8(0)
 1073               	.LVL59:
 1074 051c 29E1      		ldi r18,lo8(25)
 1075 051e 30E0      		ldi r19,hi8(25)
 1076 0520 AC01      		movw r20,r24
 1077 0522 429F      		mul r20,r18
 1078 0524 C001      		movw r24,r0
 1079 0526 439F      		mul r20,r19
 1080 0528 900D      		add r25,r0
 1081 052a 529F      		mul r21,r18
 1082 052c 900D      		add r25,r0
 1083 052e 1124      		clr r1
 1084               	.LVL60:
 1085 0530 E80F      		add r30,r24
 1086 0532 F91F      		adc r31,r25
 1087 0534 6F70      		andi r22,lo8(15)
 1088               	.LVL61:
 1089 0536 660F      		lsl r22
 1090 0538 8589      		ldd r24,Z+21
 1091 053a 817E      		andi r24,lo8(-31)
 1092 053c 862B      		or r24,r22
 1093 053e 858B      		std Z+21,r24
 1094               	/* epilogue start */
 1095               	.LM143:
 1096 0540 0895      		ret
 1097               	.LFE22:
 1099               	.global	Timebase_UpCounter_SS_Get_Value
 1101               	Timebase_UpCounter_SS_Get_Value:
 1102               	.LFB23:
 1103               	.LM144:
 1104               	.LVL62:
 1105               	/* prologue: function */
 1106               	/* frame size = 0 */
 1107               	.LM145:
 1108 0542 E091 0000 		lds r30,Timebase
 1109 0546 F091 0000 		lds r31,(Timebase)+1
 1110 054a 90E0      		ldi r25,lo8(0)
 1111               	.LVL63:
 1112 054c 29E1      		ldi r18,lo8(25)
 1113 054e 30E0      		ldi r19,hi8(25)
 1114 0550 AC01      		movw r20,r24
 1115 0552 429F      		mul r20,r18
 1116 0554 C001      		movw r24,r0
 1117 0556 439F      		mul r20,r19
 1118 0558 900D      		add r25,r0
 1119 055a 529F      		mul r21,r18
 1120 055c 900D      		add r25,r0
 1121 055e 1124      		clr r1
 1122               	.LVL64:
 1123 0560 E80F      		add r30,r24
 1124 0562 F91F      		adc r31,r25
 1125 0564 DF01      		movw r26,r30
 1126 0566 9696      		adiw r26,38
 1127 0568 66A1      		ldd r22,Z+38
 1128 056a 1196      		adiw r26,1
 1129 056c 7C91      		ld r23,X
 1130 056e 1197      		sbiw r26,1
 1131               	.LM146:
 1132 0570 1296      		adiw r26,2
 1133 0572 8C91      		ld r24,X
 1134 0574 1297      		sbiw r26,2
 1135 0576 1396      		adiw r26,3
 1136 0578 9C91      		ld r25,X
 1137               	.LVL65:
 1138               	/* epilogue start */
 1139 057a 0895      		ret
 1140               	.LFE23:
 1142               	.global	Timebase_UpCounter_SS_Set_Value
 1144               	Timebase_UpCounter_SS_Set_Value:
 1145               	.LFB24:
 1146               	.LM147:
 1147               	.LVL66:
 1148 057c CF93      		push r28
 1149 057e DF93      		push r29
 1150               	/* prologue: function */
 1151               	/* frame size = 0 */
 1152               	.LM148:
 1153 0580 C091 0000 		lds r28,Timebase
 1154 0584 D091 0000 		lds r29,(Timebase)+1
 1155 0588 90E0      		ldi r25,lo8(0)
 1156               	.LVL67:
 1157 058a 29E1      		ldi r18,lo8(25)
 1158 058c 30E0      		ldi r19,hi8(25)
 1159 058e FC01      		movw r30,r24
 1160 0590 E29F      		mul r30,r18
 1161 0592 C001      		movw r24,r0
 1162 0594 E39F      		mul r30,r19
 1163 0596 900D      		add r25,r0
 1164 0598 F29F      		mul r31,r18
 1165 059a 900D      		add r25,r0
 1166 059c 1124      		clr r1
 1167               	.LVL68:
 1168 059e C80F      		add r28,r24
 1169 05a0 D91F      		adc r29,r25
 1170 05a2 CA01      		movw r24,r20
 1171               	.LVL69:
 1172 05a4 DB01      		movw r26,r22
 1173 05a6 B7FF      		sbrs r27,7
 1174 05a8 00C0      		rjmp .L56
 1175               	.LVL70:
 1176 05aa 80E0      		ldi r24,lo8(0)
 1177 05ac 90E0      		ldi r25,hi8(0)
 1178 05ae A0E0      		ldi r26,hlo8(0)
 1179 05b0 B0E0      		ldi r27,hhi8(0)
 1180               	.L56:
 1181 05b2 8EA3      		std Y+38,r24
 1182 05b4 9FA3      		std Y+39,r25
 1183 05b6 A8A7      		std Y+40,r26
 1184 05b8 B9A7      		std Y+41,r27
 1185               	/* epilogue start */
 1186               	.LM149:
 1187 05ba DF91      		pop r29
 1188 05bc CF91      		pop r28
 1189 05be 0895      		ret
 1190               	.LFE24:
 1192               	.global	Timebase_UpCounter_SS_Get_EndValueSec
 1194               	Timebase_UpCounter_SS_Get_EndValueSec:
 1195               	.LFB25:
 1196               	.LM150:
 1197               	.LVL71:
 1198               	/* prologue: function */
 1199               	/* frame size = 0 */
 1200               	.LM151:
 1201 05c0 E091 0000 		lds r30,Timebase
 1202 05c4 F091 0000 		lds r31,(Timebase)+1
 1203 05c8 90E0      		ldi r25,lo8(0)
 1204               	.LVL72:
 1205 05ca 29E1      		ldi r18,lo8(25)
 1206 05cc 30E0      		ldi r19,hi8(25)
 1207 05ce AC01      		movw r20,r24
 1208 05d0 429F      		mul r20,r18
 1209 05d2 C001      		movw r24,r0
 1210 05d4 439F      		mul r20,r19
 1211 05d6 900D      		add r25,r0
 1212 05d8 529F      		mul r21,r18
 1213 05da 900D      		add r25,r0
 1214 05dc 1124      		clr r1
 1215               	.LVL73:
 1216 05de E80F      		add r30,r24
 1217 05e0 F91F      		adc r31,r25
 1218 05e2 DF01      		movw r26,r30
 1219 05e4 5696      		adiw r26,22
 1220 05e6 6689      		ldd r22,Z+22
 1221 05e8 1196      		adiw r26,1
 1222 05ea 7C91      		ld r23,X
 1223 05ec 1197      		sbiw r26,1
 1224               	.LM152:
 1225 05ee 1296      		adiw r26,2
 1226 05f0 8C91      		ld r24,X
 1227 05f2 1297      		sbiw r26,2
 1228 05f4 1396      		adiw r26,3
 1229 05f6 9C91      		ld r25,X
 1230               	.LVL74:
 1231               	/* epilogue start */
 1232 05f8 0895      		ret
 1233               	.LFE25:
 1235               	.global	Timebase_UpCounter_SS_Get_EndValueSubSec
 1237               	Timebase_UpCounter_SS_Get_EndValueSubSec:
 1238               	.LFB26:
 1239               	.LM153:
 1240               	.LVL75:
 1241               	/* prologue: function */
 1242               	/* frame size = 0 */
 1243               	.LM154:
 1244 05fa E091 0000 		lds r30,Timebase
 1245 05fe F091 0000 		lds r31,(Timebase)+1
 1246 0602 90E0      		ldi r25,lo8(0)
 1247               	.LVL76:
 1248 0604 29E1      		ldi r18,lo8(25)
 1249 0606 30E0      		ldi r19,hi8(25)
 1250 0608 AC01      		movw r20,r24
 1251 060a 429F      		mul r20,r18
 1252 060c C001      		movw r24,r0
 1253 060e 439F      		mul r20,r19
 1254 0610 900D      		add r25,r0
 1255 0612 529F      		mul r21,r18
 1256 0614 900D      		add r25,r0
 1257 0616 1124      		clr r1
 1258               	.LVL77:
 1259 0618 E80F      		add r30,r24
 1260 061a F91F      		adc r31,r25
 1261 061c DF01      		movw r26,r30
 1262 061e 5A96      		adiw r26,26
 1263 0620 628D      		ldd r22,Z+26
 1264 0622 1196      		adiw r26,1
 1265 0624 7C91      		ld r23,X
 1266 0626 1197      		sbiw r26,1
 1267               	.LM155:
 1268 0628 1296      		adiw r26,2
 1269 062a 8C91      		ld r24,X
 1270 062c 1297      		sbiw r26,2
 1271 062e 1396      		adiw r26,3
 1272 0630 9C91      		ld r25,X
 1273               	.LVL78:
 1274               	/* epilogue start */
 1275 0632 0895      		ret
 1276               	.LFE26:
 1278               	.global	Timebase_UpCounter_SS_Set_EndValueSec
 1280               	Timebase_UpCounter_SS_Set_EndValueSec:
 1281               	.LFB27:
 1282               	.LM156:
 1283               	.LVL79:
 1284               	/* prologue: function */
 1285               	/* frame size = 0 */
 1286               	.LM157:
 1287 0634 E091 0000 		lds r30,Timebase
 1288 0638 F091 0000 		lds r31,(Timebase)+1
 1289 063c 90E0      		ldi r25,lo8(0)
 1290               	.LVL80:
 1291 063e 29E1      		ldi r18,lo8(25)
 1292 0640 30E0      		ldi r19,hi8(25)
 1293 0642 DC01      		movw r26,r24
 1294 0644 A29F      		mul r26,r18
 1295 0646 C001      		movw r24,r0
 1296 0648 A39F      		mul r26,r19
 1297 064a 900D      		add r25,r0
 1298 064c B29F      		mul r27,r18
 1299 064e 900D      		add r25,r0
 1300 0650 1124      		clr r1
 1301               	.LVL81:
 1302 0652 E80F      		add r30,r24
 1303 0654 F91F      		adc r31,r25
 1304 0656 468B      		std Z+22,r20
 1305 0658 578B      		std Z+23,r21
 1306 065a 608F      		std Z+24,r22
 1307 065c 718F      		std Z+25,r23
 1308               	/* epilogue start */
 1309               	.LM158:
 1310 065e 0895      		ret
 1311               	.LFE27:
 1313               	.global	Timebase_UpCounter_SS_Set_EndValueSubSec
 1315               	Timebase_UpCounter_SS_Set_EndValueSubSec:
 1316               	.LFB28:
 1317               	.LM159:
 1318               	.LVL82:
 1319               	/* prologue: function */
 1320               	/* frame size = 0 */
 1321               	.LM160:
 1322 0660 E091 0000 		lds r30,Timebase
 1323 0664 F091 0000 		lds r31,(Timebase)+1
 1324 0668 90E0      		ldi r25,lo8(0)
 1325               	.LVL83:
 1326 066a 29E1      		ldi r18,lo8(25)
 1327 066c 30E0      		ldi r19,hi8(25)
 1328 066e DC01      		movw r26,r24
 1329 0670 A29F      		mul r26,r18
 1330 0672 C001      		movw r24,r0
 1331 0674 A39F      		mul r26,r19
 1332 0676 900D      		add r25,r0
 1333 0678 B29F      		mul r27,r18
 1334 067a 900D      		add r25,r0
 1335 067c 1124      		clr r1
 1336               	.LVL84:
 1337 067e E80F      		add r30,r24
 1338 0680 F91F      		adc r31,r25
 1339 0682 428F      		std Z+26,r20
 1340 0684 538F      		std Z+27,r21
 1341 0686 648F      		std Z+28,r22
 1342 0688 758F      		std Z+29,r23
 1343               	/* epilogue start */
 1344               	.LM161:
 1345 068a 0895      		ret
 1346               	.LFE28:
 1348               	.global	Timebase_UpCounter_SS_Get_TargetValue
 1350               	Timebase_UpCounter_SS_Get_TargetValue:
 1351               	.LFB29:
 1352               	.LM162:
 1353               	.LVL85:
 1354               	/* prologue: function */
 1355               	/* frame size = 0 */
 1356               	.LM163:
 1357 068c E091 0000 		lds r30,Timebase
 1358 0690 F091 0000 		lds r31,(Timebase)+1
 1359 0694 90E0      		ldi r25,lo8(0)
 1360               	.LVL86:
 1361 0696 29E1      		ldi r18,lo8(25)
 1362 0698 30E0      		ldi r19,hi8(25)
 1363 069a AC01      		movw r20,r24
 1364 069c 429F      		mul r20,r18
 1365 069e C001      		movw r24,r0
 1366 06a0 439F      		mul r20,r19
 1367 06a2 900D      		add r25,r0
 1368 06a4 529F      		mul r21,r18
 1369 06a6 900D      		add r25,r0
 1370 06a8 1124      		clr r1
 1371               	.LVL87:
 1372 06aa E80F      		add r30,r24
 1373 06ac F91F      		adc r31,r25
 1374 06ae DF01      		movw r26,r30
 1375 06b0 5E96      		adiw r26,30
 1376 06b2 668D      		ldd r22,Z+30
 1377 06b4 1196      		adiw r26,1
 1378 06b6 7C91      		ld r23,X
 1379 06b8 1197      		sbiw r26,1
 1380               	.LM164:
 1381 06ba 1296      		adiw r26,2
 1382 06bc 8C91      		ld r24,X
 1383 06be 1297      		sbiw r26,2
 1384 06c0 1396      		adiw r26,3
 1385 06c2 9C91      		ld r25,X
 1386               	.LVL88:
 1387               	/* epilogue start */
 1388 06c4 0895      		ret
 1389               	.LFE29:
 1391               	.global	Timebase_UpCounter_SS_Set_TargetValue
 1393               	Timebase_UpCounter_SS_Set_TargetValue:
 1394               	.LFB30:
 1395               	.LM165:
 1396               	.LVL89:
 1397               	/* prologue: function */
 1398               	/* frame size = 0 */
 1399               	.LM166:
 1400 06c6 E091 0000 		lds r30,Timebase
 1401 06ca F091 0000 		lds r31,(Timebase)+1
 1402 06ce 90E0      		ldi r25,lo8(0)
 1403               	.LVL90:
 1404 06d0 29E1      		ldi r18,lo8(25)
 1405 06d2 30E0      		ldi r19,hi8(25)
 1406 06d4 DC01      		movw r26,r24
 1407 06d6 A29F      		mul r26,r18
 1408 06d8 C001      		movw r24,r0
 1409 06da A39F      		mul r26,r19
 1410 06dc 900D      		add r25,r0
 1411 06de B29F      		mul r27,r18
 1412 06e0 900D      		add r25,r0
 1413 06e2 1124      		clr r1
 1414               	.LVL91:
 1415 06e4 E80F      		add r30,r24
 1416 06e6 F91F      		adc r31,r25
 1417 06e8 468F      		std Z+30,r20
 1418 06ea 578F      		std Z+31,r21
 1419 06ec 60A3      		std Z+32,r22
 1420 06ee 71A3      		std Z+33,r23
 1421               	/* epilogue start */
 1422               	.LM167:
 1423 06f0 0895      		ret
 1424               	.LFE30:
 1426               	.global	Timebase_UpCounter_SS_Get_TemporaryValue
 1428               	Timebase_UpCounter_SS_Get_TemporaryValue:
 1429               	.LFB31:
 1430               	.LM168:
 1431               	.LVL92:
 1432               	/* prologue: function */
 1433               	/* frame size = 0 */
 1434               	.LM169:
 1435 06f2 E091 0000 		lds r30,Timebase
 1436 06f6 F091 0000 		lds r31,(Timebase)+1
 1437 06fa 90E0      		ldi r25,lo8(0)
 1438               	.LVL93:
 1439 06fc 29E1      		ldi r18,lo8(25)
 1440 06fe 30E0      		ldi r19,hi8(25)
 1441 0700 AC01      		movw r20,r24
 1442 0702 429F      		mul r20,r18
 1443 0704 C001      		movw r24,r0
 1444 0706 439F      		mul r20,r19
 1445 0708 900D      		add r25,r0
 1446 070a 529F      		mul r21,r18
 1447 070c 900D      		add r25,r0
 1448 070e 1124      		clr r1
 1449               	.LVL94:
 1450 0710 E80F      		add r30,r24
 1451 0712 F91F      		adc r31,r25
 1452 0714 DF01      		movw r26,r30
 1453 0716 9296      		adiw r26,34
 1454 0718 62A1      		ldd r22,Z+34
 1455 071a 1196      		adiw r26,1
 1456 071c 7C91      		ld r23,X
 1457 071e 1197      		sbiw r26,1
 1458               	.LM170:
 1459 0720 1296      		adiw r26,2
 1460 0722 8C91      		ld r24,X
 1461 0724 1297      		sbiw r26,2
 1462 0726 1396      		adiw r26,3
 1463 0728 9C91      		ld r25,X
 1464               	.LVL95:
 1465               	/* epilogue start */
 1466 072a 0895      		ret
 1467               	.LFE31:
 1469               	.global	Timebase_UpCounter_SS_Set_TemporaryValue
 1471               	Timebase_UpCounter_SS_Set_TemporaryValue:
 1472               	.LFB32:
 1473               	.LM171:
 1474               	.LVL96:
 1475 072c CF93      		push r28
 1476 072e DF93      		push r29
 1477               	/* prologue: function */
 1478               	/* frame size = 0 */
 1479               	.LM172:
 1480 0730 C091 0000 		lds r28,Timebase
 1481 0734 D091 0000 		lds r29,(Timebase)+1
 1482 0738 90E0      		ldi r25,lo8(0)
 1483               	.LVL97:
 1484 073a 29E1      		ldi r18,lo8(25)
 1485 073c 30E0      		ldi r19,hi8(25)
 1486 073e FC01      		movw r30,r24
 1487 0740 E29F      		mul r30,r18
 1488 0742 C001      		movw r24,r0
 1489 0744 E39F      		mul r30,r19
 1490 0746 900D      		add r25,r0
 1491 0748 F29F      		mul r31,r18
 1492 074a 900D      		add r25,r0
 1493 074c 1124      		clr r1
 1494               	.LVL98:
 1495 074e C80F      		add r28,r24
 1496 0750 D91F      		adc r29,r25
 1497 0752 CA01      		movw r24,r20
 1498               	.LVL99:
 1499 0754 DB01      		movw r26,r22
 1500 0756 B7FF      		sbrs r27,7
 1501 0758 00C0      		rjmp .L73
 1502               	.LVL100:
 1503 075a 80E0      		ldi r24,lo8(0)
 1504 075c 90E0      		ldi r25,hi8(0)
 1505 075e A0E0      		ldi r26,hlo8(0)
 1506 0760 B0E0      		ldi r27,hhi8(0)
 1507               	.L73:
 1508 0762 8AA3      		std Y+34,r24
 1509 0764 9BA3      		std Y+35,r25
 1510 0766 ACA3      		std Y+36,r26
 1511 0768 BDA3      		std Y+37,r27
 1512               	/* epilogue start */
 1513               	.LM173:
 1514 076a DF91      		pop r29
 1515 076c CF91      		pop r28
 1516 076e 0895      		ret
 1517               	.LFE32:
 1519               	.global	Timebase_UpCounter_SS_Get_PeriodValue
 1521               	Timebase_UpCounter_SS_Get_PeriodValue:
 1522               	.LFB33:
 1523               	.LM174:
 1524               	.LVL101:
 1525               	/* prologue: function */
 1526               	/* frame size = 0 */
 1527               	.LM175:
 1528 0770 E091 0000 		lds r30,Timebase
 1529 0774 F091 0000 		lds r31,(Timebase)+1
 1530 0778 90E0      		ldi r25,lo8(0)
 1531               	.LVL102:
 1532 077a 29E1      		ldi r18,lo8(25)
 1533 077c 30E0      		ldi r19,hi8(25)
 1534 077e AC01      		movw r20,r24
 1535 0780 429F      		mul r20,r18
 1536 0782 C001      		movw r24,r0
 1537 0784 439F      		mul r20,r19
 1538 0786 900D      		add r25,r0
 1539 0788 529F      		mul r21,r18
 1540 078a 900D      		add r25,r0
 1541 078c 1124      		clr r1
 1542               	.LVL103:
 1543 078e E80F      		add r30,r24
 1544 0790 F91F      		adc r31,r25
 1545 0792 DF01      		movw r26,r30
 1546 0794 9A96      		adiw r26,42
 1547 0796 62A5      		ldd r22,Z+42
 1548 0798 1196      		adiw r26,1
 1549 079a 7C91      		ld r23,X
 1550 079c 1197      		sbiw r26,1
 1551               	.LM176:
 1552 079e 1296      		adiw r26,2
 1553 07a0 8C91      		ld r24,X
 1554 07a2 1297      		sbiw r26,2
 1555 07a4 1396      		adiw r26,3
 1556 07a6 9C91      		ld r25,X
 1557               	.LVL104:
 1558               	/* epilogue start */
 1559 07a8 0895      		ret
 1560               	.LFE33:
 1562               	.global	Timebase_UpCounter_SS_Set_PeriodValue
 1564               	Timebase_UpCounter_SS_Set_PeriodValue:
 1565               	.LFB34:
 1566               	.LM177:
 1567               	.LVL105:
 1568               	/* prologue: function */
 1569               	/* frame size = 0 */
 1570               	.LM178:
 1571 07aa E091 0000 		lds r30,Timebase
 1572 07ae F091 0000 		lds r31,(Timebase)+1
 1573 07b2 90E0      		ldi r25,lo8(0)
 1574               	.LVL106:
 1575 07b4 29E1      		ldi r18,lo8(25)
 1576 07b6 30E0      		ldi r19,hi8(25)
 1577 07b8 DC01      		movw r26,r24
 1578 07ba A29F      		mul r26,r18
 1579 07bc C001      		movw r24,r0
 1580 07be A39F      		mul r26,r19
 1581 07c0 900D      		add r25,r0
 1582 07c2 B29F      		mul r27,r18
 1583 07c4 900D      		add r25,r0
 1584 07c6 1124      		clr r1
 1585               	.LVL107:
 1586 07c8 E80F      		add r30,r24
 1587 07ca F91F      		adc r31,r25
 1588 07cc 42A7      		std Z+42,r20
 1589 07ce 53A7      		std Z+43,r21
 1590 07d0 64A7      		std Z+44,r22
 1591 07d2 75A7      		std Z+45,r23
 1592               	/* epilogue start */
 1593               	.LM179:
 1594 07d4 0895      		ret
 1595               	.LFE34:
 1597               	.global	Timebase_UpCounter_SS_Get_Period_Flag
 1599               	Timebase_UpCounter_SS_Get_Period_Flag:
 1600               	.LFB35:
 1601               	.LM180:
 1602               	.LVL108:
 1603               	/* prologue: function */
 1604               	/* frame size = 0 */
 1605               	.LM181:
 1606 07d6 E091 0000 		lds r30,Timebase
 1607 07da F091 0000 		lds r31,(Timebase)+1
 1608 07de 90E0      		ldi r25,lo8(0)
 1609               	.LVL109:
 1610 07e0 29E1      		ldi r18,lo8(25)
 1611 07e2 30E0      		ldi r19,hi8(25)
 1612 07e4 AC01      		movw r20,r24
 1613 07e6 429F      		mul r20,r18
 1614 07e8 C001      		movw r24,r0
 1615 07ea 439F      		mul r20,r19
 1616 07ec 900D      		add r25,r0
 1617 07ee 529F      		mul r21,r18
 1618 07f0 900D      		add r25,r0
 1619 07f2 1124      		clr r1
 1620               	.LVL110:
 1621 07f4 E80F      		add r30,r24
 1622 07f6 F91F      		adc r31,r25
 1623 07f8 8589      		ldd r24,Z+21
 1624               	.LM182:
 1625 07fa 8170      		andi r24,lo8(1)
 1626               	/* epilogue start */
 1627 07fc 0895      		ret
 1628               	.LFE35:
 1630               	.global	Timebase_UpCounter_SS_Set_Period_Flag
 1632               	Timebase_UpCounter_SS_Set_Period_Flag:
 1633               	.LFB36:
 1634               	.LM183:
 1635               	.LVL111:
 1636               	/* prologue: function */
 1637               	/* frame size = 0 */
 1638               	.LM184:
 1639 07fe E091 0000 		lds r30,Timebase
 1640 0802 F091 0000 		lds r31,(Timebase)+1
 1641 0806 90E0      		ldi r25,lo8(0)
 1642               	.LVL112:
 1643 0808 29E1      		ldi r18,lo8(25)
 1644 080a 30E0      		ldi r19,hi8(25)
 1645 080c AC01      		movw r20,r24
 1646 080e 429F      		mul r20,r18
 1647 0810 C001      		movw r24,r0
 1648 0812 439F      		mul r20,r19
 1649 0814 900D      		add r25,r0
 1650 0816 529F      		mul r21,r18
 1651 0818 900D      		add r25,r0
 1652 081a 1124      		clr r1
 1653               	.LVL113:
 1654 081c E80F      		add r30,r24
 1655 081e F91F      		adc r31,r25
 1656 0820 8589      		ldd r24,Z+21
 1657 0822 8160      		ori r24,lo8(1)
 1658 0824 858B      		std Z+21,r24
 1659               	/* epilogue start */
 1660               	.LM185:
 1661 0826 0895      		ret
 1662               	.LFE36:
 1664               	.global	Timebase_UpCounter_SS_Clear_Period_Flag
 1666               	Timebase_UpCounter_SS_Clear_Period_Flag:
 1667               	.LFB37:
 1668               	.LM186:
 1669               	.LVL114:
 1670               	/* prologue: function */
 1671               	/* frame size = 0 */
 1672               	.LM187:
 1673 0828 E091 0000 		lds r30,Timebase
 1674 082c F091 0000 		lds r31,(Timebase)+1
 1675 0830 90E0      		ldi r25,lo8(0)
 1676               	.LVL115:
 1677 0832 29E1      		ldi r18,lo8(25)
 1678 0834 30E0      		ldi r19,hi8(25)
 1679 0836 AC01      		movw r20,r24
 1680 0838 429F      		mul r20,r18
 1681 083a C001      		movw r24,r0
 1682 083c 439F      		mul r20,r19
 1683 083e 900D      		add r25,r0
 1684 0840 529F      		mul r21,r18
 1685 0842 900D      		add r25,r0
 1686 0844 1124      		clr r1
 1687               	.LVL116:
 1688 0846 E80F      		add r30,r24
 1689 0848 F91F      		adc r31,r25
 1690 084a 8589      		ldd r24,Z+21
 1691 084c 8E7F      		andi r24,lo8(-2)
 1692 084e 858B      		std Z+21,r24
 1693               	/* epilogue start */
 1694               	.LM188:
 1695 0850 0895      		ret
 1696               	.LFE37:
 1698               	.global	Timebase_UpCounter_SS_Reset
 1700               	Timebase_UpCounter_SS_Reset:
 1701               	.LFB38:
 1702               	.LM189:
 1703               	.LVL117:
 1704               	/* prologue: function */
 1705               	/* frame size = 0 */
 1706               	.LBB620:
 1707               	.LBB621:
 1708               	.LM190:
 1709 0852 E091 0000 		lds r30,Timebase
 1710 0856 F091 0000 		lds r31,(Timebase)+1
 1711 085a 90E0      		ldi r25,lo8(0)
 1712 085c 29E1      		ldi r18,lo8(25)
 1713 085e 30E0      		ldi r19,hi8(25)
 1714 0860 AC01      		movw r20,r24
 1715               	.LVL118:
 1716 0862 429F      		mul r20,r18
 1717 0864 C001      		movw r24,r0
 1718 0866 439F      		mul r20,r19
 1719 0868 900D      		add r25,r0
 1720 086a 529F      		mul r21,r18
 1721 086c 900D      		add r25,r0
 1722 086e 1124      		clr r1
 1723 0870 E80F      		add r30,r24
 1724 0872 F91F      		adc r31,r25
 1725 0874 8589      		ldd r24,Z+21
 1726               	.LBE621:
 1727               	.LBE620:
 1728               	.LBB622:
 1729               	.LBB623:
 1730               	.LM191:
 1731 0876 16A2      		std Z+38,__zero_reg__
 1732 0878 17A2      		std Z+39,__zero_reg__
 1733 087a 10A6      		std Z+40,__zero_reg__
 1734 087c 11A6      		std Z+41,__zero_reg__
 1735               	.LBE623:
 1736               	.LBE622:
 1737               	.LBB624:
 1738               	.LBB625:
 1739               	.LM192:
 1740 087e 168A      		std Z+22,__zero_reg__
 1741 0880 178A      		std Z+23,__zero_reg__
 1742 0882 108E      		std Z+24,__zero_reg__
 1743 0884 118E      		std Z+25,__zero_reg__
 1744               	.LBE625:
 1745               	.LBE624:
 1746               	.LBB626:
 1747               	.LBB627:
 1748               	.LM193:
 1749 0886 128E      		std Z+26,__zero_reg__
 1750 0888 138E      		std Z+27,__zero_reg__
 1751 088a 148E      		std Z+28,__zero_reg__
 1752 088c 158E      		std Z+29,__zero_reg__
 1753               	.LBE627:
 1754               	.LBE626:
 1755               	.LBB628:
 1756               	.LBB629:
 1757               	.LM194:
 1758 088e 168E      		std Z+30,__zero_reg__
 1759 0890 178E      		std Z+31,__zero_reg__
 1760 0892 10A2      		std Z+32,__zero_reg__
 1761 0894 11A2      		std Z+33,__zero_reg__
 1762               	.LBE629:
 1763               	.LBE628:
 1764               	.LBB630:
 1765               	.LBB631:
 1766               	.LM195:
 1767 0896 12A2      		std Z+34,__zero_reg__
 1768 0898 13A2      		std Z+35,__zero_reg__
 1769 089a 14A2      		std Z+36,__zero_reg__
 1770 089c 15A2      		std Z+37,__zero_reg__
 1771               	.LBE631:
 1772               	.LBE630:
 1773               	.LBB632:
 1774               	.LBB633:
 1775               	.LM196:
 1776 089e 12A6      		std Z+42,__zero_reg__
 1777 08a0 13A6      		std Z+43,__zero_reg__
 1778 08a2 14A6      		std Z+44,__zero_reg__
 1779 08a4 15A6      		std Z+45,__zero_reg__
 1780               	.LBE633:
 1781               	.LBE632:
 1782               	.LBB634:
 1783               	.LBB635:
 1784               	.LM197:
 1785 08a6 807E      		andi r24,lo8(-32)
 1786 08a8 858B      		std Z+21,r24
 1787               	/* epilogue start */
 1788               	.LBE635:
 1789               	.LBE634:
 1790               	.LM198:
 1791 08aa 0895      		ret
 1792               	.LFE38:
 1794               	.global	Timebase_UpCounter_SS_Clear_All_Flags
 1796               	Timebase_UpCounter_SS_Clear_All_Flags:
 1797               	.LFB39:
 1798               	.LM199:
 1799               	.LVL119:
 1800               	/* prologue: function */
 1801               	/* frame size = 0 */
 1802               	.LM200:
 1803 08ac 0E94 0000 		call Timebase_UpCounter_SS_Reset
 1804               	.LVL120:
 1805               	/* epilogue start */
 1806               	.LM201:
 1807 08b0 0895      		ret
 1808               	.LFE39:
 1810               	.global	Timebase_UpCounter_SS_Start
 1812               	Timebase_UpCounter_SS_Start:
 1813               	.LFB40:
 1814               	.LM202:
 1815               	.LVL121:
 1816               	/* prologue: function */
 1817               	/* frame size = 0 */
 1818               	.LBB636:
 1819               	.LBB637:
 1820               	.LM203:
 1821 08b2 E091 0000 		lds r30,Timebase
 1822 08b6 F091 0000 		lds r31,(Timebase)+1
 1823 08ba 90E0      		ldi r25,lo8(0)
 1824               	.LBE637:
 1825               	.LBE636:
 1826               	.LM204:
 1827 08bc 29E1      		ldi r18,lo8(25)
 1828 08be 30E0      		ldi r19,hi8(25)
 1829 08c0 AC01      		movw r20,r24
 1830               	.LVL122:
 1831 08c2 429F      		mul r20,r18
 1832 08c4 C001      		movw r24,r0
 1833 08c6 439F      		mul r20,r19
 1834 08c8 900D      		add r25,r0
 1835 08ca 529F      		mul r21,r18
 1836 08cc 900D      		add r25,r0
 1837 08ce 1124      		clr r1
 1838 08d0 E80F      		add r30,r24
 1839 08d2 F91F      		adc r31,r25
 1840 08d4 9589      		ldd r25,Z+21
 1841 08d6 892F      		mov r24,r25
 1842 08d8 8695      		lsr r24
 1843 08da 8F70      		andi r24,lo8(15)
 1844 08dc 8130      		cpi r24,lo8(1)
 1845 08de 01F0      		breq .L91
 1846               	.LBB638:
 1847               	.LBB639:
 1848               	.LM205:
 1849 08e0 917E      		andi r25,lo8(-31)
 1850 08e2 9260      		ori r25,lo8(2)
 1851 08e4 958B      		std Z+21,r25
 1852               	.L91:
 1853 08e6 0895      		ret
 1854               	.LBE639:
 1855               	.LBE638:
 1856               	.LFE40:
 1858               	.global	Timebase_UpCounter_SS_Stop
 1860               	Timebase_UpCounter_SS_Stop:
 1861               	.LFB41:
 1862               	.LM206:
 1863               	.LVL123:
 1864               	/* prologue: function */
 1865               	/* frame size = 0 */
 1866               	.LBB640:
 1867               	.LBB641:
 1868               	.LM207:
 1869 08e8 E091 0000 		lds r30,Timebase
 1870 08ec F091 0000 		lds r31,(Timebase)+1
 1871 08f0 90E0      		ldi r25,lo8(0)
 1872               	.LBE641:
 1873               	.LBE640:
 1874               	.LM208:
 1875 08f2 29E1      		ldi r18,lo8(25)
 1876 08f4 30E0      		ldi r19,hi8(25)
 1877 08f6 AC01      		movw r20,r24
 1878               	.LVL124:
 1879 08f8 429F      		mul r20,r18
 1880 08fa C001      		movw r24,r0
 1881 08fc 439F      		mul r20,r19
 1882 08fe 900D      		add r25,r0
 1883 0900 529F      		mul r21,r18
 1884 0902 900D      		add r25,r0
 1885 0904 1124      		clr r1
 1886 0906 E80F      		add r30,r24
 1887 0908 F91F      		adc r31,r25
 1888 090a 9589      		ldd r25,Z+21
 1889 090c 892F      		mov r24,r25
 1890 090e 8695      		lsr r24
 1891 0910 8F70      		andi r24,lo8(15)
 1892 0912 8230      		cpi r24,lo8(2)
 1893 0914 01F0      		breq .L94
 1894               	.LBB642:
 1895               	.LBB643:
 1896               	.LM209:
 1897 0916 917E      		andi r25,lo8(-31)
 1898 0918 9460      		ori r25,lo8(4)
 1899 091a 958B      		std Z+21,r25
 1900               	.L94:
 1901 091c 0895      		ret
 1902               	.LBE643:
 1903               	.LBE642:
 1904               	.LFE41:
 1906               	.global	Timebase_UpCounter_SS_Set_Securely
 1908               	Timebase_UpCounter_SS_Set_Securely:
 1909               	.LFB42:
 1910               	.LM210:
 1911               	.LVL125:
 1912 091e 2F92      		push r2
 1913 0920 3F92      		push r3
 1914 0922 4F92      		push r4
 1915 0924 5F92      		push r5
 1916 0926 6F92      		push r6
 1917 0928 7F92      		push r7
 1918 092a 8F92      		push r8
 1919 092c 9F92      		push r9
 1920 092e AF92      		push r10
 1921 0930 BF92      		push r11
 1922 0932 CF92      		push r12
 1923 0934 DF92      		push r13
 1924 0936 EF92      		push r14
 1925 0938 FF92      		push r15
 1926 093a 0F93      		push r16
 1927 093c 1F93      		push r17
 1928 093e DF93      		push r29
 1929 0940 CF93      		push r28
 1930 0942 00D0      		rcall .
 1931 0944 00D0      		rcall .
 1932 0946 CDB7      		in r28,__SP_L__
 1933 0948 DEB7      		in r29,__SP_H__
 1934               	/* prologue: function */
 1935               	/* frame size = 4 */
 1936 094a 4A01      		movw r8,r20
 1937 094c 5B01      		movw r10,r22
 1938               	.LBB644:
 1939               	.LBB645:
 1940               	.LM211:
 1941 094e 2091 0000 		lds r18,Timebase
 1942 0952 3091 0000 		lds r19,(Timebase)+1
 1943 0956 3C83      		std Y+4,r19
 1944 0958 2B83      		std Y+3,r18
 1945 095a A82F      		mov r26,r24
 1946 095c B0E0      		ldi r27,lo8(0)
 1947 095e BA83      		std Y+2,r27
 1948 0960 A983      		std Y+1,r26
 1949               	.LBE645:
 1950               	.LBE644:
 1951               	.LM212:
 1952 0962 89E1      		ldi r24,lo8(25)
 1953 0964 90E0      		ldi r25,hi8(25)
 1954               	.LVL126:
 1955 0966 A89F      		mul r26,r24
 1956 0968 F001      		movw r30,r0
 1957 096a A99F      		mul r26,r25
 1958 096c F00D      		add r31,r0
 1959 096e B89F      		mul r27,r24
 1960 0970 F00D      		add r31,r0
 1961 0972 1124      		clr r1
 1962 0974 E20F      		add r30,r18
 1963 0976 F31F      		adc r31,r19
 1964 0978 8589      		ldd r24,Z+21
 1965 097a 8695      		lsr r24
 1966 097c 8F70      		andi r24,lo8(15)
 1967 097e 01F0      		breq .+2
 1968 0980 00C0      		rjmp .L98
 1969               	.LVL127:
 1970               	.LBB646:
 1971               	.LBB647:
 1972               	.LM213:
 1973 0982 16A2      		std Z+38,__zero_reg__
 1974 0984 17A2      		std Z+39,__zero_reg__
 1975 0986 10A6      		std Z+40,__zero_reg__
 1976 0988 11A6      		std Z+41,__zero_reg__
 1977               	.LBE647:
 1978               	.LBE646:
 1979               	.LBB648:
 1980               	.LBB649:
 1981               	.LM214:
 1982 098a 12A2      		std Z+34,__zero_reg__
 1983 098c 13A2      		std Z+35,__zero_reg__
 1984 098e 14A2      		std Z+36,__zero_reg__
 1985 0990 15A2      		std Z+37,__zero_reg__
 1986               	.LBE649:
 1987               	.LBE648:
 1988               	.LBB650:
 1989               	.LBB651:
 1990               	.LM215:
 1991 0992 468F      		std Z+30,r20
 1992 0994 578F      		std Z+31,r21
 1993 0996 60A3      		std Z+32,r22
 1994 0998 71A3      		std Z+33,r23
 1995               	.LBE651:
 1996               	.LBE650:
 1997               	.LBB652:
 1998               	.LBB653:
 1999               	.LM216:
 2000 099a F901      		movw r30,r18
 2001 099c C780      		ldd r12,Z+7
 2002 099e D084      		ldd r13,Z+8
 2003               	.LBE653:
 2004               	.LBE652:
 2005               	.LBB654:
 2006               	.LBB655:
 2007               	.LM217:
 2008 09a0 2184      		ldd r2,Z+9
 2009 09a2 3284      		ldd r3,Z+10
 2010 09a4 4384      		ldd r4,Z+11
 2011 09a6 5484      		ldd r5,Z+12
 2012               	.LVL128:
 2013               	.LBE655:
 2014               	.LBE654:
 2015               	.LM218:
 2016 09a8 2081      		ld r18,Z
 2017 09aa 3181      		ldd r19,Z+1
 2018 09ac 40E0      		ldi r20,lo8(0)
 2019 09ae 50E0      		ldi r21,hi8(0)
 2020 09b0 C501      		movw r24,r10
 2021 09b2 B401      		movw r22,r8
 2022 09b4 0E94 0000 		call __divmodsi4
 2023 09b8 7B01      		movw r14,r22
 2024 09ba 8C01      		movw r16,r24
 2025               	.LM219:
 2026 09bc AB81      		ldd r26,Y+3
 2027 09be BC81      		ldd r27,Y+4
 2028 09c0 2D91      		ld r18,X+
 2029 09c2 3C91      		ld r19,X
 2030 09c4 40E0      		ldi r20,lo8(0)
 2031 09c6 50E0      		ldi r21,hi8(0)
 2032 09c8 C501      		movw r24,r10
 2033 09ca B401      		movw r22,r8
 2034 09cc 0E94 0000 		call __divmodsi4
 2035 09d0 C901      		movw r24,r18
 2036 09d2 DA01      		movw r26,r20
 2037 09d4 3C01      		movw r6,r24
 2038 09d6 4D01      		movw r8,r26
 2039               	.LVL129:
 2040               	.LM220:
 2041 09d8 5601      		movw r10,r12
 2042               	.LVL130:
 2043 09da CC24      		clr r12
 2044 09dc DD24      		clr r13
 2045               	.LVL131:
 2046 09de AE0C      		add r10,r14
 2047 09e0 BF1C      		adc r11,r15
 2048 09e2 C01E      		adc r12,r16
 2049 09e4 D11E      		adc r13,r17
 2050               	.LVL132:
 2051               	.LM221:
 2052 09e6 EB81      		ldd r30,Y+3
 2053 09e8 FC81      		ldd r31,Y+4
 2054 09ea 8081      		ld r24,Z
 2055 09ec 9181      		ldd r25,Z+1
 2056               	.LVL133:
 2057 09ee A0E0      		ldi r26,lo8(0)
 2058 09f0 B0E0      		ldi r27,hi8(0)
 2059 09f2 A816      		cp r10,r24
 2060 09f4 B906      		cpc r11,r25
 2061 09f6 CA06      		cpc r12,r26
 2062 09f8 DB06      		cpc r13,r27
 2063 09fa 04F0      		brlt .L97
 2064               	.LM222:
 2065 09fc 0894      		sec
 2066 09fe 611C      		adc r6,__zero_reg__
 2067 0a00 711C      		adc r7,__zero_reg__
 2068 0a02 811C      		adc r8,__zero_reg__
 2069 0a04 911C      		adc r9,__zero_reg__
 2070               	.LM223:
 2071 0a06 2081      		ld r18,Z
 2072 0a08 3181      		ldd r19,Z+1
 2073 0a0a 40E0      		ldi r20,lo8(0)
 2074 0a0c 50E0      		ldi r21,hi8(0)
 2075 0a0e C601      		movw r24,r12
 2076 0a10 B501      		movw r22,r10
 2077 0a12 0E94 0000 		call __divmodsi4
 2078 0a16 AC01      		movw r20,r24
 2079 0a18 CB01      		movw r24,r22
 2080 0a1a DA01      		movw r26,r20
 2081 0a1c 5C01      		movw r10,r24
 2082 0a1e 6D01      		movw r12,r26
 2083               	.L97:
 2084               	.LBB656:
 2085               	.LBB657:
 2086               	.LM224:
 2087 0a20 89E1      		ldi r24,lo8(25)
 2088 0a22 90E0      		ldi r25,hi8(25)
 2089 0a24 2981      		ldd r18,Y+1
 2090 0a26 3A81      		ldd r19,Y+2
 2091 0a28 289F      		mul r18,r24
 2092 0a2a F001      		movw r30,r0
 2093 0a2c 299F      		mul r18,r25
 2094 0a2e F00D      		add r31,r0
 2095 0a30 389F      		mul r19,r24
 2096 0a32 F00D      		add r31,r0
 2097 0a34 1124      		clr r1
 2098 0a36 8B81      		ldd r24,Y+3
 2099 0a38 9C81      		ldd r25,Y+4
 2100 0a3a E80F      		add r30,r24
 2101 0a3c F91F      		adc r31,r25
 2102 0a3e 260C      		add r2,r6
 2103 0a40 371C      		adc r3,r7
 2104 0a42 481C      		adc r4,r8
 2105 0a44 591C      		adc r5,r9
 2106 0a46 268A      		std Z+22,r2
 2107 0a48 378A      		std Z+23,r3
 2108 0a4a 408E      		std Z+24,r4
 2109 0a4c 518E      		std Z+25,r5
 2110               	.LBE657:
 2111               	.LBE656:
 2112               	.LBB658:
 2113               	.LBB659:
 2114               	.LM225:
 2115 0a4e A28E      		std Z+26,r10
 2116 0a50 B38E      		std Z+27,r11
 2117 0a52 C48E      		std Z+28,r12
 2118 0a54 D58E      		std Z+29,r13
 2119               	.LBE659:
 2120               	.LBE658:
 2121               	.LBB660:
 2122               	.LBB661:
 2123               	.LM226:
 2124 0a56 9589      		ldd r25,Z+21
 2125 0a58 892F      		mov r24,r25
 2126 0a5a 8695      		lsr r24
 2127 0a5c 8F70      		andi r24,lo8(15)
 2128 0a5e 8130      		cpi r24,lo8(1)
 2129 0a60 01F0      		breq .L98
 2130               	.LBB662:
 2131               	.LBB663:
 2132               	.LM227:
 2133 0a62 917E      		andi r25,lo8(-31)
 2134 0a64 9260      		ori r25,lo8(2)
 2135 0a66 958B      		std Z+21,r25
 2136               	.LVL134:
 2137               	.L98:
 2138               	/* epilogue start */
 2139               	.LBE663:
 2140               	.LBE662:
 2141               	.LBE661:
 2142               	.LBE660:
 2143               	.LM228:
 2144 0a68 0F90      		pop __tmp_reg__
 2145 0a6a 0F90      		pop __tmp_reg__
 2146 0a6c 0F90      		pop __tmp_reg__
 2147 0a6e 0F90      		pop __tmp_reg__
 2148 0a70 CF91      		pop r28
 2149 0a72 DF91      		pop r29
 2150 0a74 1F91      		pop r17
 2151 0a76 0F91      		pop r16
 2152 0a78 FF90      		pop r15
 2153 0a7a EF90      		pop r14
 2154 0a7c DF90      		pop r13
 2155 0a7e CF90      		pop r12
 2156               	.LVL135:
 2157 0a80 BF90      		pop r11
 2158 0a82 AF90      		pop r10
 2159               	.LVL136:
 2160 0a84 9F90      		pop r9
 2161 0a86 8F90      		pop r8
 2162               	.LVL137:
 2163 0a88 7F90      		pop r7
 2164 0a8a 6F90      		pop r6
 2165               	.LVL138:
 2166 0a8c 5F90      		pop r5
 2167 0a8e 4F90      		pop r4
 2168 0a90 3F90      		pop r3
 2169 0a92 2F90      		pop r2
 2170               	.LVL139:
 2171 0a94 0895      		ret
 2172               	.LFE42:
 2174               	.global	Timebase_UpCounter_SS_Set_Forcefully
 2176               	Timebase_UpCounter_SS_Set_Forcefully:
 2177               	.LFB43:
 2178               	.LM229:
 2179               	.LVL140:
 2180 0a96 DF92      		push r13
 2181 0a98 EF92      		push r14
 2182 0a9a FF92      		push r15
 2183 0a9c 0F93      		push r16
 2184 0a9e 1F93      		push r17
 2185               	/* prologue: function */
 2186               	/* frame size = 0 */
 2187 0aa0 D82E      		mov r13,r24
 2188 0aa2 7A01      		movw r14,r20
 2189 0aa4 8B01      		movw r16,r22
 2190               	.LM230:
 2191 0aa6 0E94 0000 		call Timebase_UpCounter_SS_Reset
 2192               	.LVL141:
 2193               	.LM231:
 2194 0aaa 8D2D      		mov r24,r13
 2195 0aac B801      		movw r22,r16
 2196 0aae A701      		movw r20,r14
 2197 0ab0 0E94 0000 		call Timebase_UpCounter_SS_Set_Securely
 2198               	/* epilogue start */
 2199               	.LM232:
 2200 0ab4 1F91      		pop r17
 2201 0ab6 0F91      		pop r16
 2202 0ab8 FF90      		pop r15
 2203 0aba EF90      		pop r14
 2204               	.LVL142:
 2205 0abc DF90      		pop r13
 2206               	.LVL143:
 2207 0abe 0895      		ret
 2208               	.LFE43:
 2210               	.global	Timebase_UpCounter_SS_Update
 2212               	Timebase_UpCounter_SS_Update:
 2213               	.LFB44:
 2214               	.LM233:
 2215               	.LVL144:
 2216 0ac0 2F92      		push r2
 2217 0ac2 3F92      		push r3
 2218 0ac4 4F92      		push r4
 2219 0ac6 5F92      		push r5
 2220 0ac8 6F92      		push r6
 2221 0aca 7F92      		push r7
 2222 0acc 8F92      		push r8
 2223 0ace 9F92      		push r9
 2224 0ad0 AF92      		push r10
 2225 0ad2 BF92      		push r11
 2226 0ad4 CF92      		push r12
 2227 0ad6 DF92      		push r13
 2228 0ad8 EF92      		push r14
 2229 0ada FF92      		push r15
 2230 0adc 0F93      		push r16
 2231 0ade 1F93      		push r17
 2232 0ae0 DF93      		push r29
 2233 0ae2 CF93      		push r28
 2234 0ae4 00D0      		rcall .
 2235 0ae6 00D0      		rcall .
 2236 0ae8 00D0      		rcall .
 2237 0aea CDB7      		in r28,__SP_L__
 2238 0aec DEB7      		in r29,__SP_H__
 2239               	/* prologue: function */
 2240               	/* frame size = 6 */
 2241               	.LBB664:
 2242               	.LBB665:
 2243               	.LM234:
 2244 0aee 2090 0000 		lds r2,Timebase
 2245 0af2 3090 0000 		lds r3,(Timebase)+1
 2246 0af6 282F      		mov r18,r24
 2247 0af8 30E0      		ldi r19,lo8(0)
 2248 0afa 3E83      		std Y+6,r19
 2249 0afc 2D83      		std Y+5,r18
 2250 0afe 89E1      		ldi r24,lo8(25)
 2251 0b00 90E0      		ldi r25,hi8(25)
 2252               	.LVL145:
 2253 0b02 289F      		mul r18,r24
 2254 0b04 5001      		movw r10,r0
 2255 0b06 299F      		mul r18,r25
 2256 0b08 B00C      		add r11,r0
 2257 0b0a 389F      		mul r19,r24
 2258 0b0c B00C      		add r11,r0
 2259 0b0e 1124      		clr r1
 2260 0b10 A20C      		add r10,r2
 2261 0b12 B31C      		adc r11,r3
 2262 0b14 D501      		movw r26,r10
 2263 0b16 5596      		adiw r26,21
 2264 0b18 8C91      		ld r24,X
 2265 0b1a 8695      		lsr r24
 2266 0b1c 8F70      		andi r24,lo8(15)
 2267               	.LBE665:
 2268               	.LBE664:
 2269               	.LM235:
 2270 0b1e 8130      		cpi r24,lo8(1)
 2271 0b20 01F0      		breq .+2
 2272 0b22 00C0      		rjmp .L102
 2273               	.LBB666:
 2274               	.LBB667:
 2275               	.LM236:
 2276 0b24 F101      		movw r30,r2
 2277 0b26 8185      		ldd r24,Z+9
 2278 0b28 9285      		ldd r25,Z+10
 2279 0b2a A385      		ldd r26,Z+11
 2280 0b2c B485      		ldd r27,Z+12
 2281               	.LVL146:
 2282               	.LBE667:
 2283               	.LBE666:
 2284               	.LBB668:
 2285               	.LBB669:
 2286               	.LM237:
 2287 0b2e E780      		ldd r14,Z+7
 2288 0b30 F084      		ldd r15,Z+8
 2289               	.LBE669:
 2290               	.LBE668:
 2291               	.LM238:
 2292 0b32 00E0      		ldi r16,lo8(0)
 2293 0b34 10E0      		ldi r17,hi8(0)
 2294               	.LVL147:
 2295               	.LM239:
 2296 0b36 F501      		movw r30,r10
 2297 0b38 2689      		ldd r18,Z+22
 2298 0b3a 3789      		ldd r19,Z+23
 2299 0b3c 408D      		ldd r20,Z+24
 2300 0b3e 518D      		ldd r21,Z+25
 2301 0b40 281B      		sub r18,r24
 2302 0b42 390B      		sbc r19,r25
 2303 0b44 4A0B      		sbc r20,r26
 2304 0b46 5B0B      		sbc r21,r27
 2305               	.LM240:
 2306 0b48 D101      		movw r26,r2
 2307 0b4a 6D91      		ld r22,X+
 2308 0b4c 7C91      		ld r23,X
 2309               	.LM241:
 2310 0b4e 80E0      		ldi r24,lo8(0)
 2311 0b50 90E0      		ldi r25,hi8(0)
 2312               	.LVL148:
 2313 0b52 0E94 0000 		call __mulsi3
 2314 0b56 9B01      		movw r18,r22
 2315 0b58 AC01      		movw r20,r24
 2316               	.LVL149:
 2317 0b5a 2E19      		sub r18,r14
 2318 0b5c 3F09      		sbc r19,r15
 2319 0b5e 400B      		sbc r20,r16
 2320 0b60 510B      		sbc r21,r17
 2321               	.LM242:
 2322 0b62 F501      		movw r30,r10
 2323 0b64 828D      		ldd r24,Z+26
 2324 0b66 938D      		ldd r25,Z+27
 2325 0b68 A48D      		ldd r26,Z+28
 2326 0b6a B58D      		ldd r27,Z+29
 2327 0b6c 280F      		add r18,r24
 2328 0b6e 391F      		adc r19,r25
 2329 0b70 4A1F      		adc r20,r26
 2330 0b72 5B1F      		adc r21,r27
 2331 0b74 57FF      		sbrs r21,7
 2332 0b76 00C0      		rjmp .L103
 2333 0b78 20E0      		ldi r18,lo8(0)
 2334 0b7a 30E0      		ldi r19,hi8(0)
 2335 0b7c 40E0      		ldi r20,hlo8(0)
 2336 0b7e 50E0      		ldi r21,hhi8(0)
 2337               	.L103:
 2338               	.LBB670:
 2339               	.LBB671:
 2340               	.LM243:
 2341 0b80 89E1      		ldi r24,lo8(25)
 2342 0b82 90E0      		ldi r25,hi8(25)
 2343 0b84 6D81      		ldd r22,Y+5
 2344 0b86 7E81      		ldd r23,Y+6
 2345 0b88 689F      		mul r22,r24
 2346 0b8a F001      		movw r30,r0
 2347 0b8c 699F      		mul r22,r25
 2348 0b8e F00D      		add r31,r0
 2349 0b90 789F      		mul r23,r24
 2350 0b92 F00D      		add r31,r0
 2351 0b94 1124      		clr r1
 2352 0b96 E20D      		add r30,r2
 2353 0b98 F31D      		adc r31,r3
 2354 0b9a 22A3      		std Z+34,r18
 2355 0b9c 33A3      		std Z+35,r19
 2356 0b9e 44A3      		std Z+36,r20
 2357 0ba0 55A3      		std Z+37,r21
 2358               	.LBE671:
 2359               	.LBE670:
 2360               	.LM244:
 2361 0ba2 868D      		ldd r24,Z+30
 2362 0ba4 978D      		ldd r25,Z+31
 2363 0ba6 A0A1      		ldd r26,Z+32
 2364 0ba8 B1A1      		ldd r27,Z+33
 2365               	.LVL150:
 2366               	.LBB672:
 2367               	.LBB673:
 2368               	.LM245:
 2369 0baa 821B      		sub r24,r18
 2370 0bac 930B      		sbc r25,r19
 2371 0bae A40B      		sbc r26,r20
 2372 0bb0 B50B      		sbc r27,r21
 2373 0bb2 B7FF      		sbrs r27,7
 2374 0bb4 00C0      		rjmp .L104
 2375 0bb6 80E0      		ldi r24,lo8(0)
 2376 0bb8 90E0      		ldi r25,hi8(0)
 2377 0bba A0E0      		ldi r26,hlo8(0)
 2378 0bbc B0E0      		ldi r27,hhi8(0)
 2379               	.L104:
 2380 0bbe 86A3      		std Z+38,r24
 2381 0bc0 97A3      		std Z+39,r25
 2382 0bc2 A0A7      		std Z+40,r26
 2383 0bc4 B1A7      		std Z+41,r27
 2384               	.LBE673:
 2385               	.LBE672:
 2386               	.LM246:
 2387 0bc6 89E1      		ldi r24,lo8(25)
 2388 0bc8 90E0      		ldi r25,hi8(25)
 2389               	.LVL151:
 2390 0bca AD81      		ldd r26,Y+5
 2391 0bcc BE81      		ldd r27,Y+6
 2392 0bce A89F      		mul r26,r24
 2393 0bd0 B001      		movw r22,r0
 2394 0bd2 A99F      		mul r26,r25
 2395 0bd4 700D      		add r23,r0
 2396 0bd6 B89F      		mul r27,r24
 2397 0bd8 700D      		add r23,r0
 2398 0bda 1124      		clr r1
 2399 0bdc 620D      		add r22,r2
 2400 0bde 731D      		adc r23,r3
 2401 0be0 FB01      		movw r30,r22
 2402 0be2 82A1      		ldd r24,Z+34
 2403 0be4 93A1      		ldd r25,Z+35
 2404 0be6 A4A1      		ldd r26,Z+36
 2405 0be8 B5A1      		ldd r27,Z+37
 2406 0bea 1816      		cp __zero_reg__,r24
 2407 0bec 1906      		cpc __zero_reg__,r25
 2408 0bee 1A06      		cpc __zero_reg__,r26
 2409 0bf0 1B06      		cpc __zero_reg__,r27
 2410 0bf2 04F4      		brge .+2
 2411 0bf4 00C0      		rjmp .L109
 2412               	.LBB674:
 2413               	.LBB675:
 2414               	.LM247:
 2415 0bf6 DB01      		movw r26,r22
 2416 0bf8 5696      		adiw r26,22
 2417 0bfa 1D92      		st X+,__zero_reg__
 2418 0bfc 1D92      		st X+,__zero_reg__
 2419 0bfe 1D92      		st X+,__zero_reg__
 2420 0c00 1C92      		st X,__zero_reg__
 2421 0c02 5997      		sbiw r26,22+3
 2422               	.LBE675:
 2423               	.LBE674:
 2424               	.LBB676:
 2425               	.LBB677:
 2426               	.LM248:
 2427 0c04 128E      		std Z+26,__zero_reg__
 2428 0c06 138E      		std Z+27,__zero_reg__
 2429 0c08 148E      		std Z+28,__zero_reg__
 2430 0c0a 158E      		std Z+29,__zero_reg__
 2431               	.LBE677:
 2432               	.LBE676:
 2433               	.LBB678:
 2434               	.LBB679:
 2435               	.LM249:
 2436 0c0c 9296      		adiw r26,34
 2437 0c0e 1D92      		st X+,__zero_reg__
 2438 0c10 1D92      		st X+,__zero_reg__
 2439 0c12 1D92      		st X+,__zero_reg__
 2440 0c14 1C92      		st X,__zero_reg__
 2441 0c16 9597      		sbiw r26,34+3
 2442               	.LBE679:
 2443               	.LBE678:
 2444               	.LBB680:
 2445               	.LBB681:
 2446               	.LM250:
 2447 0c18 7E96      		adiw r30,30
 2448               	.LBE681:
 2449               	.LBE680:
 2450               	.LBB682:
 2451               	.LBB683:
 2452               	.LM251:
 2453 0c1a 5E96      		adiw r26,30
 2454 0c1c 2C91      		ld r18,X
 2455               	.LVL152:
 2456 0c1e 3181      		ldd r19,Z+1
 2457               	.LVL153:
 2458 0c20 4281      		ldd r20,Z+2
 2459               	.LVL154:
 2460 0c22 5381      		ldd r21,Z+3
 2461               	.LVL155:
 2462 0c24 C901      		movw r24,r18
 2463               	.LVL156:
 2464 0c26 DA01      		movw r26,r20
 2465               	.LVL157:
 2466 0c28 B7FF      		sbrs r27,7
 2467 0c2a 00C0      		rjmp .L106
 2468               	.LVL158:
 2469 0c2c 80E0      		ldi r24,lo8(0)
 2470 0c2e 90E0      		ldi r25,hi8(0)
 2471 0c30 A0E0      		ldi r26,hlo8(0)
 2472 0c32 B0E0      		ldi r27,hhi8(0)
 2473               	.L106:
 2474 0c34 FB01      		movw r30,r22
 2475 0c36 86A3      		std Z+38,r24
 2476 0c38 97A3      		std Z+39,r25
 2477 0c3a A0A7      		std Z+40,r26
 2478 0c3c B1A7      		std Z+41,r27
 2479               	.LBE683:
 2480               	.LBE682:
 2481               	.LBB684:
 2482               	.LBB685:
 2483               	.LM252:
 2484 0c3e 89E1      		ldi r24,lo8(25)
 2485 0c40 90E0      		ldi r25,hi8(25)
 2486               	.LVL159:
 2487 0c42 2D81      		ldd r18,Y+5
 2488 0c44 3E81      		ldd r19,Y+6
 2489 0c46 289F      		mul r18,r24
 2490 0c48 F001      		movw r30,r0
 2491 0c4a 299F      		mul r18,r25
 2492 0c4c F00D      		add r31,r0
 2493 0c4e 389F      		mul r19,r24
 2494 0c50 F00D      		add r31,r0
 2495 0c52 1124      		clr r1
 2496 0c54 E20D      		add r30,r2
 2497 0c56 F31D      		adc r31,r3
 2498 0c58 8589      		ldd r24,Z+21
 2499 0c5a 817E      		andi r24,lo8(-31)
 2500 0c5c 8860      		ori r24,lo8(8)
 2501 0c5e 858B      		std Z+21,r24
 2502 0c60 00C0      		rjmp .L109
 2503               	.LVL160:
 2504               	.L102:
 2505               	.LBE685:
 2506               	.LBE684:
 2507               	.LM253:
 2508 0c62 8230      		cpi r24,lo8(2)
 2509 0c64 01F0      		breq .+2
 2510 0c66 00C0      		rjmp .L109
 2511               	.LBB686:
 2512               	.LBB687:
 2513               	.LM254:
 2514 0c68 D101      		movw r26,r2
 2515 0c6a 1996      		adiw r26,9
 2516 0c6c 6D91      		ld r22,X+
 2517 0c6e 7D91      		ld r23,X+
 2518 0c70 8D91      		ld r24,X+
 2519 0c72 9C91      		ld r25,X
 2520 0c74 1C97      		sbiw r26,9+3
 2521 0c76 6983      		std Y+1,r22
 2522 0c78 7A83      		std Y+2,r23
 2523 0c7a 8B83      		std Y+3,r24
 2524 0c7c 9C83      		std Y+4,r25
 2525               	.LVL161:
 2526               	.LBE687:
 2527               	.LBE686:
 2528               	.LBB688:
 2529               	.LBB689:
 2530               	.LM255:
 2531 0c7e 1796      		adiw r26,7
 2532 0c80 8D90      		ld r8,X+
 2533 0c82 9C90      		ld r9,X
 2534 0c84 1897      		sbiw r26,7+1
 2535               	.LBE689:
 2536               	.LBE688:
 2537               	.LBB690:
 2538               	.LBB691:
 2539               	.LM256:
 2540 0c86 F501      		movw r30,r10
 2541 0c88 A2A0      		ldd r10,Z+34
 2542 0c8a B3A0      		ldd r11,Z+35
 2543 0c8c C4A0      		ldd r12,Z+36
 2544 0c8e D5A0      		ldd r13,Z+37
 2545               	.LVL162:
 2546               	.LBE691:
 2547               	.LBE690:
 2548               	.LM257:
 2549 0c90 2D91      		ld r18,X+
 2550 0c92 3C91      		ld r19,X
 2551 0c94 40E0      		ldi r20,lo8(0)
 2552 0c96 50E0      		ldi r21,hi8(0)
 2553 0c98 C601      		movw r24,r12
 2554 0c9a B501      		movw r22,r10
 2555 0c9c 0E94 0000 		call __divmodsi4
 2556 0ca0 7B01      		movw r14,r22
 2557 0ca2 8C01      		movw r16,r24
 2558               	.LM258:
 2559 0ca4 D101      		movw r26,r2
 2560 0ca6 2D91      		ld r18,X+
 2561 0ca8 3C91      		ld r19,X
 2562 0caa 40E0      		ldi r20,lo8(0)
 2563 0cac 50E0      		ldi r21,hi8(0)
 2564 0cae C601      		movw r24,r12
 2565 0cb0 B501      		movw r22,r10
 2566 0cb2 0E94 0000 		call __divmodsi4
 2567 0cb6 C901      		movw r24,r18
 2568 0cb8 DA01      		movw r26,r20
 2569 0cba 2C01      		movw r4,r24
 2570 0cbc 3D01      		movw r6,r26
 2571               	.LVL163:
 2572               	.LM259:
 2573 0cbe AA24      		clr r10
 2574 0cc0 BB24      		clr r11
 2575               	.LVL164:
 2576 0cc2 8E0C      		add r8,r14
 2577 0cc4 9F1C      		adc r9,r15
 2578 0cc6 A01E      		adc r10,r16
 2579 0cc8 B11E      		adc r11,r17
 2580               	.LVL165:
 2581               	.LM260:
 2582 0cca F101      		movw r30,r2
 2583 0ccc 8081      		ld r24,Z
 2584 0cce 9181      		ldd r25,Z+1
 2585               	.LVL166:
 2586 0cd0 A0E0      		ldi r26,lo8(0)
 2587 0cd2 B0E0      		ldi r27,hi8(0)
 2588 0cd4 8816      		cp r8,r24
 2589 0cd6 9906      		cpc r9,r25
 2590 0cd8 AA06      		cpc r10,r26
 2591 0cda BB06      		cpc r11,r27
 2592 0cdc 04F0      		brlt .L107
 2593               	.LM261:
 2594 0cde 0894      		sec
 2595 0ce0 411C      		adc r4,__zero_reg__
 2596 0ce2 511C      		adc r5,__zero_reg__
 2597 0ce4 611C      		adc r6,__zero_reg__
 2598 0ce6 711C      		adc r7,__zero_reg__
 2599               	.LM262:
 2600 0ce8 2081      		ld r18,Z
 2601 0cea 3181      		ldd r19,Z+1
 2602 0cec 40E0      		ldi r20,lo8(0)
 2603 0cee 50E0      		ldi r21,hi8(0)
 2604 0cf0 C501      		movw r24,r10
 2605 0cf2 B401      		movw r22,r8
 2606 0cf4 0E94 0000 		call __divmodsi4
 2607 0cf8 AC01      		movw r20,r24
 2608 0cfa CB01      		movw r24,r22
 2609 0cfc DA01      		movw r26,r20
 2610 0cfe 4C01      		movw r8,r24
 2611 0d00 5D01      		movw r10,r26
 2612               	.L107:
 2613               	.LBB692:
 2614               	.LBB693:
 2615               	.LM263:
 2616 0d02 89E1      		ldi r24,lo8(25)
 2617 0d04 90E0      		ldi r25,hi8(25)
 2618 0d06 2D81      		ldd r18,Y+5
 2619 0d08 3E81      		ldd r19,Y+6
 2620 0d0a 289F      		mul r18,r24
 2621 0d0c B001      		movw r22,r0
 2622 0d0e 299F      		mul r18,r25
 2623 0d10 700D      		add r23,r0
 2624 0d12 389F      		mul r19,r24
 2625 0d14 700D      		add r23,r0
 2626 0d16 1124      		clr r1
 2627 0d18 620D      		add r22,r2
 2628 0d1a 731D      		adc r23,r3
 2629 0d1c 8981      		ldd r24,Y+1
 2630 0d1e 9A81      		ldd r25,Y+2
 2631 0d20 AB81      		ldd r26,Y+3
 2632 0d22 BC81      		ldd r27,Y+4
 2633 0d24 840D      		add r24,r4
 2634 0d26 951D      		adc r25,r5
 2635 0d28 A61D      		adc r26,r6
 2636 0d2a B71D      		adc r27,r7
 2637 0d2c FB01      		movw r30,r22
 2638 0d2e 868B      		std Z+22,r24
 2639 0d30 978B      		std Z+23,r25
 2640 0d32 A08F      		std Z+24,r26
 2641 0d34 B18F      		std Z+25,r27
 2642               	.LBE693:
 2643               	.LBE692:
 2644               	.LBB694:
 2645               	.LBB695:
 2646               	.LM264:
 2647 0d36 DB01      		movw r26,r22
 2648 0d38 5A96      		adiw r26,26
 2649 0d3a 8D92      		st X+,r8
 2650 0d3c 9D92      		st X+,r9
 2651 0d3e AD92      		st X+,r10
 2652 0d40 BC92      		st X,r11
 2653 0d42 5D97      		sbiw r26,26+3
 2654               	.LBE695:
 2655               	.LBE694:
 2656               	.LM265:
 2657 0d44 5E96      		adiw r26,30
 2658 0d46 2D91      		ld r18,X+
 2659 0d48 3D91      		ld r19,X+
 2660 0d4a 4D91      		ld r20,X+
 2661 0d4c 5C91      		ld r21,X
 2662 0d4e 9197      		sbiw r26,30+3
 2663               	.LVL167:
 2664 0d50 9296      		adiw r26,34
 2665 0d52 8D91      		ld r24,X+
 2666 0d54 9D91      		ld r25,X+
 2667 0d56 0D90      		ld __tmp_reg__,X+
 2668 0d58 BC91      		ld r27,X
 2669 0d5a A02D      		mov r26,__tmp_reg__
 2670               	.LBB696:
 2671               	.LBB697:
 2672               	.LM266:
 2673 0d5c 281B      		sub r18,r24
 2674 0d5e 390B      		sbc r19,r25
 2675 0d60 4A0B      		sbc r20,r26
 2676 0d62 5B0B      		sbc r21,r27
 2677 0d64 57FF      		sbrs r21,7
 2678 0d66 00C0      		rjmp .L108
 2679 0d68 20E0      		ldi r18,lo8(0)
 2680 0d6a 30E0      		ldi r19,hi8(0)
 2681 0d6c 40E0      		ldi r20,hlo8(0)
 2682 0d6e 50E0      		ldi r21,hhi8(0)
 2683               	.L108:
 2684 0d70 FB01      		movw r30,r22
 2685 0d72 26A3      		std Z+38,r18
 2686 0d74 37A3      		std Z+39,r19
 2687 0d76 40A7      		std Z+40,r20
 2688 0d78 51A7      		std Z+41,r21
 2689               	.LVL168:
 2690               	.L109:
 2691               	/* epilogue start */
 2692               	.LBE697:
 2693               	.LBE696:
 2694               	.LM267:
 2695 0d7a 2696      		adiw r28,6
 2696 0d7c 0FB6      		in __tmp_reg__,__SREG__
 2697 0d7e F894      		cli
 2698 0d80 DEBF      		out __SP_H__,r29
 2699 0d82 0FBE      		out __SREG__,__tmp_reg__
 2700 0d84 CDBF      		out __SP_L__,r28
 2701 0d86 CF91      		pop r28
 2702 0d88 DF91      		pop r29
 2703 0d8a 1F91      		pop r17
 2704 0d8c 0F91      		pop r16
 2705               	.LVL169:
 2706 0d8e FF90      		pop r15
 2707 0d90 EF90      		pop r14
 2708 0d92 DF90      		pop r13
 2709 0d94 CF90      		pop r12
 2710 0d96 BF90      		pop r11
 2711 0d98 AF90      		pop r10
 2712               	.LVL170:
 2713 0d9a 9F90      		pop r9
 2714 0d9c 8F90      		pop r8
 2715               	.LVL171:
 2716 0d9e 7F90      		pop r7
 2717 0da0 6F90      		pop r6
 2718 0da2 5F90      		pop r5
 2719 0da4 4F90      		pop r4
 2720               	.LVL172:
 2721 0da6 3F90      		pop r3
 2722 0da8 2F90      		pop r2
 2723 0daa 0895      		ret
 2724               	.LFE44:
 2726               	.global	Timebase_UpCounter_SS_Expired
 2728               	Timebase_UpCounter_SS_Expired:
 2729               	.LFB45:
 2730               	.LM268:
 2731               	.LVL173:
 2732               	/* prologue: function */
 2733               	/* frame size = 0 */
 2734               	.LM269:
 2735 0dac 40E0      		ldi r20,lo8(0)
 2736 0dae E091 0000 		lds r30,Timebase
 2737 0db2 F091 0000 		lds r31,(Timebase)+1
 2738 0db6 90E0      		ldi r25,lo8(0)
 2739               	.LVL174:
 2740 0db8 29E1      		ldi r18,lo8(25)
 2741 0dba 30E0      		ldi r19,hi8(25)
 2742 0dbc BC01      		movw r22,r24
 2743 0dbe 629F      		mul r22,r18
 2744 0dc0 C001      		movw r24,r0
 2745 0dc2 639F      		mul r22,r19
 2746 0dc4 900D      		add r25,r0
 2747 0dc6 729F      		mul r23,r18
 2748 0dc8 900D      		add r25,r0
 2749 0dca 1124      		clr r1
 2750               	.LVL175:
 2751 0dcc E80F      		add r30,r24
 2752 0dce F91F      		adc r31,r25
 2753 0dd0 8589      		ldd r24,Z+21
 2754 0dd2 8695      		lsr r24
 2755 0dd4 8F70      		andi r24,lo8(15)
 2756 0dd6 8430      		cpi r24,lo8(4)
 2757 0dd8 01F4      		brne .L111
 2758 0dda 41E0      		ldi r20,lo8(1)
 2759               	.L111:
 2760               	.LM270:
 2761 0ddc 842F      		mov r24,r20
 2762               	/* epilogue start */
 2763 0dde 0895      		ret
 2764               	.LFE45:
 2766               	.global	Timebase_UpCounter_SS_Expired_Event
 2768               	Timebase_UpCounter_SS_Expired_Event:
 2769               	.LFB46:
 2770               	.LM271:
 2771               	.LVL176:
 2772               	/* prologue: function */
 2773               	/* frame size = 0 */
 2774 0de0 482F      		mov r20,r24
 2775               	.LM272:
 2776 0de2 E091 0000 		lds r30,Timebase
 2777 0de6 F091 0000 		lds r31,(Timebase)+1
 2778 0dea 282F      		mov r18,r24
 2779 0dec 30E0      		ldi r19,lo8(0)
 2780               	.LVL177:
 2781 0dee 89E1      		ldi r24,lo8(25)
 2782 0df0 90E0      		ldi r25,hi8(25)
 2783               	.LVL178:
 2784 0df2 BC01      		movw r22,r24
 2785 0df4 269F      		mul r18,r22
 2786 0df6 C001      		movw r24,r0
 2787 0df8 279F      		mul r18,r23
 2788 0dfa 900D      		add r25,r0
 2789 0dfc 369F      		mul r19,r22
 2790 0dfe 900D      		add r25,r0
 2791 0e00 1124      		clr r1
 2792 0e02 E80F      		add r30,r24
 2793 0e04 F91F      		adc r31,r25
 2794 0e06 8589      		ldd r24,Z+21
 2795 0e08 8695      		lsr r24
 2796 0e0a 8F70      		andi r24,lo8(15)
 2797 0e0c 8430      		cpi r24,lo8(4)
 2798 0e0e 01F0      		breq .L114
 2799 0e10 80E0      		ldi r24,lo8(0)
 2800 0e12 0895      		ret
 2801               	.L114:
 2802               	.LBB698:
 2803               	.LBB699:
 2804               	.LM273:
 2805 0e14 842F      		mov r24,r20
 2806 0e16 0E94 0000 		call Timebase_UpCounter_SS_Reset
 2807               	.LVL179:
 2808 0e1a 81E0      		ldi r24,lo8(1)
 2809               	.LBE699:
 2810               	.LBE698:
 2811               	.LM274:
 2812 0e1c 0895      		ret
 2813               	.LFE46:
 2815               	.global	Timebase_UpCounter_SS_Set_Period_Value_Securely
 2817               	Timebase_UpCounter_SS_Set_Period_Value_Securely:
 2818               	.LFB47:
 2819               	.LM275:
 2820               	.LVL180:
 2821               	/* prologue: function */
 2822               	/* frame size = 0 */
 2823               	.LBB700:
 2824               	.LBB701:
 2825               	.LM276:
 2826 0e1e E091 0000 		lds r30,Timebase
 2827 0e22 F091 0000 		lds r31,(Timebase)+1
 2828 0e26 90E0      		ldi r25,lo8(0)
 2829               	.LBE701:
 2830               	.LBE700:
 2831               	.LM277:
 2832 0e28 29E1      		ldi r18,lo8(25)
 2833 0e2a 30E0      		ldi r19,hi8(25)
 2834 0e2c DC01      		movw r26,r24
 2835               	.LVL181:
 2836 0e2e A29F      		mul r26,r18
 2837 0e30 C001      		movw r24,r0
 2838 0e32 A39F      		mul r26,r19
 2839 0e34 900D      		add r25,r0
 2840 0e36 B29F      		mul r27,r18
 2841 0e38 900D      		add r25,r0
 2842 0e3a 1124      		clr r1
 2843 0e3c E80F      		add r30,r24
 2844 0e3e F91F      		adc r31,r25
 2845 0e40 8589      		ldd r24,Z+21
 2846 0e42 80FD      		sbrc r24,0
 2847 0e44 00C0      		rjmp .L119
 2848               	.LBB702:
 2849               	.LBB703:
 2850               	.LM278:
 2851 0e46 86A1      		ldd r24,Z+38
 2852 0e48 97A1      		ldd r25,Z+39
 2853 0e4a A0A5      		ldd r26,Z+40
 2854 0e4c B1A5      		ldd r27,Z+41
 2855 0e4e 840F      		add r24,r20
 2856 0e50 951F      		adc r25,r21
 2857 0e52 A61F      		adc r26,r22
 2858 0e54 B71F      		adc r27,r23
 2859 0e56 82A7      		std Z+42,r24
 2860 0e58 93A7      		std Z+43,r25
 2861 0e5a A4A7      		std Z+44,r26
 2862 0e5c B5A7      		std Z+45,r27
 2863               	.LBE703:
 2864               	.LBE702:
 2865               	.LBB704:
 2866               	.LBB705:
 2867               	.LM279:
 2868 0e5e 8589      		ldd r24,Z+21
 2869 0e60 8160      		ori r24,lo8(1)
 2870 0e62 858B      		std Z+21,r24
 2871               	.L119:
 2872 0e64 0895      		ret
 2873               	.LBE705:
 2874               	.LBE704:
 2875               	.LFE47:
 2877               	.global	Timebase_UpCounter_SS_Get_Remaining_Period_Value
 2879               	Timebase_UpCounter_SS_Get_Remaining_Period_Value:
 2880               	.LFB48:
 2881               	.LM280:
 2882               	.LVL182:
 2883               	/* prologue: function */
 2884               	/* frame size = 0 */
 2885               	.LBB706:
 2886               	.LBB707:
 2887               	.LM281:
 2888 0e66 E091 0000 		lds r30,Timebase
 2889 0e6a F091 0000 		lds r31,(Timebase)+1
 2890 0e6e 90E0      		ldi r25,lo8(0)
 2891 0e70 29E1      		ldi r18,lo8(25)
 2892 0e72 30E0      		ldi r19,hi8(25)
 2893 0e74 AC01      		movw r20,r24
 2894               	.LVL183:
 2895 0e76 429F      		mul r20,r18
 2896 0e78 C001      		movw r24,r0
 2897 0e7a 439F      		mul r20,r19
 2898 0e7c 900D      		add r25,r0
 2899 0e7e 529F      		mul r21,r18
 2900 0e80 900D      		add r25,r0
 2901 0e82 1124      		clr r1
 2902 0e84 E80F      		add r30,r24
 2903 0e86 F91F      		adc r31,r25
 2904 0e88 22A5      		ldd r18,Z+42
 2905 0e8a 33A5      		ldd r19,Z+43
 2906 0e8c 44A5      		ldd r20,Z+44
 2907 0e8e 55A5      		ldd r21,Z+45
 2908               	.LVL184:
 2909               	.LBE707:
 2910               	.LBE706:
 2911               	.LM282:
 2912 0e90 86A1      		ldd r24,Z+38
 2913 0e92 97A1      		ldd r25,Z+39
 2914 0e94 A0A5      		ldd r26,Z+40
 2915 0e96 B1A5      		ldd r27,Z+41
 2916 0e98 281B      		sub r18,r24
 2917 0e9a 390B      		sbc r19,r25
 2918 0e9c 4A0B      		sbc r20,r26
 2919 0e9e 5B0B      		sbc r21,r27
 2920 0ea0 57FF      		sbrs r21,7
 2921 0ea2 00C0      		rjmp .L121
 2922 0ea4 20E0      		ldi r18,lo8(0)
 2923 0ea6 30E0      		ldi r19,hi8(0)
 2924 0ea8 40E0      		ldi r20,hlo8(0)
 2925 0eaa 50E0      		ldi r21,hhi8(0)
 2926               	.L121:
 2927               	.LM283:
 2928 0eac B901      		movw r22,r18
 2929               	.LVL185:
 2930 0eae CA01      		movw r24,r20
 2931               	/* epilogue start */
 2932 0eb0 0895      		ret
 2933               	.LFE48:
 2935               	.global	Timebase_UpCounter_SS_Period_Value_Expired
 2937               	Timebase_UpCounter_SS_Period_Value_Expired:
 2938               	.LFB49:
 2939               	.LM284:
 2940               	.LVL186:
 2941 0eb2 CF93      		push r28
 2942 0eb4 DF93      		push r29
 2943               	/* prologue: function */
 2944               	/* frame size = 0 */
 2945               	.LBB708:
 2946               	.LBB709:
 2947               	.LBB710:
 2948               	.LBB711:
 2949               	.LM285:
 2950 0eb6 C091 0000 		lds r28,Timebase
 2951 0eba D091 0000 		lds r29,(Timebase)+1
 2952 0ebe 682F      		mov r22,r24
 2953 0ec0 70E0      		ldi r23,lo8(0)
 2954 0ec2 89E1      		ldi r24,lo8(25)
 2955 0ec4 90E0      		ldi r25,hi8(25)
 2956               	.LVL187:
 2957 0ec6 689F      		mul r22,r24
 2958 0ec8 F001      		movw r30,r0
 2959 0eca 699F      		mul r22,r25
 2960 0ecc F00D      		add r31,r0
 2961 0ece 789F      		mul r23,r24
 2962 0ed0 F00D      		add r31,r0
 2963 0ed2 1124      		clr r1
 2964 0ed4 EC0F      		add r30,r28
 2965 0ed6 FD1F      		adc r31,r29
 2966 0ed8 22A5      		ldd r18,Z+42
 2967 0eda 33A5      		ldd r19,Z+43
 2968 0edc 44A5      		ldd r20,Z+44
 2969 0ede 55A5      		ldd r21,Z+45
 2970               	.LVL188:
 2971               	.LBE711:
 2972               	.LBE710:
 2973               	.LM286:
 2974 0ee0 86A1      		ldd r24,Z+38
 2975 0ee2 97A1      		ldd r25,Z+39
 2976 0ee4 A0A5      		ldd r26,Z+40
 2977 0ee6 B1A5      		ldd r27,Z+41
 2978 0ee8 281B      		sub r18,r24
 2979 0eea 390B      		sbc r19,r25
 2980 0eec 4A0B      		sbc r20,r26
 2981 0eee 5B0B      		sbc r21,r27
 2982               	.LM287:
 2983 0ef0 57FD      		sbrc r21,7
 2984 0ef2 00C0      		rjmp .L124
 2985               	.LBE709:
 2986               	.LBE708:
 2987               	.LM288:
 2988 0ef4 2115      		cp r18,__zero_reg__
 2989 0ef6 3105      		cpc r19,__zero_reg__
 2990 0ef8 4105      		cpc r20,__zero_reg__
 2991 0efa 5105      		cpc r21,__zero_reg__
 2992 0efc 01F0      		breq .L124
 2993 0efe 20E0      		ldi r18,lo8(0)
 2994               	.LVL189:
 2995 0f00 00C0      		rjmp .L125
 2996               	.LVL190:
 2997               	.L124:
 2998 0f02 20E0      		ldi r18,lo8(0)
 2999               	.LVL191:
 3000 0f04 89E1      		ldi r24,lo8(25)
 3001 0f06 90E0      		ldi r25,hi8(25)
 3002 0f08 AC01      		movw r20,r24
 3003 0f0a 649F      		mul r22,r20
 3004 0f0c C001      		movw r24,r0
 3005 0f0e 659F      		mul r22,r21
 3006 0f10 900D      		add r25,r0
 3007 0f12 749F      		mul r23,r20
 3008 0f14 900D      		add r25,r0
 3009 0f16 1124      		clr r1
 3010 0f18 C80F      		add r28,r24
 3011 0f1a D91F      		adc r29,r25
 3012 0f1c 8D89      		ldd r24,Y+21
 3013 0f1e 80FF      		sbrs r24,0
 3014 0f20 21E0      		ldi r18,lo8(1)
 3015               	.L126:
 3016 0f22 81E0      		ldi r24,lo8(1)
 3017 0f24 2827      		eor r18,r24
 3018               	.L125:
 3019               	.LM289:
 3020 0f26 822F      		mov r24,r18
 3021               	/* epilogue start */
 3022 0f28 DF91      		pop r29
 3023 0f2a CF91      		pop r28
 3024 0f2c 0895      		ret
 3025               	.LFE49:
 3027               	.global	Timebase_UpCounter_SS_Period_Value_Expired_Event
 3029               	Timebase_UpCounter_SS_Period_Value_Expired_Event:
 3030               	.LFB50:
 3031               	.LM290:
 3032               	.LVL192:
 3033 0f2e 1F93      		push r17
 3034               	/* prologue: function */
 3035               	/* frame size = 0 */
 3036 0f30 182F      		mov r17,r24
 3037               	.LM291:
 3038 0f32 0E94 0000 		call Timebase_UpCounter_SS_Period_Value_Expired
 3039               	.LVL193:
 3040 0f36 8130      		cpi r24,lo8(1)
 3041 0f38 01F0      		breq .L129
 3042 0f3a 80E0      		ldi r24,lo8(0)
 3043 0f3c 00C0      		rjmp .L130
 3044               	.L129:
 3045               	.LBB712:
 3046               	.LBB713:
 3047               	.LM292:
 3048 0f3e E091 0000 		lds r30,Timebase
 3049 0f42 F091 0000 		lds r31,(Timebase)+1
 3050 0f46 212F      		mov r18,r17
 3051 0f48 30E0      		ldi r19,lo8(0)
 3052               	.LVL194:
 3053 0f4a 89E1      		ldi r24,lo8(25)
 3054 0f4c 90E0      		ldi r25,hi8(25)
 3055 0f4e AC01      		movw r20,r24
 3056 0f50 249F      		mul r18,r20
 3057 0f52 C001      		movw r24,r0
 3058 0f54 259F      		mul r18,r21
 3059 0f56 900D      		add r25,r0
 3060 0f58 349F      		mul r19,r20
 3061 0f5a 900D      		add r25,r0
 3062 0f5c 1124      		clr r1
 3063 0f5e E80F      		add r30,r24
 3064 0f60 F91F      		adc r31,r25
 3065 0f62 8589      		ldd r24,Z+21
 3066 0f64 8E7F      		andi r24,lo8(-2)
 3067 0f66 858B      		std Z+21,r24
 3068 0f68 81E0      		ldi r24,lo8(1)
 3069               	.L130:
 3070               	/* epilogue start */
 3071               	.LBE713:
 3072               	.LBE712:
 3073               	.LM293:
 3074 0f6a 1F91      		pop r17
 3075               	.LVL195:
 3076 0f6c 0895      		ret
 3077               	.LFE50:
 3079               	.global	Timebase_UpCounter_SS_Update_All
 3081               	Timebase_UpCounter_SS_Update_All:
 3082               	.LFB51:
 3083               	.LM294:
 3084               	/* prologue: function */
 3085               	/* frame size = 0 */
 3086               	.LBB714:
 3087               	.LM295:
 3088 0f6e 80E0      		ldi r24,lo8(0)
 3089 0f70 0E94 0000 		call Timebase_UpCounter_SS_Update
 3090               	/* epilogue start */
 3091               	.LBE714:
 3092               	.LM296:
 3093 0f74 0895      		ret
 3094               	.LFE51:
 3096               	.global	Timebase_UpCounter_SS_Reset_All
 3098               	Timebase_UpCounter_SS_Reset_All:
 3099               	.LFB52:
 3100               	.LM297:
 3101               	/* prologue: function */
 3102               	/* frame size = 0 */
 3103               	.LBB715:
 3104               	.LM298:
 3105 0f76 80E0      		ldi r24,lo8(0)
 3106 0f78 0E94 0000 		call Timebase_UpCounter_SS_Reset
 3107               	/* epilogue start */
 3108               	.LBE715:
 3109               	.LM299:
 3110 0f7c 0895      		ret
 3111               	.LFE52:
 3113               	.global	Timebase_UpCounter_Get_Status
 3115               	Timebase_UpCounter_Get_Status:
 3116               	.LFB53:
 3117               	.LM300:
 3118               	.LVL196:
 3119               	/* prologue: function */
 3120               	/* frame size = 0 */
 3121               	.LM301:
 3122 0f7e E091 0000 		lds r30,Timebase
 3123 0f82 F091 0000 		lds r31,(Timebase)+1
 3124 0f86 90E0      		ldi r25,lo8(0)
 3125               	.LVL197:
 3126 0f88 25E1      		ldi r18,lo8(21)
 3127 0f8a 30E0      		ldi r19,hi8(21)
 3128 0f8c AC01      		movw r20,r24
 3129 0f8e 429F      		mul r20,r18
 3130 0f90 C001      		movw r24,r0
 3131 0f92 439F      		mul r20,r19
 3132 0f94 900D      		add r25,r0
 3133 0f96 529F      		mul r21,r18
 3134 0f98 900D      		add r25,r0
 3135 0f9a 1124      		clr r1
 3136               	.LVL198:
 3137 0f9c E80F      		add r30,r24
 3138 0f9e F91F      		adc r31,r25
 3139 0fa0 86A5      		ldd r24,Z+46
 3140 0fa2 8695      		lsr r24
 3141               	.LM302:
 3142 0fa4 8F70      		andi r24,lo8(15)
 3143               	/* epilogue start */
 3144 0fa6 0895      		ret
 3145               	.LFE53:
 3147               	.global	Timebase_UpCounter_Set_Status
 3149               	Timebase_UpCounter_Set_Status:
 3150               	.LFB54:
 3151               	.LM303:
 3152               	.LVL199:
 3153               	/* prologue: function */
 3154               	/* frame size = 0 */
 3155               	.LM304:
 3156 0fa8 E091 0000 		lds r30,Timebase
 3157 0fac F091 0000 		lds r31,(Timebase)+1
 3158 0fb0 90E0      		ldi r25,lo8(0)
 3159               	.LVL200:
 3160 0fb2 25E1      		ldi r18,lo8(21)
 3161 0fb4 30E0      		ldi r19,hi8(21)
 3162 0fb6 AC01      		movw r20,r24
 3163 0fb8 429F      		mul r20,r18
 3164 0fba C001      		movw r24,r0
 3165 0fbc 439F      		mul r20,r19
 3166 0fbe 900D      		add r25,r0
 3167 0fc0 529F      		mul r21,r18
 3168 0fc2 900D      		add r25,r0
 3169 0fc4 1124      		clr r1
 3170               	.LVL201:
 3171 0fc6 E80F      		add r30,r24
 3172 0fc8 F91F      		adc r31,r25
 3173 0fca 6F70      		andi r22,lo8(15)
 3174               	.LVL202:
 3175 0fcc 660F      		lsl r22
 3176 0fce 86A5      		ldd r24,Z+46
 3177 0fd0 817E      		andi r24,lo8(-31)
 3178 0fd2 862B      		or r24,r22
 3179 0fd4 86A7      		std Z+46,r24
 3180               	/* epilogue start */
 3181               	.LM305:
 3182 0fd6 0895      		ret
 3183               	.LFE54:
 3185               	.global	Timebase_UpCounter_Get_Value
 3187               	Timebase_UpCounter_Get_Value:
 3188               	.LFB55:
 3189               	.LM306:
 3190               	.LVL203:
 3191               	/* prologue: function */
 3192               	/* frame size = 0 */
 3193               	.LM307:
 3194 0fd8 E091 0000 		lds r30,Timebase
 3195 0fdc F091 0000 		lds r31,(Timebase)+1
 3196 0fe0 90E0      		ldi r25,lo8(0)
 3197               	.LVL204:
 3198 0fe2 25E1      		ldi r18,lo8(21)
 3199 0fe4 30E0      		ldi r19,hi8(21)
 3200 0fe6 AC01      		movw r20,r24
 3201 0fe8 429F      		mul r20,r18
 3202 0fea C001      		movw r24,r0
 3203 0fec 439F      		mul r20,r19
 3204 0fee 900D      		add r25,r0
 3205 0ff0 529F      		mul r21,r18
 3206 0ff2 900D      		add r25,r0
 3207 0ff4 1124      		clr r1
 3208               	.LVL205:
 3209 0ff6 E80F      		add r30,r24
 3210 0ff8 F91F      		adc r31,r25
 3211 0ffa DF01      		movw r26,r30
 3212 0ffc DB96      		adiw r26,59
 3213 0ffe 63AD      		ldd r22,Z+59
 3214 1000 1196      		adiw r26,1
 3215 1002 7C91      		ld r23,X
 3216 1004 1197      		sbiw r26,1
 3217               	.LM308:
 3218 1006 1296      		adiw r26,2
 3219 1008 8C91      		ld r24,X
 3220 100a 1297      		sbiw r26,2
 3221 100c 1396      		adiw r26,3
 3222 100e 9C91      		ld r25,X
 3223               	.LVL206:
 3224               	/* epilogue start */
 3225 1010 0895      		ret
 3226               	.LFE55:
 3228               	.global	Timebase_UpCounter_Set_Value
 3230               	Timebase_UpCounter_Set_Value:
 3231               	.LFB56:
 3232               	.LM309:
 3233               	.LVL207:
 3234 1012 CF93      		push r28
 3235 1014 DF93      		push r29
 3236               	/* prologue: function */
 3237               	/* frame size = 0 */
 3238               	.LM310:
 3239 1016 C091 0000 		lds r28,Timebase
 3240 101a D091 0000 		lds r29,(Timebase)+1
 3241 101e 90E0      		ldi r25,lo8(0)
 3242               	.LVL208:
 3243 1020 25E1      		ldi r18,lo8(21)
 3244 1022 30E0      		ldi r19,hi8(21)
 3245 1024 FC01      		movw r30,r24
 3246 1026 E29F      		mul r30,r18
 3247 1028 C001      		movw r24,r0
 3248 102a E39F      		mul r30,r19
 3249 102c 900D      		add r25,r0
 3250 102e F29F      		mul r31,r18
 3251 1030 900D      		add r25,r0
 3252 1032 1124      		clr r1
 3253               	.LVL209:
 3254 1034 C80F      		add r28,r24
 3255 1036 D91F      		adc r29,r25
 3256 1038 CA01      		movw r24,r20
 3257               	.LVL210:
 3258 103a DB01      		movw r26,r22
 3259 103c B7FF      		sbrs r27,7
 3260 103e 00C0      		rjmp .L143
 3261               	.LVL211:
 3262 1040 80E0      		ldi r24,lo8(0)
 3263 1042 90E0      		ldi r25,hi8(0)
 3264 1044 A0E0      		ldi r26,hlo8(0)
 3265 1046 B0E0      		ldi r27,hhi8(0)
 3266               	.L143:
 3267 1048 8BAF      		std Y+59,r24
 3268 104a 9CAF      		std Y+60,r25
 3269 104c ADAF      		std Y+61,r26
 3270 104e BEAF      		std Y+62,r27
 3271               	/* epilogue start */
 3272               	.LM311:
 3273 1050 DF91      		pop r29
 3274 1052 CF91      		pop r28
 3275 1054 0895      		ret
 3276               	.LFE56:
 3278               	.global	Timebase_UpCounter_Get_EndValueSec
 3280               	Timebase_UpCounter_Get_EndValueSec:
 3281               	.LFB57:
 3282               	.LM312:
 3283               	.LVL212:
 3284               	/* prologue: function */
 3285               	/* frame size = 0 */
 3286               	.LM313:
 3287 1056 E091 0000 		lds r30,Timebase
 3288 105a F091 0000 		lds r31,(Timebase)+1
 3289 105e 90E0      		ldi r25,lo8(0)
 3290               	.LVL213:
 3291 1060 25E1      		ldi r18,lo8(21)
 3292 1062 30E0      		ldi r19,hi8(21)
 3293 1064 AC01      		movw r20,r24
 3294 1066 429F      		mul r20,r18
 3295 1068 C001      		movw r24,r0
 3296 106a 439F      		mul r20,r19
 3297 106c 900D      		add r25,r0
 3298 106e 529F      		mul r21,r18
 3299 1070 900D      		add r25,r0
 3300 1072 1124      		clr r1
 3301               	.LVL214:
 3302 1074 E80F      		add r30,r24
 3303 1076 F91F      		adc r31,r25
 3304 1078 DF01      		movw r26,r30
 3305 107a 9F96      		adiw r26,47
 3306 107c 67A5      		ldd r22,Z+47
 3307 107e 1196      		adiw r26,1
 3308 1080 7C91      		ld r23,X
 3309 1082 1197      		sbiw r26,1
 3310               	.LM314:
 3311 1084 1296      		adiw r26,2
 3312 1086 8C91      		ld r24,X
 3313 1088 1297      		sbiw r26,2
 3314 108a 1396      		adiw r26,3
 3315 108c 9C91      		ld r25,X
 3316               	.LVL215:
 3317               	/* epilogue start */
 3318 108e 0895      		ret
 3319               	.LFE57:
 3321               	.global	Timebase_UpCounter_Get_EndValueSubSec
 3323               	Timebase_UpCounter_Get_EndValueSubSec:
 3324               	.LFB58:
 3325               	.LM315:
 3326               	.LVL216:
 3327               	/* prologue: function */
 3328               	/* frame size = 0 */
 3329               	.LM316:
 3330 1090 E091 0000 		lds r30,Timebase
 3331 1094 F091 0000 		lds r31,(Timebase)+1
 3332 1098 90E0      		ldi r25,lo8(0)
 3333               	.LVL217:
 3334 109a 25E1      		ldi r18,lo8(21)
 3335 109c 30E0      		ldi r19,hi8(21)
 3336 109e AC01      		movw r20,r24
 3337 10a0 429F      		mul r20,r18
 3338 10a2 C001      		movw r24,r0
 3339 10a4 439F      		mul r20,r19
 3340 10a6 900D      		add r25,r0
 3341 10a8 529F      		mul r21,r18
 3342 10aa 900D      		add r25,r0
 3343 10ac 1124      		clr r1
 3344               	.LVL218:
 3345 10ae E80F      		add r30,r24
 3346 10b0 F91F      		adc r31,r25
 3347 10b2 DF01      		movw r26,r30
 3348 10b4 9F96      		adiw r26,47
 3349 10b6 67A5      		ldd r22,Z+47
 3350 10b8 1196      		adiw r26,1
 3351 10ba 7C91      		ld r23,X
 3352 10bc 1197      		sbiw r26,1
 3353               	.LM317:
 3354 10be 1296      		adiw r26,2
 3355 10c0 8C91      		ld r24,X
 3356 10c2 1297      		sbiw r26,2
 3357 10c4 1396      		adiw r26,3
 3358 10c6 9C91      		ld r25,X
 3359               	.LVL219:
 3360               	/* epilogue start */
 3361 10c8 0895      		ret
 3362               	.LFE58:
 3364               	.global	Timebase_UpCounter_Set_EndValueSec
 3366               	Timebase_UpCounter_Set_EndValueSec:
 3367               	.LFB59:
 3368               	.LM318:
 3369               	.LVL220:
 3370               	/* prologue: function */
 3371               	/* frame size = 0 */
 3372               	.LM319:
 3373 10ca E091 0000 		lds r30,Timebase
 3374 10ce F091 0000 		lds r31,(Timebase)+1
 3375 10d2 90E0      		ldi r25,lo8(0)
 3376               	.LVL221:
 3377 10d4 25E1      		ldi r18,lo8(21)
 3378 10d6 30E0      		ldi r19,hi8(21)
 3379 10d8 DC01      		movw r26,r24
 3380 10da A29F      		mul r26,r18
 3381 10dc C001      		movw r24,r0
 3382 10de A39F      		mul r26,r19
 3383 10e0 900D      		add r25,r0
 3384 10e2 B29F      		mul r27,r18
 3385 10e4 900D      		add r25,r0
 3386 10e6 1124      		clr r1
 3387               	.LVL222:
 3388 10e8 E80F      		add r30,r24
 3389 10ea F91F      		adc r31,r25
 3390 10ec 47A7      		std Z+47,r20
 3391 10ee 50AB      		std Z+48,r21
 3392 10f0 61AB      		std Z+49,r22
 3393 10f2 72AB      		std Z+50,r23
 3394               	/* epilogue start */
 3395               	.LM320:
 3396 10f4 0895      		ret
 3397               	.LFE59:
 3399               	.global	Timebase_UpCounter_Set_EndValueSubSec
 3401               	Timebase_UpCounter_Set_EndValueSubSec:
 3402               	.LFB60:
 3403               	.LM321:
 3404               	.LVL223:
 3405               	/* prologue: function */
 3406               	/* frame size = 0 */
 3407               	.LM322:
 3408 10f6 E091 0000 		lds r30,Timebase
 3409 10fa F091 0000 		lds r31,(Timebase)+1
 3410 10fe 90E0      		ldi r25,lo8(0)
 3411               	.LVL224:
 3412 1100 25E1      		ldi r18,lo8(21)
 3413 1102 30E0      		ldi r19,hi8(21)
 3414 1104 DC01      		movw r26,r24
 3415 1106 A29F      		mul r26,r18
 3416 1108 C001      		movw r24,r0
 3417 110a A39F      		mul r26,r19
 3418 110c 900D      		add r25,r0
 3419 110e B29F      		mul r27,r18
 3420 1110 900D      		add r25,r0
 3421 1112 1124      		clr r1
 3422               	.LVL225:
 3423 1114 E80F      		add r30,r24
 3424 1116 F91F      		adc r31,r25
 3425 1118 47A7      		std Z+47,r20
 3426 111a 50AB      		std Z+48,r21
 3427 111c 61AB      		std Z+49,r22
 3428 111e 72AB      		std Z+50,r23
 3429               	/* epilogue start */
 3430               	.LM323:
 3431 1120 0895      		ret
 3432               	.LFE60:
 3434               	.global	Timebase_UpCounter_Get_TargetValue
 3436               	Timebase_UpCounter_Get_TargetValue:
 3437               	.LFB61:
 3438               	.LM324:
 3439               	.LVL226:
 3440               	/* prologue: function */
 3441               	/* frame size = 0 */
 3442               	.LM325:
 3443 1122 E091 0000 		lds r30,Timebase
 3444 1126 F091 0000 		lds r31,(Timebase)+1
 3445 112a 90E0      		ldi r25,lo8(0)
 3446               	.LVL227:
 3447 112c 25E1      		ldi r18,lo8(21)
 3448 112e 30E0      		ldi r19,hi8(21)
 3449 1130 AC01      		movw r20,r24
 3450 1132 429F      		mul r20,r18
 3451 1134 C001      		movw r24,r0
 3452 1136 439F      		mul r20,r19
 3453 1138 900D      		add r25,r0
 3454 113a 529F      		mul r21,r18
 3455 113c 900D      		add r25,r0
 3456 113e 1124      		clr r1
 3457               	.LVL228:
 3458 1140 E80F      		add r30,r24
 3459 1142 F91F      		adc r31,r25
 3460 1144 DF01      		movw r26,r30
 3461 1146 D396      		adiw r26,51
 3462 1148 63A9      		ldd r22,Z+51
 3463 114a 1196      		adiw r26,1
 3464 114c 7C91      		ld r23,X
 3465 114e 1197      		sbiw r26,1
 3466               	.LM326:
 3467 1150 1296      		adiw r26,2
 3468 1152 8C91      		ld r24,X
 3469 1154 1297      		sbiw r26,2
 3470 1156 1396      		adiw r26,3
 3471 1158 9C91      		ld r25,X
 3472               	.LVL229:
 3473               	/* epilogue start */
 3474 115a 0895      		ret
 3475               	.LFE61:
 3477               	.global	Timebase_UpCounter_Set_TargetValue
 3479               	Timebase_UpCounter_Set_TargetValue:
 3480               	.LFB62:
 3481               	.LM327:
 3482               	.LVL230:
 3483               	/* prologue: function */
 3484               	/* frame size = 0 */
 3485               	.LM328:
 3486 115c E091 0000 		lds r30,Timebase
 3487 1160 F091 0000 		lds r31,(Timebase)+1
 3488 1164 90E0      		ldi r25,lo8(0)
 3489               	.LVL231:
 3490 1166 25E1      		ldi r18,lo8(21)
 3491 1168 30E0      		ldi r19,hi8(21)
 3492 116a DC01      		movw r26,r24
 3493 116c A29F      		mul r26,r18
 3494 116e C001      		movw r24,r0
 3495 1170 A39F      		mul r26,r19
 3496 1172 900D      		add r25,r0
 3497 1174 B29F      		mul r27,r18
 3498 1176 900D      		add r25,r0
 3499 1178 1124      		clr r1
 3500               	.LVL232:
 3501 117a E80F      		add r30,r24
 3502 117c F91F      		adc r31,r25
 3503 117e 43AB      		std Z+51,r20
 3504 1180 54AB      		std Z+52,r21
 3505 1182 65AB      		std Z+53,r22
 3506 1184 76AB      		std Z+54,r23
 3507               	/* epilogue start */
 3508               	.LM329:
 3509 1186 0895      		ret
 3510               	.LFE62:
 3512               	.global	Timebase_UpCounter_Get_TemporaryValue
 3514               	Timebase_UpCounter_Get_TemporaryValue:
 3515               	.LFB63:
 3516               	.LM330:
 3517               	.LVL233:
 3518               	/* prologue: function */
 3519               	/* frame size = 0 */
 3520               	.LM331:
 3521 1188 E091 0000 		lds r30,Timebase
 3522 118c F091 0000 		lds r31,(Timebase)+1
 3523 1190 90E0      		ldi r25,lo8(0)
 3524               	.LVL234:
 3525 1192 25E1      		ldi r18,lo8(21)
 3526 1194 30E0      		ldi r19,hi8(21)
 3527 1196 AC01      		movw r20,r24
 3528 1198 429F      		mul r20,r18
 3529 119a C001      		movw r24,r0
 3530 119c 439F      		mul r20,r19
 3531 119e 900D      		add r25,r0
 3532 11a0 529F      		mul r21,r18
 3533 11a2 900D      		add r25,r0
 3534 11a4 1124      		clr r1
 3535               	.LVL235:
 3536 11a6 E80F      		add r30,r24
 3537 11a8 F91F      		adc r31,r25
 3538 11aa DF01      		movw r26,r30
 3539 11ac D796      		adiw r26,55
 3540 11ae 67A9      		ldd r22,Z+55
 3541 11b0 1196      		adiw r26,1
 3542 11b2 7C91      		ld r23,X
 3543 11b4 1197      		sbiw r26,1
 3544               	.LM332:
 3545 11b6 1296      		adiw r26,2
 3546 11b8 8C91      		ld r24,X
 3547 11ba 1297      		sbiw r26,2
 3548 11bc 1396      		adiw r26,3
 3549 11be 9C91      		ld r25,X
 3550               	.LVL236:
 3551               	/* epilogue start */
 3552 11c0 0895      		ret
 3553               	.LFE63:
 3555               	.global	Timebase_UpCounter_Set_TemporaryValue
 3557               	Timebase_UpCounter_Set_TemporaryValue:
 3558               	.LFB64:
 3559               	.LM333:
 3560               	.LVL237:
 3561 11c2 CF93      		push r28
 3562 11c4 DF93      		push r29
 3563               	/* prologue: function */
 3564               	/* frame size = 0 */
 3565               	.LM334:
 3566 11c6 C091 0000 		lds r28,Timebase
 3567 11ca D091 0000 		lds r29,(Timebase)+1
 3568 11ce 90E0      		ldi r25,lo8(0)
 3569               	.LVL238:
 3570 11d0 25E1      		ldi r18,lo8(21)
 3571 11d2 30E0      		ldi r19,hi8(21)
 3572 11d4 FC01      		movw r30,r24
 3573 11d6 E29F      		mul r30,r18
 3574 11d8 C001      		movw r24,r0
 3575 11da E39F      		mul r30,r19
 3576 11dc 900D      		add r25,r0
 3577 11de F29F      		mul r31,r18
 3578 11e0 900D      		add r25,r0
 3579 11e2 1124      		clr r1
 3580               	.LVL239:
 3581 11e4 C80F      		add r28,r24
 3582 11e6 D91F      		adc r29,r25
 3583 11e8 CA01      		movw r24,r20
 3584               	.LVL240:
 3585 11ea DB01      		movw r26,r22
 3586 11ec B7FF      		sbrs r27,7
 3587 11ee 00C0      		rjmp .L160
 3588               	.LVL241:
 3589 11f0 80E0      		ldi r24,lo8(0)
 3590 11f2 90E0      		ldi r25,hi8(0)
 3591 11f4 A0E0      		ldi r26,hlo8(0)
 3592 11f6 B0E0      		ldi r27,hhi8(0)
 3593               	.L160:
 3594 11f8 8FAB      		std Y+55,r24
 3595 11fa 98AF      		std Y+56,r25
 3596 11fc A9AF      		std Y+57,r26
 3597 11fe BAAF      		std Y+58,r27
 3598               	/* epilogue start */
 3599               	.LM335:
 3600 1200 DF91      		pop r29
 3601 1202 CF91      		pop r28
 3602 1204 0895      		ret
 3603               	.LFE64:
 3605               	.global	Timebase_UpCounter_Get_PeriodValue
 3607               	Timebase_UpCounter_Get_PeriodValue:
 3608               	.LFB65:
 3609               	.LM336:
 3610               	.LVL242:
 3611               	/* prologue: function */
 3612               	/* frame size = 0 */
 3613               	.LM337:
 3614 1206 E091 0000 		lds r30,Timebase
 3615 120a F091 0000 		lds r31,(Timebase)+1
 3616 120e 90E0      		ldi r25,lo8(0)
 3617               	.LVL243:
 3618 1210 25E1      		ldi r18,lo8(21)
 3619 1212 30E0      		ldi r19,hi8(21)
 3620 1214 AC01      		movw r20,r24
 3621 1216 429F      		mul r20,r18
 3622 1218 C001      		movw r24,r0
 3623 121a 439F      		mul r20,r19
 3624 121c 900D      		add r25,r0
 3625 121e 529F      		mul r21,r18
 3626 1220 900D      		add r25,r0
 3627 1222 1124      		clr r1
 3628               	.LVL244:
 3629 1224 E80F      		add r30,r24
 3630 1226 F91F      		adc r31,r25
 3631 1228 FF96      		adiw r30,63
 3632 122a 6081      		ld r22,Z
 3633 122c 7181      		ldd r23,Z+1
 3634               	.LM338:
 3635 122e 8281      		ldd r24,Z+2
 3636 1230 9381      		ldd r25,Z+3
 3637               	.LVL245:
 3638               	/* epilogue start */
 3639 1232 0895      		ret
 3640               	.LFE65:
 3642               	.global	Timebase_UpCounter_Set_PeriodValue
 3644               	Timebase_UpCounter_Set_PeriodValue:
 3645               	.LFB66:
 3646               	.LM339:
 3647               	.LVL246:
 3648               	/* prologue: function */
 3649               	/* frame size = 0 */
 3650               	.LM340:
 3651 1234 E091 0000 		lds r30,Timebase
 3652 1238 F091 0000 		lds r31,(Timebase)+1
 3653 123c 90E0      		ldi r25,lo8(0)
 3654               	.LVL247:
 3655 123e 25E1      		ldi r18,lo8(21)
 3656 1240 30E0      		ldi r19,hi8(21)
 3657 1242 DC01      		movw r26,r24
 3658 1244 A29F      		mul r26,r18
 3659 1246 C001      		movw r24,r0
 3660 1248 A39F      		mul r26,r19
 3661 124a 900D      		add r25,r0
 3662 124c B29F      		mul r27,r18
 3663 124e 900D      		add r25,r0
 3664 1250 1124      		clr r1
 3665               	.LVL248:
 3666 1252 E80F      		add r30,r24
 3667 1254 F91F      		adc r31,r25
 3668 1256 FF96      		adiw r30,63
 3669 1258 4083      		st Z,r20
 3670 125a 5183      		std Z+1,r21
 3671 125c 6283      		std Z+2,r22
 3672 125e 7383      		std Z+3,r23
 3673               	/* epilogue start */
 3674               	.LM341:
 3675 1260 0895      		ret
 3676               	.LFE66:
 3678               	.global	Timebase_UpCounter_Get_Period_Flag
 3680               	Timebase_UpCounter_Get_Period_Flag:
 3681               	.LFB67:
 3682               	.LM342:
 3683               	.LVL249:
 3684               	/* prologue: function */
 3685               	/* frame size = 0 */
 3686               	.LM343:
 3687 1262 E091 0000 		lds r30,Timebase
 3688 1266 F091 0000 		lds r31,(Timebase)+1
 3689 126a 90E0      		ldi r25,lo8(0)
 3690               	.LVL250:
 3691 126c 25E1      		ldi r18,lo8(21)
 3692 126e 30E0      		ldi r19,hi8(21)
 3693 1270 AC01      		movw r20,r24
 3694 1272 429F      		mul r20,r18
 3695 1274 C001      		movw r24,r0
 3696 1276 439F      		mul r20,r19
 3697 1278 900D      		add r25,r0
 3698 127a 529F      		mul r21,r18
 3699 127c 900D      		add r25,r0
 3700 127e 1124      		clr r1
 3701               	.LVL251:
 3702 1280 E80F      		add r30,r24
 3703 1282 F91F      		adc r31,r25
 3704 1284 86A5      		ldd r24,Z+46
 3705               	.LM344:
 3706 1286 8170      		andi r24,lo8(1)
 3707               	/* epilogue start */
 3708 1288 0895      		ret
 3709               	.LFE67:
 3711               	.global	Timebase_UpCounter_Set_Period_Flag
 3713               	Timebase_UpCounter_Set_Period_Flag:
 3714               	.LFB68:
 3715               	.LM345:
 3716               	.LVL252:
 3717               	/* prologue: function */
 3718               	/* frame size = 0 */
 3719               	.LM346:
 3720 128a E091 0000 		lds r30,Timebase
 3721 128e F091 0000 		lds r31,(Timebase)+1
 3722 1292 90E0      		ldi r25,lo8(0)
 3723               	.LVL253:
 3724 1294 25E1      		ldi r18,lo8(21)
 3725 1296 30E0      		ldi r19,hi8(21)
 3726 1298 AC01      		movw r20,r24
 3727 129a 429F      		mul r20,r18
 3728 129c C001      		movw r24,r0
 3729 129e 439F      		mul r20,r19
 3730 12a0 900D      		add r25,r0
 3731 12a2 529F      		mul r21,r18
 3732 12a4 900D      		add r25,r0
 3733 12a6 1124      		clr r1
 3734               	.LVL254:
 3735 12a8 E80F      		add r30,r24
 3736 12aa F91F      		adc r31,r25
 3737 12ac 86A5      		ldd r24,Z+46
 3738 12ae 8160      		ori r24,lo8(1)
 3739 12b0 86A7      		std Z+46,r24
 3740               	/* epilogue start */
 3741               	.LM347:
 3742 12b2 0895      		ret
 3743               	.LFE68:
 3745               	.global	Timebase_UpCounter_Clear_Period_Flag
 3747               	Timebase_UpCounter_Clear_Period_Flag:
 3748               	.LFB69:
 3749               	.LM348:
 3750               	.LVL255:
 3751               	/* prologue: function */
 3752               	/* frame size = 0 */
 3753               	.LM349:
 3754 12b4 E091 0000 		lds r30,Timebase
 3755 12b8 F091 0000 		lds r31,(Timebase)+1
 3756 12bc 90E0      		ldi r25,lo8(0)
 3757               	.LVL256:
 3758 12be 25E1      		ldi r18,lo8(21)
 3759 12c0 30E0      		ldi r19,hi8(21)
 3760 12c2 AC01      		movw r20,r24
 3761 12c4 429F      		mul r20,r18
 3762 12c6 C001      		movw r24,r0
 3763 12c8 439F      		mul r20,r19
 3764 12ca 900D      		add r25,r0
 3765 12cc 529F      		mul r21,r18
 3766 12ce 900D      		add r25,r0
 3767 12d0 1124      		clr r1
 3768               	.LVL257:
 3769 12d2 E80F      		add r30,r24
 3770 12d4 F91F      		adc r31,r25
 3771 12d6 86A5      		ldd r24,Z+46
 3772 12d8 8E7F      		andi r24,lo8(-2)
 3773 12da 86A7      		std Z+46,r24
 3774               	/* epilogue start */
 3775               	.LM350:
 3776 12dc 0895      		ret
 3777               	.LFE69:
 3779               	.global	Timebase_UpCounter_Reset
 3781               	Timebase_UpCounter_Reset:
 3782               	.LFB70:
 3783               	.LM351:
 3784               	.LVL258:
 3785               	/* prologue: function */
 3786               	/* frame size = 0 */
 3787               	.LBB716:
 3788               	.LBB717:
 3789               	.LM352:
 3790 12de E091 0000 		lds r30,Timebase
 3791 12e2 F091 0000 		lds r31,(Timebase)+1
 3792 12e6 90E0      		ldi r25,lo8(0)
 3793 12e8 25E1      		ldi r18,lo8(21)
 3794 12ea 30E0      		ldi r19,hi8(21)
 3795 12ec AC01      		movw r20,r24
 3796               	.LVL259:
 3797 12ee 429F      		mul r20,r18
 3798 12f0 C001      		movw r24,r0
 3799 12f2 439F      		mul r20,r19
 3800 12f4 900D      		add r25,r0
 3801 12f6 529F      		mul r21,r18
 3802 12f8 900D      		add r25,r0
 3803 12fa 1124      		clr r1
 3804 12fc E80F      		add r30,r24
 3805 12fe F91F      		adc r31,r25
 3806 1300 86A5      		ldd r24,Z+46
 3807               	.LBE717:
 3808               	.LBE716:
 3809               	.LBB718:
 3810               	.LBB719:
 3811               	.LM353:
 3812 1302 13AE      		std Z+59,__zero_reg__
 3813 1304 14AE      		std Z+60,__zero_reg__
 3814 1306 15AE      		std Z+61,__zero_reg__
 3815 1308 16AE      		std Z+62,__zero_reg__
 3816               	.LBE719:
 3817               	.LBE718:
 3818               	.LBB720:
 3819               	.LBB721:
 3820               	.LM354:
 3821 130a 17A6      		std Z+47,__zero_reg__
 3822 130c 10AA      		std Z+48,__zero_reg__
 3823 130e 11AA      		std Z+49,__zero_reg__
 3824 1310 12AA      		std Z+50,__zero_reg__
 3825               	.LBE721:
 3826               	.LBE720:
 3827               	.LBB722:
 3828               	.LBB723:
 3829               	.LM355:
 3830 1312 13AA      		std Z+51,__zero_reg__
 3831 1314 14AA      		std Z+52,__zero_reg__
 3832 1316 15AA      		std Z+53,__zero_reg__
 3833 1318 16AA      		std Z+54,__zero_reg__
 3834               	.LBE723:
 3835               	.LBE722:
 3836               	.LBB724:
 3837               	.LBB725:
 3838               	.LM356:
 3839 131a 17AA      		std Z+55,__zero_reg__
 3840 131c 10AE      		std Z+56,__zero_reg__
 3841 131e 11AE      		std Z+57,__zero_reg__
 3842 1320 12AE      		std Z+58,__zero_reg__
 3843               	.LBE725:
 3844               	.LBE724:
 3845               	.LBB726:
 3846               	.LBB727:
 3847               	.LM357:
 3848 1322 FF96      		adiw r30,63
 3849 1324 1082      		st Z,__zero_reg__
 3850 1326 1182      		std Z+1,__zero_reg__
 3851 1328 1282      		std Z+2,__zero_reg__
 3852 132a 1382      		std Z+3,__zero_reg__
 3853 132c FF97      		sbiw r30,63
 3854               	.LBE727:
 3855               	.LBE726:
 3856               	.LBB728:
 3857               	.LBB729:
 3858               	.LM358:
 3859 132e 807E      		andi r24,lo8(-32)
 3860 1330 86A7      		std Z+46,r24
 3861               	/* epilogue start */
 3862               	.LBE729:
 3863               	.LBE728:
 3864               	.LM359:
 3865 1332 0895      		ret
 3866               	.LFE70:
 3868               	.global	Timebase_UpCounter_Clear_All_Flags
 3870               	Timebase_UpCounter_Clear_All_Flags:
 3871               	.LFB71:
 3872               	.LM360:
 3873               	.LVL260:
 3874               	/* prologue: function */
 3875               	/* frame size = 0 */
 3876               	.LM361:
 3877 1334 0E94 0000 		call Timebase_UpCounter_Reset
 3878               	.LVL261:
 3879               	/* epilogue start */
 3880               	.LM362:
 3881 1338 0895      		ret
 3882               	.LFE71:
 3884               	.global	Timebase_UpCounter_Start
 3886               	Timebase_UpCounter_Start:
 3887               	.LFB72:
 3888               	.LM363:
 3889               	.LVL262:
 3890               	/* prologue: function */
 3891               	/* frame size = 0 */
 3892               	.LBB730:
 3893               	.LBB731:
 3894               	.LM364:
 3895 133a E091 0000 		lds r30,Timebase
 3896 133e F091 0000 		lds r31,(Timebase)+1
 3897 1342 90E0      		ldi r25,lo8(0)
 3898               	.LBE731:
 3899               	.LBE730:
 3900               	.LM365:
 3901 1344 25E1      		ldi r18,lo8(21)
 3902 1346 30E0      		ldi r19,hi8(21)
 3903 1348 AC01      		movw r20,r24
 3904               	.LVL263:
 3905 134a 429F      		mul r20,r18
 3906 134c C001      		movw r24,r0
 3907 134e 439F      		mul r20,r19
 3908 1350 900D      		add r25,r0
 3909 1352 529F      		mul r21,r18
 3910 1354 900D      		add r25,r0
 3911 1356 1124      		clr r1
 3912 1358 E80F      		add r30,r24
 3913 135a F91F      		adc r31,r25
 3914 135c 96A5      		ldd r25,Z+46
 3915 135e 892F      		mov r24,r25
 3916 1360 8695      		lsr r24
 3917 1362 8F70      		andi r24,lo8(15)
 3918 1364 8130      		cpi r24,lo8(1)
 3919 1366 01F0      		breq .L178
 3920               	.LBB732:
 3921               	.LBB733:
 3922               	.LM366:
 3923 1368 917E      		andi r25,lo8(-31)
 3924 136a 9260      		ori r25,lo8(2)
 3925 136c 96A7      		std Z+46,r25
 3926               	.L178:
 3927 136e 0895      		ret
 3928               	.LBE733:
 3929               	.LBE732:
 3930               	.LFE72:
 3932               	.global	Timebase_UpCounter_Stop
 3934               	Timebase_UpCounter_Stop:
 3935               	.LFB73:
 3936               	.LM367:
 3937               	.LVL264:
 3938               	/* prologue: function */
 3939               	/* frame size = 0 */
 3940               	.LBB734:
 3941               	.LBB735:
 3942               	.LM368:
 3943 1370 E091 0000 		lds r30,Timebase
 3944 1374 F091 0000 		lds r31,(Timebase)+1
 3945 1378 90E0      		ldi r25,lo8(0)
 3946               	.LBE735:
 3947               	.LBE734:
 3948               	.LM369:
 3949 137a 25E1      		ldi r18,lo8(21)
 3950 137c 30E0      		ldi r19,hi8(21)
 3951 137e AC01      		movw r20,r24
 3952               	.LVL265:
 3953 1380 429F      		mul r20,r18
 3954 1382 C001      		movw r24,r0
 3955 1384 439F      		mul r20,r19
 3956 1386 900D      		add r25,r0
 3957 1388 529F      		mul r21,r18
 3958 138a 900D      		add r25,r0
 3959 138c 1124      		clr r1
 3960 138e E80F      		add r30,r24
 3961 1390 F91F      		adc r31,r25
 3962 1392 96A5      		ldd r25,Z+46
 3963 1394 892F      		mov r24,r25
 3964 1396 8695      		lsr r24
 3965 1398 8F70      		andi r24,lo8(15)
 3966 139a 8230      		cpi r24,lo8(2)
 3967 139c 01F0      		breq .L181
 3968               	.LBB736:
 3969               	.LBB737:
 3970               	.LM370:
 3971 139e 917E      		andi r25,lo8(-31)
 3972 13a0 9460      		ori r25,lo8(4)
 3973 13a2 96A7      		std Z+46,r25
 3974               	.L181:
 3975 13a4 0895      		ret
 3976               	.LBE737:
 3977               	.LBE736:
 3978               	.LFE73:
 3980               	.global	Timebase_UpCounter_Set_Securely
 3982               	Timebase_UpCounter_Set_Securely:
 3983               	.LFB74:
 3984               	.LM371:
 3985               	.LVL266:
 3986               	/* prologue: function */
 3987               	/* frame size = 0 */
 3988               	.LBB738:
 3989               	.LBB739:
 3990               	.LM372:
 3991 13a6 A091 0000 		lds r26,Timebase
 3992 13aa B091 0000 		lds r27,(Timebase)+1
 3993 13ae 90E0      		ldi r25,lo8(0)
 3994               	.LBE739:
 3995               	.LBE738:
 3996               	.LM373:
 3997 13b0 25E1      		ldi r18,lo8(21)
 3998 13b2 30E0      		ldi r19,hi8(21)
 3999 13b4 829F      		mul r24,r18
 4000 13b6 F001      		movw r30,r0
 4001 13b8 839F      		mul r24,r19
 4002 13ba F00D      		add r31,r0
 4003 13bc 929F      		mul r25,r18
 4004 13be F00D      		add r31,r0
 4005 13c0 1124      		clr r1
 4006               	.LVL267:
 4007 13c2 EA0F      		add r30,r26
 4008 13c4 FB1F      		adc r31,r27
 4009 13c6 86A5      		ldd r24,Z+46
 4010 13c8 8695      		lsr r24
 4011 13ca 8F70      		andi r24,lo8(15)
 4012 13cc 01F4      		brne .L184
 4013               	.LBB740:
 4014               	.LBB741:
 4015               	.LM374:
 4016 13ce 13AE      		std Z+59,__zero_reg__
 4017 13d0 14AE      		std Z+60,__zero_reg__
 4018 13d2 15AE      		std Z+61,__zero_reg__
 4019 13d4 16AE      		std Z+62,__zero_reg__
 4020               	.LBE741:
 4021               	.LBE740:
 4022               	.LBB742:
 4023               	.LBB743:
 4024               	.LM375:
 4025 13d6 17AA      		std Z+55,__zero_reg__
 4026 13d8 10AE      		std Z+56,__zero_reg__
 4027 13da 11AE      		std Z+57,__zero_reg__
 4028 13dc 12AE      		std Z+58,__zero_reg__
 4029               	.LBE743:
 4030               	.LBE742:
 4031               	.LBB744:
 4032               	.LBB745:
 4033               	.LM376:
 4034 13de 43AB      		std Z+51,r20
 4035 13e0 54AB      		std Z+52,r21
 4036 13e2 65AB      		std Z+53,r22
 4037 13e4 76AB      		std Z+54,r23
 4038               	.LBE745:
 4039               	.LBE744:
 4040               	.LBB746:
 4041               	.LBB747:
 4042               	.LM377:
 4043 13e6 1996      		adiw r26,9
 4044 13e8 8D91      		ld r24,X+
 4045 13ea 9D91      		ld r25,X+
 4046 13ec 0D90      		ld __tmp_reg__,X+
 4047 13ee BC91      		ld r27,X
 4048 13f0 A02D      		mov r26,__tmp_reg__
 4049               	.LVL268:
 4050               	.LBE747:
 4051               	.LBE746:
 4052               	.LBB748:
 4053               	.LBB749:
 4054               	.LM378:
 4055 13f2 840F      		add r24,r20
 4056 13f4 951F      		adc r25,r21
 4057 13f6 A61F      		adc r26,r22
 4058 13f8 B71F      		adc r27,r23
 4059 13fa 87A7      		std Z+47,r24
 4060 13fc 90AB      		std Z+48,r25
 4061 13fe A1AB      		std Z+49,r26
 4062 1400 B2AB      		std Z+50,r27
 4063               	.LBE749:
 4064               	.LBE748:
 4065               	.LBB750:
 4066               	.LBB751:
 4067               	.LM379:
 4068 1402 96A5      		ldd r25,Z+46
 4069 1404 892F      		mov r24,r25
 4070               	.LVL269:
 4071 1406 8695      		lsr r24
 4072 1408 8F70      		andi r24,lo8(15)
 4073 140a 8130      		cpi r24,lo8(1)
 4074 140c 01F0      		breq .L184
 4075               	.LBB752:
 4076               	.LBB753:
 4077               	.LM380:
 4078 140e 917E      		andi r25,lo8(-31)
 4079 1410 9260      		ori r25,lo8(2)
 4080 1412 96A7      		std Z+46,r25
 4081               	.L184:
 4082 1414 0895      		ret
 4083               	.LBE753:
 4084               	.LBE752:
 4085               	.LBE751:
 4086               	.LBE750:
 4087               	.LFE74:
 4089               	.global	Timebase_UpCounter_Set_Forcefully
 4091               	Timebase_UpCounter_Set_Forcefully:
 4092               	.LFB75:
 4093               	.LM381:
 4094               	.LVL270:
 4095 1416 DF92      		push r13
 4096 1418 EF92      		push r14
 4097 141a FF92      		push r15
 4098 141c 0F93      		push r16
 4099 141e 1F93      		push r17
 4100               	/* prologue: function */
 4101               	/* frame size = 0 */
 4102 1420 D82E      		mov r13,r24
 4103 1422 7A01      		movw r14,r20
 4104 1424 8B01      		movw r16,r22
 4105               	.LM382:
 4106 1426 0E94 0000 		call Timebase_UpCounter_Reset
 4107               	.LVL271:
 4108               	.LM383:
 4109 142a 8D2D      		mov r24,r13
 4110 142c B801      		movw r22,r16
 4111 142e A701      		movw r20,r14
 4112 1430 0E94 0000 		call Timebase_UpCounter_Set_Securely
 4113               	/* epilogue start */
 4114               	.LM384:
 4115 1434 1F91      		pop r17
 4116 1436 0F91      		pop r16
 4117 1438 FF90      		pop r15
 4118 143a EF90      		pop r14
 4119               	.LVL272:
 4120 143c DF90      		pop r13
 4121               	.LVL273:
 4122 143e 0895      		ret
 4123               	.LFE75:
 4125               	.global	Timebase_UpCounter_Update
 4127               	Timebase_UpCounter_Update:
 4128               	.LFB76:
 4129               	.LM385:
 4130               	.LVL274:
 4131 1440 0F93      		push r16
 4132 1442 1F93      		push r17
 4133 1444 CF93      		push r28
 4134 1446 DF93      		push r29
 4135               	/* prologue: function */
 4136               	/* frame size = 0 */
 4137               	.LBB754:
 4138               	.LBB755:
 4139               	.LM386:
 4140 1448 6091 0000 		lds r22,Timebase
 4141 144c 7091 0000 		lds r23,(Timebase)+1
 4142 1450 082F      		mov r16,r24
 4143 1452 10E0      		ldi r17,lo8(0)
 4144 1454 85E1      		ldi r24,lo8(21)
 4145 1456 90E0      		ldi r25,hi8(21)
 4146               	.LVL275:
 4147 1458 089F      		mul r16,r24
 4148 145a F001      		movw r30,r0
 4149 145c 099F      		mul r16,r25
 4150 145e F00D      		add r31,r0
 4151 1460 189F      		mul r17,r24
 4152 1462 F00D      		add r31,r0
 4153 1464 1124      		clr r1
 4154 1466 E60F      		add r30,r22
 4155 1468 F71F      		adc r31,r23
 4156 146a 86A5      		ldd r24,Z+46
 4157 146c 8695      		lsr r24
 4158 146e 8F70      		andi r24,lo8(15)
 4159               	.LBE755:
 4160               	.LBE754:
 4161               	.LM387:
 4162 1470 8130      		cpi r24,lo8(1)
 4163 1472 01F0      		breq .+2
 4164 1474 00C0      		rjmp .L188
 4165               	.LBB756:
 4166               	.LBB757:
 4167               	.LM388:
 4168 1476 EB01      		movw r28,r22
 4169 1478 8985      		ldd r24,Y+9
 4170 147a 9A85      		ldd r25,Y+10
 4171 147c AB85      		ldd r26,Y+11
 4172 147e BC85      		ldd r27,Y+12
 4173               	.LVL276:
 4174               	.LBE757:
 4175               	.LBE756:
 4176               	.LM389:
 4177 1480 27A5      		ldd r18,Z+47
 4178 1482 30A9      		ldd r19,Z+48
 4179 1484 41A9      		ldd r20,Z+49
 4180 1486 52A9      		ldd r21,Z+50
 4181               	.LVL277:
 4182 1488 281B      		sub r18,r24
 4183 148a 390B      		sbc r19,r25
 4184 148c 4A0B      		sbc r20,r26
 4185 148e 5B0B      		sbc r21,r27
 4186 1490 57FF      		sbrs r21,7
 4187 1492 00C0      		rjmp .L189
 4188 1494 20E0      		ldi r18,lo8(0)
 4189 1496 30E0      		ldi r19,hi8(0)
 4190 1498 40E0      		ldi r20,hlo8(0)
 4191 149a 50E0      		ldi r21,hhi8(0)
 4192               	.L189:
 4193               	.LBB758:
 4194               	.LBB759:
 4195               	.LM390:
 4196 149c 85E1      		ldi r24,lo8(21)
 4197 149e 90E0      		ldi r25,hi8(21)
 4198               	.LVL278:
 4199 14a0 089F      		mul r16,r24
 4200 14a2 F001      		movw r30,r0
 4201 14a4 099F      		mul r16,r25
 4202 14a6 F00D      		add r31,r0
 4203 14a8 189F      		mul r17,r24
 4204 14aa F00D      		add r31,r0
 4205 14ac 1124      		clr r1
 4206 14ae E60F      		add r30,r22
 4207 14b0 F71F      		adc r31,r23
 4208 14b2 27AB      		std Z+55,r18
 4209 14b4 30AF      		std Z+56,r19
 4210 14b6 41AF      		std Z+57,r20
 4211 14b8 52AF      		std Z+58,r21
 4212               	.LBE759:
 4213               	.LBE758:
 4214               	.LM391:
 4215 14ba 83A9      		ldd r24,Z+51
 4216 14bc 94A9      		ldd r25,Z+52
 4217 14be A5A9      		ldd r26,Z+53
 4218 14c0 B6A9      		ldd r27,Z+54
 4219               	.LVL279:
 4220               	.LBB760:
 4221               	.LBB761:
 4222               	.LM392:
 4223 14c2 821B      		sub r24,r18
 4224 14c4 930B      		sbc r25,r19
 4225 14c6 A40B      		sbc r26,r20
 4226 14c8 B50B      		sbc r27,r21
 4227 14ca B7FF      		sbrs r27,7
 4228 14cc 00C0      		rjmp .L190
 4229 14ce 80E0      		ldi r24,lo8(0)
 4230 14d0 90E0      		ldi r25,hi8(0)
 4231 14d2 A0E0      		ldi r26,hlo8(0)
 4232 14d4 B0E0      		ldi r27,hhi8(0)
 4233               	.L190:
 4234 14d6 83AF      		std Z+59,r24
 4235 14d8 94AF      		std Z+60,r25
 4236 14da A5AF      		std Z+61,r26
 4237 14dc B6AF      		std Z+62,r27
 4238               	.LBE761:
 4239               	.LBE760:
 4240               	.LM393:
 4241 14de 85E1      		ldi r24,lo8(21)
 4242 14e0 90E0      		ldi r25,hi8(21)
 4243               	.LVL280:
 4244 14e2 089F      		mul r16,r24
 4245 14e4 E001      		movw r28,r0
 4246 14e6 099F      		mul r16,r25
 4247 14e8 D00D      		add r29,r0
 4248 14ea 189F      		mul r17,r24
 4249 14ec D00D      		add r29,r0
 4250 14ee 1124      		clr r1
 4251 14f0 C60F      		add r28,r22
 4252 14f2 D71F      		adc r29,r23
 4253 14f4 8FA9      		ldd r24,Y+55
 4254 14f6 98AD      		ldd r25,Y+56
 4255 14f8 A9AD      		ldd r26,Y+57
 4256 14fa BAAD      		ldd r27,Y+58
 4257 14fc 1816      		cp __zero_reg__,r24
 4258 14fe 1906      		cpc __zero_reg__,r25
 4259 1500 1A06      		cpc __zero_reg__,r26
 4260 1502 1B06      		cpc __zero_reg__,r27
 4261 1504 04F4      		brge .+2
 4262 1506 00C0      		rjmp .L194
 4263               	.LBB762:
 4264               	.LBB763:
 4265               	.LM394:
 4266 1508 1FA6      		std Y+47,__zero_reg__
 4267 150a 18AA      		std Y+48,__zero_reg__
 4268 150c 19AA      		std Y+49,__zero_reg__
 4269 150e 1AAA      		std Y+50,__zero_reg__
 4270               	.LBE763:
 4271               	.LBE762:
 4272               	.LBB764:
 4273               	.LBB765:
 4274               	.LM395:
 4275 1510 1FAA      		std Y+55,__zero_reg__
 4276 1512 18AE      		std Y+56,__zero_reg__
 4277 1514 19AE      		std Y+57,__zero_reg__
 4278 1516 1AAE      		std Y+58,__zero_reg__
 4279               	.LBE765:
 4280               	.LBE764:
 4281               	.LBB766:
 4282               	.LBB767:
 4283               	.LM396:
 4284 1518 FE01      		movw r30,r28
 4285 151a F396      		adiw r30,51
 4286               	.LBE767:
 4287               	.LBE766:
 4288               	.LBB768:
 4289               	.LBB769:
 4290               	.LM397:
 4291 151c 2BA9      		ldd r18,Y+51
 4292               	.LVL281:
 4293 151e 3181      		ldd r19,Z+1
 4294               	.LVL282:
 4295 1520 4281      		ldd r20,Z+2
 4296               	.LVL283:
 4297 1522 5381      		ldd r21,Z+3
 4298               	.LVL284:
 4299 1524 C901      		movw r24,r18
 4300               	.LVL285:
 4301 1526 DA01      		movw r26,r20
 4302               	.LVL286:
 4303 1528 B7FF      		sbrs r27,7
 4304 152a 00C0      		rjmp .L192
 4305               	.LVL287:
 4306 152c 80E0      		ldi r24,lo8(0)
 4307 152e 90E0      		ldi r25,hi8(0)
 4308 1530 A0E0      		ldi r26,hlo8(0)
 4309 1532 B0E0      		ldi r27,hhi8(0)
 4310               	.L192:
 4311 1534 8BAF      		std Y+59,r24
 4312 1536 9CAF      		std Y+60,r25
 4313 1538 ADAF      		std Y+61,r26
 4314 153a BEAF      		std Y+62,r27
 4315               	.LBE769:
 4316               	.LBE768:
 4317               	.LBB770:
 4318               	.LBB771:
 4319               	.LM398:
 4320 153c 85E1      		ldi r24,lo8(21)
 4321 153e 90E0      		ldi r25,hi8(21)
 4322               	.LVL288:
 4323 1540 089F      		mul r16,r24
 4324 1542 F001      		movw r30,r0
 4325 1544 099F      		mul r16,r25
 4326 1546 F00D      		add r31,r0
 4327 1548 189F      		mul r17,r24
 4328 154a F00D      		add r31,r0
 4329 154c 1124      		clr r1
 4330 154e E60F      		add r30,r22
 4331 1550 F71F      		adc r31,r23
 4332 1552 86A5      		ldd r24,Z+46
 4333 1554 817E      		andi r24,lo8(-31)
 4334 1556 8860      		ori r24,lo8(8)
 4335 1558 86A7      		std Z+46,r24
 4336 155a 00C0      		rjmp .L194
 4337               	.LVL289:
 4338               	.L188:
 4339               	.LBE771:
 4340               	.LBE770:
 4341               	.LM399:
 4342 155c 8230      		cpi r24,lo8(2)
 4343 155e 01F4      		brne .L194
 4344               	.LBB772:
 4345               	.LBB773:
 4346               	.LM400:
 4347 1560 EB01      		movw r28,r22
 4348 1562 8985      		ldd r24,Y+9
 4349 1564 9A85      		ldd r25,Y+10
 4350 1566 AB85      		ldd r26,Y+11
 4351 1568 BC85      		ldd r27,Y+12
 4352               	.LVL290:
 4353               	.LBE773:
 4354               	.LBE772:
 4355               	.LBB774:
 4356               	.LBB775:
 4357               	.LM401:
 4358 156a 27A9      		ldd r18,Z+55
 4359 156c 30AD      		ldd r19,Z+56
 4360 156e 41AD      		ldd r20,Z+57
 4361 1570 52AD      		ldd r21,Z+58
 4362 1572 820F      		add r24,r18
 4363 1574 931F      		adc r25,r19
 4364 1576 A41F      		adc r26,r20
 4365 1578 B51F      		adc r27,r21
 4366 157a 87A7      		std Z+47,r24
 4367 157c 90AB      		std Z+48,r25
 4368 157e A1AB      		std Z+49,r26
 4369 1580 B2AB      		std Z+50,r27
 4370               	.LBE775:
 4371               	.LBE774:
 4372               	.LM402:
 4373 1582 83A9      		ldd r24,Z+51
 4374 1584 94A9      		ldd r25,Z+52
 4375 1586 A5A9      		ldd r26,Z+53
 4376 1588 B6A9      		ldd r27,Z+54
 4377               	.LVL291:
 4378               	.LBB776:
 4379               	.LBB777:
 4380               	.LM403:
 4381 158a 821B      		sub r24,r18
 4382 158c 930B      		sbc r25,r19
 4383 158e A40B      		sbc r26,r20
 4384 1590 B50B      		sbc r27,r21
 4385 1592 B7FF      		sbrs r27,7
 4386 1594 00C0      		rjmp .L193
 4387 1596 80E0      		ldi r24,lo8(0)
 4388 1598 90E0      		ldi r25,hi8(0)
 4389 159a A0E0      		ldi r26,hlo8(0)
 4390 159c B0E0      		ldi r27,hhi8(0)
 4391               	.L193:
 4392 159e 83AF      		std Z+59,r24
 4393 15a0 94AF      		std Z+60,r25
 4394 15a2 A5AF      		std Z+61,r26
 4395 15a4 B6AF      		std Z+62,r27
 4396               	.LVL292:
 4397               	.L194:
 4398               	/* epilogue start */
 4399               	.LBE777:
 4400               	.LBE776:
 4401               	.LM404:
 4402 15a6 DF91      		pop r29
 4403 15a8 CF91      		pop r28
 4404 15aa 1F91      		pop r17
 4405 15ac 0F91      		pop r16
 4406 15ae 0895      		ret
 4407               	.LFE76:
 4409               	.global	Timebase_UpCounter_Expired
 4411               	Timebase_UpCounter_Expired:
 4412               	.LFB77:
 4413               	.LM405:
 4414               	.LVL293:
 4415               	/* prologue: function */
 4416               	/* frame size = 0 */
 4417               	.LM406:
 4418 15b0 40E0      		ldi r20,lo8(0)
 4419 15b2 E091 0000 		lds r30,Timebase
 4420 15b6 F091 0000 		lds r31,(Timebase)+1
 4421 15ba 90E0      		ldi r25,lo8(0)
 4422               	.LVL294:
 4423 15bc 25E1      		ldi r18,lo8(21)
 4424 15be 30E0      		ldi r19,hi8(21)
 4425 15c0 BC01      		movw r22,r24
 4426 15c2 629F      		mul r22,r18
 4427 15c4 C001      		movw r24,r0
 4428 15c6 639F      		mul r22,r19
 4429 15c8 900D      		add r25,r0
 4430 15ca 729F      		mul r23,r18
 4431 15cc 900D      		add r25,r0
 4432 15ce 1124      		clr r1
 4433               	.LVL295:
 4434 15d0 E80F      		add r30,r24
 4435 15d2 F91F      		adc r31,r25
 4436 15d4 86A5      		ldd r24,Z+46
 4437 15d6 8695      		lsr r24
 4438 15d8 8F70      		andi r24,lo8(15)
 4439 15da 8430      		cpi r24,lo8(4)
 4440 15dc 01F4      		brne .L196
 4441 15de 41E0      		ldi r20,lo8(1)
 4442               	.L196:
 4443               	.LM407:
 4444 15e0 842F      		mov r24,r20
 4445               	/* epilogue start */
 4446 15e2 0895      		ret
 4447               	.LFE77:
 4449               	.global	Timebase_UpCounter_Expired_Event
 4451               	Timebase_UpCounter_Expired_Event:
 4452               	.LFB78:
 4453               	.LM408:
 4454               	.LVL296:
 4455               	/* prologue: function */
 4456               	/* frame size = 0 */
 4457 15e4 482F      		mov r20,r24
 4458               	.LM409:
 4459 15e6 E091 0000 		lds r30,Timebase
 4460 15ea F091 0000 		lds r31,(Timebase)+1
 4461 15ee 282F      		mov r18,r24
 4462 15f0 30E0      		ldi r19,lo8(0)
 4463               	.LVL297:
 4464 15f2 85E1      		ldi r24,lo8(21)
 4465 15f4 90E0      		ldi r25,hi8(21)
 4466               	.LVL298:
 4467 15f6 BC01      		movw r22,r24
 4468 15f8 269F      		mul r18,r22
 4469 15fa C001      		movw r24,r0
 4470 15fc 279F      		mul r18,r23
 4471 15fe 900D      		add r25,r0
 4472 1600 369F      		mul r19,r22
 4473 1602 900D      		add r25,r0
 4474 1604 1124      		clr r1
 4475 1606 E80F      		add r30,r24
 4476 1608 F91F      		adc r31,r25
 4477 160a 86A5      		ldd r24,Z+46
 4478 160c 8695      		lsr r24
 4479 160e 8F70      		andi r24,lo8(15)
 4480 1610 8430      		cpi r24,lo8(4)
 4481 1612 01F0      		breq .L199
 4482 1614 80E0      		ldi r24,lo8(0)
 4483 1616 0895      		ret
 4484               	.L199:
 4485               	.LBB778:
 4486               	.LBB779:
 4487               	.LM410:
 4488 1618 842F      		mov r24,r20
 4489 161a 0E94 0000 		call Timebase_UpCounter_Reset
 4490               	.LVL299:
 4491 161e 81E0      		ldi r24,lo8(1)
 4492               	.LBE779:
 4493               	.LBE778:
 4494               	.LM411:
 4495 1620 0895      		ret
 4496               	.LFE78:
 4498               	.global	Timebase_UpCounter_Set_Period_Value_Securely
 4500               	Timebase_UpCounter_Set_Period_Value_Securely:
 4501               	.LFB79:
 4502               	.LM412:
 4503               	.LVL300:
 4504               	/* prologue: function */
 4505               	/* frame size = 0 */
 4506               	.LBB780:
 4507               	.LBB781:
 4508               	.LM413:
 4509 1622 E091 0000 		lds r30,Timebase
 4510 1626 F091 0000 		lds r31,(Timebase)+1
 4511 162a 90E0      		ldi r25,lo8(0)
 4512               	.LBE781:
 4513               	.LBE780:
 4514               	.LM414:
 4515 162c 25E1      		ldi r18,lo8(21)
 4516 162e 30E0      		ldi r19,hi8(21)
 4517 1630 DC01      		movw r26,r24
 4518               	.LVL301:
 4519 1632 A29F      		mul r26,r18
 4520 1634 C001      		movw r24,r0
 4521 1636 A39F      		mul r26,r19
 4522 1638 900D      		add r25,r0
 4523 163a B29F      		mul r27,r18
 4524 163c 900D      		add r25,r0
 4525 163e 1124      		clr r1
 4526 1640 E80F      		add r30,r24
 4527 1642 F91F      		adc r31,r25
 4528 1644 86A5      		ldd r24,Z+46
 4529 1646 80FD      		sbrc r24,0
 4530 1648 00C0      		rjmp .L204
 4531               	.LBB782:
 4532               	.LBB783:
 4533               	.LM415:
 4534 164a 83AD      		ldd r24,Z+59
 4535 164c 94AD      		ldd r25,Z+60
 4536 164e A5AD      		ldd r26,Z+61
 4537 1650 B6AD      		ldd r27,Z+62
 4538 1652 840F      		add r24,r20
 4539 1654 951F      		adc r25,r21
 4540 1656 A61F      		adc r26,r22
 4541 1658 B71F      		adc r27,r23
 4542 165a FF96      		adiw r30,63
 4543 165c 8083      		st Z,r24
 4544 165e 9183      		std Z+1,r25
 4545 1660 A283      		std Z+2,r26
 4546 1662 B383      		std Z+3,r27
 4547 1664 FF97      		sbiw r30,63
 4548               	.LBE783:
 4549               	.LBE782:
 4550               	.LBB784:
 4551               	.LBB785:
 4552               	.LM416:
 4553 1666 86A5      		ldd r24,Z+46
 4554 1668 8160      		ori r24,lo8(1)
 4555 166a 86A7      		std Z+46,r24
 4556               	.L204:
 4557 166c 0895      		ret
 4558               	.LBE785:
 4559               	.LBE784:
 4560               	.LFE79:
 4562               	.global	Timebase_UpCounter_Get_Remaining_Period_Value
 4564               	Timebase_UpCounter_Get_Remaining_Period_Value:
 4565               	.LFB80:
 4566               	.LM417:
 4567               	.LVL302:
 4568               	/* prologue: function */
 4569               	/* frame size = 0 */
 4570               	.LBB786:
 4571               	.LBB787:
 4572               	.LM418:
 4573 166e E091 0000 		lds r30,Timebase
 4574 1672 F091 0000 		lds r31,(Timebase)+1
 4575 1676 90E0      		ldi r25,lo8(0)
 4576               	.LBE787:
 4577               	.LBE786:
 4578               	.LM419:
 4579 1678 25E1      		ldi r18,lo8(21)
 4580 167a 30E0      		ldi r19,hi8(21)
 4581 167c AC01      		movw r20,r24
 4582               	.LVL303:
 4583 167e 429F      		mul r20,r18
 4584 1680 C001      		movw r24,r0
 4585 1682 439F      		mul r20,r19
 4586 1684 900D      		add r25,r0
 4587 1686 529F      		mul r21,r18
 4588 1688 900D      		add r25,r0
 4589 168a 1124      		clr r1
 4590 168c E80F      		add r30,r24
 4591 168e F91F      		adc r31,r25
 4592 1690 FF96      		adiw r30,63
 4593 1692 2081      		ld r18,Z
 4594 1694 3181      		ldd r19,Z+1
 4595 1696 4281      		ldd r20,Z+2
 4596 1698 5381      		ldd r21,Z+3
 4597               	.LVL304:
 4598 169a FF97      		sbiw r30,63
 4599 169c 83AD      		ldd r24,Z+59
 4600 169e 94AD      		ldd r25,Z+60
 4601 16a0 A5AD      		ldd r26,Z+61
 4602 16a2 B6AD      		ldd r27,Z+62
 4603 16a4 281B      		sub r18,r24
 4604 16a6 390B      		sbc r19,r25
 4605 16a8 4A0B      		sbc r20,r26
 4606 16aa 5B0B      		sbc r21,r27
 4607 16ac 57FF      		sbrs r21,7
 4608 16ae 00C0      		rjmp .L206
 4609 16b0 20E0      		ldi r18,lo8(0)
 4610 16b2 30E0      		ldi r19,hi8(0)
 4611 16b4 40E0      		ldi r20,hlo8(0)
 4612 16b6 50E0      		ldi r21,hhi8(0)
 4613               	.L206:
 4614               	.LM420:
 4615 16b8 B901      		movw r22,r18
 4616               	.LVL305:
 4617 16ba CA01      		movw r24,r20
 4618               	/* epilogue start */
 4619 16bc 0895      		ret
 4620               	.LFE80:
 4622               	.global	Timebase_UpCounter_Period_Value_Expired
 4624               	Timebase_UpCounter_Period_Value_Expired:
 4625               	.LFB81:
 4626               	.LM421:
 4627               	.LVL306:
 4628 16be CF93      		push r28
 4629 16c0 DF93      		push r29
 4630               	/* prologue: function */
 4631               	/* frame size = 0 */
 4632               	.LBB788:
 4633               	.LBB789:
 4634               	.LBB790:
 4635               	.LBB791:
 4636               	.LM422:
 4637 16c2 C091 0000 		lds r28,Timebase
 4638 16c6 D091 0000 		lds r29,(Timebase)+1
 4639 16ca 682F      		mov r22,r24
 4640 16cc 70E0      		ldi r23,lo8(0)
 4641               	.LBE791:
 4642               	.LBE790:
 4643               	.LM423:
 4644 16ce 85E1      		ldi r24,lo8(21)
 4645 16d0 90E0      		ldi r25,hi8(21)
 4646               	.LVL307:
 4647 16d2 689F      		mul r22,r24
 4648 16d4 F001      		movw r30,r0
 4649 16d6 699F      		mul r22,r25
 4650 16d8 F00D      		add r31,r0
 4651 16da 789F      		mul r23,r24
 4652 16dc F00D      		add r31,r0
 4653 16de 1124      		clr r1
 4654 16e0 EC0F      		add r30,r28
 4655 16e2 FD1F      		adc r31,r29
 4656 16e4 FF96      		adiw r30,63
 4657 16e6 2081      		ld r18,Z
 4658 16e8 3181      		ldd r19,Z+1
 4659 16ea 4281      		ldd r20,Z+2
 4660 16ec 5381      		ldd r21,Z+3
 4661               	.LVL308:
 4662 16ee FF97      		sbiw r30,63
 4663 16f0 83AD      		ldd r24,Z+59
 4664 16f2 94AD      		ldd r25,Z+60
 4665 16f4 A5AD      		ldd r26,Z+61
 4666 16f6 B6AD      		ldd r27,Z+62
 4667 16f8 281B      		sub r18,r24
 4668 16fa 390B      		sbc r19,r25
 4669 16fc 4A0B      		sbc r20,r26
 4670 16fe 5B0B      		sbc r21,r27
 4671               	.LM424:
 4672 1700 57FD      		sbrc r21,7
 4673 1702 00C0      		rjmp .L209
 4674               	.LBE789:
 4675               	.LBE788:
 4676               	.LM425:
 4677 1704 2115      		cp r18,__zero_reg__
 4678 1706 3105      		cpc r19,__zero_reg__
 4679 1708 4105      		cpc r20,__zero_reg__
 4680 170a 5105      		cpc r21,__zero_reg__
 4681 170c 01F0      		breq .L209
 4682 170e 20E0      		ldi r18,lo8(0)
 4683               	.LVL309:
 4684 1710 00C0      		rjmp .L210
 4685               	.LVL310:
 4686               	.L209:
 4687 1712 20E0      		ldi r18,lo8(0)
 4688               	.LVL311:
 4689 1714 85E1      		ldi r24,lo8(21)
 4690 1716 90E0      		ldi r25,hi8(21)
 4691 1718 AC01      		movw r20,r24
 4692 171a 649F      		mul r22,r20
 4693 171c C001      		movw r24,r0
 4694 171e 659F      		mul r22,r21
 4695 1720 900D      		add r25,r0
 4696 1722 749F      		mul r23,r20
 4697 1724 900D      		add r25,r0
 4698 1726 1124      		clr r1
 4699 1728 C80F      		add r28,r24
 4700 172a D91F      		adc r29,r25
 4701 172c 8EA5      		ldd r24,Y+46
 4702 172e 80FF      		sbrs r24,0
 4703 1730 21E0      		ldi r18,lo8(1)
 4704               	.L211:
 4705 1732 81E0      		ldi r24,lo8(1)
 4706 1734 2827      		eor r18,r24
 4707               	.L210:
 4708               	.LM426:
 4709 1736 822F      		mov r24,r18
 4710               	/* epilogue start */
 4711 1738 DF91      		pop r29
 4712 173a CF91      		pop r28
 4713 173c 0895      		ret
 4714               	.LFE81:
 4716               	.global	Timebase_UpCounter_Period_Value_Expired_Event
 4718               	Timebase_UpCounter_Period_Value_Expired_Event:
 4719               	.LFB82:
 4720               	.LM427:
 4721               	.LVL312:
 4722 173e 1F93      		push r17
 4723               	/* prologue: function */
 4724               	/* frame size = 0 */
 4725 1740 182F      		mov r17,r24
 4726               	.LM428:
 4727 1742 0E94 0000 		call Timebase_UpCounter_Period_Value_Expired
 4728               	.LVL313:
 4729 1746 8130      		cpi r24,lo8(1)
 4730 1748 01F0      		breq .L214
 4731 174a 80E0      		ldi r24,lo8(0)
 4732 174c 00C0      		rjmp .L215
 4733               	.L214:
 4734               	.LBB792:
 4735               	.LBB793:
 4736               	.LM429:
 4737 174e E091 0000 		lds r30,Timebase
 4738 1752 F091 0000 		lds r31,(Timebase)+1
 4739 1756 212F      		mov r18,r17
 4740 1758 30E0      		ldi r19,lo8(0)
 4741               	.LVL314:
 4742 175a 85E1      		ldi r24,lo8(21)
 4743 175c 90E0      		ldi r25,hi8(21)
 4744 175e AC01      		movw r20,r24
 4745 1760 249F      		mul r18,r20
 4746 1762 C001      		movw r24,r0
 4747 1764 259F      		mul r18,r21
 4748 1766 900D      		add r25,r0
 4749 1768 349F      		mul r19,r20
 4750 176a 900D      		add r25,r0
 4751 176c 1124      		clr r1
 4752 176e E80F      		add r30,r24
 4753 1770 F91F      		adc r31,r25
 4754 1772 86A5      		ldd r24,Z+46
 4755 1774 8E7F      		andi r24,lo8(-2)
 4756 1776 86A7      		std Z+46,r24
 4757 1778 81E0      		ldi r24,lo8(1)
 4758               	.L215:
 4759               	/* epilogue start */
 4760               	.LBE793:
 4761               	.LBE792:
 4762               	.LM430:
 4763 177a 1F91      		pop r17
 4764               	.LVL315:
 4765 177c 0895      		ret
 4766               	.LFE82:
 4768               	.global	Timebase_UpCounter_Update_All
 4770               	Timebase_UpCounter_Update_All:
 4771               	.LFB83:
 4772               	.LM431:
 4773               	/* prologue: function */
 4774               	/* frame size = 0 */
 4775               	.LBB794:
 4776               	.LM432:
 4777 177e 80E0      		ldi r24,lo8(0)
 4778 1780 0E94 0000 		call Timebase_UpCounter_Update
 4779               	/* epilogue start */
 4780               	.LBE794:
 4781               	.LM433:
 4782 1784 0895      		ret
 4783               	.LFE83:
 4785               	.global	Timebase_UpCounter_Reset_All
 4787               	Timebase_UpCounter_Reset_All:
 4788               	.LFB84:
 4789               	.LM434:
 4790               	/* prologue: function */
 4791               	/* frame size = 0 */
 4792               	.LBB795:
 4793               	.LM435:
 4794 1786 80E0      		ldi r24,lo8(0)
 4795 1788 0E94 0000 		call Timebase_UpCounter_Reset
 4796               	/* epilogue start */
 4797               	.LBE795:
 4798               	.LM436:
 4799 178c 0895      		ret
 4800               	.LFE84:
 4802               	.global	Timebase_DownCounter_SS_Get_Status
 4804               	Timebase_DownCounter_SS_Get_Status:
 4805               	.LFB85:
 4806               	.LM437:
 4807               	.LVL316:
 4808               	/* prologue: function */
 4809               	/* frame size = 0 */
 4810               	.LM438:
 4811 178e E091 0000 		lds r30,Timebase
 4812 1792 F091 0000 		lds r31,(Timebase)+1
 4813 1796 90E0      		ldi r25,lo8(0)
 4814               	.LVL317:
 4815 1798 9C01      		movw r18,r24
 4816 179a 44E0      		ldi r20,4
 4817 179c 220F      	1:	lsl r18
 4818 179e 331F      		rol r19
 4819 17a0 4A95      		dec r20
 4820 17a2 01F4      		brne 1b
 4821 17a4 280F      		add r18,r24
 4822 17a6 391F      		adc r19,r25
 4823 17a8 E20F      		add r30,r18
 4824 17aa F31F      		adc r31,r19
 4825 17ac ED5B      		subi r30,lo8(-(67))
 4826 17ae FF4F      		sbci r31,hi8(-(67))
 4827 17b0 8081      		ld r24,Z
 4828               	.LVL318:
 4829 17b2 8695      		lsr r24
 4830               	.LM439:
 4831 17b4 8F70      		andi r24,lo8(15)
 4832               	/* epilogue start */
 4833 17b6 0895      		ret
 4834               	.LFE85:
 4836               	.global	Timebase_DownCounter_SS_Set_Status
 4838               	Timebase_DownCounter_SS_Set_Status:
 4839               	.LFB86:
 4840               	.LM440:
 4841               	.LVL319:
 4842               	/* prologue: function */
 4843               	/* frame size = 0 */
 4844               	.LM441:
 4845 17b8 E091 0000 		lds r30,Timebase
 4846 17bc F091 0000 		lds r31,(Timebase)+1
 4847 17c0 90E0      		ldi r25,lo8(0)
 4848               	.LVL320:
 4849 17c2 9C01      		movw r18,r24
 4850 17c4 54E0      		ldi r21,4
 4851 17c6 220F      	1:	lsl r18
 4852 17c8 331F      		rol r19
 4853 17ca 5A95      		dec r21
 4854 17cc 01F4      		brne 1b
 4855 17ce 280F      		add r18,r24
 4856 17d0 391F      		adc r19,r25
 4857 17d2 E20F      		add r30,r18
 4858 17d4 F31F      		adc r31,r19
 4859 17d6 ED5B      		subi r30,lo8(-(67))
 4860 17d8 FF4F      		sbci r31,hi8(-(67))
 4861 17da 6F70      		andi r22,lo8(15)
 4862               	.LVL321:
 4863 17dc 660F      		lsl r22
 4864 17de 8081      		ld r24,Z
 4865               	.LVL322:
 4866 17e0 817E      		andi r24,lo8(-31)
 4867 17e2 862B      		or r24,r22
 4868 17e4 8083      		st Z,r24
 4869               	/* epilogue start */
 4870               	.LM442:
 4871 17e6 0895      		ret
 4872               	.LFE86:
 4874               	.global	Timebase_DownCounter_SS_Get_Value
 4876               	Timebase_DownCounter_SS_Get_Value:
 4877               	.LFB87:
 4878               	.LM443:
 4879               	.LVL323:
 4880               	/* prologue: function */
 4881               	/* frame size = 0 */
 4882               	.LM444:
 4883 17e8 E091 0000 		lds r30,Timebase
 4884 17ec F091 0000 		lds r31,(Timebase)+1
 4885 17f0 90E0      		ldi r25,lo8(0)
 4886               	.LVL324:
 4887 17f2 9C01      		movw r18,r24
 4888 17f4 64E0      		ldi r22,4
 4889 17f6 220F      	1:	lsl r18
 4890 17f8 331F      		rol r19
 4891 17fa 6A95      		dec r22
 4892 17fc 01F4      		brne 1b
 4893 17fe 280F      		add r18,r24
 4894 1800 391F      		adc r19,r25
 4895 1802 E20F      		add r30,r18
 4896 1804 F31F      		adc r31,r19
 4897 1806 E45B      		subi r30,lo8(-(76))
 4898 1808 FF4F      		sbci r31,hi8(-(76))
 4899 180a 6081      		ld r22,Z
 4900 180c 7181      		ldd r23,Z+1
 4901               	.LM445:
 4902 180e 8281      		ldd r24,Z+2
 4903               	.LVL325:
 4904 1810 9381      		ldd r25,Z+3
 4905               	.LVL326:
 4906               	/* epilogue start */
 4907 1812 0895      		ret
 4908               	.LFE87:
 4910               	.global	Timebase_DownCounter_SS_Set_Value
 4912               	Timebase_DownCounter_SS_Set_Value:
 4913               	.LFB88:
 4914               	.LM446:
 4915               	.LVL327:
 4916               	/* prologue: function */
 4917               	/* frame size = 0 */
 4918               	.LM447:
 4919 1814 E091 0000 		lds r30,Timebase
 4920 1818 F091 0000 		lds r31,(Timebase)+1
 4921 181c 90E0      		ldi r25,lo8(0)
 4922               	.LVL328:
 4923 181e 9C01      		movw r18,r24
 4924 1820 A4E0      		ldi r26,4
 4925 1822 220F      	1:	lsl r18
 4926 1824 331F      		rol r19
 4927 1826 AA95      		dec r26
 4928 1828 01F4      		brne 1b
 4929 182a 280F      		add r18,r24
 4930 182c 391F      		adc r19,r25
 4931 182e E20F      		add r30,r18
 4932 1830 F31F      		adc r31,r19
 4933 1832 E45B      		subi r30,lo8(-(76))
 4934 1834 FF4F      		sbci r31,hi8(-(76))
 4935 1836 4083      		st Z,r20
 4936 1838 5183      		std Z+1,r21
 4937 183a 6283      		std Z+2,r22
 4938 183c 7383      		std Z+3,r23
 4939               	/* epilogue start */
 4940               	.LM448:
 4941 183e 0895      		ret
 4942               	.LFE88:
 4944               	.global	Timebase_DownCounter_SS_Get_EndValueSec
 4946               	Timebase_DownCounter_SS_Get_EndValueSec:
 4947               	.LFB89:
 4948               	.LM449:
 4949               	.LVL329:
 4950               	/* prologue: function */
 4951               	/* frame size = 0 */
 4952               	.LM450:
 4953 1840 E091 0000 		lds r30,Timebase
 4954 1844 F091 0000 		lds r31,(Timebase)+1
 4955 1848 90E0      		ldi r25,lo8(0)
 4956               	.LVL330:
 4957 184a 9C01      		movw r18,r24
 4958 184c B4E0      		ldi r27,4
 4959 184e 220F      	1:	lsl r18
 4960 1850 331F      		rol r19
 4961 1852 BA95      		dec r27
 4962 1854 01F4      		brne 1b
 4963 1856 280F      		add r18,r24
 4964 1858 391F      		adc r19,r25
 4965 185a E20F      		add r30,r18
 4966 185c F31F      		adc r31,r19
 4967 185e EC5B      		subi r30,lo8(-(68))
 4968 1860 FF4F      		sbci r31,hi8(-(68))
 4969 1862 6081      		ld r22,Z
 4970 1864 7181      		ldd r23,Z+1
 4971               	.LM451:
 4972 1866 8281      		ldd r24,Z+2
 4973               	.LVL331:
 4974 1868 9381      		ldd r25,Z+3
 4975               	.LVL332:
 4976               	/* epilogue start */
 4977 186a 0895      		ret
 4978               	.LFE89:
 4980               	.global	Timebase_DownCounter_SS_Get_EndValueSubSec
 4982               	Timebase_DownCounter_SS_Get_EndValueSubSec:
 4983               	.LFB90:
 4984               	.LM452:
 4985               	.LVL333:
 4986               	/* prologue: function */
 4987               	/* frame size = 0 */
 4988               	.LM453:
 4989 186c E091 0000 		lds r30,Timebase
 4990 1870 F091 0000 		lds r31,(Timebase)+1
 4991 1874 90E0      		ldi r25,lo8(0)
 4992               	.LVL334:
 4993 1876 9C01      		movw r18,r24
 4994 1878 44E0      		ldi r20,4
 4995 187a 220F      	1:	lsl r18
 4996 187c 331F      		rol r19
 4997 187e 4A95      		dec r20
 4998 1880 01F4      		brne 1b
 4999 1882 280F      		add r18,r24
 5000 1884 391F      		adc r19,r25
 5001 1886 E20F      		add r30,r18
 5002 1888 F31F      		adc r31,r19
 5003 188a E85B      		subi r30,lo8(-(72))
 5004 188c FF4F      		sbci r31,hi8(-(72))
 5005 188e 6081      		ld r22,Z
 5006 1890 7181      		ldd r23,Z+1
 5007               	.LM454:
 5008 1892 8281      		ldd r24,Z+2
 5009               	.LVL335:
 5010 1894 9381      		ldd r25,Z+3
 5011               	.LVL336:
 5012               	/* epilogue start */
 5013 1896 0895      		ret
 5014               	.LFE90:
 5016               	.global	Timebase_DownCounter_SS_Set_EndValueSec
 5018               	Timebase_DownCounter_SS_Set_EndValueSec:
 5019               	.LFB91:
 5020               	.LM455:
 5021               	.LVL337:
 5022               	/* prologue: function */
 5023               	/* frame size = 0 */
 5024               	.LM456:
 5025 1898 E091 0000 		lds r30,Timebase
 5026 189c F091 0000 		lds r31,(Timebase)+1
 5027 18a0 90E0      		ldi r25,lo8(0)
 5028               	.LVL338:
 5029 18a2 9C01      		movw r18,r24
 5030 18a4 A4E0      		ldi r26,4
 5031 18a6 220F      	1:	lsl r18
 5032 18a8 331F      		rol r19
 5033 18aa AA95      		dec r26
 5034 18ac 01F4      		brne 1b
 5035 18ae 280F      		add r18,r24
 5036 18b0 391F      		adc r19,r25
 5037 18b2 E20F      		add r30,r18
 5038 18b4 F31F      		adc r31,r19
 5039 18b6 EC5B      		subi r30,lo8(-(68))
 5040 18b8 FF4F      		sbci r31,hi8(-(68))
 5041 18ba 4083      		st Z,r20
 5042 18bc 5183      		std Z+1,r21
 5043 18be 6283      		std Z+2,r22
 5044 18c0 7383      		std Z+3,r23
 5045               	/* epilogue start */
 5046               	.LM457:
 5047 18c2 0895      		ret
 5048               	.LFE91:
 5050               	.global	Timebase_DownCounter_SS_Set_EndValueSubSec
 5052               	Timebase_DownCounter_SS_Set_EndValueSubSec:
 5053               	.LFB92:
 5054               	.LM458:
 5055               	.LVL339:
 5056               	/* prologue: function */
 5057               	/* frame size = 0 */
 5058               	.LM459:
 5059 18c4 E091 0000 		lds r30,Timebase
 5060 18c8 F091 0000 		lds r31,(Timebase)+1
 5061 18cc 90E0      		ldi r25,lo8(0)
 5062               	.LVL340:
 5063 18ce 9C01      		movw r18,r24
 5064 18d0 B4E0      		ldi r27,4
 5065 18d2 220F      	1:	lsl r18
 5066 18d4 331F      		rol r19
 5067 18d6 BA95      		dec r27
 5068 18d8 01F4      		brne 1b
 5069 18da 280F      		add r18,r24
 5070 18dc 391F      		adc r19,r25
 5071 18de E20F      		add r30,r18
 5072 18e0 F31F      		adc r31,r19
 5073 18e2 E85B      		subi r30,lo8(-(72))
 5074 18e4 FF4F      		sbci r31,hi8(-(72))
 5075 18e6 4083      		st Z,r20
 5076 18e8 5183      		std Z+1,r21
 5077 18ea 6283      		std Z+2,r22
 5078 18ec 7383      		std Z+3,r23
 5079               	/* epilogue start */
 5080               	.LM460:
 5081 18ee 0895      		ret
 5082               	.LFE92:
 5084               	.global	Timebase_DownCounter_SS_Get_PeriodValue
 5086               	Timebase_DownCounter_SS_Get_PeriodValue:
 5087               	.LFB93:
 5088               	.LM461:
 5089               	.LVL341:
 5090               	/* prologue: function */
 5091               	/* frame size = 0 */
 5092               	.LM462:
 5093 18f0 E091 0000 		lds r30,Timebase
 5094 18f4 F091 0000 		lds r31,(Timebase)+1
 5095 18f8 90E0      		ldi r25,lo8(0)
 5096               	.LVL342:
 5097 18fa 9C01      		movw r18,r24
 5098 18fc 44E0      		ldi r20,4
 5099 18fe 220F      	1:	lsl r18
 5100 1900 331F      		rol r19
 5101 1902 4A95      		dec r20
 5102 1904 01F4      		brne 1b
 5103 1906 280F      		add r18,r24
 5104 1908 391F      		adc r19,r25
 5105 190a E20F      		add r30,r18
 5106 190c F31F      		adc r31,r19
 5107 190e E05B      		subi r30,lo8(-(80))
 5108 1910 FF4F      		sbci r31,hi8(-(80))
 5109 1912 6081      		ld r22,Z
 5110 1914 7181      		ldd r23,Z+1
 5111               	.LM463:
 5112 1916 8281      		ldd r24,Z+2
 5113               	.LVL343:
 5114 1918 9381      		ldd r25,Z+3
 5115               	.LVL344:
 5116               	/* epilogue start */
 5117 191a 0895      		ret
 5118               	.LFE93:
 5120               	.global	Timebase_DownCounter_SS_Set_PeriodValue
 5122               	Timebase_DownCounter_SS_Set_PeriodValue:
 5123               	.LFB94:
 5124               	.LM464:
 5125               	.LVL345:
 5126               	/* prologue: function */
 5127               	/* frame size = 0 */
 5128 191c E091 0000 		lds r30,Timebase
 5129 1920 F091 0000 		lds r31,(Timebase)+1
 5130 1924 282F      		mov r18,r24
 5131 1926 30E0      		ldi r19,lo8(0)
 5132               	.LVL346:
 5133               	.LM465:
 5134 1928 77FF      		sbrs r23,7
 5135 192a 00C0      		rjmp .L240
 5136               	.LVL347:
 5137               	.LM466:
 5138 192c C901      		movw r24,r18
 5139 192e B4E0      		ldi r27,4
 5140 1930 880F      	1:	lsl r24
 5141 1932 991F      		rol r25
 5142 1934 BA95      		dec r27
 5143 1936 01F4      		brne 1b
 5144 1938 820F      		add r24,r18
 5145 193a 931F      		adc r25,r19
 5146 193c E80F      		add r30,r24
 5147 193e F91F      		adc r31,r25
 5148 1940 E05B      		subi r30,lo8(-(80))
 5149 1942 FF4F      		sbci r31,hi8(-(80))
 5150 1944 1082      		st Z,__zero_reg__
 5151 1946 1182      		std Z+1,__zero_reg__
 5152 1948 1282      		std Z+2,__zero_reg__
 5153 194a 1382      		std Z+3,__zero_reg__
 5154 194c 0895      		ret
 5155               	.LVL348:
 5156               	.L240:
 5157               	.LM467:
 5158 194e C901      		movw r24,r18
 5159 1950 A4E0      		ldi r26,4
 5160 1952 880F      	1:	lsl r24
 5161 1954 991F      		rol r25
 5162 1956 AA95      		dec r26
 5163 1958 01F4      		brne 1b
 5164 195a 820F      		add r24,r18
 5165 195c 931F      		adc r25,r19
 5166 195e E80F      		add r30,r24
 5167 1960 F91F      		adc r31,r25
 5168 1962 E05B      		subi r30,lo8(-(80))
 5169 1964 FF4F      		sbci r31,hi8(-(80))
 5170 1966 4083      		st Z,r20
 5171 1968 5183      		std Z+1,r21
 5172 196a 6283      		std Z+2,r22
 5173 196c 7383      		std Z+3,r23
 5174 196e 0895      		ret
 5175               	.LFE94:
 5177               	.global	Timebase_DownCounter_SS_Get_Period_Flag
 5179               	Timebase_DownCounter_SS_Get_Period_Flag:
 5180               	.LFB95:
 5181               	.LM468:
 5182               	.LVL349:
 5183               	/* prologue: function */
 5184               	/* frame size = 0 */
 5185               	.LM469:
 5186 1970 E091 0000 		lds r30,Timebase
 5187 1974 F091 0000 		lds r31,(Timebase)+1
 5188 1978 90E0      		ldi r25,lo8(0)
 5189               	.LVL350:
 5190 197a 9C01      		movw r18,r24
 5191 197c 44E0      		ldi r20,4
 5192 197e 220F      	1:	lsl r18
 5193 1980 331F      		rol r19
 5194 1982 4A95      		dec r20
 5195 1984 01F4      		brne 1b
 5196 1986 280F      		add r18,r24
 5197 1988 391F      		adc r19,r25
 5198 198a E20F      		add r30,r18
 5199 198c F31F      		adc r31,r19
 5200 198e ED5B      		subi r30,lo8(-(67))
 5201 1990 FF4F      		sbci r31,hi8(-(67))
 5202 1992 8081      		ld r24,Z
 5203               	.LVL351:
 5204               	.LM470:
 5205 1994 8170      		andi r24,lo8(1)
 5206               	/* epilogue start */
 5207 1996 0895      		ret
 5208               	.LFE95:
 5210               	.global	Timebase_DownCounter_SS_Set_Period_Flag
 5212               	Timebase_DownCounter_SS_Set_Period_Flag:
 5213               	.LFB96:
 5214               	.LM471:
 5215               	.LVL352:
 5216               	/* prologue: function */
 5217               	/* frame size = 0 */
 5218               	.LM472:
 5219 1998 E091 0000 		lds r30,Timebase
 5220 199c F091 0000 		lds r31,(Timebase)+1
 5221 19a0 90E0      		ldi r25,lo8(0)
 5222               	.LVL353:
 5223 19a2 9C01      		movw r18,r24
 5224 19a4 54E0      		ldi r21,4
 5225 19a6 220F      	1:	lsl r18
 5226 19a8 331F      		rol r19
 5227 19aa 5A95      		dec r21
 5228 19ac 01F4      		brne 1b
 5229 19ae 280F      		add r18,r24
 5230 19b0 391F      		adc r19,r25
 5231 19b2 E20F      		add r30,r18
 5232 19b4 F31F      		adc r31,r19
 5233 19b6 ED5B      		subi r30,lo8(-(67))
 5234 19b8 FF4F      		sbci r31,hi8(-(67))
 5235 19ba 8081      		ld r24,Z
 5236               	.LVL354:
 5237 19bc 8160      		ori r24,lo8(1)
 5238 19be 8083      		st Z,r24
 5239               	/* epilogue start */
 5240               	.LM473:
 5241 19c0 0895      		ret
 5242               	.LFE96:
 5244               	.global	Timebase_DownCounter_SS_Clear_Period_Flag
 5246               	Timebase_DownCounter_SS_Clear_Period_Flag:
 5247               	.LFB97:
 5248               	.LM474:
 5249               	.LVL355:
 5250               	/* prologue: function */
 5251               	/* frame size = 0 */
 5252               	.LM475:
 5253 19c2 E091 0000 		lds r30,Timebase
 5254 19c6 F091 0000 		lds r31,(Timebase)+1
 5255 19ca 90E0      		ldi r25,lo8(0)
 5256               	.LVL356:
 5257 19cc 9C01      		movw r18,r24
 5258 19ce 64E0      		ldi r22,4
 5259 19d0 220F      	1:	lsl r18
 5260 19d2 331F      		rol r19
 5261 19d4 6A95      		dec r22
 5262 19d6 01F4      		brne 1b
 5263 19d8 280F      		add r18,r24
 5264 19da 391F      		adc r19,r25
 5265 19dc E20F      		add r30,r18
 5266 19de F31F      		adc r31,r19
 5267 19e0 ED5B      		subi r30,lo8(-(67))
 5268 19e2 FF4F      		sbci r31,hi8(-(67))
 5269 19e4 8081      		ld r24,Z
 5270               	.LVL357:
 5271 19e6 8E7F      		andi r24,lo8(-2)
 5272 19e8 8083      		st Z,r24
 5273               	/* epilogue start */
 5274               	.LM476:
 5275 19ea 0895      		ret
 5276               	.LFE97:
 5278               	.global	Timebase_DownCounter_SS_Reset
 5280               	Timebase_DownCounter_SS_Reset:
 5281               	.LFB98:
 5282               	.LM477:
 5283               	.LVL358:
 5284               	/* prologue: function */
 5285               	/* frame size = 0 */
 5286               	.LBB796:
 5287               	.LBB797:
 5288               	.LM478:
 5289 19ec E091 0000 		lds r30,Timebase
 5290 19f0 F091 0000 		lds r31,(Timebase)+1
 5291 19f4 90E0      		ldi r25,lo8(0)
 5292 19f6 9C01      		movw r18,r24
 5293               	.LVL359:
 5294 19f8 74E0      		ldi r23,4
 5295 19fa 220F      	1:	lsl r18
 5296 19fc 331F      		rol r19
 5297 19fe 7A95      		dec r23
 5298 1a00 01F4      		brne 1b
 5299 1a02 280F      		add r18,r24
 5300 1a04 391F      		adc r19,r25
 5301 1a06 E20F      		add r30,r18
 5302 1a08 F31F      		adc r31,r19
 5303 1a0a E85B      		subi r30,lo8(-(72))
 5304 1a0c FF4F      		sbci r31,hi8(-(72))
 5305 1a0e 1082      		st Z,__zero_reg__
 5306 1a10 1182      		std Z+1,__zero_reg__
 5307 1a12 1282      		std Z+2,__zero_reg__
 5308 1a14 1382      		std Z+3,__zero_reg__
 5309               	.LBE797:
 5310               	.LBE796:
 5311               	.LBB798:
 5312               	.LBB799:
 5313               	.LM479:
 5314 1a16 1292      		st -Z,__zero_reg__
 5315 1a18 1292      		st -Z,__zero_reg__
 5316 1a1a 1292      		st -Z,__zero_reg__
 5317 1a1c 1292      		st -Z,__zero_reg__
 5318               	.LBE799:
 5319               	.LBE798:
 5320               	.LBB800:
 5321               	.LBB801:
 5322               	.LM480:
 5323 1a1e 3896      		adiw r30,8
 5324 1a20 1082      		st Z,__zero_reg__
 5325 1a22 1182      		std Z+1,__zero_reg__
 5326 1a24 1282      		std Z+2,__zero_reg__
 5327 1a26 1382      		std Z+3,__zero_reg__
 5328               	.LBE801:
 5329               	.LBE800:
 5330               	.LBB802:
 5331               	.LBB803:
 5332               	.LM481:
 5333 1a28 3997      		sbiw r30,9
 5334 1a2a 8081      		ld r24,Z
 5335               	.LBE803:
 5336               	.LBE802:
 5337               	.LBB804:
 5338               	.LBB805:
 5339               	.LM482:
 5340 1a2c 807E      		andi r24,lo8(-32)
 5341 1a2e 8083      		st Z,r24
 5342               	/* epilogue start */
 5343               	.LBE805:
 5344               	.LBE804:
 5345               	.LM483:
 5346 1a30 0895      		ret
 5347               	.LFE98:
 5349               	.global	Timebase_DownCounter_SS_Clear_All_Flags
 5351               	Timebase_DownCounter_SS_Clear_All_Flags:
 5352               	.LFB99:
 5353               	.LM484:
 5354               	.LVL360:
 5355               	/* prologue: function */
 5356               	/* frame size = 0 */
 5357               	.LBB806:
 5358               	.LBB807:
 5359               	.LBB808:
 5360               	.LBB809:
 5361               	.LM485:
 5362 1a32 E091 0000 		lds r30,Timebase
 5363 1a36 F091 0000 		lds r31,(Timebase)+1
 5364 1a3a 90E0      		ldi r25,lo8(0)
 5365 1a3c 9C01      		movw r18,r24
 5366               	.LVL361:
 5367 1a3e A4E0      		ldi r26,4
 5368 1a40 220F      	1:	lsl r18
 5369 1a42 331F      		rol r19
 5370 1a44 AA95      		dec r26
 5371 1a46 01F4      		brne 1b
 5372 1a48 280F      		add r18,r24
 5373 1a4a 391F      		adc r19,r25
 5374 1a4c E20F      		add r30,r18
 5375 1a4e F31F      		adc r31,r19
 5376 1a50 E85B      		subi r30,lo8(-(72))
 5377 1a52 FF4F      		sbci r31,hi8(-(72))
 5378 1a54 1082      		st Z,__zero_reg__
 5379 1a56 1182      		std Z+1,__zero_reg__
 5380 1a58 1282      		std Z+2,__zero_reg__
 5381 1a5a 1382      		std Z+3,__zero_reg__
 5382               	.LBE809:
 5383               	.LBE808:
 5384               	.LBB810:
 5385               	.LBB811:
 5386               	.LM486:
 5387 1a5c 1292      		st -Z,__zero_reg__
 5388 1a5e 1292      		st -Z,__zero_reg__
 5389 1a60 1292      		st -Z,__zero_reg__
 5390 1a62 1292      		st -Z,__zero_reg__
 5391               	.LBE811:
 5392               	.LBE810:
 5393               	.LBB812:
 5394               	.LBB813:
 5395               	.LM487:
 5396 1a64 3896      		adiw r30,8
 5397 1a66 1082      		st Z,__zero_reg__
 5398 1a68 1182      		std Z+1,__zero_reg__
 5399 1a6a 1282      		std Z+2,__zero_reg__
 5400 1a6c 1382      		std Z+3,__zero_reg__
 5401               	.LBE813:
 5402               	.LBE812:
 5403               	.LBB814:
 5404               	.LBB815:
 5405               	.LM488:
 5406 1a6e 3997      		sbiw r30,9
 5407 1a70 8081      		ld r24,Z
 5408               	.LBE815:
 5409               	.LBE814:
 5410               	.LBB816:
 5411               	.LBB817:
 5412               	.LM489:
 5413 1a72 807E      		andi r24,lo8(-32)
 5414 1a74 8083      		st Z,r24
 5415               	/* epilogue start */
 5416               	.LBE817:
 5417               	.LBE816:
 5418               	.LBE807:
 5419               	.LBE806:
 5420               	.LM490:
 5421 1a76 0895      		ret
 5422               	.LFE99:
 5424               	.global	Timebase_DownCounter_SS_Start
 5426               	Timebase_DownCounter_SS_Start:
 5427               	.LFB100:
 5428               	.LM491:
 5429               	.LVL362:
 5430               	/* prologue: function */
 5431               	/* frame size = 0 */
 5432               	.LBB818:
 5433               	.LBB819:
 5434               	.LM492:
 5435 1a78 E091 0000 		lds r30,Timebase
 5436 1a7c F091 0000 		lds r31,(Timebase)+1
 5437 1a80 90E0      		ldi r25,lo8(0)
 5438               	.LBE819:
 5439               	.LBE818:
 5440               	.LM493:
 5441 1a82 9C01      		movw r18,r24
 5442               	.LVL363:
 5443 1a84 B4E0      		ldi r27,4
 5444 1a86 220F      	1:	lsl r18
 5445 1a88 331F      		rol r19
 5446 1a8a BA95      		dec r27
 5447 1a8c 01F4      		brne 1b
 5448 1a8e 280F      		add r18,r24
 5449 1a90 391F      		adc r19,r25
 5450 1a92 E20F      		add r30,r18
 5451 1a94 F31F      		adc r31,r19
 5452 1a96 ED5B      		subi r30,lo8(-(67))
 5453 1a98 FF4F      		sbci r31,hi8(-(67))
 5454 1a9a 9081      		ld r25,Z
 5455 1a9c 892F      		mov r24,r25
 5456 1a9e 8695      		lsr r24
 5457 1aa0 8F70      		andi r24,lo8(15)
 5458 1aa2 8130      		cpi r24,lo8(1)
 5459 1aa4 01F0      		breq .L255
 5460               	.LBB820:
 5461               	.LBB821:
 5462               	.LM494:
 5463 1aa6 917E      		andi r25,lo8(-31)
 5464 1aa8 9260      		ori r25,lo8(2)
 5465 1aaa 9083      		st Z,r25
 5466               	.L255:
 5467 1aac 0895      		ret
 5468               	.LBE821:
 5469               	.LBE820:
 5470               	.LFE100:
 5472               	.global	Timebase_DownCounter_SS_Stop
 5474               	Timebase_DownCounter_SS_Stop:
 5475               	.LFB101:
 5476               	.LM495:
 5477               	.LVL364:
 5478               	/* prologue: function */
 5479               	/* frame size = 0 */
 5480               	.LBB822:
 5481               	.LBB823:
 5482               	.LM496:
 5483 1aae E091 0000 		lds r30,Timebase
 5484 1ab2 F091 0000 		lds r31,(Timebase)+1
 5485 1ab6 90E0      		ldi r25,lo8(0)
 5486               	.LBE823:
 5487               	.LBE822:
 5488               	.LM497:
 5489 1ab8 9C01      		movw r18,r24
 5490               	.LVL365:
 5491 1aba 44E0      		ldi r20,4
 5492 1abc 220F      	1:	lsl r18
 5493 1abe 331F      		rol r19
 5494 1ac0 4A95      		dec r20
 5495 1ac2 01F4      		brne 1b
 5496 1ac4 280F      		add r18,r24
 5497 1ac6 391F      		adc r19,r25
 5498 1ac8 E20F      		add r30,r18
 5499 1aca F31F      		adc r31,r19
 5500 1acc ED5B      		subi r30,lo8(-(67))
 5501 1ace FF4F      		sbci r31,hi8(-(67))
 5502 1ad0 9081      		ld r25,Z
 5503 1ad2 892F      		mov r24,r25
 5504 1ad4 8695      		lsr r24
 5505 1ad6 8F70      		andi r24,lo8(15)
 5506 1ad8 8230      		cpi r24,lo8(2)
 5507 1ada 01F0      		breq .L258
 5508               	.LBB824:
 5509               	.LBB825:
 5510               	.LM498:
 5511 1adc 917E      		andi r25,lo8(-31)
 5512 1ade 9460      		ori r25,lo8(4)
 5513 1ae0 9083      		st Z,r25
 5514               	.L258:
 5515 1ae2 0895      		ret
 5516               	.LBE825:
 5517               	.LBE824:
 5518               	.LFE101:
 5520               	.global	Timebase_DownCounter_SS_Set_Securely
 5522               	Timebase_DownCounter_SS_Set_Securely:
 5523               	.LFB102:
 5524               	.LM499:
 5525               	.LVL366:
 5526 1ae4 2F92      		push r2
 5527 1ae6 3F92      		push r3
 5528 1ae8 4F92      		push r4
 5529 1aea 5F92      		push r5
 5530 1aec 6F92      		push r6
 5531 1aee 7F92      		push r7
 5532 1af0 8F92      		push r8
 5533 1af2 9F92      		push r9
 5534 1af4 AF92      		push r10
 5535 1af6 BF92      		push r11
 5536 1af8 CF92      		push r12
 5537 1afa DF92      		push r13
 5538 1afc EF92      		push r14
 5539 1afe FF92      		push r15
 5540 1b00 0F93      		push r16
 5541 1b02 1F93      		push r17
 5542 1b04 DF93      		push r29
 5543 1b06 CF93      		push r28
 5544 1b08 00D0      		rcall .
 5545 1b0a 00D0      		rcall .
 5546 1b0c CDB7      		in r28,__SP_L__
 5547 1b0e DEB7      		in r29,__SP_H__
 5548               	/* prologue: function */
 5549               	/* frame size = 4 */
 5550 1b10 4A01      		movw r8,r20
 5551 1b12 5B01      		movw r10,r22
 5552               	.LBB826:
 5553               	.LBB827:
 5554               	.LM500:
 5555 1b14 2091 0000 		lds r18,Timebase
 5556 1b18 3091 0000 		lds r19,(Timebase)+1
 5557 1b1c 3C83      		std Y+4,r19
 5558 1b1e 2B83      		std Y+3,r18
 5559 1b20 A82F      		mov r26,r24
 5560 1b22 B0E0      		ldi r27,lo8(0)
 5561 1b24 BA83      		std Y+2,r27
 5562 1b26 A983      		std Y+1,r26
 5563               	.LBE827:
 5564               	.LBE826:
 5565               	.LM501:
 5566 1b28 FD01      		movw r30,r26
 5567 1b2a 64E0      		ldi r22,4
 5568 1b2c EE0F      	1:	lsl r30
 5569 1b2e FF1F      		rol r31
 5570 1b30 6A95      		dec r22
 5571 1b32 01F4      		brne 1b
 5572 1b34 EA0F      		add r30,r26
 5573 1b36 FB1F      		adc r31,r27
 5574 1b38 E20F      		add r30,r18
 5575 1b3a F31F      		adc r31,r19
 5576 1b3c ED5B      		subi r30,lo8(-(67))
 5577 1b3e FF4F      		sbci r31,hi8(-(67))
 5578 1b40 8081      		ld r24,Z
 5579               	.LVL367:
 5580 1b42 E354      		subi r30,lo8(-(-67))
 5581 1b44 F040      		sbci r31,hi8(-(-67))
 5582 1b46 8695      		lsr r24
 5583 1b48 8F70      		andi r24,lo8(15)
 5584 1b4a 01F0      		breq .+2
 5585 1b4c 00C0      		rjmp .L262
 5586               	.LVL368:
 5587               	.LBB828:
 5588               	.LBB829:
 5589               	.LM502:
 5590 1b4e E45B      		subi r30,lo8(-(76))
 5591 1b50 FF4F      		sbci r31,hi8(-(76))
 5592 1b52 8082      		st Z,r8
 5593 1b54 9182      		std Z+1,r9
 5594 1b56 A282      		std Z+2,r10
 5595 1b58 B382      		std Z+3,r11
 5596               	.LBE829:
 5597               	.LBE828:
 5598               	.LBB830:
 5599               	.LBB831:
 5600               	.LM503:
 5601 1b5a F901      		movw r30,r18
 5602 1b5c C780      		ldd r12,Z+7
 5603 1b5e D084      		ldd r13,Z+8
 5604               	.LBE831:
 5605               	.LBE830:
 5606               	.LBB832:
 5607               	.LBB833:
 5608               	.LM504:
 5609 1b60 2184      		ldd r2,Z+9
 5610 1b62 3284      		ldd r3,Z+10
 5611 1b64 4384      		ldd r4,Z+11
 5612 1b66 5484      		ldd r5,Z+12
 5613               	.LVL369:
 5614               	.LBE833:
 5615               	.LBE832:
 5616               	.LM505:
 5617 1b68 2081      		ld r18,Z
 5618 1b6a 3181      		ldd r19,Z+1
 5619 1b6c 40E0      		ldi r20,lo8(0)
 5620 1b6e 50E0      		ldi r21,hi8(0)
 5621 1b70 C501      		movw r24,r10
 5622 1b72 B401      		movw r22,r8
 5623 1b74 0E94 0000 		call __divmodsi4
 5624 1b78 7B01      		movw r14,r22
 5625 1b7a 8C01      		movw r16,r24
 5626               	.LM506:
 5627 1b7c AB81      		ldd r26,Y+3
 5628 1b7e BC81      		ldd r27,Y+4
 5629 1b80 2D91      		ld r18,X+
 5630 1b82 3C91      		ld r19,X
 5631 1b84 40E0      		ldi r20,lo8(0)
 5632 1b86 50E0      		ldi r21,hi8(0)
 5633 1b88 C501      		movw r24,r10
 5634 1b8a B401      		movw r22,r8
 5635 1b8c 0E94 0000 		call __divmodsi4
 5636 1b90 C901      		movw r24,r18
 5637 1b92 DA01      		movw r26,r20
 5638 1b94 3C01      		movw r6,r24
 5639 1b96 4D01      		movw r8,r26
 5640               	.LVL370:
 5641               	.LM507:
 5642 1b98 5601      		movw r10,r12
 5643               	.LVL371:
 5644 1b9a CC24      		clr r12
 5645 1b9c DD24      		clr r13
 5646               	.LVL372:
 5647 1b9e AE0C      		add r10,r14
 5648 1ba0 BF1C      		adc r11,r15
 5649 1ba2 C01E      		adc r12,r16
 5650 1ba4 D11E      		adc r13,r17
 5651               	.LVL373:
 5652               	.LM508:
 5653 1ba6 EB81      		ldd r30,Y+3
 5654 1ba8 FC81      		ldd r31,Y+4
 5655 1baa 8081      		ld r24,Z
 5656 1bac 9181      		ldd r25,Z+1
 5657               	.LVL374:
 5658 1bae A0E0      		ldi r26,lo8(0)
 5659 1bb0 B0E0      		ldi r27,hi8(0)
 5660 1bb2 A816      		cp r10,r24
 5661 1bb4 B906      		cpc r11,r25
 5662 1bb6 CA06      		cpc r12,r26
 5663 1bb8 DB06      		cpc r13,r27
 5664 1bba 04F0      		brlt .L261
 5665               	.LM509:
 5666 1bbc 0894      		sec
 5667 1bbe 611C      		adc r6,__zero_reg__
 5668 1bc0 711C      		adc r7,__zero_reg__
 5669 1bc2 811C      		adc r8,__zero_reg__
 5670 1bc4 911C      		adc r9,__zero_reg__
 5671               	.LM510:
 5672 1bc6 2081      		ld r18,Z
 5673 1bc8 3181      		ldd r19,Z+1
 5674 1bca 40E0      		ldi r20,lo8(0)
 5675 1bcc 50E0      		ldi r21,hi8(0)
 5676 1bce C601      		movw r24,r12
 5677 1bd0 B501      		movw r22,r10
 5678 1bd2 0E94 0000 		call __divmodsi4
 5679 1bd6 AC01      		movw r20,r24
 5680 1bd8 CB01      		movw r24,r22
 5681 1bda DA01      		movw r26,r20
 5682 1bdc 5C01      		movw r10,r24
 5683 1bde 6D01      		movw r12,r26
 5684               	.L261:
 5685               	.LBB834:
 5686               	.LBB835:
 5687               	.LM511:
 5688 1be0 E981      		ldd r30,Y+1
 5689 1be2 FA81      		ldd r31,Y+2
 5690 1be4 54E0      		ldi r21,4
 5691 1be6 EE0F      	1:	lsl r30
 5692 1be8 FF1F      		rol r31
 5693 1bea 5A95      		dec r21
 5694 1bec 01F4      		brne 1b
 5695 1bee 2981      		ldd r18,Y+1
 5696 1bf0 3A81      		ldd r19,Y+2
 5697 1bf2 E20F      		add r30,r18
 5698 1bf4 F31F      		adc r31,r19
 5699 1bf6 8B81      		ldd r24,Y+3
 5700 1bf8 9C81      		ldd r25,Y+4
 5701 1bfa E80F      		add r30,r24
 5702 1bfc F91F      		adc r31,r25
 5703 1bfe EC5B      		subi r30,lo8(-(68))
 5704 1c00 FF4F      		sbci r31,hi8(-(68))
 5705 1c02 260C      		add r2,r6
 5706 1c04 371C      		adc r3,r7
 5707 1c06 481C      		adc r4,r8
 5708 1c08 591C      		adc r5,r9
 5709 1c0a 2192      		st Z+,r2
 5710 1c0c 3192      		st Z+,r3
 5711 1c0e 4192      		st Z+,r4
 5712 1c10 5192      		st Z+,r5
 5713               	.LBE835:
 5714               	.LBE834:
 5715               	.LBB836:
 5716               	.LBB837:
 5717               	.LM512:
 5718 1c12 A082      		st Z,r10
 5719 1c14 B182      		std Z+1,r11
 5720 1c16 C282      		std Z+2,r12
 5721 1c18 D382      		std Z+3,r13
 5722               	.LBE837:
 5723               	.LBE836:
 5724               	.LBB838:
 5725               	.LBB839:
 5726               	.LM513:
 5727 1c1a 3597      		sbiw r30,5
 5728 1c1c 9081      		ld r25,Z
 5729 1c1e 892F      		mov r24,r25
 5730 1c20 8695      		lsr r24
 5731 1c22 8F70      		andi r24,lo8(15)
 5732 1c24 8130      		cpi r24,lo8(1)
 5733 1c26 01F0      		breq .L262
 5734               	.LBB840:
 5735               	.LBB841:
 5736               	.LM514:
 5737 1c28 917E      		andi r25,lo8(-31)
 5738 1c2a 9260      		ori r25,lo8(2)
 5739 1c2c 9083      		st Z,r25
 5740               	.LVL375:
 5741               	.L262:
 5742               	/* epilogue start */
 5743               	.LBE841:
 5744               	.LBE840:
 5745               	.LBE839:
 5746               	.LBE838:
 5747               	.LM515:
 5748 1c2e 0F90      		pop __tmp_reg__
 5749 1c30 0F90      		pop __tmp_reg__
 5750 1c32 0F90      		pop __tmp_reg__
 5751 1c34 0F90      		pop __tmp_reg__
 5752 1c36 CF91      		pop r28
 5753 1c38 DF91      		pop r29
 5754 1c3a 1F91      		pop r17
 5755 1c3c 0F91      		pop r16
 5756 1c3e FF90      		pop r15
 5757 1c40 EF90      		pop r14
 5758 1c42 DF90      		pop r13
 5759 1c44 CF90      		pop r12
 5760               	.LVL376:
 5761 1c46 BF90      		pop r11
 5762 1c48 AF90      		pop r10
 5763               	.LVL377:
 5764 1c4a 9F90      		pop r9
 5765 1c4c 8F90      		pop r8
 5766               	.LVL378:
 5767 1c4e 7F90      		pop r7
 5768 1c50 6F90      		pop r6
 5769               	.LVL379:
 5770 1c52 5F90      		pop r5
 5771 1c54 4F90      		pop r4
 5772 1c56 3F90      		pop r3
 5773 1c58 2F90      		pop r2
 5774               	.LVL380:
 5775 1c5a 0895      		ret
 5776               	.LFE102:
 5778               	.global	Timebase_DownCounter_SS_Set_Forcefully
 5780               	Timebase_DownCounter_SS_Set_Forcefully:
 5781               	.LFB103:
 5782               	.LM516:
 5783               	.LVL381:
 5784               	/* prologue: function */
 5785               	/* frame size = 0 */
 5786               	.LBB842:
 5787               	.LBB843:
 5788               	.LBB844:
 5789               	.LBB845:
 5790               	.LM517:
 5791 1c5c E091 0000 		lds r30,Timebase
 5792 1c60 F091 0000 		lds r31,(Timebase)+1
 5793 1c64 A82F      		mov r26,r24
 5794 1c66 B0E0      		ldi r27,lo8(0)
 5795 1c68 9D01      		movw r18,r26
 5796 1c6a 94E0      		ldi r25,4
 5797 1c6c 220F      	1:	lsl r18
 5798 1c6e 331F      		rol r19
 5799 1c70 9A95      		dec r25
 5800 1c72 01F4      		brne 1b
 5801 1c74 2A0F      		add r18,r26
 5802 1c76 3B1F      		adc r19,r27
 5803 1c78 E20F      		add r30,r18
 5804 1c7a F31F      		adc r31,r19
 5805 1c7c E85B      		subi r30,lo8(-(72))
 5806 1c7e FF4F      		sbci r31,hi8(-(72))
 5807 1c80 1082      		st Z,__zero_reg__
 5808 1c82 1182      		std Z+1,__zero_reg__
 5809 1c84 1282      		std Z+2,__zero_reg__
 5810 1c86 1382      		std Z+3,__zero_reg__
 5811               	.LBE845:
 5812               	.LBE844:
 5813               	.LBB846:
 5814               	.LBB847:
 5815               	.LM518:
 5816 1c88 1292      		st -Z,__zero_reg__
 5817 1c8a 1292      		st -Z,__zero_reg__
 5818 1c8c 1292      		st -Z,__zero_reg__
 5819 1c8e 1292      		st -Z,__zero_reg__
 5820               	.LBE847:
 5821               	.LBE846:
 5822               	.LBB848:
 5823               	.LBB849:
 5824               	.LM519:
 5825 1c90 3896      		adiw r30,8
 5826 1c92 1082      		st Z,__zero_reg__
 5827 1c94 1182      		std Z+1,__zero_reg__
 5828 1c96 1282      		std Z+2,__zero_reg__
 5829 1c98 1382      		std Z+3,__zero_reg__
 5830               	.LBE849:
 5831               	.LBE848:
 5832               	.LBB850:
 5833               	.LBB851:
 5834               	.LM520:
 5835 1c9a 3997      		sbiw r30,9
 5836 1c9c 9081      		ld r25,Z
 5837               	.LBE851:
 5838               	.LBE850:
 5839               	.LBB852:
 5840               	.LBB853:
 5841               	.LM521:
 5842 1c9e 907E      		andi r25,lo8(-32)
 5843 1ca0 9083      		st Z,r25
 5844               	.LBE853:
 5845               	.LBE852:
 5846               	.LBE843:
 5847               	.LBE842:
 5848               	.LM522:
 5849 1ca2 0E94 0000 		call Timebase_DownCounter_SS_Set_Securely
 5850               	.LVL382:
 5851               	/* epilogue start */
 5852               	.LM523:
 5853 1ca6 0895      		ret
 5854               	.LFE103:
 5856               	.global	Timebase_DownCounter_SS_Update
 5858               	Timebase_DownCounter_SS_Update:
 5859               	.LFB104:
 5860               	.LM524:
 5861               	.LVL383:
 5862 1ca8 2F92      		push r2
 5863 1caa 3F92      		push r3
 5864 1cac 4F92      		push r4
 5865 1cae 5F92      		push r5
 5866 1cb0 6F92      		push r6
 5867 1cb2 7F92      		push r7
 5868 1cb4 8F92      		push r8
 5869 1cb6 9F92      		push r9
 5870 1cb8 AF92      		push r10
 5871 1cba BF92      		push r11
 5872 1cbc CF92      		push r12
 5873 1cbe DF92      		push r13
 5874 1cc0 EF92      		push r14
 5875 1cc2 FF92      		push r15
 5876 1cc4 0F93      		push r16
 5877 1cc6 1F93      		push r17
 5878 1cc8 CF93      		push r28
 5879 1cca DF93      		push r29
 5880               	/* prologue: function */
 5881               	/* frame size = 0 */
 5882               	.LBB854:
 5883               	.LBB855:
 5884               	.LM525:
 5885 1ccc E091 0000 		lds r30,Timebase
 5886 1cd0 F091 0000 		lds r31,(Timebase)+1
 5887 1cd4 90E0      		ldi r25,lo8(0)
 5888 1cd6 EC01      		movw r28,r24
 5889               	.LVL384:
 5890 1cd8 44E0      		ldi r20,4
 5891 1cda CC0F      	1:	lsl r28
 5892 1cdc DD1F      		rol r29
 5893 1cde 4A95      		dec r20
 5894 1ce0 01F4      		brne 1b
 5895 1ce2 C80F      		add r28,r24
 5896 1ce4 D91F      		adc r29,r25
 5897 1ce6 CE0F      		add r28,r30
 5898 1ce8 DF1F      		adc r29,r31
 5899 1cea 33E4      		ldi r19,lo8(67)
 5900 1cec C32E      		mov r12,r19
 5901 1cee D12C      		mov r13,__zero_reg__
 5902 1cf0 CC0E      		add r12,r28
 5903 1cf2 DD1E      		adc r13,r29
 5904 1cf4 D601      		movw r26,r12
 5905 1cf6 8C91      		ld r24,X
 5906 1cf8 8695      		lsr r24
 5907 1cfa 8F70      		andi r24,lo8(15)
 5908               	.LBE855:
 5909               	.LBE854:
 5910               	.LM526:
 5911 1cfc 8130      		cpi r24,lo8(1)
 5912 1cfe 01F0      		breq .+2
 5913 1d00 00C0      		rjmp .L266
 5914               	.LBB856:
 5915               	.LBB857:
 5916               	.LM527:
 5917 1d02 E780      		ldd r14,Z+7
 5918 1d04 F084      		ldd r15,Z+8
 5919               	.LBE857:
 5920               	.LBE856:
 5921               	.LM528:
 5922 1d06 00E0      		ldi r16,lo8(0)
 5923 1d08 10E0      		ldi r17,hi8(0)
 5924               	.LVL385:
 5925               	.LBB858:
 5926               	.LBB859:
 5927               	.LM529:
 5928 1d0a 6184      		ldd r6,Z+9
 5929 1d0c 7284      		ldd r7,Z+10
 5930 1d0e 8384      		ldd r8,Z+11
 5931 1d10 9484      		ldd r9,Z+12
 5932               	.LVL386:
 5933               	.LBE859:
 5934               	.LBE858:
 5935               	.LM530:
 5936 1d12 24E4      		ldi r18,lo8(68)
 5937 1d14 A22E      		mov r10,r18
 5938 1d16 B12C      		mov r11,__zero_reg__
 5939 1d18 AC0E      		add r10,r28
 5940 1d1a BD1E      		adc r11,r29
 5941 1d1c D501      		movw r26,r10
 5942 1d1e 2D91      		ld r18,X+
 5943 1d20 3D91      		ld r19,X+
 5944 1d22 4D91      		ld r20,X+
 5945 1d24 5C91      		ld r21,X
 5946 1d26 2619      		sub r18,r6
 5947 1d28 3709      		sbc r19,r7
 5948 1d2a 4809      		sbc r20,r8
 5949 1d2c 5909      		sbc r21,r9
 5950               	.LM531:
 5951 1d2e 6081      		ld r22,Z
 5952 1d30 7181      		ldd r23,Z+1
 5953               	.LM532:
 5954 1d32 80E0      		ldi r24,lo8(0)
 5955 1d34 90E0      		ldi r25,hi8(0)
 5956 1d36 0E94 0000 		call __mulsi3
 5957 1d3a 6E19      		sub r22,r14
 5958 1d3c 7F09      		sbc r23,r15
 5959 1d3e 800B      		sbc r24,r16
 5960 1d40 910B      		sbc r25,r17
 5961               	.LVL387:
 5962               	.LM533:
 5963 1d42 DE01      		movw r26,r28
 5964 1d44 A85B      		subi r26,lo8(-(72))
 5965 1d46 BF4F      		sbci r27,hi8(-(72))
 5966 1d48 2D91      		ld r18,X+
 5967 1d4a 3D91      		ld r19,X+
 5968 1d4c 4D91      		ld r20,X+
 5969 1d4e 5C91      		ld r21,X
 5970 1d50 1397      		sbiw r26,3
 5971 1d52 620F      		add r22,r18
 5972 1d54 731F      		adc r23,r19
 5973 1d56 841F      		adc r24,r20
 5974 1d58 951F      		adc r25,r21
 5975               	.LBB860:
 5976               	.LBB861:
 5977               	.LM534:
 5978 1d5a FE01      		movw r30,r28
 5979 1d5c E45B      		subi r30,lo8(-(76))
 5980 1d5e FF4F      		sbci r31,hi8(-(76))
 5981 1d60 6083      		st Z,r22
 5982 1d62 7183      		std Z+1,r23
 5983 1d64 8283      		std Z+2,r24
 5984 1d66 9383      		std Z+3,r25
 5985               	.LBE861:
 5986               	.LBE860:
 5987               	.LM535:
 5988 1d68 1616      		cp __zero_reg__,r22
 5989 1d6a 1706      		cpc __zero_reg__,r23
 5990 1d6c 1806      		cpc __zero_reg__,r24
 5991 1d6e 1906      		cpc __zero_reg__,r25
 5992 1d70 04F4      		brge .+2
 5993 1d72 00C0      		rjmp .L268
 5994               	.LBB862:
 5995               	.LBB863:
 5996               	.LBB864:
 5997               	.LBB865:
 5998               	.LM536:
 5999 1d74 1D92      		st X+,__zero_reg__
 6000 1d76 1D92      		st X+,__zero_reg__
 6001 1d78 1D92      		st X+,__zero_reg__
 6002 1d7a 1C92      		st X,__zero_reg__
 6003 1d7c 1397      		sbiw r26,3
 6004               	.LBE865:
 6005               	.LBE864:
 6006               	.LBB866:
 6007               	.LBB867:
 6008               	.LM537:
 6009 1d7e D501      		movw r26,r10
 6010 1d80 1D92      		st X+,__zero_reg__
 6011 1d82 1D92      		st X+,__zero_reg__
 6012 1d84 1D92      		st X+,__zero_reg__
 6013 1d86 1C92      		st X,__zero_reg__
 6014 1d88 1397      		sbiw r26,3
 6015               	.LBE867:
 6016               	.LBE866:
 6017               	.LBB868:
 6018               	.LBB869:
 6019               	.LM538:
 6020 1d8a 1082      		st Z,__zero_reg__
 6021 1d8c 1182      		std Z+1,__zero_reg__
 6022 1d8e 1282      		std Z+2,__zero_reg__
 6023 1d90 1382      		std Z+3,__zero_reg__
 6024               	.LBE869:
 6025               	.LBE868:
 6026               	.LBB870:
 6027               	.LBB871:
 6028               	.LM539:
 6029 1d92 F601      		movw r30,r12
 6030 1d94 8081      		ld r24,Z
 6031               	.LBE871:
 6032               	.LBE870:
 6033               	.LBE863:
 6034               	.LBE862:
 6035               	.LBB872:
 6036               	.LBB873:
 6037               	.LM540:
 6038 1d96 807E      		andi r24,lo8(-32)
 6039 1d98 8860      		ori r24,lo8(8)
 6040 1d9a 8083      		st Z,r24
 6041 1d9c 00C0      		rjmp .L268
 6042               	.LVL388:
 6043               	.L266:
 6044               	.LBE873:
 6045               	.LBE872:
 6046               	.LM541:
 6047 1d9e 8230      		cpi r24,lo8(2)
 6048 1da0 01F4      		brne .L268
 6049               	.LBB874:
 6050               	.LBB875:
 6051               	.LM542:
 6052 1da2 6780      		ldd r6,Z+7
 6053 1da4 7084      		ldd r7,Z+8
 6054               	.LBE875:
 6055               	.LBE874:
 6056               	.LBB876:
 6057               	.LBB877:
 6058               	.LM543:
 6059 1da6 E184      		ldd r14,Z+9
 6060 1da8 F284      		ldd r15,Z+10
 6061 1daa 0385      		ldd r16,Z+11
 6062 1dac 1485      		ldd r17,Z+12
 6063               	.LVL389:
 6064               	.LBE877:
 6065               	.LBE876:
 6066               	.LBB878:
 6067               	.LBB879:
 6068               	.LM544:
 6069 1dae C45B      		subi r28,lo8(-(76))
 6070 1db0 DF4F      		sbci r29,hi8(-(76))
 6071 1db2 2880      		ld r2,Y
 6072 1db4 3980      		ldd r3,Y+1
 6073 1db6 4A80      		ldd r4,Y+2
 6074 1db8 5B80      		ldd r5,Y+3
 6075               	.LVL390:
 6076               	.LBE879:
 6077               	.LBE878:
 6078               	.LM545:
 6079 1dba 2081      		ld r18,Z
 6080 1dbc 3181      		ldd r19,Z+1
 6081               	.LM546:
 6082 1dbe A080      		ld r10,Z
 6083 1dc0 B180      		ldd r11,Z+1
 6084               	.LBB880:
 6085               	.LBB881:
 6086               	.LM547:
 6087 1dc2 2897      		sbiw r28,8
 6088 1dc4 40E0      		ldi r20,lo8(0)
 6089 1dc6 50E0      		ldi r21,hi8(0)
 6090 1dc8 C201      		movw r24,r4
 6091 1dca B101      		movw r22,r2
 6092 1dcc 0E94 0000 		call __divmodsi4
 6093 1dd0 E20E      		add r14,r18
 6094 1dd2 F31E      		adc r15,r19
 6095 1dd4 041F      		adc r16,r20
 6096 1dd6 151F      		adc r17,r21
 6097 1dd8 E992      		st Y+,r14
 6098 1dda F992      		st Y+,r15
 6099 1ddc 0993      		st Y+,r16
 6100 1dde 1993      		st Y+,r17
 6101               	.LBE881:
 6102               	.LBE880:
 6103               	.LBB882:
 6104               	.LBB883:
 6105               	.LM548:
 6106 1de0 CC24      		clr r12
 6107 1de2 DD24      		clr r13
 6108 1de4 C201      		movw r24,r4
 6109 1de6 B101      		movw r22,r2
 6110 1de8 A601      		movw r20,r12
 6111 1dea 9501      		movw r18,r10
 6112 1dec 0E94 0000 		call __divmodsi4
 6113 1df0 8824      		clr r8
 6114 1df2 9924      		clr r9
 6115 1df4 660E      		add r6,r22
 6116 1df6 771E      		adc r7,r23
 6117 1df8 881E      		adc r8,r24
 6118 1dfa 991E      		adc r9,r25
 6119 1dfc 6882      		st Y,r6
 6120 1dfe 7982      		std Y+1,r7
 6121 1e00 8A82      		std Y+2,r8
 6122 1e02 9B82      		std Y+3,r9
 6123               	.LVL391:
 6124               	.L268:
 6125               	/* epilogue start */
 6126               	.LBE883:
 6127               	.LBE882:
 6128               	.LM549:
 6129 1e04 DF91      		pop r29
 6130 1e06 CF91      		pop r28
 6131 1e08 1F91      		pop r17
 6132 1e0a 0F91      		pop r16
 6133               	.LVL392:
 6134 1e0c FF90      		pop r15
 6135 1e0e EF90      		pop r14
 6136               	.LVL393:
 6137 1e10 DF90      		pop r13
 6138 1e12 CF90      		pop r12
 6139 1e14 BF90      		pop r11
 6140 1e16 AF90      		pop r10
 6141 1e18 9F90      		pop r9
 6142 1e1a 8F90      		pop r8
 6143 1e1c 7F90      		pop r7
 6144 1e1e 6F90      		pop r6
 6145 1e20 5F90      		pop r5
 6146 1e22 4F90      		pop r4
 6147 1e24 3F90      		pop r3
 6148 1e26 2F90      		pop r2
 6149               	.LVL394:
 6150 1e28 0895      		ret
 6151               	.LFE104:
 6153               	.global	Timebase_DownCounter_SS_Expired
 6155               	Timebase_DownCounter_SS_Expired:
 6156               	.LFB105:
 6157               	.LM550:
 6158               	.LVL395:
 6159               	/* prologue: function */
 6160               	/* frame size = 0 */
 6161               	.LM551:
 6162 1e2a 40E0      		ldi r20,lo8(0)
 6163 1e2c E091 0000 		lds r30,Timebase
 6164 1e30 F091 0000 		lds r31,(Timebase)+1
 6165 1e34 90E0      		ldi r25,lo8(0)
 6166               	.LVL396:
 6167 1e36 9C01      		movw r18,r24
 6168 1e38 54E0      		ldi r21,4
 6169 1e3a 220F      	1:	lsl r18
 6170 1e3c 331F      		rol r19
 6171 1e3e 5A95      		dec r21
 6172 1e40 01F4      		brne 1b
 6173 1e42 280F      		add r18,r24
 6174 1e44 391F      		adc r19,r25
 6175 1e46 E20F      		add r30,r18
 6176 1e48 F31F      		adc r31,r19
 6177 1e4a ED5B      		subi r30,lo8(-(67))
 6178 1e4c FF4F      		sbci r31,hi8(-(67))
 6179 1e4e 8081      		ld r24,Z
 6180               	.LVL397:
 6181 1e50 8695      		lsr r24
 6182 1e52 8F70      		andi r24,lo8(15)
 6183 1e54 8430      		cpi r24,lo8(4)
 6184 1e56 01F4      		brne .L270
 6185 1e58 41E0      		ldi r20,lo8(1)
 6186               	.L270:
 6187               	.LM552:
 6188 1e5a 842F      		mov r24,r20
 6189               	/* epilogue start */
 6190 1e5c 0895      		ret
 6191               	.LFE105:
 6193               	.global	Timebase_DownCounter_SS_Expired_Event
 6195               	Timebase_DownCounter_SS_Expired_Event:
 6196               	.LFB106:
 6197               	.LM553:
 6198               	.LVL398:
 6199               	/* prologue: function */
 6200               	/* frame size = 0 */
 6201               	.LBB884:
 6202               	.LBB885:
 6203               	.LM554:
 6204 1e5e E091 0000 		lds r30,Timebase
 6205 1e62 F091 0000 		lds r31,(Timebase)+1
 6206 1e66 90E0      		ldi r25,lo8(0)
 6207               	.LBE885:
 6208               	.LBE884:
 6209               	.LM555:
 6210 1e68 9C01      		movw r18,r24
 6211               	.LVL399:
 6212 1e6a 64E0      		ldi r22,4
 6213 1e6c 220F      	1:	lsl r18
 6214 1e6e 331F      		rol r19
 6215 1e70 6A95      		dec r22
 6216 1e72 01F4      		brne 1b
 6217 1e74 280F      		add r18,r24
 6218 1e76 391F      		adc r19,r25
 6219 1e78 E20F      		add r30,r18
 6220 1e7a F31F      		adc r31,r19
 6221 1e7c DF01      		movw r26,r30
 6222 1e7e AD5B      		subi r26,lo8(-(67))
 6223 1e80 BF4F      		sbci r27,hi8(-(67))
 6224 1e82 8C91      		ld r24,X
 6225 1e84 8695      		lsr r24
 6226 1e86 8F70      		andi r24,lo8(15)
 6227 1e88 8430      		cpi r24,lo8(4)
 6228 1e8a 01F0      		breq .L273
 6229 1e8c 80E0      		ldi r24,lo8(0)
 6230 1e8e 0895      		ret
 6231               	.L273:
 6232               	.LBB886:
 6233               	.LBB887:
 6234               	.LBB888:
 6235               	.LBB889:
 6236               	.LBB890:
 6237               	.LBB891:
 6238               	.LM556:
 6239 1e90 E85B      		subi r30,lo8(-(72))
 6240 1e92 FF4F      		sbci r31,hi8(-(72))
 6241 1e94 1082      		st Z,__zero_reg__
 6242 1e96 1182      		std Z+1,__zero_reg__
 6243 1e98 1282      		std Z+2,__zero_reg__
 6244 1e9a 1382      		std Z+3,__zero_reg__
 6245               	.LBE891:
 6246               	.LBE890:
 6247               	.LBB892:
 6248               	.LBB893:
 6249               	.LM557:
 6250 1e9c 1292      		st -Z,__zero_reg__
 6251 1e9e 1292      		st -Z,__zero_reg__
 6252 1ea0 1292      		st -Z,__zero_reg__
 6253 1ea2 1292      		st -Z,__zero_reg__
 6254               	.LBE893:
 6255               	.LBE892:
 6256               	.LBB894:
 6257               	.LBB895:
 6258               	.LM558:
 6259 1ea4 3896      		adiw r30,8
 6260 1ea6 1082      		st Z,__zero_reg__
 6261 1ea8 1182      		std Z+1,__zero_reg__
 6262 1eaa 1282      		std Z+2,__zero_reg__
 6263 1eac 1382      		std Z+3,__zero_reg__
 6264               	.LBE895:
 6265               	.LBE894:
 6266               	.LBB896:
 6267               	.LBB897:
 6268               	.LM559:
 6269 1eae 8C91      		ld r24,X
 6270               	.LBE897:
 6271               	.LBE896:
 6272               	.LBB898:
 6273               	.LBB899:
 6274               	.LM560:
 6275 1eb0 807E      		andi r24,lo8(-32)
 6276 1eb2 8C93      		st X,r24
 6277 1eb4 81E0      		ldi r24,lo8(1)
 6278               	.LBE899:
 6279               	.LBE898:
 6280               	.LBE889:
 6281               	.LBE888:
 6282               	.LBE887:
 6283               	.LBE886:
 6284               	.LM561:
 6285 1eb6 0895      		ret
 6286               	.LFE106:
 6288               	.global	Timebase_DownCounter_SS_Set_Period_Value_Securely
 6290               	Timebase_DownCounter_SS_Set_Period_Value_Securely:
 6291               	.LFB107:
 6292               	.LM562:
 6293               	.LVL400:
 6294 1eb8 CF93      		push r28
 6295 1eba DF93      		push r29
 6296               	/* prologue: function */
 6297               	/* frame size = 0 */
 6298               	.LBB900:
 6299               	.LBB901:
 6300               	.LM563:
 6301 1ebc C091 0000 		lds r28,Timebase
 6302 1ec0 D091 0000 		lds r29,(Timebase)+1
 6303 1ec4 282F      		mov r18,r24
 6304 1ec6 30E0      		ldi r19,lo8(0)
 6305               	.LBE901:
 6306               	.LBE900:
 6307               	.LM564:
 6308 1ec8 F901      		movw r30,r18
 6309 1eca A4E0      		ldi r26,4
 6310 1ecc EE0F      	1:	lsl r30
 6311 1ece FF1F      		rol r31
 6312 1ed0 AA95      		dec r26
 6313 1ed2 01F4      		brne 1b
 6314 1ed4 E20F      		add r30,r18
 6315 1ed6 F31F      		adc r31,r19
 6316 1ed8 EC0F      		add r30,r28
 6317 1eda FD1F      		adc r31,r29
 6318 1edc ED5B      		subi r30,lo8(-(67))
 6319 1ede FF4F      		sbci r31,hi8(-(67))
 6320 1ee0 8081      		ld r24,Z
 6321               	.LVL401:
 6322 1ee2 E354      		subi r30,lo8(-(-67))
 6323 1ee4 F040      		sbci r31,hi8(-(-67))
 6324 1ee6 80FD      		sbrc r24,0
 6325 1ee8 00C0      		rjmp .L280
 6326               	.LM565:
 6327 1eea E45B      		subi r30,lo8(-(76))
 6328 1eec FF4F      		sbci r31,hi8(-(76))
 6329 1eee 8191      		ld r24,Z+
 6330 1ef0 9191      		ld r25,Z+
 6331 1ef2 A191      		ld r26,Z+
 6332 1ef4 B191      		ld r27,Z+
 6333 1ef6 841B      		sub r24,r20
 6334 1ef8 950B      		sbc r25,r21
 6335 1efa A60B      		sbc r26,r22
 6336 1efc B70B      		sbc r27,r23
 6337               	.LBB902:
 6338               	.LBB903:
 6339               	.LM566:
 6340 1efe B7FF      		sbrs r27,7
 6341 1f00 00C0      		rjmp .L278
 6342               	.LM567:
 6343 1f02 1082      		st Z,__zero_reg__
 6344 1f04 1182      		std Z+1,__zero_reg__
 6345 1f06 1282      		std Z+2,__zero_reg__
 6346 1f08 1382      		std Z+3,__zero_reg__
 6347 1f0a 00C0      		rjmp .L279
 6348               	.L278:
 6349               	.LM568:
 6350 1f0c 8083      		st Z,r24
 6351 1f0e 9183      		std Z+1,r25
 6352 1f10 A283      		std Z+2,r26
 6353 1f12 B383      		std Z+3,r27
 6354               	.L279:
 6355               	.LBE903:
 6356               	.LBE902:
 6357               	.LBB904:
 6358               	.LBB905:
 6359               	.LM569:
 6360 1f14 F901      		movw r30,r18
 6361 1f16 74E0      		ldi r23,4
 6362 1f18 EE0F      	1:	lsl r30
 6363 1f1a FF1F      		rol r31
 6364 1f1c 7A95      		dec r23
 6365 1f1e 01F4      		brne 1b
 6366 1f20 E20F      		add r30,r18
 6367 1f22 F31F      		adc r31,r19
 6368 1f24 EC0F      		add r30,r28
 6369 1f26 FD1F      		adc r31,r29
 6370 1f28 ED5B      		subi r30,lo8(-(67))
 6371 1f2a FF4F      		sbci r31,hi8(-(67))
 6372 1f2c 8081      		ld r24,Z
 6373 1f2e 8160      		ori r24,lo8(1)
 6374 1f30 8083      		st Z,r24
 6375               	.L280:
 6376               	/* epilogue start */
 6377               	.LBE905:
 6378               	.LBE904:
 6379               	.LM570:
 6380 1f32 DF91      		pop r29
 6381 1f34 CF91      		pop r28
 6382 1f36 0895      		ret
 6383               	.LFE107:
 6385               	.global	Timebase_DownCounter_SS_Get_Remaining_Period_Value
 6387               	Timebase_DownCounter_SS_Get_Remaining_Period_Value:
 6388               	.LFB108:
 6389               	.LM571:
 6390               	.LVL402:
 6391               	/* prologue: function */
 6392               	/* frame size = 0 */
 6393               	.LBB906:
 6394               	.LBB907:
 6395               	.LM572:
 6396 1f38 E091 0000 		lds r30,Timebase
 6397 1f3c F091 0000 		lds r31,(Timebase)+1
 6398 1f40 90E0      		ldi r25,lo8(0)
 6399               	.LBE907:
 6400               	.LBE906:
 6401               	.LM573:
 6402 1f42 9C01      		movw r18,r24
 6403               	.LVL403:
 6404 1f44 B4E0      		ldi r27,4
 6405 1f46 220F      	1:	lsl r18
 6406 1f48 331F      		rol r19
 6407 1f4a BA95      		dec r27
 6408 1f4c 01F4      		brne 1b
 6409 1f4e 280F      		add r18,r24
 6410 1f50 391F      		adc r19,r25
 6411 1f52 E20F      		add r30,r18
 6412 1f54 F31F      		adc r31,r19
 6413 1f56 DF01      		movw r26,r30
 6414 1f58 A05B      		subi r26,lo8(-(80))
 6415 1f5a BF4F      		sbci r27,hi8(-(80))
 6416 1f5c E45B      		subi r30,lo8(-(76))
 6417 1f5e FF4F      		sbci r31,hi8(-(76))
 6418 1f60 2081      		ld r18,Z
 6419 1f62 3181      		ldd r19,Z+1
 6420 1f64 4281      		ldd r20,Z+2
 6421 1f66 5381      		ldd r21,Z+3
 6422               	.LVL404:
 6423 1f68 8D91      		ld r24,X+
 6424 1f6a 9D91      		ld r25,X+
 6425 1f6c 0D90      		ld __tmp_reg__,X+
 6426 1f6e BC91      		ld r27,X
 6427 1f70 A02D      		mov r26,__tmp_reg__
 6428 1f72 281B      		sub r18,r24
 6429 1f74 390B      		sbc r19,r25
 6430 1f76 4A0B      		sbc r20,r26
 6431 1f78 5B0B      		sbc r21,r27
 6432 1f7a 57FF      		sbrs r21,7
 6433 1f7c 00C0      		rjmp .L282
 6434 1f7e 20E0      		ldi r18,lo8(0)
 6435 1f80 30E0      		ldi r19,hi8(0)
 6436 1f82 40E0      		ldi r20,hlo8(0)
 6437 1f84 50E0      		ldi r21,hhi8(0)
 6438               	.L282:
 6439               	.LM574:
 6440 1f86 B901      		movw r22,r18
 6441               	.LVL405:
 6442 1f88 CA01      		movw r24,r20
 6443               	/* epilogue start */
 6444 1f8a 0895      		ret
 6445               	.LFE108:
 6447               	.global	Timebase_DownCounter_SS_Period_Value_Expired
 6449               	Timebase_DownCounter_SS_Period_Value_Expired:
 6450               	.LFB109:
 6451               	.LM575:
 6452               	.LVL406:
 6453 1f8c CF93      		push r28
 6454 1f8e DF93      		push r29
 6455               	/* prologue: function */
 6456               	/* frame size = 0 */
 6457               	.LBB908:
 6458               	.LBB909:
 6459               	.LBB910:
 6460               	.LBB911:
 6461               	.LM576:
 6462 1f90 C091 0000 		lds r28,Timebase
 6463 1f94 D091 0000 		lds r29,(Timebase)+1
 6464 1f98 682F      		mov r22,r24
 6465 1f9a 70E0      		ldi r23,lo8(0)
 6466               	.LBE911:
 6467               	.LBE910:
 6468               	.LM577:
 6469 1f9c FB01      		movw r30,r22
 6470 1f9e 44E0      		ldi r20,4
 6471 1fa0 EE0F      	1:	lsl r30
 6472 1fa2 FF1F      		rol r31
 6473 1fa4 4A95      		dec r20
 6474 1fa6 01F4      		brne 1b
 6475 1fa8 E60F      		add r30,r22
 6476 1faa F71F      		adc r31,r23
 6477 1fac EC0F      		add r30,r28
 6478 1fae FD1F      		adc r31,r29
 6479 1fb0 DF01      		movw r26,r30
 6480 1fb2 A05B      		subi r26,lo8(-(80))
 6481 1fb4 BF4F      		sbci r27,hi8(-(80))
 6482 1fb6 E45B      		subi r30,lo8(-(76))
 6483 1fb8 FF4F      		sbci r31,hi8(-(76))
 6484 1fba 2081      		ld r18,Z
 6485 1fbc 3181      		ldd r19,Z+1
 6486 1fbe 4281      		ldd r20,Z+2
 6487 1fc0 5381      		ldd r21,Z+3
 6488               	.LVL407:
 6489 1fc2 8D91      		ld r24,X+
 6490 1fc4 9D91      		ld r25,X+
 6491 1fc6 0D90      		ld __tmp_reg__,X+
 6492 1fc8 BC91      		ld r27,X
 6493 1fca A02D      		mov r26,__tmp_reg__
 6494               	.LVL408:
 6495 1fcc 281B      		sub r18,r24
 6496 1fce 390B      		sbc r19,r25
 6497 1fd0 4A0B      		sbc r20,r26
 6498 1fd2 5B0B      		sbc r21,r27
 6499               	.LM578:
 6500 1fd4 57FD      		sbrc r21,7
 6501 1fd6 00C0      		rjmp .L285
 6502               	.LBE909:
 6503               	.LBE908:
 6504               	.LM579:
 6505 1fd8 2115      		cp r18,__zero_reg__
 6506 1fda 3105      		cpc r19,__zero_reg__
 6507 1fdc 4105      		cpc r20,__zero_reg__
 6508 1fde 5105      		cpc r21,__zero_reg__
 6509 1fe0 01F0      		breq .L285
 6510 1fe2 20E0      		ldi r18,lo8(0)
 6511               	.LVL409:
 6512 1fe4 00C0      		rjmp .L286
 6513               	.LVL410:
 6514               	.L285:
 6515 1fe6 20E0      		ldi r18,lo8(0)
 6516               	.LVL411:
 6517 1fe8 CB01      		movw r24,r22
 6518 1fea 34E0      		ldi r19,4
 6519 1fec 880F      	1:	lsl r24
 6520 1fee 991F      		rol r25
 6521 1ff0 3A95      		dec r19
 6522 1ff2 01F4      		brne 1b
 6523 1ff4 860F      		add r24,r22
 6524 1ff6 971F      		adc r25,r23
 6525 1ff8 C80F      		add r28,r24
 6526 1ffa D91F      		adc r29,r25
 6527 1ffc CD5B      		subi r28,lo8(-(67))
 6528 1ffe DF4F      		sbci r29,hi8(-(67))
 6529 2000 8881      		ld r24,Y
 6530 2002 80FF      		sbrs r24,0
 6531 2004 21E0      		ldi r18,lo8(1)
 6532               	.L287:
 6533 2006 81E0      		ldi r24,lo8(1)
 6534 2008 2827      		eor r18,r24
 6535               	.L286:
 6536               	.LM580:
 6537 200a 822F      		mov r24,r18
 6538               	/* epilogue start */
 6539 200c DF91      		pop r29
 6540 200e CF91      		pop r28
 6541 2010 0895      		ret
 6542               	.LFE109:
 6544               	.global	Timebase_DownCounter_SS_Period_Value_Expired_Event
 6546               	Timebase_DownCounter_SS_Period_Value_Expired_Event:
 6547               	.LFB110:
 6548               	.LM581:
 6549               	.LVL412:
 6550 2012 1F93      		push r17
 6551               	/* prologue: function */
 6552               	/* frame size = 0 */
 6553 2014 182F      		mov r17,r24
 6554               	.LM582:
 6555 2016 0E94 0000 		call Timebase_DownCounter_SS_Period_Value_Expired
 6556               	.LVL413:
 6557 201a 8130      		cpi r24,lo8(1)
 6558 201c 01F0      		breq .L290
 6559 201e 80E0      		ldi r24,lo8(0)
 6560 2020 00C0      		rjmp .L291
 6561               	.L290:
 6562               	.LBB912:
 6563               	.LBB913:
 6564               	.LM583:
 6565 2022 E091 0000 		lds r30,Timebase
 6566 2026 F091 0000 		lds r31,(Timebase)+1
 6567 202a 212F      		mov r18,r17
 6568 202c 30E0      		ldi r19,lo8(0)
 6569               	.LVL414:
 6570 202e C901      		movw r24,r18
 6571 2030 54E0      		ldi r21,4
 6572 2032 880F      	1:	lsl r24
 6573 2034 991F      		rol r25
 6574 2036 5A95      		dec r21
 6575 2038 01F4      		brne 1b
 6576 203a 820F      		add r24,r18
 6577 203c 931F      		adc r25,r19
 6578 203e E80F      		add r30,r24
 6579 2040 F91F      		adc r31,r25
 6580 2042 ED5B      		subi r30,lo8(-(67))
 6581 2044 FF4F      		sbci r31,hi8(-(67))
 6582 2046 8081      		ld r24,Z
 6583 2048 8E7F      		andi r24,lo8(-2)
 6584 204a 8083      		st Z,r24
 6585 204c 81E0      		ldi r24,lo8(1)
 6586               	.L291:
 6587               	/* epilogue start */
 6588               	.LBE913:
 6589               	.LBE912:
 6590               	.LM584:
 6591 204e 1F91      		pop r17
 6592               	.LVL415:
 6593 2050 0895      		ret
 6594               	.LFE110:
 6596               	.global	Timebase_DownCounter_SS_Update_All
 6598               	Timebase_DownCounter_SS_Update_All:
 6599               	.LFB111:
 6600               	.LM585:
 6601               	/* prologue: function */
 6602               	/* frame size = 0 */
 6603               	.LBB914:
 6604               	.LM586:
 6605 2052 80E0      		ldi r24,lo8(0)
 6606 2054 0E94 0000 		call Timebase_DownCounter_SS_Update
 6607               	/* epilogue start */
 6608               	.LBE914:
 6609               	.LM587:
 6610 2058 0895      		ret
 6611               	.LFE111:
 6613               	.global	Timebase_DownCounter_SS_Reset_All
 6615               	Timebase_DownCounter_SS_Reset_All:
 6616               	.LFB112:
 6617               	.LM588:
 6618               	/* prologue: function */
 6619               	/* frame size = 0 */
 6620               	.LBB915:
 6621               	.LBB916:
 6622               	.LBB917:
 6623               	.LBB918:
 6624               	.LBB919:
 6625               	.LM589:
 6626 205a E091 0000 		lds r30,Timebase
 6627 205e F091 0000 		lds r31,(Timebase)+1
 6628 2062 E85B      		subi r30,lo8(-(72))
 6629 2064 FF4F      		sbci r31,hi8(-(72))
 6630 2066 1082      		st Z,__zero_reg__
 6631 2068 1182      		std Z+1,__zero_reg__
 6632 206a 1282      		std Z+2,__zero_reg__
 6633 206c 1382      		std Z+3,__zero_reg__
 6634               	.LBE919:
 6635               	.LBE918:
 6636               	.LBB920:
 6637               	.LBB921:
 6638               	.LM590:
 6639 206e 1292      		st -Z,__zero_reg__
 6640 2070 1292      		st -Z,__zero_reg__
 6641 2072 1292      		st -Z,__zero_reg__
 6642 2074 1292      		st -Z,__zero_reg__
 6643               	.LBE921:
 6644               	.LBE920:
 6645               	.LBB922:
 6646               	.LBB923:
 6647               	.LM591:
 6648 2076 3896      		adiw r30,8
 6649 2078 1082      		st Z,__zero_reg__
 6650 207a 1182      		std Z+1,__zero_reg__
 6651 207c 1282      		std Z+2,__zero_reg__
 6652 207e 1382      		std Z+3,__zero_reg__
 6653               	.LBE923:
 6654               	.LBE922:
 6655               	.LBB924:
 6656               	.LBB925:
 6657               	.LM592:
 6658 2080 3997      		sbiw r30,9
 6659 2082 8081      		ld r24,Z
 6660               	.LBE925:
 6661               	.LBE924:
 6662               	.LBB926:
 6663               	.LBB927:
 6664               	.LM593:
 6665 2084 807E      		andi r24,lo8(-32)
 6666 2086 8083      		st Z,r24
 6667               	/* epilogue start */
 6668               	.LBE927:
 6669               	.LBE926:
 6670               	.LBE917:
 6671               	.LBE916:
 6672               	.LBE915:
 6673               	.LM594:
 6674 2088 0895      		ret
 6675               	.LFE112:
 6677               	.global	Timebase_DownCounter_Get_Status
 6679               	Timebase_DownCounter_Get_Status:
 6680               	.LFB113:
 6681               	.LM595:
 6682               	.LVL416:
 6683               	/* prologue: function */
 6684               	/* frame size = 0 */
 6685               	.LM596:
 6686 208a E091 0000 		lds r30,Timebase
 6687 208e F091 0000 		lds r31,(Timebase)+1
 6688 2092 90E0      		ldi r25,lo8(0)
 6689               	.LVL417:
 6690 2094 2DE0      		ldi r18,lo8(13)
 6691 2096 30E0      		ldi r19,hi8(13)
 6692 2098 AC01      		movw r20,r24
 6693 209a 429F      		mul r20,r18
 6694 209c C001      		movw r24,r0
 6695 209e 439F      		mul r20,r19
 6696 20a0 900D      		add r25,r0
 6697 20a2 529F      		mul r21,r18
 6698 20a4 900D      		add r25,r0
 6699 20a6 1124      		clr r1
 6700               	.LVL418:
 6701 20a8 E80F      		add r30,r24
 6702 20aa F91F      		adc r31,r25
 6703 20ac EC5A      		subi r30,lo8(-(84))
 6704 20ae FF4F      		sbci r31,hi8(-(84))
 6705 20b0 8081      		ld r24,Z
 6706 20b2 8695      		lsr r24
 6707               	.LM597:
 6708 20b4 8F70      		andi r24,lo8(15)
 6709               	/* epilogue start */
 6710 20b6 0895      		ret
 6711               	.LFE113:
 6713               	.global	Timebase_DownCounter_Set_Status
 6715               	Timebase_DownCounter_Set_Status:
 6716               	.LFB114:
 6717               	.LM598:
 6718               	.LVL419:
 6719               	/* prologue: function */
 6720               	/* frame size = 0 */
 6721               	.LM599:
 6722 20b8 E091 0000 		lds r30,Timebase
 6723 20bc F091 0000 		lds r31,(Timebase)+1
 6724 20c0 90E0      		ldi r25,lo8(0)
 6725               	.LVL420:
 6726 20c2 2DE0      		ldi r18,lo8(13)
 6727 20c4 30E0      		ldi r19,hi8(13)
 6728 20c6 AC01      		movw r20,r24
 6729 20c8 429F      		mul r20,r18
 6730 20ca C001      		movw r24,r0
 6731 20cc 439F      		mul r20,r19
 6732 20ce 900D      		add r25,r0
 6733 20d0 529F      		mul r21,r18
 6734 20d2 900D      		add r25,r0
 6735 20d4 1124      		clr r1
 6736               	.LVL421:
 6737 20d6 E80F      		add r30,r24
 6738 20d8 F91F      		adc r31,r25
 6739 20da EC5A      		subi r30,lo8(-(84))
 6740 20dc FF4F      		sbci r31,hi8(-(84))
 6741 20de 6F70      		andi r22,lo8(15)
 6742               	.LVL422:
 6743 20e0 660F      		lsl r22
 6744 20e2 8081      		ld r24,Z
 6745 20e4 817E      		andi r24,lo8(-31)
 6746 20e6 862B      		or r24,r22
 6747 20e8 8083      		st Z,r24
 6748               	/* epilogue start */
 6749               	.LM600:
 6750 20ea 0895      		ret
 6751               	.LFE114:
 6753               	.global	Timebase_DownCounter_Get_Value
 6755               	Timebase_DownCounter_Get_Value:
 6756               	.LFB115:
 6757               	.LM601:
 6758               	.LVL423:
 6759               	/* prologue: function */
 6760               	/* frame size = 0 */
 6761               	.LM602:
 6762 20ec E091 0000 		lds r30,Timebase
 6763 20f0 F091 0000 		lds r31,(Timebase)+1
 6764 20f4 90E0      		ldi r25,lo8(0)
 6765               	.LVL424:
 6766 20f6 2DE0      		ldi r18,lo8(13)
 6767 20f8 30E0      		ldi r19,hi8(13)
 6768 20fa AC01      		movw r20,r24
 6769 20fc 429F      		mul r20,r18
 6770 20fe C001      		movw r24,r0
 6771 2100 439F      		mul r20,r19
 6772 2102 900D      		add r25,r0
 6773 2104 529F      		mul r21,r18
 6774 2106 900D      		add r25,r0
 6775 2108 1124      		clr r1
 6776               	.LVL425:
 6777 210a E80F      		add r30,r24
 6778 210c F91F      		adc r31,r25
 6779 210e E75A      		subi r30,lo8(-(89))
 6780 2110 FF4F      		sbci r31,hi8(-(89))
 6781 2112 6081      		ld r22,Z
 6782 2114 7181      		ldd r23,Z+1
 6783               	.LM603:
 6784 2116 8281      		ldd r24,Z+2
 6785 2118 9381      		ldd r25,Z+3
 6786               	.LVL426:
 6787               	/* epilogue start */
 6788 211a 0895      		ret
 6789               	.LFE115:
 6791               	.global	Timebase_DownCounter_Set_Value
 6793               	Timebase_DownCounter_Set_Value:
 6794               	.LFB116:
 6795               	.LM604:
 6796               	.LVL427:
 6797               	/* prologue: function */
 6798               	/* frame size = 0 */
 6799               	.LM605:
 6800 211c E091 0000 		lds r30,Timebase
 6801 2120 F091 0000 		lds r31,(Timebase)+1
 6802 2124 90E0      		ldi r25,lo8(0)
 6803               	.LVL428:
 6804 2126 2DE0      		ldi r18,lo8(13)
 6805 2128 30E0      		ldi r19,hi8(13)
 6806 212a DC01      		movw r26,r24
 6807 212c A29F      		mul r26,r18
 6808 212e C001      		movw r24,r0
 6809 2130 A39F      		mul r26,r19
 6810 2132 900D      		add r25,r0
 6811 2134 B29F      		mul r27,r18
 6812 2136 900D      		add r25,r0
 6813 2138 1124      		clr r1
 6814               	.LVL429:
 6815 213a E80F      		add r30,r24
 6816 213c F91F      		adc r31,r25
 6817 213e E75A      		subi r30,lo8(-(89))
 6818 2140 FF4F      		sbci r31,hi8(-(89))
 6819 2142 4083      		st Z,r20
 6820 2144 5183      		std Z+1,r21
 6821 2146 6283      		std Z+2,r22
 6822 2148 7383      		std Z+3,r23
 6823               	/* epilogue start */
 6824               	.LM606:
 6825 214a 0895      		ret
 6826               	.LFE116:
 6828               	.global	Timebase_DownCounter_Get_EndValue
 6830               	Timebase_DownCounter_Get_EndValue:
 6831               	.LFB117:
 6832               	.LM607:
 6833               	.LVL430:
 6834               	/* prologue: function */
 6835               	/* frame size = 0 */
 6836               	.LM608:
 6837 214c E091 0000 		lds r30,Timebase
 6838 2150 F091 0000 		lds r31,(Timebase)+1
 6839 2154 90E0      		ldi r25,lo8(0)
 6840               	.LVL431:
 6841 2156 2DE0      		ldi r18,lo8(13)
 6842 2158 30E0      		ldi r19,hi8(13)
 6843 215a AC01      		movw r20,r24
 6844 215c 429F      		mul r20,r18
 6845 215e C001      		movw r24,r0
 6846 2160 439F      		mul r20,r19
 6847 2162 900D      		add r25,r0
 6848 2164 529F      		mul r21,r18
 6849 2166 900D      		add r25,r0
 6850 2168 1124      		clr r1
 6851               	.LVL432:
 6852 216a E80F      		add r30,r24
 6853 216c F91F      		adc r31,r25
 6854 216e EB5A      		subi r30,lo8(-(85))
 6855 2170 FF4F      		sbci r31,hi8(-(85))
 6856 2172 6081      		ld r22,Z
 6857 2174 7181      		ldd r23,Z+1
 6858               	.LM609:
 6859 2176 8281      		ldd r24,Z+2
 6860 2178 9381      		ldd r25,Z+3
 6861               	.LVL433:
 6862               	/* epilogue start */
 6863 217a 0895      		ret
 6864               	.LFE117:
 6866               	.global	Timebase_DownCounter_Set_EndValue
 6868               	Timebase_DownCounter_Set_EndValue:
 6869               	.LFB118:
 6870               	.LM610:
 6871               	.LVL434:
 6872               	/* prologue: function */
 6873               	/* frame size = 0 */
 6874               	.LM611:
 6875 217c E091 0000 		lds r30,Timebase
 6876 2180 F091 0000 		lds r31,(Timebase)+1
 6877 2184 90E0      		ldi r25,lo8(0)
 6878               	.LVL435:
 6879 2186 2DE0      		ldi r18,lo8(13)
 6880 2188 30E0      		ldi r19,hi8(13)
 6881 218a DC01      		movw r26,r24
 6882 218c A29F      		mul r26,r18
 6883 218e C001      		movw r24,r0
 6884 2190 A39F      		mul r26,r19
 6885 2192 900D      		add r25,r0
 6886 2194 B29F      		mul r27,r18
 6887 2196 900D      		add r25,r0
 6888 2198 1124      		clr r1
 6889               	.LVL436:
 6890 219a E80F      		add r30,r24
 6891 219c F91F      		adc r31,r25
 6892 219e EB5A      		subi r30,lo8(-(85))
 6893 21a0 FF4F      		sbci r31,hi8(-(85))
 6894 21a2 4083      		st Z,r20
 6895 21a4 5183      		std Z+1,r21
 6896 21a6 6283      		std Z+2,r22
 6897 21a8 7383      		std Z+3,r23
 6898               	/* epilogue start */
 6899               	.LM612:
 6900 21aa 0895      		ret
 6901               	.LFE118:
 6903               	.global	Timebase_DownCounter_Get_PeriodValue
 6905               	Timebase_DownCounter_Get_PeriodValue:
 6906               	.LFB119:
 6907               	.LM613:
 6908               	.LVL437:
 6909               	/* prologue: function */
 6910               	/* frame size = 0 */
 6911               	.LM614:
 6912 21ac E091 0000 		lds r30,Timebase
 6913 21b0 F091 0000 		lds r31,(Timebase)+1
 6914 21b4 90E0      		ldi r25,lo8(0)
 6915               	.LVL438:
 6916 21b6 2DE0      		ldi r18,lo8(13)
 6917 21b8 30E0      		ldi r19,hi8(13)
 6918 21ba AC01      		movw r20,r24
 6919 21bc 429F      		mul r20,r18
 6920 21be C001      		movw r24,r0
 6921 21c0 439F      		mul r20,r19
 6922 21c2 900D      		add r25,r0
 6923 21c4 529F      		mul r21,r18
 6924 21c6 900D      		add r25,r0
 6925 21c8 1124      		clr r1
 6926               	.LVL439:
 6927 21ca E80F      		add r30,r24
 6928 21cc F91F      		adc r31,r25
 6929 21ce E35A      		subi r30,lo8(-(93))
 6930 21d0 FF4F      		sbci r31,hi8(-(93))
 6931 21d2 6081      		ld r22,Z
 6932 21d4 7181      		ldd r23,Z+1
 6933               	.LM615:
 6934 21d6 8281      		ldd r24,Z+2
 6935 21d8 9381      		ldd r25,Z+3
 6936               	.LVL440:
 6937               	/* epilogue start */
 6938 21da 0895      		ret
 6939               	.LFE119:
 6941               	.global	Timebase_DownCounter_Set_PeriodValue
 6943               	Timebase_DownCounter_Set_PeriodValue:
 6944               	.LFB120:
 6945               	.LM616:
 6946               	.LVL441:
 6947               	/* prologue: function */
 6948               	/* frame size = 0 */
 6949 21dc E091 0000 		lds r30,Timebase
 6950 21e0 F091 0000 		lds r31,(Timebase)+1
 6951 21e4 282F      		mov r18,r24
 6952 21e6 30E0      		ldi r19,lo8(0)
 6953               	.LVL442:
 6954               	.LM617:
 6955 21e8 77FF      		sbrs r23,7
 6956 21ea 00C0      		rjmp .L312
 6957               	.LVL443:
 6958               	.LM618:
 6959 21ec 8DE0      		ldi r24,lo8(13)
 6960 21ee 90E0      		ldi r25,hi8(13)
 6961 21f0 AC01      		movw r20,r24
 6962               	.LVL444:
 6963 21f2 249F      		mul r18,r20
 6964 21f4 C001      		movw r24,r0
 6965 21f6 259F      		mul r18,r21
 6966 21f8 900D      		add r25,r0
 6967 21fa 349F      		mul r19,r20
 6968 21fc 900D      		add r25,r0
 6969 21fe 1124      		clr r1
 6970 2200 E80F      		add r30,r24
 6971 2202 F91F      		adc r31,r25
 6972 2204 E35A      		subi r30,lo8(-(93))
 6973 2206 FF4F      		sbci r31,hi8(-(93))
 6974 2208 1082      		st Z,__zero_reg__
 6975 220a 1182      		std Z+1,__zero_reg__
 6976 220c 1282      		std Z+2,__zero_reg__
 6977 220e 1382      		std Z+3,__zero_reg__
 6978 2210 0895      		ret
 6979               	.LVL445:
 6980               	.L312:
 6981               	.LM619:
 6982 2212 8DE0      		ldi r24,lo8(13)
 6983 2214 90E0      		ldi r25,hi8(13)
 6984 2216 DC01      		movw r26,r24
 6985 2218 2A9F      		mul r18,r26
 6986 221a C001      		movw r24,r0
 6987 221c 2B9F      		mul r18,r27
 6988 221e 900D      		add r25,r0
 6989 2220 3A9F      		mul r19,r26
 6990 2222 900D      		add r25,r0
 6991 2224 1124      		clr r1
 6992 2226 E80F      		add r30,r24
 6993 2228 F91F      		adc r31,r25
 6994 222a E35A      		subi r30,lo8(-(93))
 6995 222c FF4F      		sbci r31,hi8(-(93))
 6996 222e 4083      		st Z,r20
 6997 2230 5183      		std Z+1,r21
 6998 2232 6283      		std Z+2,r22
 6999 2234 7383      		std Z+3,r23
 7000 2236 0895      		ret
 7001               	.LFE120:
 7003               	.global	Timebase_DownCounter_Get_Period_Flag
 7005               	Timebase_DownCounter_Get_Period_Flag:
 7006               	.LFB121:
 7007               	.LM620:
 7008               	.LVL446:
 7009               	/* prologue: function */
 7010               	/* frame size = 0 */
 7011               	.LM621:
 7012 2238 E091 0000 		lds r30,Timebase
 7013 223c F091 0000 		lds r31,(Timebase)+1
 7014 2240 90E0      		ldi r25,lo8(0)
 7015               	.LVL447:
 7016 2242 2DE0      		ldi r18,lo8(13)
 7017 2244 30E0      		ldi r19,hi8(13)
 7018 2246 AC01      		movw r20,r24
 7019 2248 429F      		mul r20,r18
 7020 224a C001      		movw r24,r0
 7021 224c 439F      		mul r20,r19
 7022 224e 900D      		add r25,r0
 7023 2250 529F      		mul r21,r18
 7024 2252 900D      		add r25,r0
 7025 2254 1124      		clr r1
 7026               	.LVL448:
 7027 2256 E80F      		add r30,r24
 7028 2258 F91F      		adc r31,r25
 7029 225a EC5A      		subi r30,lo8(-(84))
 7030 225c FF4F      		sbci r31,hi8(-(84))
 7031 225e 8081      		ld r24,Z
 7032               	.LM622:
 7033 2260 8170      		andi r24,lo8(1)
 7034               	/* epilogue start */
 7035 2262 0895      		ret
 7036               	.LFE121:
 7038               	.global	Timebase_DownCounter_Set_Period_Flag
 7040               	Timebase_DownCounter_Set_Period_Flag:
 7041               	.LFB122:
 7042               	.LM623:
 7043               	.LVL449:
 7044               	/* prologue: function */
 7045               	/* frame size = 0 */
 7046               	.LM624:
 7047 2264 E091 0000 		lds r30,Timebase
 7048 2268 F091 0000 		lds r31,(Timebase)+1
 7049 226c 90E0      		ldi r25,lo8(0)
 7050               	.LVL450:
 7051 226e 2DE0      		ldi r18,lo8(13)
 7052 2270 30E0      		ldi r19,hi8(13)
 7053 2272 AC01      		movw r20,r24
 7054 2274 429F      		mul r20,r18
 7055 2276 C001      		movw r24,r0
 7056 2278 439F      		mul r20,r19
 7057 227a 900D      		add r25,r0
 7058 227c 529F      		mul r21,r18
 7059 227e 900D      		add r25,r0
 7060 2280 1124      		clr r1
 7061               	.LVL451:
 7062 2282 E80F      		add r30,r24
 7063 2284 F91F      		adc r31,r25
 7064 2286 EC5A      		subi r30,lo8(-(84))
 7065 2288 FF4F      		sbci r31,hi8(-(84))
 7066 228a 8081      		ld r24,Z
 7067 228c 8160      		ori r24,lo8(1)
 7068 228e 8083      		st Z,r24
 7069               	/* epilogue start */
 7070               	.LM625:
 7071 2290 0895      		ret
 7072               	.LFE122:
 7074               	.global	Timebase_DownCounter_Clear_Period_Flag
 7076               	Timebase_DownCounter_Clear_Period_Flag:
 7077               	.LFB123:
 7078               	.LM626:
 7079               	.LVL452:
 7080               	/* prologue: function */
 7081               	/* frame size = 0 */
 7082               	.LM627:
 7083 2292 E091 0000 		lds r30,Timebase
 7084 2296 F091 0000 		lds r31,(Timebase)+1
 7085 229a 90E0      		ldi r25,lo8(0)
 7086               	.LVL453:
 7087 229c 2DE0      		ldi r18,lo8(13)
 7088 229e 30E0      		ldi r19,hi8(13)
 7089 22a0 AC01      		movw r20,r24
 7090 22a2 429F      		mul r20,r18
 7091 22a4 C001      		movw r24,r0
 7092 22a6 439F      		mul r20,r19
 7093 22a8 900D      		add r25,r0
 7094 22aa 529F      		mul r21,r18
 7095 22ac 900D      		add r25,r0
 7096 22ae 1124      		clr r1
 7097               	.LVL454:
 7098 22b0 E80F      		add r30,r24
 7099 22b2 F91F      		adc r31,r25
 7100 22b4 EC5A      		subi r30,lo8(-(84))
 7101 22b6 FF4F      		sbci r31,hi8(-(84))
 7102 22b8 8081      		ld r24,Z
 7103 22ba 8E7F      		andi r24,lo8(-2)
 7104 22bc 8083      		st Z,r24
 7105               	/* epilogue start */
 7106               	.LM628:
 7107 22be 0895      		ret
 7108               	.LFE123:
 7110               	.global	Timebase_DownCounter_Reset
 7112               	Timebase_DownCounter_Reset:
 7113               	.LFB124:
 7114               	.LM629:
 7115               	.LVL455:
 7116               	/* prologue: function */
 7117               	/* frame size = 0 */
 7118               	.LBB928:
 7119               	.LBB929:
 7120               	.LM630:
 7121 22c0 E091 0000 		lds r30,Timebase
 7122 22c4 F091 0000 		lds r31,(Timebase)+1
 7123 22c8 90E0      		ldi r25,lo8(0)
 7124 22ca 2DE0      		ldi r18,lo8(13)
 7125 22cc 30E0      		ldi r19,hi8(13)
 7126 22ce AC01      		movw r20,r24
 7127               	.LVL456:
 7128 22d0 429F      		mul r20,r18
 7129 22d2 C001      		movw r24,r0
 7130 22d4 439F      		mul r20,r19
 7131 22d6 900D      		add r25,r0
 7132 22d8 529F      		mul r21,r18
 7133 22da 900D      		add r25,r0
 7134 22dc 1124      		clr r1
 7135 22de E80F      		add r30,r24
 7136 22e0 F91F      		adc r31,r25
 7137 22e2 EB5A      		subi r30,lo8(-(85))
 7138 22e4 FF4F      		sbci r31,hi8(-(85))
 7139 22e6 1192      		st Z+,__zero_reg__
 7140 22e8 1192      		st Z+,__zero_reg__
 7141 22ea 1192      		st Z+,__zero_reg__
 7142 22ec 1192      		st Z+,__zero_reg__
 7143               	.LBE929:
 7144               	.LBE928:
 7145               	.LBB930:
 7146               	.LBB931:
 7147               	.LM631:
 7148 22ee 1082      		st Z,__zero_reg__
 7149 22f0 1182      		std Z+1,__zero_reg__
 7150 22f2 1282      		std Z+2,__zero_reg__
 7151 22f4 1382      		std Z+3,__zero_reg__
 7152               	.LBE931:
 7153               	.LBE930:
 7154               	.LBB932:
 7155               	.LBB933:
 7156               	.LM632:
 7157 22f6 3597      		sbiw r30,5
 7158 22f8 8081      		ld r24,Z
 7159               	.LBE933:
 7160               	.LBE932:
 7161               	.LBB934:
 7162               	.LBB935:
 7163               	.LM633:
 7164 22fa 807E      		andi r24,lo8(-32)
 7165 22fc 8083      		st Z,r24
 7166               	/* epilogue start */
 7167               	.LBE935:
 7168               	.LBE934:
 7169               	.LM634:
 7170 22fe 0895      		ret
 7171               	.LFE124:
 7173               	.global	Timebase_DownCounter_Clear_All_Flags
 7175               	Timebase_DownCounter_Clear_All_Flags:
 7176               	.LFB125:
 7177               	.LM635:
 7178               	.LVL457:
 7179               	/* prologue: function */
 7180               	/* frame size = 0 */
 7181               	.LBB936:
 7182               	.LBB937:
 7183               	.LBB938:
 7184               	.LBB939:
 7185               	.LM636:
 7186 2300 E091 0000 		lds r30,Timebase
 7187 2304 F091 0000 		lds r31,(Timebase)+1
 7188 2308 90E0      		ldi r25,lo8(0)
 7189 230a 2DE0      		ldi r18,lo8(13)
 7190 230c 30E0      		ldi r19,hi8(13)
 7191 230e AC01      		movw r20,r24
 7192               	.LVL458:
 7193 2310 429F      		mul r20,r18
 7194 2312 C001      		movw r24,r0
 7195 2314 439F      		mul r20,r19
 7196 2316 900D      		add r25,r0
 7197 2318 529F      		mul r21,r18
 7198 231a 900D      		add r25,r0
 7199 231c 1124      		clr r1
 7200 231e E80F      		add r30,r24
 7201 2320 F91F      		adc r31,r25
 7202 2322 EB5A      		subi r30,lo8(-(85))
 7203 2324 FF4F      		sbci r31,hi8(-(85))
 7204 2326 1192      		st Z+,__zero_reg__
 7205 2328 1192      		st Z+,__zero_reg__
 7206 232a 1192      		st Z+,__zero_reg__
 7207 232c 1192      		st Z+,__zero_reg__
 7208               	.LBE939:
 7209               	.LBE938:
 7210               	.LBB940:
 7211               	.LBB941:
 7212               	.LM637:
 7213 232e 1082      		st Z,__zero_reg__
 7214 2330 1182      		std Z+1,__zero_reg__
 7215 2332 1282      		std Z+2,__zero_reg__
 7216 2334 1382      		std Z+3,__zero_reg__
 7217               	.LBE941:
 7218               	.LBE940:
 7219               	.LBB942:
 7220               	.LBB943:
 7221               	.LM638:
 7222 2336 3597      		sbiw r30,5
 7223 2338 8081      		ld r24,Z
 7224               	.LBE943:
 7225               	.LBE942:
 7226               	.LBB944:
 7227               	.LBB945:
 7228               	.LM639:
 7229 233a 807E      		andi r24,lo8(-32)
 7230 233c 8083      		st Z,r24
 7231               	/* epilogue start */
 7232               	.LBE945:
 7233               	.LBE944:
 7234               	.LBE937:
 7235               	.LBE936:
 7236               	.LM640:
 7237 233e 0895      		ret
 7238               	.LFE125:
 7240               	.global	Timebase_DownCounter_Start
 7242               	Timebase_DownCounter_Start:
 7243               	.LFB126:
 7244               	.LM641:
 7245               	.LVL459:
 7246               	/* prologue: function */
 7247               	/* frame size = 0 */
 7248               	.LBB946:
 7249               	.LBB947:
 7250               	.LM642:
 7251 2340 E091 0000 		lds r30,Timebase
 7252 2344 F091 0000 		lds r31,(Timebase)+1
 7253 2348 90E0      		ldi r25,lo8(0)
 7254               	.LBE947:
 7255               	.LBE946:
 7256               	.LM643:
 7257 234a 2DE0      		ldi r18,lo8(13)
 7258 234c 30E0      		ldi r19,hi8(13)
 7259 234e AC01      		movw r20,r24
 7260               	.LVL460:
 7261 2350 429F      		mul r20,r18
 7262 2352 C001      		movw r24,r0
 7263 2354 439F      		mul r20,r19
 7264 2356 900D      		add r25,r0
 7265 2358 529F      		mul r21,r18
 7266 235a 900D      		add r25,r0
 7267 235c 1124      		clr r1
 7268 235e E80F      		add r30,r24
 7269 2360 F91F      		adc r31,r25
 7270 2362 EC5A      		subi r30,lo8(-(84))
 7271 2364 FF4F      		sbci r31,hi8(-(84))
 7272 2366 9081      		ld r25,Z
 7273 2368 892F      		mov r24,r25
 7274 236a 8695      		lsr r24
 7275 236c 8F70      		andi r24,lo8(15)
 7276 236e 8130      		cpi r24,lo8(1)
 7277 2370 01F0      		breq .L327
 7278               	.LBB948:
 7279               	.LBB949:
 7280               	.LM644:
 7281 2372 917E      		andi r25,lo8(-31)
 7282 2374 9260      		ori r25,lo8(2)
 7283 2376 9083      		st Z,r25
 7284               	.L327:
 7285 2378 0895      		ret
 7286               	.LBE949:
 7287               	.LBE948:
 7288               	.LFE126:
 7290               	.global	Timebase_DownCounter_Stop
 7292               	Timebase_DownCounter_Stop:
 7293               	.LFB127:
 7294               	.LM645:
 7295               	.LVL461:
 7296               	/* prologue: function */
 7297               	/* frame size = 0 */
 7298               	.LBB950:
 7299               	.LBB951:
 7300               	.LM646:
 7301 237a E091 0000 		lds r30,Timebase
 7302 237e F091 0000 		lds r31,(Timebase)+1
 7303 2382 90E0      		ldi r25,lo8(0)
 7304               	.LBE951:
 7305               	.LBE950:
 7306               	.LM647:
 7307 2384 2DE0      		ldi r18,lo8(13)
 7308 2386 30E0      		ldi r19,hi8(13)
 7309 2388 AC01      		movw r20,r24
 7310               	.LVL462:
 7311 238a 429F      		mul r20,r18
 7312 238c C001      		movw r24,r0
 7313 238e 439F      		mul r20,r19
 7314 2390 900D      		add r25,r0
 7315 2392 529F      		mul r21,r18
 7316 2394 900D      		add r25,r0
 7317 2396 1124      		clr r1
 7318 2398 E80F      		add r30,r24
 7319 239a F91F      		adc r31,r25
 7320 239c EC5A      		subi r30,lo8(-(84))
 7321 239e FF4F      		sbci r31,hi8(-(84))
 7322 23a0 9081      		ld r25,Z
 7323 23a2 892F      		mov r24,r25
 7324 23a4 8695      		lsr r24
 7325 23a6 8F70      		andi r24,lo8(15)
 7326 23a8 8230      		cpi r24,lo8(2)
 7327 23aa 01F0      		breq .L330
 7328               	.LBB952:
 7329               	.LBB953:
 7330               	.LM648:
 7331 23ac 917E      		andi r25,lo8(-31)
 7332 23ae 9460      		ori r25,lo8(4)
 7333 23b0 9083      		st Z,r25
 7334               	.L330:
 7335 23b2 0895      		ret
 7336               	.LBE953:
 7337               	.LBE952:
 7338               	.LFE127:
 7340               	.global	Timebase_DownCounter_Set_Securely
 7342               	Timebase_DownCounter_Set_Securely:
 7343               	.LFB128:
 7344               	.LM649:
 7345               	.LVL463:
 7346 23b4 CF93      		push r28
 7347 23b6 DF93      		push r29
 7348               	/* prologue: function */
 7349               	/* frame size = 0 */
 7350               	.LBB954:
 7351               	.LBB955:
 7352               	.LM650:
 7353 23b8 A091 0000 		lds r26,Timebase
 7354 23bc B091 0000 		lds r27,(Timebase)+1
 7355 23c0 90E0      		ldi r25,lo8(0)
 7356               	.LBE955:
 7357               	.LBE954:
 7358               	.LM651:
 7359 23c2 2DE0      		ldi r18,lo8(13)
 7360 23c4 30E0      		ldi r19,hi8(13)
 7361 23c6 829F      		mul r24,r18
 7362 23c8 F001      		movw r30,r0
 7363 23ca 839F      		mul r24,r19
 7364 23cc F00D      		add r31,r0
 7365 23ce 929F      		mul r25,r18
 7366 23d0 F00D      		add r31,r0
 7367 23d2 1124      		clr r1
 7368               	.LVL464:
 7369 23d4 EA0F      		add r30,r26
 7370 23d6 FB1F      		adc r31,r27
 7371 23d8 EF01      		movw r28,r30
 7372 23da CC5A      		subi r28,lo8(-(84))
 7373 23dc DF4F      		sbci r29,hi8(-(84))
 7374 23de 8881      		ld r24,Y
 7375 23e0 8695      		lsr r24
 7376 23e2 8F70      		andi r24,lo8(15)
 7377 23e4 01F4      		brne .L333
 7378               	.LBB956:
 7379               	.LBB957:
 7380               	.LM652:
 7381 23e6 E75A      		subi r30,lo8(-(89))
 7382 23e8 FF4F      		sbci r31,hi8(-(89))
 7383 23ea 4083      		st Z,r20
 7384 23ec 5183      		std Z+1,r21
 7385 23ee 6283      		std Z+2,r22
 7386 23f0 7383      		std Z+3,r23
 7387               	.LBE957:
 7388               	.LBE956:
 7389               	.LBB958:
 7390               	.LBB959:
 7391               	.LM653:
 7392 23f2 1996      		adiw r26,9
 7393 23f4 8D91      		ld r24,X+
 7394 23f6 9D91      		ld r25,X+
 7395 23f8 0D90      		ld __tmp_reg__,X+
 7396 23fa BC91      		ld r27,X
 7397 23fc A02D      		mov r26,__tmp_reg__
 7398               	.LBE959:
 7399               	.LBE958:
 7400               	.LBB960:
 7401               	.LBB961:
 7402               	.LM654:
 7403 23fe 840F      		add r24,r20
 7404 2400 951F      		adc r25,r21
 7405 2402 A61F      		adc r26,r22
 7406 2404 B71F      		adc r27,r23
 7407 2406 B293      		st -Z,r27
 7408 2408 A293      		st -Z,r26
 7409 240a 9293      		st -Z,r25
 7410 240c 8293      		st -Z,r24
 7411               	.LBE961:
 7412               	.LBE960:
 7413               	.LBB962:
 7414               	.LBB963:
 7415               	.LM655:
 7416 240e 9881      		ld r25,Y
 7417 2410 892F      		mov r24,r25
 7418 2412 8695      		lsr r24
 7419 2414 8F70      		andi r24,lo8(15)
 7420 2416 8130      		cpi r24,lo8(1)
 7421 2418 01F0      		breq .L333
 7422               	.LBB964:
 7423               	.LBB965:
 7424               	.LM656:
 7425 241a 917E      		andi r25,lo8(-31)
 7426 241c 9260      		ori r25,lo8(2)
 7427 241e 9883      		st Y,r25
 7428               	.L333:
 7429               	/* epilogue start */
 7430               	.LBE965:
 7431               	.LBE964:
 7432               	.LBE963:
 7433               	.LBE962:
 7434               	.LM657:
 7435 2420 DF91      		pop r29
 7436 2422 CF91      		pop r28
 7437 2424 0895      		ret
 7438               	.LFE128:
 7440               	.global	Timebase_DownCounter_Set_Forcefully
 7442               	Timebase_DownCounter_Set_Forcefully:
 7443               	.LFB129:
 7444               	.LM658:
 7445               	.LVL465:
 7446 2426 CF93      		push r28
 7447 2428 DF93      		push r29
 7448               	/* prologue: function */
 7449               	/* frame size = 0 */
 7450               	.LBB966:
 7451               	.LBB967:
 7452               	.LBB968:
 7453               	.LBB969:
 7454               	.LM659:
 7455 242a E091 0000 		lds r30,Timebase
 7456 242e F091 0000 		lds r31,(Timebase)+1
 7457 2432 A82F      		mov r26,r24
 7458 2434 B0E0      		ldi r27,lo8(0)
 7459 2436 2DE0      		ldi r18,lo8(13)
 7460 2438 30E0      		ldi r19,hi8(13)
 7461 243a E901      		movw r28,r18
 7462 243c AC9F      		mul r26,r28
 7463 243e 9001      		movw r18,r0
 7464 2440 AD9F      		mul r26,r29
 7465 2442 300D      		add r19,r0
 7466 2444 BC9F      		mul r27,r28
 7467 2446 300D      		add r19,r0
 7468 2448 1124      		clr r1
 7469 244a E20F      		add r30,r18
 7470 244c F31F      		adc r31,r19
 7471 244e EB5A      		subi r30,lo8(-(85))
 7472 2450 FF4F      		sbci r31,hi8(-(85))
 7473 2452 1192      		st Z+,__zero_reg__
 7474 2454 1192      		st Z+,__zero_reg__
 7475 2456 1192      		st Z+,__zero_reg__
 7476 2458 1192      		st Z+,__zero_reg__
 7477               	.LBE969:
 7478               	.LBE968:
 7479               	.LBB970:
 7480               	.LBB971:
 7481               	.LM660:
 7482 245a 1082      		st Z,__zero_reg__
 7483 245c 1182      		std Z+1,__zero_reg__
 7484 245e 1282      		std Z+2,__zero_reg__
 7485 2460 1382      		std Z+3,__zero_reg__
 7486               	.LBE971:
 7487               	.LBE970:
 7488               	.LBB972:
 7489               	.LBB973:
 7490               	.LM661:
 7491 2462 3597      		sbiw r30,5
 7492 2464 9081      		ld r25,Z
 7493               	.LBE973:
 7494               	.LBE972:
 7495               	.LBB974:
 7496               	.LBB975:
 7497               	.LM662:
 7498 2466 907E      		andi r25,lo8(-32)
 7499 2468 9083      		st Z,r25
 7500               	.LBE975:
 7501               	.LBE974:
 7502               	.LBE967:
 7503               	.LBE966:
 7504               	.LM663:
 7505 246a 0E94 0000 		call Timebase_DownCounter_Set_Securely
 7506               	.LVL466:
 7507               	/* epilogue start */
 7508               	.LM664:
 7509 246e DF91      		pop r29
 7510 2470 CF91      		pop r28
 7511 2472 0895      		ret
 7512               	.LFE129:
 7514               	.global	Timebase_DownCounter_Update
 7516               	Timebase_DownCounter_Update:
 7517               	.LFB130:
 7518               	.LM665:
 7519               	.LVL467:
 7520 2474 0F93      		push r16
 7521 2476 1F93      		push r17
 7522 2478 CF93      		push r28
 7523 247a DF93      		push r29
 7524               	/* prologue: function */
 7525               	/* frame size = 0 */
 7526               	.LBB976:
 7527               	.LBB977:
 7528               	.LM666:
 7529 247c A091 0000 		lds r26,Timebase
 7530 2480 B091 0000 		lds r27,(Timebase)+1
 7531 2484 90E0      		ldi r25,lo8(0)
 7532 2486 2DE0      		ldi r18,lo8(13)
 7533 2488 30E0      		ldi r19,hi8(13)
 7534 248a 829F      		mul r24,r18
 7535 248c F001      		movw r30,r0
 7536 248e 839F      		mul r24,r19
 7537 2490 F00D      		add r31,r0
 7538 2492 929F      		mul r25,r18
 7539 2494 F00D      		add r31,r0
 7540 2496 1124      		clr r1
 7541               	.LVL468:
 7542 2498 EA0F      		add r30,r26
 7543 249a FB1F      		adc r31,r27
 7544 249c 8F01      		movw r16,r30
 7545 249e 0C5A      		subi r16,lo8(-(84))
 7546 24a0 1F4F      		sbci r17,hi8(-(84))
 7547 24a2 E801      		movw r28,r16
 7548 24a4 8881      		ld r24,Y
 7549 24a6 8695      		lsr r24
 7550 24a8 8F70      		andi r24,lo8(15)
 7551               	.LBE977:
 7552               	.LBE976:
 7553               	.LM667:
 7554 24aa 8130      		cpi r24,lo8(1)
 7555 24ac 01F4      		brne .L337
 7556               	.LBB978:
 7557               	.LBB979:
 7558               	.LM668:
 7559 24ae 1996      		adiw r26,9
 7560 24b0 2D91      		ld r18,X+
 7561 24b2 3D91      		ld r19,X+
 7562 24b4 4D91      		ld r20,X+
 7563 24b6 5C91      		ld r21,X
 7564 24b8 1C97      		sbiw r26,9+3
 7565               	.LBE979:
 7566               	.LBE978:
 7567               	.LM669:
 7568 24ba BF01      		movw r22,r30
 7569 24bc 6B5A      		subi r22,lo8(-(85))
 7570 24be 7F4F      		sbci r23,hi8(-(85))
 7571 24c0 EB01      		movw r28,r22
 7572 24c2 8881      		ld r24,Y
 7573 24c4 9981      		ldd r25,Y+1
 7574 24c6 AA81      		ldd r26,Y+2
 7575 24c8 BB81      		ldd r27,Y+3
 7576 24ca 821B      		sub r24,r18
 7577 24cc 930B      		sbc r25,r19
 7578 24ce A40B      		sbc r26,r20
 7579 24d0 B50B      		sbc r27,r21
 7580               	.LBB980:
 7581               	.LBB981:
 7582               	.LM670:
 7583 24d2 E75A      		subi r30,lo8(-(89))
 7584 24d4 FF4F      		sbci r31,hi8(-(89))
 7585 24d6 8083      		st Z,r24
 7586 24d8 9183      		std Z+1,r25
 7587 24da A283      		std Z+2,r26
 7588 24dc B383      		std Z+3,r27
 7589               	.LBE981:
 7590               	.LBE980:
 7591               	.LM671:
 7592 24de 1816      		cp __zero_reg__,r24
 7593 24e0 1906      		cpc __zero_reg__,r25
 7594 24e2 1A06      		cpc __zero_reg__,r26
 7595 24e4 1B06      		cpc __zero_reg__,r27
 7596 24e6 04F0      		brlt .L339
 7597               	.LBB982:
 7598               	.LBB983:
 7599               	.LBB984:
 7600               	.LBB985:
 7601               	.LM672:
 7602 24e8 DB01      		movw r26,r22
 7603 24ea 1D92      		st X+,__zero_reg__
 7604 24ec 1D92      		st X+,__zero_reg__
 7605 24ee 1D92      		st X+,__zero_reg__
 7606 24f0 1C92      		st X,__zero_reg__
 7607 24f2 1397      		sbiw r26,3
 7608               	.LBE985:
 7609               	.LBE984:
 7610               	.LBB986:
 7611               	.LBB987:
 7612               	.LM673:
 7613 24f4 1082      		st Z,__zero_reg__
 7614 24f6 1182      		std Z+1,__zero_reg__
 7615 24f8 1282      		std Z+2,__zero_reg__
 7616 24fa 1382      		std Z+3,__zero_reg__
 7617               	.LBE987:
 7618               	.LBE986:
 7619               	.LBB988:
 7620               	.LBB989:
 7621               	.LM674:
 7622 24fc E801      		movw r28,r16
 7623 24fe 8881      		ld r24,Y
 7624               	.LBE989:
 7625               	.LBE988:
 7626               	.LBE983:
 7627               	.LBE982:
 7628               	.LBB990:
 7629               	.LBB991:
 7630               	.LM675:
 7631 2500 807E      		andi r24,lo8(-32)
 7632 2502 8860      		ori r24,lo8(8)
 7633 2504 8883      		st Y,r24
 7634 2506 00C0      		rjmp .L339
 7635               	.L337:
 7636               	.LBE991:
 7637               	.LBE990:
 7638               	.LM676:
 7639 2508 8230      		cpi r24,lo8(2)
 7640 250a 01F4      		brne .L339
 7641               	.LBB992:
 7642               	.LBB993:
 7643               	.LM677:
 7644 250c 1996      		adiw r26,9
 7645 250e 8D91      		ld r24,X+
 7646 2510 9D91      		ld r25,X+
 7647 2512 0D90      		ld __tmp_reg__,X+
 7648 2514 BC91      		ld r27,X
 7649 2516 A02D      		mov r26,__tmp_reg__
 7650               	.LBE993:
 7651               	.LBE992:
 7652               	.LBB994:
 7653               	.LBB995:
 7654               	.LM678:
 7655 2518 E75A      		subi r30,lo8(-(89))
 7656 251a FF4F      		sbci r31,hi8(-(89))
 7657 251c 2081      		ld r18,Z
 7658 251e 3181      		ldd r19,Z+1
 7659 2520 4281      		ldd r20,Z+2
 7660 2522 5381      		ldd r21,Z+3
 7661 2524 820F      		add r24,r18
 7662 2526 931F      		adc r25,r19
 7663 2528 A41F      		adc r26,r20
 7664 252a B51F      		adc r27,r21
 7665 252c B293      		st -Z,r27
 7666 252e A293      		st -Z,r26
 7667 2530 9293      		st -Z,r25
 7668 2532 8293      		st -Z,r24
 7669               	.L339:
 7670               	/* epilogue start */
 7671               	.LBE995:
 7672               	.LBE994:
 7673               	.LM679:
 7674 2534 DF91      		pop r29
 7675 2536 CF91      		pop r28
 7676 2538 1F91      		pop r17
 7677 253a 0F91      		pop r16
 7678 253c 0895      		ret
 7679               	.LFE130:
 7681               	.global	Timebase_DownCounter_Expired
 7683               	Timebase_DownCounter_Expired:
 7684               	.LFB131:
 7685               	.LM680:
 7686               	.LVL469:
 7687               	/* prologue: function */
 7688               	/* frame size = 0 */
 7689               	.LM681:
 7690 253e 40E0      		ldi r20,lo8(0)
 7691 2540 E091 0000 		lds r30,Timebase
 7692 2544 F091 0000 		lds r31,(Timebase)+1
 7693 2548 90E0      		ldi r25,lo8(0)
 7694               	.LVL470:
 7695 254a 2DE0      		ldi r18,lo8(13)
 7696 254c 30E0      		ldi r19,hi8(13)
 7697 254e BC01      		movw r22,r24
 7698 2550 629F      		mul r22,r18
 7699 2552 C001      		movw r24,r0
 7700 2554 639F      		mul r22,r19
 7701 2556 900D      		add r25,r0
 7702 2558 729F      		mul r23,r18
 7703 255a 900D      		add r25,r0
 7704 255c 1124      		clr r1
 7705               	.LVL471:
 7706 255e E80F      		add r30,r24
 7707 2560 F91F      		adc r31,r25
 7708 2562 EC5A      		subi r30,lo8(-(84))
 7709 2564 FF4F      		sbci r31,hi8(-(84))
 7710 2566 8081      		ld r24,Z
 7711 2568 8695      		lsr r24
 7712 256a 8F70      		andi r24,lo8(15)
 7713 256c 8430      		cpi r24,lo8(4)
 7714 256e 01F4      		brne .L341
 7715 2570 41E0      		ldi r20,lo8(1)
 7716               	.L341:
 7717               	.LM682:
 7718 2572 842F      		mov r24,r20
 7719               	/* epilogue start */
 7720 2574 0895      		ret
 7721               	.LFE131:
 7723               	.global	Timebase_DownCounter_Expired_Event
 7725               	Timebase_DownCounter_Expired_Event:
 7726               	.LFB132:
 7727               	.LM683:
 7728               	.LVL472:
 7729               	/* prologue: function */
 7730               	/* frame size = 0 */
 7731               	.LBB996:
 7732               	.LBB997:
 7733               	.LM684:
 7734 2576 E091 0000 		lds r30,Timebase
 7735 257a F091 0000 		lds r31,(Timebase)+1
 7736 257e 90E0      		ldi r25,lo8(0)
 7737               	.LBE997:
 7738               	.LBE996:
 7739               	.LM685:
 7740 2580 2DE0      		ldi r18,lo8(13)
 7741 2582 30E0      		ldi r19,hi8(13)
 7742 2584 AC01      		movw r20,r24
 7743               	.LVL473:
 7744 2586 429F      		mul r20,r18
 7745 2588 C001      		movw r24,r0
 7746 258a 439F      		mul r20,r19
 7747 258c 900D      		add r25,r0
 7748 258e 529F      		mul r21,r18
 7749 2590 900D      		add r25,r0
 7750 2592 1124      		clr r1
 7751 2594 E80F      		add r30,r24
 7752 2596 F91F      		adc r31,r25
 7753 2598 DF01      		movw r26,r30
 7754 259a AC5A      		subi r26,lo8(-(84))
 7755 259c BF4F      		sbci r27,hi8(-(84))
 7756 259e 8C91      		ld r24,X
 7757 25a0 8695      		lsr r24
 7758 25a2 8F70      		andi r24,lo8(15)
 7759 25a4 8430      		cpi r24,lo8(4)
 7760 25a6 01F0      		breq .L344
 7761 25a8 80E0      		ldi r24,lo8(0)
 7762 25aa 0895      		ret
 7763               	.L344:
 7764               	.LBB998:
 7765               	.LBB999:
 7766               	.LBB1000:
 7767               	.LBB1001:
 7768               	.LBB1002:
 7769               	.LBB1003:
 7770               	.LM686:
 7771 25ac EB5A      		subi r30,lo8(-(85))
 7772 25ae FF4F      		sbci r31,hi8(-(85))
 7773 25b0 1192      		st Z+,__zero_reg__
 7774 25b2 1192      		st Z+,__zero_reg__
 7775 25b4 1192      		st Z+,__zero_reg__
 7776 25b6 1192      		st Z+,__zero_reg__
 7777               	.LBE1003:
 7778               	.LBE1002:
 7779               	.LBB1004:
 7780               	.LBB1005:
 7781               	.LM687:
 7782 25b8 1082      		st Z,__zero_reg__
 7783 25ba 1182      		std Z+1,__zero_reg__
 7784 25bc 1282      		std Z+2,__zero_reg__
 7785 25be 1382      		std Z+3,__zero_reg__
 7786               	.LBE1005:
 7787               	.LBE1004:
 7788               	.LBB1006:
 7789               	.LBB1007:
 7790               	.LM688:
 7791 25c0 8C91      		ld r24,X
 7792               	.LBE1007:
 7793               	.LBE1006:
 7794               	.LBB1008:
 7795               	.LBB1009:
 7796               	.LM689:
 7797 25c2 807E      		andi r24,lo8(-32)
 7798 25c4 8C93      		st X,r24
 7799 25c6 81E0      		ldi r24,lo8(1)
 7800               	.LBE1009:
 7801               	.LBE1008:
 7802               	.LBE1001:
 7803               	.LBE1000:
 7804               	.LBE999:
 7805               	.LBE998:
 7806               	.LM690:
 7807 25c8 0895      		ret
 7808               	.LFE132:
 7810               	.global	Timebase_DownCounter_Set_Period_Value_Securely
 7812               	Timebase_DownCounter_Set_Period_Value_Securely:
 7813               	.LFB133:
 7814               	.LM691:
 7815               	.LVL474:
 7816 25ca CF93      		push r28
 7817 25cc DF93      		push r29
 7818               	/* prologue: function */
 7819               	/* frame size = 0 */
 7820               	.LBB1010:
 7821               	.LBB1011:
 7822               	.LM692:
 7823 25ce C091 0000 		lds r28,Timebase
 7824 25d2 D091 0000 		lds r29,(Timebase)+1
 7825 25d6 282F      		mov r18,r24
 7826 25d8 30E0      		ldi r19,lo8(0)
 7827               	.LBE1011:
 7828               	.LBE1010:
 7829               	.LM693:
 7830 25da 8DE0      		ldi r24,lo8(13)
 7831 25dc 90E0      		ldi r25,hi8(13)
 7832               	.LVL475:
 7833 25de 289F      		mul r18,r24
 7834 25e0 F001      		movw r30,r0
 7835 25e2 299F      		mul r18,r25
 7836 25e4 F00D      		add r31,r0
 7837 25e6 389F      		mul r19,r24
 7838 25e8 F00D      		add r31,r0
 7839 25ea 1124      		clr r1
 7840 25ec EC0F      		add r30,r28
 7841 25ee FD1F      		adc r31,r29
 7842 25f0 EC5A      		subi r30,lo8(-(84))
 7843 25f2 FF4F      		sbci r31,hi8(-(84))
 7844 25f4 8081      		ld r24,Z
 7845 25f6 E455      		subi r30,lo8(-(-84))
 7846 25f8 F040      		sbci r31,hi8(-(-84))
 7847 25fa 80FD      		sbrc r24,0
 7848 25fc 00C0      		rjmp .L351
 7849               	.LM694:
 7850 25fe E75A      		subi r30,lo8(-(89))
 7851 2600 FF4F      		sbci r31,hi8(-(89))
 7852 2602 8191      		ld r24,Z+
 7853 2604 9191      		ld r25,Z+
 7854 2606 A191      		ld r26,Z+
 7855 2608 B191      		ld r27,Z+
 7856 260a 841B      		sub r24,r20
 7857 260c 950B      		sbc r25,r21
 7858 260e A60B      		sbc r26,r22
 7859 2610 B70B      		sbc r27,r23
 7860               	.LBB1012:
 7861               	.LBB1013:
 7862               	.LM695:
 7863 2612 B7FF      		sbrs r27,7
 7864 2614 00C0      		rjmp .L349
 7865               	.LM696:
 7866 2616 1082      		st Z,__zero_reg__
 7867 2618 1182      		std Z+1,__zero_reg__
 7868 261a 1282      		std Z+2,__zero_reg__
 7869 261c 1382      		std Z+3,__zero_reg__
 7870 261e 00C0      		rjmp .L350
 7871               	.L349:
 7872               	.LM697:
 7873 2620 8083      		st Z,r24
 7874 2622 9183      		std Z+1,r25
 7875 2624 A283      		std Z+2,r26
 7876 2626 B383      		std Z+3,r27
 7877               	.L350:
 7878               	.LBE1013:
 7879               	.LBE1012:
 7880               	.LBB1014:
 7881               	.LBB1015:
 7882               	.LM698:
 7883 2628 8DE0      		ldi r24,lo8(13)
 7884 262a 90E0      		ldi r25,hi8(13)
 7885 262c 289F      		mul r18,r24
 7886 262e F001      		movw r30,r0
 7887 2630 299F      		mul r18,r25
 7888 2632 F00D      		add r31,r0
 7889 2634 389F      		mul r19,r24
 7890 2636 F00D      		add r31,r0
 7891 2638 1124      		clr r1
 7892 263a EC0F      		add r30,r28
 7893 263c FD1F      		adc r31,r29
 7894 263e EC5A      		subi r30,lo8(-(84))
 7895 2640 FF4F      		sbci r31,hi8(-(84))
 7896 2642 8081      		ld r24,Z
 7897 2644 8160      		ori r24,lo8(1)
 7898 2646 8083      		st Z,r24
 7899               	.L351:
 7900               	/* epilogue start */
 7901               	.LBE1015:
 7902               	.LBE1014:
 7903               	.LM699:
 7904 2648 DF91      		pop r29
 7905 264a CF91      		pop r28
 7906 264c 0895      		ret
 7907               	.LFE133:
 7909               	.global	Timebase_DownCounter_Get_Remaining_Period_Value
 7911               	Timebase_DownCounter_Get_Remaining_Period_Value:
 7912               	.LFB134:
 7913               	.LM700:
 7914               	.LVL476:
 7915               	/* prologue: function */
 7916               	/* frame size = 0 */
 7917               	.LBB1016:
 7918               	.LBB1017:
 7919               	.LM701:
 7920 264e E091 0000 		lds r30,Timebase
 7921 2652 F091 0000 		lds r31,(Timebase)+1
 7922 2656 90E0      		ldi r25,lo8(0)
 7923               	.LBE1017:
 7924               	.LBE1016:
 7925               	.LM702:
 7926 2658 2DE0      		ldi r18,lo8(13)
 7927 265a 30E0      		ldi r19,hi8(13)
 7928 265c AC01      		movw r20,r24
 7929               	.LVL477:
 7930 265e 429F      		mul r20,r18
 7931 2660 C001      		movw r24,r0
 7932 2662 439F      		mul r20,r19
 7933 2664 900D      		add r25,r0
 7934 2666 529F      		mul r21,r18
 7935 2668 900D      		add r25,r0
 7936 266a 1124      		clr r1
 7937 266c E80F      		add r30,r24
 7938 266e F91F      		adc r31,r25
 7939 2670 DF01      		movw r26,r30
 7940 2672 A35A      		subi r26,lo8(-(93))
 7941 2674 BF4F      		sbci r27,hi8(-(93))
 7942 2676 E75A      		subi r30,lo8(-(89))
 7943 2678 FF4F      		sbci r31,hi8(-(89))
 7944 267a 2081      		ld r18,Z
 7945 267c 3181      		ldd r19,Z+1
 7946 267e 4281      		ldd r20,Z+2
 7947 2680 5381      		ldd r21,Z+3
 7948               	.LVL478:
 7949 2682 8D91      		ld r24,X+
 7950 2684 9D91      		ld r25,X+
 7951 2686 0D90      		ld __tmp_reg__,X+
 7952 2688 BC91      		ld r27,X
 7953 268a A02D      		mov r26,__tmp_reg__
 7954 268c 281B      		sub r18,r24
 7955 268e 390B      		sbc r19,r25
 7956 2690 4A0B      		sbc r20,r26
 7957 2692 5B0B      		sbc r21,r27
 7958 2694 57FF      		sbrs r21,7
 7959 2696 00C0      		rjmp .L353
 7960 2698 20E0      		ldi r18,lo8(0)
 7961 269a 30E0      		ldi r19,hi8(0)
 7962 269c 40E0      		ldi r20,hlo8(0)
 7963 269e 50E0      		ldi r21,hhi8(0)
 7964               	.L353:
 7965               	.LM703:
 7966 26a0 B901      		movw r22,r18
 7967               	.LVL479:
 7968 26a2 CA01      		movw r24,r20
 7969               	/* epilogue start */
 7970 26a4 0895      		ret
 7971               	.LFE134:
 7973               	.global	Timebase_DownCounter_Period_Value_Expired
 7975               	Timebase_DownCounter_Period_Value_Expired:
 7976               	.LFB135:
 7977               	.LM704:
 7978               	.LVL480:
 7979 26a6 CF93      		push r28
 7980 26a8 DF93      		push r29
 7981               	/* prologue: function */
 7982               	/* frame size = 0 */
 7983               	.LBB1018:
 7984               	.LBB1019:
 7985               	.LBB1020:
 7986               	.LBB1021:
 7987               	.LM705:
 7988 26aa C091 0000 		lds r28,Timebase
 7989 26ae D091 0000 		lds r29,(Timebase)+1
 7990 26b2 682F      		mov r22,r24
 7991 26b4 70E0      		ldi r23,lo8(0)
 7992               	.LBE1021:
 7993               	.LBE1020:
 7994               	.LM706:
 7995 26b6 8DE0      		ldi r24,lo8(13)
 7996 26b8 90E0      		ldi r25,hi8(13)
 7997               	.LVL481:
 7998 26ba 689F      		mul r22,r24
 7999 26bc F001      		movw r30,r0
 8000 26be 699F      		mul r22,r25
 8001 26c0 F00D      		add r31,r0
 8002 26c2 789F      		mul r23,r24
 8003 26c4 F00D      		add r31,r0
 8004 26c6 1124      		clr r1
 8005 26c8 EC0F      		add r30,r28
 8006 26ca FD1F      		adc r31,r29
 8007 26cc DF01      		movw r26,r30
 8008 26ce A35A      		subi r26,lo8(-(93))
 8009 26d0 BF4F      		sbci r27,hi8(-(93))
 8010 26d2 E75A      		subi r30,lo8(-(89))
 8011 26d4 FF4F      		sbci r31,hi8(-(89))
 8012 26d6 2081      		ld r18,Z
 8013 26d8 3181      		ldd r19,Z+1
 8014 26da 4281      		ldd r20,Z+2
 8015 26dc 5381      		ldd r21,Z+3
 8016               	.LVL482:
 8017 26de 8D91      		ld r24,X+
 8018 26e0 9D91      		ld r25,X+
 8019 26e2 0D90      		ld __tmp_reg__,X+
 8020 26e4 BC91      		ld r27,X
 8021 26e6 A02D      		mov r26,__tmp_reg__
 8022 26e8 281B      		sub r18,r24
 8023 26ea 390B      		sbc r19,r25
 8024 26ec 4A0B      		sbc r20,r26
 8025 26ee 5B0B      		sbc r21,r27
 8026               	.LM707:
 8027 26f0 57FD      		sbrc r21,7
 8028 26f2 00C0      		rjmp .L356
 8029               	.LBE1019:
 8030               	.LBE1018:
 8031               	.LM708:
 8032 26f4 2115      		cp r18,__zero_reg__
 8033 26f6 3105      		cpc r19,__zero_reg__
 8034 26f8 4105      		cpc r20,__zero_reg__
 8035 26fa 5105      		cpc r21,__zero_reg__
 8036 26fc 01F0      		breq .L356
 8037 26fe 20E0      		ldi r18,lo8(0)
 8038               	.LVL483:
 8039 2700 00C0      		rjmp .L357
 8040               	.LVL484:
 8041               	.L356:
 8042 2702 20E0      		ldi r18,lo8(0)
 8043               	.LVL485:
 8044 2704 8DE0      		ldi r24,lo8(13)
 8045 2706 90E0      		ldi r25,hi8(13)
 8046 2708 AC01      		movw r20,r24
 8047 270a 649F      		mul r22,r20
 8048 270c C001      		movw r24,r0
 8049 270e 659F      		mul r22,r21
 8050 2710 900D      		add r25,r0
 8051 2712 749F      		mul r23,r20
 8052 2714 900D      		add r25,r0
 8053 2716 1124      		clr r1
 8054 2718 C80F      		add r28,r24
 8055 271a D91F      		adc r29,r25
 8056 271c CC5A      		subi r28,lo8(-(84))
 8057 271e DF4F      		sbci r29,hi8(-(84))
 8058 2720 8881      		ld r24,Y
 8059 2722 80FF      		sbrs r24,0
 8060 2724 21E0      		ldi r18,lo8(1)
 8061               	.L358:
 8062 2726 81E0      		ldi r24,lo8(1)
 8063 2728 2827      		eor r18,r24
 8064               	.L357:
 8065               	.LM709:
 8066 272a 822F      		mov r24,r18
 8067               	/* epilogue start */
 8068 272c DF91      		pop r29
 8069 272e CF91      		pop r28
 8070 2730 0895      		ret
 8071               	.LFE135:
 8073               	.global	Timebase_DownCounter_Period_Value_Expired_Event
 8075               	Timebase_DownCounter_Period_Value_Expired_Event:
 8076               	.LFB136:
 8077               	.LM710:
 8078               	.LVL486:
 8079 2732 1F93      		push r17
 8080               	/* prologue: function */
 8081               	/* frame size = 0 */
 8082 2734 182F      		mov r17,r24
 8083               	.LM711:
 8084 2736 0E94 0000 		call Timebase_DownCounter_Period_Value_Expired
 8085               	.LVL487:
 8086 273a 8130      		cpi r24,lo8(1)
 8087 273c 01F0      		breq .L361
 8088 273e 80E0      		ldi r24,lo8(0)
 8089 2740 00C0      		rjmp .L362
 8090               	.L361:
 8091               	.LBB1022:
 8092               	.LBB1023:
 8093               	.LM712:
 8094 2742 E091 0000 		lds r30,Timebase
 8095 2746 F091 0000 		lds r31,(Timebase)+1
 8096 274a 212F      		mov r18,r17
 8097 274c 30E0      		ldi r19,lo8(0)
 8098               	.LVL488:
 8099 274e 8DE0      		ldi r24,lo8(13)
 8100 2750 90E0      		ldi r25,hi8(13)
 8101 2752 AC01      		movw r20,r24
 8102 2754 249F      		mul r18,r20
 8103 2756 C001      		movw r24,r0
 8104 2758 259F      		mul r18,r21
 8105 275a 900D      		add r25,r0
 8106 275c 349F      		mul r19,r20
 8107 275e 900D      		add r25,r0
 8108 2760 1124      		clr r1
 8109 2762 E80F      		add r30,r24
 8110 2764 F91F      		adc r31,r25
 8111 2766 EC5A      		subi r30,lo8(-(84))
 8112 2768 FF4F      		sbci r31,hi8(-(84))
 8113 276a 8081      		ld r24,Z
 8114 276c 8E7F      		andi r24,lo8(-2)
 8115 276e 8083      		st Z,r24
 8116 2770 81E0      		ldi r24,lo8(1)
 8117               	.L362:
 8118               	/* epilogue start */
 8119               	.LBE1023:
 8120               	.LBE1022:
 8121               	.LM713:
 8122 2772 1F91      		pop r17
 8123               	.LVL489:
 8124 2774 0895      		ret
 8125               	.LFE136:
 8127               	.global	Timebase_DownCounter_Update_All
 8129               	Timebase_DownCounter_Update_All:
 8130               	.LFB137:
 8131               	.LM714:
 8132               	/* prologue: function */
 8133               	/* frame size = 0 */
 8134               	.LBB1024:
 8135               	.LM715:
 8136 2776 80E0      		ldi r24,lo8(0)
 8137 2778 0E94 0000 		call Timebase_DownCounter_Update
 8138               	/* epilogue start */
 8139               	.LBE1024:
 8140               	.LM716:
 8141 277c 0895      		ret
 8142               	.LFE137:
 8144               	.global	Timebase_DownCounter_Reset_All
 8146               	Timebase_DownCounter_Reset_All:
 8147               	.LFB138:
 8148               	.LM717:
 8149               	/* prologue: function */
 8150               	/* frame size = 0 */
 8151               	.LBB1025:
 8152               	.LBB1026:
 8153               	.LBB1027:
 8154               	.LBB1028:
 8155               	.LBB1029:
 8156               	.LM718:
 8157 277e E091 0000 		lds r30,Timebase
 8158 2782 F091 0000 		lds r31,(Timebase)+1
 8159 2786 EB5A      		subi r30,lo8(-(85))
 8160 2788 FF4F      		sbci r31,hi8(-(85))
 8161 278a 1192      		st Z+,__zero_reg__
 8162 278c 1192      		st Z+,__zero_reg__
 8163 278e 1192      		st Z+,__zero_reg__
 8164 2790 1192      		st Z+,__zero_reg__
 8165               	.LBE1029:
 8166               	.LBE1028:
 8167               	.LBB1030:
 8168               	.LBB1031:
 8169               	.LM719:
 8170 2792 1082      		st Z,__zero_reg__
 8171 2794 1182      		std Z+1,__zero_reg__
 8172 2796 1282      		std Z+2,__zero_reg__
 8173 2798 1382      		std Z+3,__zero_reg__
 8174               	.LBE1031:
 8175               	.LBE1030:
 8176               	.LBB1032:
 8177               	.LBB1033:
 8178               	.LM720:
 8179 279a 3597      		sbiw r30,5
 8180 279c 8081      		ld r24,Z
 8181               	.LBE1033:
 8182               	.LBE1032:
 8183               	.LBB1034:
 8184               	.LBB1035:
 8185               	.LM721:
 8186 279e 807E      		andi r24,lo8(-32)
 8187 27a0 8083      		st Z,r24
 8188               	/* epilogue start */
 8189               	.LBE1035:
 8190               	.LBE1034:
 8191               	.LBE1027:
 8192               	.LBE1026:
 8193               	.LBE1025:
 8194               	.LM722:
 8195 27a2 0895      		ret
 8196               	.LFE138:
 8198               	.global	Timebase_Reset
 8200               	Timebase_Reset:
 8201               	.LFB139:
 8202               	.LM723:
 8203               	/* prologue: function */
 8204               	/* frame size = 0 */
 8205               	.LM724:
 8206 27a4 0E94 0000 		call Timebase_UpCounter_Reset_All
 8207               	.LM725:
 8208 27a8 0E94 0000 		call Timebase_DownCounter_SS_Reset_All
 8209               	.LM726:
 8210 27ac 0E94 0000 		call Timebase_DownCounter_Reset_All
 8211               	/* epilogue start */
 8212               	.LM727:
 8213 27b0 0895      		ret
 8214               	.LFE139:
 8216               	.global	Timebase_Init
 8218               	Timebase_Init:
 8219               	.LFB140:
 8220               	.LM728:
 8221               	.LVL490:
 8222 27b2 0F93      		push r16
 8223 27b4 1F93      		push r17
 8224               	/* prologue: function */
 8225               	/* frame size = 0 */
 8226 27b6 8C01      		movw r16,r24
 8227               	.LM729:
 8228 27b8 0E94 0000 		call Timebase_Struct_Init
 8229               	.LVL491:
 8230               	.LM730:
 8231 27bc C801      		movw r24,r16
 8232 27be 0E94 0000 		call Timebase_Timer_Config
 8233               	.LM731:
 8234 27c2 0E94 0000 		call Timebase_Reset
 8235               	/* epilogue start */
 8236               	.LM732:
 8237 27c6 1F91      		pop r17
 8238 27c8 0F91      		pop r16
 8239               	.LVL492:
 8240 27ca 0895      		ret
 8241               	.LFE140:
 8243               	.global	Timebase_Main_Loop_Executables
 8245               	Timebase_Main_Loop_Executables:
 8246               	.LFB141:
 8247               	.LM733:
 8248               	/* prologue: function */
 8249               	/* frame size = 0 */
 8250               	.LM734:
 8251 27cc E091 0000 		lds r30,Timebase
 8252 27d0 F091 0000 		lds r31,(Timebase)+1
 8253 27d4 8489      		ldd r24,Z+20
 8254 27d6 82FF      		sbrs r24,2
 8255 27d8 00C0      		rjmp .L373
 8256               	.LM735:
 8257 27da 0E94 0000 		call Timebase_Timer_Sync_With_Shadow_Variables
 8258               	.LM736:
 8259 27de 0E94 0000 		call Timebase_UpCounter_SS_Update_All
 8260               	.LM737:
 8261 27e2 E091 0000 		lds r30,Timebase
 8262 27e6 F091 0000 		lds r31,(Timebase)+1
 8263 27ea 8489      		ldd r24,Z+20
 8264 27ec 8B7F      		andi r24,lo8(-5)
 8265 27ee 848B      		std Z+20,r24
 8266               	.L373:
 8267               	.LM738:
 8268 27f0 E091 0000 		lds r30,Timebase
 8269 27f4 F091 0000 		lds r31,(Timebase)+1
 8270 27f8 8489      		ldd r24,Z+20
 8271 27fa 80FF      		sbrs r24,0
 8272 27fc 00C0      		rjmp .L374
 8273               	.LM739:
 8274 27fe 0E94 0000 		call Timebase_Timer_Sync_With_Shadow_Variables
 8275               	.LM740:
 8276 2802 0E94 0000 		call Timebase_UpCounter_Update_All
 8277               	.LM741:
 8278 2806 E091 0000 		lds r30,Timebase
 8279 280a F091 0000 		lds r31,(Timebase)+1
 8280 280e 8489      		ldd r24,Z+20
 8281 2810 8E7F      		andi r24,lo8(-2)
 8282 2812 848B      		std Z+20,r24
 8283               	.L374:
 8284               	.LM742:
 8285 2814 E091 0000 		lds r30,Timebase
 8286 2818 F091 0000 		lds r31,(Timebase)+1
 8287 281c 8489      		ldd r24,Z+20
 8288 281e 83FF      		sbrs r24,3
 8289 2820 00C0      		rjmp .L375
 8290               	.LM743:
 8291 2822 0E94 0000 		call Timebase_Timer_Sync_With_Shadow_Variables
 8292               	.LM744:
 8293 2826 0E94 0000 		call Timebase_DownCounter_SS_Update_All
 8294               	.LM745:
 8295 282a E091 0000 		lds r30,Timebase
 8296 282e F091 0000 		lds r31,(Timebase)+1
 8297 2832 8489      		ldd r24,Z+20
 8298 2834 877F      		andi r24,lo8(-9)
 8299 2836 848B      		std Z+20,r24
 8300               	.L375:
 8301               	.LM746:
 8302 2838 E091 0000 		lds r30,Timebase
 8303 283c F091 0000 		lds r31,(Timebase)+1
 8304 2840 8489      		ldd r24,Z+20
 8305 2842 81FF      		sbrs r24,1
 8306 2844 00C0      		rjmp .L376
 8307               	.LM747:
 8308 2846 0E94 0000 		call Timebase_Timer_Sync_With_Shadow_Variables
 8309               	.LM748:
 8310 284a 0E94 0000 		call Timebase_DownCounter_Update_All
 8311               	.LM749:
 8312 284e E091 0000 		lds r30,Timebase
 8313 2852 F091 0000 		lds r31,(Timebase)+1
 8314 2856 8489      		ldd r24,Z+20
 8315 2858 8D7F      		andi r24,lo8(-3)
 8316 285a 848B      		std Z+20,r24
 8317               	.L376:
 8318               	.LM750:
 8319 285c E091 0000 		lds r30,Timebase
 8320 2860 F091 0000 		lds r31,(Timebase)+1
 8321 2864 138A      		std Z+19,__zero_reg__
 8322               	/* epilogue start */
 8323               	.LM751:
 8324 2866 0895      		ret
 8325               	.LFE141:
 8327               	.global	Timebase_ISR_Executables
 8329               	Timebase_ISR_Executables:
 8330               	.LFB142:
 8331               	.LM752:
 8332               	/* prologue: function */
 8333               	/* frame size = 0 */
 8334               	.LM753:
 8335 2868 E091 0000 		lds r30,Timebase
 8336 286c F091 0000 		lds r31,(Timebase)+1
 8337 2870 8585      		ldd r24,Z+13
 8338 2872 9685      		ldd r25,Z+14
 8339 2874 0196      		adiw r24,1
 8340 2876 9687      		std Z+14,r25
 8341 2878 8587      		std Z+13,r24
 8342               	.LM754:
 8343 287a 8489      		ldd r24,Z+20
 8344 287c 8460      		ori r24,lo8(4)
 8345 287e 848B      		std Z+20,r24
 8346               	.LM755:
 8347 2880 8489      		ldd r24,Z+20
 8348 2882 8860      		ori r24,lo8(8)
 8349 2884 848B      		std Z+20,r24
 8350               	.LM756:
 8351 2886 2585      		ldd r18,Z+13
 8352 2888 3685      		ldd r19,Z+14
 8353 288a 8081      		ld r24,Z
 8354 288c 9181      		ldd r25,Z+1
 8355 288e 2817      		cp r18,r24
 8356 2890 3907      		cpc r19,r25
 8357 2892 00F0      		brlo .L380
 8358               	.LM757:
 8359 2894 8785      		ldd r24,Z+15
 8360 2896 9089      		ldd r25,Z+16
 8361 2898 A189      		ldd r26,Z+17
 8362 289a B289      		ldd r27,Z+18
 8363 289c 0196      		adiw r24,1
 8364 289e A11D      		adc r26,__zero_reg__
 8365 28a0 B11D      		adc r27,__zero_reg__
 8366 28a2 8787      		std Z+15,r24
 8367 28a4 908B      		std Z+16,r25
 8368 28a6 A18B      		std Z+17,r26
 8369 28a8 B28B      		std Z+18,r27
 8370               	.LM758:
 8371 28aa 1686      		std Z+14,__zero_reg__
 8372 28ac 1586      		std Z+13,__zero_reg__
 8373               	.LM759:
 8374 28ae 8489      		ldd r24,Z+20
 8375 28b0 8160      		ori r24,lo8(1)
 8376 28b2 848B      		std Z+20,r24
 8377               	.LM760:
 8378 28b4 8489      		ldd r24,Z+20
 8379 28b6 8260      		ori r24,lo8(2)
 8380 28b8 848B      		std Z+20,r24
 8381               	.L380:
 8382 28ba 0895      		ret
 8383               	.LFE142:
 8385               	.global	__vector_16
 8387               	__vector_16:
 8388               	.LFB10:
 8389               	.LM761:
 8390 28bc 1F92      		push __zero_reg__
 8391 28be 0F92      		push r0
 8392 28c0 0FB6      		in r0,__SREG__
 8393 28c2 0F92      		push r0
 8394 28c4 1124      		clr __zero_reg__
 8395 28c6 2F93      		push r18
 8396 28c8 3F93      		push r19
 8397 28ca 4F93      		push r20
 8398 28cc 5F93      		push r21
 8399 28ce 6F93      		push r22
 8400 28d0 7F93      		push r23
 8401 28d2 8F93      		push r24
 8402 28d4 9F93      		push r25
 8403 28d6 AF93      		push r26
 8404 28d8 BF93      		push r27
 8405 28da EF93      		push r30
 8406 28dc FF93      		push r31
 8407               	/* prologue: Signal */
 8408               	/* frame size = 0 */
 8409               	.LM762:
 8410 28de E091 0000 		lds r30,Timebase
 8411 28e2 F091 0000 		lds r31,(Timebase)+1
 8412 28e6 8281      		ldd r24,Z+2
 8413 28e8 86BD      		out 70-32,r24
 8414               	.LM763:
 8415 28ea 0E94 0000 		call Timebase_ISR_Executables
 8416               	/* epilogue start */
 8417               	.LM764:
 8418 28ee FF91      		pop r31
 8419 28f0 EF91      		pop r30
 8420 28f2 BF91      		pop r27
 8421 28f4 AF91      		pop r26
 8422 28f6 9F91      		pop r25
 8423 28f8 8F91      		pop r24
 8424 28fa 7F91      		pop r23
 8425 28fc 6F91      		pop r22
 8426 28fe 5F91      		pop r21
 8427 2900 4F91      		pop r20
 8428 2902 3F91      		pop r19
 8429 2904 2F91      		pop r18
 8430 2906 0F90      		pop r0
 8431 2908 0FBE      		out __SREG__,r0
 8432 290a 0F90      		pop r0
 8433 290c 1F90      		pop __zero_reg__
 8434 290e 1895      		reti
 8435               	.LFE10:
 8437               		.data
 8440               	C.1.1677:
 8441 0000 0100      		.word	1
 8442 0002 0800      		.word	8
 8443 0004 4000      		.word	64
 8444 0006 0001      		.word	256
 8445 0008 0004      		.word	1024
 8446               		.comm Timebase_type,97,1
 8447               		.comm Timebase,2,1
 9560               	.Letext0:
DEFINED SYMBOLS
                            *ABS*:00000000 timebase.c
C:\Users\farid\AppData\Local\Temp/ccWHA9ge.s:2      *ABS*:0000003f __SREG__
C:\Users\farid\AppData\Local\Temp/ccWHA9ge.s:3      *ABS*:0000003e __SP_H__
C:\Users\farid\AppData\Local\Temp/ccWHA9ge.s:4      *ABS*:0000003d __SP_L__
C:\Users\farid\AppData\Local\Temp/ccWHA9ge.s:5      *ABS*:00000034 __CCP__
C:\Users\farid\AppData\Local\Temp/ccWHA9ge.s:6      *ABS*:00000000 __tmp_reg__
C:\Users\farid\AppData\Local\Temp/ccWHA9ge.s:7      *ABS*:00000001 __zero_reg__
C:\Users\farid\AppData\Local\Temp/ccWHA9ge.s:18     .text:00000000 Timebase_Struct_Init
                            *COM*:00000061 Timebase_type
                            *COM*:00000002 Timebase
C:\Users\farid\AppData\Local\Temp/ccWHA9ge.s:173    .text:00000196 Timebase_Timer_Config
C:\Users\farid\AppData\Local\Temp/ccWHA9ge.s:8440   .data:00000000 C.1.1677
C:\Users\farid\AppData\Local\Temp/ccWHA9ge.s:387    .text:000002b0 Timebase_Atomic_Operation_Start
C:\Users\farid\AppData\Local\Temp/ccWHA9ge.s:405    .text:000002b4 Timebase_Atomic_Operation_End
C:\Users\farid\AppData\Local\Temp/ccWHA9ge.s:423    .text:000002b8 Timebase_Timer_Get_SubSecondsShadow
C:\Users\farid\AppData\Local\Temp/ccWHA9ge.s:441    .text:000002c8 Timebase_Timer_Get_SecondsShadow
C:\Users\farid\AppData\Local\Temp/ccWHA9ge.s:462    .text:000002de Timebase_Timer_Get_SubSeconds
C:\Users\farid\AppData\Local\Temp/ccWHA9ge.s:480    .text:000002ee Timebase_Timer_Get_Seconds
C:\Users\farid\AppData\Local\Temp/ccWHA9ge.s:501    .text:00000304 Timebase_Timer_Set_SubSeconds
C:\Users\farid\AppData\Local\Temp/ccWHA9ge.s:519    .text:00000312 Timebase_Timer_Set_Seconds
C:\Users\farid\AppData\Local\Temp/ccWHA9ge.s:539    .text:00000324 Timebase_Timer_Sync_With_Shadow_Variables
C:\Users\farid\AppData\Local\Temp/ccWHA9ge.s:593    .text:00000354 Timebase_Timer_Delay_SubSeconds
C:\Users\farid\AppData\Local\Temp/ccWHA9ge.s:770    .text:0000040c Timebase_Timer_Await_SubSeconds
C:\Users\farid\AppData\Local\Temp/ccWHA9ge.s:932    .text:000004a6 Timebase_Timer_Delay_Seconds
C:\Users\farid\AppData\Local\Temp/ccWHA9ge.s:1029   .text:000004e8 Timebase_UpCounter_SS_Get_Status
C:\Users\farid\AppData\Local\Temp/ccWHA9ge.s:1063   .text:00000512 Timebase_UpCounter_SS_Set_Status
C:\Users\farid\AppData\Local\Temp/ccWHA9ge.s:1101   .text:00000542 Timebase_UpCounter_SS_Get_Value
C:\Users\farid\AppData\Local\Temp/ccWHA9ge.s:1144   .text:0000057c Timebase_UpCounter_SS_Set_Value
C:\Users\farid\AppData\Local\Temp/ccWHA9ge.s:1194   .text:000005c0 Timebase_UpCounter_SS_Get_EndValueSec
C:\Users\farid\AppData\Local\Temp/ccWHA9ge.s:1237   .text:000005fa Timebase_UpCounter_SS_Get_EndValueSubSec
C:\Users\farid\AppData\Local\Temp/ccWHA9ge.s:1280   .text:00000634 Timebase_UpCounter_SS_Set_EndValueSec
C:\Users\farid\AppData\Local\Temp/ccWHA9ge.s:1315   .text:00000660 Timebase_UpCounter_SS_Set_EndValueSubSec
C:\Users\farid\AppData\Local\Temp/ccWHA9ge.s:1350   .text:0000068c Timebase_UpCounter_SS_Get_TargetValue
C:\Users\farid\AppData\Local\Temp/ccWHA9ge.s:1393   .text:000006c6 Timebase_UpCounter_SS_Set_TargetValue
C:\Users\farid\AppData\Local\Temp/ccWHA9ge.s:1428   .text:000006f2 Timebase_UpCounter_SS_Get_TemporaryValue
C:\Users\farid\AppData\Local\Temp/ccWHA9ge.s:1471   .text:0000072c Timebase_UpCounter_SS_Set_TemporaryValue
C:\Users\farid\AppData\Local\Temp/ccWHA9ge.s:1521   .text:00000770 Timebase_UpCounter_SS_Get_PeriodValue
C:\Users\farid\AppData\Local\Temp/ccWHA9ge.s:1564   .text:000007aa Timebase_UpCounter_SS_Set_PeriodValue
C:\Users\farid\AppData\Local\Temp/ccWHA9ge.s:1599   .text:000007d6 Timebase_UpCounter_SS_Get_Period_Flag
C:\Users\farid\AppData\Local\Temp/ccWHA9ge.s:1632   .text:000007fe Timebase_UpCounter_SS_Set_Period_Flag
C:\Users\farid\AppData\Local\Temp/ccWHA9ge.s:1666   .text:00000828 Timebase_UpCounter_SS_Clear_Period_Flag
C:\Users\farid\AppData\Local\Temp/ccWHA9ge.s:1700   .text:00000852 Timebase_UpCounter_SS_Reset
C:\Users\farid\AppData\Local\Temp/ccWHA9ge.s:1796   .text:000008ac Timebase_UpCounter_SS_Clear_All_Flags
C:\Users\farid\AppData\Local\Temp/ccWHA9ge.s:1812   .text:000008b2 Timebase_UpCounter_SS_Start
C:\Users\farid\AppData\Local\Temp/ccWHA9ge.s:1860   .text:000008e8 Timebase_UpCounter_SS_Stop
C:\Users\farid\AppData\Local\Temp/ccWHA9ge.s:1908   .text:0000091e Timebase_UpCounter_SS_Set_Securely
C:\Users\farid\AppData\Local\Temp/ccWHA9ge.s:2176   .text:00000a96 Timebase_UpCounter_SS_Set_Forcefully
C:\Users\farid\AppData\Local\Temp/ccWHA9ge.s:2212   .text:00000ac0 Timebase_UpCounter_SS_Update
C:\Users\farid\AppData\Local\Temp/ccWHA9ge.s:2728   .text:00000dac Timebase_UpCounter_SS_Expired
C:\Users\farid\AppData\Local\Temp/ccWHA9ge.s:2768   .text:00000de0 Timebase_UpCounter_SS_Expired_Event
C:\Users\farid\AppData\Local\Temp/ccWHA9ge.s:2817   .text:00000e1e Timebase_UpCounter_SS_Set_Period_Value_Securely
C:\Users\farid\AppData\Local\Temp/ccWHA9ge.s:2879   .text:00000e66 Timebase_UpCounter_SS_Get_Remaining_Period_Value
C:\Users\farid\AppData\Local\Temp/ccWHA9ge.s:2937   .text:00000eb2 Timebase_UpCounter_SS_Period_Value_Expired
C:\Users\farid\AppData\Local\Temp/ccWHA9ge.s:3029   .text:00000f2e Timebase_UpCounter_SS_Period_Value_Expired_Event
C:\Users\farid\AppData\Local\Temp/ccWHA9ge.s:3081   .text:00000f6e Timebase_UpCounter_SS_Update_All
C:\Users\farid\AppData\Local\Temp/ccWHA9ge.s:3098   .text:00000f76 Timebase_UpCounter_SS_Reset_All
C:\Users\farid\AppData\Local\Temp/ccWHA9ge.s:3115   .text:00000f7e Timebase_UpCounter_Get_Status
C:\Users\farid\AppData\Local\Temp/ccWHA9ge.s:3149   .text:00000fa8 Timebase_UpCounter_Set_Status
C:\Users\farid\AppData\Local\Temp/ccWHA9ge.s:3187   .text:00000fd8 Timebase_UpCounter_Get_Value
C:\Users\farid\AppData\Local\Temp/ccWHA9ge.s:3230   .text:00001012 Timebase_UpCounter_Set_Value
C:\Users\farid\AppData\Local\Temp/ccWHA9ge.s:3280   .text:00001056 Timebase_UpCounter_Get_EndValueSec
C:\Users\farid\AppData\Local\Temp/ccWHA9ge.s:3323   .text:00001090 Timebase_UpCounter_Get_EndValueSubSec
C:\Users\farid\AppData\Local\Temp/ccWHA9ge.s:3366   .text:000010ca Timebase_UpCounter_Set_EndValueSec
C:\Users\farid\AppData\Local\Temp/ccWHA9ge.s:3401   .text:000010f6 Timebase_UpCounter_Set_EndValueSubSec
C:\Users\farid\AppData\Local\Temp/ccWHA9ge.s:3436   .text:00001122 Timebase_UpCounter_Get_TargetValue
C:\Users\farid\AppData\Local\Temp/ccWHA9ge.s:3479   .text:0000115c Timebase_UpCounter_Set_TargetValue
C:\Users\farid\AppData\Local\Temp/ccWHA9ge.s:3514   .text:00001188 Timebase_UpCounter_Get_TemporaryValue
C:\Users\farid\AppData\Local\Temp/ccWHA9ge.s:3557   .text:000011c2 Timebase_UpCounter_Set_TemporaryValue
C:\Users\farid\AppData\Local\Temp/ccWHA9ge.s:3607   .text:00001206 Timebase_UpCounter_Get_PeriodValue
C:\Users\farid\AppData\Local\Temp/ccWHA9ge.s:3644   .text:00001234 Timebase_UpCounter_Set_PeriodValue
C:\Users\farid\AppData\Local\Temp/ccWHA9ge.s:3680   .text:00001262 Timebase_UpCounter_Get_Period_Flag
C:\Users\farid\AppData\Local\Temp/ccWHA9ge.s:3713   .text:0000128a Timebase_UpCounter_Set_Period_Flag
C:\Users\farid\AppData\Local\Temp/ccWHA9ge.s:3747   .text:000012b4 Timebase_UpCounter_Clear_Period_Flag
C:\Users\farid\AppData\Local\Temp/ccWHA9ge.s:3781   .text:000012de Timebase_UpCounter_Reset
C:\Users\farid\AppData\Local\Temp/ccWHA9ge.s:3870   .text:00001334 Timebase_UpCounter_Clear_All_Flags
C:\Users\farid\AppData\Local\Temp/ccWHA9ge.s:3886   .text:0000133a Timebase_UpCounter_Start
C:\Users\farid\AppData\Local\Temp/ccWHA9ge.s:3934   .text:00001370 Timebase_UpCounter_Stop
C:\Users\farid\AppData\Local\Temp/ccWHA9ge.s:3982   .text:000013a6 Timebase_UpCounter_Set_Securely
C:\Users\farid\AppData\Local\Temp/ccWHA9ge.s:4091   .text:00001416 Timebase_UpCounter_Set_Forcefully
C:\Users\farid\AppData\Local\Temp/ccWHA9ge.s:4127   .text:00001440 Timebase_UpCounter_Update
C:\Users\farid\AppData\Local\Temp/ccWHA9ge.s:4411   .text:000015b0 Timebase_UpCounter_Expired
C:\Users\farid\AppData\Local\Temp/ccWHA9ge.s:4451   .text:000015e4 Timebase_UpCounter_Expired_Event
C:\Users\farid\AppData\Local\Temp/ccWHA9ge.s:4500   .text:00001622 Timebase_UpCounter_Set_Period_Value_Securely
C:\Users\farid\AppData\Local\Temp/ccWHA9ge.s:4564   .text:0000166e Timebase_UpCounter_Get_Remaining_Period_Value
C:\Users\farid\AppData\Local\Temp/ccWHA9ge.s:4624   .text:000016be Timebase_UpCounter_Period_Value_Expired
C:\Users\farid\AppData\Local\Temp/ccWHA9ge.s:4718   .text:0000173e Timebase_UpCounter_Period_Value_Expired_Event
C:\Users\farid\AppData\Local\Temp/ccWHA9ge.s:4770   .text:0000177e Timebase_UpCounter_Update_All
C:\Users\farid\AppData\Local\Temp/ccWHA9ge.s:4787   .text:00001786 Timebase_UpCounter_Reset_All
C:\Users\farid\AppData\Local\Temp/ccWHA9ge.s:4804   .text:0000178e Timebase_DownCounter_SS_Get_Status
C:\Users\farid\AppData\Local\Temp/ccWHA9ge.s:4838   .text:000017b8 Timebase_DownCounter_SS_Set_Status
C:\Users\farid\AppData\Local\Temp/ccWHA9ge.s:4876   .text:000017e8 Timebase_DownCounter_SS_Get_Value
C:\Users\farid\AppData\Local\Temp/ccWHA9ge.s:4912   .text:00001814 Timebase_DownCounter_SS_Set_Value
C:\Users\farid\AppData\Local\Temp/ccWHA9ge.s:4946   .text:00001840 Timebase_DownCounter_SS_Get_EndValueSec
C:\Users\farid\AppData\Local\Temp/ccWHA9ge.s:4982   .text:0000186c Timebase_DownCounter_SS_Get_EndValueSubSec
C:\Users\farid\AppData\Local\Temp/ccWHA9ge.s:5018   .text:00001898 Timebase_DownCounter_SS_Set_EndValueSec
C:\Users\farid\AppData\Local\Temp/ccWHA9ge.s:5052   .text:000018c4 Timebase_DownCounter_SS_Set_EndValueSubSec
C:\Users\farid\AppData\Local\Temp/ccWHA9ge.s:5086   .text:000018f0 Timebase_DownCounter_SS_Get_PeriodValue
C:\Users\farid\AppData\Local\Temp/ccWHA9ge.s:5122   .text:0000191c Timebase_DownCounter_SS_Set_PeriodValue
C:\Users\farid\AppData\Local\Temp/ccWHA9ge.s:5179   .text:00001970 Timebase_DownCounter_SS_Get_Period_Flag
C:\Users\farid\AppData\Local\Temp/ccWHA9ge.s:5212   .text:00001998 Timebase_DownCounter_SS_Set_Period_Flag
C:\Users\farid\AppData\Local\Temp/ccWHA9ge.s:5246   .text:000019c2 Timebase_DownCounter_SS_Clear_Period_Flag
C:\Users\farid\AppData\Local\Temp/ccWHA9ge.s:5280   .text:000019ec Timebase_DownCounter_SS_Reset
C:\Users\farid\AppData\Local\Temp/ccWHA9ge.s:5351   .text:00001a32 Timebase_DownCounter_SS_Clear_All_Flags
C:\Users\farid\AppData\Local\Temp/ccWHA9ge.s:5426   .text:00001a78 Timebase_DownCounter_SS_Start
C:\Users\farid\AppData\Local\Temp/ccWHA9ge.s:5474   .text:00001aae Timebase_DownCounter_SS_Stop
C:\Users\farid\AppData\Local\Temp/ccWHA9ge.s:5522   .text:00001ae4 Timebase_DownCounter_SS_Set_Securely
C:\Users\farid\AppData\Local\Temp/ccWHA9ge.s:5780   .text:00001c5c Timebase_DownCounter_SS_Set_Forcefully
C:\Users\farid\AppData\Local\Temp/ccWHA9ge.s:5858   .text:00001ca8 Timebase_DownCounter_SS_Update
C:\Users\farid\AppData\Local\Temp/ccWHA9ge.s:6155   .text:00001e2a Timebase_DownCounter_SS_Expired
C:\Users\farid\AppData\Local\Temp/ccWHA9ge.s:6195   .text:00001e5e Timebase_DownCounter_SS_Expired_Event
C:\Users\farid\AppData\Local\Temp/ccWHA9ge.s:6290   .text:00001eb8 Timebase_DownCounter_SS_Set_Period_Value_Securely
C:\Users\farid\AppData\Local\Temp/ccWHA9ge.s:6387   .text:00001f38 Timebase_DownCounter_SS_Get_Remaining_Period_Value
C:\Users\farid\AppData\Local\Temp/ccWHA9ge.s:6449   .text:00001f8c Timebase_DownCounter_SS_Period_Value_Expired
C:\Users\farid\AppData\Local\Temp/ccWHA9ge.s:6546   .text:00002012 Timebase_DownCounter_SS_Period_Value_Expired_Event
C:\Users\farid\AppData\Local\Temp/ccWHA9ge.s:6598   .text:00002052 Timebase_DownCounter_SS_Update_All
C:\Users\farid\AppData\Local\Temp/ccWHA9ge.s:6615   .text:0000205a Timebase_DownCounter_SS_Reset_All
C:\Users\farid\AppData\Local\Temp/ccWHA9ge.s:6679   .text:0000208a Timebase_DownCounter_Get_Status
C:\Users\farid\AppData\Local\Temp/ccWHA9ge.s:6715   .text:000020b8 Timebase_DownCounter_Set_Status
C:\Users\farid\AppData\Local\Temp/ccWHA9ge.s:6755   .text:000020ec Timebase_DownCounter_Get_Value
C:\Users\farid\AppData\Local\Temp/ccWHA9ge.s:6793   .text:0000211c Timebase_DownCounter_Set_Value
C:\Users\farid\AppData\Local\Temp/ccWHA9ge.s:6830   .text:0000214c Timebase_DownCounter_Get_EndValue
C:\Users\farid\AppData\Local\Temp/ccWHA9ge.s:6868   .text:0000217c Timebase_DownCounter_Set_EndValue
C:\Users\farid\AppData\Local\Temp/ccWHA9ge.s:6905   .text:000021ac Timebase_DownCounter_Get_PeriodValue
C:\Users\farid\AppData\Local\Temp/ccWHA9ge.s:6943   .text:000021dc Timebase_DownCounter_Set_PeriodValue
C:\Users\farid\AppData\Local\Temp/ccWHA9ge.s:7005   .text:00002238 Timebase_DownCounter_Get_Period_Flag
C:\Users\farid\AppData\Local\Temp/ccWHA9ge.s:7040   .text:00002264 Timebase_DownCounter_Set_Period_Flag
C:\Users\farid\AppData\Local\Temp/ccWHA9ge.s:7076   .text:00002292 Timebase_DownCounter_Clear_Period_Flag
C:\Users\farid\AppData\Local\Temp/ccWHA9ge.s:7112   .text:000022c0 Timebase_DownCounter_Reset
C:\Users\farid\AppData\Local\Temp/ccWHA9ge.s:7175   .text:00002300 Timebase_DownCounter_Clear_All_Flags
C:\Users\farid\AppData\Local\Temp/ccWHA9ge.s:7242   .text:00002340 Timebase_DownCounter_Start
C:\Users\farid\AppData\Local\Temp/ccWHA9ge.s:7292   .text:0000237a Timebase_DownCounter_Stop
C:\Users\farid\AppData\Local\Temp/ccWHA9ge.s:7342   .text:000023b4 Timebase_DownCounter_Set_Securely
C:\Users\farid\AppData\Local\Temp/ccWHA9ge.s:7442   .text:00002426 Timebase_DownCounter_Set_Forcefully
C:\Users\farid\AppData\Local\Temp/ccWHA9ge.s:7516   .text:00002474 Timebase_DownCounter_Update
C:\Users\farid\AppData\Local\Temp/ccWHA9ge.s:7683   .text:0000253e Timebase_DownCounter_Expired
C:\Users\farid\AppData\Local\Temp/ccWHA9ge.s:7725   .text:00002576 Timebase_DownCounter_Expired_Event
C:\Users\farid\AppData\Local\Temp/ccWHA9ge.s:7812   .text:000025ca Timebase_DownCounter_Set_Period_Value_Securely
C:\Users\farid\AppData\Local\Temp/ccWHA9ge.s:7911   .text:0000264e Timebase_DownCounter_Get_Remaining_Period_Value
C:\Users\farid\AppData\Local\Temp/ccWHA9ge.s:7975   .text:000026a6 Timebase_DownCounter_Period_Value_Expired
C:\Users\farid\AppData\Local\Temp/ccWHA9ge.s:8075   .text:00002732 Timebase_DownCounter_Period_Value_Expired_Event
C:\Users\farid\AppData\Local\Temp/ccWHA9ge.s:8129   .text:00002776 Timebase_DownCounter_Update_All
C:\Users\farid\AppData\Local\Temp/ccWHA9ge.s:8146   .text:0000277e Timebase_DownCounter_Reset_All
C:\Users\farid\AppData\Local\Temp/ccWHA9ge.s:8200   .text:000027a4 Timebase_Reset
C:\Users\farid\AppData\Local\Temp/ccWHA9ge.s:8218   .text:000027b2 Timebase_Init
C:\Users\farid\AppData\Local\Temp/ccWHA9ge.s:8245   .text:000027cc Timebase_Main_Loop_Executables
C:\Users\farid\AppData\Local\Temp/ccWHA9ge.s:8329   .text:00002868 Timebase_ISR_Executables
C:\Users\farid\AppData\Local\Temp/ccWHA9ge.s:8387   .text:000028bc __vector_16

UNDEFINED SYMBOLS
__divmodsi4
__mulsi3
__do_copy_data
__do_clear_bss
