   1               		.file	"timebase.c"
   2               	__SREG__ = 0x3f
   3               	__SP_H__ = 0x3e
   4               	__SP_L__ = 0x3d
   5               	__CCP__  = 0x34
   6               	__tmp_reg__ = 0
   7               	__zero_reg__ = 1
  15               	.Ltext0:
  16               	.global	Timebase_Struct_Init
  18               	Timebase_Struct_Init:
  19               	.LFB6:
  20               	.LM1:
  21               	/* prologue: function */
  22               	/* frame size = 0 */
  23               	.LM2:
  24 0000 80E0      		ldi r24,lo8(Timebase_type)
  25 0002 90E0      		ldi r25,hi8(Timebase_type)
  26 0004 9093 0000 		sts (Timebase)+1,r25
  27 0008 8093 0000 		sts Timebase,r24
  28               	.LM3:
  29 000c 1092 0000 		sts Timebase_type,__zero_reg__
  30               	.LM4:
  31 0010 8091 0000 		lds r24,Timebase_type
  32 0014 8460      		ori r24,lo8(4)
  33 0016 8093 0000 		sts Timebase_type,r24
  34               	.LM5:
  35 001a 8091 0000 		lds r24,Timebase_type
  36 001e 8770      		andi r24,lo8(7)
  37 0020 8093 0000 		sts Timebase_type,r24
  38               	.LM6:
  39 0024 81E0      		ldi r24,lo8(1)
  40 0026 90E0      		ldi r25,hi8(1)
  41 0028 9093 0000 		sts (Timebase_type+1)+1,r25
  42 002c 8093 0000 		sts Timebase_type+1,r24
  43               	.LM7:
  44 0030 1092 0000 		sts Timebase_type+3,__zero_reg__
  45               	.LM8:
  46 0034 1092 0000 		sts (Timebase_type+8)+1,__zero_reg__
  47 0038 1092 0000 		sts Timebase_type+8,__zero_reg__
  48               	.LM9:
  49 003c 1092 0000 		sts Timebase_type+10,__zero_reg__
  50 0040 1092 0000 		sts (Timebase_type+10)+1,__zero_reg__
  51 0044 1092 0000 		sts (Timebase_type+10)+2,__zero_reg__
  52 0048 1092 0000 		sts (Timebase_type+10)+3,__zero_reg__
  53               	.LM10:
  54 004c 1092 0000 		sts Timebase_type+4,__zero_reg__
  55 0050 1092 0000 		sts (Timebase_type+4)+1,__zero_reg__
  56 0054 1092 0000 		sts (Timebase_type+4)+2,__zero_reg__
  57 0058 1092 0000 		sts (Timebase_type+4)+3,__zero_reg__
  58               	.LM11:
  59 005c 1092 0000 		sts Timebase_type+14,__zero_reg__
  60 0060 1092 0000 		sts (Timebase_type+14)+1,__zero_reg__
  61 0064 1092 0000 		sts (Timebase_type+14)+2,__zero_reg__
  62 0068 1092 0000 		sts (Timebase_type+14)+3,__zero_reg__
  63               	.LM12:
  64 006c 1092 0000 		sts Timebase_type+18,__zero_reg__
  65 0070 1092 0000 		sts (Timebase_type+18)+1,__zero_reg__
  66 0074 1092 0000 		sts (Timebase_type+18)+2,__zero_reg__
  67 0078 1092 0000 		sts (Timebase_type+18)+3,__zero_reg__
  68               	.LM13:
  69 007c 1092 0000 		sts Timebase_type+22,__zero_reg__
  70               	.LM14:
  71 0080 1092 0000 		sts Timebase_type+23,__zero_reg__
  72               	.LM15:
  73 0084 1092 0000 		sts Timebase_type+24,__zero_reg__
  74               	.LBB537:
  75               	.LM16:
  76 0088 1092 0000 		sts Timebase_type+50,__zero_reg__
  77               	.LM17:
  78 008c 1092 0000 		sts Timebase_type+51,__zero_reg__
  79 0090 1092 0000 		sts (Timebase_type+51)+1,__zero_reg__
  80 0094 1092 0000 		sts (Timebase_type+51)+2,__zero_reg__
  81 0098 1092 0000 		sts (Timebase_type+51)+3,__zero_reg__
  82               	.LM18:
  83 009c 1092 0000 		sts Timebase_type+55,__zero_reg__
  84 00a0 1092 0000 		sts (Timebase_type+55)+1,__zero_reg__
  85 00a4 1092 0000 		sts (Timebase_type+55)+2,__zero_reg__
  86 00a8 1092 0000 		sts (Timebase_type+55)+3,__zero_reg__
  87               	.LM19:
  88 00ac 1092 0000 		sts Timebase_type+59,__zero_reg__
  89 00b0 1092 0000 		sts (Timebase_type+59)+1,__zero_reg__
  90 00b4 1092 0000 		sts (Timebase_type+59)+2,__zero_reg__
  91 00b8 1092 0000 		sts (Timebase_type+59)+3,__zero_reg__
  92               	.LM20:
  93 00bc 1092 0000 		sts Timebase_type+63,__zero_reg__
  94 00c0 1092 0000 		sts (Timebase_type+63)+1,__zero_reg__
  95 00c4 1092 0000 		sts (Timebase_type+63)+2,__zero_reg__
  96 00c8 1092 0000 		sts (Timebase_type+63)+3,__zero_reg__
  97               	.LM21:
  98 00cc 1092 0000 		sts Timebase_type+67,__zero_reg__
  99 00d0 1092 0000 		sts (Timebase_type+67)+1,__zero_reg__
 100 00d4 1092 0000 		sts (Timebase_type+67)+2,__zero_reg__
 101 00d8 1092 0000 		sts (Timebase_type+67)+3,__zero_reg__
 102               	.LBE537:
 103               	.LBB538:
 104               	.LM22:
 105 00dc 1092 0000 		sts Timebase_type+25,__zero_reg__
 106               	.LM23:
 107 00e0 1092 0000 		sts Timebase_type+26,__zero_reg__
 108 00e4 1092 0000 		sts (Timebase_type+26)+1,__zero_reg__
 109 00e8 1092 0000 		sts (Timebase_type+26)+2,__zero_reg__
 110 00ec 1092 0000 		sts (Timebase_type+26)+3,__zero_reg__
 111               	.LM24:
 112 00f0 1092 0000 		sts Timebase_type+30,__zero_reg__
 113 00f4 1092 0000 		sts (Timebase_type+30)+1,__zero_reg__
 114 00f8 1092 0000 		sts (Timebase_type+30)+2,__zero_reg__
 115 00fc 1092 0000 		sts (Timebase_type+30)+3,__zero_reg__
 116               	.LM25:
 117 0100 1092 0000 		sts Timebase_type+34,__zero_reg__
 118 0104 1092 0000 		sts (Timebase_type+34)+1,__zero_reg__
 119 0108 1092 0000 		sts (Timebase_type+34)+2,__zero_reg__
 120 010c 1092 0000 		sts (Timebase_type+34)+3,__zero_reg__
 121               	.LM26:
 122 0110 1092 0000 		sts Timebase_type+38,__zero_reg__
 123 0114 1092 0000 		sts (Timebase_type+38)+1,__zero_reg__
 124 0118 1092 0000 		sts (Timebase_type+38)+2,__zero_reg__
 125 011c 1092 0000 		sts (Timebase_type+38)+3,__zero_reg__
 126               	.LM27:
 127 0120 1092 0000 		sts Timebase_type+42,__zero_reg__
 128 0124 1092 0000 		sts (Timebase_type+42)+1,__zero_reg__
 129 0128 1092 0000 		sts (Timebase_type+42)+2,__zero_reg__
 130 012c 1092 0000 		sts (Timebase_type+42)+3,__zero_reg__
 131               	.LM28:
 132 0130 1092 0000 		sts Timebase_type+46,__zero_reg__
 133 0134 1092 0000 		sts (Timebase_type+46)+1,__zero_reg__
 134 0138 1092 0000 		sts (Timebase_type+46)+2,__zero_reg__
 135 013c 1092 0000 		sts (Timebase_type+46)+3,__zero_reg__
 136               	.LBE538:
 137               	.LBB539:
 138               	.LM29:
 139 0140 1092 0000 		sts Timebase_type+88,__zero_reg__
 140               	.LM30:
 141 0144 1092 0000 		sts Timebase_type+89,__zero_reg__
 142 0148 1092 0000 		sts (Timebase_type+89)+1,__zero_reg__
 143 014c 1092 0000 		sts (Timebase_type+89)+2,__zero_reg__
 144 0150 1092 0000 		sts (Timebase_type+89)+3,__zero_reg__
 145               	.LM31:
 146 0154 1092 0000 		sts Timebase_type+93,__zero_reg__
 147 0158 1092 0000 		sts (Timebase_type+93)+1,__zero_reg__
 148 015c 1092 0000 		sts (Timebase_type+93)+2,__zero_reg__
 149 0160 1092 0000 		sts (Timebase_type+93)+3,__zero_reg__
 150               	.LM32:
 151 0164 1092 0000 		sts Timebase_type+97,__zero_reg__
 152 0168 1092 0000 		sts (Timebase_type+97)+1,__zero_reg__
 153 016c 1092 0000 		sts (Timebase_type+97)+2,__zero_reg__
 154 0170 1092 0000 		sts (Timebase_type+97)+3,__zero_reg__
 155               	.LBE539:
 156               	.LBB540:
 157               	.LM33:
 158 0174 1092 0000 		sts Timebase_type+71,__zero_reg__
 159               	.LM34:
 160 0178 1092 0000 		sts Timebase_type+72,__zero_reg__
 161 017c 1092 0000 		sts (Timebase_type+72)+1,__zero_reg__
 162 0180 1092 0000 		sts (Timebase_type+72)+2,__zero_reg__
 163 0184 1092 0000 		sts (Timebase_type+72)+3,__zero_reg__
 164               	.LM35:
 165 0188 1092 0000 		sts Timebase_type+76,__zero_reg__
 166 018c 1092 0000 		sts (Timebase_type+76)+1,__zero_reg__
 167 0190 1092 0000 		sts (Timebase_type+76)+2,__zero_reg__
 168 0194 1092 0000 		sts (Timebase_type+76)+3,__zero_reg__
 169               	.LM36:
 170 0198 1092 0000 		sts Timebase_type+80,__zero_reg__
 171 019c 1092 0000 		sts (Timebase_type+80)+1,__zero_reg__
 172 01a0 1092 0000 		sts (Timebase_type+80)+2,__zero_reg__
 173 01a4 1092 0000 		sts (Timebase_type+80)+3,__zero_reg__
 174               	.LM37:
 175 01a8 1092 0000 		sts Timebase_type+84,__zero_reg__
 176 01ac 1092 0000 		sts (Timebase_type+84)+1,__zero_reg__
 177 01b0 1092 0000 		sts (Timebase_type+84)+2,__zero_reg__
 178 01b4 1092 0000 		sts (Timebase_type+84)+3,__zero_reg__
 179               	/* epilogue start */
 180               	.LBE540:
 181               	.LM38:
 182 01b8 0895      		ret
 183               	.LFE6:
 185               	.global	Timebase_Timer_Config
 187               	Timebase_Timer_Config:
 188               	.LFB7:
 189               	.LM39:
 190               	.LVL0:
 191 01ba 7F92      		push r7
 192 01bc 8F92      		push r8
 193 01be 9F92      		push r9
 194 01c0 AF92      		push r10
 195 01c2 BF92      		push r11
 196 01c4 CF92      		push r12
 197 01c6 DF92      		push r13
 198 01c8 EF92      		push r14
 199 01ca FF92      		push r15
 200 01cc 0F93      		push r16
 201 01ce 1F93      		push r17
 202 01d0 DF93      		push r29
 203 01d2 CF93      		push r28
 204 01d4 CDB7      		in r28,__SP_L__
 205 01d6 DEB7      		in r29,__SP_H__
 206 01d8 2A97      		sbiw r28,10
 207 01da 0FB6      		in __tmp_reg__,__SREG__
 208 01dc F894      		cli
 209 01de DEBF      		out __SP_H__,r29
 210 01e0 0FBE      		out __SREG__,__tmp_reg__
 211 01e2 CDBF      		out __SP_L__,r28
 212               	/* prologue: function */
 213               	/* frame size = 10 */
 214 01e4 8C01      		movw r16,r24
 215               	.LM40:
 216 01e6 C090 0000 		lds r12,Timebase
 217 01ea D090 0000 		lds r13,(Timebase)+1
 218 01ee F601      		movw r30,r12
 219 01f0 8081      		ld r24,Z
 220               	.LVL1:
 221 01f2 80FF      		sbrs r24,0
 222 01f4 00C0      		rjmp .L4
 223               	.LBB541:
 224               	.LM41:
 225 01f6 0130      		cpi r16,1
 226 01f8 1105      		cpc r17,__zero_reg__
 227 01fa 01F4      		brne .L5
 228 01fc 96E0      		ldi r25,lo8(6)
 229               	.LVL2:
 230 01fe 00C0      		rjmp .L6
 231               	.LVL3:
 232               	.L5:
 233               	.LM42:
 234 0200 0230      		cpi r16,2
 235 0202 1105      		cpc r17,__zero_reg__
 236 0204 01F4      		brne .L7
 237 0206 95E0      		ldi r25,lo8(5)
 238               	.LVL4:
 239 0208 00C0      		rjmp .L6
 240               	.LVL5:
 241               	.L7:
 242               	.LM43:
 243 020a 0430      		cpi r16,4
 244 020c 1105      		cpc r17,__zero_reg__
 245 020e 01F4      		brne .L8
 246 0210 94E0      		ldi r25,lo8(4)
 247               	.LVL6:
 248 0212 00C0      		rjmp .L6
 249               	.LVL7:
 250               	.L8:
 251               	.LM44:
 252 0214 0830      		cpi r16,8
 253 0216 1105      		cpc r17,__zero_reg__
 254 0218 01F4      		brne .L9
 255 021a 93E0      		ldi r25,lo8(3)
 256               	.LVL8:
 257 021c 00C0      		rjmp .L6
 258               	.LVL9:
 259               	.L9:
 260               	.LM45:
 261 021e 0031      		cpi r16,16
 262 0220 1105      		cpc r17,__zero_reg__
 263 0222 01F4      		brne .L10
 264 0224 92E0      		ldi r25,lo8(2)
 265               	.LVL10:
 266 0226 00C0      		rjmp .L6
 267               	.LVL11:
 268               	.L10:
 269 0228 90E0      		ldi r25,lo8(0)
 270               	.LVL12:
 271 022a 0032      		cpi r16,32
 272 022c 1105      		cpc r17,__zero_reg__
 273 022e 01F4      		brne .L6
 274 0230 91E0      		ldi r25,lo8(1)
 275               	.L6:
 276               	.LM46:
 277               	/* #APP */
 278               	 ;  268 "timebase.c" 1
 279 0232 F894      		cli
 280               	 ;  0 "" 2
 281               	.LM47:
 282               	/* #NOAPP */
 283 0234 84B7      		in r24,84-32
 284 0236 877F      		andi r24,lo8(-9)
 285 0238 84BF      		out 84-32,r24
 286               	.LM48:
 287 023a 8091 6000 		lds r24,96
 288 023e 8068      		ori r24,lo8(-128)
 289 0240 8093 6000 		sts 96,r24
 290               	.LM49:
 291 0244 8091 6000 		lds r24,96
 292 0248 8861      		ori r24,lo8(24)
 293 024a 8093 6000 		sts 96,r24
 294               	.LM50:
 295 024e 9064      		ori r25,lo8(64)
 296 0250 9093 6000 		sts 96,r25
 297               	.LM51:
 298               	/* #APP */
 299               	 ;  273 "timebase.c" 1
 300 0254 7894      		sei
 301               	 ;  0 "" 2
 302               	/* #NOAPP */
 303 0256 00C0      		rjmp .L12
 304               	.LVL13:
 305               	.L4:
 306               	.LBE541:
 307               	.LM52:
 308 0258 81FD      		sbrc r24,1
 309 025a 00C0      		rjmp .L12
 310               	.LM53:
 311 025c 82FF      		sbrs r24,2
 312 025e 00C0      		rjmp .L12
 313               	.LBB542:
 314               	.LM54:
 315 0260 DE01      		movw r26,r28
 316 0262 1196      		adiw r26,1
 317 0264 E0E0      		ldi r30,lo8(C.2.1620)
 318 0266 F0E0      		ldi r31,hi8(C.2.1620)
 319 0268 8AE0      		ldi r24,lo8(10)
 320               	.L13:
 321 026a 0190      		ld r0,Z+
 322 026c 0D92      		st X+,r0
 323 026e 8150      		subi r24,lo8(-(-1))
 324 0270 01F4      		brne .L13
 325               	.LM55:
 326 0272 9801      		movw r18,r16
 327 0274 40E0      		ldi r20,lo8(0)
 328 0276 50E0      		ldi r21,hi8(0)
 329               	.LVL14:
 330 0278 60E0      		ldi r22,lo8(12000000)
 331 027a 7BE1      		ldi r23,hi8(12000000)
 332 027c 87EB      		ldi r24,hlo8(12000000)
 333 027e 90E0      		ldi r25,hhi8(12000000)
 334 0280 0E94 0000 		call __divmodsi4
 335 0284 722E      		mov r7,r18
 336 0286 832E      		mov r8,r19
 337 0288 942E      		mov r9,r20
 338               	.LVL15:
 339 028a E52E      		mov r14,r21
 340 028c 5E01      		movw r10,r28
 341 028e 0894      		sec
 342 0290 A11C      		adc r10,__zero_reg__
 343 0292 B11C      		adc r11,__zero_reg__
 344 0294 C901      		movw r24,r18
 345 0296 DA01      		movw r26,r20
 346 0298 9C01      		movw r18,r24
 347 029a AD01      		movw r20,r26
 348               	.LVL16:
 349 029c FF24      		clr r15
 350               	.LVL17:
 351 029e 00C0      		rjmp .L14
 352               	.LVL18:
 353               	.L16:
 354               	.LM56:
 355 02a0 F501      		movw r30,r10
 356 02a2 2191      		ld r18,Z+
 357 02a4 3191      		ld r19,Z+
 358               	.LVL19:
 359 02a6 5F01      		movw r10,r30
 360 02a8 40E0      		ldi r20,lo8(0)
 361 02aa 50E0      		ldi r21,hi8(0)
 362 02ac 672D      		mov r22,r7
 363 02ae 782D      		mov r23,r8
 364 02b0 892D      		mov r24,r9
 365               	.LVL20:
 366 02b2 9E2D      		mov r25,r14
 367 02b4 0E94 0000 		call __divmodsi4
 368 02b8 C901      		movw r24,r18
 369 02ba DA01      		movw r26,r20
 370 02bc 9C01      		movw r18,r24
 371 02be AD01      		movw r20,r26
 372               	.LVL21:
 373               	.LM57:
 374 02c0 F394      		inc r15
 375               	.LM58:
 376 02c2 F5E0      		ldi r31,lo8(5)
 377 02c4 FF16      		cp r15,r31
 378 02c6 01F0      		breq .L15
 379               	.LVL22:
 380               	.L14:
 381               	.LM59:
 382 02c8 2F3F      		cpi r18,lo8(255)
 383 02ca 3105      		cpc r19,__zero_reg__
 384 02cc 4105      		cpc r20,__zero_reg__
 385 02ce 5105      		cpc r21,__zero_reg__
 386 02d0 01F0      		breq .+2
 387 02d2 04F4      		brge .L16
 388               	.L15:
 389               	.LM60:
 390 02d4 8F2D      		mov r24,r15
 391 02d6 8150      		subi r24,lo8(-(-1))
 392               	.LVL23:
 393               	.LM61:
 394 02d8 14BC      		out 68-32,__zero_reg__
 395               	.LM62:
 396 02da 15BC      		out 69-32,__zero_reg__
 397               	.LM63:
 398 02dc 1092 6E00 		sts 110,__zero_reg__
 399               	.LM64:
 400 02e0 15BA      		out 53-32,__zero_reg__
 401               	.LM65:
 402 02e2 17BC      		out 71-32,__zero_reg__
 403               	.LM66:
 404 02e4 18BC      		out 72-32,__zero_reg__
 405               	.LM67:
 406 02e6 16BC      		out 70-32,__zero_reg__
 407               	.LM68:
 408 02e8 17BC      		out 71-32,__zero_reg__
 409               	.LM69:
 410 02ea 8823      		tst r24
 411 02ec 01F4      		brne .L17
 412               	.LM70:
 413 02ee 81E0      		ldi r24,lo8(1)
 414               	.LVL24:
 415 02f0 00C0      		rjmp .L24
 416               	.LVL25:
 417               	.L17:
 418               	.LM71:
 419 02f2 8130      		cpi r24,lo8(1)
 420 02f4 01F4      		brne .L19
 421               	.LM72:
 422 02f6 82E0      		ldi r24,lo8(2)
 423               	.LVL26:
 424 02f8 00C0      		rjmp .L24
 425               	.LVL27:
 426               	.L19:
 427               	.LM73:
 428 02fa 8230      		cpi r24,lo8(2)
 429 02fc 01F4      		brne .L20
 430               	.LM74:
 431 02fe 83E0      		ldi r24,lo8(3)
 432               	.LVL28:
 433 0300 00C0      		rjmp .L24
 434               	.LVL29:
 435               	.L20:
 436               	.LM75:
 437 0302 8330      		cpi r24,lo8(3)
 438 0304 01F4      		brne .L21
 439               	.LM76:
 440 0306 84E0      		ldi r24,lo8(4)
 441               	.LVL30:
 442 0308 00C0      		rjmp .L24
 443               	.LVL31:
 444               	.L21:
 445               	.LM77:
 446 030a 8430      		cpi r24,lo8(4)
 447 030c 01F4      		brne .L18
 448               	.LM78:
 449 030e 85E0      		ldi r24,lo8(5)
 450               	.LVL32:
 451               	.L24:
 452 0310 85BD      		out 69-32,r24
 453               	.LVL33:
 454               	.L18:
 455               	.LM79:
 456 0312 822F      		mov r24,r18
 457               	.LVL34:
 458 0314 8095      		com r24
 459 0316 F601      		movw r30,r12
 460 0318 8383      		std Z+3,r24
 461               	.LM80:
 462 031a 8381      		ldd r24,Z+3
 463 031c 86BD      		out 70-32,r24
 464               	.LM81:
 465 031e 81E0      		ldi r24,lo8(1)
 466 0320 8093 6E00 		sts 110,r24
 467               	.LM82:
 468               	/* #APP */
 469               	 ;  321 "timebase.c" 1
 470 0324 7894      		sei
 471               	 ;  0 "" 2
 472               	.LVL35:
 473               	/* #NOAPP */
 474               	.L12:
 475               	.LBE542:
 476               	.LM83:
 477 0326 F601      		movw r30,r12
 478 0328 1283      		std Z+2,r17
 479 032a 0183      		std Z+1,r16
 480               	/* epilogue start */
 481               	.LM84:
 482 032c 2A96      		adiw r28,10
 483 032e 0FB6      		in __tmp_reg__,__SREG__
 484 0330 F894      		cli
 485 0332 DEBF      		out __SP_H__,r29
 486 0334 0FBE      		out __SREG__,__tmp_reg__
 487 0336 CDBF      		out __SP_L__,r28
 488 0338 CF91      		pop r28
 489 033a DF91      		pop r29
 490 033c 1F91      		pop r17
 491 033e 0F91      		pop r16
 492               	.LVL36:
 493 0340 FF90      		pop r15
 494 0342 EF90      		pop r14
 495 0344 DF90      		pop r13
 496 0346 CF90      		pop r12
 497 0348 BF90      		pop r11
 498 034a AF90      		pop r10
 499 034c 9F90      		pop r9
 500 034e 8F90      		pop r8
 501 0350 7F90      		pop r7
 502 0352 0895      		ret
 503               	.LFE7:
 505               	.global	Timebase_Atomic_Operation_Start
 507               	Timebase_Atomic_Operation_Start:
 508               	.LFB8:
 509               	.LM85:
 510               	/* prologue: function */
 511               	/* frame size = 0 */
 512               	.LM86:
 513               	/* #APP */
 514               	 ;  341 "timebase.c" 1
 515 0354 F894      		cli
 516               	 ;  0 "" 2
 517               	/* epilogue start */
 518               	.LM87:
 519               	/* #NOAPP */
 520 0356 0895      		ret
 521               	.LFE8:
 523               	.global	Timebase_Atomic_Operation_End
 525               	Timebase_Atomic_Operation_End:
 526               	.LFB9:
 527               	.LM88:
 528               	/* prologue: function */
 529               	/* frame size = 0 */
 530               	.LM89:
 531               	/* #APP */
 532               	 ;  345 "timebase.c" 1
 533 0358 7894      		sei
 534               	 ;  0 "" 2
 535               	/* epilogue start */
 536               	.LM90:
 537               	/* #NOAPP */
 538 035a 0895      		ret
 539               	.LFE9:
 541               	.global	Timebase_Token_Executing
 543               	Timebase_Token_Executing:
 544               	.LFB10:
 545               	.LM91:
 546               	/* prologue: function */
 547               	/* frame size = 0 */
 548               	.LM92:
 549 035c E091 0000 		lds r30,Timebase
 550 0360 F091 0000 		lds r31,(Timebase)+1
 551 0364 808D      		ldd r24,Z+24
 552               	/* epilogue start */
 553               	.LM93:
 554 0366 0895      		ret
 555               	.LFE10:
 557               	.global	Timebase_Token_Add
 559               	Timebase_Token_Add:
 560               	.LFB11:
 561               	.LM94:
 562               	/* prologue: function */
 563               	/* frame size = 0 */
 564               	.LBB543:
 565               	.LBB544:
 566               	.LM95:
 567 0368 E091 0000 		lds r30,Timebase
 568 036c F091 0000 		lds r31,(Timebase)+1
 569 0370 808D      		ldd r24,Z+24
 570               	.LBE544:
 571               	.LBE543:
 572               	.LM96:
 573 0372 8F33      		cpi r24,lo8(63)
 574 0374 00F4      		brsh .L33
 575               	.LM97:
 576 0376 808D      		ldd r24,Z+24
 577 0378 8F5F      		subi r24,lo8(-(1))
 578 037a 808F      		std Z+24,r24
 579               	.L33:
 580 037c 0895      		ret
 581               	.LFE11:
 583               	.global	Timebase_Token_Remove
 585               	Timebase_Token_Remove:
 586               	.LFB12:
 587               	.LM98:
 588               	/* prologue: function */
 589               	/* frame size = 0 */
 590               	.LBB545:
 591               	.LBB546:
 592               	.LM99:
 593 037e E091 0000 		lds r30,Timebase
 594 0382 F091 0000 		lds r31,(Timebase)+1
 595 0386 808D      		ldd r24,Z+24
 596               	.LBE546:
 597               	.LBE545:
 598               	.LM100:
 599 0388 8823      		tst r24
 600 038a 01F0      		breq .L36
 601               	.LM101:
 602 038c 808D      		ldd r24,Z+24
 603 038e 8150      		subi r24,lo8(-(-1))
 604 0390 808F      		std Z+24,r24
 605               	.L36:
 606 0392 0895      		ret
 607               	.LFE12:
 609               	.global	Timebase_Token_Remove_All
 611               	Timebase_Token_Remove_All:
 612               	.LFB13:
 613               	.LM102:
 614               	/* prologue: function */
 615               	/* frame size = 0 */
 616               	.LM103:
 617 0394 E091 0000 		lds r30,Timebase
 618 0398 F091 0000 		lds r31,(Timebase)+1
 619 039c 108E      		std Z+24,__zero_reg__
 620               	/* epilogue start */
 621               	.LM104:
 622 039e 0895      		ret
 623               	.LFE13:
 625               	.global	Timebase_Timer_Get_SubSeconds
 627               	Timebase_Timer_Get_SubSeconds:
 628               	.LFB14:
 629               	.LM105:
 630               	/* prologue: function */
 631               	/* frame size = 0 */
 632               	.LBB547:
 633               	.LBB548:
 634               	.LM106:
 635               	/* #APP */
 636               	 ;  341 "timebase.c" 1
 637 03a0 F894      		cli
 638               	 ;  0 "" 2
 639               	/* #NOAPP */
 640               	.LBE548:
 641               	.LBE547:
 642               	.LM107:
 643 03a2 E091 0000 		lds r30,Timebase
 644 03a6 F091 0000 		lds r31,(Timebase)+1
 645 03aa 2085      		ldd r18,Z+8
 646 03ac 3185      		ldd r19,Z+9
 647               	.LVL37:
 648               	.LBB549:
 649               	.LBB550:
 650               	.LM108:
 651               	/* #APP */
 652               	 ;  345 "timebase.c" 1
 653 03ae 7894      		sei
 654               	 ;  0 "" 2
 655               	/* #NOAPP */
 656               	.LBE550:
 657               	.LBE549:
 658               	.LM109:
 659 03b0 C901      		movw r24,r18
 660               	.LVL38:
 661               	/* epilogue start */
 662 03b2 0895      		ret
 663               	.LFE14:
 665               	.global	Timebase_Timer_Get_Seconds
 667               	Timebase_Timer_Get_Seconds:
 668               	.LFB15:
 669               	.LM110:
 670               	/* prologue: function */
 671               	/* frame size = 0 */
 672               	.LBB551:
 673               	.LBB552:
 674               	.LM111:
 675               	/* #APP */
 676               	 ;  341 "timebase.c" 1
 677 03b4 F894      		cli
 678               	 ;  0 "" 2
 679               	/* #NOAPP */
 680               	.LBE552:
 681               	.LBE551:
 682               	.LM112:
 683 03b6 E091 0000 		lds r30,Timebase
 684 03ba F091 0000 		lds r31,(Timebase)+1
 685 03be 2285      		ldd r18,Z+10
 686 03c0 3385      		ldd r19,Z+11
 687 03c2 4485      		ldd r20,Z+12
 688 03c4 5585      		ldd r21,Z+13
 689               	.LVL39:
 690               	.LBB553:
 691               	.LBB554:
 692               	.LM113:
 693               	/* #APP */
 694               	 ;  345 "timebase.c" 1
 695 03c6 7894      		sei
 696               	 ;  0 "" 2
 697               	/* #NOAPP */
 698               	.LBE554:
 699               	.LBE553:
 700               	.LM114:
 701 03c8 B901      		movw r22,r18
 702               	.LVL40:
 703 03ca CA01      		movw r24,r20
 704               	/* epilogue start */
 705 03cc 0895      		ret
 706               	.LFE15:
 708               	.global	Timebase_Timer_Set_SubSeconds
 710               	Timebase_Timer_Set_SubSeconds:
 711               	.LFB16:
 712               	.LM115:
 713               	.LVL41:
 714               	/* prologue: function */
 715               	/* frame size = 0 */
 716               	.LBB555:
 717               	.LBB556:
 718               	.LM116:
 719               	/* #APP */
 720               	 ;  341 "timebase.c" 1
 721 03ce F894      		cli
 722               	 ;  0 "" 2
 723               	/* #NOAPP */
 724               	.LBE556:
 725               	.LBE555:
 726               	.LM117:
 727 03d0 E091 0000 		lds r30,Timebase
 728 03d4 F091 0000 		lds r31,(Timebase)+1
 729 03d8 9187      		std Z+9,r25
 730 03da 8087      		std Z+8,r24
 731               	.LBB557:
 732               	.LBB558:
 733               	.LM118:
 734               	/* #APP */
 735               	 ;  345 "timebase.c" 1
 736 03dc 7894      		sei
 737               	 ;  0 "" 2
 738               	/* epilogue start */
 739               	/* #NOAPP */
 740               	.LBE558:
 741               	.LBE557:
 742               	.LM119:
 743 03de 0895      		ret
 744               	.LFE16:
 746               	.global	Timebase_Timer_Set_Seconds
 748               	Timebase_Timer_Set_Seconds:
 749               	.LFB17:
 750               	.LM120:
 751               	.LVL42:
 752               	/* prologue: function */
 753               	/* frame size = 0 */
 754               	.LBB559:
 755               	.LBB560:
 756               	.LM121:
 757               	/* #APP */
 758               	 ;  341 "timebase.c" 1
 759 03e0 F894      		cli
 760               	 ;  0 "" 2
 761               	/* #NOAPP */
 762               	.LBE560:
 763               	.LBE559:
 764               	.LM122:
 765 03e2 E091 0000 		lds r30,Timebase
 766 03e6 F091 0000 		lds r31,(Timebase)+1
 767 03ea 6287      		std Z+10,r22
 768 03ec 7387      		std Z+11,r23
 769 03ee 8487      		std Z+12,r24
 770 03f0 9587      		std Z+13,r25
 771               	.LBB561:
 772               	.LBB562:
 773               	.LM123:
 774               	/* #APP */
 775               	 ;  345 "timebase.c" 1
 776 03f2 7894      		sei
 777               	 ;  0 "" 2
 778               	/* epilogue start */
 779               	/* #NOAPP */
 780               	.LBE562:
 781               	.LBE561:
 782               	.LM124:
 783 03f4 0895      		ret
 784               	.LFE17:
 786               	.global	Timebase_Timer_Delay_SubSeconds
 788               	Timebase_Timer_Delay_SubSeconds:
 789               	.LFB18:
 790               	.LM125:
 791               	.LVL43:
 792 03f6 6F92      		push r6
 793 03f8 7F92      		push r7
 794 03fa 8F92      		push r8
 795 03fc 9F92      		push r9
 796 03fe AF92      		push r10
 797 0400 BF92      		push r11
 798 0402 CF92      		push r12
 799 0404 DF92      		push r13
 800 0406 EF92      		push r14
 801 0408 FF92      		push r15
 802 040a 0F93      		push r16
 803 040c 1F93      		push r17
 804 040e CF93      		push r28
 805 0410 DF93      		push r29
 806               	/* prologue: function */
 807               	/* frame size = 0 */
 808 0412 5C01      		movw r10,r24
 809               	.LBB563:
 810               	.LBB564:
 811               	.LBB565:
 812               	.LBB566:
 813               	.LM126:
 814               	/* #APP */
 815               	 ;  341 "timebase.c" 1
 816 0414 F894      		cli
 817               	 ;  0 "" 2
 818               	/* #NOAPP */
 819               	.LBE566:
 820               	.LBE565:
 821               	.LM127:
 822 0416 C091 0000 		lds r28,Timebase
 823 041a D091 0000 		lds r29,(Timebase)+1
 824 041e E884      		ldd r14,Y+8
 825 0420 F984      		ldd r15,Y+9
 826               	.LVL44:
 827               	.LBB567:
 828               	.LBB568:
 829               	.LM128:
 830               	/* #APP */
 831               	 ;  345 "timebase.c" 1
 832 0422 7894      		sei
 833               	 ;  0 "" 2
 834               	/* #NOAPP */
 835               	.LBE568:
 836               	.LBE567:
 837               	.LBE564:
 838               	.LBE563:
 839               	.LBB569:
 840               	.LBB570:
 841               	.LBB571:
 842               	.LBB572:
 843               	.LM129:
 844               	/* #APP */
 845               	 ;  341 "timebase.c" 1
 846 0424 F894      		cli
 847               	 ;  0 "" 2
 848               	/* #NOAPP */
 849               	.LBE572:
 850               	.LBE571:
 851               	.LM130:
 852 0426 2A85      		ldd r18,Y+10
 853 0428 3B85      		ldd r19,Y+11
 854 042a 4C85      		ldd r20,Y+12
 855 042c 5D85      		ldd r21,Y+13
 856               	.LVL45:
 857               	.LBB573:
 858               	.LBB574:
 859               	.LM131:
 860               	/* #APP */
 861               	 ;  345 "timebase.c" 1
 862 042e 7894      		sei
 863               	 ;  0 "" 2
 864               	/* #NOAPP */
 865               	.LBE574:
 866               	.LBE573:
 867               	.LBE570:
 868               	.LBE569:
 869               	.LM132:
 870 0430 6981      		ldd r22,Y+1
 871 0432 7A81      		ldd r23,Y+2
 872 0434 80E0      		ldi r24,lo8(0)
 873 0436 90E0      		ldi r25,hi8(0)
 874               	.LVL46:
 875 0438 0E94 0000 		call __mulsi3
 876               	.LVL47:
 877 043c 3B01      		movw r6,r22
 878 043e 4C01      		movw r8,r24
 879               	.LVL48:
 880               	.LM133:
 881 0440 00E0      		ldi r16,lo8(0)
 882 0442 10E0      		ldi r17,hi8(0)
 883               	.LVL49:
 884 0444 6E0C      		add r6,r14
 885 0446 7F1C      		adc r7,r15
 886 0448 801E      		adc r8,r16
 887 044a 911E      		adc r9,r17
 888               	.LM134:
 889 044c CC24      		clr r12
 890 044e DD24      		clr r13
 891               	.LVL50:
 892 0450 6A0C      		add r6,r10
 893 0452 7B1C      		adc r7,r11
 894 0454 8C1C      		adc r8,r12
 895 0456 9D1C      		adc r9,r13
 896 0458 60E0      		ldi r22,lo8(0)
 897 045a 70E0      		ldi r23,hi8(0)
 898 045c 80E0      		ldi r24,hlo8(0)
 899 045e 90E0      		ldi r25,hhi8(0)
 900               	.LVL51:
 901 0460 00C0      		rjmp .L48
 902               	.LVL52:
 903               	.L49:
 904               	.LBB575:
 905               	.LBB576:
 906               	.LBB577:
 907               	.LBB578:
 908               	.LM135:
 909               	/* #APP */
 910               	 ;  341 "timebase.c" 1
 911 0462 F894      		cli
 912               	 ;  0 "" 2
 913               	/* #NOAPP */
 914               	.LBE578:
 915               	.LBE577:
 916               	.LM136:
 917 0464 E884      		ldd r14,Y+8
 918 0466 F984      		ldd r15,Y+9
 919               	.LVL53:
 920               	.LBB579:
 921               	.LBB580:
 922               	.LM137:
 923               	/* #APP */
 924               	 ;  345 "timebase.c" 1
 925 0468 7894      		sei
 926               	 ;  0 "" 2
 927               	/* #NOAPP */
 928               	.LBE580:
 929               	.LBE579:
 930               	.LBE576:
 931               	.LBE575:
 932               	.LBB581:
 933               	.LBB582:
 934               	.LBB583:
 935               	.LBB584:
 936               	.LM138:
 937               	/* #APP */
 938               	 ;  341 "timebase.c" 1
 939 046a F894      		cli
 940               	 ;  0 "" 2
 941               	/* #NOAPP */
 942               	.LBE584:
 943               	.LBE583:
 944               	.LM139:
 945 046c 2A85      		ldd r18,Y+10
 946 046e 3B85      		ldd r19,Y+11
 947 0470 4C85      		ldd r20,Y+12
 948 0472 5D85      		ldd r21,Y+13
 949               	.LVL54:
 950               	.LBB585:
 951               	.LBB586:
 952               	.LM140:
 953               	/* #APP */
 954               	 ;  345 "timebase.c" 1
 955 0474 7894      		sei
 956               	 ;  0 "" 2
 957               	/* #NOAPP */
 958               	.LBE586:
 959               	.LBE585:
 960               	.LBE582:
 961               	.LBE581:
 962               	.LM141:
 963 0476 6981      		ldd r22,Y+1
 964 0478 7A81      		ldd r23,Y+2
 965               	.LVL55:
 966 047a 80E0      		ldi r24,lo8(0)
 967 047c 90E0      		ldi r25,hi8(0)
 968 047e 0E94 0000 		call __mulsi3
 969               	.LVL56:
 970               	.LM142:
 971 0482 00E0      		ldi r16,lo8(0)
 972 0484 10E0      		ldi r17,hi8(0)
 973               	.LVL57:
 974 0486 6E0D      		add r22,r14
 975 0488 7F1D      		adc r23,r15
 976 048a 801F      		adc r24,r16
 977 048c 911F      		adc r25,r17
 978               	.LVL58:
 979               	.L48:
 980               	.LM143:
 981 048e 6615      		cp r22,r6
 982 0490 7705      		cpc r23,r7
 983 0492 8805      		cpc r24,r8
 984 0494 9905      		cpc r25,r9
 985 0496 04F0      		brlt .L49
 986               	/* epilogue start */
 987               	.LM144:
 988 0498 DF91      		pop r29
 989 049a CF91      		pop r28
 990 049c 1F91      		pop r17
 991 049e 0F91      		pop r16
 992               	.LVL59:
 993 04a0 FF90      		pop r15
 994 04a2 EF90      		pop r14
 995               	.LVL60:
 996 04a4 DF90      		pop r13
 997 04a6 CF90      		pop r12
 998               	.LVL61:
 999 04a8 BF90      		pop r11
 1000 04aa AF90      		pop r10
 1001               	.LVL62:
 1002 04ac 9F90      		pop r9
 1003 04ae 8F90      		pop r8
 1004 04b0 7F90      		pop r7
 1005 04b2 6F90      		pop r6
 1006               	.LVL63:
 1007 04b4 0895      		ret
 1008               	.LFE18:
 1010               	.global	Timebase_Timer_Await_SubSeconds
 1012               	Timebase_Timer_Await_SubSeconds:
 1013               	.LFB19:
 1014               	.LM145:
 1015               	.LVL64:
 1016               	/* prologue: function */
 1017               	/* frame size = 0 */
 1018 04b6 BC01      		movw r22,r24
 1019               	.LBB587:
 1020               	.LBB588:
 1021               	.LM146:
 1022 04b8 E091 0000 		lds r30,Timebase
 1023 04bc F091 0000 		lds r31,(Timebase)+1
 1024               	.LVL65:
 1025               	.L52:
 1026               	.LBB589:
 1027               	.LBB590:
 1028               	.LM147:
 1029               	/* #APP */
 1030               	 ;  341 "timebase.c" 1
 1031 04c0 F894      		cli
 1032               	 ;  0 "" 2
 1033               	/* #NOAPP */
 1034               	.LBE590:
 1035               	.LBE589:
 1036               	.LM148:
 1037 04c2 8085      		ldd r24,Z+8
 1038 04c4 9185      		ldd r25,Z+9
 1039               	.LVL66:
 1040               	.LBB591:
 1041               	.LBB592:
 1042               	.LM149:
 1043               	/* #APP */
 1044               	 ;  345 "timebase.c" 1
 1045 04c6 7894      		sei
 1046               	 ;  0 "" 2
 1047               	/* #NOAPP */
 1048               	.LBE592:
 1049               	.LBE591:
 1050               	.LBE588:
 1051               	.LBE587:
 1052               	.LM150:
 1053 04c8 2481      		ldd r18,Z+4
 1054 04ca 3581      		ldd r19,Z+5
 1055 04cc 4681      		ldd r20,Z+6
 1056 04ce 5781      		ldd r21,Z+7
 1057 04d0 A0E0      		ldi r26,lo8(0)
 1058 04d2 B0E0      		ldi r27,hi8(0)
 1059               	.LVL67:
 1060 04d4 8217      		cp r24,r18
 1061 04d6 9307      		cpc r25,r19
 1062 04d8 A407      		cpc r26,r20
 1063 04da B507      		cpc r27,r21
 1064 04dc 01F4      		brne .L52
 1065               	.LBB593:
 1066               	.LBB594:
 1067               	.LBB595:
 1068               	.LBB596:
 1069               	.LM151:
 1070               	/* #APP */
 1071               	 ;  341 "timebase.c" 1
 1072 04de F894      		cli
 1073               	 ;  0 "" 2
 1074               	/* #NOAPP */
 1075               	.LBE596:
 1076               	.LBE595:
 1077               	.LM152:
 1078 04e0 8085      		ldd r24,Z+8
 1079 04e2 9185      		ldd r25,Z+9
 1080               	.LVL68:
 1081               	.LBB597:
 1082               	.LBB598:
 1083               	.LM153:
 1084               	/* #APP */
 1085               	 ;  345 "timebase.c" 1
 1086 04e4 7894      		sei
 1087               	 ;  0 "" 2
 1088               	/* #NOAPP */
 1089               	.LBE598:
 1090               	.LBE597:
 1091               	.LBE594:
 1092               	.LBE593:
 1093               	.LM154:
 1094 04e6 860F      		add r24,r22
 1095 04e8 971F      		adc r25,r23
 1096 04ea A0E0      		ldi r26,lo8(0)
 1097 04ec B0E0      		ldi r27,hi8(0)
 1098               	.LVL69:
 1099 04ee 8483      		std Z+4,r24
 1100 04f0 9583      		std Z+5,r25
 1101 04f2 A683      		std Z+6,r26
 1102 04f4 B783      		std Z+7,r27
 1103               	.LVL70:
 1104               	.LM155:
 1105 04f6 2481      		ldd r18,Z+4
 1106 04f8 3581      		ldd r19,Z+5
 1107 04fa 4681      		ldd r20,Z+6
 1108 04fc 5781      		ldd r21,Z+7
 1109 04fe 8181      		ldd r24,Z+1
 1110 0500 9281      		ldd r25,Z+2
 1111 0502 A0E0      		ldi r26,lo8(0)
 1112 0504 B0E0      		ldi r27,hi8(0)
 1113 0506 2817      		cp r18,r24
 1114 0508 3907      		cpc r19,r25
 1115 050a 4A07      		cpc r20,r26
 1116 050c 5B07      		cpc r21,r27
 1117 050e 04F0      		brlt .L54
 1118               	.LM156:
 1119 0510 2481      		ldd r18,Z+4
 1120 0512 3581      		ldd r19,Z+5
 1121 0514 4681      		ldd r20,Z+6
 1122 0516 5781      		ldd r21,Z+7
 1123 0518 8181      		ldd r24,Z+1
 1124 051a 9281      		ldd r25,Z+2
 1125 051c A0E0      		ldi r26,lo8(0)
 1126 051e B0E0      		ldi r27,hi8(0)
 1127 0520 281B      		sub r18,r24
 1128 0522 390B      		sbc r19,r25
 1129 0524 4A0B      		sbc r20,r26
 1130 0526 5B0B      		sbc r21,r27
 1131 0528 2483      		std Z+4,r18
 1132 052a 3583      		std Z+5,r19
 1133 052c 4683      		std Z+6,r20
 1134 052e 5783      		std Z+7,r21
 1135               	.L54:
 1136 0530 0895      		ret
 1137               	.LFE19:
 1139               	.global	Timebase_Timer_Delay_Seconds
 1141               	Timebase_Timer_Delay_Seconds:
 1142               	.LFB20:
 1143               	.LM157:
 1144               	.LVL71:
 1145               	/* prologue: function */
 1146               	/* frame size = 0 */
 1147               	.LBB599:
 1148               	.LBB600:
 1149               	.LBB601:
 1150               	.LBB602:
 1151               	.LM158:
 1152               	/* #APP */
 1153               	 ;  341 "timebase.c" 1
 1154 0532 F894      		cli
 1155               	 ;  0 "" 2
 1156               	/* #NOAPP */
 1157               	.LBE602:
 1158               	.LBE601:
 1159               	.LM159:
 1160 0534 E091 0000 		lds r30,Timebase
 1161 0538 F091 0000 		lds r31,(Timebase)+1
 1162 053c 2285      		ldd r18,Z+10
 1163 053e 3385      		ldd r19,Z+11
 1164 0540 4485      		ldd r20,Z+12
 1165 0542 5585      		ldd r21,Z+13
 1166               	.LVL72:
 1167               	.LBB603:
 1168               	.LBB604:
 1169               	.LM160:
 1170               	/* #APP */
 1171               	 ;  345 "timebase.c" 1
 1172 0544 7894      		sei
 1173               	 ;  0 "" 2
 1174               	/* #NOAPP */
 1175               	.LBE604:
 1176               	.LBE603:
 1177               	.LBE600:
 1178               	.LBE599:
 1179               	.LM161:
 1180 0546 A0E0      		ldi r26,lo8(0)
 1181 0548 B0E0      		ldi r27,hi8(0)
 1182               	.LVL73:
 1183 054a 820F      		add r24,r18
 1184 054c 931F      		adc r25,r19
 1185 054e A41F      		adc r26,r20
 1186 0550 B51F      		adc r27,r21
 1187               	.LVL74:
 1188 0552 20E0      		ldi r18,lo8(0)
 1189 0554 30E0      		ldi r19,hi8(0)
 1190 0556 40E0      		ldi r20,hlo8(0)
 1191 0558 50E0      		ldi r21,hhi8(0)
 1192               	.LVL75:
 1193 055a 00C0      		rjmp .L57
 1194               	.L58:
 1195               	.LBB605:
 1196               	.LBB606:
 1197               	.LBB607:
 1198               	.LBB608:
 1199               	.LM162:
 1200               	/* #APP */
 1201               	 ;  341 "timebase.c" 1
 1202 055c F894      		cli
 1203               	 ;  0 "" 2
 1204               	/* #NOAPP */
 1205               	.LBE608:
 1206               	.LBE607:
 1207               	.LM163:
 1208 055e 2285      		ldd r18,Z+10
 1209 0560 3385      		ldd r19,Z+11
 1210 0562 4485      		ldd r20,Z+12
 1211 0564 5585      		ldd r21,Z+13
 1212               	.LBB609:
 1213               	.LBB610:
 1214               	.LM164:
 1215               	/* #APP */
 1216               	 ;  345 "timebase.c" 1
 1217 0566 7894      		sei
 1218               	 ;  0 "" 2
 1219               	/* #NOAPP */
 1220               	.L57:
 1221               	.LBE610:
 1222               	.LBE609:
 1223               	.LBE606:
 1224               	.LBE605:
 1225               	.LM165:
 1226 0568 2817      		cp r18,r24
 1227 056a 3907      		cpc r19,r25
 1228 056c 4A07      		cpc r20,r26
 1229 056e 5B07      		cpc r21,r27
 1230 0570 04F0      		brlt .L58
 1231               	/* epilogue start */
 1232               	.LM166:
 1233 0572 0895      		ret
 1234               	.LFE20:
 1236               	.global	Timebase_Window_Timer_Reset
 1238               	Timebase_Window_Timer_Reset:
 1239               	.LFB21:
 1240               	.LM167:
 1241               	/* prologue: function */
 1242               	/* frame size = 0 */
 1243               	.LM168:
 1244 0574 E091 0000 		lds r30,Timebase
 1245 0578 F091 0000 		lds r31,(Timebase)+1
 1246 057c 1686      		std Z+14,__zero_reg__
 1247 057e 1786      		std Z+15,__zero_reg__
 1248 0580 108A      		std Z+16,__zero_reg__
 1249 0582 118A      		std Z+17,__zero_reg__
 1250               	.LM169:
 1251 0584 128A      		std Z+18,__zero_reg__
 1252 0586 138A      		std Z+19,__zero_reg__
 1253 0588 148A      		std Z+20,__zero_reg__
 1254 058a 158A      		std Z+21,__zero_reg__
 1255               	.LM170:
 1256 058c 168A      		std Z+22,__zero_reg__
 1257               	/* epilogue start */
 1258               	.LM171:
 1259 058e 0895      		ret
 1260               	.LFE21:
 1262               	.global	Timebase_Window_Timer_Start
 1264               	Timebase_Window_Timer_Start:
 1265               	.LFB22:
 1266               	.LM172:
 1267               	/* prologue: function */
 1268               	/* frame size = 0 */
 1269               	.LM173:
 1270 0590 E091 0000 		lds r30,Timebase
 1271 0594 F091 0000 		lds r31,(Timebase)+1
 1272 0598 8689      		ldd r24,Z+22
 1273 059a 8823      		tst r24
 1274 059c 01F4      		brne .L64
 1275               	.LBB611:
 1276               	.LBB612:
 1277               	.LBB613:
 1278               	.LBB614:
 1279               	.LM174:
 1280               	/* #APP */
 1281               	 ;  341 "timebase.c" 1
 1282 059e F894      		cli
 1283               	 ;  0 "" 2
 1284               	/* #NOAPP */
 1285               	.LBE614:
 1286               	.LBE613:
 1287               	.LM175:
 1288 05a0 8285      		ldd r24,Z+10
 1289 05a2 9385      		ldd r25,Z+11
 1290 05a4 A485      		ldd r26,Z+12
 1291 05a6 B585      		ldd r27,Z+13
 1292               	.LVL76:
 1293               	.LBB615:
 1294               	.LBB616:
 1295               	.LM176:
 1296               	/* #APP */
 1297               	 ;  345 "timebase.c" 1
 1298 05a8 7894      		sei
 1299               	 ;  0 "" 2
 1300               	/* #NOAPP */
 1301               	.LBE616:
 1302               	.LBE615:
 1303               	.LBE612:
 1304               	.LBE611:
 1305               	.LM177:
 1306 05aa 8687      		std Z+14,r24
 1307 05ac 9787      		std Z+15,r25
 1308 05ae A08B      		std Z+16,r26
 1309 05b0 B18B      		std Z+17,r27
 1310               	.LBB617:
 1311               	.LBB618:
 1312               	.LBB619:
 1313               	.LBB620:
 1314               	.LM178:
 1315               	/* #APP */
 1316               	 ;  341 "timebase.c" 1
 1317 05b2 F894      		cli
 1318               	 ;  0 "" 2
 1319               	/* #NOAPP */
 1320               	.LBE620:
 1321               	.LBE619:
 1322               	.LM179:
 1323 05b4 8085      		ldd r24,Z+8
 1324 05b6 9185      		ldd r25,Z+9
 1325               	.LVL77:
 1326               	.LBB621:
 1327               	.LBB622:
 1328               	.LM180:
 1329               	/* #APP */
 1330               	 ;  345 "timebase.c" 1
 1331 05b8 7894      		sei
 1332               	 ;  0 "" 2
 1333               	/* #NOAPP */
 1334               	.LBE622:
 1335               	.LBE621:
 1336               	.LBE618:
 1337               	.LBE617:
 1338               	.LM181:
 1339 05ba A0E0      		ldi r26,lo8(0)
 1340 05bc B0E0      		ldi r27,hi8(0)
 1341               	.LVL78:
 1342 05be 828B      		std Z+18,r24
 1343 05c0 938B      		std Z+19,r25
 1344 05c2 A48B      		std Z+20,r26
 1345 05c4 B58B      		std Z+21,r27
 1346               	.LM182:
 1347 05c6 81E0      		ldi r24,lo8(1)
 1348               	.LVL79:
 1349 05c8 868B      		std Z+22,r24
 1350               	.L64:
 1351 05ca 0895      		ret
 1352               	.LFE22:
 1354               	.global	Timebase_Window_Timer_Get_Interval
 1356               	Timebase_Window_Timer_Get_Interval:
 1357               	.LFB23:
 1358               	.LM183:
 1359 05cc EF92      		push r14
 1360 05ce FF92      		push r15
 1361 05d0 0F93      		push r16
 1362 05d2 1F93      		push r17
 1363 05d4 CF93      		push r28
 1364 05d6 DF93      		push r29
 1365               	/* prologue: function */
 1366               	/* frame size = 0 */
 1367               	.LM184:
 1368 05d8 C091 0000 		lds r28,Timebase
 1369 05dc D091 0000 		lds r29,(Timebase)+1
 1370 05e0 8E89      		ldd r24,Y+22
 1371 05e2 8130      		cpi r24,lo8(1)
 1372 05e4 01F0      		breq .L66
 1373 05e6 EE24      		clr r14
 1374 05e8 FF24      		clr r15
 1375 05ea 8701      		movw r16,r14
 1376               	.LVL80:
 1377 05ec 00C0      		rjmp .L67
 1378               	.LVL81:
 1379               	.L66:
 1380               	.LBB623:
 1381               	.LBB624:
 1382               	.LBB625:
 1383               	.LBB626:
 1384               	.LM185:
 1385               	/* #APP */
 1386               	 ;  341 "timebase.c" 1
 1387 05ee F894      		cli
 1388               	 ;  0 "" 2
 1389               	/* #NOAPP */
 1390               	.LBE626:
 1391               	.LBE625:
 1392               	.LM186:
 1393 05f0 2A85      		ldd r18,Y+10
 1394 05f2 3B85      		ldd r19,Y+11
 1395 05f4 4C85      		ldd r20,Y+12
 1396 05f6 5D85      		ldd r21,Y+13
 1397               	.LVL82:
 1398               	.LBB627:
 1399               	.LBB628:
 1400               	.LM187:
 1401               	/* #APP */
 1402               	 ;  345 "timebase.c" 1
 1403 05f8 7894      		sei
 1404               	 ;  0 "" 2
 1405               	/* #NOAPP */
 1406               	.LBE628:
 1407               	.LBE627:
 1408               	.LBE624:
 1409               	.LBE623:
 1410               	.LBB629:
 1411               	.LBB630:
 1412               	.LBB631:
 1413               	.LBB632:
 1414               	.LM188:
 1415               	/* #APP */
 1416               	 ;  341 "timebase.c" 1
 1417 05fa F894      		cli
 1418               	 ;  0 "" 2
 1419               	/* #NOAPP */
 1420               	.LBE632:
 1421               	.LBE631:
 1422               	.LM189:
 1423 05fc 8885      		ldd r24,Y+8
 1424 05fe 9985      		ldd r25,Y+9
 1425               	.LVL83:
 1426               	.LBB633:
 1427               	.LBB634:
 1428               	.LM190:
 1429               	/* #APP */
 1430               	 ;  345 "timebase.c" 1
 1431 0600 7894      		sei
 1432               	 ;  0 "" 2
 1433               	/* #NOAPP */
 1434               	.LBE634:
 1435               	.LBE633:
 1436               	.LBE630:
 1437               	.LBE629:
 1438               	.LM191:
 1439 0602 7C01      		movw r14,r24
 1440               	.LVL84:
 1441 0604 00E0      		ldi r16,lo8(0)
 1442 0606 10E0      		ldi r17,hi8(0)
 1443               	.LVL85:
 1444               	.LM192:
 1445 0608 8E85      		ldd r24,Y+14
 1446 060a 9F85      		ldd r25,Y+15
 1447 060c A889      		ldd r26,Y+16
 1448 060e B989      		ldd r27,Y+17
 1449               	.LVL86:
 1450 0610 281B      		sub r18,r24
 1451 0612 390B      		sbc r19,r25
 1452 0614 4A0B      		sbc r20,r26
 1453 0616 5B0B      		sbc r21,r27
 1454               	.LVL87:
 1455               	.LM193:
 1456 0618 6981      		ldd r22,Y+1
 1457 061a 7A81      		ldd r23,Y+2
 1458 061c 80E0      		ldi r24,lo8(0)
 1459 061e 90E0      		ldi r25,hi8(0)
 1460 0620 0E94 0000 		call __mulsi3
 1461               	.LVL88:
 1462               	.LM194:
 1463 0624 2A89      		ldd r18,Y+18
 1464 0626 3B89      		ldd r19,Y+19
 1465 0628 4C89      		ldd r20,Y+20
 1466 062a 5D89      		ldd r21,Y+21
 1467 062c E21A      		sub r14,r18
 1468 062e F30A      		sbc r15,r19
 1469 0630 040B      		sbc r16,r20
 1470 0632 150B      		sbc r17,r21
 1471               	.LVL89:
 1472 0634 E60E      		add r14,r22
 1473 0636 F71E      		adc r15,r23
 1474 0638 081F      		adc r16,r24
 1475 063a 191F      		adc r17,r25
 1476               	.L67:
 1477               	.LM195:
 1478 063c B701      		movw r22,r14
 1479               	.LVL90:
 1480 063e C801      		movw r24,r16
 1481               	.LVL91:
 1482               	/* epilogue start */
 1483 0640 DF91      		pop r29
 1484 0642 CF91      		pop r28
 1485 0644 1F91      		pop r17
 1486 0646 0F91      		pop r16
 1487 0648 FF90      		pop r15
 1488 064a EF90      		pop r14
 1489 064c 0895      		ret
 1490               	.LFE23:
 1492               	.global	Timebase_Window_Timer_Get_Interval_Reset
 1494               	Timebase_Window_Timer_Get_Interval_Reset:
 1495               	.LFB24:
 1496               	.LM196:
 1497               	/* prologue: function */
 1498               	/* frame size = 0 */
 1499               	.LM197:
 1500 064e 0E94 0000 		call Timebase_Window_Timer_Get_Interval
 1501 0652 282F      		mov r18,r24
 1502               	.LVL92:
 1503               	.LM198:
 1504 0654 E091 0000 		lds r30,Timebase
 1505 0658 F091 0000 		lds r31,(Timebase)+1
 1506 065c 8689      		ldd r24,Z+22
 1507 065e 8130      		cpi r24,lo8(1)
 1508 0660 01F4      		brne .L70
 1509               	.LBB635:
 1510               	.LBB636:
 1511               	.LM199:
 1512 0662 1686      		std Z+14,__zero_reg__
 1513 0664 1786      		std Z+15,__zero_reg__
 1514 0666 108A      		std Z+16,__zero_reg__
 1515 0668 118A      		std Z+17,__zero_reg__
 1516               	.LM200:
 1517 066a 128A      		std Z+18,__zero_reg__
 1518 066c 138A      		std Z+19,__zero_reg__
 1519 066e 148A      		std Z+20,__zero_reg__
 1520 0670 158A      		std Z+21,__zero_reg__
 1521               	.LM201:
 1522 0672 168A      		std Z+22,__zero_reg__
 1523               	.L70:
 1524               	.LBE636:
 1525               	.LBE635:
 1526               	.LM202:
 1527 0674 822F      		mov r24,r18
 1528               	/* epilogue start */
 1529 0676 0895      		ret
 1530               	.LFE24:
 1532               	.global	Timebase_UpCounter_Get_Status
 1534               	Timebase_UpCounter_Get_Status:
 1535               	.LFB25:
 1536               	.LM203:
 1537               	.LVL93:
 1538               	/* prologue: function */
 1539               	/* frame size = 0 */
 1540               	.LM204:
 1541 0678 E091 0000 		lds r30,Timebase
 1542 067c F091 0000 		lds r31,(Timebase)+1
 1543 0680 90E0      		ldi r25,lo8(0)
 1544               	.LVL94:
 1545 0682 25E1      		ldi r18,lo8(21)
 1546 0684 30E0      		ldi r19,hi8(21)
 1547 0686 AC01      		movw r20,r24
 1548 0688 429F      		mul r20,r18
 1549 068a C001      		movw r24,r0
 1550 068c 439F      		mul r20,r19
 1551 068e 900D      		add r25,r0
 1552 0690 529F      		mul r21,r18
 1553 0692 900D      		add r25,r0
 1554 0694 1124      		clr r1
 1555               	.LVL95:
 1556 0696 E80F      		add r30,r24
 1557 0698 F91F      		adc r31,r25
 1558 069a 82A9      		ldd r24,Z+50
 1559 069c 8695      		lsr r24
 1560               	.LM205:
 1561 069e 8F70      		andi r24,lo8(15)
 1562               	/* epilogue start */
 1563 06a0 0895      		ret
 1564               	.LFE25:
 1566               	.global	Timebase_UpCounter_Set_Status
 1568               	Timebase_UpCounter_Set_Status:
 1569               	.LFB26:
 1570               	.LM206:
 1571               	.LVL96:
 1572               	/* prologue: function */
 1573               	/* frame size = 0 */
 1574               	.LM207:
 1575 06a2 E091 0000 		lds r30,Timebase
 1576 06a6 F091 0000 		lds r31,(Timebase)+1
 1577 06aa 90E0      		ldi r25,lo8(0)
 1578               	.LVL97:
 1579 06ac 25E1      		ldi r18,lo8(21)
 1580 06ae 30E0      		ldi r19,hi8(21)
 1581 06b0 AC01      		movw r20,r24
 1582 06b2 429F      		mul r20,r18
 1583 06b4 C001      		movw r24,r0
 1584 06b6 439F      		mul r20,r19
 1585 06b8 900D      		add r25,r0
 1586 06ba 529F      		mul r21,r18
 1587 06bc 900D      		add r25,r0
 1588 06be 1124      		clr r1
 1589               	.LVL98:
 1590 06c0 E80F      		add r30,r24
 1591 06c2 F91F      		adc r31,r25
 1592 06c4 6F70      		andi r22,lo8(15)
 1593               	.LVL99:
 1594 06c6 660F      		lsl r22
 1595 06c8 82A9      		ldd r24,Z+50
 1596 06ca 817E      		andi r24,lo8(-31)
 1597 06cc 862B      		or r24,r22
 1598 06ce 82AB      		std Z+50,r24
 1599               	/* epilogue start */
 1600               	.LM208:
 1601 06d0 0895      		ret
 1602               	.LFE26:
 1604               	.global	Timebase_UpCounter_Get_Value
 1606               	Timebase_UpCounter_Get_Value:
 1607               	.LFB27:
 1608               	.LM209:
 1609               	.LVL100:
 1610               	/* prologue: function */
 1611               	/* frame size = 0 */
 1612               	.LM210:
 1613 06d2 E091 0000 		lds r30,Timebase
 1614 06d6 F091 0000 		lds r31,(Timebase)+1
 1615 06da 90E0      		ldi r25,lo8(0)
 1616               	.LVL101:
 1617 06dc 25E1      		ldi r18,lo8(21)
 1618 06de 30E0      		ldi r19,hi8(21)
 1619 06e0 AC01      		movw r20,r24
 1620 06e2 429F      		mul r20,r18
 1621 06e4 C001      		movw r24,r0
 1622 06e6 439F      		mul r20,r19
 1623 06e8 900D      		add r25,r0
 1624 06ea 529F      		mul r21,r18
 1625 06ec 900D      		add r25,r0
 1626 06ee 1124      		clr r1
 1627               	.LVL102:
 1628 06f0 E80F      		add r30,r24
 1629 06f2 F91F      		adc r31,r25
 1630 06f4 FF96      		adiw r30,63
 1631 06f6 6081      		ld r22,Z
 1632 06f8 7181      		ldd r23,Z+1
 1633               	.LM211:
 1634 06fa 8281      		ldd r24,Z+2
 1635 06fc 9381      		ldd r25,Z+3
 1636               	.LVL103:
 1637               	/* epilogue start */
 1638 06fe 0895      		ret
 1639               	.LFE27:
 1641               	.global	Timebase_UpCounter_Set_Value
 1643               	Timebase_UpCounter_Set_Value:
 1644               	.LFB28:
 1645               	.LM212:
 1646               	.LVL104:
 1647               	/* prologue: function */
 1648               	/* frame size = 0 */
 1649               	.LM213:
 1650 0700 E091 0000 		lds r30,Timebase
 1651 0704 F091 0000 		lds r31,(Timebase)+1
 1652 0708 90E0      		ldi r25,lo8(0)
 1653               	.LVL105:
 1654 070a 25E1      		ldi r18,lo8(21)
 1655 070c 30E0      		ldi r19,hi8(21)
 1656 070e DC01      		movw r26,r24
 1657 0710 A29F      		mul r26,r18
 1658 0712 C001      		movw r24,r0
 1659 0714 A39F      		mul r26,r19
 1660 0716 900D      		add r25,r0
 1661 0718 B29F      		mul r27,r18
 1662 071a 900D      		add r25,r0
 1663 071c 1124      		clr r1
 1664               	.LVL106:
 1665 071e E80F      		add r30,r24
 1666 0720 F91F      		adc r31,r25
 1667 0722 FF96      		adiw r30,63
 1668 0724 4083      		st Z,r20
 1669 0726 5183      		std Z+1,r21
 1670 0728 6283      		std Z+2,r22
 1671 072a 7383      		std Z+3,r23
 1672               	/* epilogue start */
 1673               	.LM214:
 1674 072c 0895      		ret
 1675               	.LFE28:
 1677               	.global	Timebase_UpCounter_Get_EndValue
 1679               	Timebase_UpCounter_Get_EndValue:
 1680               	.LFB29:
 1681               	.LM215:
 1682               	.LVL107:
 1683               	/* prologue: function */
 1684               	/* frame size = 0 */
 1685               	.LM216:
 1686 072e E091 0000 		lds r30,Timebase
 1687 0732 F091 0000 		lds r31,(Timebase)+1
 1688 0736 90E0      		ldi r25,lo8(0)
 1689               	.LVL108:
 1690 0738 25E1      		ldi r18,lo8(21)
 1691 073a 30E0      		ldi r19,hi8(21)
 1692 073c AC01      		movw r20,r24
 1693 073e 429F      		mul r20,r18
 1694 0740 C001      		movw r24,r0
 1695 0742 439F      		mul r20,r19
 1696 0744 900D      		add r25,r0
 1697 0746 529F      		mul r21,r18
 1698 0748 900D      		add r25,r0
 1699 074a 1124      		clr r1
 1700               	.LVL109:
 1701 074c E80F      		add r30,r24
 1702 074e F91F      		adc r31,r25
 1703 0750 DF01      		movw r26,r30
 1704 0752 D396      		adiw r26,51
 1705 0754 63A9      		ldd r22,Z+51
 1706 0756 1196      		adiw r26,1
 1707 0758 7C91      		ld r23,X
 1708 075a 1197      		sbiw r26,1
 1709               	.LM217:
 1710 075c 1296      		adiw r26,2
 1711 075e 8C91      		ld r24,X
 1712 0760 1297      		sbiw r26,2
 1713 0762 1396      		adiw r26,3
 1714 0764 9C91      		ld r25,X
 1715               	.LVL110:
 1716               	/* epilogue start */
 1717 0766 0895      		ret
 1718               	.LFE29:
 1720               	.global	Timebase_UpCounter_Set_EndValue
 1722               	Timebase_UpCounter_Set_EndValue:
 1723               	.LFB30:
 1724               	.LM218:
 1725               	.LVL111:
 1726               	/* prologue: function */
 1727               	/* frame size = 0 */
 1728               	.LM219:
 1729 0768 E091 0000 		lds r30,Timebase
 1730 076c F091 0000 		lds r31,(Timebase)+1
 1731 0770 90E0      		ldi r25,lo8(0)
 1732               	.LVL112:
 1733 0772 25E1      		ldi r18,lo8(21)
 1734 0774 30E0      		ldi r19,hi8(21)
 1735 0776 DC01      		movw r26,r24
 1736 0778 A29F      		mul r26,r18
 1737 077a C001      		movw r24,r0
 1738 077c A39F      		mul r26,r19
 1739 077e 900D      		add r25,r0
 1740 0780 B29F      		mul r27,r18
 1741 0782 900D      		add r25,r0
 1742 0784 1124      		clr r1
 1743               	.LVL113:
 1744 0786 E80F      		add r30,r24
 1745 0788 F91F      		adc r31,r25
 1746 078a 43AB      		std Z+51,r20
 1747 078c 54AB      		std Z+52,r21
 1748 078e 65AB      		std Z+53,r22
 1749 0790 76AB      		std Z+54,r23
 1750               	/* epilogue start */
 1751               	.LM220:
 1752 0792 0895      		ret
 1753               	.LFE30:
 1755               	.global	Timebase_UpCounter_Get_TargetValue
 1757               	Timebase_UpCounter_Get_TargetValue:
 1758               	.LFB31:
 1759               	.LM221:
 1760               	.LVL114:
 1761               	/* prologue: function */
 1762               	/* frame size = 0 */
 1763               	.LM222:
 1764 0794 E091 0000 		lds r30,Timebase
 1765 0798 F091 0000 		lds r31,(Timebase)+1
 1766 079c 90E0      		ldi r25,lo8(0)
 1767               	.LVL115:
 1768 079e 25E1      		ldi r18,lo8(21)
 1769 07a0 30E0      		ldi r19,hi8(21)
 1770 07a2 AC01      		movw r20,r24
 1771 07a4 429F      		mul r20,r18
 1772 07a6 C001      		movw r24,r0
 1773 07a8 439F      		mul r20,r19
 1774 07aa 900D      		add r25,r0
 1775 07ac 529F      		mul r21,r18
 1776 07ae 900D      		add r25,r0
 1777 07b0 1124      		clr r1
 1778               	.LVL116:
 1779 07b2 E80F      		add r30,r24
 1780 07b4 F91F      		adc r31,r25
 1781 07b6 DF01      		movw r26,r30
 1782 07b8 D796      		adiw r26,55
 1783 07ba 67A9      		ldd r22,Z+55
 1784 07bc 1196      		adiw r26,1
 1785 07be 7C91      		ld r23,X
 1786 07c0 1197      		sbiw r26,1
 1787               	.LM223:
 1788 07c2 1296      		adiw r26,2
 1789 07c4 8C91      		ld r24,X
 1790 07c6 1297      		sbiw r26,2
 1791 07c8 1396      		adiw r26,3
 1792 07ca 9C91      		ld r25,X
 1793               	.LVL117:
 1794               	/* epilogue start */
 1795 07cc 0895      		ret
 1796               	.LFE31:
 1798               	.global	Timebase_UpCounter_Set_TargetValue
 1800               	Timebase_UpCounter_Set_TargetValue:
 1801               	.LFB32:
 1802               	.LM224:
 1803               	.LVL118:
 1804               	/* prologue: function */
 1805               	/* frame size = 0 */
 1806               	.LM225:
 1807 07ce E091 0000 		lds r30,Timebase
 1808 07d2 F091 0000 		lds r31,(Timebase)+1
 1809 07d6 90E0      		ldi r25,lo8(0)
 1810               	.LVL119:
 1811 07d8 25E1      		ldi r18,lo8(21)
 1812 07da 30E0      		ldi r19,hi8(21)
 1813 07dc DC01      		movw r26,r24
 1814 07de A29F      		mul r26,r18
 1815 07e0 C001      		movw r24,r0
 1816 07e2 A39F      		mul r26,r19
 1817 07e4 900D      		add r25,r0
 1818 07e6 B29F      		mul r27,r18
 1819 07e8 900D      		add r25,r0
 1820 07ea 1124      		clr r1
 1821               	.LVL120:
 1822 07ec E80F      		add r30,r24
 1823 07ee F91F      		adc r31,r25
 1824 07f0 47AB      		std Z+55,r20
 1825 07f2 50AF      		std Z+56,r21
 1826 07f4 61AF      		std Z+57,r22
 1827 07f6 72AF      		std Z+58,r23
 1828               	/* epilogue start */
 1829               	.LM226:
 1830 07f8 0895      		ret
 1831               	.LFE32:
 1833               	.global	Timebase_UpCounter_Get_TemporaryValue
 1835               	Timebase_UpCounter_Get_TemporaryValue:
 1836               	.LFB33:
 1837               	.LM227:
 1838               	.LVL121:
 1839               	/* prologue: function */
 1840               	/* frame size = 0 */
 1841               	.LM228:
 1842 07fa E091 0000 		lds r30,Timebase
 1843 07fe F091 0000 		lds r31,(Timebase)+1
 1844 0802 90E0      		ldi r25,lo8(0)
 1845               	.LVL122:
 1846 0804 25E1      		ldi r18,lo8(21)
 1847 0806 30E0      		ldi r19,hi8(21)
 1848 0808 AC01      		movw r20,r24
 1849 080a 429F      		mul r20,r18
 1850 080c C001      		movw r24,r0
 1851 080e 439F      		mul r20,r19
 1852 0810 900D      		add r25,r0
 1853 0812 529F      		mul r21,r18
 1854 0814 900D      		add r25,r0
 1855 0816 1124      		clr r1
 1856               	.LVL123:
 1857 0818 E80F      		add r30,r24
 1858 081a F91F      		adc r31,r25
 1859 081c DF01      		movw r26,r30
 1860 081e DB96      		adiw r26,59
 1861 0820 63AD      		ldd r22,Z+59
 1862 0822 1196      		adiw r26,1
 1863 0824 7C91      		ld r23,X
 1864 0826 1197      		sbiw r26,1
 1865               	.LM229:
 1866 0828 1296      		adiw r26,2
 1867 082a 8C91      		ld r24,X
 1868 082c 1297      		sbiw r26,2
 1869 082e 1396      		adiw r26,3
 1870 0830 9C91      		ld r25,X
 1871               	.LVL124:
 1872               	/* epilogue start */
 1873 0832 0895      		ret
 1874               	.LFE33:
 1876               	.global	Timebase_UpCounter_Set_TemporaryValue
 1878               	Timebase_UpCounter_Set_TemporaryValue:
 1879               	.LFB34:
 1880               	.LM230:
 1881               	.LVL125:
 1882               	/* prologue: function */
 1883               	/* frame size = 0 */
 1884               	.LM231:
 1885 0834 E091 0000 		lds r30,Timebase
 1886 0838 F091 0000 		lds r31,(Timebase)+1
 1887 083c 90E0      		ldi r25,lo8(0)
 1888               	.LVL126:
 1889 083e 25E1      		ldi r18,lo8(21)
 1890 0840 30E0      		ldi r19,hi8(21)
 1891 0842 DC01      		movw r26,r24
 1892 0844 A29F      		mul r26,r18
 1893 0846 C001      		movw r24,r0
 1894 0848 A39F      		mul r26,r19
 1895 084a 900D      		add r25,r0
 1896 084c B29F      		mul r27,r18
 1897 084e 900D      		add r25,r0
 1898 0850 1124      		clr r1
 1899               	.LVL127:
 1900 0852 E80F      		add r30,r24
 1901 0854 F91F      		adc r31,r25
 1902 0856 43AF      		std Z+59,r20
 1903 0858 54AF      		std Z+60,r21
 1904 085a 65AF      		std Z+61,r22
 1905 085c 76AF      		std Z+62,r23
 1906               	/* epilogue start */
 1907               	.LM232:
 1908 085e 0895      		ret
 1909               	.LFE34:
 1911               	.global	Timebase_UpCounter_Get_PeriodValue
 1913               	Timebase_UpCounter_Get_PeriodValue:
 1914               	.LFB35:
 1915               	.LM233:
 1916               	.LVL128:
 1917               	/* prologue: function */
 1918               	/* frame size = 0 */
 1919               	.LM234:
 1920 0860 E091 0000 		lds r30,Timebase
 1921 0864 F091 0000 		lds r31,(Timebase)+1
 1922 0868 90E0      		ldi r25,lo8(0)
 1923               	.LVL129:
 1924 086a 25E1      		ldi r18,lo8(21)
 1925 086c 30E0      		ldi r19,hi8(21)
 1926 086e AC01      		movw r20,r24
 1927 0870 429F      		mul r20,r18
 1928 0872 C001      		movw r24,r0
 1929 0874 439F      		mul r20,r19
 1930 0876 900D      		add r25,r0
 1931 0878 529F      		mul r21,r18
 1932 087a 900D      		add r25,r0
 1933 087c 1124      		clr r1
 1934               	.LVL130:
 1935 087e E80F      		add r30,r24
 1936 0880 F91F      		adc r31,r25
 1937 0882 ED5B      		subi r30,lo8(-(67))
 1938 0884 FF4F      		sbci r31,hi8(-(67))
 1939 0886 6081      		ld r22,Z
 1940 0888 7181      		ldd r23,Z+1
 1941               	.LM235:
 1942 088a 8281      		ldd r24,Z+2
 1943 088c 9381      		ldd r25,Z+3
 1944               	.LVL131:
 1945               	/* epilogue start */
 1946 088e 0895      		ret
 1947               	.LFE35:
 1949               	.global	Timebase_UpCounter_Set_PeriodValue
 1951               	Timebase_UpCounter_Set_PeriodValue:
 1952               	.LFB36:
 1953               	.LM236:
 1954               	.LVL132:
 1955               	/* prologue: function */
 1956               	/* frame size = 0 */
 1957               	.LM237:
 1958 0890 E091 0000 		lds r30,Timebase
 1959 0894 F091 0000 		lds r31,(Timebase)+1
 1960 0898 90E0      		ldi r25,lo8(0)
 1961               	.LVL133:
 1962 089a 25E1      		ldi r18,lo8(21)
 1963 089c 30E0      		ldi r19,hi8(21)
 1964 089e DC01      		movw r26,r24
 1965 08a0 A29F      		mul r26,r18
 1966 08a2 C001      		movw r24,r0
 1967 08a4 A39F      		mul r26,r19
 1968 08a6 900D      		add r25,r0
 1969 08a8 B29F      		mul r27,r18
 1970 08aa 900D      		add r25,r0
 1971 08ac 1124      		clr r1
 1972               	.LVL134:
 1973 08ae E80F      		add r30,r24
 1974 08b0 F91F      		adc r31,r25
 1975 08b2 ED5B      		subi r30,lo8(-(67))
 1976 08b4 FF4F      		sbci r31,hi8(-(67))
 1977 08b6 4083      		st Z,r20
 1978 08b8 5183      		std Z+1,r21
 1979 08ba 6283      		std Z+2,r22
 1980 08bc 7383      		std Z+3,r23
 1981               	/* epilogue start */
 1982               	.LM238:
 1983 08be 0895      		ret
 1984               	.LFE36:
 1986               	.global	Timebase_UpCounter_Get_Period_Flag
 1988               	Timebase_UpCounter_Get_Period_Flag:
 1989               	.LFB37:
 1990               	.LM239:
 1991               	.LVL135:
 1992               	/* prologue: function */
 1993               	/* frame size = 0 */
 1994               	.LM240:
 1995 08c0 E091 0000 		lds r30,Timebase
 1996 08c4 F091 0000 		lds r31,(Timebase)+1
 1997 08c8 90E0      		ldi r25,lo8(0)
 1998               	.LVL136:
 1999 08ca 25E1      		ldi r18,lo8(21)
 2000 08cc 30E0      		ldi r19,hi8(21)
 2001 08ce AC01      		movw r20,r24
 2002 08d0 429F      		mul r20,r18
 2003 08d2 C001      		movw r24,r0
 2004 08d4 439F      		mul r20,r19
 2005 08d6 900D      		add r25,r0
 2006 08d8 529F      		mul r21,r18
 2007 08da 900D      		add r25,r0
 2008 08dc 1124      		clr r1
 2009               	.LVL137:
 2010 08de E80F      		add r30,r24
 2011 08e0 F91F      		adc r31,r25
 2012 08e2 82A9      		ldd r24,Z+50
 2013               	.LM241:
 2014 08e4 8170      		andi r24,lo8(1)
 2015               	/* epilogue start */
 2016 08e6 0895      		ret
 2017               	.LFE37:
 2019               	.global	Timebase_UpCounter_Set_Period_Flag
 2021               	Timebase_UpCounter_Set_Period_Flag:
 2022               	.LFB38:
 2023               	.LM242:
 2024               	.LVL138:
 2025               	/* prologue: function */
 2026               	/* frame size = 0 */
 2027               	.LM243:
 2028 08e8 E091 0000 		lds r30,Timebase
 2029 08ec F091 0000 		lds r31,(Timebase)+1
 2030 08f0 90E0      		ldi r25,lo8(0)
 2031               	.LVL139:
 2032 08f2 25E1      		ldi r18,lo8(21)
 2033 08f4 30E0      		ldi r19,hi8(21)
 2034 08f6 AC01      		movw r20,r24
 2035 08f8 429F      		mul r20,r18
 2036 08fa C001      		movw r24,r0
 2037 08fc 439F      		mul r20,r19
 2038 08fe 900D      		add r25,r0
 2039 0900 529F      		mul r21,r18
 2040 0902 900D      		add r25,r0
 2041 0904 1124      		clr r1
 2042               	.LVL140:
 2043 0906 E80F      		add r30,r24
 2044 0908 F91F      		adc r31,r25
 2045 090a 82A9      		ldd r24,Z+50
 2046 090c 8160      		ori r24,lo8(1)
 2047 090e 82AB      		std Z+50,r24
 2048               	/* epilogue start */
 2049               	.LM244:
 2050 0910 0895      		ret
 2051               	.LFE38:
 2053               	.global	Timebase_UpCounter_Clear_Period_Flag
 2055               	Timebase_UpCounter_Clear_Period_Flag:
 2056               	.LFB39:
 2057               	.LM245:
 2058               	.LVL141:
 2059               	/* prologue: function */
 2060               	/* frame size = 0 */
 2061               	.LM246:
 2062 0912 E091 0000 		lds r30,Timebase
 2063 0916 F091 0000 		lds r31,(Timebase)+1
 2064 091a 90E0      		ldi r25,lo8(0)
 2065               	.LVL142:
 2066 091c 25E1      		ldi r18,lo8(21)
 2067 091e 30E0      		ldi r19,hi8(21)
 2068 0920 AC01      		movw r20,r24
 2069 0922 429F      		mul r20,r18
 2070 0924 C001      		movw r24,r0
 2071 0926 439F      		mul r20,r19
 2072 0928 900D      		add r25,r0
 2073 092a 529F      		mul r21,r18
 2074 092c 900D      		add r25,r0
 2075 092e 1124      		clr r1
 2076               	.LVL143:
 2077 0930 E80F      		add r30,r24
 2078 0932 F91F      		adc r31,r25
 2079 0934 82A9      		ldd r24,Z+50
 2080 0936 8E7F      		andi r24,lo8(-2)
 2081 0938 82AB      		std Z+50,r24
 2082               	/* epilogue start */
 2083               	.LM247:
 2084 093a 0895      		ret
 2085               	.LFE39:
 2087               	.global	Timebase_UpCounter_Reset
 2089               	Timebase_UpCounter_Reset:
 2090               	.LFB40:
 2091               	.LM248:
 2092               	.LVL144:
 2093               	/* prologue: function */
 2094               	/* frame size = 0 */
 2095               	.LBB637:
 2096               	.LBB638:
 2097               	.LM249:
 2098 093c E091 0000 		lds r30,Timebase
 2099 0940 F091 0000 		lds r31,(Timebase)+1
 2100 0944 90E0      		ldi r25,lo8(0)
 2101 0946 25E1      		ldi r18,lo8(21)
 2102 0948 30E0      		ldi r19,hi8(21)
 2103 094a AC01      		movw r20,r24
 2104               	.LVL145:
 2105 094c 429F      		mul r20,r18
 2106 094e C001      		movw r24,r0
 2107 0950 439F      		mul r20,r19
 2108 0952 900D      		add r25,r0
 2109 0954 529F      		mul r21,r18
 2110 0956 900D      		add r25,r0
 2111 0958 1124      		clr r1
 2112 095a E80F      		add r30,r24
 2113 095c F91F      		adc r31,r25
 2114 095e 82A9      		ldd r24,Z+50
 2115               	.LBE638:
 2116               	.LBE637:
 2117               	.LBB639:
 2118               	.LBB640:
 2119               	.LM250:
 2120 0960 FF96      		adiw r30,63
 2121 0962 1082      		st Z,__zero_reg__
 2122 0964 1182      		std Z+1,__zero_reg__
 2123 0966 1282      		std Z+2,__zero_reg__
 2124 0968 1382      		std Z+3,__zero_reg__
 2125 096a FF97      		sbiw r30,63
 2126               	.LBE640:
 2127               	.LBE639:
 2128               	.LBB641:
 2129               	.LBB642:
 2130               	.LM251:
 2131 096c 13AA      		std Z+51,__zero_reg__
 2132 096e 14AA      		std Z+52,__zero_reg__
 2133 0970 15AA      		std Z+53,__zero_reg__
 2134 0972 16AA      		std Z+54,__zero_reg__
 2135               	.LBE642:
 2136               	.LBE641:
 2137               	.LBB643:
 2138               	.LBB644:
 2139               	.LM252:
 2140 0974 17AA      		std Z+55,__zero_reg__
 2141 0976 10AE      		std Z+56,__zero_reg__
 2142 0978 11AE      		std Z+57,__zero_reg__
 2143 097a 12AE      		std Z+58,__zero_reg__
 2144               	.LBE644:
 2145               	.LBE643:
 2146               	.LBB645:
 2147               	.LBB646:
 2148               	.LM253:
 2149 097c 13AE      		std Z+59,__zero_reg__
 2150 097e 14AE      		std Z+60,__zero_reg__
 2151 0980 15AE      		std Z+61,__zero_reg__
 2152 0982 16AE      		std Z+62,__zero_reg__
 2153               	.LBE646:
 2154               	.LBE645:
 2155               	.LBB647:
 2156               	.LBB648:
 2157               	.LM254:
 2158 0984 ED5B      		subi r30,lo8(-(67))
 2159 0986 FF4F      		sbci r31,hi8(-(67))
 2160 0988 1082      		st Z,__zero_reg__
 2161 098a 1182      		std Z+1,__zero_reg__
 2162 098c 1282      		std Z+2,__zero_reg__
 2163 098e 1382      		std Z+3,__zero_reg__
 2164 0990 E354      		subi r30,lo8(-(-67))
 2165 0992 F040      		sbci r31,hi8(-(-67))
 2166               	.LBE648:
 2167               	.LBE647:
 2168               	.LBB649:
 2169               	.LBB650:
 2170               	.LM255:
 2171 0994 807E      		andi r24,lo8(-32)
 2172 0996 82AB      		std Z+50,r24
 2173               	/* epilogue start */
 2174               	.LBE650:
 2175               	.LBE649:
 2176               	.LM256:
 2177 0998 0895      		ret
 2178               	.LFE40:
 2180               	.global	Timebase_UpCounter_Clear_All_Flags
 2182               	Timebase_UpCounter_Clear_All_Flags:
 2183               	.LFB41:
 2184               	.LM257:
 2185               	.LVL146:
 2186               	/* prologue: function */
 2187               	/* frame size = 0 */
 2188               	.LM258:
 2189 099a 0E94 0000 		call Timebase_UpCounter_Reset
 2190               	.LVL147:
 2191               	/* epilogue start */
 2192               	.LM259:
 2193 099e 0895      		ret
 2194               	.LFE41:
 2196               	.global	Timebase_UpCounter_Start
 2198               	Timebase_UpCounter_Start:
 2199               	.LFB42:
 2200               	.LM260:
 2201               	.LVL148:
 2202               	/* prologue: function */
 2203               	/* frame size = 0 */
 2204               	.LBB651:
 2205               	.LBB652:
 2206               	.LM261:
 2207 09a0 E091 0000 		lds r30,Timebase
 2208 09a4 F091 0000 		lds r31,(Timebase)+1
 2209 09a8 90E0      		ldi r25,lo8(0)
 2210               	.LBE652:
 2211               	.LBE651:
 2212               	.LM262:
 2213 09aa 25E1      		ldi r18,lo8(21)
 2214 09ac 30E0      		ldi r19,hi8(21)
 2215 09ae AC01      		movw r20,r24
 2216               	.LVL149:
 2217 09b0 429F      		mul r20,r18
 2218 09b2 C001      		movw r24,r0
 2219 09b4 439F      		mul r20,r19
 2220 09b6 900D      		add r25,r0
 2221 09b8 529F      		mul r21,r18
 2222 09ba 900D      		add r25,r0
 2223 09bc 1124      		clr r1
 2224 09be E80F      		add r30,r24
 2225 09c0 F91F      		adc r31,r25
 2226 09c2 92A9      		ldd r25,Z+50
 2227 09c4 892F      		mov r24,r25
 2228 09c6 8695      		lsr r24
 2229 09c8 8F70      		andi r24,lo8(15)
 2230 09ca 8130      		cpi r24,lo8(1)
 2231 09cc 01F0      		breq .L108
 2232               	.LBB653:
 2233               	.LBB654:
 2234               	.LM263:
 2235 09ce 917E      		andi r25,lo8(-31)
 2236 09d0 9260      		ori r25,lo8(2)
 2237 09d2 92AB      		std Z+50,r25
 2238               	.L108:
 2239 09d4 0895      		ret
 2240               	.LBE654:
 2241               	.LBE653:
 2242               	.LFE42:
 2244               	.global	Timebase_UpCounter_Stop
 2246               	Timebase_UpCounter_Stop:
 2247               	.LFB43:
 2248               	.LM264:
 2249               	.LVL150:
 2250               	/* prologue: function */
 2251               	/* frame size = 0 */
 2252               	.LBB655:
 2253               	.LBB656:
 2254               	.LM265:
 2255 09d6 E091 0000 		lds r30,Timebase
 2256 09da F091 0000 		lds r31,(Timebase)+1
 2257 09de 90E0      		ldi r25,lo8(0)
 2258               	.LBE656:
 2259               	.LBE655:
 2260               	.LM266:
 2261 09e0 25E1      		ldi r18,lo8(21)
 2262 09e2 30E0      		ldi r19,hi8(21)
 2263 09e4 AC01      		movw r20,r24
 2264               	.LVL151:
 2265 09e6 429F      		mul r20,r18
 2266 09e8 C001      		movw r24,r0
 2267 09ea 439F      		mul r20,r19
 2268 09ec 900D      		add r25,r0
 2269 09ee 529F      		mul r21,r18
 2270 09f0 900D      		add r25,r0
 2271 09f2 1124      		clr r1
 2272 09f4 E80F      		add r30,r24
 2273 09f6 F91F      		adc r31,r25
 2274 09f8 92A9      		ldd r25,Z+50
 2275 09fa 892F      		mov r24,r25
 2276 09fc 8695      		lsr r24
 2277 09fe 8F70      		andi r24,lo8(15)
 2278 0a00 8230      		cpi r24,lo8(2)
 2279 0a02 01F0      		breq .L111
 2280               	.LBB657:
 2281               	.LBB658:
 2282               	.LM267:
 2283 0a04 917E      		andi r25,lo8(-31)
 2284 0a06 9460      		ori r25,lo8(4)
 2285 0a08 92AB      		std Z+50,r25
 2286               	.L111:
 2287 0a0a 0895      		ret
 2288               	.LBE658:
 2289               	.LBE657:
 2290               	.LFE43:
 2292               	.global	Timebase_UpCounter_Set_Securely
 2294               	Timebase_UpCounter_Set_Securely:
 2295               	.LFB44:
 2296               	.LM268:
 2297               	.LVL152:
 2298 0a0c 0F93      		push r16
 2299 0a0e 1F93      		push r17
 2300 0a10 CF93      		push r28
 2301 0a12 DF93      		push r29
 2302               	/* prologue: function */
 2303               	/* frame size = 0 */
 2304               	.LBB659:
 2305               	.LBB660:
 2306               	.LM269:
 2307 0a14 C091 0000 		lds r28,Timebase
 2308 0a18 D091 0000 		lds r29,(Timebase)+1
 2309 0a1c 082F      		mov r16,r24
 2310 0a1e 10E0      		ldi r17,lo8(0)
 2311               	.LBE660:
 2312               	.LBE659:
 2313               	.LM270:
 2314 0a20 85E1      		ldi r24,lo8(21)
 2315 0a22 90E0      		ldi r25,hi8(21)
 2316               	.LVL153:
 2317 0a24 089F      		mul r16,r24
 2318 0a26 F001      		movw r30,r0
 2319 0a28 099F      		mul r16,r25
 2320 0a2a F00D      		add r31,r0
 2321 0a2c 189F      		mul r17,r24
 2322 0a2e F00D      		add r31,r0
 2323 0a30 1124      		clr r1
 2324 0a32 EC0F      		add r30,r28
 2325 0a34 FD1F      		adc r31,r29
 2326 0a36 82A9      		ldd r24,Z+50
 2327 0a38 8695      		lsr r24
 2328 0a3a 8F70      		andi r24,lo8(15)
 2329 0a3c 01F4      		brne .L114
 2330               	.LBB661:
 2331               	.LBB662:
 2332               	.LM271:
 2333 0a3e FF96      		adiw r30,63
 2334 0a40 1082      		st Z,__zero_reg__
 2335 0a42 1182      		std Z+1,__zero_reg__
 2336 0a44 1282      		std Z+2,__zero_reg__
 2337 0a46 1382      		std Z+3,__zero_reg__
 2338 0a48 FF97      		sbiw r30,63
 2339               	.LBE662:
 2340               	.LBE661:
 2341               	.LBB663:
 2342               	.LBB664:
 2343               	.LM272:
 2344 0a4a 13AE      		std Z+59,__zero_reg__
 2345 0a4c 14AE      		std Z+60,__zero_reg__
 2346 0a4e 15AE      		std Z+61,__zero_reg__
 2347 0a50 16AE      		std Z+62,__zero_reg__
 2348               	.LBE664:
 2349               	.LBE663:
 2350               	.LBB665:
 2351               	.LBB666:
 2352               	.LM273:
 2353 0a52 47AB      		std Z+55,r20
 2354 0a54 50AF      		std Z+56,r21
 2355 0a56 61AF      		std Z+57,r22
 2356 0a58 72AF      		std Z+58,r23
 2357               	.LBE666:
 2358               	.LBE665:
 2359               	.LBB667:
 2360               	.LBB668:
 2361               	.LBB669:
 2362               	.LBB670:
 2363               	.LM274:
 2364               	/* #APP */
 2365               	 ;  341 "timebase.c" 1
 2366 0a5a F894      		cli
 2367               	 ;  0 "" 2
 2368               	/* #NOAPP */
 2369               	.LBE670:
 2370               	.LBE669:
 2371               	.LM275:
 2372 0a5c 8A85      		ldd r24,Y+10
 2373 0a5e 9B85      		ldd r25,Y+11
 2374 0a60 AC85      		ldd r26,Y+12
 2375 0a62 BD85      		ldd r27,Y+13
 2376               	.LVL154:
 2377               	.LBB671:
 2378               	.LBB672:
 2379               	.LM276:
 2380               	/* #APP */
 2381               	 ;  345 "timebase.c" 1
 2382 0a64 7894      		sei
 2383               	 ;  0 "" 2
 2384               	/* #NOAPP */
 2385               	.LBE672:
 2386               	.LBE671:
 2387               	.LBE668:
 2388               	.LBE667:
 2389               	.LBB673:
 2390               	.LBB674:
 2391               	.LM277:
 2392 0a66 25E1      		ldi r18,lo8(21)
 2393 0a68 30E0      		ldi r19,hi8(21)
 2394 0a6a 029F      		mul r16,r18
 2395 0a6c F001      		movw r30,r0
 2396 0a6e 039F      		mul r16,r19
 2397 0a70 F00D      		add r31,r0
 2398 0a72 129F      		mul r17,r18
 2399 0a74 F00D      		add r31,r0
 2400 0a76 1124      		clr r1
 2401 0a78 EC0F      		add r30,r28
 2402 0a7a FD1F      		adc r31,r29
 2403 0a7c 840F      		add r24,r20
 2404 0a7e 951F      		adc r25,r21
 2405 0a80 A61F      		adc r26,r22
 2406 0a82 B71F      		adc r27,r23
 2407 0a84 83AB      		std Z+51,r24
 2408 0a86 94AB      		std Z+52,r25
 2409 0a88 A5AB      		std Z+53,r26
 2410 0a8a B6AB      		std Z+54,r27
 2411               	.LBE674:
 2412               	.LBE673:
 2413               	.LBB675:
 2414               	.LBB676:
 2415               	.LM278:
 2416 0a8c 92A9      		ldd r25,Z+50
 2417 0a8e 892F      		mov r24,r25
 2418               	.LVL155:
 2419 0a90 8695      		lsr r24
 2420 0a92 8F70      		andi r24,lo8(15)
 2421 0a94 8130      		cpi r24,lo8(1)
 2422 0a96 01F0      		breq .L114
 2423               	.LBB677:
 2424               	.LBB678:
 2425               	.LM279:
 2426 0a98 917E      		andi r25,lo8(-31)
 2427 0a9a 9260      		ori r25,lo8(2)
 2428 0a9c 92AB      		std Z+50,r25
 2429               	.L114:
 2430               	/* epilogue start */
 2431               	.LBE678:
 2432               	.LBE677:
 2433               	.LBE676:
 2434               	.LBE675:
 2435               	.LM280:
 2436 0a9e DF91      		pop r29
 2437 0aa0 CF91      		pop r28
 2438 0aa2 1F91      		pop r17
 2439 0aa4 0F91      		pop r16
 2440 0aa6 0895      		ret
 2441               	.LFE44:
 2443               	.global	Timebase_UpCounter_Set_Forcefully
 2445               	Timebase_UpCounter_Set_Forcefully:
 2446               	.LFB45:
 2447               	.LM281:
 2448               	.LVL156:
 2449 0aa8 DF92      		push r13
 2450 0aaa EF92      		push r14
 2451 0aac FF92      		push r15
 2452 0aae 0F93      		push r16
 2453 0ab0 1F93      		push r17
 2454               	/* prologue: function */
 2455               	/* frame size = 0 */
 2456 0ab2 D82E      		mov r13,r24
 2457 0ab4 7A01      		movw r14,r20
 2458 0ab6 8B01      		movw r16,r22
 2459               	.LM282:
 2460 0ab8 0E94 0000 		call Timebase_UpCounter_Reset
 2461               	.LVL157:
 2462               	.LM283:
 2463 0abc 8D2D      		mov r24,r13
 2464 0abe B801      		movw r22,r16
 2465 0ac0 A701      		movw r20,r14
 2466 0ac2 0E94 0000 		call Timebase_UpCounter_Set_Securely
 2467               	/* epilogue start */
 2468               	.LM284:
 2469 0ac6 1F91      		pop r17
 2470 0ac8 0F91      		pop r16
 2471 0aca FF90      		pop r15
 2472 0acc EF90      		pop r14
 2473               	.LVL158:
 2474 0ace DF90      		pop r13
 2475               	.LVL159:
 2476 0ad0 0895      		ret
 2477               	.LFE45:
 2479               	.global	Timebase_UpCounter_Update
 2481               	Timebase_UpCounter_Update:
 2482               	.LFB46:
 2483               	.LM285:
 2484               	.LVL160:
 2485 0ad2 EF92      		push r14
 2486 0ad4 FF92      		push r15
 2487 0ad6 0F93      		push r16
 2488 0ad8 1F93      		push r17
 2489 0ada CF93      		push r28
 2490 0adc DF93      		push r29
 2491               	/* prologue: function */
 2492               	/* frame size = 0 */
 2493               	.LBB679:
 2494               	.LBB680:
 2495               	.LM286:
 2496 0ade C091 0000 		lds r28,Timebase
 2497 0ae2 D091 0000 		lds r29,(Timebase)+1
 2498 0ae6 482F      		mov r20,r24
 2499 0ae8 50E0      		ldi r21,lo8(0)
 2500 0aea 85E1      		ldi r24,lo8(21)
 2501 0aec 90E0      		ldi r25,hi8(21)
 2502               	.LVL161:
 2503 0aee 489F      		mul r20,r24
 2504 0af0 F001      		movw r30,r0
 2505 0af2 499F      		mul r20,r25
 2506 0af4 F00D      		add r31,r0
 2507 0af6 589F      		mul r21,r24
 2508 0af8 F00D      		add r31,r0
 2509 0afa 1124      		clr r1
 2510 0afc EC0F      		add r30,r28
 2511 0afe FD1F      		adc r31,r29
 2512 0b00 82A9      		ldd r24,Z+50
 2513 0b02 8695      		lsr r24
 2514 0b04 8F70      		andi r24,lo8(15)
 2515               	.LBE680:
 2516               	.LBE679:
 2517               	.LM287:
 2518 0b06 8130      		cpi r24,lo8(1)
 2519 0b08 01F0      		breq .+2
 2520 0b0a 00C0      		rjmp .L118
 2521               	.LBB681:
 2522               	.LBB682:
 2523               	.LBB683:
 2524               	.LBB684:
 2525               	.LM288:
 2526               	/* #APP */
 2527               	 ;  341 "timebase.c" 1
 2528 0b0c F894      		cli
 2529               	 ;  0 "" 2
 2530               	/* #NOAPP */
 2531               	.LBE684:
 2532               	.LBE683:
 2533               	.LM289:
 2534 0b0e EA84      		ldd r14,Y+10
 2535 0b10 FB84      		ldd r15,Y+11
 2536 0b12 0C85      		ldd r16,Y+12
 2537 0b14 1D85      		ldd r17,Y+13
 2538               	.LVL162:
 2539               	.LBB685:
 2540               	.LBB686:
 2541               	.LM290:
 2542               	/* #APP */
 2543               	 ;  345 "timebase.c" 1
 2544 0b16 7894      		sei
 2545               	 ;  0 "" 2
 2546               	/* #NOAPP */
 2547               	.LBE686:
 2548               	.LBE685:
 2549               	.LBE682:
 2550               	.LBE681:
 2551               	.LM291:
 2552 0b18 85E1      		ldi r24,lo8(21)
 2553 0b1a 90E0      		ldi r25,hi8(21)
 2554 0b1c 489F      		mul r20,r24
 2555 0b1e F001      		movw r30,r0
 2556 0b20 499F      		mul r20,r25
 2557 0b22 F00D      		add r31,r0
 2558 0b24 589F      		mul r21,r24
 2559 0b26 F00D      		add r31,r0
 2560 0b28 1124      		clr r1
 2561 0b2a EC0F      		add r30,r28
 2562 0b2c FD1F      		adc r31,r29
 2563 0b2e 23A9      		ldd r18,Z+51
 2564 0b30 34A9      		ldd r19,Z+52
 2565 0b32 45A9      		ldd r20,Z+53
 2566 0b34 56A9      		ldd r21,Z+54
 2567 0b36 2E19      		sub r18,r14
 2568 0b38 3F09      		sbc r19,r15
 2569 0b3a 400B      		sbc r20,r16
 2570 0b3c 510B      		sbc r21,r17
 2571               	.LBB687:
 2572               	.LBB688:
 2573               	.LM292:
 2574 0b3e 23AF      		std Z+59,r18
 2575 0b40 34AF      		std Z+60,r19
 2576 0b42 45AF      		std Z+61,r20
 2577 0b44 56AF      		std Z+62,r21
 2578               	.LBE688:
 2579               	.LBE687:
 2580               	.LBB689:
 2581               	.LBB690:
 2582               	.LM293:
 2583 0b46 EF01      		movw r28,r30
 2584 0b48 EF96      		adiw r28,63
 2585 0b4a E7A8      		ldd r14,Z+55
 2586 0b4c F0AC      		ldd r15,Z+56
 2587 0b4e 01AD      		ldd r16,Z+57
 2588 0b50 12AD      		ldd r17,Z+58
 2589               	.LVL163:
 2590 0b52 D801      		movw r26,r16
 2591 0b54 C701      		movw r24,r14
 2592 0b56 821B      		sub r24,r18
 2593 0b58 930B      		sbc r25,r19
 2594 0b5a A40B      		sbc r26,r20
 2595 0b5c B50B      		sbc r27,r21
 2596 0b5e 8883      		st Y,r24
 2597 0b60 9983      		std Y+1,r25
 2598 0b62 AA83      		std Y+2,r26
 2599 0b64 BB83      		std Y+3,r27
 2600               	.LBE690:
 2601               	.LBE689:
 2602               	.LM294:
 2603 0b66 1216      		cp __zero_reg__,r18
 2604 0b68 1306      		cpc __zero_reg__,r19
 2605 0b6a 1406      		cpc __zero_reg__,r20
 2606 0b6c 1506      		cpc __zero_reg__,r21
 2607 0b6e 04F4      		brge .+2
 2608 0b70 00C0      		rjmp .L120
 2609               	.LBB691:
 2610               	.LBB692:
 2611               	.LM295:
 2612 0b72 13AA      		std Z+51,__zero_reg__
 2613 0b74 14AA      		std Z+52,__zero_reg__
 2614 0b76 15AA      		std Z+53,__zero_reg__
 2615 0b78 16AA      		std Z+54,__zero_reg__
 2616               	.LBE692:
 2617               	.LBE691:
 2618               	.LBB693:
 2619               	.LBB694:
 2620               	.LM296:
 2621 0b7a 13AE      		std Z+59,__zero_reg__
 2622 0b7c 14AE      		std Z+60,__zero_reg__
 2623 0b7e 15AE      		std Z+61,__zero_reg__
 2624 0b80 16AE      		std Z+62,__zero_reg__
 2625               	.LBE694:
 2626               	.LBE693:
 2627               	.LBB695:
 2628               	.LBB696:
 2629               	.LM297:
 2630 0b82 E882      		st Y,r14
 2631 0b84 F982      		std Y+1,r15
 2632 0b86 0A83      		std Y+2,r16
 2633 0b88 1B83      		std Y+3,r17
 2634               	.LBE696:
 2635               	.LBE695:
 2636               	.LBB697:
 2637               	.LBB698:
 2638               	.LM298:
 2639 0b8a 82A9      		ldd r24,Z+50
 2640 0b8c 817E      		andi r24,lo8(-31)
 2641 0b8e 8860      		ori r24,lo8(8)
 2642 0b90 82AB      		std Z+50,r24
 2643 0b92 00C0      		rjmp .L120
 2644               	.L118:
 2645               	.LBE698:
 2646               	.LBE697:
 2647               	.LM299:
 2648 0b94 8230      		cpi r24,lo8(2)
 2649 0b96 01F4      		brne .L120
 2650               	.LBB699:
 2651               	.LBB700:
 2652               	.LBB701:
 2653               	.LBB702:
 2654               	.LM300:
 2655               	/* #APP */
 2656               	 ;  341 "timebase.c" 1
 2657 0b98 F894      		cli
 2658               	 ;  0 "" 2
 2659               	/* #NOAPP */
 2660               	.LBE702:
 2661               	.LBE701:
 2662               	.LM301:
 2663 0b9a 8A85      		ldd r24,Y+10
 2664 0b9c 9B85      		ldd r25,Y+11
 2665 0b9e AC85      		ldd r26,Y+12
 2666 0ba0 BD85      		ldd r27,Y+13
 2667               	.LVL164:
 2668               	.LBB703:
 2669               	.LBB704:
 2670               	.LM302:
 2671               	/* #APP */
 2672               	 ;  345 "timebase.c" 1
 2673 0ba2 7894      		sei
 2674               	 ;  0 "" 2
 2675               	/* #NOAPP */
 2676               	.LBE704:
 2677               	.LBE703:
 2678               	.LBE700:
 2679               	.LBE699:
 2680               	.LBB705:
 2681               	.LBB706:
 2682               	.LM303:
 2683 0ba4 25E1      		ldi r18,lo8(21)
 2684 0ba6 30E0      		ldi r19,hi8(21)
 2685 0ba8 429F      		mul r20,r18
 2686 0baa F001      		movw r30,r0
 2687 0bac 439F      		mul r20,r19
 2688 0bae F00D      		add r31,r0
 2689 0bb0 529F      		mul r21,r18
 2690 0bb2 F00D      		add r31,r0
 2691 0bb4 1124      		clr r1
 2692 0bb6 EC0F      		add r30,r28
 2693 0bb8 FD1F      		adc r31,r29
 2694 0bba 23AD      		ldd r18,Z+59
 2695 0bbc 34AD      		ldd r19,Z+60
 2696 0bbe 45AD      		ldd r20,Z+61
 2697 0bc0 56AD      		ldd r21,Z+62
 2698 0bc2 820F      		add r24,r18
 2699 0bc4 931F      		adc r25,r19
 2700 0bc6 A41F      		adc r26,r20
 2701 0bc8 B51F      		adc r27,r21
 2702 0bca 83AB      		std Z+51,r24
 2703 0bcc 94AB      		std Z+52,r25
 2704 0bce A5AB      		std Z+53,r26
 2705 0bd0 B6AB      		std Z+54,r27
 2706               	.LBE706:
 2707               	.LBE705:
 2708               	.LBB707:
 2709               	.LBB708:
 2710               	.LM304:
 2711 0bd2 87A9      		ldd r24,Z+55
 2712 0bd4 90AD      		ldd r25,Z+56
 2713 0bd6 A1AD      		ldd r26,Z+57
 2714 0bd8 B2AD      		ldd r27,Z+58
 2715               	.LVL165:
 2716 0bda 821B      		sub r24,r18
 2717 0bdc 930B      		sbc r25,r19
 2718 0bde A40B      		sbc r26,r20
 2719 0be0 B50B      		sbc r27,r21
 2720 0be2 FF96      		adiw r30,63
 2721 0be4 8083      		st Z,r24
 2722 0be6 9183      		std Z+1,r25
 2723 0be8 A283      		std Z+2,r26
 2724 0bea B383      		std Z+3,r27
 2725               	.L120:
 2726               	/* epilogue start */
 2727               	.LBE708:
 2728               	.LBE707:
 2729               	.LM305:
 2730 0bec DF91      		pop r29
 2731 0bee CF91      		pop r28
 2732 0bf0 1F91      		pop r17
 2733 0bf2 0F91      		pop r16
 2734 0bf4 FF90      		pop r15
 2735 0bf6 EF90      		pop r14
 2736 0bf8 0895      		ret
 2737               	.LFE46:
 2739               	.global	Timebase_UpCounter_Expired
 2741               	Timebase_UpCounter_Expired:
 2742               	.LFB47:
 2743               	.LM306:
 2744               	.LVL166:
 2745               	/* prologue: function */
 2746               	/* frame size = 0 */
 2747               	.LM307:
 2748 0bfa 40E0      		ldi r20,lo8(0)
 2749 0bfc E091 0000 		lds r30,Timebase
 2750 0c00 F091 0000 		lds r31,(Timebase)+1
 2751 0c04 90E0      		ldi r25,lo8(0)
 2752               	.LVL167:
 2753 0c06 25E1      		ldi r18,lo8(21)
 2754 0c08 30E0      		ldi r19,hi8(21)
 2755 0c0a BC01      		movw r22,r24
 2756 0c0c 629F      		mul r22,r18
 2757 0c0e C001      		movw r24,r0
 2758 0c10 639F      		mul r22,r19
 2759 0c12 900D      		add r25,r0
 2760 0c14 729F      		mul r23,r18
 2761 0c16 900D      		add r25,r0
 2762 0c18 1124      		clr r1
 2763               	.LVL168:
 2764 0c1a E80F      		add r30,r24
 2765 0c1c F91F      		adc r31,r25
 2766 0c1e 82A9      		ldd r24,Z+50
 2767 0c20 8695      		lsr r24
 2768 0c22 8F70      		andi r24,lo8(15)
 2769 0c24 8430      		cpi r24,lo8(4)
 2770 0c26 01F4      		brne .L122
 2771 0c28 41E0      		ldi r20,lo8(1)
 2772               	.L122:
 2773               	.LM308:
 2774 0c2a 842F      		mov r24,r20
 2775               	/* epilogue start */
 2776 0c2c 0895      		ret
 2777               	.LFE47:
 2779               	.global	Timebase_UpCounter_Expired_Event
 2781               	Timebase_UpCounter_Expired_Event:
 2782               	.LFB48:
 2783               	.LM309:
 2784               	.LVL169:
 2785               	/* prologue: function */
 2786               	/* frame size = 0 */
 2787 0c2e 482F      		mov r20,r24
 2788               	.LM310:
 2789 0c30 E091 0000 		lds r30,Timebase
 2790 0c34 F091 0000 		lds r31,(Timebase)+1
 2791 0c38 282F      		mov r18,r24
 2792 0c3a 30E0      		ldi r19,lo8(0)
 2793               	.LVL170:
 2794 0c3c 85E1      		ldi r24,lo8(21)
 2795 0c3e 90E0      		ldi r25,hi8(21)
 2796               	.LVL171:
 2797 0c40 BC01      		movw r22,r24
 2798 0c42 269F      		mul r18,r22
 2799 0c44 C001      		movw r24,r0
 2800 0c46 279F      		mul r18,r23
 2801 0c48 900D      		add r25,r0
 2802 0c4a 369F      		mul r19,r22
 2803 0c4c 900D      		add r25,r0
 2804 0c4e 1124      		clr r1
 2805 0c50 E80F      		add r30,r24
 2806 0c52 F91F      		adc r31,r25
 2807 0c54 82A9      		ldd r24,Z+50
 2808 0c56 8695      		lsr r24
 2809 0c58 8F70      		andi r24,lo8(15)
 2810 0c5a 8430      		cpi r24,lo8(4)
 2811 0c5c 01F0      		breq .L125
 2812 0c5e 80E0      		ldi r24,lo8(0)
 2813 0c60 0895      		ret
 2814               	.L125:
 2815               	.LBB709:
 2816               	.LBB710:
 2817               	.LM311:
 2818 0c62 842F      		mov r24,r20
 2819 0c64 0E94 0000 		call Timebase_UpCounter_Reset
 2820               	.LVL172:
 2821 0c68 81E0      		ldi r24,lo8(1)
 2822               	.LBE710:
 2823               	.LBE709:
 2824               	.LM312:
 2825 0c6a 0895      		ret
 2826               	.LFE48:
 2828               	.global	Timebase_UpCounter_Set_Period_Value_Securely
 2830               	Timebase_UpCounter_Set_Period_Value_Securely:
 2831               	.LFB49:
 2832               	.LM313:
 2833               	.LVL173:
 2834 0c6c CF93      		push r28
 2835 0c6e DF93      		push r29
 2836               	/* prologue: function */
 2837               	/* frame size = 0 */
 2838               	.LBB711:
 2839               	.LBB712:
 2840               	.LM314:
 2841 0c70 C091 0000 		lds r28,Timebase
 2842 0c74 D091 0000 		lds r29,(Timebase)+1
 2843 0c78 90E0      		ldi r25,lo8(0)
 2844               	.LBE712:
 2845               	.LBE711:
 2846               	.LM315:
 2847 0c7a 25E1      		ldi r18,lo8(21)
 2848 0c7c 30E0      		ldi r19,hi8(21)
 2849 0c7e FC01      		movw r30,r24
 2850               	.LVL174:
 2851 0c80 E29F      		mul r30,r18
 2852 0c82 C001      		movw r24,r0
 2853 0c84 E39F      		mul r30,r19
 2854 0c86 900D      		add r25,r0
 2855 0c88 F29F      		mul r31,r18
 2856 0c8a 900D      		add r25,r0
 2857 0c8c 1124      		clr r1
 2858 0c8e C80F      		add r28,r24
 2859 0c90 D91F      		adc r29,r25
 2860 0c92 8AA9      		ldd r24,Y+50
 2861 0c94 80FD      		sbrc r24,0
 2862 0c96 00C0      		rjmp .L130
 2863               	.LBB713:
 2864               	.LBB714:
 2865               	.LM316:
 2866 0c98 FE01      		movw r30,r28
 2867 0c9a ED5B      		subi r30,lo8(-(67))
 2868 0c9c FF4F      		sbci r31,hi8(-(67))
 2869 0c9e EF96      		adiw r28,63
 2870 0ca0 8881      		ld r24,Y
 2871 0ca2 9981      		ldd r25,Y+1
 2872 0ca4 AA81      		ldd r26,Y+2
 2873 0ca6 BB81      		ldd r27,Y+3
 2874 0ca8 EF97      		sbiw r28,63
 2875 0caa 840F      		add r24,r20
 2876 0cac 951F      		adc r25,r21
 2877 0cae A61F      		adc r26,r22
 2878 0cb0 B71F      		adc r27,r23
 2879 0cb2 8083      		st Z,r24
 2880 0cb4 9183      		std Z+1,r25
 2881 0cb6 A283      		std Z+2,r26
 2882 0cb8 B383      		std Z+3,r27
 2883               	.LBE714:
 2884               	.LBE713:
 2885               	.LBB715:
 2886               	.LBB716:
 2887               	.LM317:
 2888 0cba 8AA9      		ldd r24,Y+50
 2889 0cbc 8160      		ori r24,lo8(1)
 2890 0cbe 8AAB      		std Y+50,r24
 2891               	.L130:
 2892               	/* epilogue start */
 2893               	.LBE716:
 2894               	.LBE715:
 2895               	.LM318:
 2896 0cc0 DF91      		pop r29
 2897 0cc2 CF91      		pop r28
 2898 0cc4 0895      		ret
 2899               	.LFE49:
 2901               	.global	Timebase_UpCounter_Get_Remaining_Period_Value
 2903               	Timebase_UpCounter_Get_Remaining_Period_Value:
 2904               	.LFB50:
 2905               	.LM319:
 2906               	.LVL175:
 2907               	/* prologue: function */
 2908               	/* frame size = 0 */
 2909               	.LBB717:
 2910               	.LBB718:
 2911               	.LM320:
 2912 0cc6 E091 0000 		lds r30,Timebase
 2913 0cca F091 0000 		lds r31,(Timebase)+1
 2914 0cce 90E0      		ldi r25,lo8(0)
 2915               	.LBE718:
 2916               	.LBE717:
 2917               	.LM321:
 2918 0cd0 25E1      		ldi r18,lo8(21)
 2919 0cd2 30E0      		ldi r19,hi8(21)
 2920 0cd4 AC01      		movw r20,r24
 2921               	.LVL176:
 2922 0cd6 429F      		mul r20,r18
 2923 0cd8 C001      		movw r24,r0
 2924 0cda 439F      		mul r20,r19
 2925 0cdc 900D      		add r25,r0
 2926 0cde 529F      		mul r21,r18
 2927 0ce0 900D      		add r25,r0
 2928 0ce2 1124      		clr r1
 2929 0ce4 E80F      		add r30,r24
 2930 0ce6 F91F      		adc r31,r25
 2931 0ce8 DF01      		movw r26,r30
 2932 0cea DF96      		adiw r26,63
 2933 0cec ED5B      		subi r30,lo8(-(67))
 2934 0cee FF4F      		sbci r31,hi8(-(67))
 2935 0cf0 2081      		ld r18,Z
 2936 0cf2 3181      		ldd r19,Z+1
 2937 0cf4 4281      		ldd r20,Z+2
 2938 0cf6 5381      		ldd r21,Z+3
 2939               	.LVL177:
 2940 0cf8 8D91      		ld r24,X+
 2941 0cfa 9D91      		ld r25,X+
 2942 0cfc 0D90      		ld __tmp_reg__,X+
 2943 0cfe BC91      		ld r27,X
 2944 0d00 A02D      		mov r26,__tmp_reg__
 2945 0d02 281B      		sub r18,r24
 2946 0d04 390B      		sbc r19,r25
 2947 0d06 4A0B      		sbc r20,r26
 2948 0d08 5B0B      		sbc r21,r27
 2949 0d0a 57FF      		sbrs r21,7
 2950 0d0c 00C0      		rjmp .L132
 2951 0d0e 20E0      		ldi r18,lo8(0)
 2952 0d10 30E0      		ldi r19,hi8(0)
 2953 0d12 40E0      		ldi r20,hlo8(0)
 2954 0d14 50E0      		ldi r21,hhi8(0)
 2955               	.L132:
 2956               	.LM322:
 2957 0d16 B901      		movw r22,r18
 2958               	.LVL178:
 2959 0d18 CA01      		movw r24,r20
 2960               	/* epilogue start */
 2961 0d1a 0895      		ret
 2962               	.LFE50:
 2964               	.global	Timebase_UpCounter_Period_Value_Expired
 2966               	Timebase_UpCounter_Period_Value_Expired:
 2967               	.LFB51:
 2968               	.LM323:
 2969               	.LVL179:
 2970 0d1c CF93      		push r28
 2971 0d1e DF93      		push r29
 2972               	/* prologue: function */
 2973               	/* frame size = 0 */
 2974               	.LBB719:
 2975               	.LBB720:
 2976               	.LBB721:
 2977               	.LBB722:
 2978               	.LM324:
 2979 0d20 C091 0000 		lds r28,Timebase
 2980 0d24 D091 0000 		lds r29,(Timebase)+1
 2981 0d28 682F      		mov r22,r24
 2982 0d2a 70E0      		ldi r23,lo8(0)
 2983               	.LBE722:
 2984               	.LBE721:
 2985               	.LM325:
 2986 0d2c 85E1      		ldi r24,lo8(21)
 2987 0d2e 90E0      		ldi r25,hi8(21)
 2988               	.LVL180:
 2989 0d30 689F      		mul r22,r24
 2990 0d32 F001      		movw r30,r0
 2991 0d34 699F      		mul r22,r25
 2992 0d36 F00D      		add r31,r0
 2993 0d38 789F      		mul r23,r24
 2994 0d3a F00D      		add r31,r0
 2995 0d3c 1124      		clr r1
 2996 0d3e EC0F      		add r30,r28
 2997 0d40 FD1F      		adc r31,r29
 2998 0d42 DF01      		movw r26,r30
 2999 0d44 DF96      		adiw r26,63
 3000 0d46 ED5B      		subi r30,lo8(-(67))
 3001 0d48 FF4F      		sbci r31,hi8(-(67))
 3002 0d4a 2081      		ld r18,Z
 3003 0d4c 3181      		ldd r19,Z+1
 3004 0d4e 4281      		ldd r20,Z+2
 3005 0d50 5381      		ldd r21,Z+3
 3006               	.LVL181:
 3007 0d52 8D91      		ld r24,X+
 3008 0d54 9D91      		ld r25,X+
 3009 0d56 0D90      		ld __tmp_reg__,X+
 3010 0d58 BC91      		ld r27,X
 3011 0d5a A02D      		mov r26,__tmp_reg__
 3012 0d5c 281B      		sub r18,r24
 3013 0d5e 390B      		sbc r19,r25
 3014 0d60 4A0B      		sbc r20,r26
 3015 0d62 5B0B      		sbc r21,r27
 3016               	.LM326:
 3017 0d64 57FD      		sbrc r21,7
 3018 0d66 00C0      		rjmp .L135
 3019               	.LBE720:
 3020               	.LBE719:
 3021               	.LM327:
 3022 0d68 2115      		cp r18,__zero_reg__
 3023 0d6a 3105      		cpc r19,__zero_reg__
 3024 0d6c 4105      		cpc r20,__zero_reg__
 3025 0d6e 5105      		cpc r21,__zero_reg__
 3026 0d70 01F0      		breq .L135
 3027 0d72 20E0      		ldi r18,lo8(0)
 3028               	.LVL182:
 3029 0d74 00C0      		rjmp .L136
 3030               	.LVL183:
 3031               	.L135:
 3032 0d76 20E0      		ldi r18,lo8(0)
 3033               	.LVL184:
 3034 0d78 85E1      		ldi r24,lo8(21)
 3035 0d7a 90E0      		ldi r25,hi8(21)
 3036 0d7c AC01      		movw r20,r24
 3037 0d7e 649F      		mul r22,r20
 3038 0d80 C001      		movw r24,r0
 3039 0d82 659F      		mul r22,r21
 3040 0d84 900D      		add r25,r0
 3041 0d86 749F      		mul r23,r20
 3042 0d88 900D      		add r25,r0
 3043 0d8a 1124      		clr r1
 3044 0d8c C80F      		add r28,r24
 3045 0d8e D91F      		adc r29,r25
 3046 0d90 8AA9      		ldd r24,Y+50
 3047 0d92 80FF      		sbrs r24,0
 3048 0d94 21E0      		ldi r18,lo8(1)
 3049               	.L137:
 3050 0d96 81E0      		ldi r24,lo8(1)
 3051 0d98 2827      		eor r18,r24
 3052               	.L136:
 3053               	.LM328:
 3054 0d9a 822F      		mov r24,r18
 3055               	/* epilogue start */
 3056 0d9c DF91      		pop r29
 3057 0d9e CF91      		pop r28
 3058 0da0 0895      		ret
 3059               	.LFE51:
 3061               	.global	Timebase_UpCounter_Period_Value_Expired_Event
 3063               	Timebase_UpCounter_Period_Value_Expired_Event:
 3064               	.LFB52:
 3065               	.LM329:
 3066               	.LVL185:
 3067 0da2 1F93      		push r17
 3068               	/* prologue: function */
 3069               	/* frame size = 0 */
 3070 0da4 182F      		mov r17,r24
 3071               	.LM330:
 3072 0da6 0E94 0000 		call Timebase_UpCounter_Period_Value_Expired
 3073               	.LVL186:
 3074 0daa 8130      		cpi r24,lo8(1)
 3075 0dac 01F0      		breq .L140
 3076 0dae 80E0      		ldi r24,lo8(0)
 3077 0db0 00C0      		rjmp .L141
 3078               	.L140:
 3079               	.LBB723:
 3080               	.LBB724:
 3081               	.LM331:
 3082 0db2 E091 0000 		lds r30,Timebase
 3083 0db6 F091 0000 		lds r31,(Timebase)+1
 3084 0dba 212F      		mov r18,r17
 3085 0dbc 30E0      		ldi r19,lo8(0)
 3086               	.LVL187:
 3087 0dbe 85E1      		ldi r24,lo8(21)
 3088 0dc0 90E0      		ldi r25,hi8(21)
 3089 0dc2 AC01      		movw r20,r24
 3090 0dc4 249F      		mul r18,r20
 3091 0dc6 C001      		movw r24,r0
 3092 0dc8 259F      		mul r18,r21
 3093 0dca 900D      		add r25,r0
 3094 0dcc 349F      		mul r19,r20
 3095 0dce 900D      		add r25,r0
 3096 0dd0 1124      		clr r1
 3097 0dd2 E80F      		add r30,r24
 3098 0dd4 F91F      		adc r31,r25
 3099 0dd6 82A9      		ldd r24,Z+50
 3100 0dd8 8E7F      		andi r24,lo8(-2)
 3101 0dda 82AB      		std Z+50,r24
 3102 0ddc 81E0      		ldi r24,lo8(1)
 3103               	.L141:
 3104               	/* epilogue start */
 3105               	.LBE724:
 3106               	.LBE723:
 3107               	.LM332:
 3108 0dde 1F91      		pop r17
 3109               	.LVL188:
 3110 0de0 0895      		ret
 3111               	.LFE52:
 3113               	.global	Timebase_UpCounter_Update_All
 3115               	Timebase_UpCounter_Update_All:
 3116               	.LFB53:
 3117               	.LM333:
 3118               	/* prologue: function */
 3119               	/* frame size = 0 */
 3120               	.LBB725:
 3121               	.LM334:
 3122 0de2 80E0      		ldi r24,lo8(0)
 3123 0de4 0E94 0000 		call Timebase_UpCounter_Update
 3124               	/* epilogue start */
 3125               	.LBE725:
 3126               	.LM335:
 3127 0de8 0895      		ret
 3128               	.LFE53:
 3130               	.global	Timebase_UpCounter_Reset_All
 3132               	Timebase_UpCounter_Reset_All:
 3133               	.LFB54:
 3134               	.LM336:
 3135               	/* prologue: function */
 3136               	/* frame size = 0 */
 3137               	.LBB726:
 3138               	.LM337:
 3139 0dea 80E0      		ldi r24,lo8(0)
 3140 0dec 0E94 0000 		call Timebase_UpCounter_Reset
 3141               	/* epilogue start */
 3142               	.LBE726:
 3143               	.LM338:
 3144 0df0 0895      		ret
 3145               	.LFE54:
 3147               	.global	Timebase_DownCounter_Get_Status
 3149               	Timebase_DownCounter_Get_Status:
 3150               	.LFB55:
 3151               	.LM339:
 3152               	.LVL189:
 3153               	/* prologue: function */
 3154               	/* frame size = 0 */
 3155               	.LM340:
 3156 0df2 E091 0000 		lds r30,Timebase
 3157 0df6 F091 0000 		lds r31,(Timebase)+1
 3158 0dfa 90E0      		ldi r25,lo8(0)
 3159               	.LVL190:
 3160 0dfc 2DE0      		ldi r18,lo8(13)
 3161 0dfe 30E0      		ldi r19,hi8(13)
 3162 0e00 AC01      		movw r20,r24
 3163 0e02 429F      		mul r20,r18
 3164 0e04 C001      		movw r24,r0
 3165 0e06 439F      		mul r20,r19
 3166 0e08 900D      		add r25,r0
 3167 0e0a 529F      		mul r21,r18
 3168 0e0c 900D      		add r25,r0
 3169 0e0e 1124      		clr r1
 3170               	.LVL191:
 3171 0e10 E80F      		add r30,r24
 3172 0e12 F91F      		adc r31,r25
 3173 0e14 E85A      		subi r30,lo8(-(88))
 3174 0e16 FF4F      		sbci r31,hi8(-(88))
 3175 0e18 8081      		ld r24,Z
 3176 0e1a 8695      		lsr r24
 3177               	.LM341:
 3178 0e1c 8F70      		andi r24,lo8(15)
 3179               	/* epilogue start */
 3180 0e1e 0895      		ret
 3181               	.LFE55:
 3183               	.global	Timebase_DownCounter_Set_Status
 3185               	Timebase_DownCounter_Set_Status:
 3186               	.LFB56:
 3187               	.LM342:
 3188               	.LVL192:
 3189               	/* prologue: function */
 3190               	/* frame size = 0 */
 3191               	.LM343:
 3192 0e20 E091 0000 		lds r30,Timebase
 3193 0e24 F091 0000 		lds r31,(Timebase)+1
 3194 0e28 90E0      		ldi r25,lo8(0)
 3195               	.LVL193:
 3196 0e2a 2DE0      		ldi r18,lo8(13)
 3197 0e2c 30E0      		ldi r19,hi8(13)
 3198 0e2e AC01      		movw r20,r24
 3199 0e30 429F      		mul r20,r18
 3200 0e32 C001      		movw r24,r0
 3201 0e34 439F      		mul r20,r19
 3202 0e36 900D      		add r25,r0
 3203 0e38 529F      		mul r21,r18
 3204 0e3a 900D      		add r25,r0
 3205 0e3c 1124      		clr r1
 3206               	.LVL194:
 3207 0e3e E80F      		add r30,r24
 3208 0e40 F91F      		adc r31,r25
 3209 0e42 E85A      		subi r30,lo8(-(88))
 3210 0e44 FF4F      		sbci r31,hi8(-(88))
 3211 0e46 6F70      		andi r22,lo8(15)
 3212               	.LVL195:
 3213 0e48 660F      		lsl r22
 3214 0e4a 8081      		ld r24,Z
 3215 0e4c 817E      		andi r24,lo8(-31)
 3216 0e4e 862B      		or r24,r22
 3217 0e50 8083      		st Z,r24
 3218               	/* epilogue start */
 3219               	.LM344:
 3220 0e52 0895      		ret
 3221               	.LFE56:
 3223               	.global	Timebase_DownCounter_Get_Value
 3225               	Timebase_DownCounter_Get_Value:
 3226               	.LFB57:
 3227               	.LM345:
 3228               	.LVL196:
 3229               	/* prologue: function */
 3230               	/* frame size = 0 */
 3231               	.LM346:
 3232 0e54 E091 0000 		lds r30,Timebase
 3233 0e58 F091 0000 		lds r31,(Timebase)+1
 3234 0e5c 90E0      		ldi r25,lo8(0)
 3235               	.LVL197:
 3236 0e5e 2DE0      		ldi r18,lo8(13)
 3237 0e60 30E0      		ldi r19,hi8(13)
 3238 0e62 AC01      		movw r20,r24
 3239 0e64 429F      		mul r20,r18
 3240 0e66 C001      		movw r24,r0
 3241 0e68 439F      		mul r20,r19
 3242 0e6a 900D      		add r25,r0
 3243 0e6c 529F      		mul r21,r18
 3244 0e6e 900D      		add r25,r0
 3245 0e70 1124      		clr r1
 3246               	.LVL198:
 3247 0e72 E80F      		add r30,r24
 3248 0e74 F91F      		adc r31,r25
 3249 0e76 E35A      		subi r30,lo8(-(93))
 3250 0e78 FF4F      		sbci r31,hi8(-(93))
 3251 0e7a 6081      		ld r22,Z
 3252 0e7c 7181      		ldd r23,Z+1
 3253               	.LM347:
 3254 0e7e 8281      		ldd r24,Z+2
 3255 0e80 9381      		ldd r25,Z+3
 3256               	.LVL199:
 3257               	/* epilogue start */
 3258 0e82 0895      		ret
 3259               	.LFE57:
 3261               	.global	Timebase_DownCounter_Set_Value
 3263               	Timebase_DownCounter_Set_Value:
 3264               	.LFB58:
 3265               	.LM348:
 3266               	.LVL200:
 3267               	/* prologue: function */
 3268               	/* frame size = 0 */
 3269               	.LM349:
 3270 0e84 E091 0000 		lds r30,Timebase
 3271 0e88 F091 0000 		lds r31,(Timebase)+1
 3272 0e8c 90E0      		ldi r25,lo8(0)
 3273               	.LVL201:
 3274 0e8e 2DE0      		ldi r18,lo8(13)
 3275 0e90 30E0      		ldi r19,hi8(13)
 3276 0e92 DC01      		movw r26,r24
 3277 0e94 A29F      		mul r26,r18
 3278 0e96 C001      		movw r24,r0
 3279 0e98 A39F      		mul r26,r19
 3280 0e9a 900D      		add r25,r0
 3281 0e9c B29F      		mul r27,r18
 3282 0e9e 900D      		add r25,r0
 3283 0ea0 1124      		clr r1
 3284               	.LVL202:
 3285 0ea2 E80F      		add r30,r24
 3286 0ea4 F91F      		adc r31,r25
 3287 0ea6 E35A      		subi r30,lo8(-(93))
 3288 0ea8 FF4F      		sbci r31,hi8(-(93))
 3289 0eaa 4083      		st Z,r20
 3290 0eac 5183      		std Z+1,r21
 3291 0eae 6283      		std Z+2,r22
 3292 0eb0 7383      		std Z+3,r23
 3293               	/* epilogue start */
 3294               	.LM350:
 3295 0eb2 0895      		ret
 3296               	.LFE58:
 3298               	.global	Timebase_DownCounter_Get_EndValue
 3300               	Timebase_DownCounter_Get_EndValue:
 3301               	.LFB59:
 3302               	.LM351:
 3303               	.LVL203:
 3304               	/* prologue: function */
 3305               	/* frame size = 0 */
 3306               	.LM352:
 3307 0eb4 E091 0000 		lds r30,Timebase
 3308 0eb8 F091 0000 		lds r31,(Timebase)+1
 3309 0ebc 90E0      		ldi r25,lo8(0)
 3310               	.LVL204:
 3311 0ebe 2DE0      		ldi r18,lo8(13)
 3312 0ec0 30E0      		ldi r19,hi8(13)
 3313 0ec2 AC01      		movw r20,r24
 3314 0ec4 429F      		mul r20,r18
 3315 0ec6 C001      		movw r24,r0
 3316 0ec8 439F      		mul r20,r19
 3317 0eca 900D      		add r25,r0
 3318 0ecc 529F      		mul r21,r18
 3319 0ece 900D      		add r25,r0
 3320 0ed0 1124      		clr r1
 3321               	.LVL205:
 3322 0ed2 E80F      		add r30,r24
 3323 0ed4 F91F      		adc r31,r25
 3324 0ed6 E75A      		subi r30,lo8(-(89))
 3325 0ed8 FF4F      		sbci r31,hi8(-(89))
 3326 0eda 6081      		ld r22,Z
 3327 0edc 7181      		ldd r23,Z+1
 3328               	.LM353:
 3329 0ede 8281      		ldd r24,Z+2
 3330 0ee0 9381      		ldd r25,Z+3
 3331               	.LVL206:
 3332               	/* epilogue start */
 3333 0ee2 0895      		ret
 3334               	.LFE59:
 3336               	.global	Timebase_DownCounter_Set_EndValue
 3338               	Timebase_DownCounter_Set_EndValue:
 3339               	.LFB60:
 3340               	.LM354:
 3341               	.LVL207:
 3342               	/* prologue: function */
 3343               	/* frame size = 0 */
 3344               	.LM355:
 3345 0ee4 E091 0000 		lds r30,Timebase
 3346 0ee8 F091 0000 		lds r31,(Timebase)+1
 3347 0eec 90E0      		ldi r25,lo8(0)
 3348               	.LVL208:
 3349 0eee 2DE0      		ldi r18,lo8(13)
 3350 0ef0 30E0      		ldi r19,hi8(13)
 3351 0ef2 DC01      		movw r26,r24
 3352 0ef4 A29F      		mul r26,r18
 3353 0ef6 C001      		movw r24,r0
 3354 0ef8 A39F      		mul r26,r19
 3355 0efa 900D      		add r25,r0
 3356 0efc B29F      		mul r27,r18
 3357 0efe 900D      		add r25,r0
 3358 0f00 1124      		clr r1
 3359               	.LVL209:
 3360 0f02 E80F      		add r30,r24
 3361 0f04 F91F      		adc r31,r25
 3362 0f06 E75A      		subi r30,lo8(-(89))
 3363 0f08 FF4F      		sbci r31,hi8(-(89))
 3364 0f0a 4083      		st Z,r20
 3365 0f0c 5183      		std Z+1,r21
 3366 0f0e 6283      		std Z+2,r22
 3367 0f10 7383      		std Z+3,r23
 3368               	/* epilogue start */
 3369               	.LM356:
 3370 0f12 0895      		ret
 3371               	.LFE60:
 3373               	.global	Timebase_DownCounter_Get_PeriodValue
 3375               	Timebase_DownCounter_Get_PeriodValue:
 3376               	.LFB61:
 3377               	.LM357:
 3378               	.LVL210:
 3379               	/* prologue: function */
 3380               	/* frame size = 0 */
 3381               	.LM358:
 3382 0f14 E091 0000 		lds r30,Timebase
 3383 0f18 F091 0000 		lds r31,(Timebase)+1
 3384 0f1c 90E0      		ldi r25,lo8(0)
 3385               	.LVL211:
 3386 0f1e 2DE0      		ldi r18,lo8(13)
 3387 0f20 30E0      		ldi r19,hi8(13)
 3388 0f22 AC01      		movw r20,r24
 3389 0f24 429F      		mul r20,r18
 3390 0f26 C001      		movw r24,r0
 3391 0f28 439F      		mul r20,r19
 3392 0f2a 900D      		add r25,r0
 3393 0f2c 529F      		mul r21,r18
 3394 0f2e 900D      		add r25,r0
 3395 0f30 1124      		clr r1
 3396               	.LVL212:
 3397 0f32 E80F      		add r30,r24
 3398 0f34 F91F      		adc r31,r25
 3399 0f36 EF59      		subi r30,lo8(-(97))
 3400 0f38 FF4F      		sbci r31,hi8(-(97))
 3401 0f3a 6081      		ld r22,Z
 3402 0f3c 7181      		ldd r23,Z+1
 3403               	.LM359:
 3404 0f3e 8281      		ldd r24,Z+2
 3405 0f40 9381      		ldd r25,Z+3
 3406               	.LVL213:
 3407               	/* epilogue start */
 3408 0f42 0895      		ret
 3409               	.LFE61:
 3411               	.global	Timebase_DownCounter_Set_PeriodValue
 3413               	Timebase_DownCounter_Set_PeriodValue:
 3414               	.LFB62:
 3415               	.LM360:
 3416               	.LVL214:
 3417               	/* prologue: function */
 3418               	/* frame size = 0 */
 3419 0f44 E091 0000 		lds r30,Timebase
 3420 0f48 F091 0000 		lds r31,(Timebase)+1
 3421 0f4c 282F      		mov r18,r24
 3422 0f4e 30E0      		ldi r19,lo8(0)
 3423               	.LVL215:
 3424               	.LM361:
 3425 0f50 77FF      		sbrs r23,7
 3426 0f52 00C0      		rjmp .L162
 3427               	.LVL216:
 3428               	.LM362:
 3429 0f54 8DE0      		ldi r24,lo8(13)
 3430 0f56 90E0      		ldi r25,hi8(13)
 3431 0f58 AC01      		movw r20,r24
 3432               	.LVL217:
 3433 0f5a 249F      		mul r18,r20
 3434 0f5c C001      		movw r24,r0
 3435 0f5e 259F      		mul r18,r21
 3436 0f60 900D      		add r25,r0
 3437 0f62 349F      		mul r19,r20
 3438 0f64 900D      		add r25,r0
 3439 0f66 1124      		clr r1
 3440 0f68 E80F      		add r30,r24
 3441 0f6a F91F      		adc r31,r25
 3442 0f6c EF59      		subi r30,lo8(-(97))
 3443 0f6e FF4F      		sbci r31,hi8(-(97))
 3444 0f70 1082      		st Z,__zero_reg__
 3445 0f72 1182      		std Z+1,__zero_reg__
 3446 0f74 1282      		std Z+2,__zero_reg__
 3447 0f76 1382      		std Z+3,__zero_reg__
 3448 0f78 0895      		ret
 3449               	.LVL218:
 3450               	.L162:
 3451               	.LM363:
 3452 0f7a 8DE0      		ldi r24,lo8(13)
 3453 0f7c 90E0      		ldi r25,hi8(13)
 3454 0f7e DC01      		movw r26,r24
 3455 0f80 2A9F      		mul r18,r26
 3456 0f82 C001      		movw r24,r0
 3457 0f84 2B9F      		mul r18,r27
 3458 0f86 900D      		add r25,r0
 3459 0f88 3A9F      		mul r19,r26
 3460 0f8a 900D      		add r25,r0
 3461 0f8c 1124      		clr r1
 3462 0f8e E80F      		add r30,r24
 3463 0f90 F91F      		adc r31,r25
 3464 0f92 EF59      		subi r30,lo8(-(97))
 3465 0f94 FF4F      		sbci r31,hi8(-(97))
 3466 0f96 4083      		st Z,r20
 3467 0f98 5183      		std Z+1,r21
 3468 0f9a 6283      		std Z+2,r22
 3469 0f9c 7383      		std Z+3,r23
 3470 0f9e 0895      		ret
 3471               	.LFE62:
 3473               	.global	Timebase_DownCounter_Get_Period_Flag
 3475               	Timebase_DownCounter_Get_Period_Flag:
 3476               	.LFB63:
 3477               	.LM364:
 3478               	.LVL219:
 3479               	/* prologue: function */
 3480               	/* frame size = 0 */
 3481               	.LM365:
 3482 0fa0 E091 0000 		lds r30,Timebase
 3483 0fa4 F091 0000 		lds r31,(Timebase)+1
 3484 0fa8 90E0      		ldi r25,lo8(0)
 3485               	.LVL220:
 3486 0faa 2DE0      		ldi r18,lo8(13)
 3487 0fac 30E0      		ldi r19,hi8(13)
 3488 0fae AC01      		movw r20,r24
 3489 0fb0 429F      		mul r20,r18
 3490 0fb2 C001      		movw r24,r0
 3491 0fb4 439F      		mul r20,r19
 3492 0fb6 900D      		add r25,r0
 3493 0fb8 529F      		mul r21,r18
 3494 0fba 900D      		add r25,r0
 3495 0fbc 1124      		clr r1
 3496               	.LVL221:
 3497 0fbe E80F      		add r30,r24
 3498 0fc0 F91F      		adc r31,r25
 3499 0fc2 E85A      		subi r30,lo8(-(88))
 3500 0fc4 FF4F      		sbci r31,hi8(-(88))
 3501 0fc6 8081      		ld r24,Z
 3502               	.LM366:
 3503 0fc8 8170      		andi r24,lo8(1)
 3504               	/* epilogue start */
 3505 0fca 0895      		ret
 3506               	.LFE63:
 3508               	.global	Timebase_DownCounter_Set_Period_Flag
 3510               	Timebase_DownCounter_Set_Period_Flag:
 3511               	.LFB64:
 3512               	.LM367:
 3513               	.LVL222:
 3514               	/* prologue: function */
 3515               	/* frame size = 0 */
 3516               	.LM368:
 3517 0fcc E091 0000 		lds r30,Timebase
 3518 0fd0 F091 0000 		lds r31,(Timebase)+1
 3519 0fd4 90E0      		ldi r25,lo8(0)
 3520               	.LVL223:
 3521 0fd6 2DE0      		ldi r18,lo8(13)
 3522 0fd8 30E0      		ldi r19,hi8(13)
 3523 0fda AC01      		movw r20,r24
 3524 0fdc 429F      		mul r20,r18
 3525 0fde C001      		movw r24,r0
 3526 0fe0 439F      		mul r20,r19
 3527 0fe2 900D      		add r25,r0
 3528 0fe4 529F      		mul r21,r18
 3529 0fe6 900D      		add r25,r0
 3530 0fe8 1124      		clr r1
 3531               	.LVL224:
 3532 0fea E80F      		add r30,r24
 3533 0fec F91F      		adc r31,r25
 3534 0fee E85A      		subi r30,lo8(-(88))
 3535 0ff0 FF4F      		sbci r31,hi8(-(88))
 3536 0ff2 8081      		ld r24,Z
 3537 0ff4 8160      		ori r24,lo8(1)
 3538 0ff6 8083      		st Z,r24
 3539               	/* epilogue start */
 3540               	.LM369:
 3541 0ff8 0895      		ret
 3542               	.LFE64:
 3544               	.global	Timebase_DownCounter_Clear_Period_Flag
 3546               	Timebase_DownCounter_Clear_Period_Flag:
 3547               	.LFB65:
 3548               	.LM370:
 3549               	.LVL225:
 3550               	/* prologue: function */
 3551               	/* frame size = 0 */
 3552               	.LM371:
 3553 0ffa E091 0000 		lds r30,Timebase
 3554 0ffe F091 0000 		lds r31,(Timebase)+1
 3555 1002 90E0      		ldi r25,lo8(0)
 3556               	.LVL226:
 3557 1004 2DE0      		ldi r18,lo8(13)
 3558 1006 30E0      		ldi r19,hi8(13)
 3559 1008 AC01      		movw r20,r24
 3560 100a 429F      		mul r20,r18
 3561 100c C001      		movw r24,r0
 3562 100e 439F      		mul r20,r19
 3563 1010 900D      		add r25,r0
 3564 1012 529F      		mul r21,r18
 3565 1014 900D      		add r25,r0
 3566 1016 1124      		clr r1
 3567               	.LVL227:
 3568 1018 E80F      		add r30,r24
 3569 101a F91F      		adc r31,r25
 3570 101c E85A      		subi r30,lo8(-(88))
 3571 101e FF4F      		sbci r31,hi8(-(88))
 3572 1020 8081      		ld r24,Z
 3573 1022 8E7F      		andi r24,lo8(-2)
 3574 1024 8083      		st Z,r24
 3575               	/* epilogue start */
 3576               	.LM372:
 3577 1026 0895      		ret
 3578               	.LFE65:
 3580               	.global	Timebase_DownCounter_Reset
 3582               	Timebase_DownCounter_Reset:
 3583               	.LFB66:
 3584               	.LM373:
 3585               	.LVL228:
 3586               	/* prologue: function */
 3587               	/* frame size = 0 */
 3588               	.LBB727:
 3589               	.LBB728:
 3590               	.LM374:
 3591 1028 E091 0000 		lds r30,Timebase
 3592 102c F091 0000 		lds r31,(Timebase)+1
 3593 1030 90E0      		ldi r25,lo8(0)
 3594 1032 2DE0      		ldi r18,lo8(13)
 3595 1034 30E0      		ldi r19,hi8(13)
 3596 1036 AC01      		movw r20,r24
 3597               	.LVL229:
 3598 1038 429F      		mul r20,r18
 3599 103a C001      		movw r24,r0
 3600 103c 439F      		mul r20,r19
 3601 103e 900D      		add r25,r0
 3602 1040 529F      		mul r21,r18
 3603 1042 900D      		add r25,r0
 3604 1044 1124      		clr r1
 3605 1046 E80F      		add r30,r24
 3606 1048 F91F      		adc r31,r25
 3607 104a E75A      		subi r30,lo8(-(89))
 3608 104c FF4F      		sbci r31,hi8(-(89))
 3609 104e 1192      		st Z+,__zero_reg__
 3610 1050 1192      		st Z+,__zero_reg__
 3611 1052 1192      		st Z+,__zero_reg__
 3612 1054 1192      		st Z+,__zero_reg__
 3613               	.LBE728:
 3614               	.LBE727:
 3615               	.LBB729:
 3616               	.LBB730:
 3617               	.LM375:
 3618 1056 1082      		st Z,__zero_reg__
 3619 1058 1182      		std Z+1,__zero_reg__
 3620 105a 1282      		std Z+2,__zero_reg__
 3621 105c 1382      		std Z+3,__zero_reg__
 3622               	.LBE730:
 3623               	.LBE729:
 3624               	.LBB731:
 3625               	.LBB732:
 3626               	.LM376:
 3627 105e 3597      		sbiw r30,5
 3628 1060 8081      		ld r24,Z
 3629               	.LBE732:
 3630               	.LBE731:
 3631               	.LBB733:
 3632               	.LBB734:
 3633               	.LM377:
 3634 1062 807E      		andi r24,lo8(-32)
 3635 1064 8083      		st Z,r24
 3636               	/* epilogue start */
 3637               	.LBE734:
 3638               	.LBE733:
 3639               	.LM378:
 3640 1066 0895      		ret
 3641               	.LFE66:
 3643               	.global	Timebase_DownCounter_Clear_All_Flags
 3645               	Timebase_DownCounter_Clear_All_Flags:
 3646               	.LFB67:
 3647               	.LM379:
 3648               	.LVL230:
 3649               	/* prologue: function */
 3650               	/* frame size = 0 */
 3651               	.LBB735:
 3652               	.LBB736:
 3653               	.LBB737:
 3654               	.LBB738:
 3655               	.LM380:
 3656 1068 E091 0000 		lds r30,Timebase
 3657 106c F091 0000 		lds r31,(Timebase)+1
 3658 1070 90E0      		ldi r25,lo8(0)
 3659 1072 2DE0      		ldi r18,lo8(13)
 3660 1074 30E0      		ldi r19,hi8(13)
 3661 1076 AC01      		movw r20,r24
 3662               	.LVL231:
 3663 1078 429F      		mul r20,r18
 3664 107a C001      		movw r24,r0
 3665 107c 439F      		mul r20,r19
 3666 107e 900D      		add r25,r0
 3667 1080 529F      		mul r21,r18
 3668 1082 900D      		add r25,r0
 3669 1084 1124      		clr r1
 3670 1086 E80F      		add r30,r24
 3671 1088 F91F      		adc r31,r25
 3672 108a E75A      		subi r30,lo8(-(89))
 3673 108c FF4F      		sbci r31,hi8(-(89))
 3674 108e 1192      		st Z+,__zero_reg__
 3675 1090 1192      		st Z+,__zero_reg__
 3676 1092 1192      		st Z+,__zero_reg__
 3677 1094 1192      		st Z+,__zero_reg__
 3678               	.LBE738:
 3679               	.LBE737:
 3680               	.LBB739:
 3681               	.LBB740:
 3682               	.LM381:
 3683 1096 1082      		st Z,__zero_reg__
 3684 1098 1182      		std Z+1,__zero_reg__
 3685 109a 1282      		std Z+2,__zero_reg__
 3686 109c 1382      		std Z+3,__zero_reg__
 3687               	.LBE740:
 3688               	.LBE739:
 3689               	.LBB741:
 3690               	.LBB742:
 3691               	.LM382:
 3692 109e 3597      		sbiw r30,5
 3693 10a0 8081      		ld r24,Z
 3694               	.LBE742:
 3695               	.LBE741:
 3696               	.LBB743:
 3697               	.LBB744:
 3698               	.LM383:
 3699 10a2 807E      		andi r24,lo8(-32)
 3700 10a4 8083      		st Z,r24
 3701               	/* epilogue start */
 3702               	.LBE744:
 3703               	.LBE743:
 3704               	.LBE736:
 3705               	.LBE735:
 3706               	.LM384:
 3707 10a6 0895      		ret
 3708               	.LFE67:
 3710               	.global	Timebase_DownCounter_Start
 3712               	Timebase_DownCounter_Start:
 3713               	.LFB68:
 3714               	.LM385:
 3715               	.LVL232:
 3716               	/* prologue: function */
 3717               	/* frame size = 0 */
 3718               	.LBB745:
 3719               	.LBB746:
 3720               	.LM386:
 3721 10a8 E091 0000 		lds r30,Timebase
 3722 10ac F091 0000 		lds r31,(Timebase)+1
 3723 10b0 90E0      		ldi r25,lo8(0)
 3724               	.LBE746:
 3725               	.LBE745:
 3726               	.LM387:
 3727 10b2 2DE0      		ldi r18,lo8(13)
 3728 10b4 30E0      		ldi r19,hi8(13)
 3729 10b6 AC01      		movw r20,r24
 3730               	.LVL233:
 3731 10b8 429F      		mul r20,r18
 3732 10ba C001      		movw r24,r0
 3733 10bc 439F      		mul r20,r19
 3734 10be 900D      		add r25,r0
 3735 10c0 529F      		mul r21,r18
 3736 10c2 900D      		add r25,r0
 3737 10c4 1124      		clr r1
 3738 10c6 E80F      		add r30,r24
 3739 10c8 F91F      		adc r31,r25
 3740 10ca E85A      		subi r30,lo8(-(88))
 3741 10cc FF4F      		sbci r31,hi8(-(88))
 3742 10ce 9081      		ld r25,Z
 3743 10d0 892F      		mov r24,r25
 3744 10d2 8695      		lsr r24
 3745 10d4 8F70      		andi r24,lo8(15)
 3746 10d6 8130      		cpi r24,lo8(1)
 3747 10d8 01F0      		breq .L177
 3748               	.LBB747:
 3749               	.LBB748:
 3750               	.LM388:
 3751 10da 917E      		andi r25,lo8(-31)
 3752 10dc 9260      		ori r25,lo8(2)
 3753 10de 9083      		st Z,r25
 3754               	.L177:
 3755 10e0 0895      		ret
 3756               	.LBE748:
 3757               	.LBE747:
 3758               	.LFE68:
 3760               	.global	Timebase_DownCounter_Stop
 3762               	Timebase_DownCounter_Stop:
 3763               	.LFB69:
 3764               	.LM389:
 3765               	.LVL234:
 3766               	/* prologue: function */
 3767               	/* frame size = 0 */
 3768               	.LBB749:
 3769               	.LBB750:
 3770               	.LM390:
 3771 10e2 E091 0000 		lds r30,Timebase
 3772 10e6 F091 0000 		lds r31,(Timebase)+1
 3773 10ea 90E0      		ldi r25,lo8(0)
 3774               	.LBE750:
 3775               	.LBE749:
 3776               	.LM391:
 3777 10ec 2DE0      		ldi r18,lo8(13)
 3778 10ee 30E0      		ldi r19,hi8(13)
 3779 10f0 AC01      		movw r20,r24
 3780               	.LVL235:
 3781 10f2 429F      		mul r20,r18
 3782 10f4 C001      		movw r24,r0
 3783 10f6 439F      		mul r20,r19
 3784 10f8 900D      		add r25,r0
 3785 10fa 529F      		mul r21,r18
 3786 10fc 900D      		add r25,r0
 3787 10fe 1124      		clr r1
 3788 1100 E80F      		add r30,r24
 3789 1102 F91F      		adc r31,r25
 3790 1104 E85A      		subi r30,lo8(-(88))
 3791 1106 FF4F      		sbci r31,hi8(-(88))
 3792 1108 9081      		ld r25,Z
 3793 110a 892F      		mov r24,r25
 3794 110c 8695      		lsr r24
 3795 110e 8F70      		andi r24,lo8(15)
 3796 1110 8230      		cpi r24,lo8(2)
 3797 1112 01F0      		breq .L180
 3798               	.LBB751:
 3799               	.LBB752:
 3800               	.LM392:
 3801 1114 917E      		andi r25,lo8(-31)
 3802 1116 9460      		ori r25,lo8(4)
 3803 1118 9083      		st Z,r25
 3804               	.L180:
 3805 111a 0895      		ret
 3806               	.LBE752:
 3807               	.LBE751:
 3808               	.LFE69:
 3810               	.global	Timebase_DownCounter_Set_Securely
 3812               	Timebase_DownCounter_Set_Securely:
 3813               	.LFB70:
 3814               	.LM393:
 3815               	.LVL236:
 3816 111c 0F93      		push r16
 3817 111e 1F93      		push r17
 3818 1120 CF93      		push r28
 3819 1122 DF93      		push r29
 3820               	/* prologue: function */
 3821               	/* frame size = 0 */
 3822               	.LBB753:
 3823               	.LBB754:
 3824               	.LM394:
 3825 1124 C091 0000 		lds r28,Timebase
 3826 1128 D091 0000 		lds r29,(Timebase)+1
 3827 112c 082F      		mov r16,r24
 3828 112e 10E0      		ldi r17,lo8(0)
 3829               	.LBE754:
 3830               	.LBE753:
 3831               	.LM395:
 3832 1130 8DE0      		ldi r24,lo8(13)
 3833 1132 90E0      		ldi r25,hi8(13)
 3834               	.LVL237:
 3835 1134 089F      		mul r16,r24
 3836 1136 F001      		movw r30,r0
 3837 1138 099F      		mul r16,r25
 3838 113a F00D      		add r31,r0
 3839 113c 189F      		mul r17,r24
 3840 113e F00D      		add r31,r0
 3841 1140 1124      		clr r1
 3842 1142 EC0F      		add r30,r28
 3843 1144 FD1F      		adc r31,r29
 3844 1146 E85A      		subi r30,lo8(-(88))
 3845 1148 FF4F      		sbci r31,hi8(-(88))
 3846 114a 8081      		ld r24,Z
 3847 114c E855      		subi r30,lo8(-(-88))
 3848 114e F040      		sbci r31,hi8(-(-88))
 3849 1150 8695      		lsr r24
 3850 1152 8F70      		andi r24,lo8(15)
 3851 1154 01F4      		brne .L183
 3852               	.LBB755:
 3853               	.LBB756:
 3854               	.LM396:
 3855 1156 E35A      		subi r30,lo8(-(93))
 3856 1158 FF4F      		sbci r31,hi8(-(93))
 3857 115a 4083      		st Z,r20
 3858 115c 5183      		std Z+1,r21
 3859 115e 6283      		std Z+2,r22
 3860 1160 7383      		std Z+3,r23
 3861               	.LBE756:
 3862               	.LBE755:
 3863               	.LBB757:
 3864               	.LBB758:
 3865               	.LBB759:
 3866               	.LBB760:
 3867               	.LM397:
 3868               	/* #APP */
 3869               	 ;  341 "timebase.c" 1
 3870 1162 F894      		cli
 3871               	 ;  0 "" 2
 3872               	/* #NOAPP */
 3873               	.LBE760:
 3874               	.LBE759:
 3875               	.LM398:
 3876 1164 8A85      		ldd r24,Y+10
 3877 1166 9B85      		ldd r25,Y+11
 3878 1168 AC85      		ldd r26,Y+12
 3879 116a BD85      		ldd r27,Y+13
 3880               	.LVL238:
 3881               	.LBB761:
 3882               	.LBB762:
 3883               	.LM399:
 3884               	/* #APP */
 3885               	 ;  345 "timebase.c" 1
 3886 116c 7894      		sei
 3887               	 ;  0 "" 2
 3888               	/* #NOAPP */
 3889               	.LBE762:
 3890               	.LBE761:
 3891               	.LBE758:
 3892               	.LBE757:
 3893               	.LBB763:
 3894               	.LBB764:
 3895               	.LM400:
 3896 116e 2DE0      		ldi r18,lo8(13)
 3897 1170 30E0      		ldi r19,hi8(13)
 3898 1172 029F      		mul r16,r18
 3899 1174 F001      		movw r30,r0
 3900 1176 039F      		mul r16,r19
 3901 1178 F00D      		add r31,r0
 3902 117a 129F      		mul r17,r18
 3903 117c F00D      		add r31,r0
 3904 117e 1124      		clr r1
 3905 1180 EC0F      		add r30,r28
 3906 1182 FD1F      		adc r31,r29
 3907 1184 E75A      		subi r30,lo8(-(89))
 3908 1186 FF4F      		sbci r31,hi8(-(89))
 3909 1188 840F      		add r24,r20
 3910 118a 951F      		adc r25,r21
 3911 118c A61F      		adc r26,r22
 3912 118e B71F      		adc r27,r23
 3913 1190 8083      		st Z,r24
 3914 1192 9183      		std Z+1,r25
 3915 1194 A283      		std Z+2,r26
 3916 1196 B383      		std Z+3,r27
 3917               	.LBE764:
 3918               	.LBE763:
 3919               	.LBB765:
 3920               	.LBB766:
 3921               	.LM401:
 3922 1198 9291      		ld r25,-Z
 3923 119a 892F      		mov r24,r25
 3924               	.LVL239:
 3925 119c 8695      		lsr r24
 3926 119e 8F70      		andi r24,lo8(15)
 3927 11a0 8130      		cpi r24,lo8(1)
 3928 11a2 01F0      		breq .L183
 3929               	.LBB767:
 3930               	.LBB768:
 3931               	.LM402:
 3932 11a4 917E      		andi r25,lo8(-31)
 3933 11a6 9260      		ori r25,lo8(2)
 3934 11a8 9083      		st Z,r25
 3935               	.L183:
 3936               	/* epilogue start */
 3937               	.LBE768:
 3938               	.LBE767:
 3939               	.LBE766:
 3940               	.LBE765:
 3941               	.LM403:
 3942 11aa DF91      		pop r29
 3943 11ac CF91      		pop r28
 3944 11ae 1F91      		pop r17
 3945 11b0 0F91      		pop r16
 3946 11b2 0895      		ret
 3947               	.LFE70:
 3949               	.global	Timebase_DownCounter_Set_Forcefully
 3951               	Timebase_DownCounter_Set_Forcefully:
 3952               	.LFB71:
 3953               	.LM404:
 3954               	.LVL240:
 3955 11b4 CF93      		push r28
 3956 11b6 DF93      		push r29
 3957               	/* prologue: function */
 3958               	/* frame size = 0 */
 3959               	.LBB769:
 3960               	.LBB770:
 3961               	.LBB771:
 3962               	.LBB772:
 3963               	.LM405:
 3964 11b8 E091 0000 		lds r30,Timebase
 3965 11bc F091 0000 		lds r31,(Timebase)+1
 3966 11c0 A82F      		mov r26,r24
 3967 11c2 B0E0      		ldi r27,lo8(0)
 3968 11c4 2DE0      		ldi r18,lo8(13)
 3969 11c6 30E0      		ldi r19,hi8(13)
 3970 11c8 E901      		movw r28,r18
 3971 11ca AC9F      		mul r26,r28
 3972 11cc 9001      		movw r18,r0
 3973 11ce AD9F      		mul r26,r29
 3974 11d0 300D      		add r19,r0
 3975 11d2 BC9F      		mul r27,r28
 3976 11d4 300D      		add r19,r0
 3977 11d6 1124      		clr r1
 3978 11d8 E20F      		add r30,r18
 3979 11da F31F      		adc r31,r19
 3980 11dc E75A      		subi r30,lo8(-(89))
 3981 11de FF4F      		sbci r31,hi8(-(89))
 3982 11e0 1192      		st Z+,__zero_reg__
 3983 11e2 1192      		st Z+,__zero_reg__
 3984 11e4 1192      		st Z+,__zero_reg__
 3985 11e6 1192      		st Z+,__zero_reg__
 3986               	.LBE772:
 3987               	.LBE771:
 3988               	.LBB773:
 3989               	.LBB774:
 3990               	.LM406:
 3991 11e8 1082      		st Z,__zero_reg__
 3992 11ea 1182      		std Z+1,__zero_reg__
 3993 11ec 1282      		std Z+2,__zero_reg__
 3994 11ee 1382      		std Z+3,__zero_reg__
 3995               	.LBE774:
 3996               	.LBE773:
 3997               	.LBB775:
 3998               	.LBB776:
 3999               	.LM407:
 4000 11f0 3597      		sbiw r30,5
 4001 11f2 9081      		ld r25,Z
 4002               	.LBE776:
 4003               	.LBE775:
 4004               	.LBB777:
 4005               	.LBB778:
 4006               	.LM408:
 4007 11f4 907E      		andi r25,lo8(-32)
 4008 11f6 9083      		st Z,r25
 4009               	.LBE778:
 4010               	.LBE777:
 4011               	.LBE770:
 4012               	.LBE769:
 4013               	.LM409:
 4014 11f8 0E94 0000 		call Timebase_DownCounter_Set_Securely
 4015               	.LVL241:
 4016               	/* epilogue start */
 4017               	.LM410:
 4018 11fc DF91      		pop r29
 4019 11fe CF91      		pop r28
 4020 1200 0895      		ret
 4021               	.LFE71:
 4023               	.global	Timebase_DownCounter_Update
 4025               	Timebase_DownCounter_Update:
 4026               	.LFB72:
 4027               	.LM411:
 4028               	.LVL242:
 4029 1202 CF93      		push r28
 4030 1204 DF93      		push r29
 4031               	/* prologue: function */
 4032               	/* frame size = 0 */
 4033               	.LBB779:
 4034               	.LBB780:
 4035               	.LM412:
 4036 1206 C091 0000 		lds r28,Timebase
 4037 120a D091 0000 		lds r29,(Timebase)+1
 4038 120e 682F      		mov r22,r24
 4039 1210 70E0      		ldi r23,lo8(0)
 4040 1212 8DE0      		ldi r24,lo8(13)
 4041 1214 90E0      		ldi r25,hi8(13)
 4042               	.LVL243:
 4043 1216 689F      		mul r22,r24
 4044 1218 F001      		movw r30,r0
 4045 121a 699F      		mul r22,r25
 4046 121c F00D      		add r31,r0
 4047 121e 789F      		mul r23,r24
 4048 1220 F00D      		add r31,r0
 4049 1222 1124      		clr r1
 4050 1224 EC0F      		add r30,r28
 4051 1226 FD1F      		adc r31,r29
 4052 1228 E85A      		subi r30,lo8(-(88))
 4053 122a FF4F      		sbci r31,hi8(-(88))
 4054 122c E081      		ld r30,Z
 4055 122e E695      		lsr r30
 4056 1230 EF70      		andi r30,lo8(15)
 4057               	.LBE780:
 4058               	.LBE779:
 4059               	.LM413:
 4060 1232 E130      		cpi r30,lo8(1)
 4061 1234 01F4      		brne .L187
 4062               	.LBB781:
 4063               	.LBB782:
 4064               	.LBB783:
 4065               	.LBB784:
 4066               	.LM414:
 4067               	/* #APP */
 4068               	 ;  341 "timebase.c" 1
 4069 1236 F894      		cli
 4070               	 ;  0 "" 2
 4071               	/* #NOAPP */
 4072               	.LBE784:
 4073               	.LBE783:
 4074               	.LM415:
 4075 1238 2A85      		ldd r18,Y+10
 4076 123a 3B85      		ldd r19,Y+11
 4077 123c 4C85      		ldd r20,Y+12
 4078 123e 5D85      		ldd r21,Y+13
 4079               	.LVL244:
 4080               	.LBB785:
 4081               	.LBB786:
 4082               	.LM416:
 4083               	/* #APP */
 4084               	 ;  345 "timebase.c" 1
 4085 1240 7894      		sei
 4086               	 ;  0 "" 2
 4087               	/* #NOAPP */
 4088               	.LBE786:
 4089               	.LBE785:
 4090               	.LBE782:
 4091               	.LBE781:
 4092               	.LM417:
 4093 1242 8DE0      		ldi r24,lo8(13)
 4094 1244 90E0      		ldi r25,hi8(13)
 4095 1246 689F      		mul r22,r24
 4096 1248 F001      		movw r30,r0
 4097 124a 699F      		mul r22,r25
 4098 124c F00D      		add r31,r0
 4099 124e 789F      		mul r23,r24
 4100 1250 F00D      		add r31,r0
 4101 1252 1124      		clr r1
 4102 1254 EC0F      		add r30,r28
 4103 1256 FD1F      		adc r31,r29
 4104 1258 BF01      		movw r22,r30
 4105 125a 675A      		subi r22,lo8(-(89))
 4106 125c 7F4F      		sbci r23,hi8(-(89))
 4107 125e EB01      		movw r28,r22
 4108 1260 8881      		ld r24,Y
 4109 1262 9981      		ldd r25,Y+1
 4110 1264 AA81      		ldd r26,Y+2
 4111 1266 BB81      		ldd r27,Y+3
 4112 1268 821B      		sub r24,r18
 4113 126a 930B      		sbc r25,r19
 4114 126c A40B      		sbc r26,r20
 4115 126e B50B      		sbc r27,r21
 4116               	.LBB787:
 4117               	.LBB788:
 4118               	.LM418:
 4119 1270 EF01      		movw r28,r30
 4120 1272 C35A      		subi r28,lo8(-(93))
 4121 1274 DF4F      		sbci r29,hi8(-(93))
 4122 1276 8883      		st Y,r24
 4123 1278 9983      		std Y+1,r25
 4124 127a AA83      		std Y+2,r26
 4125 127c BB83      		std Y+3,r27
 4126               	.LBE788:
 4127               	.LBE787:
 4128               	.LM419:
 4129 127e 1816      		cp __zero_reg__,r24
 4130 1280 1906      		cpc __zero_reg__,r25
 4131 1282 1A06      		cpc __zero_reg__,r26
 4132 1284 1B06      		cpc __zero_reg__,r27
 4133 1286 04F0      		brlt .L189
 4134               	.LBB789:
 4135               	.LBB790:
 4136               	.LBB791:
 4137               	.LBB792:
 4138               	.LM420:
 4139 1288 DB01      		movw r26,r22
 4140 128a 1D92      		st X+,__zero_reg__
 4141 128c 1D92      		st X+,__zero_reg__
 4142 128e 1D92      		st X+,__zero_reg__
 4143 1290 1C92      		st X,__zero_reg__
 4144 1292 1397      		sbiw r26,3
 4145               	.LBE792:
 4146               	.LBE791:
 4147               	.LBB793:
 4148               	.LBB794:
 4149               	.LM421:
 4150 1294 1882      		st Y,__zero_reg__
 4151 1296 1982      		std Y+1,__zero_reg__
 4152 1298 1A82      		std Y+2,__zero_reg__
 4153 129a 1B82      		std Y+3,__zero_reg__
 4154               	.LBE794:
 4155               	.LBE793:
 4156               	.LBB795:
 4157               	.LBB796:
 4158               	.LM422:
 4159 129c E85A      		subi r30,lo8(-(88))
 4160 129e FF4F      		sbci r31,hi8(-(88))
 4161 12a0 8081      		ld r24,Z
 4162               	.LBE796:
 4163               	.LBE795:
 4164               	.LBE790:
 4165               	.LBE789:
 4166               	.LBB797:
 4167               	.LBB798:
 4168               	.LM423:
 4169 12a2 807E      		andi r24,lo8(-32)
 4170 12a4 8860      		ori r24,lo8(8)
 4171 12a6 8083      		st Z,r24
 4172 12a8 00C0      		rjmp .L189
 4173               	.LVL245:
 4174               	.L187:
 4175               	.LBE798:
 4176               	.LBE797:
 4177               	.LM424:
 4178 12aa E230      		cpi r30,lo8(2)
 4179 12ac 01F4      		brne .L189
 4180               	.LBB799:
 4181               	.LBB800:
 4182               	.LBB801:
 4183               	.LBB802:
 4184               	.LM425:
 4185               	/* #APP */
 4186               	 ;  341 "timebase.c" 1
 4187 12ae F894      		cli
 4188               	 ;  0 "" 2
 4189               	/* #NOAPP */
 4190               	.LBE802:
 4191               	.LBE801:
 4192               	.LM426:
 4193 12b0 8A85      		ldd r24,Y+10
 4194 12b2 9B85      		ldd r25,Y+11
 4195 12b4 AC85      		ldd r26,Y+12
 4196 12b6 BD85      		ldd r27,Y+13
 4197               	.LVL246:
 4198               	.LBB803:
 4199               	.LBB804:
 4200               	.LM427:
 4201               	/* #APP */
 4202               	 ;  345 "timebase.c" 1
 4203 12b8 7894      		sei
 4204               	 ;  0 "" 2
 4205               	/* #NOAPP */
 4206               	.LBE804:
 4207               	.LBE803:
 4208               	.LBE800:
 4209               	.LBE799:
 4210               	.LBB805:
 4211               	.LBB806:
 4212               	.LM428:
 4213 12ba 2DE0      		ldi r18,lo8(13)
 4214 12bc 30E0      		ldi r19,hi8(13)
 4215 12be 629F      		mul r22,r18
 4216 12c0 F001      		movw r30,r0
 4217 12c2 639F      		mul r22,r19
 4218 12c4 F00D      		add r31,r0
 4219 12c6 729F      		mul r23,r18
 4220 12c8 F00D      		add r31,r0
 4221 12ca 1124      		clr r1
 4222 12cc EC0F      		add r30,r28
 4223 12ce FD1F      		adc r31,r29
 4224 12d0 E35A      		subi r30,lo8(-(93))
 4225 12d2 FF4F      		sbci r31,hi8(-(93))
 4226 12d4 2081      		ld r18,Z
 4227 12d6 3181      		ldd r19,Z+1
 4228 12d8 4281      		ldd r20,Z+2
 4229 12da 5381      		ldd r21,Z+3
 4230 12dc 820F      		add r24,r18
 4231 12de 931F      		adc r25,r19
 4232 12e0 A41F      		adc r26,r20
 4233 12e2 B51F      		adc r27,r21
 4234 12e4 B293      		st -Z,r27
 4235 12e6 A293      		st -Z,r26
 4236 12e8 9293      		st -Z,r25
 4237 12ea 8293      		st -Z,r24
 4238               	.LVL247:
 4239               	.L189:
 4240               	/* epilogue start */
 4241               	.LBE806:
 4242               	.LBE805:
 4243               	.LM429:
 4244 12ec DF91      		pop r29
 4245 12ee CF91      		pop r28
 4246 12f0 0895      		ret
 4247               	.LFE72:
 4249               	.global	Timebase_DownCounter_Expired
 4251               	Timebase_DownCounter_Expired:
 4252               	.LFB73:
 4253               	.LM430:
 4254               	.LVL248:
 4255               	/* prologue: function */
 4256               	/* frame size = 0 */
 4257               	.LM431:
 4258 12f2 40E0      		ldi r20,lo8(0)
 4259 12f4 E091 0000 		lds r30,Timebase
 4260 12f8 F091 0000 		lds r31,(Timebase)+1
 4261 12fc 90E0      		ldi r25,lo8(0)
 4262               	.LVL249:
 4263 12fe 2DE0      		ldi r18,lo8(13)
 4264 1300 30E0      		ldi r19,hi8(13)
 4265 1302 BC01      		movw r22,r24
 4266 1304 629F      		mul r22,r18
 4267 1306 C001      		movw r24,r0
 4268 1308 639F      		mul r22,r19
 4269 130a 900D      		add r25,r0
 4270 130c 729F      		mul r23,r18
 4271 130e 900D      		add r25,r0
 4272 1310 1124      		clr r1
 4273               	.LVL250:
 4274 1312 E80F      		add r30,r24
 4275 1314 F91F      		adc r31,r25
 4276 1316 E85A      		subi r30,lo8(-(88))
 4277 1318 FF4F      		sbci r31,hi8(-(88))
 4278 131a 8081      		ld r24,Z
 4279 131c 8695      		lsr r24
 4280 131e 8F70      		andi r24,lo8(15)
 4281 1320 8430      		cpi r24,lo8(4)
 4282 1322 01F4      		brne .L191
 4283 1324 41E0      		ldi r20,lo8(1)
 4284               	.L191:
 4285               	.LM432:
 4286 1326 842F      		mov r24,r20
 4287               	/* epilogue start */
 4288 1328 0895      		ret
 4289               	.LFE73:
 4291               	.global	Timebase_DownCounter_Expired_Event
 4293               	Timebase_DownCounter_Expired_Event:
 4294               	.LFB74:
 4295               	.LM433:
 4296               	.LVL251:
 4297               	/* prologue: function */
 4298               	/* frame size = 0 */
 4299               	.LBB807:
 4300               	.LBB808:
 4301               	.LM434:
 4302 132a E091 0000 		lds r30,Timebase
 4303 132e F091 0000 		lds r31,(Timebase)+1
 4304 1332 90E0      		ldi r25,lo8(0)
 4305               	.LBE808:
 4306               	.LBE807:
 4307               	.LM435:
 4308 1334 2DE0      		ldi r18,lo8(13)
 4309 1336 30E0      		ldi r19,hi8(13)
 4310 1338 AC01      		movw r20,r24
 4311               	.LVL252:
 4312 133a 429F      		mul r20,r18
 4313 133c C001      		movw r24,r0
 4314 133e 439F      		mul r20,r19
 4315 1340 900D      		add r25,r0
 4316 1342 529F      		mul r21,r18
 4317 1344 900D      		add r25,r0
 4318 1346 1124      		clr r1
 4319 1348 E80F      		add r30,r24
 4320 134a F91F      		adc r31,r25
 4321 134c DF01      		movw r26,r30
 4322 134e A85A      		subi r26,lo8(-(88))
 4323 1350 BF4F      		sbci r27,hi8(-(88))
 4324 1352 8C91      		ld r24,X
 4325 1354 8695      		lsr r24
 4326 1356 8F70      		andi r24,lo8(15)
 4327 1358 8430      		cpi r24,lo8(4)
 4328 135a 01F0      		breq .L194
 4329 135c 80E0      		ldi r24,lo8(0)
 4330 135e 0895      		ret
 4331               	.L194:
 4332               	.LBB809:
 4333               	.LBB810:
 4334               	.LBB811:
 4335               	.LBB812:
 4336               	.LBB813:
 4337               	.LBB814:
 4338               	.LM436:
 4339 1360 E75A      		subi r30,lo8(-(89))
 4340 1362 FF4F      		sbci r31,hi8(-(89))
 4341 1364 1192      		st Z+,__zero_reg__
 4342 1366 1192      		st Z+,__zero_reg__
 4343 1368 1192      		st Z+,__zero_reg__
 4344 136a 1192      		st Z+,__zero_reg__
 4345               	.LBE814:
 4346               	.LBE813:
 4347               	.LBB815:
 4348               	.LBB816:
 4349               	.LM437:
 4350 136c 1082      		st Z,__zero_reg__
 4351 136e 1182      		std Z+1,__zero_reg__
 4352 1370 1282      		std Z+2,__zero_reg__
 4353 1372 1382      		std Z+3,__zero_reg__
 4354               	.LBE816:
 4355               	.LBE815:
 4356               	.LBB817:
 4357               	.LBB818:
 4358               	.LM438:
 4359 1374 8C91      		ld r24,X
 4360               	.LBE818:
 4361               	.LBE817:
 4362               	.LBB819:
 4363               	.LBB820:
 4364               	.LM439:
 4365 1376 807E      		andi r24,lo8(-32)
 4366 1378 8C93      		st X,r24
 4367 137a 81E0      		ldi r24,lo8(1)
 4368               	.LBE820:
 4369               	.LBE819:
 4370               	.LBE812:
 4371               	.LBE811:
 4372               	.LBE810:
 4373               	.LBE809:
 4374               	.LM440:
 4375 137c 0895      		ret
 4376               	.LFE74:
 4378               	.global	Timebase_DownCounter_Set_Period_Value_Securely
 4380               	Timebase_DownCounter_Set_Period_Value_Securely:
 4381               	.LFB75:
 4382               	.LM441:
 4383               	.LVL253:
 4384 137e CF93      		push r28
 4385 1380 DF93      		push r29
 4386               	/* prologue: function */
 4387               	/* frame size = 0 */
 4388               	.LBB821:
 4389               	.LBB822:
 4390               	.LM442:
 4391 1382 C091 0000 		lds r28,Timebase
 4392 1386 D091 0000 		lds r29,(Timebase)+1
 4393 138a 282F      		mov r18,r24
 4394 138c 30E0      		ldi r19,lo8(0)
 4395               	.LBE822:
 4396               	.LBE821:
 4397               	.LM443:
 4398 138e 8DE0      		ldi r24,lo8(13)
 4399 1390 90E0      		ldi r25,hi8(13)
 4400               	.LVL254:
 4401 1392 289F      		mul r18,r24
 4402 1394 F001      		movw r30,r0
 4403 1396 299F      		mul r18,r25
 4404 1398 F00D      		add r31,r0
 4405 139a 389F      		mul r19,r24
 4406 139c F00D      		add r31,r0
 4407 139e 1124      		clr r1
 4408 13a0 EC0F      		add r30,r28
 4409 13a2 FD1F      		adc r31,r29
 4410 13a4 E85A      		subi r30,lo8(-(88))
 4411 13a6 FF4F      		sbci r31,hi8(-(88))
 4412 13a8 8081      		ld r24,Z
 4413 13aa E855      		subi r30,lo8(-(-88))
 4414 13ac F040      		sbci r31,hi8(-(-88))
 4415 13ae 80FD      		sbrc r24,0
 4416 13b0 00C0      		rjmp .L201
 4417               	.LM444:
 4418 13b2 E35A      		subi r30,lo8(-(93))
 4419 13b4 FF4F      		sbci r31,hi8(-(93))
 4420 13b6 8191      		ld r24,Z+
 4421 13b8 9191      		ld r25,Z+
 4422 13ba A191      		ld r26,Z+
 4423 13bc B191      		ld r27,Z+
 4424 13be 841B      		sub r24,r20
 4425 13c0 950B      		sbc r25,r21
 4426 13c2 A60B      		sbc r26,r22
 4427 13c4 B70B      		sbc r27,r23
 4428               	.LBB823:
 4429               	.LBB824:
 4430               	.LM445:
 4431 13c6 B7FF      		sbrs r27,7
 4432 13c8 00C0      		rjmp .L199
 4433               	.LM446:
 4434 13ca 1082      		st Z,__zero_reg__
 4435 13cc 1182      		std Z+1,__zero_reg__
 4436 13ce 1282      		std Z+2,__zero_reg__
 4437 13d0 1382      		std Z+3,__zero_reg__
 4438 13d2 00C0      		rjmp .L200
 4439               	.L199:
 4440               	.LM447:
 4441 13d4 8083      		st Z,r24
 4442 13d6 9183      		std Z+1,r25
 4443 13d8 A283      		std Z+2,r26
 4444 13da B383      		std Z+3,r27
 4445               	.L200:
 4446               	.LBE824:
 4447               	.LBE823:
 4448               	.LBB825:
 4449               	.LBB826:
 4450               	.LM448:
 4451 13dc 8DE0      		ldi r24,lo8(13)
 4452 13de 90E0      		ldi r25,hi8(13)
 4453 13e0 289F      		mul r18,r24
 4454 13e2 F001      		movw r30,r0
 4455 13e4 299F      		mul r18,r25
 4456 13e6 F00D      		add r31,r0
 4457 13e8 389F      		mul r19,r24
 4458 13ea F00D      		add r31,r0
 4459 13ec 1124      		clr r1
 4460 13ee EC0F      		add r30,r28
 4461 13f0 FD1F      		adc r31,r29
 4462 13f2 E85A      		subi r30,lo8(-(88))
 4463 13f4 FF4F      		sbci r31,hi8(-(88))
 4464 13f6 8081      		ld r24,Z
 4465 13f8 8160      		ori r24,lo8(1)
 4466 13fa 8083      		st Z,r24
 4467               	.L201:
 4468               	/* epilogue start */
 4469               	.LBE826:
 4470               	.LBE825:
 4471               	.LM449:
 4472 13fc DF91      		pop r29
 4473 13fe CF91      		pop r28
 4474 1400 0895      		ret
 4475               	.LFE75:
 4477               	.global	Timebase_DownCounter_Get_Remaining_Period_Value
 4479               	Timebase_DownCounter_Get_Remaining_Period_Value:
 4480               	.LFB76:
 4481               	.LM450:
 4482               	.LVL255:
 4483               	/* prologue: function */
 4484               	/* frame size = 0 */
 4485               	.LBB827:
 4486               	.LBB828:
 4487               	.LM451:
 4488 1402 E091 0000 		lds r30,Timebase
 4489 1406 F091 0000 		lds r31,(Timebase)+1
 4490 140a 90E0      		ldi r25,lo8(0)
 4491               	.LBE828:
 4492               	.LBE827:
 4493               	.LM452:
 4494 140c 2DE0      		ldi r18,lo8(13)
 4495 140e 30E0      		ldi r19,hi8(13)
 4496 1410 AC01      		movw r20,r24
 4497               	.LVL256:
 4498 1412 429F      		mul r20,r18
 4499 1414 C001      		movw r24,r0
 4500 1416 439F      		mul r20,r19
 4501 1418 900D      		add r25,r0
 4502 141a 529F      		mul r21,r18
 4503 141c 900D      		add r25,r0
 4504 141e 1124      		clr r1
 4505 1420 E80F      		add r30,r24
 4506 1422 F91F      		adc r31,r25
 4507 1424 DF01      		movw r26,r30
 4508 1426 AF59      		subi r26,lo8(-(97))
 4509 1428 BF4F      		sbci r27,hi8(-(97))
 4510 142a E35A      		subi r30,lo8(-(93))
 4511 142c FF4F      		sbci r31,hi8(-(93))
 4512 142e 2081      		ld r18,Z
 4513 1430 3181      		ldd r19,Z+1
 4514 1432 4281      		ldd r20,Z+2
 4515 1434 5381      		ldd r21,Z+3
 4516               	.LVL257:
 4517 1436 8D91      		ld r24,X+
 4518 1438 9D91      		ld r25,X+
 4519 143a 0D90      		ld __tmp_reg__,X+
 4520 143c BC91      		ld r27,X
 4521 143e A02D      		mov r26,__tmp_reg__
 4522 1440 281B      		sub r18,r24
 4523 1442 390B      		sbc r19,r25
 4524 1444 4A0B      		sbc r20,r26
 4525 1446 5B0B      		sbc r21,r27
 4526 1448 57FF      		sbrs r21,7
 4527 144a 00C0      		rjmp .L203
 4528 144c 20E0      		ldi r18,lo8(0)
 4529 144e 30E0      		ldi r19,hi8(0)
 4530 1450 40E0      		ldi r20,hlo8(0)
 4531 1452 50E0      		ldi r21,hhi8(0)
 4532               	.L203:
 4533               	.LM453:
 4534 1454 B901      		movw r22,r18
 4535               	.LVL258:
 4536 1456 CA01      		movw r24,r20
 4537               	/* epilogue start */
 4538 1458 0895      		ret
 4539               	.LFE76:
 4541               	.global	Timebase_DownCounter_Period_Value_Expired
 4543               	Timebase_DownCounter_Period_Value_Expired:
 4544               	.LFB77:
 4545               	.LM454:
 4546               	.LVL259:
 4547 145a CF93      		push r28
 4548 145c DF93      		push r29
 4549               	/* prologue: function */
 4550               	/* frame size = 0 */
 4551               	.LBB829:
 4552               	.LBB830:
 4553               	.LBB831:
 4554               	.LBB832:
 4555               	.LM455:
 4556 145e C091 0000 		lds r28,Timebase
 4557 1462 D091 0000 		lds r29,(Timebase)+1
 4558 1466 682F      		mov r22,r24
 4559 1468 70E0      		ldi r23,lo8(0)
 4560               	.LBE832:
 4561               	.LBE831:
 4562               	.LM456:
 4563 146a 8DE0      		ldi r24,lo8(13)
 4564 146c 90E0      		ldi r25,hi8(13)
 4565               	.LVL260:
 4566 146e 689F      		mul r22,r24
 4567 1470 F001      		movw r30,r0
 4568 1472 699F      		mul r22,r25
 4569 1474 F00D      		add r31,r0
 4570 1476 789F      		mul r23,r24
 4571 1478 F00D      		add r31,r0
 4572 147a 1124      		clr r1
 4573 147c EC0F      		add r30,r28
 4574 147e FD1F      		adc r31,r29
 4575 1480 DF01      		movw r26,r30
 4576 1482 AF59      		subi r26,lo8(-(97))
 4577 1484 BF4F      		sbci r27,hi8(-(97))
 4578 1486 E35A      		subi r30,lo8(-(93))
 4579 1488 FF4F      		sbci r31,hi8(-(93))
 4580 148a 2081      		ld r18,Z
 4581 148c 3181      		ldd r19,Z+1
 4582 148e 4281      		ldd r20,Z+2
 4583 1490 5381      		ldd r21,Z+3
 4584               	.LVL261:
 4585 1492 8D91      		ld r24,X+
 4586 1494 9D91      		ld r25,X+
 4587 1496 0D90      		ld __tmp_reg__,X+
 4588 1498 BC91      		ld r27,X
 4589 149a A02D      		mov r26,__tmp_reg__
 4590 149c 281B      		sub r18,r24
 4591 149e 390B      		sbc r19,r25
 4592 14a0 4A0B      		sbc r20,r26
 4593 14a2 5B0B      		sbc r21,r27
 4594               	.LM457:
 4595 14a4 57FD      		sbrc r21,7
 4596 14a6 00C0      		rjmp .L206
 4597               	.LBE830:
 4598               	.LBE829:
 4599               	.LM458:
 4600 14a8 2115      		cp r18,__zero_reg__
 4601 14aa 3105      		cpc r19,__zero_reg__
 4602 14ac 4105      		cpc r20,__zero_reg__
 4603 14ae 5105      		cpc r21,__zero_reg__
 4604 14b0 01F0      		breq .L206
 4605 14b2 20E0      		ldi r18,lo8(0)
 4606               	.LVL262:
 4607 14b4 00C0      		rjmp .L207
 4608               	.LVL263:
 4609               	.L206:
 4610 14b6 20E0      		ldi r18,lo8(0)
 4611               	.LVL264:
 4612 14b8 8DE0      		ldi r24,lo8(13)
 4613 14ba 90E0      		ldi r25,hi8(13)
 4614 14bc AC01      		movw r20,r24
 4615 14be 649F      		mul r22,r20
 4616 14c0 C001      		movw r24,r0
 4617 14c2 659F      		mul r22,r21
 4618 14c4 900D      		add r25,r0
 4619 14c6 749F      		mul r23,r20
 4620 14c8 900D      		add r25,r0
 4621 14ca 1124      		clr r1
 4622 14cc C80F      		add r28,r24
 4623 14ce D91F      		adc r29,r25
 4624 14d0 C85A      		subi r28,lo8(-(88))
 4625 14d2 DF4F      		sbci r29,hi8(-(88))
 4626 14d4 8881      		ld r24,Y
 4627 14d6 80FF      		sbrs r24,0
 4628 14d8 21E0      		ldi r18,lo8(1)
 4629               	.L208:
 4630 14da 81E0      		ldi r24,lo8(1)
 4631 14dc 2827      		eor r18,r24
 4632               	.L207:
 4633               	.LM459:
 4634 14de 822F      		mov r24,r18
 4635               	/* epilogue start */
 4636 14e0 DF91      		pop r29
 4637 14e2 CF91      		pop r28
 4638 14e4 0895      		ret
 4639               	.LFE77:
 4641               	.global	Timebase_DownCounter_Period_Value_Expired_Event
 4643               	Timebase_DownCounter_Period_Value_Expired_Event:
 4644               	.LFB78:
 4645               	.LM460:
 4646               	.LVL265:
 4647 14e6 1F93      		push r17
 4648               	/* prologue: function */
 4649               	/* frame size = 0 */
 4650 14e8 182F      		mov r17,r24
 4651               	.LM461:
 4652 14ea 0E94 0000 		call Timebase_DownCounter_Period_Value_Expired
 4653               	.LVL266:
 4654 14ee 8130      		cpi r24,lo8(1)
 4655 14f0 01F0      		breq .L211
 4656 14f2 80E0      		ldi r24,lo8(0)
 4657 14f4 00C0      		rjmp .L212
 4658               	.L211:
 4659               	.LBB833:
 4660               	.LBB834:
 4661               	.LM462:
 4662 14f6 E091 0000 		lds r30,Timebase
 4663 14fa F091 0000 		lds r31,(Timebase)+1
 4664 14fe 212F      		mov r18,r17
 4665 1500 30E0      		ldi r19,lo8(0)
 4666               	.LVL267:
 4667 1502 8DE0      		ldi r24,lo8(13)
 4668 1504 90E0      		ldi r25,hi8(13)
 4669 1506 AC01      		movw r20,r24
 4670 1508 249F      		mul r18,r20
 4671 150a C001      		movw r24,r0
 4672 150c 259F      		mul r18,r21
 4673 150e 900D      		add r25,r0
 4674 1510 349F      		mul r19,r20
 4675 1512 900D      		add r25,r0
 4676 1514 1124      		clr r1
 4677 1516 E80F      		add r30,r24
 4678 1518 F91F      		adc r31,r25
 4679 151a E85A      		subi r30,lo8(-(88))
 4680 151c FF4F      		sbci r31,hi8(-(88))
 4681 151e 8081      		ld r24,Z
 4682 1520 8E7F      		andi r24,lo8(-2)
 4683 1522 8083      		st Z,r24
 4684 1524 81E0      		ldi r24,lo8(1)
 4685               	.L212:
 4686               	/* epilogue start */
 4687               	.LBE834:
 4688               	.LBE833:
 4689               	.LM463:
 4690 1526 1F91      		pop r17
 4691               	.LVL268:
 4692 1528 0895      		ret
 4693               	.LFE78:
 4695               	.global	Timebase_DownCounter_Update_All
 4697               	Timebase_DownCounter_Update_All:
 4698               	.LFB79:
 4699               	.LM464:
 4700               	/* prologue: function */
 4701               	/* frame size = 0 */
 4702               	.LBB835:
 4703               	.LM465:
 4704 152a 80E0      		ldi r24,lo8(0)
 4705 152c 0E94 0000 		call Timebase_DownCounter_Update
 4706               	/* epilogue start */
 4707               	.LBE835:
 4708               	.LM466:
 4709 1530 0895      		ret
 4710               	.LFE79:
 4712               	.global	Timebase_DownCounter_Reset_All
 4714               	Timebase_DownCounter_Reset_All:
 4715               	.LFB80:
 4716               	.LM467:
 4717               	/* prologue: function */
 4718               	/* frame size = 0 */
 4719               	.LBB836:
 4720               	.LBB837:
 4721               	.LBB838:
 4722               	.LBB839:
 4723               	.LBB840:
 4724               	.LM468:
 4725 1532 E091 0000 		lds r30,Timebase
 4726 1536 F091 0000 		lds r31,(Timebase)+1
 4727 153a E75A      		subi r30,lo8(-(89))
 4728 153c FF4F      		sbci r31,hi8(-(89))
 4729 153e 1192      		st Z+,__zero_reg__
 4730 1540 1192      		st Z+,__zero_reg__
 4731 1542 1192      		st Z+,__zero_reg__
 4732 1544 1192      		st Z+,__zero_reg__
 4733               	.LBE840:
 4734               	.LBE839:
 4735               	.LBB841:
 4736               	.LBB842:
 4737               	.LM469:
 4738 1546 1082      		st Z,__zero_reg__
 4739 1548 1182      		std Z+1,__zero_reg__
 4740 154a 1282      		std Z+2,__zero_reg__
 4741 154c 1382      		std Z+3,__zero_reg__
 4742               	.LBE842:
 4743               	.LBE841:
 4744               	.LBB843:
 4745               	.LBB844:
 4746               	.LM470:
 4747 154e 3597      		sbiw r30,5
 4748 1550 8081      		ld r24,Z
 4749               	.LBE844:
 4750               	.LBE843:
 4751               	.LBB845:
 4752               	.LBB846:
 4753               	.LM471:
 4754 1552 807E      		andi r24,lo8(-32)
 4755 1554 8083      		st Z,r24
 4756               	/* epilogue start */
 4757               	.LBE846:
 4758               	.LBE845:
 4759               	.LBE838:
 4760               	.LBE837:
 4761               	.LBE836:
 4762               	.LM472:
 4763 1556 0895      		ret
 4764               	.LFE80:
 4766               	.global	Timebase_DownCounter_SS_Get_Status
 4768               	Timebase_DownCounter_SS_Get_Status:
 4769               	.LFB81:
 4770               	.LM473:
 4771               	.LVL269:
 4772               	/* prologue: function */
 4773               	/* frame size = 0 */
 4774               	.LM474:
 4775 1558 E091 0000 		lds r30,Timebase
 4776 155c F091 0000 		lds r31,(Timebase)+1
 4777 1560 90E0      		ldi r25,lo8(0)
 4778               	.LVL270:
 4779 1562 9C01      		movw r18,r24
 4780 1564 44E0      		ldi r20,4
 4781 1566 220F      	1:	lsl r18
 4782 1568 331F      		rol r19
 4783 156a 4A95      		dec r20
 4784 156c 01F4      		brne 1b
 4785 156e 280F      		add r18,r24
 4786 1570 391F      		adc r19,r25
 4787 1572 E20F      		add r30,r18
 4788 1574 F31F      		adc r31,r19
 4789 1576 E95B      		subi r30,lo8(-(71))
 4790 1578 FF4F      		sbci r31,hi8(-(71))
 4791 157a 8081      		ld r24,Z
 4792               	.LVL271:
 4793 157c 8695      		lsr r24
 4794               	.LM475:
 4795 157e 8F70      		andi r24,lo8(15)
 4796               	/* epilogue start */
 4797 1580 0895      		ret
 4798               	.LFE81:
 4800               	.global	Timebase_DownCounter_SS_Set_Status
 4802               	Timebase_DownCounter_SS_Set_Status:
 4803               	.LFB82:
 4804               	.LM476:
 4805               	.LVL272:
 4806               	/* prologue: function */
 4807               	/* frame size = 0 */
 4808               	.LM477:
 4809 1582 E091 0000 		lds r30,Timebase
 4810 1586 F091 0000 		lds r31,(Timebase)+1
 4811 158a 90E0      		ldi r25,lo8(0)
 4812               	.LVL273:
 4813 158c 9C01      		movw r18,r24
 4814 158e 54E0      		ldi r21,4
 4815 1590 220F      	1:	lsl r18
 4816 1592 331F      		rol r19
 4817 1594 5A95      		dec r21
 4818 1596 01F4      		brne 1b
 4819 1598 280F      		add r18,r24
 4820 159a 391F      		adc r19,r25
 4821 159c E20F      		add r30,r18
 4822 159e F31F      		adc r31,r19
 4823 15a0 E95B      		subi r30,lo8(-(71))
 4824 15a2 FF4F      		sbci r31,hi8(-(71))
 4825 15a4 6F70      		andi r22,lo8(15)
 4826               	.LVL274:
 4827 15a6 660F      		lsl r22
 4828 15a8 8081      		ld r24,Z
 4829               	.LVL275:
 4830 15aa 817E      		andi r24,lo8(-31)
 4831 15ac 862B      		or r24,r22
 4832 15ae 8083      		st Z,r24
 4833               	/* epilogue start */
 4834               	.LM478:
 4835 15b0 0895      		ret
 4836               	.LFE82:
 4838               	.global	Timebase_DownCounter_SS_Get_Value
 4840               	Timebase_DownCounter_SS_Get_Value:
 4841               	.LFB83:
 4842               	.LM479:
 4843               	.LVL276:
 4844               	/* prologue: function */
 4845               	/* frame size = 0 */
 4846               	.LM480:
 4847 15b2 E091 0000 		lds r30,Timebase
 4848 15b6 F091 0000 		lds r31,(Timebase)+1
 4849 15ba 90E0      		ldi r25,lo8(0)
 4850               	.LVL277:
 4851 15bc 9C01      		movw r18,r24
 4852 15be 64E0      		ldi r22,4
 4853 15c0 220F      	1:	lsl r18
 4854 15c2 331F      		rol r19
 4855 15c4 6A95      		dec r22
 4856 15c6 01F4      		brne 1b
 4857 15c8 280F      		add r18,r24
 4858 15ca 391F      		adc r19,r25
 4859 15cc E20F      		add r30,r18
 4860 15ce F31F      		adc r31,r19
 4861 15d0 E05B      		subi r30,lo8(-(80))
 4862 15d2 FF4F      		sbci r31,hi8(-(80))
 4863 15d4 6081      		ld r22,Z
 4864 15d6 7181      		ldd r23,Z+1
 4865               	.LM481:
 4866 15d8 8281      		ldd r24,Z+2
 4867               	.LVL278:
 4868 15da 9381      		ldd r25,Z+3
 4869               	.LVL279:
 4870               	/* epilogue start */
 4871 15dc 0895      		ret
 4872               	.LFE83:
 4874               	.global	Timebase_DownCounter_SS_Set_Value
 4876               	Timebase_DownCounter_SS_Set_Value:
 4877               	.LFB84:
 4878               	.LM482:
 4879               	.LVL280:
 4880               	/* prologue: function */
 4881               	/* frame size = 0 */
 4882               	.LM483:
 4883 15de E091 0000 		lds r30,Timebase
 4884 15e2 F091 0000 		lds r31,(Timebase)+1
 4885 15e6 90E0      		ldi r25,lo8(0)
 4886               	.LVL281:
 4887 15e8 9C01      		movw r18,r24
 4888 15ea A4E0      		ldi r26,4
 4889 15ec 220F      	1:	lsl r18
 4890 15ee 331F      		rol r19
 4891 15f0 AA95      		dec r26
 4892 15f2 01F4      		brne 1b
 4893 15f4 280F      		add r18,r24
 4894 15f6 391F      		adc r19,r25
 4895 15f8 E20F      		add r30,r18
 4896 15fa F31F      		adc r31,r19
 4897 15fc E05B      		subi r30,lo8(-(80))
 4898 15fe FF4F      		sbci r31,hi8(-(80))
 4899 1600 4083      		st Z,r20
 4900 1602 5183      		std Z+1,r21
 4901 1604 6283      		std Z+2,r22
 4902 1606 7383      		std Z+3,r23
 4903               	/* epilogue start */
 4904               	.LM484:
 4905 1608 0895      		ret
 4906               	.LFE84:
 4908               	.global	Timebase_DownCounter_SS_Get_EndValueSec
 4910               	Timebase_DownCounter_SS_Get_EndValueSec:
 4911               	.LFB85:
 4912               	.LM485:
 4913               	.LVL282:
 4914               	/* prologue: function */
 4915               	/* frame size = 0 */
 4916               	.LM486:
 4917 160a E091 0000 		lds r30,Timebase
 4918 160e F091 0000 		lds r31,(Timebase)+1
 4919 1612 90E0      		ldi r25,lo8(0)
 4920               	.LVL283:
 4921 1614 9C01      		movw r18,r24
 4922 1616 B4E0      		ldi r27,4
 4923 1618 220F      	1:	lsl r18
 4924 161a 331F      		rol r19
 4925 161c BA95      		dec r27
 4926 161e 01F4      		brne 1b
 4927 1620 280F      		add r18,r24
 4928 1622 391F      		adc r19,r25
 4929 1624 E20F      		add r30,r18
 4930 1626 F31F      		adc r31,r19
 4931 1628 E85B      		subi r30,lo8(-(72))
 4932 162a FF4F      		sbci r31,hi8(-(72))
 4933 162c 6081      		ld r22,Z
 4934 162e 7181      		ldd r23,Z+1
 4935               	.LM487:
 4936 1630 8281      		ldd r24,Z+2
 4937               	.LVL284:
 4938 1632 9381      		ldd r25,Z+3
 4939               	.LVL285:
 4940               	/* epilogue start */
 4941 1634 0895      		ret
 4942               	.LFE85:
 4944               	.global	Timebase_DownCounter_SS_Get_EndValueSubSec
 4946               	Timebase_DownCounter_SS_Get_EndValueSubSec:
 4947               	.LFB86:
 4948               	.LM488:
 4949               	.LVL286:
 4950               	/* prologue: function */
 4951               	/* frame size = 0 */
 4952               	.LM489:
 4953 1636 E091 0000 		lds r30,Timebase
 4954 163a F091 0000 		lds r31,(Timebase)+1
 4955 163e 90E0      		ldi r25,lo8(0)
 4956               	.LVL287:
 4957 1640 9C01      		movw r18,r24
 4958 1642 44E0      		ldi r20,4
 4959 1644 220F      	1:	lsl r18
 4960 1646 331F      		rol r19
 4961 1648 4A95      		dec r20
 4962 164a 01F4      		brne 1b
 4963 164c 280F      		add r18,r24
 4964 164e 391F      		adc r19,r25
 4965 1650 E20F      		add r30,r18
 4966 1652 F31F      		adc r31,r19
 4967 1654 E45B      		subi r30,lo8(-(76))
 4968 1656 FF4F      		sbci r31,hi8(-(76))
 4969 1658 6081      		ld r22,Z
 4970 165a 7181      		ldd r23,Z+1
 4971               	.LM490:
 4972 165c 8281      		ldd r24,Z+2
 4973               	.LVL288:
 4974 165e 9381      		ldd r25,Z+3
 4975               	.LVL289:
 4976               	/* epilogue start */
 4977 1660 0895      		ret
 4978               	.LFE86:
 4980               	.global	Timebase_DownCounter_SS_Set_EndValueSec
 4982               	Timebase_DownCounter_SS_Set_EndValueSec:
 4983               	.LFB87:
 4984               	.LM491:
 4985               	.LVL290:
 4986               	/* prologue: function */
 4987               	/* frame size = 0 */
 4988               	.LM492:
 4989 1662 E091 0000 		lds r30,Timebase
 4990 1666 F091 0000 		lds r31,(Timebase)+1
 4991 166a 90E0      		ldi r25,lo8(0)
 4992               	.LVL291:
 4993 166c 9C01      		movw r18,r24
 4994 166e A4E0      		ldi r26,4
 4995 1670 220F      	1:	lsl r18
 4996 1672 331F      		rol r19
 4997 1674 AA95      		dec r26
 4998 1676 01F4      		brne 1b
 4999 1678 280F      		add r18,r24
 5000 167a 391F      		adc r19,r25
 5001 167c E20F      		add r30,r18
 5002 167e F31F      		adc r31,r19
 5003 1680 E85B      		subi r30,lo8(-(72))
 5004 1682 FF4F      		sbci r31,hi8(-(72))
 5005 1684 4083      		st Z,r20
 5006 1686 5183      		std Z+1,r21
 5007 1688 6283      		std Z+2,r22
 5008 168a 7383      		std Z+3,r23
 5009               	/* epilogue start */
 5010               	.LM493:
 5011 168c 0895      		ret
 5012               	.LFE87:
 5014               	.global	Timebase_DownCounter_SS_Set_EndValueSubSec
 5016               	Timebase_DownCounter_SS_Set_EndValueSubSec:
 5017               	.LFB88:
 5018               	.LM494:
 5019               	.LVL292:
 5020               	/* prologue: function */
 5021               	/* frame size = 0 */
 5022               	.LM495:
 5023 168e E091 0000 		lds r30,Timebase
 5024 1692 F091 0000 		lds r31,(Timebase)+1
 5025 1696 90E0      		ldi r25,lo8(0)
 5026               	.LVL293:
 5027 1698 9C01      		movw r18,r24
 5028 169a B4E0      		ldi r27,4
 5029 169c 220F      	1:	lsl r18
 5030 169e 331F      		rol r19
 5031 16a0 BA95      		dec r27
 5032 16a2 01F4      		brne 1b
 5033 16a4 280F      		add r18,r24
 5034 16a6 391F      		adc r19,r25
 5035 16a8 E20F      		add r30,r18
 5036 16aa F31F      		adc r31,r19
 5037 16ac E45B      		subi r30,lo8(-(76))
 5038 16ae FF4F      		sbci r31,hi8(-(76))
 5039 16b0 4083      		st Z,r20
 5040 16b2 5183      		std Z+1,r21
 5041 16b4 6283      		std Z+2,r22
 5042 16b6 7383      		std Z+3,r23
 5043               	/* epilogue start */
 5044               	.LM496:
 5045 16b8 0895      		ret
 5046               	.LFE88:
 5048               	.global	Timebase_DownCounter_SS_Get_PeriodValue
 5050               	Timebase_DownCounter_SS_Get_PeriodValue:
 5051               	.LFB89:
 5052               	.LM497:
 5053               	.LVL294:
 5054               	/* prologue: function */
 5055               	/* frame size = 0 */
 5056               	.LM498:
 5057 16ba E091 0000 		lds r30,Timebase
 5058 16be F091 0000 		lds r31,(Timebase)+1
 5059 16c2 90E0      		ldi r25,lo8(0)
 5060               	.LVL295:
 5061 16c4 9C01      		movw r18,r24
 5062 16c6 44E0      		ldi r20,4
 5063 16c8 220F      	1:	lsl r18
 5064 16ca 331F      		rol r19
 5065 16cc 4A95      		dec r20
 5066 16ce 01F4      		brne 1b
 5067 16d0 280F      		add r18,r24
 5068 16d2 391F      		adc r19,r25
 5069 16d4 E20F      		add r30,r18
 5070 16d6 F31F      		adc r31,r19
 5071 16d8 EC5A      		subi r30,lo8(-(84))
 5072 16da FF4F      		sbci r31,hi8(-(84))
 5073 16dc 6081      		ld r22,Z
 5074 16de 7181      		ldd r23,Z+1
 5075               	.LM499:
 5076 16e0 8281      		ldd r24,Z+2
 5077               	.LVL296:
 5078 16e2 9381      		ldd r25,Z+3
 5079               	.LVL297:
 5080               	/* epilogue start */
 5081 16e4 0895      		ret
 5082               	.LFE89:
 5084               	.global	Timebase_DownCounter_SS_Set_PeriodValue
 5086               	Timebase_DownCounter_SS_Set_PeriodValue:
 5087               	.LFB90:
 5088               	.LM500:
 5089               	.LVL298:
 5090               	/* prologue: function */
 5091               	/* frame size = 0 */
 5092 16e6 E091 0000 		lds r30,Timebase
 5093 16ea F091 0000 		lds r31,(Timebase)+1
 5094 16ee 282F      		mov r18,r24
 5095 16f0 30E0      		ldi r19,lo8(0)
 5096               	.LVL299:
 5097               	.LM501:
 5098 16f2 77FF      		sbrs r23,7
 5099 16f4 00C0      		rjmp .L237
 5100               	.LVL300:
 5101               	.LM502:
 5102 16f6 C901      		movw r24,r18
 5103 16f8 B4E0      		ldi r27,4
 5104 16fa 880F      	1:	lsl r24
 5105 16fc 991F      		rol r25
 5106 16fe BA95      		dec r27
 5107 1700 01F4      		brne 1b
 5108 1702 820F      		add r24,r18
 5109 1704 931F      		adc r25,r19
 5110 1706 E80F      		add r30,r24
 5111 1708 F91F      		adc r31,r25
 5112 170a EC5A      		subi r30,lo8(-(84))
 5113 170c FF4F      		sbci r31,hi8(-(84))
 5114 170e 1082      		st Z,__zero_reg__
 5115 1710 1182      		std Z+1,__zero_reg__
 5116 1712 1282      		std Z+2,__zero_reg__
 5117 1714 1382      		std Z+3,__zero_reg__
 5118 1716 0895      		ret
 5119               	.LVL301:
 5120               	.L237:
 5121               	.LM503:
 5122 1718 C901      		movw r24,r18
 5123 171a A4E0      		ldi r26,4
 5124 171c 880F      	1:	lsl r24
 5125 171e 991F      		rol r25
 5126 1720 AA95      		dec r26
 5127 1722 01F4      		brne 1b
 5128 1724 820F      		add r24,r18
 5129 1726 931F      		adc r25,r19
 5130 1728 E80F      		add r30,r24
 5131 172a F91F      		adc r31,r25
 5132 172c EC5A      		subi r30,lo8(-(84))
 5133 172e FF4F      		sbci r31,hi8(-(84))
 5134 1730 4083      		st Z,r20
 5135 1732 5183      		std Z+1,r21
 5136 1734 6283      		std Z+2,r22
 5137 1736 7383      		std Z+3,r23
 5138 1738 0895      		ret
 5139               	.LFE90:
 5141               	.global	Timebase_DownCounter_SS_Get_Period_Flag
 5143               	Timebase_DownCounter_SS_Get_Period_Flag:
 5144               	.LFB91:
 5145               	.LM504:
 5146               	.LVL302:
 5147               	/* prologue: function */
 5148               	/* frame size = 0 */
 5149               	.LM505:
 5150 173a E091 0000 		lds r30,Timebase
 5151 173e F091 0000 		lds r31,(Timebase)+1
 5152 1742 90E0      		ldi r25,lo8(0)
 5153               	.LVL303:
 5154 1744 9C01      		movw r18,r24
 5155 1746 44E0      		ldi r20,4
 5156 1748 220F      	1:	lsl r18
 5157 174a 331F      		rol r19
 5158 174c 4A95      		dec r20
 5159 174e 01F4      		brne 1b
 5160 1750 280F      		add r18,r24
 5161 1752 391F      		adc r19,r25
 5162 1754 E20F      		add r30,r18
 5163 1756 F31F      		adc r31,r19
 5164 1758 E95B      		subi r30,lo8(-(71))
 5165 175a FF4F      		sbci r31,hi8(-(71))
 5166 175c 8081      		ld r24,Z
 5167               	.LVL304:
 5168               	.LM506:
 5169 175e 8170      		andi r24,lo8(1)
 5170               	/* epilogue start */
 5171 1760 0895      		ret
 5172               	.LFE91:
 5174               	.global	Timebase_DownCounter_SS_Set_Period_Flag
 5176               	Timebase_DownCounter_SS_Set_Period_Flag:
 5177               	.LFB92:
 5178               	.LM507:
 5179               	.LVL305:
 5180               	/* prologue: function */
 5181               	/* frame size = 0 */
 5182               	.LM508:
 5183 1762 E091 0000 		lds r30,Timebase
 5184 1766 F091 0000 		lds r31,(Timebase)+1
 5185 176a 90E0      		ldi r25,lo8(0)
 5186               	.LVL306:
 5187 176c 9C01      		movw r18,r24
 5188 176e 54E0      		ldi r21,4
 5189 1770 220F      	1:	lsl r18
 5190 1772 331F      		rol r19
 5191 1774 5A95      		dec r21
 5192 1776 01F4      		brne 1b
 5193 1778 280F      		add r18,r24
 5194 177a 391F      		adc r19,r25
 5195 177c E20F      		add r30,r18
 5196 177e F31F      		adc r31,r19
 5197 1780 E95B      		subi r30,lo8(-(71))
 5198 1782 FF4F      		sbci r31,hi8(-(71))
 5199 1784 8081      		ld r24,Z
 5200               	.LVL307:
 5201 1786 8160      		ori r24,lo8(1)
 5202 1788 8083      		st Z,r24
 5203               	/* epilogue start */
 5204               	.LM509:
 5205 178a 0895      		ret
 5206               	.LFE92:
 5208               	.global	Timebase_DownCounter_SS_Clear_Period_Flag
 5210               	Timebase_DownCounter_SS_Clear_Period_Flag:
 5211               	.LFB93:
 5212               	.LM510:
 5213               	.LVL308:
 5214               	/* prologue: function */
 5215               	/* frame size = 0 */
 5216               	.LM511:
 5217 178c E091 0000 		lds r30,Timebase
 5218 1790 F091 0000 		lds r31,(Timebase)+1
 5219 1794 90E0      		ldi r25,lo8(0)
 5220               	.LVL309:
 5221 1796 9C01      		movw r18,r24
 5222 1798 64E0      		ldi r22,4
 5223 179a 220F      	1:	lsl r18
 5224 179c 331F      		rol r19
 5225 179e 6A95      		dec r22
 5226 17a0 01F4      		brne 1b
 5227 17a2 280F      		add r18,r24
 5228 17a4 391F      		adc r19,r25
 5229 17a6 E20F      		add r30,r18
 5230 17a8 F31F      		adc r31,r19
 5231 17aa E95B      		subi r30,lo8(-(71))
 5232 17ac FF4F      		sbci r31,hi8(-(71))
 5233 17ae 8081      		ld r24,Z
 5234               	.LVL310:
 5235 17b0 8E7F      		andi r24,lo8(-2)
 5236 17b2 8083      		st Z,r24
 5237               	/* epilogue start */
 5238               	.LM512:
 5239 17b4 0895      		ret
 5240               	.LFE93:
 5242               	.global	Timebase_DownCounter_SS_Reset
 5244               	Timebase_DownCounter_SS_Reset:
 5245               	.LFB94:
 5246               	.LM513:
 5247               	.LVL311:
 5248               	/* prologue: function */
 5249               	/* frame size = 0 */
 5250               	.LBB847:
 5251               	.LBB848:
 5252               	.LM514:
 5253 17b6 E091 0000 		lds r30,Timebase
 5254 17ba F091 0000 		lds r31,(Timebase)+1
 5255 17be 90E0      		ldi r25,lo8(0)
 5256 17c0 9C01      		movw r18,r24
 5257               	.LVL312:
 5258 17c2 74E0      		ldi r23,4
 5259 17c4 220F      	1:	lsl r18
 5260 17c6 331F      		rol r19
 5261 17c8 7A95      		dec r23
 5262 17ca 01F4      		brne 1b
 5263 17cc 280F      		add r18,r24
 5264 17ce 391F      		adc r19,r25
 5265 17d0 E20F      		add r30,r18
 5266 17d2 F31F      		adc r31,r19
 5267 17d4 E45B      		subi r30,lo8(-(76))
 5268 17d6 FF4F      		sbci r31,hi8(-(76))
 5269 17d8 1082      		st Z,__zero_reg__
 5270 17da 1182      		std Z+1,__zero_reg__
 5271 17dc 1282      		std Z+2,__zero_reg__
 5272 17de 1382      		std Z+3,__zero_reg__
 5273               	.LBE848:
 5274               	.LBE847:
 5275               	.LBB849:
 5276               	.LBB850:
 5277               	.LM515:
 5278 17e0 1292      		st -Z,__zero_reg__
 5279 17e2 1292      		st -Z,__zero_reg__
 5280 17e4 1292      		st -Z,__zero_reg__
 5281 17e6 1292      		st -Z,__zero_reg__
 5282               	.LBE850:
 5283               	.LBE849:
 5284               	.LBB851:
 5285               	.LBB852:
 5286               	.LM516:
 5287 17e8 3896      		adiw r30,8
 5288 17ea 1082      		st Z,__zero_reg__
 5289 17ec 1182      		std Z+1,__zero_reg__
 5290 17ee 1282      		std Z+2,__zero_reg__
 5291 17f0 1382      		std Z+3,__zero_reg__
 5292               	.LBE852:
 5293               	.LBE851:
 5294               	.LBB853:
 5295               	.LBB854:
 5296               	.LM517:
 5297 17f2 3997      		sbiw r30,9
 5298 17f4 8081      		ld r24,Z
 5299               	.LBE854:
 5300               	.LBE853:
 5301               	.LBB855:
 5302               	.LBB856:
 5303               	.LM518:
 5304 17f6 807E      		andi r24,lo8(-32)
 5305 17f8 8083      		st Z,r24
 5306               	/* epilogue start */
 5307               	.LBE856:
 5308               	.LBE855:
 5309               	.LM519:
 5310 17fa 0895      		ret
 5311               	.LFE94:
 5313               	.global	Timebase_DownCounter_SS_Clear_All_Flags
 5315               	Timebase_DownCounter_SS_Clear_All_Flags:
 5316               	.LFB95:
 5317               	.LM520:
 5318               	.LVL313:
 5319               	/* prologue: function */
 5320               	/* frame size = 0 */
 5321               	.LBB857:
 5322               	.LBB858:
 5323               	.LBB859:
 5324               	.LBB860:
 5325               	.LM521:
 5326 17fc E091 0000 		lds r30,Timebase
 5327 1800 F091 0000 		lds r31,(Timebase)+1
 5328 1804 90E0      		ldi r25,lo8(0)
 5329 1806 9C01      		movw r18,r24
 5330               	.LVL314:
 5331 1808 A4E0      		ldi r26,4
 5332 180a 220F      	1:	lsl r18
 5333 180c 331F      		rol r19
 5334 180e AA95      		dec r26
 5335 1810 01F4      		brne 1b
 5336 1812 280F      		add r18,r24
 5337 1814 391F      		adc r19,r25
 5338 1816 E20F      		add r30,r18
 5339 1818 F31F      		adc r31,r19
 5340 181a E45B      		subi r30,lo8(-(76))
 5341 181c FF4F      		sbci r31,hi8(-(76))
 5342 181e 1082      		st Z,__zero_reg__
 5343 1820 1182      		std Z+1,__zero_reg__
 5344 1822 1282      		std Z+2,__zero_reg__
 5345 1824 1382      		std Z+3,__zero_reg__
 5346               	.LBE860:
 5347               	.LBE859:
 5348               	.LBB861:
 5349               	.LBB862:
 5350               	.LM522:
 5351 1826 1292      		st -Z,__zero_reg__
 5352 1828 1292      		st -Z,__zero_reg__
 5353 182a 1292      		st -Z,__zero_reg__
 5354 182c 1292      		st -Z,__zero_reg__
 5355               	.LBE862:
 5356               	.LBE861:
 5357               	.LBB863:
 5358               	.LBB864:
 5359               	.LM523:
 5360 182e 3896      		adiw r30,8
 5361 1830 1082      		st Z,__zero_reg__
 5362 1832 1182      		std Z+1,__zero_reg__
 5363 1834 1282      		std Z+2,__zero_reg__
 5364 1836 1382      		std Z+3,__zero_reg__
 5365               	.LBE864:
 5366               	.LBE863:
 5367               	.LBB865:
 5368               	.LBB866:
 5369               	.LM524:
 5370 1838 3997      		sbiw r30,9
 5371 183a 8081      		ld r24,Z
 5372               	.LBE866:
 5373               	.LBE865:
 5374               	.LBB867:
 5375               	.LBB868:
 5376               	.LM525:
 5377 183c 807E      		andi r24,lo8(-32)
 5378 183e 8083      		st Z,r24
 5379               	/* epilogue start */
 5380               	.LBE868:
 5381               	.LBE867:
 5382               	.LBE858:
 5383               	.LBE857:
 5384               	.LM526:
 5385 1840 0895      		ret
 5386               	.LFE95:
 5388               	.global	Timebase_DownCounter_SS_Start
 5390               	Timebase_DownCounter_SS_Start:
 5391               	.LFB96:
 5392               	.LM527:
 5393               	.LVL315:
 5394               	/* prologue: function */
 5395               	/* frame size = 0 */
 5396               	.LBB869:
 5397               	.LBB870:
 5398               	.LM528:
 5399 1842 E091 0000 		lds r30,Timebase
 5400 1846 F091 0000 		lds r31,(Timebase)+1
 5401 184a 90E0      		ldi r25,lo8(0)
 5402               	.LBE870:
 5403               	.LBE869:
 5404               	.LM529:
 5405 184c 9C01      		movw r18,r24
 5406               	.LVL316:
 5407 184e B4E0      		ldi r27,4
 5408 1850 220F      	1:	lsl r18
 5409 1852 331F      		rol r19
 5410 1854 BA95      		dec r27
 5411 1856 01F4      		brne 1b
 5412 1858 280F      		add r18,r24
 5413 185a 391F      		adc r19,r25
 5414 185c E20F      		add r30,r18
 5415 185e F31F      		adc r31,r19
 5416 1860 E95B      		subi r30,lo8(-(71))
 5417 1862 FF4F      		sbci r31,hi8(-(71))
 5418 1864 9081      		ld r25,Z
 5419 1866 892F      		mov r24,r25
 5420 1868 8695      		lsr r24
 5421 186a 8F70      		andi r24,lo8(15)
 5422 186c 8130      		cpi r24,lo8(1)
 5423 186e 01F0      		breq .L252
 5424               	.LBB871:
 5425               	.LBB872:
 5426               	.LM530:
 5427 1870 917E      		andi r25,lo8(-31)
 5428 1872 9260      		ori r25,lo8(2)
 5429 1874 9083      		st Z,r25
 5430               	.L252:
 5431 1876 0895      		ret
 5432               	.LBE872:
 5433               	.LBE871:
 5434               	.LFE96:
 5436               	.global	Timebase_DownCounter_SS_Stop
 5438               	Timebase_DownCounter_SS_Stop:
 5439               	.LFB97:
 5440               	.LM531:
 5441               	.LVL317:
 5442               	/* prologue: function */
 5443               	/* frame size = 0 */
 5444               	.LBB873:
 5445               	.LBB874:
 5446               	.LM532:
 5447 1878 E091 0000 		lds r30,Timebase
 5448 187c F091 0000 		lds r31,(Timebase)+1
 5449 1880 90E0      		ldi r25,lo8(0)
 5450               	.LBE874:
 5451               	.LBE873:
 5452               	.LM533:
 5453 1882 9C01      		movw r18,r24
 5454               	.LVL318:
 5455 1884 44E0      		ldi r20,4
 5456 1886 220F      	1:	lsl r18
 5457 1888 331F      		rol r19
 5458 188a 4A95      		dec r20
 5459 188c 01F4      		brne 1b
 5460 188e 280F      		add r18,r24
 5461 1890 391F      		adc r19,r25
 5462 1892 E20F      		add r30,r18
 5463 1894 F31F      		adc r31,r19
 5464 1896 E95B      		subi r30,lo8(-(71))
 5465 1898 FF4F      		sbci r31,hi8(-(71))
 5466 189a 9081      		ld r25,Z
 5467 189c 892F      		mov r24,r25
 5468 189e 8695      		lsr r24
 5469 18a0 8F70      		andi r24,lo8(15)
 5470 18a2 8230      		cpi r24,lo8(2)
 5471 18a4 01F0      		breq .L255
 5472               	.LBB875:
 5473               	.LBB876:
 5474               	.LM534:
 5475 18a6 917E      		andi r25,lo8(-31)
 5476 18a8 9460      		ori r25,lo8(4)
 5477 18aa 9083      		st Z,r25
 5478               	.L255:
 5479 18ac 0895      		ret
 5480               	.LBE876:
 5481               	.LBE875:
 5482               	.LFE97:
 5484               	.global	Timebase_DownCounter_SS_Set_Securely
 5486               	Timebase_DownCounter_SS_Set_Securely:
 5487               	.LFB98:
 5488               	.LM535:
 5489               	.LVL319:
 5490 18ae 2F92      		push r2
 5491 18b0 3F92      		push r3
 5492 18b2 4F92      		push r4
 5493 18b4 5F92      		push r5
 5494 18b6 6F92      		push r6
 5495 18b8 7F92      		push r7
 5496 18ba 8F92      		push r8
 5497 18bc 9F92      		push r9
 5498 18be AF92      		push r10
 5499 18c0 BF92      		push r11
 5500 18c2 CF92      		push r12
 5501 18c4 DF92      		push r13
 5502 18c6 EF92      		push r14
 5503 18c8 FF92      		push r15
 5504 18ca 0F93      		push r16
 5505 18cc 1F93      		push r17
 5506 18ce DF93      		push r29
 5507 18d0 CF93      		push r28
 5508 18d2 00D0      		rcall .
 5509 18d4 00D0      		rcall .
 5510 18d6 CDB7      		in r28,__SP_L__
 5511 18d8 DEB7      		in r29,__SP_H__
 5512               	/* prologue: function */
 5513               	/* frame size = 4 */
 5514 18da 4A01      		movw r8,r20
 5515 18dc 5B01      		movw r10,r22
 5516               	.LBB877:
 5517               	.LBB878:
 5518               	.LM536:
 5519 18de 2091 0000 		lds r18,Timebase
 5520 18e2 3091 0000 		lds r19,(Timebase)+1
 5521 18e6 3C83      		std Y+4,r19
 5522 18e8 2B83      		std Y+3,r18
 5523 18ea A82F      		mov r26,r24
 5524 18ec B0E0      		ldi r27,lo8(0)
 5525 18ee BA83      		std Y+2,r27
 5526 18f0 A983      		std Y+1,r26
 5527               	.LBE878:
 5528               	.LBE877:
 5529               	.LM537:
 5530 18f2 FD01      		movw r30,r26
 5531 18f4 64E0      		ldi r22,4
 5532 18f6 EE0F      	1:	lsl r30
 5533 18f8 FF1F      		rol r31
 5534 18fa 6A95      		dec r22
 5535 18fc 01F4      		brne 1b
 5536 18fe EA0F      		add r30,r26
 5537 1900 FB1F      		adc r31,r27
 5538 1902 E20F      		add r30,r18
 5539 1904 F31F      		adc r31,r19
 5540 1906 E95B      		subi r30,lo8(-(71))
 5541 1908 FF4F      		sbci r31,hi8(-(71))
 5542 190a 8081      		ld r24,Z
 5543               	.LVL320:
 5544 190c E754      		subi r30,lo8(-(-71))
 5545 190e F040      		sbci r31,hi8(-(-71))
 5546 1910 8695      		lsr r24
 5547 1912 8F70      		andi r24,lo8(15)
 5548 1914 01F0      		breq .+2
 5549 1916 00C0      		rjmp .L259
 5550               	.LVL321:
 5551               	.LBB879:
 5552               	.LBB880:
 5553               	.LBB881:
 5554               	.LM538:
 5555 1918 E05B      		subi r30,lo8(-(80))
 5556 191a FF4F      		sbci r31,hi8(-(80))
 5557 191c 8082      		st Z,r8
 5558 191e 9182      		std Z+1,r9
 5559 1920 A282      		std Z+2,r10
 5560 1922 B382      		std Z+3,r11
 5561               	.LBE881:
 5562               	.LBE880:
 5563               	.LBB882:
 5564               	.LBB883:
 5565               	.LBB884:
 5566               	.LBB885:
 5567               	.LM539:
 5568               	/* #APP */
 5569               	 ;  341 "timebase.c" 1
 5570 1924 F894      		cli
 5571               	 ;  0 "" 2
 5572               	/* #NOAPP */
 5573               	.LBE885:
 5574               	.LBE884:
 5575               	.LM540:
 5576 1926 F901      		movw r30,r18
 5577 1928 C084      		ldd r12,Z+8
 5578 192a D184      		ldd r13,Z+9
 5579               	.LVL322:
 5580               	.LBB886:
 5581               	.LBB887:
 5582               	.LM541:
 5583               	/* #APP */
 5584               	 ;  345 "timebase.c" 1
 5585 192c 7894      		sei
 5586               	 ;  0 "" 2
 5587               	/* #NOAPP */
 5588               	.LBE887:
 5589               	.LBE886:
 5590               	.LBE883:
 5591               	.LBE882:
 5592               	.LBB888:
 5593               	.LBB889:
 5594               	.LBB890:
 5595               	.LBB891:
 5596               	.LM542:
 5597               	/* #APP */
 5598               	 ;  341 "timebase.c" 1
 5599 192e F894      		cli
 5600               	 ;  0 "" 2
 5601               	/* #NOAPP */
 5602               	.LBE891:
 5603               	.LBE890:
 5604               	.LM543:
 5605 1930 2284      		ldd r2,Z+10
 5606 1932 3384      		ldd r3,Z+11
 5607 1934 4484      		ldd r4,Z+12
 5608 1936 5584      		ldd r5,Z+13
 5609               	.LVL323:
 5610               	.LBB892:
 5611               	.LBB893:
 5612               	.LM544:
 5613               	/* #APP */
 5614               	 ;  345 "timebase.c" 1
 5615 1938 7894      		sei
 5616               	 ;  0 "" 2
 5617               	/* #NOAPP */
 5618               	.LBE893:
 5619               	.LBE892:
 5620               	.LBE889:
 5621               	.LBE888:
 5622               	.LM545:
 5623 193a 2181      		ldd r18,Z+1
 5624 193c 3281      		ldd r19,Z+2
 5625 193e 40E0      		ldi r20,lo8(0)
 5626 1940 50E0      		ldi r21,hi8(0)
 5627 1942 C501      		movw r24,r10
 5628 1944 B401      		movw r22,r8
 5629 1946 0E94 0000 		call __divmodsi4
 5630 194a 7B01      		movw r14,r22
 5631 194c 8C01      		movw r16,r24
 5632               	.LM546:
 5633 194e AB81      		ldd r26,Y+3
 5634 1950 BC81      		ldd r27,Y+4
 5635 1952 1196      		adiw r26,1
 5636 1954 2D91      		ld r18,X+
 5637 1956 3C91      		ld r19,X
 5638 1958 1297      		sbiw r26,1+1
 5639 195a 40E0      		ldi r20,lo8(0)
 5640 195c 50E0      		ldi r21,hi8(0)
 5641 195e C501      		movw r24,r10
 5642 1960 B401      		movw r22,r8
 5643 1962 0E94 0000 		call __divmodsi4
 5644 1966 C901      		movw r24,r18
 5645 1968 DA01      		movw r26,r20
 5646 196a 3C01      		movw r6,r24
 5647 196c 4D01      		movw r8,r26
 5648               	.LVL324:
 5649               	.LM547:
 5650 196e 5601      		movw r10,r12
 5651               	.LVL325:
 5652 1970 CC24      		clr r12
 5653 1972 DD24      		clr r13
 5654               	.LVL326:
 5655 1974 AE0C      		add r10,r14
 5656 1976 BF1C      		adc r11,r15
 5657 1978 C01E      		adc r12,r16
 5658 197a D11E      		adc r13,r17
 5659               	.LVL327:
 5660               	.LM548:
 5661 197c EB81      		ldd r30,Y+3
 5662 197e FC81      		ldd r31,Y+4
 5663 1980 8181      		ldd r24,Z+1
 5664 1982 9281      		ldd r25,Z+2
 5665               	.LVL328:
 5666 1984 A0E0      		ldi r26,lo8(0)
 5667 1986 B0E0      		ldi r27,hi8(0)
 5668 1988 A816      		cp r10,r24
 5669 198a B906      		cpc r11,r25
 5670 198c CA06      		cpc r12,r26
 5671 198e DB06      		cpc r13,r27
 5672 1990 04F0      		brlt .L258
 5673               	.LM549:
 5674 1992 0894      		sec
 5675 1994 611C      		adc r6,__zero_reg__
 5676 1996 711C      		adc r7,__zero_reg__
 5677 1998 811C      		adc r8,__zero_reg__
 5678 199a 911C      		adc r9,__zero_reg__
 5679               	.LM550:
 5680 199c 2181      		ldd r18,Z+1
 5681 199e 3281      		ldd r19,Z+2
 5682 19a0 40E0      		ldi r20,lo8(0)
 5683 19a2 50E0      		ldi r21,hi8(0)
 5684 19a4 C601      		movw r24,r12
 5685 19a6 B501      		movw r22,r10
 5686 19a8 0E94 0000 		call __divmodsi4
 5687 19ac AC01      		movw r20,r24
 5688 19ae CB01      		movw r24,r22
 5689 19b0 DA01      		movw r26,r20
 5690 19b2 5C01      		movw r10,r24
 5691 19b4 6D01      		movw r12,r26
 5692               	.L258:
 5693               	.LBB894:
 5694               	.LBB895:
 5695               	.LM551:
 5696 19b6 E981      		ldd r30,Y+1
 5697 19b8 FA81      		ldd r31,Y+2
 5698 19ba 54E0      		ldi r21,4
 5699 19bc EE0F      	1:	lsl r30
 5700 19be FF1F      		rol r31
 5701 19c0 5A95      		dec r21
 5702 19c2 01F4      		brne 1b
 5703 19c4 2981      		ldd r18,Y+1
 5704 19c6 3A81      		ldd r19,Y+2
 5705 19c8 E20F      		add r30,r18
 5706 19ca F31F      		adc r31,r19
 5707 19cc 8B81      		ldd r24,Y+3
 5708 19ce 9C81      		ldd r25,Y+4
 5709 19d0 E80F      		add r30,r24
 5710 19d2 F91F      		adc r31,r25
 5711 19d4 E85B      		subi r30,lo8(-(72))
 5712 19d6 FF4F      		sbci r31,hi8(-(72))
 5713 19d8 260C      		add r2,r6
 5714 19da 371C      		adc r3,r7
 5715 19dc 481C      		adc r4,r8
 5716 19de 591C      		adc r5,r9
 5717 19e0 2192      		st Z+,r2
 5718 19e2 3192      		st Z+,r3
 5719 19e4 4192      		st Z+,r4
 5720 19e6 5192      		st Z+,r5
 5721               	.LBE895:
 5722               	.LBE894:
 5723               	.LBB896:
 5724               	.LBB897:
 5725               	.LM552:
 5726 19e8 A082      		st Z,r10
 5727 19ea B182      		std Z+1,r11
 5728 19ec C282      		std Z+2,r12
 5729 19ee D382      		std Z+3,r13
 5730               	.LBE897:
 5731               	.LBE896:
 5732               	.LBB898:
 5733               	.LBB899:
 5734               	.LM553:
 5735 19f0 3597      		sbiw r30,5
 5736 19f2 9081      		ld r25,Z
 5737 19f4 892F      		mov r24,r25
 5738 19f6 8695      		lsr r24
 5739 19f8 8F70      		andi r24,lo8(15)
 5740 19fa 8130      		cpi r24,lo8(1)
 5741 19fc 01F0      		breq .L259
 5742               	.LBB900:
 5743               	.LBB901:
 5744               	.LM554:
 5745 19fe 917E      		andi r25,lo8(-31)
 5746 1a00 9260      		ori r25,lo8(2)
 5747 1a02 9083      		st Z,r25
 5748               	.LVL329:
 5749               	.L259:
 5750               	/* epilogue start */
 5751               	.LBE901:
 5752               	.LBE900:
 5753               	.LBE899:
 5754               	.LBE898:
 5755               	.LBE879:
 5756               	.LM555:
 5757 1a04 0F90      		pop __tmp_reg__
 5758 1a06 0F90      		pop __tmp_reg__
 5759 1a08 0F90      		pop __tmp_reg__
 5760 1a0a 0F90      		pop __tmp_reg__
 5761 1a0c CF91      		pop r28
 5762 1a0e DF91      		pop r29
 5763 1a10 1F91      		pop r17
 5764 1a12 0F91      		pop r16
 5765 1a14 FF90      		pop r15
 5766 1a16 EF90      		pop r14
 5767 1a18 DF90      		pop r13
 5768 1a1a CF90      		pop r12
 5769               	.LVL330:
 5770 1a1c BF90      		pop r11
 5771 1a1e AF90      		pop r10
 5772               	.LVL331:
 5773 1a20 9F90      		pop r9
 5774 1a22 8F90      		pop r8
 5775               	.LVL332:
 5776 1a24 7F90      		pop r7
 5777 1a26 6F90      		pop r6
 5778               	.LVL333:
 5779 1a28 5F90      		pop r5
 5780 1a2a 4F90      		pop r4
 5781 1a2c 3F90      		pop r3
 5782 1a2e 2F90      		pop r2
 5783               	.LVL334:
 5784 1a30 0895      		ret
 5785               	.LFE98:
 5787               	.global	Timebase_DownCounter_SS_Set_Forcefully
 5789               	Timebase_DownCounter_SS_Set_Forcefully:
 5790               	.LFB99:
 5791               	.LM556:
 5792               	.LVL335:
 5793               	/* prologue: function */
 5794               	/* frame size = 0 */
 5795               	.LBB902:
 5796               	.LBB903:
 5797               	.LBB904:
 5798               	.LBB905:
 5799               	.LM557:
 5800 1a32 E091 0000 		lds r30,Timebase
 5801 1a36 F091 0000 		lds r31,(Timebase)+1
 5802 1a3a A82F      		mov r26,r24
 5803 1a3c B0E0      		ldi r27,lo8(0)
 5804 1a3e 9D01      		movw r18,r26
 5805 1a40 94E0      		ldi r25,4
 5806 1a42 220F      	1:	lsl r18
 5807 1a44 331F      		rol r19
 5808 1a46 9A95      		dec r25
 5809 1a48 01F4      		brne 1b
 5810 1a4a 2A0F      		add r18,r26
 5811 1a4c 3B1F      		adc r19,r27
 5812 1a4e E20F      		add r30,r18
 5813 1a50 F31F      		adc r31,r19
 5814 1a52 E45B      		subi r30,lo8(-(76))
 5815 1a54 FF4F      		sbci r31,hi8(-(76))
 5816 1a56 1082      		st Z,__zero_reg__
 5817 1a58 1182      		std Z+1,__zero_reg__
 5818 1a5a 1282      		std Z+2,__zero_reg__
 5819 1a5c 1382      		std Z+3,__zero_reg__
 5820               	.LBE905:
 5821               	.LBE904:
 5822               	.LBB906:
 5823               	.LBB907:
 5824               	.LM558:
 5825 1a5e 1292      		st -Z,__zero_reg__
 5826 1a60 1292      		st -Z,__zero_reg__
 5827 1a62 1292      		st -Z,__zero_reg__
 5828 1a64 1292      		st -Z,__zero_reg__
 5829               	.LBE907:
 5830               	.LBE906:
 5831               	.LBB908:
 5832               	.LBB909:
 5833               	.LM559:
 5834 1a66 3896      		adiw r30,8
 5835 1a68 1082      		st Z,__zero_reg__
 5836 1a6a 1182      		std Z+1,__zero_reg__
 5837 1a6c 1282      		std Z+2,__zero_reg__
 5838 1a6e 1382      		std Z+3,__zero_reg__
 5839               	.LBE909:
 5840               	.LBE908:
 5841               	.LBB910:
 5842               	.LBB911:
 5843               	.LM560:
 5844 1a70 3997      		sbiw r30,9
 5845 1a72 9081      		ld r25,Z
 5846               	.LBE911:
 5847               	.LBE910:
 5848               	.LBB912:
 5849               	.LBB913:
 5850               	.LM561:
 5851 1a74 907E      		andi r25,lo8(-32)
 5852 1a76 9083      		st Z,r25
 5853               	.LBE913:
 5854               	.LBE912:
 5855               	.LBE903:
 5856               	.LBE902:
 5857               	.LM562:
 5858 1a78 0E94 0000 		call Timebase_DownCounter_SS_Set_Securely
 5859               	.LVL336:
 5860               	/* epilogue start */
 5861               	.LM563:
 5862 1a7c 0895      		ret
 5863               	.LFE99:
 5865               	.global	Timebase_DownCounter_SS_Update
 5867               	Timebase_DownCounter_SS_Update:
 5868               	.LFB100:
 5869               	.LM564:
 5870               	.LVL337:
 5871 1a7e 4F92      		push r4
 5872 1a80 5F92      		push r5
 5873 1a82 6F92      		push r6
 5874 1a84 7F92      		push r7
 5875 1a86 8F92      		push r8
 5876 1a88 9F92      		push r9
 5877 1a8a AF92      		push r10
 5878 1a8c BF92      		push r11
 5879 1a8e CF92      		push r12
 5880 1a90 DF92      		push r13
 5881 1a92 EF92      		push r14
 5882 1a94 FF92      		push r15
 5883 1a96 0F93      		push r16
 5884 1a98 1F93      		push r17
 5885 1a9a DF93      		push r29
 5886 1a9c CF93      		push r28
 5887 1a9e 00D0      		rcall .
 5888 1aa0 00D0      		rcall .
 5889 1aa2 CDB7      		in r28,__SP_L__
 5890 1aa4 DEB7      		in r29,__SP_H__
 5891               	/* prologue: function */
 5892               	/* frame size = 4 */
 5893               	.LBB914:
 5894               	.LBB915:
 5895               	.LM565:
 5896 1aa6 6090 0000 		lds r6,Timebase
 5897 1aaa 7090 0000 		lds r7,(Timebase)+1
 5898 1aae C82E      		mov r12,r24
 5899 1ab0 DD24      		clr r13
 5900 1ab2 F601      		movw r30,r12
 5901 1ab4 54E0      		ldi r21,4
 5902 1ab6 EE0F      	1:	lsl r30
 5903 1ab8 FF1F      		rol r31
 5904 1aba 5A95      		dec r21
 5905 1abc 01F4      		brne 1b
 5906 1abe EC0D      		add r30,r12
 5907 1ac0 FD1D      		adc r31,r13
 5908 1ac2 E60D      		add r30,r6
 5909 1ac4 F71D      		adc r31,r7
 5910 1ac6 E95B      		subi r30,lo8(-(71))
 5911 1ac8 FF4F      		sbci r31,hi8(-(71))
 5912 1aca E081      		ld r30,Z
 5913 1acc E695      		lsr r30
 5914 1ace EF70      		andi r30,lo8(15)
 5915               	.LBE915:
 5916               	.LBE914:
 5917               	.LM566:
 5918 1ad0 E130      		cpi r30,lo8(1)
 5919 1ad2 01F0      		breq .+2
 5920 1ad4 00C0      		rjmp .L263
 5921               	.LBB916:
 5922               	.LBB917:
 5923               	.LBB918:
 5924               	.LBB919:
 5925               	.LBB920:
 5926               	.LM567:
 5927               	/* #APP */
 5928               	 ;  341 "timebase.c" 1
 5929 1ad6 F894      		cli
 5930               	 ;  0 "" 2
 5931               	/* #NOAPP */
 5932               	.LBE920:
 5933               	.LBE919:
 5934               	.LM568:
 5935 1ad8 D301      		movw r26,r6
 5936 1ada 1896      		adiw r26,8
 5937 1adc 8D91      		ld r24,X+
 5938 1ade 9C91      		ld r25,X
 5939 1ae0 1997      		sbiw r26,8+1
 5940               	.LVL338:
 5941               	.LBB921:
 5942               	.LBB922:
 5943               	.LM569:
 5944               	/* #APP */
 5945               	 ;  345 "timebase.c" 1
 5946 1ae2 7894      		sei
 5947               	 ;  0 "" 2
 5948               	/* #NOAPP */
 5949               	.LBE922:
 5950               	.LBE921:
 5951               	.LBE918:
 5952               	.LBE917:
 5953               	.LM570:
 5954 1ae4 4C01      		movw r8,r24
 5955               	.LVL339:
 5956 1ae6 AA24      		clr r10
 5957 1ae8 BB24      		clr r11
 5958               	.LVL340:
 5959               	.LBB923:
 5960               	.LBB924:
 5961               	.LBB925:
 5962               	.LBB926:
 5963               	.LM571:
 5964               	/* #APP */
 5965               	 ;  341 "timebase.c" 1
 5966 1aea F894      		cli
 5967               	 ;  0 "" 2
 5968               	/* #NOAPP */
 5969               	.LBE926:
 5970               	.LBE925:
 5971               	.LM572:
 5972 1aec F301      		movw r30,r6
 5973 1aee 8285      		ldd r24,Z+10
 5974 1af0 9385      		ldd r25,Z+11
 5975 1af2 A485      		ldd r26,Z+12
 5976 1af4 B585      		ldd r27,Z+13
 5977               	.LVL341:
 5978               	.LBB927:
 5979               	.LBB928:
 5980               	.LM573:
 5981               	/* #APP */
 5982               	 ;  345 "timebase.c" 1
 5983 1af6 7894      		sei
 5984               	 ;  0 "" 2
 5985               	/* #NOAPP */
 5986               	.LBE928:
 5987               	.LBE927:
 5988               	.LBE924:
 5989               	.LBE923:
 5990               	.LM574:
 5991 1af8 F601      		movw r30,r12
 5992 1afa 44E0      		ldi r20,4
 5993 1afc EE0F      	1:	lsl r30
 5994 1afe FF1F      		rol r31
 5995 1b00 4A95      		dec r20
 5996 1b02 01F4      		brne 1b
 5997 1b04 EC0D      		add r30,r12
 5998 1b06 FD1D      		adc r31,r13
 5999 1b08 E60D      		add r30,r6
 6000 1b0a F71D      		adc r31,r7
 6001 1b0c E85B      		subi r30,lo8(-(72))
 6002 1b0e FF4F      		sbci r31,hi8(-(72))
 6003 1b10 E080      		ld r14,Z
 6004 1b12 F180      		ldd r15,Z+1
 6005 1b14 0281      		ldd r16,Z+2
 6006 1b16 1381      		ldd r17,Z+3
 6007               	.LVL342:
 6008 1b18 E81A      		sub r14,r24
 6009 1b1a F90A      		sbc r15,r25
 6010 1b1c 0A0B      		sbc r16,r26
 6011 1b1e 1B0B      		sbc r17,r27
 6012 1b20 17FF      		sbrs r17,7
 6013 1b22 00C0      		rjmp .L264
 6014 1b24 EE24      		clr r14
 6015 1b26 FF24      		clr r15
 6016 1b28 8701      		movw r16,r14
 6017               	.L264:
 6018               	.LM575:
 6019 1b2a D301      		movw r26,r6
 6020 1b2c 1196      		adiw r26,1
 6021 1b2e 2D91      		ld r18,X+
 6022 1b30 3C91      		ld r19,X
 6023 1b32 1297      		sbiw r26,1+1
 6024 1b34 40E0      		ldi r20,lo8(0)
 6025 1b36 50E0      		ldi r21,hi8(0)
 6026 1b38 C801      		movw r24,r16
 6027 1b3a B701      		movw r22,r14
 6028 1b3c 0E94 0000 		call __mulsi3
 6029               	.LM576:
 6030 1b40 F601      		movw r30,r12
 6031 1b42 34E0      		ldi r19,4
 6032 1b44 EE0F      	1:	lsl r30
 6033 1b46 FF1F      		rol r31
 6034 1b48 3A95      		dec r19
 6035 1b4a 01F4      		brne 1b
 6036 1b4c EC0D      		add r30,r12
 6037 1b4e FD1D      		adc r31,r13
 6038 1b50 E60D      		add r30,r6
 6039 1b52 F71D      		adc r31,r7
 6040 1b54 8F01      		movw r16,r30
 6041 1b56 045B      		subi r16,lo8(-(76))
 6042 1b58 1F4F      		sbci r17,hi8(-(76))
 6043 1b5a D801      		movw r26,r16
 6044 1b5c 2D91      		ld r18,X+
 6045 1b5e 3D91      		ld r19,X+
 6046 1b60 4D91      		ld r20,X+
 6047 1b62 5C91      		ld r21,X
 6048               	.LVL343:
 6049 1b64 2819      		sub r18,r8
 6050 1b66 3909      		sbc r19,r9
 6051 1b68 4A09      		sbc r20,r10
 6052 1b6a 5B09      		sbc r21,r11
 6053 1b6c 260F      		add r18,r22
 6054 1b6e 371F      		adc r19,r23
 6055 1b70 481F      		adc r20,r24
 6056 1b72 591F      		adc r21,r25
 6057               	.LBB929:
 6058               	.LBB930:
 6059               	.LM577:
 6060 1b74 CF01      		movw r24,r30
 6061 1b76 805B      		subi r24,lo8(-(80))
 6062 1b78 9F4F      		sbci r25,hi8(-(80))
 6063 1b7a DC01      		movw r26,r24
 6064 1b7c 2D93      		st X+,r18
 6065 1b7e 3D93      		st X+,r19
 6066 1b80 4D93      		st X+,r20
 6067 1b82 5C93      		st X,r21
 6068 1b84 1397      		sbiw r26,3
 6069               	.LBE930:
 6070               	.LBE929:
 6071               	.LM578:
 6072 1b86 1216      		cp __zero_reg__,r18
 6073 1b88 1306      		cpc __zero_reg__,r19
 6074 1b8a 1406      		cpc __zero_reg__,r20
 6075 1b8c 1506      		cpc __zero_reg__,r21
 6076 1b8e 04F4      		brge .+2
 6077 1b90 00C0      		rjmp .L266
 6078               	.LBB931:
 6079               	.LBB932:
 6080               	.LBB933:
 6081               	.LBB934:
 6082               	.LM579:
 6083 1b92 D801      		movw r26,r16
 6084 1b94 1D92      		st X+,__zero_reg__
 6085 1b96 1D92      		st X+,__zero_reg__
 6086 1b98 1D92      		st X+,__zero_reg__
 6087 1b9a 1C92      		st X,__zero_reg__
 6088 1b9c 1397      		sbiw r26,3
 6089               	.LBE934:
 6090               	.LBE933:
 6091               	.LBB935:
 6092               	.LBB936:
 6093               	.LM580:
 6094 1b9e E85B      		subi r30,lo8(-(72))
 6095 1ba0 FF4F      		sbci r31,hi8(-(72))
 6096 1ba2 1082      		st Z,__zero_reg__
 6097 1ba4 1182      		std Z+1,__zero_reg__
 6098 1ba6 1282      		std Z+2,__zero_reg__
 6099 1ba8 1382      		std Z+3,__zero_reg__
 6100               	.LBE936:
 6101               	.LBE935:
 6102               	.LBB937:
 6103               	.LBB938:
 6104               	.LM581:
 6105 1baa DC01      		movw r26,r24
 6106 1bac 1D92      		st X+,__zero_reg__
 6107 1bae 1D92      		st X+,__zero_reg__
 6108 1bb0 1D92      		st X+,__zero_reg__
 6109 1bb2 1C92      		st X,__zero_reg__
 6110 1bb4 1397      		sbiw r26,3
 6111               	.LBE938:
 6112               	.LBE937:
 6113               	.LBB939:
 6114               	.LBB940:
 6115               	.LM582:
 6116 1bb6 8291      		ld r24,-Z
 6117               	.LBE940:
 6118               	.LBE939:
 6119               	.LBE932:
 6120               	.LBE931:
 6121               	.LBB941:
 6122               	.LBB942:
 6123               	.LM583:
 6124 1bb8 807E      		andi r24,lo8(-32)
 6125 1bba 8860      		ori r24,lo8(8)
 6126 1bbc 8083      		st Z,r24
 6127 1bbe 00C0      		rjmp .L266
 6128               	.LVL344:
 6129               	.L263:
 6130               	.LBE942:
 6131               	.LBE941:
 6132               	.LBE916:
 6133               	.LM584:
 6134 1bc0 E230      		cpi r30,lo8(2)
 6135 1bc2 01F0      		breq .+2
 6136 1bc4 00C0      		rjmp .L266
 6137               	.LBB943:
 6138               	.LBB944:
 6139               	.LBB945:
 6140               	.LBB946:
 6141               	.LBB947:
 6142               	.LM585:
 6143               	/* #APP */
 6144               	 ;  341 "timebase.c" 1
 6145 1bc6 F894      		cli
 6146               	 ;  0 "" 2
 6147               	/* #NOAPP */
 6148               	.LBE947:
 6149               	.LBE946:
 6150               	.LM586:
 6151 1bc8 F301      		movw r30,r6
 6152 1bca 4084      		ldd r4,Z+8
 6153 1bcc 5184      		ldd r5,Z+9
 6154               	.LVL345:
 6155               	.LBB948:
 6156               	.LBB949:
 6157               	.LM587:
 6158               	/* #APP */
 6159               	 ;  345 "timebase.c" 1
 6160 1bce 7894      		sei
 6161               	 ;  0 "" 2
 6162               	/* #NOAPP */
 6163               	.LBE949:
 6164               	.LBE948:
 6165               	.LBE945:
 6166               	.LBE944:
 6167               	.LBB950:
 6168               	.LBB951:
 6169               	.LBB952:
 6170               	.LBB953:
 6171               	.LM588:
 6172               	/* #APP */
 6173               	 ;  341 "timebase.c" 1
 6174 1bd0 F894      		cli
 6175               	 ;  0 "" 2
 6176               	/* #NOAPP */
 6177               	.LBE953:
 6178               	.LBE952:
 6179               	.LM589:
 6180 1bd2 D301      		movw r26,r6
 6181 1bd4 1A96      		adiw r26,10
 6182 1bd6 8D90      		ld r8,X+
 6183 1bd8 9D90      		ld r9,X+
 6184 1bda AD90      		ld r10,X+
 6185 1bdc BC90      		ld r11,X
 6186 1bde 1D97      		sbiw r26,10+3
 6187               	.LVL346:
 6188               	.LBB954:
 6189               	.LBB955:
 6190               	.LM590:
 6191               	/* #APP */
 6192               	 ;  345 "timebase.c" 1
 6193 1be0 7894      		sei
 6194               	 ;  0 "" 2
 6195               	/* #NOAPP */
 6196               	.LBE955:
 6197               	.LBE954:
 6198               	.LBE951:
 6199               	.LBE950:
 6200               	.LBB956:
 6201               	.LBB957:
 6202               	.LM591:
 6203 1be2 8601      		movw r16,r12
 6204 1be4 24E0      		ldi r18,4
 6205 1be6 000F      	1:	lsl r16
 6206 1be8 111F      		rol r17
 6207 1bea 2A95      		dec r18
 6208 1bec 01F4      		brne 1b
 6209 1bee 0C0D      		add r16,r12
 6210 1bf0 1D1D      		adc r17,r13
 6211 1bf2 060D      		add r16,r6
 6212 1bf4 171D      		adc r17,r7
 6213 1bf6 005B      		subi r16,lo8(-(80))
 6214 1bf8 1F4F      		sbci r17,hi8(-(80))
 6215 1bfa D801      		movw r26,r16
 6216 1bfc 8D91      		ld r24,X+
 6217 1bfe 9D91      		ld r25,X+
 6218 1c00 0D90      		ld __tmp_reg__,X+
 6219 1c02 BC91      		ld r27,X
 6220 1c04 A02D      		mov r26,__tmp_reg__
 6221               	.LVL347:
 6222 1c06 8983      		std Y+1,r24
 6223 1c08 9A83      		std Y+2,r25
 6224 1c0a AB83      		std Y+3,r26
 6225 1c0c BC83      		std Y+4,r27
 6226               	.LVL348:
 6227               	.LBE957:
 6228               	.LBE956:
 6229               	.LM592:
 6230 1c0e F301      		movw r30,r6
 6231 1c10 2181      		ldd r18,Z+1
 6232 1c12 3281      		ldd r19,Z+2
 6233               	.LM593:
 6234 1c14 C180      		ldd r12,Z+1
 6235 1c16 D280      		ldd r13,Z+2
 6236               	.LBB958:
 6237               	.LBB959:
 6238               	.LM594:
 6239 1c18 0850      		subi r16,lo8(-(-8))
 6240 1c1a 1040      		sbci r17,hi8(-(-8))
 6241 1c1c 40E0      		ldi r20,lo8(0)
 6242 1c1e 50E0      		ldi r21,hi8(0)
 6243 1c20 BC01      		movw r22,r24
 6244 1c22 CD01      		movw r24,r26
 6245 1c24 0E94 0000 		call __divmodsi4
 6246 1c28 820E      		add r8,r18
 6247 1c2a 931E      		adc r9,r19
 6248 1c2c A41E      		adc r10,r20
 6249 1c2e B51E      		adc r11,r21
 6250 1c30 D801      		movw r26,r16
 6251 1c32 8D92      		st X+,r8
 6252 1c34 9D92      		st X+,r9
 6253 1c36 AD92      		st X+,r10
 6254 1c38 BD92      		st X+,r11
 6255 1c3a 8D01      		movw r16,r26
 6256               	.LBE959:
 6257               	.LBE958:
 6258               	.LBB960:
 6259               	.LBB961:
 6260               	.LM595:
 6261 1c3c EE24      		clr r14
 6262 1c3e FF24      		clr r15
 6263 1c40 6981      		ldd r22,Y+1
 6264 1c42 7A81      		ldd r23,Y+2
 6265 1c44 8B81      		ldd r24,Y+3
 6266 1c46 9C81      		ldd r25,Y+4
 6267 1c48 A701      		movw r20,r14
 6268 1c4a 9601      		movw r18,r12
 6269 1c4c 0E94 0000 		call __divmodsi4
 6270 1c50 6624      		clr r6
 6271 1c52 7724      		clr r7
 6272               	.LVL349:
 6273 1c54 460E      		add r4,r22
 6274 1c56 571E      		adc r5,r23
 6275 1c58 681E      		adc r6,r24
 6276 1c5a 791E      		adc r7,r25
 6277               	.LVL350:
 6278 1c5c F801      		movw r30,r16
 6279 1c5e 4082      		st Z,r4
 6280 1c60 5182      		std Z+1,r5
 6281 1c62 6282      		std Z+2,r6
 6282 1c64 7382      		std Z+3,r7
 6283               	.LVL351:
 6284               	.L266:
 6285               	/* epilogue start */
 6286               	.LBE961:
 6287               	.LBE960:
 6288               	.LBE943:
 6289               	.LM596:
 6290 1c66 0F90      		pop __tmp_reg__
 6291 1c68 0F90      		pop __tmp_reg__
 6292 1c6a 0F90      		pop __tmp_reg__
 6293 1c6c 0F90      		pop __tmp_reg__
 6294 1c6e CF91      		pop r28
 6295 1c70 DF91      		pop r29
 6296 1c72 1F91      		pop r17
 6297 1c74 0F91      		pop r16
 6298 1c76 FF90      		pop r15
 6299 1c78 EF90      		pop r14
 6300 1c7a DF90      		pop r13
 6301 1c7c CF90      		pop r12
 6302 1c7e BF90      		pop r11
 6303 1c80 AF90      		pop r10
 6304               	.LVL352:
 6305 1c82 9F90      		pop r9
 6306 1c84 8F90      		pop r8
 6307               	.LVL353:
 6308 1c86 7F90      		pop r7
 6309 1c88 6F90      		pop r6
 6310               	.LVL354:
 6311 1c8a 5F90      		pop r5
 6312 1c8c 4F90      		pop r4
 6313               	.LVL355:
 6314 1c8e 0895      		ret
 6315               	.LFE100:
 6317               	.global	Timebase_DownCounter_SS_Expired
 6319               	Timebase_DownCounter_SS_Expired:
 6320               	.LFB101:
 6321               	.LM597:
 6322               	.LVL356:
 6323               	/* prologue: function */
 6324               	/* frame size = 0 */
 6325               	.LM598:
 6326 1c90 40E0      		ldi r20,lo8(0)
 6327 1c92 E091 0000 		lds r30,Timebase
 6328 1c96 F091 0000 		lds r31,(Timebase)+1
 6329 1c9a 90E0      		ldi r25,lo8(0)
 6330               	.LVL357:
 6331 1c9c 9C01      		movw r18,r24
 6332 1c9e 64E0      		ldi r22,4
 6333 1ca0 220F      	1:	lsl r18
 6334 1ca2 331F      		rol r19
 6335 1ca4 6A95      		dec r22
 6336 1ca6 01F4      		brne 1b
 6337 1ca8 280F      		add r18,r24
 6338 1caa 391F      		adc r19,r25
 6339 1cac E20F      		add r30,r18
 6340 1cae F31F      		adc r31,r19
 6341 1cb0 E95B      		subi r30,lo8(-(71))
 6342 1cb2 FF4F      		sbci r31,hi8(-(71))
 6343 1cb4 8081      		ld r24,Z
 6344               	.LVL358:
 6345 1cb6 8695      		lsr r24
 6346 1cb8 8F70      		andi r24,lo8(15)
 6347 1cba 8430      		cpi r24,lo8(4)
 6348 1cbc 01F4      		brne .L268
 6349 1cbe 41E0      		ldi r20,lo8(1)
 6350               	.L268:
 6351               	.LM599:
 6352 1cc0 842F      		mov r24,r20
 6353               	/* epilogue start */
 6354 1cc2 0895      		ret
 6355               	.LFE101:
 6357               	.global	Timebase_DownCounter_SS_Expired_Event
 6359               	Timebase_DownCounter_SS_Expired_Event:
 6360               	.LFB102:
 6361               	.LM600:
 6362               	.LVL359:
 6363               	/* prologue: function */
 6364               	/* frame size = 0 */
 6365               	.LBB962:
 6366               	.LBB963:
 6367               	.LM601:
 6368 1cc4 E091 0000 		lds r30,Timebase
 6369 1cc8 F091 0000 		lds r31,(Timebase)+1
 6370 1ccc 90E0      		ldi r25,lo8(0)
 6371               	.LBE963:
 6372               	.LBE962:
 6373               	.LM602:
 6374 1cce 9C01      		movw r18,r24
 6375               	.LVL360:
 6376 1cd0 74E0      		ldi r23,4
 6377 1cd2 220F      	1:	lsl r18
 6378 1cd4 331F      		rol r19
 6379 1cd6 7A95      		dec r23
 6380 1cd8 01F4      		brne 1b
 6381 1cda 280F      		add r18,r24
 6382 1cdc 391F      		adc r19,r25
 6383 1cde E20F      		add r30,r18
 6384 1ce0 F31F      		adc r31,r19
 6385 1ce2 DF01      		movw r26,r30
 6386 1ce4 A95B      		subi r26,lo8(-(71))
 6387 1ce6 BF4F      		sbci r27,hi8(-(71))
 6388 1ce8 8C91      		ld r24,X
 6389 1cea 8695      		lsr r24
 6390 1cec 8F70      		andi r24,lo8(15)
 6391 1cee 8430      		cpi r24,lo8(4)
 6392 1cf0 01F0      		breq .L271
 6393 1cf2 80E0      		ldi r24,lo8(0)
 6394 1cf4 0895      		ret
 6395               	.L271:
 6396               	.LBB964:
 6397               	.LBB965:
 6398               	.LBB966:
 6399               	.LBB967:
 6400               	.LBB968:
 6401               	.LBB969:
 6402               	.LM603:
 6403 1cf6 E45B      		subi r30,lo8(-(76))
 6404 1cf8 FF4F      		sbci r31,hi8(-(76))
 6405 1cfa 1082      		st Z,__zero_reg__
 6406 1cfc 1182      		std Z+1,__zero_reg__
 6407 1cfe 1282      		std Z+2,__zero_reg__
 6408 1d00 1382      		std Z+3,__zero_reg__
 6409               	.LBE969:
 6410               	.LBE968:
 6411               	.LBB970:
 6412               	.LBB971:
 6413               	.LM604:
 6414 1d02 1292      		st -Z,__zero_reg__
 6415 1d04 1292      		st -Z,__zero_reg__
 6416 1d06 1292      		st -Z,__zero_reg__
 6417 1d08 1292      		st -Z,__zero_reg__
 6418               	.LBE971:
 6419               	.LBE970:
 6420               	.LBB972:
 6421               	.LBB973:
 6422               	.LM605:
 6423 1d0a 3896      		adiw r30,8
 6424 1d0c 1082      		st Z,__zero_reg__
 6425 1d0e 1182      		std Z+1,__zero_reg__
 6426 1d10 1282      		std Z+2,__zero_reg__
 6427 1d12 1382      		std Z+3,__zero_reg__
 6428               	.LBE973:
 6429               	.LBE972:
 6430               	.LBB974:
 6431               	.LBB975:
 6432               	.LM606:
 6433 1d14 8C91      		ld r24,X
 6434               	.LBE975:
 6435               	.LBE974:
 6436               	.LBB976:
 6437               	.LBB977:
 6438               	.LM607:
 6439 1d16 807E      		andi r24,lo8(-32)
 6440 1d18 8C93      		st X,r24
 6441 1d1a 81E0      		ldi r24,lo8(1)
 6442               	.LBE977:
 6443               	.LBE976:
 6444               	.LBE967:
 6445               	.LBE966:
 6446               	.LBE965:
 6447               	.LBE964:
 6448               	.LM608:
 6449 1d1c 0895      		ret
 6450               	.LFE102:
 6452               	.global	Timebase_DownCounter_SS_Set_Period_Value_Securely
 6454               	Timebase_DownCounter_SS_Set_Period_Value_Securely:
 6455               	.LFB103:
 6456               	.LM609:
 6457               	.LVL361:
 6458 1d1e CF93      		push r28
 6459 1d20 DF93      		push r29
 6460               	/* prologue: function */
 6461               	/* frame size = 0 */
 6462               	.LBB978:
 6463               	.LBB979:
 6464               	.LM610:
 6465 1d22 C091 0000 		lds r28,Timebase
 6466 1d26 D091 0000 		lds r29,(Timebase)+1
 6467 1d2a 282F      		mov r18,r24
 6468 1d2c 30E0      		ldi r19,lo8(0)
 6469               	.LBE979:
 6470               	.LBE978:
 6471               	.LM611:
 6472 1d2e F901      		movw r30,r18
 6473 1d30 B4E0      		ldi r27,4
 6474 1d32 EE0F      	1:	lsl r30
 6475 1d34 FF1F      		rol r31
 6476 1d36 BA95      		dec r27
 6477 1d38 01F4      		brne 1b
 6478 1d3a E20F      		add r30,r18
 6479 1d3c F31F      		adc r31,r19
 6480 1d3e EC0F      		add r30,r28
 6481 1d40 FD1F      		adc r31,r29
 6482 1d42 E95B      		subi r30,lo8(-(71))
 6483 1d44 FF4F      		sbci r31,hi8(-(71))
 6484 1d46 8081      		ld r24,Z
 6485               	.LVL362:
 6486 1d48 E754      		subi r30,lo8(-(-71))
 6487 1d4a F040      		sbci r31,hi8(-(-71))
 6488 1d4c 80FD      		sbrc r24,0
 6489 1d4e 00C0      		rjmp .L278
 6490               	.LM612:
 6491 1d50 E05B      		subi r30,lo8(-(80))
 6492 1d52 FF4F      		sbci r31,hi8(-(80))
 6493 1d54 8191      		ld r24,Z+
 6494 1d56 9191      		ld r25,Z+
 6495 1d58 A191      		ld r26,Z+
 6496 1d5a B191      		ld r27,Z+
 6497 1d5c 841B      		sub r24,r20
 6498 1d5e 950B      		sbc r25,r21
 6499 1d60 A60B      		sbc r26,r22
 6500 1d62 B70B      		sbc r27,r23
 6501               	.LBB980:
 6502               	.LBB981:
 6503               	.LM613:
 6504 1d64 B7FF      		sbrs r27,7
 6505 1d66 00C0      		rjmp .L276
 6506               	.LM614:
 6507 1d68 1082      		st Z,__zero_reg__
 6508 1d6a 1182      		std Z+1,__zero_reg__
 6509 1d6c 1282      		std Z+2,__zero_reg__
 6510 1d6e 1382      		std Z+3,__zero_reg__
 6511 1d70 00C0      		rjmp .L277
 6512               	.L276:
 6513               	.LM615:
 6514 1d72 8083      		st Z,r24
 6515 1d74 9183      		std Z+1,r25
 6516 1d76 A283      		std Z+2,r26
 6517 1d78 B383      		std Z+3,r27
 6518               	.L277:
 6519               	.LBE981:
 6520               	.LBE980:
 6521               	.LBB982:
 6522               	.LBB983:
 6523               	.LM616:
 6524 1d7a F901      		movw r30,r18
 6525 1d7c A4E0      		ldi r26,4
 6526 1d7e EE0F      	1:	lsl r30
 6527 1d80 FF1F      		rol r31
 6528 1d82 AA95      		dec r26
 6529 1d84 01F4      		brne 1b
 6530 1d86 E20F      		add r30,r18
 6531 1d88 F31F      		adc r31,r19
 6532 1d8a EC0F      		add r30,r28
 6533 1d8c FD1F      		adc r31,r29
 6534 1d8e E95B      		subi r30,lo8(-(71))
 6535 1d90 FF4F      		sbci r31,hi8(-(71))
 6536 1d92 8081      		ld r24,Z
 6537 1d94 8160      		ori r24,lo8(1)
 6538 1d96 8083      		st Z,r24
 6539               	.L278:
 6540               	/* epilogue start */
 6541               	.LBE983:
 6542               	.LBE982:
 6543               	.LM617:
 6544 1d98 DF91      		pop r29
 6545 1d9a CF91      		pop r28
 6546 1d9c 0895      		ret
 6547               	.LFE103:
 6549               	.global	Timebase_DownCounter_SS_Get_Remaining_Period_Value
 6551               	Timebase_DownCounter_SS_Get_Remaining_Period_Value:
 6552               	.LFB104:
 6553               	.LM618:
 6554               	.LVL363:
 6555               	/* prologue: function */
 6556               	/* frame size = 0 */
 6557               	.LBB984:
 6558               	.LBB985:
 6559               	.LM619:
 6560 1d9e E091 0000 		lds r30,Timebase
 6561 1da2 F091 0000 		lds r31,(Timebase)+1
 6562 1da6 90E0      		ldi r25,lo8(0)
 6563               	.LBE985:
 6564               	.LBE984:
 6565               	.LM620:
 6566 1da8 9C01      		movw r18,r24
 6567               	.LVL364:
 6568 1daa 44E0      		ldi r20,4
 6569 1dac 220F      	1:	lsl r18
 6570 1dae 331F      		rol r19
 6571 1db0 4A95      		dec r20
 6572 1db2 01F4      		brne 1b
 6573 1db4 280F      		add r18,r24
 6574 1db6 391F      		adc r19,r25
 6575 1db8 E20F      		add r30,r18
 6576 1dba F31F      		adc r31,r19
 6577 1dbc DF01      		movw r26,r30
 6578 1dbe AC5A      		subi r26,lo8(-(84))
 6579 1dc0 BF4F      		sbci r27,hi8(-(84))
 6580 1dc2 E05B      		subi r30,lo8(-(80))
 6581 1dc4 FF4F      		sbci r31,hi8(-(80))
 6582 1dc6 2081      		ld r18,Z
 6583 1dc8 3181      		ldd r19,Z+1
 6584 1dca 4281      		ldd r20,Z+2
 6585 1dcc 5381      		ldd r21,Z+3
 6586               	.LVL365:
 6587 1dce 8D91      		ld r24,X+
 6588 1dd0 9D91      		ld r25,X+
 6589 1dd2 0D90      		ld __tmp_reg__,X+
 6590 1dd4 BC91      		ld r27,X
 6591 1dd6 A02D      		mov r26,__tmp_reg__
 6592 1dd8 281B      		sub r18,r24
 6593 1dda 390B      		sbc r19,r25
 6594 1ddc 4A0B      		sbc r20,r26
 6595 1dde 5B0B      		sbc r21,r27
 6596 1de0 57FF      		sbrs r21,7
 6597 1de2 00C0      		rjmp .L280
 6598 1de4 20E0      		ldi r18,lo8(0)
 6599 1de6 30E0      		ldi r19,hi8(0)
 6600 1de8 40E0      		ldi r20,hlo8(0)
 6601 1dea 50E0      		ldi r21,hhi8(0)
 6602               	.L280:
 6603               	.LM621:
 6604 1dec B901      		movw r22,r18
 6605               	.LVL366:
 6606 1dee CA01      		movw r24,r20
 6607               	/* epilogue start */
 6608 1df0 0895      		ret
 6609               	.LFE104:
 6611               	.global	Timebase_DownCounter_SS_Period_Value_Expired
 6613               	Timebase_DownCounter_SS_Period_Value_Expired:
 6614               	.LFB105:
 6615               	.LM622:
 6616               	.LVL367:
 6617 1df2 CF93      		push r28
 6618 1df4 DF93      		push r29
 6619               	/* prologue: function */
 6620               	/* frame size = 0 */
 6621               	.LBB986:
 6622               	.LBB987:
 6623               	.LBB988:
 6624               	.LBB989:
 6625               	.LM623:
 6626 1df6 C091 0000 		lds r28,Timebase
 6627 1dfa D091 0000 		lds r29,(Timebase)+1
 6628 1dfe 682F      		mov r22,r24
 6629 1e00 70E0      		ldi r23,lo8(0)
 6630               	.LBE989:
 6631               	.LBE988:
 6632               	.LM624:
 6633 1e02 FB01      		movw r30,r22
 6634 1e04 A4E0      		ldi r26,4
 6635 1e06 EE0F      	1:	lsl r30
 6636 1e08 FF1F      		rol r31
 6637 1e0a AA95      		dec r26
 6638 1e0c 01F4      		brne 1b
 6639 1e0e E60F      		add r30,r22
 6640 1e10 F71F      		adc r31,r23
 6641 1e12 EC0F      		add r30,r28
 6642 1e14 FD1F      		adc r31,r29
 6643 1e16 DF01      		movw r26,r30
 6644 1e18 AC5A      		subi r26,lo8(-(84))
 6645 1e1a BF4F      		sbci r27,hi8(-(84))
 6646 1e1c E05B      		subi r30,lo8(-(80))
 6647 1e1e FF4F      		sbci r31,hi8(-(80))
 6648 1e20 2081      		ld r18,Z
 6649 1e22 3181      		ldd r19,Z+1
 6650 1e24 4281      		ldd r20,Z+2
 6651 1e26 5381      		ldd r21,Z+3
 6652               	.LVL368:
 6653 1e28 8D91      		ld r24,X+
 6654 1e2a 9D91      		ld r25,X+
 6655 1e2c 0D90      		ld __tmp_reg__,X+
 6656 1e2e BC91      		ld r27,X
 6657 1e30 A02D      		mov r26,__tmp_reg__
 6658               	.LVL369:
 6659 1e32 281B      		sub r18,r24
 6660 1e34 390B      		sbc r19,r25
 6661 1e36 4A0B      		sbc r20,r26
 6662 1e38 5B0B      		sbc r21,r27
 6663               	.LM625:
 6664 1e3a 57FD      		sbrc r21,7
 6665 1e3c 00C0      		rjmp .L283
 6666               	.LBE987:
 6667               	.LBE986:
 6668               	.LM626:
 6669 1e3e 2115      		cp r18,__zero_reg__
 6670 1e40 3105      		cpc r19,__zero_reg__
 6671 1e42 4105      		cpc r20,__zero_reg__
 6672 1e44 5105      		cpc r21,__zero_reg__
 6673 1e46 01F0      		breq .L283
 6674 1e48 20E0      		ldi r18,lo8(0)
 6675               	.LVL370:
 6676 1e4a 00C0      		rjmp .L284
 6677               	.LVL371:
 6678               	.L283:
 6679 1e4c 20E0      		ldi r18,lo8(0)
 6680               	.LVL372:
 6681 1e4e CB01      		movw r24,r22
 6682 1e50 54E0      		ldi r21,4
 6683 1e52 880F      	1:	lsl r24
 6684 1e54 991F      		rol r25
 6685 1e56 5A95      		dec r21
 6686 1e58 01F4      		brne 1b
 6687 1e5a 860F      		add r24,r22
 6688 1e5c 971F      		adc r25,r23
 6689 1e5e C80F      		add r28,r24
 6690 1e60 D91F      		adc r29,r25
 6691 1e62 C95B      		subi r28,lo8(-(71))
 6692 1e64 DF4F      		sbci r29,hi8(-(71))
 6693 1e66 8881      		ld r24,Y
 6694 1e68 80FF      		sbrs r24,0
 6695 1e6a 21E0      		ldi r18,lo8(1)
 6696               	.L285:
 6697 1e6c 81E0      		ldi r24,lo8(1)
 6698 1e6e 2827      		eor r18,r24
 6699               	.L284:
 6700               	.LM627:
 6701 1e70 822F      		mov r24,r18
 6702               	/* epilogue start */
 6703 1e72 DF91      		pop r29
 6704 1e74 CF91      		pop r28
 6705 1e76 0895      		ret
 6706               	.LFE105:
 6708               	.global	Timebase_DownCounter_SS_Period_Value_Expired_Event
 6710               	Timebase_DownCounter_SS_Period_Value_Expired_Event:
 6711               	.LFB106:
 6712               	.LM628:
 6713               	.LVL373:
 6714 1e78 1F93      		push r17
 6715               	/* prologue: function */
 6716               	/* frame size = 0 */
 6717 1e7a 182F      		mov r17,r24
 6718               	.LM629:
 6719 1e7c 0E94 0000 		call Timebase_DownCounter_SS_Period_Value_Expired
 6720               	.LVL374:
 6721 1e80 8130      		cpi r24,lo8(1)
 6722 1e82 01F0      		breq .L288
 6723 1e84 80E0      		ldi r24,lo8(0)
 6724 1e86 00C0      		rjmp .L289
 6725               	.L288:
 6726               	.LBB990:
 6727               	.LBB991:
 6728               	.LM630:
 6729 1e88 E091 0000 		lds r30,Timebase
 6730 1e8c F091 0000 		lds r31,(Timebase)+1
 6731 1e90 212F      		mov r18,r17
 6732 1e92 30E0      		ldi r19,lo8(0)
 6733               	.LVL375:
 6734 1e94 C901      		movw r24,r18
 6735 1e96 B4E0      		ldi r27,4
 6736 1e98 880F      	1:	lsl r24
 6737 1e9a 991F      		rol r25
 6738 1e9c BA95      		dec r27
 6739 1e9e 01F4      		brne 1b
 6740 1ea0 820F      		add r24,r18
 6741 1ea2 931F      		adc r25,r19
 6742 1ea4 E80F      		add r30,r24
 6743 1ea6 F91F      		adc r31,r25
 6744 1ea8 E95B      		subi r30,lo8(-(71))
 6745 1eaa FF4F      		sbci r31,hi8(-(71))
 6746 1eac 8081      		ld r24,Z
 6747 1eae 8E7F      		andi r24,lo8(-2)
 6748 1eb0 8083      		st Z,r24
 6749 1eb2 81E0      		ldi r24,lo8(1)
 6750               	.L289:
 6751               	/* epilogue start */
 6752               	.LBE991:
 6753               	.LBE990:
 6754               	.LM631:
 6755 1eb4 1F91      		pop r17
 6756               	.LVL376:
 6757 1eb6 0895      		ret
 6758               	.LFE106:
 6760               	.global	Timebase_DownCounter_SS_Update_All
 6762               	Timebase_DownCounter_SS_Update_All:
 6763               	.LFB107:
 6764               	.LM632:
 6765               	/* prologue: function */
 6766               	/* frame size = 0 */
 6767               	.LBB992:
 6768               	.LM633:
 6769 1eb8 80E0      		ldi r24,lo8(0)
 6770 1eba 0E94 0000 		call Timebase_DownCounter_SS_Update
 6771               	/* epilogue start */
 6772               	.LBE992:
 6773               	.LM634:
 6774 1ebe 0895      		ret
 6775               	.LFE107:
 6777               	.global	Timebase_DownCounter_SS_Reset_All
 6779               	Timebase_DownCounter_SS_Reset_All:
 6780               	.LFB108:
 6781               	.LM635:
 6782               	/* prologue: function */
 6783               	/* frame size = 0 */
 6784               	.LBB993:
 6785               	.LBB994:
 6786               	.LBB995:
 6787               	.LBB996:
 6788               	.LBB997:
 6789               	.LM636:
 6790 1ec0 E091 0000 		lds r30,Timebase
 6791 1ec4 F091 0000 		lds r31,(Timebase)+1
 6792 1ec8 E45B      		subi r30,lo8(-(76))
 6793 1eca FF4F      		sbci r31,hi8(-(76))
 6794 1ecc 1082      		st Z,__zero_reg__
 6795 1ece 1182      		std Z+1,__zero_reg__
 6796 1ed0 1282      		std Z+2,__zero_reg__
 6797 1ed2 1382      		std Z+3,__zero_reg__
 6798               	.LBE997:
 6799               	.LBE996:
 6800               	.LBB998:
 6801               	.LBB999:
 6802               	.LM637:
 6803 1ed4 1292      		st -Z,__zero_reg__
 6804 1ed6 1292      		st -Z,__zero_reg__
 6805 1ed8 1292      		st -Z,__zero_reg__
 6806 1eda 1292      		st -Z,__zero_reg__
 6807               	.LBE999:
 6808               	.LBE998:
 6809               	.LBB1000:
 6810               	.LBB1001:
 6811               	.LM638:
 6812 1edc 3896      		adiw r30,8
 6813 1ede 1082      		st Z,__zero_reg__
 6814 1ee0 1182      		std Z+1,__zero_reg__
 6815 1ee2 1282      		std Z+2,__zero_reg__
 6816 1ee4 1382      		std Z+3,__zero_reg__
 6817               	.LBE1001:
 6818               	.LBE1000:
 6819               	.LBB1002:
 6820               	.LBB1003:
 6821               	.LM639:
 6822 1ee6 3997      		sbiw r30,9
 6823 1ee8 8081      		ld r24,Z
 6824               	.LBE1003:
 6825               	.LBE1002:
 6826               	.LBB1004:
 6827               	.LBB1005:
 6828               	.LM640:
 6829 1eea 807E      		andi r24,lo8(-32)
 6830 1eec 8083      		st Z,r24
 6831               	/* epilogue start */
 6832               	.LBE1005:
 6833               	.LBE1004:
 6834               	.LBE995:
 6835               	.LBE994:
 6836               	.LBE993:
 6837               	.LM641:
 6838 1eee 0895      		ret
 6839               	.LFE108:
 6841               	.global	Timebase_Reset
 6843               	Timebase_Reset:
 6844               	.LFB109:
 6845               	.LM642:
 6846               	/* prologue: function */
 6847               	/* frame size = 0 */
 6848               	.LM643:
 6849 1ef0 0E94 0000 		call Timebase_UpCounter_Reset_All
 6850               	.LM644:
 6851 1ef4 0E94 0000 		call Timebase_DownCounter_SS_Reset_All
 6852               	.LM645:
 6853 1ef8 0E94 0000 		call Timebase_DownCounter_Reset_All
 6854               	/* epilogue start */
 6855               	.LM646:
 6856 1efc 0895      		ret
 6857               	.LFE109:
 6859               	.global	Timebase_Init
 6861               	Timebase_Init:
 6862               	.LFB110:
 6863               	.LM647:
 6864               	.LVL377:
 6865 1efe 0F93      		push r16
 6866 1f00 1F93      		push r17
 6867               	/* prologue: function */
 6868               	/* frame size = 0 */
 6869 1f02 8C01      		movw r16,r24
 6870               	.LM648:
 6871 1f04 0E94 0000 		call Timebase_Struct_Init
 6872               	.LVL378:
 6873               	.LM649:
 6874 1f08 C801      		movw r24,r16
 6875 1f0a 0E94 0000 		call Timebase_Timer_Config
 6876               	.LM650:
 6877 1f0e 0E94 0000 		call Timebase_Reset
 6878               	/* epilogue start */
 6879               	.LM651:
 6880 1f12 1F91      		pop r17
 6881 1f14 0F91      		pop r16
 6882               	.LVL379:
 6883 1f16 0895      		ret
 6884               	.LFE110:
 6886               	.global	Timebase_Main_Loop_Executables
 6888               	Timebase_Main_Loop_Executables:
 6889               	.LFB111:
 6890               	.LM652:
 6891               	/* prologue: function */
 6892               	/* frame size = 0 */
 6893               	.LM653:
 6894 1f18 E091 0000 		lds r30,Timebase
 6895 1f1c F091 0000 		lds r31,(Timebase)+1
 6896 1f20 8789      		ldd r24,Z+23
 6897 1f22 82FF      		sbrs r24,2
 6898 1f24 00C0      		rjmp .L300
 6899               	.LM654:
 6900 1f26 8789      		ldd r24,Z+23
 6901 1f28 8B7F      		andi r24,lo8(-5)
 6902 1f2a 878B      		std Z+23,r24
 6903               	.L300:
 6904               	.LM655:
 6905 1f2c 8789      		ldd r24,Z+23
 6906 1f2e 80FF      		sbrs r24,0
 6907 1f30 00C0      		rjmp .L301
 6908               	.LM656:
 6909 1f32 0E94 0000 		call Timebase_UpCounter_Update_All
 6910               	.LM657:
 6911 1f36 E091 0000 		lds r30,Timebase
 6912 1f3a F091 0000 		lds r31,(Timebase)+1
 6913 1f3e 8789      		ldd r24,Z+23
 6914 1f40 8E7F      		andi r24,lo8(-2)
 6915 1f42 878B      		std Z+23,r24
 6916               	.L301:
 6917               	.LM658:
 6918 1f44 E091 0000 		lds r30,Timebase
 6919 1f48 F091 0000 		lds r31,(Timebase)+1
 6920 1f4c 8789      		ldd r24,Z+23
 6921 1f4e 83FF      		sbrs r24,3
 6922 1f50 00C0      		rjmp .L302
 6923               	.LM659:
 6924 1f52 0E94 0000 		call Timebase_DownCounter_SS_Update_All
 6925               	.LM660:
 6926 1f56 E091 0000 		lds r30,Timebase
 6927 1f5a F091 0000 		lds r31,(Timebase)+1
 6928 1f5e 8789      		ldd r24,Z+23
 6929 1f60 877F      		andi r24,lo8(-9)
 6930 1f62 878B      		std Z+23,r24
 6931               	.L302:
 6932               	.LM661:
 6933 1f64 E091 0000 		lds r30,Timebase
 6934 1f68 F091 0000 		lds r31,(Timebase)+1
 6935 1f6c 8789      		ldd r24,Z+23
 6936 1f6e 81FF      		sbrs r24,1
 6937 1f70 00C0      		rjmp .L304
 6938               	.LM662:
 6939 1f72 0E94 0000 		call Timebase_DownCounter_Update_All
 6940               	.LM663:
 6941 1f76 E091 0000 		lds r30,Timebase
 6942 1f7a F091 0000 		lds r31,(Timebase)+1
 6943 1f7e 8789      		ldd r24,Z+23
 6944 1f80 8D7F      		andi r24,lo8(-3)
 6945 1f82 878B      		std Z+23,r24
 6946               	.L304:
 6947 1f84 0895      		ret
 6948               	.LFE111:
 6950               	.global	Timebase_ISR_Executables
 6952               	Timebase_ISR_Executables:
 6953               	.LFB112:
 6954               	.LM664:
 6955               	/* prologue: function */
 6956               	/* frame size = 0 */
 6957               	.LM665:
 6958 1f86 E091 0000 		lds r30,Timebase
 6959 1f8a F091 0000 		lds r31,(Timebase)+1
 6960 1f8e 8085      		ldd r24,Z+8
 6961 1f90 9185      		ldd r25,Z+9
 6962 1f92 0196      		adiw r24,1
 6963 1f94 9187      		std Z+9,r25
 6964 1f96 8087      		std Z+8,r24
 6965               	.LM666:
 6966 1f98 8789      		ldd r24,Z+23
 6967 1f9a 8460      		ori r24,lo8(4)
 6968 1f9c 878B      		std Z+23,r24
 6969               	.LM667:
 6970 1f9e 8789      		ldd r24,Z+23
 6971 1fa0 8860      		ori r24,lo8(8)
 6972 1fa2 878B      		std Z+23,r24
 6973               	.LM668:
 6974 1fa4 8085      		ldd r24,Z+8
 6975 1fa6 9185      		ldd r25,Z+9
 6976 1fa8 6181      		ldd r22,Z+1
 6977 1faa 7281      		ldd r23,Z+2
 6978 1fac 0E94 0000 		call __udivmodhi4
 6979 1fb0 892B      		or r24,r25
 6980 1fb2 01F4      		brne .L307
 6981               	.LM669:
 6982 1fb4 8285      		ldd r24,Z+10
 6983 1fb6 9385      		ldd r25,Z+11
 6984 1fb8 A485      		ldd r26,Z+12
 6985 1fba B585      		ldd r27,Z+13
 6986 1fbc 0196      		adiw r24,1
 6987 1fbe A11D      		adc r26,__zero_reg__
 6988 1fc0 B11D      		adc r27,__zero_reg__
 6989 1fc2 8287      		std Z+10,r24
 6990 1fc4 9387      		std Z+11,r25
 6991 1fc6 A487      		std Z+12,r26
 6992 1fc8 B587      		std Z+13,r27
 6993               	.LM670:
 6994 1fca 1186      		std Z+9,__zero_reg__
 6995 1fcc 1086      		std Z+8,__zero_reg__
 6996               	.LM671:
 6997 1fce 8789      		ldd r24,Z+23
 6998 1fd0 8160      		ori r24,lo8(1)
 6999 1fd2 878B      		std Z+23,r24
 7000               	.LM672:
 7001 1fd4 8789      		ldd r24,Z+23
 7002 1fd6 8260      		ori r24,lo8(2)
 7003 1fd8 878B      		std Z+23,r24
 7004               	.L307:
 7005 1fda 0895      		ret
 7006               	.LFE112:
 7008               	.global	__vector_16
 7010               	__vector_16:
 7011               	.LFB113:
 7012               	.LM673:
 7013 1fdc 1F92      		push __zero_reg__
 7014 1fde 0F92      		push r0
 7015 1fe0 0FB6      		in r0,__SREG__
 7016 1fe2 0F92      		push r0
 7017 1fe4 1124      		clr __zero_reg__
 7018 1fe6 2F93      		push r18
 7019 1fe8 3F93      		push r19
 7020 1fea 4F93      		push r20
 7021 1fec 5F93      		push r21
 7022 1fee 6F93      		push r22
 7023 1ff0 7F93      		push r23
 7024 1ff2 8F93      		push r24
 7025 1ff4 9F93      		push r25
 7026 1ff6 AF93      		push r26
 7027 1ff8 BF93      		push r27
 7028 1ffa EF93      		push r30
 7029 1ffc FF93      		push r31
 7030               	/* prologue: Signal */
 7031               	/* frame size = 0 */
 7032               	.LM674:
 7033 1ffe E091 0000 		lds r30,Timebase
 7034 2002 F091 0000 		lds r31,(Timebase)+1
 7035 2006 8381      		ldd r24,Z+3
 7036 2008 86BD      		out 70-32,r24
 7037               	.LM675:
 7038 200a 0E94 0000 		call Timebase_ISR_Executables
 7039               	/* epilogue start */
 7040               	.LM676:
 7041 200e FF91      		pop r31
 7042 2010 EF91      		pop r30
 7043 2012 BF91      		pop r27
 7044 2014 AF91      		pop r26
 7045 2016 9F91      		pop r25
 7046 2018 8F91      		pop r24
 7047 201a 7F91      		pop r23
 7048 201c 6F91      		pop r22
 7049 201e 5F91      		pop r21
 7050 2020 4F91      		pop r20
 7051 2022 3F91      		pop r19
 7052 2024 2F91      		pop r18
 7053 2026 0F90      		pop r0
 7054 2028 0FBE      		out __SREG__,r0
 7055 202a 0F90      		pop r0
 7056 202c 1F90      		pop __zero_reg__
 7057 202e 1895      		reti
 7058               	.LFE113:
 7060               		.data
 7063               	C.2.1620:
 7064 0000 0100      		.word	1
 7065 0002 0800      		.word	8
 7066 0004 4000      		.word	64
 7067 0006 0001      		.word	256
 7068 0008 0004      		.word	1024
 7069               		.comm Timebase_type,101,1
 7070               		.comm Timebase,2,1
 7951               	.Letext0:
DEFINED SYMBOLS
                            *ABS*:00000000 timebase.c
C:\Users\FARIDU~1\AppData\Local\Temp/ccqORE1p.s:2      *ABS*:0000003f __SREG__
C:\Users\FARIDU~1\AppData\Local\Temp/ccqORE1p.s:3      *ABS*:0000003e __SP_H__
C:\Users\FARIDU~1\AppData\Local\Temp/ccqORE1p.s:4      *ABS*:0000003d __SP_L__
C:\Users\FARIDU~1\AppData\Local\Temp/ccqORE1p.s:5      *ABS*:00000034 __CCP__
C:\Users\FARIDU~1\AppData\Local\Temp/ccqORE1p.s:6      *ABS*:00000000 __tmp_reg__
C:\Users\FARIDU~1\AppData\Local\Temp/ccqORE1p.s:7      *ABS*:00000001 __zero_reg__
C:\Users\FARIDU~1\AppData\Local\Temp/ccqORE1p.s:18     .text:00000000 Timebase_Struct_Init
                            *COM*:00000065 Timebase_type
                            *COM*:00000002 Timebase
C:\Users\FARIDU~1\AppData\Local\Temp/ccqORE1p.s:187    .text:000001ba Timebase_Timer_Config
C:\Users\FARIDU~1\AppData\Local\Temp/ccqORE1p.s:7063   .data:00000000 C.2.1620
C:\Users\FARIDU~1\AppData\Local\Temp/ccqORE1p.s:507    .text:00000354 Timebase_Atomic_Operation_Start
C:\Users\FARIDU~1\AppData\Local\Temp/ccqORE1p.s:525    .text:00000358 Timebase_Atomic_Operation_End
C:\Users\FARIDU~1\AppData\Local\Temp/ccqORE1p.s:543    .text:0000035c Timebase_Token_Executing
C:\Users\FARIDU~1\AppData\Local\Temp/ccqORE1p.s:559    .text:00000368 Timebase_Token_Add
C:\Users\FARIDU~1\AppData\Local\Temp/ccqORE1p.s:585    .text:0000037e Timebase_Token_Remove
C:\Users\FARIDU~1\AppData\Local\Temp/ccqORE1p.s:611    .text:00000394 Timebase_Token_Remove_All
C:\Users\FARIDU~1\AppData\Local\Temp/ccqORE1p.s:627    .text:000003a0 Timebase_Timer_Get_SubSeconds
C:\Users\FARIDU~1\AppData\Local\Temp/ccqORE1p.s:667    .text:000003b4 Timebase_Timer_Get_Seconds
C:\Users\FARIDU~1\AppData\Local\Temp/ccqORE1p.s:710    .text:000003ce Timebase_Timer_Set_SubSeconds
C:\Users\FARIDU~1\AppData\Local\Temp/ccqORE1p.s:748    .text:000003e0 Timebase_Timer_Set_Seconds
C:\Users\FARIDU~1\AppData\Local\Temp/ccqORE1p.s:788    .text:000003f6 Timebase_Timer_Delay_SubSeconds
C:\Users\FARIDU~1\AppData\Local\Temp/ccqORE1p.s:1012   .text:000004b6 Timebase_Timer_Await_SubSeconds
C:\Users\FARIDU~1\AppData\Local\Temp/ccqORE1p.s:1141   .text:00000532 Timebase_Timer_Delay_Seconds
C:\Users\FARIDU~1\AppData\Local\Temp/ccqORE1p.s:1238   .text:00000574 Timebase_Window_Timer_Reset
C:\Users\FARIDU~1\AppData\Local\Temp/ccqORE1p.s:1264   .text:00000590 Timebase_Window_Timer_Start
C:\Users\FARIDU~1\AppData\Local\Temp/ccqORE1p.s:1356   .text:000005cc Timebase_Window_Timer_Get_Interval
C:\Users\FARIDU~1\AppData\Local\Temp/ccqORE1p.s:1494   .text:0000064e Timebase_Window_Timer_Get_Interval_Reset
C:\Users\FARIDU~1\AppData\Local\Temp/ccqORE1p.s:1534   .text:00000678 Timebase_UpCounter_Get_Status
C:\Users\FARIDU~1\AppData\Local\Temp/ccqORE1p.s:1568   .text:000006a2 Timebase_UpCounter_Set_Status
C:\Users\FARIDU~1\AppData\Local\Temp/ccqORE1p.s:1606   .text:000006d2 Timebase_UpCounter_Get_Value
C:\Users\FARIDU~1\AppData\Local\Temp/ccqORE1p.s:1643   .text:00000700 Timebase_UpCounter_Set_Value
C:\Users\FARIDU~1\AppData\Local\Temp/ccqORE1p.s:1679   .text:0000072e Timebase_UpCounter_Get_EndValue
C:\Users\FARIDU~1\AppData\Local\Temp/ccqORE1p.s:1722   .text:00000768 Timebase_UpCounter_Set_EndValue
C:\Users\FARIDU~1\AppData\Local\Temp/ccqORE1p.s:1757   .text:00000794 Timebase_UpCounter_Get_TargetValue
C:\Users\FARIDU~1\AppData\Local\Temp/ccqORE1p.s:1800   .text:000007ce Timebase_UpCounter_Set_TargetValue
C:\Users\FARIDU~1\AppData\Local\Temp/ccqORE1p.s:1835   .text:000007fa Timebase_UpCounter_Get_TemporaryValue
C:\Users\FARIDU~1\AppData\Local\Temp/ccqORE1p.s:1878   .text:00000834 Timebase_UpCounter_Set_TemporaryValue
C:\Users\FARIDU~1\AppData\Local\Temp/ccqORE1p.s:1913   .text:00000860 Timebase_UpCounter_Get_PeriodValue
C:\Users\FARIDU~1\AppData\Local\Temp/ccqORE1p.s:1951   .text:00000890 Timebase_UpCounter_Set_PeriodValue
C:\Users\FARIDU~1\AppData\Local\Temp/ccqORE1p.s:1988   .text:000008c0 Timebase_UpCounter_Get_Period_Flag
C:\Users\FARIDU~1\AppData\Local\Temp/ccqORE1p.s:2021   .text:000008e8 Timebase_UpCounter_Set_Period_Flag
C:\Users\FARIDU~1\AppData\Local\Temp/ccqORE1p.s:2055   .text:00000912 Timebase_UpCounter_Clear_Period_Flag
C:\Users\FARIDU~1\AppData\Local\Temp/ccqORE1p.s:2089   .text:0000093c Timebase_UpCounter_Reset
C:\Users\FARIDU~1\AppData\Local\Temp/ccqORE1p.s:2182   .text:0000099a Timebase_UpCounter_Clear_All_Flags
C:\Users\FARIDU~1\AppData\Local\Temp/ccqORE1p.s:2198   .text:000009a0 Timebase_UpCounter_Start
C:\Users\FARIDU~1\AppData\Local\Temp/ccqORE1p.s:2246   .text:000009d6 Timebase_UpCounter_Stop
C:\Users\FARIDU~1\AppData\Local\Temp/ccqORE1p.s:2294   .text:00000a0c Timebase_UpCounter_Set_Securely
C:\Users\FARIDU~1\AppData\Local\Temp/ccqORE1p.s:2445   .text:00000aa8 Timebase_UpCounter_Set_Forcefully
C:\Users\FARIDU~1\AppData\Local\Temp/ccqORE1p.s:2481   .text:00000ad2 Timebase_UpCounter_Update
C:\Users\FARIDU~1\AppData\Local\Temp/ccqORE1p.s:2741   .text:00000bfa Timebase_UpCounter_Expired
C:\Users\FARIDU~1\AppData\Local\Temp/ccqORE1p.s:2781   .text:00000c2e Timebase_UpCounter_Expired_Event
C:\Users\FARIDU~1\AppData\Local\Temp/ccqORE1p.s:2830   .text:00000c6c Timebase_UpCounter_Set_Period_Value_Securely
C:\Users\FARIDU~1\AppData\Local\Temp/ccqORE1p.s:2903   .text:00000cc6 Timebase_UpCounter_Get_Remaining_Period_Value
C:\Users\FARIDU~1\AppData\Local\Temp/ccqORE1p.s:2966   .text:00000d1c Timebase_UpCounter_Period_Value_Expired
C:\Users\FARIDU~1\AppData\Local\Temp/ccqORE1p.s:3063   .text:00000da2 Timebase_UpCounter_Period_Value_Expired_Event
C:\Users\FARIDU~1\AppData\Local\Temp/ccqORE1p.s:3115   .text:00000de2 Timebase_UpCounter_Update_All
C:\Users\FARIDU~1\AppData\Local\Temp/ccqORE1p.s:3132   .text:00000dea Timebase_UpCounter_Reset_All
C:\Users\FARIDU~1\AppData\Local\Temp/ccqORE1p.s:3149   .text:00000df2 Timebase_DownCounter_Get_Status
C:\Users\FARIDU~1\AppData\Local\Temp/ccqORE1p.s:3185   .text:00000e20 Timebase_DownCounter_Set_Status
C:\Users\FARIDU~1\AppData\Local\Temp/ccqORE1p.s:3225   .text:00000e54 Timebase_DownCounter_Get_Value
C:\Users\FARIDU~1\AppData\Local\Temp/ccqORE1p.s:3263   .text:00000e84 Timebase_DownCounter_Set_Value
C:\Users\FARIDU~1\AppData\Local\Temp/ccqORE1p.s:3300   .text:00000eb4 Timebase_DownCounter_Get_EndValue
C:\Users\FARIDU~1\AppData\Local\Temp/ccqORE1p.s:3338   .text:00000ee4 Timebase_DownCounter_Set_EndValue
C:\Users\FARIDU~1\AppData\Local\Temp/ccqORE1p.s:3375   .text:00000f14 Timebase_DownCounter_Get_PeriodValue
C:\Users\FARIDU~1\AppData\Local\Temp/ccqORE1p.s:3413   .text:00000f44 Timebase_DownCounter_Set_PeriodValue
C:\Users\FARIDU~1\AppData\Local\Temp/ccqORE1p.s:3475   .text:00000fa0 Timebase_DownCounter_Get_Period_Flag
C:\Users\FARIDU~1\AppData\Local\Temp/ccqORE1p.s:3510   .text:00000fcc Timebase_DownCounter_Set_Period_Flag
C:\Users\FARIDU~1\AppData\Local\Temp/ccqORE1p.s:3546   .text:00000ffa Timebase_DownCounter_Clear_Period_Flag
C:\Users\FARIDU~1\AppData\Local\Temp/ccqORE1p.s:3582   .text:00001028 Timebase_DownCounter_Reset
C:\Users\FARIDU~1\AppData\Local\Temp/ccqORE1p.s:3645   .text:00001068 Timebase_DownCounter_Clear_All_Flags
C:\Users\FARIDU~1\AppData\Local\Temp/ccqORE1p.s:3712   .text:000010a8 Timebase_DownCounter_Start
C:\Users\FARIDU~1\AppData\Local\Temp/ccqORE1p.s:3762   .text:000010e2 Timebase_DownCounter_Stop
C:\Users\FARIDU~1\AppData\Local\Temp/ccqORE1p.s:3812   .text:0000111c Timebase_DownCounter_Set_Securely
C:\Users\FARIDU~1\AppData\Local\Temp/ccqORE1p.s:3951   .text:000011b4 Timebase_DownCounter_Set_Forcefully
C:\Users\FARIDU~1\AppData\Local\Temp/ccqORE1p.s:4025   .text:00001202 Timebase_DownCounter_Update
C:\Users\FARIDU~1\AppData\Local\Temp/ccqORE1p.s:4251   .text:000012f2 Timebase_DownCounter_Expired
C:\Users\FARIDU~1\AppData\Local\Temp/ccqORE1p.s:4293   .text:0000132a Timebase_DownCounter_Expired_Event
C:\Users\FARIDU~1\AppData\Local\Temp/ccqORE1p.s:4380   .text:0000137e Timebase_DownCounter_Set_Period_Value_Securely
C:\Users\FARIDU~1\AppData\Local\Temp/ccqORE1p.s:4479   .text:00001402 Timebase_DownCounter_Get_Remaining_Period_Value
C:\Users\FARIDU~1\AppData\Local\Temp/ccqORE1p.s:4543   .text:0000145a Timebase_DownCounter_Period_Value_Expired
C:\Users\FARIDU~1\AppData\Local\Temp/ccqORE1p.s:4643   .text:000014e6 Timebase_DownCounter_Period_Value_Expired_Event
C:\Users\FARIDU~1\AppData\Local\Temp/ccqORE1p.s:4697   .text:0000152a Timebase_DownCounter_Update_All
C:\Users\FARIDU~1\AppData\Local\Temp/ccqORE1p.s:4714   .text:00001532 Timebase_DownCounter_Reset_All
C:\Users\FARIDU~1\AppData\Local\Temp/ccqORE1p.s:4768   .text:00001558 Timebase_DownCounter_SS_Get_Status
C:\Users\FARIDU~1\AppData\Local\Temp/ccqORE1p.s:4802   .text:00001582 Timebase_DownCounter_SS_Set_Status
C:\Users\FARIDU~1\AppData\Local\Temp/ccqORE1p.s:4840   .text:000015b2 Timebase_DownCounter_SS_Get_Value
C:\Users\FARIDU~1\AppData\Local\Temp/ccqORE1p.s:4876   .text:000015de Timebase_DownCounter_SS_Set_Value
C:\Users\FARIDU~1\AppData\Local\Temp/ccqORE1p.s:4910   .text:0000160a Timebase_DownCounter_SS_Get_EndValueSec
C:\Users\FARIDU~1\AppData\Local\Temp/ccqORE1p.s:4946   .text:00001636 Timebase_DownCounter_SS_Get_EndValueSubSec
C:\Users\FARIDU~1\AppData\Local\Temp/ccqORE1p.s:4982   .text:00001662 Timebase_DownCounter_SS_Set_EndValueSec
C:\Users\FARIDU~1\AppData\Local\Temp/ccqORE1p.s:5016   .text:0000168e Timebase_DownCounter_SS_Set_EndValueSubSec
C:\Users\FARIDU~1\AppData\Local\Temp/ccqORE1p.s:5050   .text:000016ba Timebase_DownCounter_SS_Get_PeriodValue
C:\Users\FARIDU~1\AppData\Local\Temp/ccqORE1p.s:5086   .text:000016e6 Timebase_DownCounter_SS_Set_PeriodValue
C:\Users\FARIDU~1\AppData\Local\Temp/ccqORE1p.s:5143   .text:0000173a Timebase_DownCounter_SS_Get_Period_Flag
C:\Users\FARIDU~1\AppData\Local\Temp/ccqORE1p.s:5176   .text:00001762 Timebase_DownCounter_SS_Set_Period_Flag
C:\Users\FARIDU~1\AppData\Local\Temp/ccqORE1p.s:5210   .text:0000178c Timebase_DownCounter_SS_Clear_Period_Flag
C:\Users\FARIDU~1\AppData\Local\Temp/ccqORE1p.s:5244   .text:000017b6 Timebase_DownCounter_SS_Reset
C:\Users\FARIDU~1\AppData\Local\Temp/ccqORE1p.s:5315   .text:000017fc Timebase_DownCounter_SS_Clear_All_Flags
C:\Users\FARIDU~1\AppData\Local\Temp/ccqORE1p.s:5390   .text:00001842 Timebase_DownCounter_SS_Start
C:\Users\FARIDU~1\AppData\Local\Temp/ccqORE1p.s:5438   .text:00001878 Timebase_DownCounter_SS_Stop
C:\Users\FARIDU~1\AppData\Local\Temp/ccqORE1p.s:5486   .text:000018ae Timebase_DownCounter_SS_Set_Securely
C:\Users\FARIDU~1\AppData\Local\Temp/ccqORE1p.s:5789   .text:00001a32 Timebase_DownCounter_SS_Set_Forcefully
C:\Users\FARIDU~1\AppData\Local\Temp/ccqORE1p.s:5867   .text:00001a7e Timebase_DownCounter_SS_Update
C:\Users\FARIDU~1\AppData\Local\Temp/ccqORE1p.s:6319   .text:00001c90 Timebase_DownCounter_SS_Expired
C:\Users\FARIDU~1\AppData\Local\Temp/ccqORE1p.s:6359   .text:00001cc4 Timebase_DownCounter_SS_Expired_Event
C:\Users\FARIDU~1\AppData\Local\Temp/ccqORE1p.s:6454   .text:00001d1e Timebase_DownCounter_SS_Set_Period_Value_Securely
C:\Users\FARIDU~1\AppData\Local\Temp/ccqORE1p.s:6551   .text:00001d9e Timebase_DownCounter_SS_Get_Remaining_Period_Value
C:\Users\FARIDU~1\AppData\Local\Temp/ccqORE1p.s:6613   .text:00001df2 Timebase_DownCounter_SS_Period_Value_Expired
C:\Users\FARIDU~1\AppData\Local\Temp/ccqORE1p.s:6710   .text:00001e78 Timebase_DownCounter_SS_Period_Value_Expired_Event
C:\Users\FARIDU~1\AppData\Local\Temp/ccqORE1p.s:6762   .text:00001eb8 Timebase_DownCounter_SS_Update_All
C:\Users\FARIDU~1\AppData\Local\Temp/ccqORE1p.s:6779   .text:00001ec0 Timebase_DownCounter_SS_Reset_All
C:\Users\FARIDU~1\AppData\Local\Temp/ccqORE1p.s:6843   .text:00001ef0 Timebase_Reset
C:\Users\FARIDU~1\AppData\Local\Temp/ccqORE1p.s:6861   .text:00001efe Timebase_Init
C:\Users\FARIDU~1\AppData\Local\Temp/ccqORE1p.s:6888   .text:00001f18 Timebase_Main_Loop_Executables
C:\Users\FARIDU~1\AppData\Local\Temp/ccqORE1p.s:6952   .text:00001f86 Timebase_ISR_Executables
C:\Users\FARIDU~1\AppData\Local\Temp/ccqORE1p.s:7010   .text:00001fdc __vector_16

UNDEFINED SYMBOLS
__divmodsi4
__mulsi3
__udivmodhi4
__do_copy_data
__do_clear_bss
