   1               		.file	"timebase.c"
   2               	__SREG__ = 0x3f
   3               	__SP_H__ = 0x3e
   4               	__SP_L__ = 0x3d
   5               	__CCP__  = 0x34
   6               	__tmp_reg__ = 0
   7               	__zero_reg__ = 1
  15               	.Ltext0:
  16               	.global	Timebase_Struct_Init
  18               	Timebase_Struct_Init:
  19               	.LFB6:
  20               	.LM1:
  21               	/* prologue: function */
  22               	/* frame size = 0 */
  23               	.LM2:
  24 0000 80E0      		ldi r24,lo8(Timebase_type)
  25 0002 90E0      		ldi r25,hi8(Timebase_type)
  26 0004 9093 0000 		sts (Timebase)+1,r25
  27 0008 8093 0000 		sts Timebase,r24
  28               	.LM3:
  29 000c 1092 0000 		sts Timebase_type,__zero_reg__
  30               	.LM4:
  31 0010 8091 0000 		lds r24,Timebase_type
  32 0014 8460      		ori r24,lo8(4)
  33 0016 8093 0000 		sts Timebase_type,r24
  34               	.LM5:
  35 001a 8091 0000 		lds r24,Timebase_type
  36 001e 8770      		andi r24,lo8(7)
  37 0020 8093 0000 		sts Timebase_type,r24
  38               	.LM6:
  39 0024 81E0      		ldi r24,lo8(1)
  40 0026 90E0      		ldi r25,hi8(1)
  41 0028 9093 0000 		sts (Timebase_type+1)+1,r25
  42 002c 8093 0000 		sts Timebase_type+1,r24
  43               	.LM7:
  44 0030 1092 0000 		sts Timebase_type+3,__zero_reg__
  45               	.LM8:
  46 0034 1092 0000 		sts (Timebase_type+8)+1,__zero_reg__
  47 0038 1092 0000 		sts Timebase_type+8,__zero_reg__
  48               	.LM9:
  49 003c 1092 0000 		sts Timebase_type+10,__zero_reg__
  50 0040 1092 0000 		sts (Timebase_type+10)+1,__zero_reg__
  51 0044 1092 0000 		sts (Timebase_type+10)+2,__zero_reg__
  52 0048 1092 0000 		sts (Timebase_type+10)+3,__zero_reg__
  53               	.LM10:
  54 004c 1092 0000 		sts Timebase_type+4,__zero_reg__
  55 0050 1092 0000 		sts (Timebase_type+4)+1,__zero_reg__
  56 0054 1092 0000 		sts (Timebase_type+4)+2,__zero_reg__
  57 0058 1092 0000 		sts (Timebase_type+4)+3,__zero_reg__
  58               	.LM11:
  59 005c 1092 0000 		sts Timebase_type+14,__zero_reg__
  60 0060 1092 0000 		sts (Timebase_type+14)+1,__zero_reg__
  61 0064 1092 0000 		sts (Timebase_type+14)+2,__zero_reg__
  62 0068 1092 0000 		sts (Timebase_type+14)+3,__zero_reg__
  63               	.LM12:
  64 006c 1092 0000 		sts Timebase_type+18,__zero_reg__
  65 0070 1092 0000 		sts (Timebase_type+18)+1,__zero_reg__
  66 0074 1092 0000 		sts (Timebase_type+18)+2,__zero_reg__
  67 0078 1092 0000 		sts (Timebase_type+18)+3,__zero_reg__
  68               	.LM13:
  69 007c 1092 0000 		sts Timebase_type+22,__zero_reg__
  70               	.LM14:
  71 0080 1092 0000 		sts Timebase_type+23,__zero_reg__
  72               	.LM15:
  73 0084 1092 0000 		sts Timebase_type+24,__zero_reg__
  74 0088 A0E0      		ldi r26,lo8(Timebase_type+111)
  75 008a B0E0      		ldi r27,hi8(Timebase_type+111)
  76 008c 80E0      		ldi r24,lo8(0)
  77 008e 90E0      		ldi r25,hi8(0)
  78               	.LBB322:
  79               	.LM16:
  80 0090 2DE0      		ldi r18,lo8(13)
  81 0092 30E0      		ldi r19,hi8(13)
  82               	.L2:
  83 0094 829F      		mul r24,r18
  84 0096 F001      		movw r30,r0
  85 0098 839F      		mul r24,r19
  86 009a F00D      		add r31,r0
  87 009c 929F      		mul r25,r18
  88 009e F00D      		add r31,r0
  89 00a0 1124      		clr r1
  90 00a2 E050      		subi r30,lo8(-(Timebase_type+110))
  91 00a4 F040      		sbci r31,hi8(-(Timebase_type+110))
  92 00a6 1082      		st Z,__zero_reg__
  93               	.LM17:
  94 00a8 1D92      		st X+,__zero_reg__
  95 00aa 1D92      		st X+,__zero_reg__
  96 00ac 1D92      		st X+,__zero_reg__
  97 00ae 1C92      		st X,__zero_reg__
  98 00b0 1397      		sbiw r26,3
  99               	.LM18:
 100 00b2 1496      		adiw r26,4
 101 00b4 1D92      		st X+,__zero_reg__
 102 00b6 1D92      		st X+,__zero_reg__
 103 00b8 1D92      		st X+,__zero_reg__
 104 00ba 1C92      		st X,__zero_reg__
 105 00bc 1797      		sbiw r26,4+3
 106               	.LM19:
 107 00be 1896      		adiw r26,8
 108 00c0 1D92      		st X+,__zero_reg__
 109 00c2 1D92      		st X+,__zero_reg__
 110 00c4 1D92      		st X+,__zero_reg__
 111 00c6 1C92      		st X,__zero_reg__
 112 00c8 1B97      		sbiw r26,8+3
 113 00ca 0196      		adiw r24,1
 114 00cc 1D96      		adiw r26,13
 115               	.LM20:
 116 00ce 8530      		cpi r24,5
 117 00d0 9105      		cpc r25,__zero_reg__
 118 00d2 01F4      		brne .L2
 119 00d4 A0E0      		ldi r26,lo8(Timebase_type+26)
 120 00d6 B0E0      		ldi r27,hi8(Timebase_type+26)
 121 00d8 80E0      		ldi r24,lo8(0)
 122 00da 90E0      		ldi r25,hi8(0)
 123               	.L3:
 124               	.LBE322:
 125               	.LBB323:
 126               	.LM21:
 127 00dc FC01      		movw r30,r24
 128 00de 24E0      		ldi r18,4
 129 00e0 EE0F      	1:	lsl r30
 130 00e2 FF1F      		rol r31
 131 00e4 2A95      		dec r18
 132 00e6 01F4      		brne 1b
 133 00e8 E80F      		add r30,r24
 134 00ea F91F      		adc r31,r25
 135 00ec E050      		subi r30,lo8(-(Timebase_type))
 136 00ee F040      		sbci r31,hi8(-(Timebase_type))
 137 00f0 118E      		std Z+25,__zero_reg__
 138               	.LM22:
 139 00f2 1D92      		st X+,__zero_reg__
 140 00f4 1D92      		st X+,__zero_reg__
 141 00f6 1D92      		st X+,__zero_reg__
 142 00f8 1C92      		st X,__zero_reg__
 143 00fa 1397      		sbiw r26,3
 144               	.LM23:
 145 00fc 1496      		adiw r26,4
 146 00fe 1D92      		st X+,__zero_reg__
 147 0100 1D92      		st X+,__zero_reg__
 148 0102 1D92      		st X+,__zero_reg__
 149 0104 1C92      		st X,__zero_reg__
 150 0106 1797      		sbiw r26,4+3
 151               	.LM24:
 152 0108 1896      		adiw r26,8
 153 010a 1D92      		st X+,__zero_reg__
 154 010c 1D92      		st X+,__zero_reg__
 155 010e 1D92      		st X+,__zero_reg__
 156 0110 1C92      		st X,__zero_reg__
 157 0112 1B97      		sbiw r26,8+3
 158               	.LM25:
 159 0114 1C96      		adiw r26,12
 160 0116 1D92      		st X+,__zero_reg__
 161 0118 1D92      		st X+,__zero_reg__
 162 011a 1D92      		st X+,__zero_reg__
 163 011c 1C92      		st X,__zero_reg__
 164 011e 1F97      		sbiw r26,12+3
 165 0120 0196      		adiw r24,1
 166 0122 5196      		adiw r26,17
 167               	.LM26:
 168 0124 8530      		cpi r24,5
 169 0126 9105      		cpc r25,__zero_reg__
 170 0128 01F4      		brne .L3
 171               	/* epilogue start */
 172               	.LBE323:
 173               	.LM27:
 174 012a 0895      		ret
 175               	.LFE6:
 177               	.global	Timebase_Timer_Config
 179               	Timebase_Timer_Config:
 180               	.LFB7:
 181               	.LM28:
 182               	.LVL0:
 183 012c 7F92      		push r7
 184 012e 8F92      		push r8
 185 0130 9F92      		push r9
 186 0132 AF92      		push r10
 187 0134 BF92      		push r11
 188 0136 CF92      		push r12
 189 0138 DF92      		push r13
 190 013a EF92      		push r14
 191 013c FF92      		push r15
 192 013e 0F93      		push r16
 193 0140 1F93      		push r17
 194 0142 DF93      		push r29
 195 0144 CF93      		push r28
 196 0146 CDB7      		in r28,__SP_L__
 197 0148 DEB7      		in r29,__SP_H__
 198 014a 2A97      		sbiw r28,10
 199 014c 0FB6      		in __tmp_reg__,__SREG__
 200 014e F894      		cli
 201 0150 DEBF      		out __SP_H__,r29
 202 0152 0FBE      		out __SREG__,__tmp_reg__
 203 0154 CDBF      		out __SP_L__,r28
 204               	/* prologue: function */
 205               	/* frame size = 10 */
 206 0156 8C01      		movw r16,r24
 207               	.LM29:
 208 0158 C090 0000 		lds r12,Timebase
 209 015c D090 0000 		lds r13,(Timebase)+1
 210 0160 F601      		movw r30,r12
 211 0162 8081      		ld r24,Z
 212               	.LVL1:
 213 0164 80FF      		sbrs r24,0
 214 0166 00C0      		rjmp .L8
 215               	.LBB324:
 216               	.LM30:
 217 0168 0130      		cpi r16,1
 218 016a 1105      		cpc r17,__zero_reg__
 219 016c 01F4      		brne .L9
 220 016e 96E0      		ldi r25,lo8(6)
 221               	.LVL2:
 222 0170 00C0      		rjmp .L10
 223               	.LVL3:
 224               	.L9:
 225               	.LM31:
 226 0172 0230      		cpi r16,2
 227 0174 1105      		cpc r17,__zero_reg__
 228 0176 01F4      		brne .L11
 229 0178 95E0      		ldi r25,lo8(5)
 230               	.LVL4:
 231 017a 00C0      		rjmp .L10
 232               	.LVL5:
 233               	.L11:
 234               	.LM32:
 235 017c 0430      		cpi r16,4
 236 017e 1105      		cpc r17,__zero_reg__
 237 0180 01F4      		brne .L12
 238 0182 94E0      		ldi r25,lo8(4)
 239               	.LVL6:
 240 0184 00C0      		rjmp .L10
 241               	.LVL7:
 242               	.L12:
 243               	.LM33:
 244 0186 0830      		cpi r16,8
 245 0188 1105      		cpc r17,__zero_reg__
 246 018a 01F4      		brne .L13
 247 018c 93E0      		ldi r25,lo8(3)
 248               	.LVL8:
 249 018e 00C0      		rjmp .L10
 250               	.LVL9:
 251               	.L13:
 252               	.LM34:
 253 0190 0031      		cpi r16,16
 254 0192 1105      		cpc r17,__zero_reg__
 255 0194 01F4      		brne .L14
 256 0196 92E0      		ldi r25,lo8(2)
 257               	.LVL10:
 258 0198 00C0      		rjmp .L10
 259               	.LVL11:
 260               	.L14:
 261 019a 90E0      		ldi r25,lo8(0)
 262               	.LVL12:
 263 019c 0032      		cpi r16,32
 264 019e 1105      		cpc r17,__zero_reg__
 265 01a0 01F4      		brne .L10
 266 01a2 91E0      		ldi r25,lo8(1)
 267               	.L10:
 268               	.LM35:
 269               	/* #APP */
 270               	 ;  261 "timebase.c" 1
 271 01a4 F894      		cli
 272               	 ;  0 "" 2
 273               	.LM36:
 274               	/* #NOAPP */
 275 01a6 84B7      		in r24,84-32
 276 01a8 877F      		andi r24,lo8(-9)
 277 01aa 84BF      		out 84-32,r24
 278               	.LM37:
 279 01ac 8091 6000 		lds r24,96
 280 01b0 8068      		ori r24,lo8(-128)
 281 01b2 8093 6000 		sts 96,r24
 282               	.LM38:
 283 01b6 8091 6000 		lds r24,96
 284 01ba 8861      		ori r24,lo8(24)
 285 01bc 8093 6000 		sts 96,r24
 286               	.LM39:
 287 01c0 9064      		ori r25,lo8(64)
 288 01c2 9093 6000 		sts 96,r25
 289               	.LM40:
 290               	/* #APP */
 291               	 ;  266 "timebase.c" 1
 292 01c6 7894      		sei
 293               	 ;  0 "" 2
 294               	/* #NOAPP */
 295 01c8 00C0      		rjmp .L16
 296               	.LVL13:
 297               	.L8:
 298               	.LBE324:
 299               	.LM41:
 300 01ca 81FD      		sbrc r24,1
 301 01cc 00C0      		rjmp .L16
 302               	.LM42:
 303 01ce 82FF      		sbrs r24,2
 304 01d0 00C0      		rjmp .L16
 305               	.LBB325:
 306               	.LM43:
 307 01d2 DE01      		movw r26,r28
 308 01d4 1196      		adiw r26,1
 309 01d6 E0E0      		ldi r30,lo8(C.2.1632)
 310 01d8 F0E0      		ldi r31,hi8(C.2.1632)
 311 01da 8AE0      		ldi r24,lo8(10)
 312               	.L17:
 313 01dc 0190      		ld r0,Z+
 314 01de 0D92      		st X+,r0
 315 01e0 8150      		subi r24,lo8(-(-1))
 316 01e2 01F4      		brne .L17
 317               	.LM44:
 318 01e4 9801      		movw r18,r16
 319 01e6 40E0      		ldi r20,lo8(0)
 320 01e8 50E0      		ldi r21,hi8(0)
 321               	.LVL14:
 322 01ea 60E0      		ldi r22,lo8(12000000)
 323 01ec 7BE1      		ldi r23,hi8(12000000)
 324 01ee 87EB      		ldi r24,hlo8(12000000)
 325 01f0 90E0      		ldi r25,hhi8(12000000)
 326 01f2 0E94 0000 		call __divmodsi4
 327 01f6 722E      		mov r7,r18
 328 01f8 832E      		mov r8,r19
 329 01fa 942E      		mov r9,r20
 330               	.LVL15:
 331 01fc E52E      		mov r14,r21
 332 01fe 5E01      		movw r10,r28
 333 0200 0894      		sec
 334 0202 A11C      		adc r10,__zero_reg__
 335 0204 B11C      		adc r11,__zero_reg__
 336 0206 C901      		movw r24,r18
 337 0208 DA01      		movw r26,r20
 338 020a 9C01      		movw r18,r24
 339 020c AD01      		movw r20,r26
 340               	.LVL16:
 341 020e FF24      		clr r15
 342               	.LVL17:
 343 0210 00C0      		rjmp .L18
 344               	.LVL18:
 345               	.L20:
 346               	.LM45:
 347 0212 F501      		movw r30,r10
 348 0214 2191      		ld r18,Z+
 349 0216 3191      		ld r19,Z+
 350               	.LVL19:
 351 0218 5F01      		movw r10,r30
 352 021a 40E0      		ldi r20,lo8(0)
 353 021c 50E0      		ldi r21,hi8(0)
 354 021e 672D      		mov r22,r7
 355 0220 782D      		mov r23,r8
 356 0222 892D      		mov r24,r9
 357               	.LVL20:
 358 0224 9E2D      		mov r25,r14
 359 0226 0E94 0000 		call __divmodsi4
 360 022a C901      		movw r24,r18
 361 022c DA01      		movw r26,r20
 362 022e 9C01      		movw r18,r24
 363 0230 AD01      		movw r20,r26
 364               	.LVL21:
 365               	.LM46:
 366 0232 F394      		inc r15
 367               	.LM47:
 368 0234 F5E0      		ldi r31,lo8(5)
 369 0236 FF16      		cp r15,r31
 370 0238 01F0      		breq .L19
 371               	.LVL22:
 372               	.L18:
 373               	.LM48:
 374 023a 2F3F      		cpi r18,lo8(255)
 375 023c 3105      		cpc r19,__zero_reg__
 376 023e 4105      		cpc r20,__zero_reg__
 377 0240 5105      		cpc r21,__zero_reg__
 378 0242 01F0      		breq .+2
 379 0244 04F4      		brge .L20
 380               	.L19:
 381               	.LM49:
 382 0246 8F2D      		mov r24,r15
 383 0248 8150      		subi r24,lo8(-(-1))
 384               	.LVL23:
 385               	.LM50:
 386 024a 14BC      		out 68-32,__zero_reg__
 387               	.LM51:
 388 024c 15BC      		out 69-32,__zero_reg__
 389               	.LM52:
 390 024e 1092 6E00 		sts 110,__zero_reg__
 391               	.LM53:
 392 0252 15BA      		out 53-32,__zero_reg__
 393               	.LM54:
 394 0254 17BC      		out 71-32,__zero_reg__
 395               	.LM55:
 396 0256 18BC      		out 72-32,__zero_reg__
 397               	.LM56:
 398 0258 16BC      		out 70-32,__zero_reg__
 399               	.LM57:
 400 025a 17BC      		out 71-32,__zero_reg__
 401               	.LM58:
 402 025c 8823      		tst r24
 403 025e 01F4      		brne .L21
 404               	.LM59:
 405 0260 81E0      		ldi r24,lo8(1)
 406               	.LVL24:
 407 0262 00C0      		rjmp .L28
 408               	.LVL25:
 409               	.L21:
 410               	.LM60:
 411 0264 8130      		cpi r24,lo8(1)
 412 0266 01F4      		brne .L23
 413               	.LM61:
 414 0268 82E0      		ldi r24,lo8(2)
 415               	.LVL26:
 416 026a 00C0      		rjmp .L28
 417               	.LVL27:
 418               	.L23:
 419               	.LM62:
 420 026c 8230      		cpi r24,lo8(2)
 421 026e 01F4      		brne .L24
 422               	.LM63:
 423 0270 83E0      		ldi r24,lo8(3)
 424               	.LVL28:
 425 0272 00C0      		rjmp .L28
 426               	.LVL29:
 427               	.L24:
 428               	.LM64:
 429 0274 8330      		cpi r24,lo8(3)
 430 0276 01F4      		brne .L25
 431               	.LM65:
 432 0278 84E0      		ldi r24,lo8(4)
 433               	.LVL30:
 434 027a 00C0      		rjmp .L28
 435               	.LVL31:
 436               	.L25:
 437               	.LM66:
 438 027c 8430      		cpi r24,lo8(4)
 439 027e 01F4      		brne .L22
 440               	.LM67:
 441 0280 85E0      		ldi r24,lo8(5)
 442               	.LVL32:
 443               	.L28:
 444 0282 85BD      		out 69-32,r24
 445               	.LVL33:
 446               	.L22:
 447               	.LM68:
 448 0284 822F      		mov r24,r18
 449               	.LVL34:
 450 0286 8095      		com r24
 451 0288 F601      		movw r30,r12
 452 028a 8383      		std Z+3,r24
 453               	.LM69:
 454 028c 8381      		ldd r24,Z+3
 455 028e 86BD      		out 70-32,r24
 456               	.LM70:
 457 0290 81E0      		ldi r24,lo8(1)
 458 0292 8093 6E00 		sts 110,r24
 459               	.LM71:
 460               	/* #APP */
 461               	 ;  314 "timebase.c" 1
 462 0296 7894      		sei
 463               	 ;  0 "" 2
 464               	.LVL35:
 465               	/* #NOAPP */
 466               	.L16:
 467               	.LBE325:
 468               	.LM72:
 469 0298 F601      		movw r30,r12
 470 029a 1283      		std Z+2,r17
 471 029c 0183      		std Z+1,r16
 472               	/* epilogue start */
 473               	.LM73:
 474 029e 2A96      		adiw r28,10
 475 02a0 0FB6      		in __tmp_reg__,__SREG__
 476 02a2 F894      		cli
 477 02a4 DEBF      		out __SP_H__,r29
 478 02a6 0FBE      		out __SREG__,__tmp_reg__
 479 02a8 CDBF      		out __SP_L__,r28
 480 02aa CF91      		pop r28
 481 02ac DF91      		pop r29
 482 02ae 1F91      		pop r17
 483 02b0 0F91      		pop r16
 484               	.LVL36:
 485 02b2 FF90      		pop r15
 486 02b4 EF90      		pop r14
 487 02b6 DF90      		pop r13
 488 02b8 CF90      		pop r12
 489 02ba BF90      		pop r11
 490 02bc AF90      		pop r10
 491 02be 9F90      		pop r9
 492 02c0 8F90      		pop r8
 493 02c2 7F90      		pop r7
 494 02c4 0895      		ret
 495               	.LFE7:
 497               	.global	Timebase_Token_Executing
 499               	Timebase_Token_Executing:
 500               	.LFB8:
 501               	.LM74:
 502               	/* prologue: function */
 503               	/* frame size = 0 */
 504               	.LM75:
 505 02c6 E091 0000 		lds r30,Timebase
 506 02ca F091 0000 		lds r31,(Timebase)+1
 507 02ce 808D      		ldd r24,Z+24
 508               	/* epilogue start */
 509               	.LM76:
 510 02d0 0895      		ret
 511               	.LFE8:
 513               	.global	Timebase_Token_Add
 515               	Timebase_Token_Add:
 516               	.LFB9:
 517               	.LM77:
 518               	/* prologue: function */
 519               	/* frame size = 0 */
 520               	.LBB326:
 521               	.LBB327:
 522               	.LM78:
 523 02d2 E091 0000 		lds r30,Timebase
 524 02d6 F091 0000 		lds r31,(Timebase)+1
 525 02da 808D      		ldd r24,Z+24
 526               	.LBE327:
 527               	.LBE326:
 528               	.LM79:
 529 02dc 8F33      		cpi r24,lo8(63)
 530 02de 00F4      		brsh .L33
 531               	.LM80:
 532 02e0 808D      		ldd r24,Z+24
 533 02e2 8F5F      		subi r24,lo8(-(1))
 534 02e4 808F      		std Z+24,r24
 535               	.L33:
 536 02e6 0895      		ret
 537               	.LFE9:
 539               	.global	Timebase_Token_Remove
 541               	Timebase_Token_Remove:
 542               	.LFB10:
 543               	.LM81:
 544               	/* prologue: function */
 545               	/* frame size = 0 */
 546               	.LBB328:
 547               	.LBB329:
 548               	.LM82:
 549 02e8 E091 0000 		lds r30,Timebase
 550 02ec F091 0000 		lds r31,(Timebase)+1
 551 02f0 808D      		ldd r24,Z+24
 552               	.LBE329:
 553               	.LBE328:
 554               	.LM83:
 555 02f2 8823      		tst r24
 556 02f4 01F0      		breq .L36
 557               	.LM84:
 558 02f6 808D      		ldd r24,Z+24
 559 02f8 8150      		subi r24,lo8(-(-1))
 560 02fa 808F      		std Z+24,r24
 561               	.L36:
 562 02fc 0895      		ret
 563               	.LFE10:
 565               	.global	Timebase_Token_Remove_All
 567               	Timebase_Token_Remove_All:
 568               	.LFB11:
 569               	.LM85:
 570               	/* prologue: function */
 571               	/* frame size = 0 */
 572               	.LM86:
 573 02fe E091 0000 		lds r30,Timebase
 574 0302 F091 0000 		lds r31,(Timebase)+1
 575 0306 108E      		std Z+24,__zero_reg__
 576               	/* epilogue start */
 577               	.LM87:
 578 0308 0895      		ret
 579               	.LFE11:
 581               	.global	Timebase_Timer_Get_SubSeconds
 583               	Timebase_Timer_Get_SubSeconds:
 584               	.LFB12:
 585               	.LM88:
 586               	/* prologue: function */
 587               	/* frame size = 0 */
 588               	.LM89:
 589 030a E091 0000 		lds r30,Timebase
 590 030e F091 0000 		lds r31,(Timebase)+1
 591 0312 2085      		ldd r18,Z+8
 592 0314 3185      		ldd r19,Z+9
 593               	.LM90:
 594 0316 C901      		movw r24,r18
 595               	/* epilogue start */
 596 0318 0895      		ret
 597               	.LFE12:
 599               	.global	Timebase_Timer_Get_Seconds
 601               	Timebase_Timer_Get_Seconds:
 602               	.LFB13:
 603               	.LM91:
 604               	/* prologue: function */
 605               	/* frame size = 0 */
 606               	.LM92:
 607 031a E091 0000 		lds r30,Timebase
 608 031e F091 0000 		lds r31,(Timebase)+1
 609 0322 2285      		ldd r18,Z+10
 610 0324 3385      		ldd r19,Z+11
 611 0326 4485      		ldd r20,Z+12
 612 0328 5585      		ldd r21,Z+13
 613               	.LM93:
 614 032a B901      		movw r22,r18
 615 032c CA01      		movw r24,r20
 616               	/* epilogue start */
 617 032e 0895      		ret
 618               	.LFE13:
 620               	.global	Timebase_Timer_Set_SubSeconds
 622               	Timebase_Timer_Set_SubSeconds:
 623               	.LFB14:
 624               	.LM94:
 625               	.LVL37:
 626               	/* prologue: function */
 627               	/* frame size = 0 */
 628               	.LM95:
 629 0330 E091 0000 		lds r30,Timebase
 630 0334 F091 0000 		lds r31,(Timebase)+1
 631 0338 9187      		std Z+9,r25
 632 033a 8087      		std Z+8,r24
 633               	/* epilogue start */
 634               	.LM96:
 635 033c 0895      		ret
 636               	.LFE14:
 638               	.global	Timebase_Timer_Set_Seconds
 640               	Timebase_Timer_Set_Seconds:
 641               	.LFB15:
 642               	.LM97:
 643               	.LVL38:
 644               	/* prologue: function */
 645               	/* frame size = 0 */
 646               	.LM98:
 647 033e E091 0000 		lds r30,Timebase
 648 0342 F091 0000 		lds r31,(Timebase)+1
 649 0346 6287      		std Z+10,r22
 650 0348 7387      		std Z+11,r23
 651 034a 8487      		std Z+12,r24
 652 034c 9587      		std Z+13,r25
 653               	/* epilogue start */
 654               	.LM99:
 655 034e 0895      		ret
 656               	.LFE15:
 658               	.global	Timebase_Timer_Await_SubSeconds
 660               	Timebase_Timer_Await_SubSeconds:
 661               	.LFB17:
 662               	.LM100:
 663               	.LVL39:
 664               	/* prologue: function */
 665               	/* frame size = 0 */
 666 0350 BC01      		movw r22,r24
 667               	.LBB330:
 668               	.LBB331:
 669               	.LM101:
 670 0352 E091 0000 		lds r30,Timebase
 671 0356 F091 0000 		lds r31,(Timebase)+1
 672               	.LVL40:
 673               	.L48:
 674 035a 8085      		ldd r24,Z+8
 675 035c 9185      		ldd r25,Z+9
 676               	.LBE331:
 677               	.LBE330:
 678               	.LM102:
 679 035e 2481      		ldd r18,Z+4
 680 0360 3581      		ldd r19,Z+5
 681 0362 4681      		ldd r20,Z+6
 682 0364 5781      		ldd r21,Z+7
 683 0366 A0E0      		ldi r26,lo8(0)
 684 0368 B0E0      		ldi r27,hi8(0)
 685 036a 8217      		cp r24,r18
 686 036c 9307      		cpc r25,r19
 687 036e A407      		cpc r26,r20
 688 0370 B507      		cpc r27,r21
 689 0372 01F4      		brne .L48
 690               	.LBB332:
 691               	.LBB333:
 692               	.LM103:
 693 0374 8085      		ldd r24,Z+8
 694 0376 9185      		ldd r25,Z+9
 695               	.LBE333:
 696               	.LBE332:
 697               	.LM104:
 698 0378 860F      		add r24,r22
 699 037a 971F      		adc r25,r23
 700 037c A0E0      		ldi r26,lo8(0)
 701 037e B0E0      		ldi r27,hi8(0)
 702 0380 8483      		std Z+4,r24
 703 0382 9583      		std Z+5,r25
 704 0384 A683      		std Z+6,r26
 705 0386 B783      		std Z+7,r27
 706               	.LM105:
 707 0388 2481      		ldd r18,Z+4
 708 038a 3581      		ldd r19,Z+5
 709 038c 4681      		ldd r20,Z+6
 710 038e 5781      		ldd r21,Z+7
 711 0390 8181      		ldd r24,Z+1
 712 0392 9281      		ldd r25,Z+2
 713 0394 A0E0      		ldi r26,lo8(0)
 714 0396 B0E0      		ldi r27,hi8(0)
 715 0398 2817      		cp r18,r24
 716 039a 3907      		cpc r19,r25
 717 039c 4A07      		cpc r20,r26
 718 039e 5B07      		cpc r21,r27
 719 03a0 04F0      		brlt .L50
 720               	.LM106:
 721 03a2 2481      		ldd r18,Z+4
 722 03a4 3581      		ldd r19,Z+5
 723 03a6 4681      		ldd r20,Z+6
 724 03a8 5781      		ldd r21,Z+7
 725 03aa 8181      		ldd r24,Z+1
 726 03ac 9281      		ldd r25,Z+2
 727 03ae A0E0      		ldi r26,lo8(0)
 728 03b0 B0E0      		ldi r27,hi8(0)
 729 03b2 281B      		sub r18,r24
 730 03b4 390B      		sbc r19,r25
 731 03b6 4A0B      		sbc r20,r26
 732 03b8 5B0B      		sbc r21,r27
 733 03ba 2483      		std Z+4,r18
 734 03bc 3583      		std Z+5,r19
 735 03be 4683      		std Z+6,r20
 736 03c0 5783      		std Z+7,r21
 737               	.L50:
 738 03c2 0895      		ret
 739               	.LFE17:
 741               	.global	Timebase_Timer_Delay_Seconds
 743               	Timebase_Timer_Delay_Seconds:
 744               	.LFB18:
 745               	.LM107:
 746               	.LVL41:
 747 03c4 EF92      		push r14
 748 03c6 FF92      		push r15
 749 03c8 0F93      		push r16
 750 03ca 1F93      		push r17
 751               	/* prologue: function */
 752               	/* frame size = 0 */
 753               	.LBB334:
 754               	.LBB335:
 755               	.LM108:
 756 03cc E091 0000 		lds r30,Timebase
 757 03d0 F091 0000 		lds r31,(Timebase)+1
 758 03d4 2285      		ldd r18,Z+10
 759 03d6 3385      		ldd r19,Z+11
 760 03d8 4485      		ldd r20,Z+12
 761 03da 5585      		ldd r21,Z+13
 762               	.LBE335:
 763               	.LBE334:
 764               	.LM109:
 765 03dc 7C01      		movw r14,r24
 766               	.LVL42:
 767 03de 00E0      		ldi r16,lo8(0)
 768 03e0 10E0      		ldi r17,hi8(0)
 769               	.LVL43:
 770 03e2 E20E      		add r14,r18
 771 03e4 F31E      		adc r15,r19
 772 03e6 041F      		adc r16,r20
 773 03e8 151F      		adc r17,r21
 774               	.LVL44:
 775               	.L53:
 776               	.LBB336:
 777               	.LBB337:
 778               	.LM110:
 779 03ea 8285      		ldd r24,Z+10
 780 03ec 9385      		ldd r25,Z+11
 781 03ee A485      		ldd r26,Z+12
 782 03f0 B585      		ldd r27,Z+13
 783               	.LVL45:
 784               	.LBE337:
 785               	.LBE336:
 786               	.LM111:
 787 03f2 8E15      		cp r24,r14
 788 03f4 9F05      		cpc r25,r15
 789 03f6 A007      		cpc r26,r16
 790 03f8 B107      		cpc r27,r17
 791 03fa 04F0      		brlt .L53
 792               	/* epilogue start */
 793               	.LM112:
 794 03fc 1F91      		pop r17
 795 03fe 0F91      		pop r16
 796               	.LVL46:
 797 0400 FF90      		pop r15
 798 0402 EF90      		pop r14
 799               	.LVL47:
 800 0404 0895      		ret
 801               	.LFE18:
 803               	.global	Timebase_Window_Timer_Reset
 805               	Timebase_Window_Timer_Reset:
 806               	.LFB19:
 807               	.LM113:
 808               	/* prologue: function */
 809               	/* frame size = 0 */
 810               	.LM114:
 811 0406 E091 0000 		lds r30,Timebase
 812 040a F091 0000 		lds r31,(Timebase)+1
 813 040e 1686      		std Z+14,__zero_reg__
 814 0410 1786      		std Z+15,__zero_reg__
 815 0412 108A      		std Z+16,__zero_reg__
 816 0414 118A      		std Z+17,__zero_reg__
 817               	.LM115:
 818 0416 128A      		std Z+18,__zero_reg__
 819 0418 138A      		std Z+19,__zero_reg__
 820 041a 148A      		std Z+20,__zero_reg__
 821 041c 158A      		std Z+21,__zero_reg__
 822               	.LM116:
 823 041e 168A      		std Z+22,__zero_reg__
 824               	/* epilogue start */
 825               	.LM117:
 826 0420 0895      		ret
 827               	.LFE19:
 829               	.global	Timebase_Window_Timer_Start
 831               	Timebase_Window_Timer_Start:
 832               	.LFB20:
 833               	.LM118:
 834               	/* prologue: function */
 835               	/* frame size = 0 */
 836               	.LM119:
 837 0422 E091 0000 		lds r30,Timebase
 838 0426 F091 0000 		lds r31,(Timebase)+1
 839 042a 8689      		ldd r24,Z+22
 840 042c 8823      		tst r24
 841 042e 01F4      		brne .L60
 842               	.LBB338:
 843               	.LBB339:
 844               	.LM120:
 845 0430 8285      		ldd r24,Z+10
 846 0432 9385      		ldd r25,Z+11
 847 0434 A485      		ldd r26,Z+12
 848 0436 B585      		ldd r27,Z+13
 849               	.LBE339:
 850               	.LBE338:
 851               	.LM121:
 852 0438 8687      		std Z+14,r24
 853 043a 9787      		std Z+15,r25
 854 043c A08B      		std Z+16,r26
 855 043e B18B      		std Z+17,r27
 856               	.LBB340:
 857               	.LBB341:
 858               	.LM122:
 859 0440 8085      		ldd r24,Z+8
 860 0442 9185      		ldd r25,Z+9
 861               	.LBE341:
 862               	.LBE340:
 863               	.LM123:
 864 0444 A0E0      		ldi r26,lo8(0)
 865 0446 B0E0      		ldi r27,hi8(0)
 866 0448 828B      		std Z+18,r24
 867 044a 938B      		std Z+19,r25
 868 044c A48B      		std Z+20,r26
 869 044e B58B      		std Z+21,r27
 870               	.LM124:
 871 0450 81E0      		ldi r24,lo8(1)
 872 0452 868B      		std Z+22,r24
 873               	.L60:
 874 0454 0895      		ret
 875               	.LFE20:
 877               	.global	Timebase_Window_Timer_Get_Interval
 879               	Timebase_Window_Timer_Get_Interval:
 880               	.LFB21:
 881               	.LM125:
 882 0456 EF92      		push r14
 883 0458 FF92      		push r15
 884 045a 0F93      		push r16
 885 045c 1F93      		push r17
 886 045e CF93      		push r28
 887 0460 DF93      		push r29
 888               	/* prologue: function */
 889               	/* frame size = 0 */
 890               	.LM126:
 891 0462 C091 0000 		lds r28,Timebase
 892 0466 D091 0000 		lds r29,(Timebase)+1
 893 046a 8E89      		ldd r24,Y+22
 894 046c 8130      		cpi r24,lo8(1)
 895 046e 01F0      		breq .L62
 896 0470 EE24      		clr r14
 897 0472 FF24      		clr r15
 898 0474 8701      		movw r16,r14
 899               	.LVL48:
 900 0476 00C0      		rjmp .L63
 901               	.LVL49:
 902               	.L62:
 903               	.LBB342:
 904               	.LBB343:
 905               	.LBB344:
 906               	.LM127:
 907 0478 2A85      		ldd r18,Y+10
 908 047a 3B85      		ldd r19,Y+11
 909 047c 4C85      		ldd r20,Y+12
 910 047e 5D85      		ldd r21,Y+13
 911               	.LVL50:
 912               	.LBE344:
 913               	.LBE343:
 914               	.LBB345:
 915               	.LBB346:
 916               	.LM128:
 917 0480 8885      		ldd r24,Y+8
 918 0482 9985      		ldd r25,Y+9
 919               	.LBE346:
 920               	.LBE345:
 921               	.LM129:
 922 0484 7C01      		movw r14,r24
 923               	.LVL51:
 924 0486 00E0      		ldi r16,lo8(0)
 925 0488 10E0      		ldi r17,hi8(0)
 926               	.LVL52:
 927               	.LM130:
 928 048a 8E85      		ldd r24,Y+14
 929 048c 9F85      		ldd r25,Y+15
 930 048e A889      		ldd r26,Y+16
 931 0490 B989      		ldd r27,Y+17
 932 0492 281B      		sub r18,r24
 933 0494 390B      		sbc r19,r25
 934 0496 4A0B      		sbc r20,r26
 935 0498 5B0B      		sbc r21,r27
 936               	.LVL53:
 937               	.LM131:
 938 049a 6981      		ldd r22,Y+1
 939 049c 7A81      		ldd r23,Y+2
 940 049e 80E0      		ldi r24,lo8(0)
 941 04a0 90E0      		ldi r25,hi8(0)
 942 04a2 0E94 0000 		call __mulsi3
 943               	.LVL54:
 944               	.LM132:
 945 04a6 2A89      		ldd r18,Y+18
 946 04a8 3B89      		ldd r19,Y+19
 947 04aa 4C89      		ldd r20,Y+20
 948 04ac 5D89      		ldd r21,Y+21
 949 04ae E21A      		sub r14,r18
 950 04b0 F30A      		sbc r15,r19
 951 04b2 040B      		sbc r16,r20
 952 04b4 150B      		sbc r17,r21
 953               	.LVL55:
 954 04b6 E60E      		add r14,r22
 955 04b8 F71E      		adc r15,r23
 956 04ba 081F      		adc r16,r24
 957 04bc 191F      		adc r17,r25
 958               	.L63:
 959               	.LBE342:
 960               	.LM133:
 961 04be B701      		movw r22,r14
 962               	.LVL56:
 963 04c0 C801      		movw r24,r16
 964               	.LVL57:
 965               	/* epilogue start */
 966 04c2 DF91      		pop r29
 967 04c4 CF91      		pop r28
 968 04c6 1F91      		pop r17
 969 04c8 0F91      		pop r16
 970 04ca FF90      		pop r15
 971 04cc EF90      		pop r14
 972 04ce 0895      		ret
 973               	.LFE21:
 975               	.global	Timebase_Window_Timer_Get_Interval_Reset
 977               	Timebase_Window_Timer_Get_Interval_Reset:
 978               	.LFB22:
 979               	.LM134:
 980               	/* prologue: function */
 981               	/* frame size = 0 */
 982               	.LM135:
 983 04d0 0E94 0000 		call Timebase_Window_Timer_Get_Interval
 984 04d4 282F      		mov r18,r24
 985               	.LVL58:
 986               	.LM136:
 987 04d6 E091 0000 		lds r30,Timebase
 988 04da F091 0000 		lds r31,(Timebase)+1
 989 04de 8689      		ldd r24,Z+22
 990 04e0 8130      		cpi r24,lo8(1)
 991 04e2 01F4      		brne .L66
 992               	.LBB347:
 993               	.LBB348:
 994               	.LM137:
 995 04e4 1686      		std Z+14,__zero_reg__
 996 04e6 1786      		std Z+15,__zero_reg__
 997 04e8 108A      		std Z+16,__zero_reg__
 998 04ea 118A      		std Z+17,__zero_reg__
 999               	.LM138:
 1000 04ec 128A      		std Z+18,__zero_reg__
 1001 04ee 138A      		std Z+19,__zero_reg__
 1002 04f0 148A      		std Z+20,__zero_reg__
 1003 04f2 158A      		std Z+21,__zero_reg__
 1004               	.LM139:
 1005 04f4 168A      		std Z+22,__zero_reg__
 1006               	.L66:
 1007               	.LBE348:
 1008               	.LBE347:
 1009               	.LM140:
 1010 04f6 822F      		mov r24,r18
 1011               	/* epilogue start */
 1012 04f8 0895      		ret
 1013               	.LFE22:
 1015               	.global	Timebase_DownCounter_Get_Status
 1017               	Timebase_DownCounter_Get_Status:
 1018               	.LFB23:
 1019               	.LM141:
 1020               	.LVL59:
 1021               	/* prologue: function */
 1022               	/* frame size = 0 */
 1023               	.LM142:
 1024 04fa E091 0000 		lds r30,Timebase
 1025 04fe F091 0000 		lds r31,(Timebase)+1
 1026 0502 90E0      		ldi r25,lo8(0)
 1027               	.LVL60:
 1028 0504 2DE0      		ldi r18,lo8(13)
 1029 0506 30E0      		ldi r19,hi8(13)
 1030 0508 AC01      		movw r20,r24
 1031 050a 429F      		mul r20,r18
 1032 050c C001      		movw r24,r0
 1033 050e 439F      		mul r20,r19
 1034 0510 900D      		add r25,r0
 1035 0512 529F      		mul r21,r18
 1036 0514 900D      		add r25,r0
 1037 0516 1124      		clr r1
 1038               	.LVL61:
 1039 0518 E80F      		add r30,r24
 1040 051a F91F      		adc r31,r25
 1041 051c E259      		subi r30,lo8(-(110))
 1042 051e FF4F      		sbci r31,hi8(-(110))
 1043 0520 8081      		ld r24,Z
 1044 0522 8695      		lsr r24
 1045               	.LM143:
 1046 0524 8F70      		andi r24,lo8(15)
 1047               	/* epilogue start */
 1048 0526 0895      		ret
 1049               	.LFE23:
 1051               	.global	Timebase_DownCounter_Set_Status
 1053               	Timebase_DownCounter_Set_Status:
 1054               	.LFB24:
 1055               	.LM144:
 1056               	.LVL62:
 1057               	/* prologue: function */
 1058               	/* frame size = 0 */
 1059               	.LM145:
 1060 0528 E091 0000 		lds r30,Timebase
 1061 052c F091 0000 		lds r31,(Timebase)+1
 1062 0530 90E0      		ldi r25,lo8(0)
 1063               	.LVL63:
 1064 0532 2DE0      		ldi r18,lo8(13)
 1065 0534 30E0      		ldi r19,hi8(13)
 1066 0536 AC01      		movw r20,r24
 1067 0538 429F      		mul r20,r18
 1068 053a C001      		movw r24,r0
 1069 053c 439F      		mul r20,r19
 1070 053e 900D      		add r25,r0
 1071 0540 529F      		mul r21,r18
 1072 0542 900D      		add r25,r0
 1073 0544 1124      		clr r1
 1074               	.LVL64:
 1075 0546 E80F      		add r30,r24
 1076 0548 F91F      		adc r31,r25
 1077 054a E259      		subi r30,lo8(-(110))
 1078 054c FF4F      		sbci r31,hi8(-(110))
 1079 054e 6F70      		andi r22,lo8(15)
 1080               	.LVL65:
 1081 0550 660F      		lsl r22
 1082 0552 8081      		ld r24,Z
 1083 0554 817E      		andi r24,lo8(-31)
 1084 0556 862B      		or r24,r22
 1085 0558 8083      		st Z,r24
 1086               	/* epilogue start */
 1087               	.LM146:
 1088 055a 0895      		ret
 1089               	.LFE24:
 1091               	.global	Timebase_DownCounter_Get_Value
 1093               	Timebase_DownCounter_Get_Value:
 1094               	.LFB25:
 1095               	.LM147:
 1096               	.LVL66:
 1097               	/* prologue: function */
 1098               	/* frame size = 0 */
 1099               	.LM148:
 1100 055c E091 0000 		lds r30,Timebase
 1101 0560 F091 0000 		lds r31,(Timebase)+1
 1102 0564 90E0      		ldi r25,lo8(0)
 1103               	.LVL67:
 1104 0566 2DE0      		ldi r18,lo8(13)
 1105 0568 30E0      		ldi r19,hi8(13)
 1106 056a AC01      		movw r20,r24
 1107 056c 429F      		mul r20,r18
 1108 056e C001      		movw r24,r0
 1109 0570 439F      		mul r20,r19
 1110 0572 900D      		add r25,r0
 1111 0574 529F      		mul r21,r18
 1112 0576 900D      		add r25,r0
 1113 0578 1124      		clr r1
 1114               	.LVL68:
 1115 057a E80F      		add r30,r24
 1116 057c F91F      		adc r31,r25
 1117 057e ED58      		subi r30,lo8(-(115))
 1118 0580 FF4F      		sbci r31,hi8(-(115))
 1119 0582 6081      		ld r22,Z
 1120 0584 7181      		ldd r23,Z+1
 1121               	.LM149:
 1122 0586 8281      		ldd r24,Z+2
 1123 0588 9381      		ldd r25,Z+3
 1124               	.LVL69:
 1125               	/* epilogue start */
 1126 058a 0895      		ret
 1127               	.LFE25:
 1129               	.global	Timebase_DownCounter_Set_Value
 1131               	Timebase_DownCounter_Set_Value:
 1132               	.LFB26:
 1133               	.LM150:
 1134               	.LVL70:
 1135               	/* prologue: function */
 1136               	/* frame size = 0 */
 1137               	.LM151:
 1138 058c E091 0000 		lds r30,Timebase
 1139 0590 F091 0000 		lds r31,(Timebase)+1
 1140 0594 90E0      		ldi r25,lo8(0)
 1141               	.LVL71:
 1142 0596 2DE0      		ldi r18,lo8(13)
 1143 0598 30E0      		ldi r19,hi8(13)
 1144 059a DC01      		movw r26,r24
 1145 059c A29F      		mul r26,r18
 1146 059e C001      		movw r24,r0
 1147 05a0 A39F      		mul r26,r19
 1148 05a2 900D      		add r25,r0
 1149 05a4 B29F      		mul r27,r18
 1150 05a6 900D      		add r25,r0
 1151 05a8 1124      		clr r1
 1152               	.LVL72:
 1153 05aa E80F      		add r30,r24
 1154 05ac F91F      		adc r31,r25
 1155 05ae ED58      		subi r30,lo8(-(115))
 1156 05b0 FF4F      		sbci r31,hi8(-(115))
 1157 05b2 4083      		st Z,r20
 1158 05b4 5183      		std Z+1,r21
 1159 05b6 6283      		std Z+2,r22
 1160 05b8 7383      		std Z+3,r23
 1161               	/* epilogue start */
 1162               	.LM152:
 1163 05ba 0895      		ret
 1164               	.LFE26:
 1166               	.global	Timebase_DownCounter_Get_EndValue
 1168               	Timebase_DownCounter_Get_EndValue:
 1169               	.LFB27:
 1170               	.LM153:
 1171               	.LVL73:
 1172               	/* prologue: function */
 1173               	/* frame size = 0 */
 1174               	.LM154:
 1175 05bc E091 0000 		lds r30,Timebase
 1176 05c0 F091 0000 		lds r31,(Timebase)+1
 1177 05c4 90E0      		ldi r25,lo8(0)
 1178               	.LVL74:
 1179 05c6 2DE0      		ldi r18,lo8(13)
 1180 05c8 30E0      		ldi r19,hi8(13)
 1181 05ca AC01      		movw r20,r24
 1182 05cc 429F      		mul r20,r18
 1183 05ce C001      		movw r24,r0
 1184 05d0 439F      		mul r20,r19
 1185 05d2 900D      		add r25,r0
 1186 05d4 529F      		mul r21,r18
 1187 05d6 900D      		add r25,r0
 1188 05d8 1124      		clr r1
 1189               	.LVL75:
 1190 05da E80F      		add r30,r24
 1191 05dc F91F      		adc r31,r25
 1192 05de E159      		subi r30,lo8(-(111))
 1193 05e0 FF4F      		sbci r31,hi8(-(111))
 1194 05e2 6081      		ld r22,Z
 1195 05e4 7181      		ldd r23,Z+1
 1196               	.LM155:
 1197 05e6 8281      		ldd r24,Z+2
 1198 05e8 9381      		ldd r25,Z+3
 1199               	.LVL76:
 1200               	/* epilogue start */
 1201 05ea 0895      		ret
 1202               	.LFE27:
 1204               	.global	Timebase_DownCounter_Set_EndValue
 1206               	Timebase_DownCounter_Set_EndValue:
 1207               	.LFB28:
 1208               	.LM156:
 1209               	.LVL77:
 1210               	/* prologue: function */
 1211               	/* frame size = 0 */
 1212               	.LM157:
 1213 05ec E091 0000 		lds r30,Timebase
 1214 05f0 F091 0000 		lds r31,(Timebase)+1
 1215 05f4 90E0      		ldi r25,lo8(0)
 1216               	.LVL78:
 1217 05f6 2DE0      		ldi r18,lo8(13)
 1218 05f8 30E0      		ldi r19,hi8(13)
 1219 05fa DC01      		movw r26,r24
 1220 05fc A29F      		mul r26,r18
 1221 05fe C001      		movw r24,r0
 1222 0600 A39F      		mul r26,r19
 1223 0602 900D      		add r25,r0
 1224 0604 B29F      		mul r27,r18
 1225 0606 900D      		add r25,r0
 1226 0608 1124      		clr r1
 1227               	.LVL79:
 1228 060a E80F      		add r30,r24
 1229 060c F91F      		adc r31,r25
 1230 060e E159      		subi r30,lo8(-(111))
 1231 0610 FF4F      		sbci r31,hi8(-(111))
 1232 0612 4083      		st Z,r20
 1233 0614 5183      		std Z+1,r21
 1234 0616 6283      		std Z+2,r22
 1235 0618 7383      		std Z+3,r23
 1236               	/* epilogue start */
 1237               	.LM158:
 1238 061a 0895      		ret
 1239               	.LFE28:
 1241               	.global	Timebase_DownCounter_Get_PeriodValue
 1243               	Timebase_DownCounter_Get_PeriodValue:
 1244               	.LFB29:
 1245               	.LM159:
 1246               	.LVL80:
 1247               	/* prologue: function */
 1248               	/* frame size = 0 */
 1249               	.LM160:
 1250 061c E091 0000 		lds r30,Timebase
 1251 0620 F091 0000 		lds r31,(Timebase)+1
 1252 0624 90E0      		ldi r25,lo8(0)
 1253               	.LVL81:
 1254 0626 2DE0      		ldi r18,lo8(13)
 1255 0628 30E0      		ldi r19,hi8(13)
 1256 062a AC01      		movw r20,r24
 1257 062c 429F      		mul r20,r18
 1258 062e C001      		movw r24,r0
 1259 0630 439F      		mul r20,r19
 1260 0632 900D      		add r25,r0
 1261 0634 529F      		mul r21,r18
 1262 0636 900D      		add r25,r0
 1263 0638 1124      		clr r1
 1264               	.LVL82:
 1265 063a E80F      		add r30,r24
 1266 063c F91F      		adc r31,r25
 1267 063e E958      		subi r30,lo8(-(119))
 1268 0640 FF4F      		sbci r31,hi8(-(119))
 1269 0642 6081      		ld r22,Z
 1270 0644 7181      		ldd r23,Z+1
 1271               	.LM161:
 1272 0646 8281      		ldd r24,Z+2
 1273 0648 9381      		ldd r25,Z+3
 1274               	.LVL83:
 1275               	/* epilogue start */
 1276 064a 0895      		ret
 1277               	.LFE29:
 1279               	.global	Timebase_DownCounter_Set_PeriodValue
 1281               	Timebase_DownCounter_Set_PeriodValue:
 1282               	.LFB30:
 1283               	.LM162:
 1284               	.LVL84:
 1285               	/* prologue: function */
 1286               	/* frame size = 0 */
 1287 064c E091 0000 		lds r30,Timebase
 1288 0650 F091 0000 		lds r31,(Timebase)+1
 1289 0654 282F      		mov r18,r24
 1290 0656 30E0      		ldi r19,lo8(0)
 1291               	.LVL85:
 1292               	.LM163:
 1293 0658 77FF      		sbrs r23,7
 1294 065a 00C0      		rjmp .L83
 1295               	.LVL86:
 1296               	.LM164:
 1297 065c 8DE0      		ldi r24,lo8(13)
 1298 065e 90E0      		ldi r25,hi8(13)
 1299 0660 AC01      		movw r20,r24
 1300               	.LVL87:
 1301 0662 249F      		mul r18,r20
 1302 0664 C001      		movw r24,r0
 1303 0666 259F      		mul r18,r21
 1304 0668 900D      		add r25,r0
 1305 066a 349F      		mul r19,r20
 1306 066c 900D      		add r25,r0
 1307 066e 1124      		clr r1
 1308 0670 E80F      		add r30,r24
 1309 0672 F91F      		adc r31,r25
 1310 0674 E958      		subi r30,lo8(-(119))
 1311 0676 FF4F      		sbci r31,hi8(-(119))
 1312 0678 1082      		st Z,__zero_reg__
 1313 067a 1182      		std Z+1,__zero_reg__
 1314 067c 1282      		std Z+2,__zero_reg__
 1315 067e 1382      		std Z+3,__zero_reg__
 1316 0680 0895      		ret
 1317               	.LVL88:
 1318               	.L83:
 1319               	.LM165:
 1320 0682 8DE0      		ldi r24,lo8(13)
 1321 0684 90E0      		ldi r25,hi8(13)
 1322 0686 DC01      		movw r26,r24
 1323 0688 2A9F      		mul r18,r26
 1324 068a C001      		movw r24,r0
 1325 068c 2B9F      		mul r18,r27
 1326 068e 900D      		add r25,r0
 1327 0690 3A9F      		mul r19,r26
 1328 0692 900D      		add r25,r0
 1329 0694 1124      		clr r1
 1330 0696 E80F      		add r30,r24
 1331 0698 F91F      		adc r31,r25
 1332 069a E958      		subi r30,lo8(-(119))
 1333 069c FF4F      		sbci r31,hi8(-(119))
 1334 069e 4083      		st Z,r20
 1335 06a0 5183      		std Z+1,r21
 1336 06a2 6283      		std Z+2,r22
 1337 06a4 7383      		std Z+3,r23
 1338 06a6 0895      		ret
 1339               	.LFE30:
 1341               	.global	Timebase_DownCounter_Get_Period_Flag
 1343               	Timebase_DownCounter_Get_Period_Flag:
 1344               	.LFB31:
 1345               	.LM166:
 1346               	.LVL89:
 1347               	/* prologue: function */
 1348               	/* frame size = 0 */
 1349               	.LM167:
 1350 06a8 E091 0000 		lds r30,Timebase
 1351 06ac F091 0000 		lds r31,(Timebase)+1
 1352 06b0 90E0      		ldi r25,lo8(0)
 1353               	.LVL90:
 1354 06b2 2DE0      		ldi r18,lo8(13)
 1355 06b4 30E0      		ldi r19,hi8(13)
 1356 06b6 AC01      		movw r20,r24
 1357 06b8 429F      		mul r20,r18
 1358 06ba C001      		movw r24,r0
 1359 06bc 439F      		mul r20,r19
 1360 06be 900D      		add r25,r0
 1361 06c0 529F      		mul r21,r18
 1362 06c2 900D      		add r25,r0
 1363 06c4 1124      		clr r1
 1364               	.LVL91:
 1365 06c6 E80F      		add r30,r24
 1366 06c8 F91F      		adc r31,r25
 1367 06ca E259      		subi r30,lo8(-(110))
 1368 06cc FF4F      		sbci r31,hi8(-(110))
 1369 06ce 8081      		ld r24,Z
 1370               	.LM168:
 1371 06d0 8170      		andi r24,lo8(1)
 1372               	/* epilogue start */
 1373 06d2 0895      		ret
 1374               	.LFE31:
 1376               	.global	Timebase_DownCounter_Set_Period_Flag
 1378               	Timebase_DownCounter_Set_Period_Flag:
 1379               	.LFB32:
 1380               	.LM169:
 1381               	.LVL92:
 1382               	/* prologue: function */
 1383               	/* frame size = 0 */
 1384               	.LM170:
 1385 06d4 E091 0000 		lds r30,Timebase
 1386 06d8 F091 0000 		lds r31,(Timebase)+1
 1387 06dc 90E0      		ldi r25,lo8(0)
 1388               	.LVL93:
 1389 06de 2DE0      		ldi r18,lo8(13)
 1390 06e0 30E0      		ldi r19,hi8(13)
 1391 06e2 AC01      		movw r20,r24
 1392 06e4 429F      		mul r20,r18
 1393 06e6 C001      		movw r24,r0
 1394 06e8 439F      		mul r20,r19
 1395 06ea 900D      		add r25,r0
 1396 06ec 529F      		mul r21,r18
 1397 06ee 900D      		add r25,r0
 1398 06f0 1124      		clr r1
 1399               	.LVL94:
 1400 06f2 E80F      		add r30,r24
 1401 06f4 F91F      		adc r31,r25
 1402 06f6 E259      		subi r30,lo8(-(110))
 1403 06f8 FF4F      		sbci r31,hi8(-(110))
 1404 06fa 8081      		ld r24,Z
 1405 06fc 8160      		ori r24,lo8(1)
 1406 06fe 8083      		st Z,r24
 1407               	/* epilogue start */
 1408               	.LM171:
 1409 0700 0895      		ret
 1410               	.LFE32:
 1412               	.global	Timebase_DownCounter_Clear_Period_Flag
 1414               	Timebase_DownCounter_Clear_Period_Flag:
 1415               	.LFB33:
 1416               	.LM172:
 1417               	.LVL95:
 1418               	/* prologue: function */
 1419               	/* frame size = 0 */
 1420               	.LM173:
 1421 0702 E091 0000 		lds r30,Timebase
 1422 0706 F091 0000 		lds r31,(Timebase)+1
 1423 070a 90E0      		ldi r25,lo8(0)
 1424               	.LVL96:
 1425 070c 2DE0      		ldi r18,lo8(13)
 1426 070e 30E0      		ldi r19,hi8(13)
 1427 0710 AC01      		movw r20,r24
 1428 0712 429F      		mul r20,r18
 1429 0714 C001      		movw r24,r0
 1430 0716 439F      		mul r20,r19
 1431 0718 900D      		add r25,r0
 1432 071a 529F      		mul r21,r18
 1433 071c 900D      		add r25,r0
 1434 071e 1124      		clr r1
 1435               	.LVL97:
 1436 0720 E80F      		add r30,r24
 1437 0722 F91F      		adc r31,r25
 1438 0724 E259      		subi r30,lo8(-(110))
 1439 0726 FF4F      		sbci r31,hi8(-(110))
 1440 0728 8081      		ld r24,Z
 1441 072a 8E7F      		andi r24,lo8(-2)
 1442 072c 8083      		st Z,r24
 1443               	/* epilogue start */
 1444               	.LM174:
 1445 072e 0895      		ret
 1446               	.LFE33:
 1448               	.global	Timebase_DownCounter_Reset
 1450               	Timebase_DownCounter_Reset:
 1451               	.LFB34:
 1452               	.LM175:
 1453               	.LVL98:
 1454               	/* prologue: function */
 1455               	/* frame size = 0 */
 1456               	.LBB349:
 1457               	.LBB350:
 1458               	.LM176:
 1459 0730 E091 0000 		lds r30,Timebase
 1460 0734 F091 0000 		lds r31,(Timebase)+1
 1461 0738 90E0      		ldi r25,lo8(0)
 1462 073a 2DE0      		ldi r18,lo8(13)
 1463 073c 30E0      		ldi r19,hi8(13)
 1464 073e AC01      		movw r20,r24
 1465               	.LVL99:
 1466 0740 429F      		mul r20,r18
 1467 0742 C001      		movw r24,r0
 1468 0744 439F      		mul r20,r19
 1469 0746 900D      		add r25,r0
 1470 0748 529F      		mul r21,r18
 1471 074a 900D      		add r25,r0
 1472 074c 1124      		clr r1
 1473 074e E80F      		add r30,r24
 1474 0750 F91F      		adc r31,r25
 1475 0752 E159      		subi r30,lo8(-(111))
 1476 0754 FF4F      		sbci r31,hi8(-(111))
 1477 0756 1192      		st Z+,__zero_reg__
 1478 0758 1192      		st Z+,__zero_reg__
 1479 075a 1192      		st Z+,__zero_reg__
 1480 075c 1192      		st Z+,__zero_reg__
 1481               	.LBE350:
 1482               	.LBE349:
 1483               	.LBB351:
 1484               	.LBB352:
 1485               	.LM177:
 1486 075e 1082      		st Z,__zero_reg__
 1487 0760 1182      		std Z+1,__zero_reg__
 1488 0762 1282      		std Z+2,__zero_reg__
 1489 0764 1382      		std Z+3,__zero_reg__
 1490               	.LBE352:
 1491               	.LBE351:
 1492               	.LBB353:
 1493               	.LBB354:
 1494               	.LM178:
 1495 0766 3597      		sbiw r30,5
 1496 0768 8081      		ld r24,Z
 1497               	.LBE354:
 1498               	.LBE353:
 1499               	.LBB355:
 1500               	.LBB356:
 1501               	.LM179:
 1502 076a 807E      		andi r24,lo8(-32)
 1503 076c 8083      		st Z,r24
 1504               	/* epilogue start */
 1505               	.LBE356:
 1506               	.LBE355:
 1507               	.LM180:
 1508 076e 0895      		ret
 1509               	.LFE34:
 1511               	.global	Timebase_DownCounter_Clear_All_Flags
 1513               	Timebase_DownCounter_Clear_All_Flags:
 1514               	.LFB35:
 1515               	.LM181:
 1516               	.LVL100:
 1517               	/* prologue: function */
 1518               	/* frame size = 0 */
 1519               	.LBB357:
 1520               	.LBB358:
 1521               	.LBB359:
 1522               	.LBB360:
 1523               	.LM182:
 1524 0770 E091 0000 		lds r30,Timebase
 1525 0774 F091 0000 		lds r31,(Timebase)+1
 1526 0778 90E0      		ldi r25,lo8(0)
 1527 077a 2DE0      		ldi r18,lo8(13)
 1528 077c 30E0      		ldi r19,hi8(13)
 1529 077e AC01      		movw r20,r24
 1530               	.LVL101:
 1531 0780 429F      		mul r20,r18
 1532 0782 C001      		movw r24,r0
 1533 0784 439F      		mul r20,r19
 1534 0786 900D      		add r25,r0
 1535 0788 529F      		mul r21,r18
 1536 078a 900D      		add r25,r0
 1537 078c 1124      		clr r1
 1538 078e E80F      		add r30,r24
 1539 0790 F91F      		adc r31,r25
 1540 0792 E159      		subi r30,lo8(-(111))
 1541 0794 FF4F      		sbci r31,hi8(-(111))
 1542 0796 1192      		st Z+,__zero_reg__
 1543 0798 1192      		st Z+,__zero_reg__
 1544 079a 1192      		st Z+,__zero_reg__
 1545 079c 1192      		st Z+,__zero_reg__
 1546               	.LBE360:
 1547               	.LBE359:
 1548               	.LBB361:
 1549               	.LBB362:
 1550               	.LM183:
 1551 079e 1082      		st Z,__zero_reg__
 1552 07a0 1182      		std Z+1,__zero_reg__
 1553 07a2 1282      		std Z+2,__zero_reg__
 1554 07a4 1382      		std Z+3,__zero_reg__
 1555               	.LBE362:
 1556               	.LBE361:
 1557               	.LBB363:
 1558               	.LBB364:
 1559               	.LM184:
 1560 07a6 3597      		sbiw r30,5
 1561 07a8 8081      		ld r24,Z
 1562               	.LBE364:
 1563               	.LBE363:
 1564               	.LBB365:
 1565               	.LBB366:
 1566               	.LM185:
 1567 07aa 807E      		andi r24,lo8(-32)
 1568 07ac 8083      		st Z,r24
 1569               	/* epilogue start */
 1570               	.LBE366:
 1571               	.LBE365:
 1572               	.LBE358:
 1573               	.LBE357:
 1574               	.LM186:
 1575 07ae 0895      		ret
 1576               	.LFE35:
 1578               	.global	Timebase_DownCounter_Start
 1580               	Timebase_DownCounter_Start:
 1581               	.LFB36:
 1582               	.LM187:
 1583               	.LVL102:
 1584               	/* prologue: function */
 1585               	/* frame size = 0 */
 1586               	.LBB367:
 1587               	.LBB368:
 1588               	.LM188:
 1589 07b0 E091 0000 		lds r30,Timebase
 1590 07b4 F091 0000 		lds r31,(Timebase)+1
 1591 07b8 90E0      		ldi r25,lo8(0)
 1592               	.LBE368:
 1593               	.LBE367:
 1594               	.LM189:
 1595 07ba 2DE0      		ldi r18,lo8(13)
 1596 07bc 30E0      		ldi r19,hi8(13)
 1597 07be AC01      		movw r20,r24
 1598               	.LVL103:
 1599 07c0 429F      		mul r20,r18
 1600 07c2 C001      		movw r24,r0
 1601 07c4 439F      		mul r20,r19
 1602 07c6 900D      		add r25,r0
 1603 07c8 529F      		mul r21,r18
 1604 07ca 900D      		add r25,r0
 1605 07cc 1124      		clr r1
 1606 07ce E80F      		add r30,r24
 1607 07d0 F91F      		adc r31,r25
 1608 07d2 E259      		subi r30,lo8(-(110))
 1609 07d4 FF4F      		sbci r31,hi8(-(110))
 1610 07d6 9081      		ld r25,Z
 1611 07d8 892F      		mov r24,r25
 1612 07da 8695      		lsr r24
 1613 07dc 8F70      		andi r24,lo8(15)
 1614 07de 8130      		cpi r24,lo8(1)
 1615 07e0 01F0      		breq .L98
 1616               	.LBB369:
 1617               	.LBB370:
 1618               	.LM190:
 1619 07e2 917E      		andi r25,lo8(-31)
 1620 07e4 9260      		ori r25,lo8(2)
 1621 07e6 9083      		st Z,r25
 1622               	.L98:
 1623 07e8 0895      		ret
 1624               	.LBE370:
 1625               	.LBE369:
 1626               	.LFE36:
 1628               	.global	Timebase_DownCounter_Stop
 1630               	Timebase_DownCounter_Stop:
 1631               	.LFB37:
 1632               	.LM191:
 1633               	.LVL104:
 1634               	/* prologue: function */
 1635               	/* frame size = 0 */
 1636               	.LBB371:
 1637               	.LBB372:
 1638               	.LM192:
 1639 07ea E091 0000 		lds r30,Timebase
 1640 07ee F091 0000 		lds r31,(Timebase)+1
 1641 07f2 90E0      		ldi r25,lo8(0)
 1642               	.LBE372:
 1643               	.LBE371:
 1644               	.LM193:
 1645 07f4 2DE0      		ldi r18,lo8(13)
 1646 07f6 30E0      		ldi r19,hi8(13)
 1647 07f8 AC01      		movw r20,r24
 1648               	.LVL105:
 1649 07fa 429F      		mul r20,r18
 1650 07fc C001      		movw r24,r0
 1651 07fe 439F      		mul r20,r19
 1652 0800 900D      		add r25,r0
 1653 0802 529F      		mul r21,r18
 1654 0804 900D      		add r25,r0
 1655 0806 1124      		clr r1
 1656 0808 E80F      		add r30,r24
 1657 080a F91F      		adc r31,r25
 1658 080c E259      		subi r30,lo8(-(110))
 1659 080e FF4F      		sbci r31,hi8(-(110))
 1660 0810 9081      		ld r25,Z
 1661 0812 892F      		mov r24,r25
 1662 0814 8695      		lsr r24
 1663 0816 8F70      		andi r24,lo8(15)
 1664 0818 8230      		cpi r24,lo8(2)
 1665 081a 01F0      		breq .L101
 1666               	.LBB373:
 1667               	.LBB374:
 1668               	.LM194:
 1669 081c 917E      		andi r25,lo8(-31)
 1670 081e 9460      		ori r25,lo8(4)
 1671 0820 9083      		st Z,r25
 1672               	.L101:
 1673 0822 0895      		ret
 1674               	.LBE374:
 1675               	.LBE373:
 1676               	.LFE37:
 1678               	.global	Timebase_DownCounter_Set_Securely
 1680               	Timebase_DownCounter_Set_Securely:
 1681               	.LFB38:
 1682               	.LM195:
 1683               	.LVL106:
 1684 0824 CF93      		push r28
 1685 0826 DF93      		push r29
 1686               	/* prologue: function */
 1687               	/* frame size = 0 */
 1688               	.LBB375:
 1689               	.LBB376:
 1690               	.LM196:
 1691 0828 A091 0000 		lds r26,Timebase
 1692 082c B091 0000 		lds r27,(Timebase)+1
 1693 0830 90E0      		ldi r25,lo8(0)
 1694               	.LBE376:
 1695               	.LBE375:
 1696               	.LM197:
 1697 0832 2DE0      		ldi r18,lo8(13)
 1698 0834 30E0      		ldi r19,hi8(13)
 1699 0836 829F      		mul r24,r18
 1700 0838 F001      		movw r30,r0
 1701 083a 839F      		mul r24,r19
 1702 083c F00D      		add r31,r0
 1703 083e 929F      		mul r25,r18
 1704 0840 F00D      		add r31,r0
 1705 0842 1124      		clr r1
 1706               	.LVL107:
 1707 0844 EA0F      		add r30,r26
 1708 0846 FB1F      		adc r31,r27
 1709 0848 EF01      		movw r28,r30
 1710 084a C259      		subi r28,lo8(-(110))
 1711 084c DF4F      		sbci r29,hi8(-(110))
 1712 084e 8881      		ld r24,Y
 1713 0850 8695      		lsr r24
 1714 0852 8F70      		andi r24,lo8(15)
 1715 0854 01F4      		brne .L104
 1716               	.LBB377:
 1717               	.LBB378:
 1718               	.LM198:
 1719 0856 ED58      		subi r30,lo8(-(115))
 1720 0858 FF4F      		sbci r31,hi8(-(115))
 1721 085a 4083      		st Z,r20
 1722 085c 5183      		std Z+1,r21
 1723 085e 6283      		std Z+2,r22
 1724 0860 7383      		std Z+3,r23
 1725               	.LBE378:
 1726               	.LBE377:
 1727               	.LBB379:
 1728               	.LBB380:
 1729               	.LM199:
 1730 0862 1A96      		adiw r26,10
 1731 0864 8D91      		ld r24,X+
 1732 0866 9D91      		ld r25,X+
 1733 0868 0D90      		ld __tmp_reg__,X+
 1734 086a BC91      		ld r27,X
 1735 086c A02D      		mov r26,__tmp_reg__
 1736               	.LBE380:
 1737               	.LBE379:
 1738               	.LBB381:
 1739               	.LBB382:
 1740               	.LM200:
 1741 086e 840F      		add r24,r20
 1742 0870 951F      		adc r25,r21
 1743 0872 A61F      		adc r26,r22
 1744 0874 B71F      		adc r27,r23
 1745 0876 B293      		st -Z,r27
 1746 0878 A293      		st -Z,r26
 1747 087a 9293      		st -Z,r25
 1748 087c 8293      		st -Z,r24
 1749               	.LBE382:
 1750               	.LBE381:
 1751               	.LBB383:
 1752               	.LBB384:
 1753               	.LM201:
 1754 087e 9881      		ld r25,Y
 1755 0880 892F      		mov r24,r25
 1756 0882 8695      		lsr r24
 1757 0884 8F70      		andi r24,lo8(15)
 1758 0886 8130      		cpi r24,lo8(1)
 1759 0888 01F0      		breq .L104
 1760               	.LBB385:
 1761               	.LBB386:
 1762               	.LM202:
 1763 088a 917E      		andi r25,lo8(-31)
 1764 088c 9260      		ori r25,lo8(2)
 1765 088e 9883      		st Y,r25
 1766               	.L104:
 1767               	/* epilogue start */
 1768               	.LBE386:
 1769               	.LBE385:
 1770               	.LBE384:
 1771               	.LBE383:
 1772               	.LM203:
 1773 0890 DF91      		pop r29
 1774 0892 CF91      		pop r28
 1775 0894 0895      		ret
 1776               	.LFE38:
 1778               	.global	Timebase_DownCounter_Set_Forcefully
 1780               	Timebase_DownCounter_Set_Forcefully:
 1781               	.LFB39:
 1782               	.LM204:
 1783               	.LVL108:
 1784 0896 CF93      		push r28
 1785 0898 DF93      		push r29
 1786               	/* prologue: function */
 1787               	/* frame size = 0 */
 1788               	.LBB387:
 1789               	.LBB388:
 1790               	.LBB389:
 1791               	.LBB390:
 1792               	.LM205:
 1793 089a E091 0000 		lds r30,Timebase
 1794 089e F091 0000 		lds r31,(Timebase)+1
 1795 08a2 A82F      		mov r26,r24
 1796 08a4 B0E0      		ldi r27,lo8(0)
 1797 08a6 2DE0      		ldi r18,lo8(13)
 1798 08a8 30E0      		ldi r19,hi8(13)
 1799 08aa E901      		movw r28,r18
 1800 08ac AC9F      		mul r26,r28
 1801 08ae 9001      		movw r18,r0
 1802 08b0 AD9F      		mul r26,r29
 1803 08b2 300D      		add r19,r0
 1804 08b4 BC9F      		mul r27,r28
 1805 08b6 300D      		add r19,r0
 1806 08b8 1124      		clr r1
 1807 08ba E20F      		add r30,r18
 1808 08bc F31F      		adc r31,r19
 1809 08be E159      		subi r30,lo8(-(111))
 1810 08c0 FF4F      		sbci r31,hi8(-(111))
 1811 08c2 1192      		st Z+,__zero_reg__
 1812 08c4 1192      		st Z+,__zero_reg__
 1813 08c6 1192      		st Z+,__zero_reg__
 1814 08c8 1192      		st Z+,__zero_reg__
 1815               	.LBE390:
 1816               	.LBE389:
 1817               	.LBB391:
 1818               	.LBB392:
 1819               	.LM206:
 1820 08ca 1082      		st Z,__zero_reg__
 1821 08cc 1182      		std Z+1,__zero_reg__
 1822 08ce 1282      		std Z+2,__zero_reg__
 1823 08d0 1382      		std Z+3,__zero_reg__
 1824               	.LBE392:
 1825               	.LBE391:
 1826               	.LBB393:
 1827               	.LBB394:
 1828               	.LM207:
 1829 08d2 3597      		sbiw r30,5
 1830 08d4 9081      		ld r25,Z
 1831               	.LBE394:
 1832               	.LBE393:
 1833               	.LBB395:
 1834               	.LBB396:
 1835               	.LM208:
 1836 08d6 907E      		andi r25,lo8(-32)
 1837 08d8 9083      		st Z,r25
 1838               	.LBE396:
 1839               	.LBE395:
 1840               	.LBE388:
 1841               	.LBE387:
 1842               	.LM209:
 1843 08da 0E94 0000 		call Timebase_DownCounter_Set_Securely
 1844               	.LVL109:
 1845               	/* epilogue start */
 1846               	.LM210:
 1847 08de DF91      		pop r29
 1848 08e0 CF91      		pop r28
 1849 08e2 0895      		ret
 1850               	.LFE39:
 1852               	.global	Timebase_DownCounter_Update
 1854               	Timebase_DownCounter_Update:
 1855               	.LFB40:
 1856               	.LM211:
 1857               	.LVL110:
 1858 08e4 0F93      		push r16
 1859 08e6 1F93      		push r17
 1860 08e8 CF93      		push r28
 1861 08ea DF93      		push r29
 1862               	/* prologue: function */
 1863               	/* frame size = 0 */
 1864               	.LBB397:
 1865               	.LBB398:
 1866               	.LM212:
 1867 08ec A091 0000 		lds r26,Timebase
 1868 08f0 B091 0000 		lds r27,(Timebase)+1
 1869 08f4 90E0      		ldi r25,lo8(0)
 1870 08f6 2DE0      		ldi r18,lo8(13)
 1871 08f8 30E0      		ldi r19,hi8(13)
 1872 08fa 829F      		mul r24,r18
 1873 08fc F001      		movw r30,r0
 1874 08fe 839F      		mul r24,r19
 1875 0900 F00D      		add r31,r0
 1876 0902 929F      		mul r25,r18
 1877 0904 F00D      		add r31,r0
 1878 0906 1124      		clr r1
 1879               	.LVL111:
 1880 0908 EA0F      		add r30,r26
 1881 090a FB1F      		adc r31,r27
 1882 090c 8F01      		movw r16,r30
 1883 090e 0259      		subi r16,lo8(-(110))
 1884 0910 1F4F      		sbci r17,hi8(-(110))
 1885 0912 E801      		movw r28,r16
 1886 0914 8881      		ld r24,Y
 1887 0916 8695      		lsr r24
 1888 0918 8F70      		andi r24,lo8(15)
 1889               	.LBE398:
 1890               	.LBE397:
 1891               	.LM213:
 1892 091a 8130      		cpi r24,lo8(1)
 1893 091c 01F4      		brne .L108
 1894               	.LBB399:
 1895               	.LBB400:
 1896               	.LM214:
 1897 091e 1A96      		adiw r26,10
 1898 0920 2D91      		ld r18,X+
 1899 0922 3D91      		ld r19,X+
 1900 0924 4D91      		ld r20,X+
 1901 0926 5C91      		ld r21,X
 1902 0928 1D97      		sbiw r26,10+3
 1903               	.LBE400:
 1904               	.LBE399:
 1905               	.LM215:
 1906 092a BF01      		movw r22,r30
 1907 092c 6159      		subi r22,lo8(-(111))
 1908 092e 7F4F      		sbci r23,hi8(-(111))
 1909 0930 EB01      		movw r28,r22
 1910 0932 8881      		ld r24,Y
 1911 0934 9981      		ldd r25,Y+1
 1912 0936 AA81      		ldd r26,Y+2
 1913 0938 BB81      		ldd r27,Y+3
 1914 093a 821B      		sub r24,r18
 1915 093c 930B      		sbc r25,r19
 1916 093e A40B      		sbc r26,r20
 1917 0940 B50B      		sbc r27,r21
 1918               	.LBB401:
 1919               	.LBB402:
 1920               	.LM216:
 1921 0942 ED58      		subi r30,lo8(-(115))
 1922 0944 FF4F      		sbci r31,hi8(-(115))
 1923 0946 8083      		st Z,r24
 1924 0948 9183      		std Z+1,r25
 1925 094a A283      		std Z+2,r26
 1926 094c B383      		std Z+3,r27
 1927               	.LBE402:
 1928               	.LBE401:
 1929               	.LM217:
 1930 094e 1816      		cp __zero_reg__,r24
 1931 0950 1906      		cpc __zero_reg__,r25
 1932 0952 1A06      		cpc __zero_reg__,r26
 1933 0954 1B06      		cpc __zero_reg__,r27
 1934 0956 04F0      		brlt .L110
 1935               	.LBB403:
 1936               	.LBB404:
 1937               	.LBB405:
 1938               	.LBB406:
 1939               	.LM218:
 1940 0958 DB01      		movw r26,r22
 1941 095a 1D92      		st X+,__zero_reg__
 1942 095c 1D92      		st X+,__zero_reg__
 1943 095e 1D92      		st X+,__zero_reg__
 1944 0960 1C92      		st X,__zero_reg__
 1945 0962 1397      		sbiw r26,3
 1946               	.LBE406:
 1947               	.LBE405:
 1948               	.LBB407:
 1949               	.LBB408:
 1950               	.LM219:
 1951 0964 1082      		st Z,__zero_reg__
 1952 0966 1182      		std Z+1,__zero_reg__
 1953 0968 1282      		std Z+2,__zero_reg__
 1954 096a 1382      		std Z+3,__zero_reg__
 1955               	.LBE408:
 1956               	.LBE407:
 1957               	.LBB409:
 1958               	.LBB410:
 1959               	.LM220:
 1960 096c E801      		movw r28,r16
 1961 096e 8881      		ld r24,Y
 1962               	.LBE410:
 1963               	.LBE409:
 1964               	.LBE404:
 1965               	.LBE403:
 1966               	.LBB411:
 1967               	.LBB412:
 1968               	.LM221:
 1969 0970 807E      		andi r24,lo8(-32)
 1970 0972 8860      		ori r24,lo8(8)
 1971 0974 8883      		st Y,r24
 1972 0976 00C0      		rjmp .L110
 1973               	.L108:
 1974               	.LBE412:
 1975               	.LBE411:
 1976               	.LM222:
 1977 0978 8230      		cpi r24,lo8(2)
 1978 097a 01F4      		brne .L110
 1979               	.LBB413:
 1980               	.LBB414:
 1981               	.LM223:
 1982 097c 1A96      		adiw r26,10
 1983 097e 8D91      		ld r24,X+
 1984 0980 9D91      		ld r25,X+
 1985 0982 0D90      		ld __tmp_reg__,X+
 1986 0984 BC91      		ld r27,X
 1987 0986 A02D      		mov r26,__tmp_reg__
 1988               	.LBE414:
 1989               	.LBE413:
 1990               	.LBB415:
 1991               	.LBB416:
 1992               	.LM224:
 1993 0988 ED58      		subi r30,lo8(-(115))
 1994 098a FF4F      		sbci r31,hi8(-(115))
 1995 098c 2081      		ld r18,Z
 1996 098e 3181      		ldd r19,Z+1
 1997 0990 4281      		ldd r20,Z+2
 1998 0992 5381      		ldd r21,Z+3
 1999 0994 820F      		add r24,r18
 2000 0996 931F      		adc r25,r19
 2001 0998 A41F      		adc r26,r20
 2002 099a B51F      		adc r27,r21
 2003 099c B293      		st -Z,r27
 2004 099e A293      		st -Z,r26
 2005 09a0 9293      		st -Z,r25
 2006 09a2 8293      		st -Z,r24
 2007               	.L110:
 2008               	/* epilogue start */
 2009               	.LBE416:
 2010               	.LBE415:
 2011               	.LM225:
 2012 09a4 DF91      		pop r29
 2013 09a6 CF91      		pop r28
 2014 09a8 1F91      		pop r17
 2015 09aa 0F91      		pop r16
 2016 09ac 0895      		ret
 2017               	.LFE40:
 2019               	.global	Timebase_DownCounter_Expired
 2021               	Timebase_DownCounter_Expired:
 2022               	.LFB41:
 2023               	.LM226:
 2024               	.LVL112:
 2025               	/* prologue: function */
 2026               	/* frame size = 0 */
 2027               	.LM227:
 2028 09ae 40E0      		ldi r20,lo8(0)
 2029 09b0 E091 0000 		lds r30,Timebase
 2030 09b4 F091 0000 		lds r31,(Timebase)+1
 2031 09b8 90E0      		ldi r25,lo8(0)
 2032               	.LVL113:
 2033 09ba 2DE0      		ldi r18,lo8(13)
 2034 09bc 30E0      		ldi r19,hi8(13)
 2035 09be BC01      		movw r22,r24
 2036 09c0 629F      		mul r22,r18
 2037 09c2 C001      		movw r24,r0
 2038 09c4 639F      		mul r22,r19
 2039 09c6 900D      		add r25,r0
 2040 09c8 729F      		mul r23,r18
 2041 09ca 900D      		add r25,r0
 2042 09cc 1124      		clr r1
 2043               	.LVL114:
 2044 09ce E80F      		add r30,r24
 2045 09d0 F91F      		adc r31,r25
 2046 09d2 E259      		subi r30,lo8(-(110))
 2047 09d4 FF4F      		sbci r31,hi8(-(110))
 2048 09d6 8081      		ld r24,Z
 2049 09d8 8695      		lsr r24
 2050 09da 8F70      		andi r24,lo8(15)
 2051 09dc 8430      		cpi r24,lo8(4)
 2052 09de 01F4      		brne .L112
 2053 09e0 41E0      		ldi r20,lo8(1)
 2054               	.L112:
 2055               	.LM228:
 2056 09e2 842F      		mov r24,r20
 2057               	/* epilogue start */
 2058 09e4 0895      		ret
 2059               	.LFE41:
 2061               	.global	Timebase_DownCounter_Expired_Event
 2063               	Timebase_DownCounter_Expired_Event:
 2064               	.LFB42:
 2065               	.LM229:
 2066               	.LVL115:
 2067               	/* prologue: function */
 2068               	/* frame size = 0 */
 2069               	.LBB417:
 2070               	.LBB418:
 2071               	.LM230:
 2072 09e6 E091 0000 		lds r30,Timebase
 2073 09ea F091 0000 		lds r31,(Timebase)+1
 2074 09ee 90E0      		ldi r25,lo8(0)
 2075               	.LBE418:
 2076               	.LBE417:
 2077               	.LM231:
 2078 09f0 2DE0      		ldi r18,lo8(13)
 2079 09f2 30E0      		ldi r19,hi8(13)
 2080 09f4 AC01      		movw r20,r24
 2081               	.LVL116:
 2082 09f6 429F      		mul r20,r18
 2083 09f8 C001      		movw r24,r0
 2084 09fa 439F      		mul r20,r19
 2085 09fc 900D      		add r25,r0
 2086 09fe 529F      		mul r21,r18
 2087 0a00 900D      		add r25,r0
 2088 0a02 1124      		clr r1
 2089 0a04 E80F      		add r30,r24
 2090 0a06 F91F      		adc r31,r25
 2091 0a08 DF01      		movw r26,r30
 2092 0a0a A259      		subi r26,lo8(-(110))
 2093 0a0c BF4F      		sbci r27,hi8(-(110))
 2094 0a0e 8C91      		ld r24,X
 2095 0a10 8695      		lsr r24
 2096 0a12 8F70      		andi r24,lo8(15)
 2097 0a14 8430      		cpi r24,lo8(4)
 2098 0a16 01F0      		breq .L115
 2099 0a18 80E0      		ldi r24,lo8(0)
 2100 0a1a 0895      		ret
 2101               	.L115:
 2102               	.LBB419:
 2103               	.LBB420:
 2104               	.LBB421:
 2105               	.LBB422:
 2106               	.LBB423:
 2107               	.LBB424:
 2108               	.LM232:
 2109 0a1c E159      		subi r30,lo8(-(111))
 2110 0a1e FF4F      		sbci r31,hi8(-(111))
 2111 0a20 1192      		st Z+,__zero_reg__
 2112 0a22 1192      		st Z+,__zero_reg__
 2113 0a24 1192      		st Z+,__zero_reg__
 2114 0a26 1192      		st Z+,__zero_reg__
 2115               	.LBE424:
 2116               	.LBE423:
 2117               	.LBB425:
 2118               	.LBB426:
 2119               	.LM233:
 2120 0a28 1082      		st Z,__zero_reg__
 2121 0a2a 1182      		std Z+1,__zero_reg__
 2122 0a2c 1282      		std Z+2,__zero_reg__
 2123 0a2e 1382      		std Z+3,__zero_reg__
 2124               	.LBE426:
 2125               	.LBE425:
 2126               	.LBB427:
 2127               	.LBB428:
 2128               	.LM234:
 2129 0a30 8C91      		ld r24,X
 2130               	.LBE428:
 2131               	.LBE427:
 2132               	.LBB429:
 2133               	.LBB430:
 2134               	.LM235:
 2135 0a32 807E      		andi r24,lo8(-32)
 2136 0a34 8C93      		st X,r24
 2137 0a36 81E0      		ldi r24,lo8(1)
 2138               	.LBE430:
 2139               	.LBE429:
 2140               	.LBE422:
 2141               	.LBE421:
 2142               	.LBE420:
 2143               	.LBE419:
 2144               	.LM236:
 2145 0a38 0895      		ret
 2146               	.LFE42:
 2148               	.global	Timebase_DownCounter_Set_Period_Value_Securely
 2150               	Timebase_DownCounter_Set_Period_Value_Securely:
 2151               	.LFB43:
 2152               	.LM237:
 2153               	.LVL117:
 2154 0a3a CF93      		push r28
 2155 0a3c DF93      		push r29
 2156               	/* prologue: function */
 2157               	/* frame size = 0 */
 2158               	.LBB431:
 2159               	.LBB432:
 2160               	.LM238:
 2161 0a3e C091 0000 		lds r28,Timebase
 2162 0a42 D091 0000 		lds r29,(Timebase)+1
 2163 0a46 282F      		mov r18,r24
 2164 0a48 30E0      		ldi r19,lo8(0)
 2165               	.LBE432:
 2166               	.LBE431:
 2167               	.LM239:
 2168 0a4a 8DE0      		ldi r24,lo8(13)
 2169 0a4c 90E0      		ldi r25,hi8(13)
 2170               	.LVL118:
 2171 0a4e 289F      		mul r18,r24
 2172 0a50 F001      		movw r30,r0
 2173 0a52 299F      		mul r18,r25
 2174 0a54 F00D      		add r31,r0
 2175 0a56 389F      		mul r19,r24
 2176 0a58 F00D      		add r31,r0
 2177 0a5a 1124      		clr r1
 2178 0a5c EC0F      		add r30,r28
 2179 0a5e FD1F      		adc r31,r29
 2180 0a60 E259      		subi r30,lo8(-(110))
 2181 0a62 FF4F      		sbci r31,hi8(-(110))
 2182 0a64 8081      		ld r24,Z
 2183 0a66 EE56      		subi r30,lo8(-(-110))
 2184 0a68 F040      		sbci r31,hi8(-(-110))
 2185 0a6a 80FD      		sbrc r24,0
 2186 0a6c 00C0      		rjmp .L122
 2187               	.LM240:
 2188 0a6e ED58      		subi r30,lo8(-(115))
 2189 0a70 FF4F      		sbci r31,hi8(-(115))
 2190 0a72 8191      		ld r24,Z+
 2191 0a74 9191      		ld r25,Z+
 2192 0a76 A191      		ld r26,Z+
 2193 0a78 B191      		ld r27,Z+
 2194 0a7a 841B      		sub r24,r20
 2195 0a7c 950B      		sbc r25,r21
 2196 0a7e A60B      		sbc r26,r22
 2197 0a80 B70B      		sbc r27,r23
 2198               	.LBB433:
 2199               	.LBB434:
 2200               	.LM241:
 2201 0a82 B7FF      		sbrs r27,7
 2202 0a84 00C0      		rjmp .L120
 2203               	.LM242:
 2204 0a86 1082      		st Z,__zero_reg__
 2205 0a88 1182      		std Z+1,__zero_reg__
 2206 0a8a 1282      		std Z+2,__zero_reg__
 2207 0a8c 1382      		std Z+3,__zero_reg__
 2208 0a8e 00C0      		rjmp .L121
 2209               	.L120:
 2210               	.LM243:
 2211 0a90 8083      		st Z,r24
 2212 0a92 9183      		std Z+1,r25
 2213 0a94 A283      		std Z+2,r26
 2214 0a96 B383      		std Z+3,r27
 2215               	.L121:
 2216               	.LBE434:
 2217               	.LBE433:
 2218               	.LBB435:
 2219               	.LBB436:
 2220               	.LM244:
 2221 0a98 8DE0      		ldi r24,lo8(13)
 2222 0a9a 90E0      		ldi r25,hi8(13)
 2223 0a9c 289F      		mul r18,r24
 2224 0a9e F001      		movw r30,r0
 2225 0aa0 299F      		mul r18,r25
 2226 0aa2 F00D      		add r31,r0
 2227 0aa4 389F      		mul r19,r24
 2228 0aa6 F00D      		add r31,r0
 2229 0aa8 1124      		clr r1
 2230 0aaa EC0F      		add r30,r28
 2231 0aac FD1F      		adc r31,r29
 2232 0aae E259      		subi r30,lo8(-(110))
 2233 0ab0 FF4F      		sbci r31,hi8(-(110))
 2234 0ab2 8081      		ld r24,Z
 2235 0ab4 8160      		ori r24,lo8(1)
 2236 0ab6 8083      		st Z,r24
 2237               	.L122:
 2238               	/* epilogue start */
 2239               	.LBE436:
 2240               	.LBE435:
 2241               	.LM245:
 2242 0ab8 DF91      		pop r29
 2243 0aba CF91      		pop r28
 2244 0abc 0895      		ret
 2245               	.LFE43:
 2247               	.global	Timebase_DownCounter_Get_Remaining_Period_Value
 2249               	Timebase_DownCounter_Get_Remaining_Period_Value:
 2250               	.LFB44:
 2251               	.LM246:
 2252               	.LVL119:
 2253               	/* prologue: function */
 2254               	/* frame size = 0 */
 2255               	.LBB437:
 2256               	.LBB438:
 2257               	.LM247:
 2258 0abe E091 0000 		lds r30,Timebase
 2259 0ac2 F091 0000 		lds r31,(Timebase)+1
 2260 0ac6 90E0      		ldi r25,lo8(0)
 2261               	.LBE438:
 2262               	.LBE437:
 2263               	.LM248:
 2264 0ac8 2DE0      		ldi r18,lo8(13)
 2265 0aca 30E0      		ldi r19,hi8(13)
 2266 0acc AC01      		movw r20,r24
 2267               	.LVL120:
 2268 0ace 429F      		mul r20,r18
 2269 0ad0 C001      		movw r24,r0
 2270 0ad2 439F      		mul r20,r19
 2271 0ad4 900D      		add r25,r0
 2272 0ad6 529F      		mul r21,r18
 2273 0ad8 900D      		add r25,r0
 2274 0ada 1124      		clr r1
 2275 0adc E80F      		add r30,r24
 2276 0ade F91F      		adc r31,r25
 2277 0ae0 DF01      		movw r26,r30
 2278 0ae2 A958      		subi r26,lo8(-(119))
 2279 0ae4 BF4F      		sbci r27,hi8(-(119))
 2280 0ae6 ED58      		subi r30,lo8(-(115))
 2281 0ae8 FF4F      		sbci r31,hi8(-(115))
 2282 0aea 2081      		ld r18,Z
 2283 0aec 3181      		ldd r19,Z+1
 2284 0aee 4281      		ldd r20,Z+2
 2285 0af0 5381      		ldd r21,Z+3
 2286               	.LVL121:
 2287 0af2 8D91      		ld r24,X+
 2288 0af4 9D91      		ld r25,X+
 2289 0af6 0D90      		ld __tmp_reg__,X+
 2290 0af8 BC91      		ld r27,X
 2291 0afa A02D      		mov r26,__tmp_reg__
 2292 0afc 281B      		sub r18,r24
 2293 0afe 390B      		sbc r19,r25
 2294 0b00 4A0B      		sbc r20,r26
 2295 0b02 5B0B      		sbc r21,r27
 2296 0b04 57FF      		sbrs r21,7
 2297 0b06 00C0      		rjmp .L124
 2298 0b08 20E0      		ldi r18,lo8(0)
 2299 0b0a 30E0      		ldi r19,hi8(0)
 2300 0b0c 40E0      		ldi r20,hlo8(0)
 2301 0b0e 50E0      		ldi r21,hhi8(0)
 2302               	.L124:
 2303               	.LM249:
 2304 0b10 B901      		movw r22,r18
 2305               	.LVL122:
 2306 0b12 CA01      		movw r24,r20
 2307               	/* epilogue start */
 2308 0b14 0895      		ret
 2309               	.LFE44:
 2311               	.global	Timebase_DownCounter_Period_Value_Expired
 2313               	Timebase_DownCounter_Period_Value_Expired:
 2314               	.LFB45:
 2315               	.LM250:
 2316               	.LVL123:
 2317 0b16 CF93      		push r28
 2318 0b18 DF93      		push r29
 2319               	/* prologue: function */
 2320               	/* frame size = 0 */
 2321               	.LBB439:
 2322               	.LBB440:
 2323               	.LBB441:
 2324               	.LBB442:
 2325               	.LM251:
 2326 0b1a C091 0000 		lds r28,Timebase
 2327 0b1e D091 0000 		lds r29,(Timebase)+1
 2328 0b22 682F      		mov r22,r24
 2329 0b24 70E0      		ldi r23,lo8(0)
 2330               	.LBE442:
 2331               	.LBE441:
 2332               	.LM252:
 2333 0b26 8DE0      		ldi r24,lo8(13)
 2334 0b28 90E0      		ldi r25,hi8(13)
 2335               	.LVL124:
 2336 0b2a 689F      		mul r22,r24
 2337 0b2c F001      		movw r30,r0
 2338 0b2e 699F      		mul r22,r25
 2339 0b30 F00D      		add r31,r0
 2340 0b32 789F      		mul r23,r24
 2341 0b34 F00D      		add r31,r0
 2342 0b36 1124      		clr r1
 2343 0b38 EC0F      		add r30,r28
 2344 0b3a FD1F      		adc r31,r29
 2345 0b3c DF01      		movw r26,r30
 2346 0b3e A958      		subi r26,lo8(-(119))
 2347 0b40 BF4F      		sbci r27,hi8(-(119))
 2348 0b42 ED58      		subi r30,lo8(-(115))
 2349 0b44 FF4F      		sbci r31,hi8(-(115))
 2350 0b46 2081      		ld r18,Z
 2351 0b48 3181      		ldd r19,Z+1
 2352 0b4a 4281      		ldd r20,Z+2
 2353 0b4c 5381      		ldd r21,Z+3
 2354               	.LVL125:
 2355 0b4e 8D91      		ld r24,X+
 2356 0b50 9D91      		ld r25,X+
 2357 0b52 0D90      		ld __tmp_reg__,X+
 2358 0b54 BC91      		ld r27,X
 2359 0b56 A02D      		mov r26,__tmp_reg__
 2360 0b58 281B      		sub r18,r24
 2361 0b5a 390B      		sbc r19,r25
 2362 0b5c 4A0B      		sbc r20,r26
 2363 0b5e 5B0B      		sbc r21,r27
 2364               	.LM253:
 2365 0b60 57FD      		sbrc r21,7
 2366 0b62 00C0      		rjmp .L127
 2367               	.LBE440:
 2368               	.LBE439:
 2369               	.LM254:
 2370 0b64 2115      		cp r18,__zero_reg__
 2371 0b66 3105      		cpc r19,__zero_reg__
 2372 0b68 4105      		cpc r20,__zero_reg__
 2373 0b6a 5105      		cpc r21,__zero_reg__
 2374 0b6c 01F0      		breq .L127
 2375 0b6e 20E0      		ldi r18,lo8(0)
 2376               	.LVL126:
 2377 0b70 00C0      		rjmp .L128
 2378               	.LVL127:
 2379               	.L127:
 2380 0b72 20E0      		ldi r18,lo8(0)
 2381               	.LVL128:
 2382 0b74 8DE0      		ldi r24,lo8(13)
 2383 0b76 90E0      		ldi r25,hi8(13)
 2384 0b78 AC01      		movw r20,r24
 2385 0b7a 649F      		mul r22,r20
 2386 0b7c C001      		movw r24,r0
 2387 0b7e 659F      		mul r22,r21
 2388 0b80 900D      		add r25,r0
 2389 0b82 749F      		mul r23,r20
 2390 0b84 900D      		add r25,r0
 2391 0b86 1124      		clr r1
 2392 0b88 C80F      		add r28,r24
 2393 0b8a D91F      		adc r29,r25
 2394 0b8c C259      		subi r28,lo8(-(110))
 2395 0b8e DF4F      		sbci r29,hi8(-(110))
 2396 0b90 8881      		ld r24,Y
 2397 0b92 80FF      		sbrs r24,0
 2398 0b94 21E0      		ldi r18,lo8(1)
 2399               	.L129:
 2400 0b96 81E0      		ldi r24,lo8(1)
 2401 0b98 2827      		eor r18,r24
 2402               	.L128:
 2403               	.LM255:
 2404 0b9a 822F      		mov r24,r18
 2405               	/* epilogue start */
 2406 0b9c DF91      		pop r29
 2407 0b9e CF91      		pop r28
 2408 0ba0 0895      		ret
 2409               	.LFE45:
 2411               	.global	Timebase_DownCounter_Period_Value_Expired_Event
 2413               	Timebase_DownCounter_Period_Value_Expired_Event:
 2414               	.LFB46:
 2415               	.LM256:
 2416               	.LVL129:
 2417 0ba2 1F93      		push r17
 2418               	/* prologue: function */
 2419               	/* frame size = 0 */
 2420 0ba4 182F      		mov r17,r24
 2421               	.LM257:
 2422 0ba6 0E94 0000 		call Timebase_DownCounter_Period_Value_Expired
 2423               	.LVL130:
 2424 0baa 8130      		cpi r24,lo8(1)
 2425 0bac 01F0      		breq .L132
 2426 0bae 80E0      		ldi r24,lo8(0)
 2427 0bb0 00C0      		rjmp .L133
 2428               	.L132:
 2429               	.LBB443:
 2430               	.LBB444:
 2431               	.LM258:
 2432 0bb2 E091 0000 		lds r30,Timebase
 2433 0bb6 F091 0000 		lds r31,(Timebase)+1
 2434 0bba 212F      		mov r18,r17
 2435 0bbc 30E0      		ldi r19,lo8(0)
 2436               	.LVL131:
 2437 0bbe 8DE0      		ldi r24,lo8(13)
 2438 0bc0 90E0      		ldi r25,hi8(13)
 2439 0bc2 AC01      		movw r20,r24
 2440 0bc4 249F      		mul r18,r20
 2441 0bc6 C001      		movw r24,r0
 2442 0bc8 259F      		mul r18,r21
 2443 0bca 900D      		add r25,r0
 2444 0bcc 349F      		mul r19,r20
 2445 0bce 900D      		add r25,r0
 2446 0bd0 1124      		clr r1
 2447 0bd2 E80F      		add r30,r24
 2448 0bd4 F91F      		adc r31,r25
 2449 0bd6 E259      		subi r30,lo8(-(110))
 2450 0bd8 FF4F      		sbci r31,hi8(-(110))
 2451 0bda 8081      		ld r24,Z
 2452 0bdc 8E7F      		andi r24,lo8(-2)
 2453 0bde 8083      		st Z,r24
 2454 0be0 81E0      		ldi r24,lo8(1)
 2455               	.L133:
 2456               	/* epilogue start */
 2457               	.LBE444:
 2458               	.LBE443:
 2459               	.LM259:
 2460 0be2 1F91      		pop r17
 2461               	.LVL132:
 2462 0be4 0895      		ret
 2463               	.LFE46:
 2465               	.global	Timebase_DownCounter_Update_All
 2467               	Timebase_DownCounter_Update_All:
 2468               	.LFB47:
 2469               	.LM260:
 2470 0be6 1F93      		push r17
 2471               	/* prologue: function */
 2472               	/* frame size = 0 */
 2473               	.LM261:
 2474 0be8 10E0      		ldi r17,lo8(0)
 2475               	.LVL133:
 2476               	.L136:
 2477               	.LBB445:
 2478               	.LM262:
 2479 0bea 812F      		mov r24,r17
 2480 0bec 0E94 0000 		call Timebase_DownCounter_Update
 2481               	.LM263:
 2482 0bf0 1F5F      		subi r17,lo8(-(1))
 2483 0bf2 1530      		cpi r17,lo8(5)
 2484 0bf4 01F4      		brne .L136
 2485               	/* epilogue start */
 2486               	.LBE445:
 2487               	.LM264:
 2488 0bf6 1F91      		pop r17
 2489               	.LVL134:
 2490 0bf8 0895      		ret
 2491               	.LFE47:
 2493               	.global	Timebase_DownCounter_Reset_All
 2495               	Timebase_DownCounter_Reset_All:
 2496               	.LFB48:
 2497               	.LM265:
 2498               	/* prologue: function */
 2499               	/* frame size = 0 */
 2500               	.LBB446:
 2501               	.LBB447:
 2502               	.LBB448:
 2503               	.LBB449:
 2504               	.LBB450:
 2505               	.LM266:
 2506 0bfa 4091 0000 		lds r20,Timebase
 2507 0bfe 5091 0000 		lds r21,(Timebase)+1
 2508 0c02 DA01      		movw r26,r20
 2509 0c04 A159      		subi r26,lo8(-(111))
 2510 0c06 BF4F      		sbci r27,hi8(-(111))
 2511 0c08 20E0      		ldi r18,lo8(0)
 2512 0c0a 30E0      		ldi r19,hi8(0)
 2513               	.LBE450:
 2514               	.LBE449:
 2515               	.LBB452:
 2516               	.LBB453:
 2517               	.LM267:
 2518 0c0c 6DE0      		ldi r22,lo8(13)
 2519 0c0e 70E0      		ldi r23,hi8(13)
 2520               	.L140:
 2521               	.LBE453:
 2522               	.LBE452:
 2523               	.LBB455:
 2524               	.LBB451:
 2525               	.LM268:
 2526 0c10 1D92      		st X+,__zero_reg__
 2527 0c12 1D92      		st X+,__zero_reg__
 2528 0c14 1D92      		st X+,__zero_reg__
 2529 0c16 1C92      		st X,__zero_reg__
 2530 0c18 1397      		sbiw r26,3
 2531               	.LBE451:
 2532               	.LBE455:
 2533               	.LBB456:
 2534               	.LBB457:
 2535               	.LM269:
 2536 0c1a 1496      		adiw r26,4
 2537 0c1c 1D92      		st X+,__zero_reg__
 2538 0c1e 1D92      		st X+,__zero_reg__
 2539 0c20 1D92      		st X+,__zero_reg__
 2540 0c22 1C92      		st X,__zero_reg__
 2541 0c24 1797      		sbiw r26,4+3
 2542               	.LBE457:
 2543               	.LBE456:
 2544               	.LBB458:
 2545               	.LBB454:
 2546               	.LM270:
 2547 0c26 269F      		mul r18,r22
 2548 0c28 F001      		movw r30,r0
 2549 0c2a 279F      		mul r18,r23
 2550 0c2c F00D      		add r31,r0
 2551 0c2e 369F      		mul r19,r22
 2552 0c30 F00D      		add r31,r0
 2553 0c32 1124      		clr r1
 2554 0c34 E40F      		add r30,r20
 2555 0c36 F51F      		adc r31,r21
 2556 0c38 E259      		subi r30,lo8(-(110))
 2557 0c3a FF4F      		sbci r31,hi8(-(110))
 2558 0c3c 8081      		ld r24,Z
 2559               	.LBE454:
 2560               	.LBE458:
 2561               	.LBB459:
 2562               	.LBB460:
 2563               	.LM271:
 2564 0c3e 807E      		andi r24,lo8(-32)
 2565 0c40 8083      		st Z,r24
 2566 0c42 2F5F      		subi r18,lo8(-(1))
 2567 0c44 3F4F      		sbci r19,hi8(-(1))
 2568 0c46 1D96      		adiw r26,13
 2569               	.LBE460:
 2570               	.LBE459:
 2571               	.LBE448:
 2572               	.LBE447:
 2573               	.LM272:
 2574 0c48 2530      		cpi r18,5
 2575 0c4a 3105      		cpc r19,__zero_reg__
 2576 0c4c 01F4      		brne .L140
 2577               	/* epilogue start */
 2578               	.LBE446:
 2579               	.LM273:
 2580 0c4e 0895      		ret
 2581               	.LFE48:
 2583               	.global	Timebase_DownCounter_SS_Get_Status
 2585               	Timebase_DownCounter_SS_Get_Status:
 2586               	.LFB49:
 2587               	.LM274:
 2588               	.LVL135:
 2589               	/* prologue: function */
 2590               	/* frame size = 0 */
 2591               	.LM275:
 2592 0c50 E091 0000 		lds r30,Timebase
 2593 0c54 F091 0000 		lds r31,(Timebase)+1
 2594 0c58 90E0      		ldi r25,lo8(0)
 2595               	.LVL136:
 2596 0c5a 9C01      		movw r18,r24
 2597 0c5c 44E0      		ldi r20,4
 2598 0c5e 220F      	1:	lsl r18
 2599 0c60 331F      		rol r19
 2600 0c62 4A95      		dec r20
 2601 0c64 01F4      		brne 1b
 2602 0c66 280F      		add r18,r24
 2603 0c68 391F      		adc r19,r25
 2604 0c6a E20F      		add r30,r18
 2605 0c6c F31F      		adc r31,r19
 2606 0c6e 818D      		ldd r24,Z+25
 2607               	.LVL137:
 2608 0c70 8695      		lsr r24
 2609               	.LM276:
 2610 0c72 8F70      		andi r24,lo8(15)
 2611               	/* epilogue start */
 2612 0c74 0895      		ret
 2613               	.LFE49:
 2615               	.global	Timebase_DownCounter_SS_Set_Status
 2617               	Timebase_DownCounter_SS_Set_Status:
 2618               	.LFB50:
 2619               	.LM277:
 2620               	.LVL138:
 2621               	/* prologue: function */
 2622               	/* frame size = 0 */
 2623               	.LM278:
 2624 0c76 E091 0000 		lds r30,Timebase
 2625 0c7a F091 0000 		lds r31,(Timebase)+1
 2626 0c7e 90E0      		ldi r25,lo8(0)
 2627               	.LVL139:
 2628 0c80 9C01      		movw r18,r24
 2629 0c82 54E0      		ldi r21,4
 2630 0c84 220F      	1:	lsl r18
 2631 0c86 331F      		rol r19
 2632 0c88 5A95      		dec r21
 2633 0c8a 01F4      		brne 1b
 2634 0c8c 280F      		add r18,r24
 2635 0c8e 391F      		adc r19,r25
 2636 0c90 E20F      		add r30,r18
 2637 0c92 F31F      		adc r31,r19
 2638 0c94 6F70      		andi r22,lo8(15)
 2639               	.LVL140:
 2640 0c96 660F      		lsl r22
 2641 0c98 818D      		ldd r24,Z+25
 2642               	.LVL141:
 2643 0c9a 817E      		andi r24,lo8(-31)
 2644 0c9c 862B      		or r24,r22
 2645 0c9e 818F      		std Z+25,r24
 2646               	/* epilogue start */
 2647               	.LM279:
 2648 0ca0 0895      		ret
 2649               	.LFE50:
 2651               	.global	Timebase_DownCounter_SS_Get_Value
 2653               	Timebase_DownCounter_SS_Get_Value:
 2654               	.LFB51:
 2655               	.LM280:
 2656               	.LVL142:
 2657               	/* prologue: function */
 2658               	/* frame size = 0 */
 2659               	.LM281:
 2660 0ca2 E091 0000 		lds r30,Timebase
 2661 0ca6 F091 0000 		lds r31,(Timebase)+1
 2662 0caa 90E0      		ldi r25,lo8(0)
 2663               	.LVL143:
 2664 0cac 9C01      		movw r18,r24
 2665 0cae 64E0      		ldi r22,4
 2666 0cb0 220F      	1:	lsl r18
 2667 0cb2 331F      		rol r19
 2668 0cb4 6A95      		dec r22
 2669 0cb6 01F4      		brne 1b
 2670 0cb8 280F      		add r18,r24
 2671 0cba 391F      		adc r19,r25
 2672 0cbc E20F      		add r30,r18
 2673 0cbe F31F      		adc r31,r19
 2674 0cc0 DF01      		movw r26,r30
 2675 0cc2 9296      		adiw r26,34
 2676 0cc4 62A1      		ldd r22,Z+34
 2677 0cc6 1196      		adiw r26,1
 2678 0cc8 7C91      		ld r23,X
 2679 0cca 1197      		sbiw r26,1
 2680               	.LM282:
 2681 0ccc 1296      		adiw r26,2
 2682 0cce 8C91      		ld r24,X
 2683 0cd0 1297      		sbiw r26,2
 2684               	.LVL144:
 2685 0cd2 1396      		adiw r26,3
 2686 0cd4 9C91      		ld r25,X
 2687               	.LVL145:
 2688               	/* epilogue start */
 2689 0cd6 0895      		ret
 2690               	.LFE51:
 2692               	.global	Timebase_DownCounter_SS_Set_Value
 2694               	Timebase_DownCounter_SS_Set_Value:
 2695               	.LFB52:
 2696               	.LM283:
 2697               	.LVL146:
 2698               	/* prologue: function */
 2699               	/* frame size = 0 */
 2700               	.LM284:
 2701 0cd8 E091 0000 		lds r30,Timebase
 2702 0cdc F091 0000 		lds r31,(Timebase)+1
 2703 0ce0 90E0      		ldi r25,lo8(0)
 2704               	.LVL147:
 2705 0ce2 9C01      		movw r18,r24
 2706 0ce4 A4E0      		ldi r26,4
 2707 0ce6 220F      	1:	lsl r18
 2708 0ce8 331F      		rol r19
 2709 0cea AA95      		dec r26
 2710 0cec 01F4      		brne 1b
 2711 0cee 280F      		add r18,r24
 2712 0cf0 391F      		adc r19,r25
 2713 0cf2 E20F      		add r30,r18
 2714 0cf4 F31F      		adc r31,r19
 2715 0cf6 42A3      		std Z+34,r20
 2716 0cf8 53A3      		std Z+35,r21
 2717 0cfa 64A3      		std Z+36,r22
 2718 0cfc 75A3      		std Z+37,r23
 2719               	/* epilogue start */
 2720               	.LM285:
 2721 0cfe 0895      		ret
 2722               	.LFE52:
 2724               	.global	Timebase_DownCounter_SS_Get_EndValueSec
 2726               	Timebase_DownCounter_SS_Get_EndValueSec:
 2727               	.LFB53:
 2728               	.LM286:
 2729               	.LVL148:
 2730               	/* prologue: function */
 2731               	/* frame size = 0 */
 2732               	.LM287:
 2733 0d00 E091 0000 		lds r30,Timebase
 2734 0d04 F091 0000 		lds r31,(Timebase)+1
 2735 0d08 90E0      		ldi r25,lo8(0)
 2736               	.LVL149:
 2737 0d0a 9C01      		movw r18,r24
 2738 0d0c B4E0      		ldi r27,4
 2739 0d0e 220F      	1:	lsl r18
 2740 0d10 331F      		rol r19
 2741 0d12 BA95      		dec r27
 2742 0d14 01F4      		brne 1b
 2743 0d16 280F      		add r18,r24
 2744 0d18 391F      		adc r19,r25
 2745 0d1a E20F      		add r30,r18
 2746 0d1c F31F      		adc r31,r19
 2747 0d1e DF01      		movw r26,r30
 2748 0d20 5A96      		adiw r26,26
 2749 0d22 628D      		ldd r22,Z+26
 2750 0d24 1196      		adiw r26,1
 2751 0d26 7C91      		ld r23,X
 2752 0d28 1197      		sbiw r26,1
 2753               	.LM288:
 2754 0d2a 1296      		adiw r26,2
 2755 0d2c 8C91      		ld r24,X
 2756 0d2e 1297      		sbiw r26,2
 2757               	.LVL150:
 2758 0d30 1396      		adiw r26,3
 2759 0d32 9C91      		ld r25,X
 2760               	.LVL151:
 2761               	/* epilogue start */
 2762 0d34 0895      		ret
 2763               	.LFE53:
 2765               	.global	Timebase_DownCounter_SS_Get_EndValueSubSec
 2767               	Timebase_DownCounter_SS_Get_EndValueSubSec:
 2768               	.LFB54:
 2769               	.LM289:
 2770               	.LVL152:
 2771               	/* prologue: function */
 2772               	/* frame size = 0 */
 2773               	.LM290:
 2774 0d36 E091 0000 		lds r30,Timebase
 2775 0d3a F091 0000 		lds r31,(Timebase)+1
 2776 0d3e 90E0      		ldi r25,lo8(0)
 2777               	.LVL153:
 2778 0d40 9C01      		movw r18,r24
 2779 0d42 44E0      		ldi r20,4
 2780 0d44 220F      	1:	lsl r18
 2781 0d46 331F      		rol r19
 2782 0d48 4A95      		dec r20
 2783 0d4a 01F4      		brne 1b
 2784 0d4c 280F      		add r18,r24
 2785 0d4e 391F      		adc r19,r25
 2786 0d50 E20F      		add r30,r18
 2787 0d52 F31F      		adc r31,r19
 2788 0d54 DF01      		movw r26,r30
 2789 0d56 5E96      		adiw r26,30
 2790 0d58 668D      		ldd r22,Z+30
 2791 0d5a 1196      		adiw r26,1
 2792 0d5c 7C91      		ld r23,X
 2793 0d5e 1197      		sbiw r26,1
 2794               	.LM291:
 2795 0d60 1296      		adiw r26,2
 2796 0d62 8C91      		ld r24,X
 2797 0d64 1297      		sbiw r26,2
 2798               	.LVL154:
 2799 0d66 1396      		adiw r26,3
 2800 0d68 9C91      		ld r25,X
 2801               	.LVL155:
 2802               	/* epilogue start */
 2803 0d6a 0895      		ret
 2804               	.LFE54:
 2806               	.global	Timebase_DownCounter_SS_Set_EndValueSec
 2808               	Timebase_DownCounter_SS_Set_EndValueSec:
 2809               	.LFB55:
 2810               	.LM292:
 2811               	.LVL156:
 2812               	/* prologue: function */
 2813               	/* frame size = 0 */
 2814               	.LM293:
 2815 0d6c E091 0000 		lds r30,Timebase
 2816 0d70 F091 0000 		lds r31,(Timebase)+1
 2817 0d74 90E0      		ldi r25,lo8(0)
 2818               	.LVL157:
 2819 0d76 9C01      		movw r18,r24
 2820 0d78 A4E0      		ldi r26,4
 2821 0d7a 220F      	1:	lsl r18
 2822 0d7c 331F      		rol r19
 2823 0d7e AA95      		dec r26
 2824 0d80 01F4      		brne 1b
 2825 0d82 280F      		add r18,r24
 2826 0d84 391F      		adc r19,r25
 2827 0d86 E20F      		add r30,r18
 2828 0d88 F31F      		adc r31,r19
 2829 0d8a 428F      		std Z+26,r20
 2830 0d8c 538F      		std Z+27,r21
 2831 0d8e 648F      		std Z+28,r22
 2832 0d90 758F      		std Z+29,r23
 2833               	/* epilogue start */
 2834               	.LM294:
 2835 0d92 0895      		ret
 2836               	.LFE55:
 2838               	.global	Timebase_DownCounter_SS_Set_EndValueSubSec
 2840               	Timebase_DownCounter_SS_Set_EndValueSubSec:
 2841               	.LFB56:
 2842               	.LM295:
 2843               	.LVL158:
 2844               	/* prologue: function */
 2845               	/* frame size = 0 */
 2846               	.LM296:
 2847 0d94 E091 0000 		lds r30,Timebase
 2848 0d98 F091 0000 		lds r31,(Timebase)+1
 2849 0d9c 90E0      		ldi r25,lo8(0)
 2850               	.LVL159:
 2851 0d9e 9C01      		movw r18,r24
 2852 0da0 B4E0      		ldi r27,4
 2853 0da2 220F      	1:	lsl r18
 2854 0da4 331F      		rol r19
 2855 0da6 BA95      		dec r27
 2856 0da8 01F4      		brne 1b
 2857 0daa 280F      		add r18,r24
 2858 0dac 391F      		adc r19,r25
 2859 0dae E20F      		add r30,r18
 2860 0db0 F31F      		adc r31,r19
 2861 0db2 468F      		std Z+30,r20
 2862 0db4 578F      		std Z+31,r21
 2863 0db6 60A3      		std Z+32,r22
 2864 0db8 71A3      		std Z+33,r23
 2865               	/* epilogue start */
 2866               	.LM297:
 2867 0dba 0895      		ret
 2868               	.LFE56:
 2870               	.global	Timebase_DownCounter_SS_Get_PeriodValue
 2872               	Timebase_DownCounter_SS_Get_PeriodValue:
 2873               	.LFB57:
 2874               	.LM298:
 2875               	.LVL160:
 2876               	/* prologue: function */
 2877               	/* frame size = 0 */
 2878               	.LM299:
 2879 0dbc E091 0000 		lds r30,Timebase
 2880 0dc0 F091 0000 		lds r31,(Timebase)+1
 2881 0dc4 90E0      		ldi r25,lo8(0)
 2882               	.LVL161:
 2883 0dc6 9C01      		movw r18,r24
 2884 0dc8 44E0      		ldi r20,4
 2885 0dca 220F      	1:	lsl r18
 2886 0dcc 331F      		rol r19
 2887 0dce 4A95      		dec r20
 2888 0dd0 01F4      		brne 1b
 2889 0dd2 280F      		add r18,r24
 2890 0dd4 391F      		adc r19,r25
 2891 0dd6 E20F      		add r30,r18
 2892 0dd8 F31F      		adc r31,r19
 2893 0dda DF01      		movw r26,r30
 2894 0ddc 9696      		adiw r26,38
 2895 0dde 66A1      		ldd r22,Z+38
 2896 0de0 1196      		adiw r26,1
 2897 0de2 7C91      		ld r23,X
 2898 0de4 1197      		sbiw r26,1
 2899               	.LM300:
 2900 0de6 1296      		adiw r26,2
 2901 0de8 8C91      		ld r24,X
 2902 0dea 1297      		sbiw r26,2
 2903               	.LVL162:
 2904 0dec 1396      		adiw r26,3
 2905 0dee 9C91      		ld r25,X
 2906               	.LVL163:
 2907               	/* epilogue start */
 2908 0df0 0895      		ret
 2909               	.LFE57:
 2911               	.global	Timebase_DownCounter_SS_Set_PeriodValue
 2913               	Timebase_DownCounter_SS_Set_PeriodValue:
 2914               	.LFB58:
 2915               	.LM301:
 2916               	.LVL164:
 2917               	/* prologue: function */
 2918               	/* frame size = 0 */
 2919 0df2 E091 0000 		lds r30,Timebase
 2920 0df6 F091 0000 		lds r31,(Timebase)+1
 2921 0dfa 282F      		mov r18,r24
 2922 0dfc 30E0      		ldi r19,lo8(0)
 2923               	.LVL165:
 2924               	.LM302:
 2925 0dfe 77FF      		sbrs r23,7
 2926 0e00 00C0      		rjmp .L162
 2927               	.LVL166:
 2928               	.LM303:
 2929 0e02 C901      		movw r24,r18
 2930 0e04 B4E0      		ldi r27,4
 2931 0e06 880F      	1:	lsl r24
 2932 0e08 991F      		rol r25
 2933 0e0a BA95      		dec r27
 2934 0e0c 01F4      		brne 1b
 2935 0e0e 820F      		add r24,r18
 2936 0e10 931F      		adc r25,r19
 2937 0e12 E80F      		add r30,r24
 2938 0e14 F91F      		adc r31,r25
 2939 0e16 16A2      		std Z+38,__zero_reg__
 2940 0e18 17A2      		std Z+39,__zero_reg__
 2941 0e1a 10A6      		std Z+40,__zero_reg__
 2942 0e1c 11A6      		std Z+41,__zero_reg__
 2943 0e1e 0895      		ret
 2944               	.LVL167:
 2945               	.L162:
 2946               	.LM304:
 2947 0e20 C901      		movw r24,r18
 2948 0e22 A4E0      		ldi r26,4
 2949 0e24 880F      	1:	lsl r24
 2950 0e26 991F      		rol r25
 2951 0e28 AA95      		dec r26
 2952 0e2a 01F4      		brne 1b
 2953 0e2c 820F      		add r24,r18
 2954 0e2e 931F      		adc r25,r19
 2955 0e30 E80F      		add r30,r24
 2956 0e32 F91F      		adc r31,r25
 2957 0e34 46A3      		std Z+38,r20
 2958 0e36 57A3      		std Z+39,r21
 2959 0e38 60A7      		std Z+40,r22
 2960 0e3a 71A7      		std Z+41,r23
 2961 0e3c 0895      		ret
 2962               	.LFE58:
 2964               	.global	Timebase_DownCounter_SS_Get_Period_Flag
 2966               	Timebase_DownCounter_SS_Get_Period_Flag:
 2967               	.LFB59:
 2968               	.LM305:
 2969               	.LVL168:
 2970               	/* prologue: function */
 2971               	/* frame size = 0 */
 2972               	.LM306:
 2973 0e3e E091 0000 		lds r30,Timebase
 2974 0e42 F091 0000 		lds r31,(Timebase)+1
 2975 0e46 90E0      		ldi r25,lo8(0)
 2976               	.LVL169:
 2977 0e48 9C01      		movw r18,r24
 2978 0e4a 44E0      		ldi r20,4
 2979 0e4c 220F      	1:	lsl r18
 2980 0e4e 331F      		rol r19
 2981 0e50 4A95      		dec r20
 2982 0e52 01F4      		brne 1b
 2983 0e54 280F      		add r18,r24
 2984 0e56 391F      		adc r19,r25
 2985 0e58 E20F      		add r30,r18
 2986 0e5a F31F      		adc r31,r19
 2987 0e5c 818D      		ldd r24,Z+25
 2988               	.LVL170:
 2989               	.LM307:
 2990 0e5e 8170      		andi r24,lo8(1)
 2991               	/* epilogue start */
 2992 0e60 0895      		ret
 2993               	.LFE59:
 2995               	.global	Timebase_DownCounter_SS_Set_Period_Flag
 2997               	Timebase_DownCounter_SS_Set_Period_Flag:
 2998               	.LFB60:
 2999               	.LM308:
 3000               	.LVL171:
 3001               	/* prologue: function */
 3002               	/* frame size = 0 */
 3003               	.LM309:
 3004 0e62 E091 0000 		lds r30,Timebase
 3005 0e66 F091 0000 		lds r31,(Timebase)+1
 3006 0e6a 90E0      		ldi r25,lo8(0)
 3007               	.LVL172:
 3008 0e6c 9C01      		movw r18,r24
 3009 0e6e 54E0      		ldi r21,4
 3010 0e70 220F      	1:	lsl r18
 3011 0e72 331F      		rol r19
 3012 0e74 5A95      		dec r21
 3013 0e76 01F4      		brne 1b
 3014 0e78 280F      		add r18,r24
 3015 0e7a 391F      		adc r19,r25
 3016 0e7c E20F      		add r30,r18
 3017 0e7e F31F      		adc r31,r19
 3018 0e80 818D      		ldd r24,Z+25
 3019               	.LVL173:
 3020 0e82 8160      		ori r24,lo8(1)
 3021 0e84 818F      		std Z+25,r24
 3022               	/* epilogue start */
 3023               	.LM310:
 3024 0e86 0895      		ret
 3025               	.LFE60:
 3027               	.global	Timebase_DownCounter_SS_Clear_Period_Flag
 3029               	Timebase_DownCounter_SS_Clear_Period_Flag:
 3030               	.LFB61:
 3031               	.LM311:
 3032               	.LVL174:
 3033               	/* prologue: function */
 3034               	/* frame size = 0 */
 3035               	.LM312:
 3036 0e88 E091 0000 		lds r30,Timebase
 3037 0e8c F091 0000 		lds r31,(Timebase)+1
 3038 0e90 90E0      		ldi r25,lo8(0)
 3039               	.LVL175:
 3040 0e92 9C01      		movw r18,r24
 3041 0e94 64E0      		ldi r22,4
 3042 0e96 220F      	1:	lsl r18
 3043 0e98 331F      		rol r19
 3044 0e9a 6A95      		dec r22
 3045 0e9c 01F4      		brne 1b
 3046 0e9e 280F      		add r18,r24
 3047 0ea0 391F      		adc r19,r25
 3048 0ea2 E20F      		add r30,r18
 3049 0ea4 F31F      		adc r31,r19
 3050 0ea6 818D      		ldd r24,Z+25
 3051               	.LVL176:
 3052 0ea8 8E7F      		andi r24,lo8(-2)
 3053 0eaa 818F      		std Z+25,r24
 3054               	/* epilogue start */
 3055               	.LM313:
 3056 0eac 0895      		ret
 3057               	.LFE61:
 3059               	.global	Timebase_DownCounter_SS_Reset
 3061               	Timebase_DownCounter_SS_Reset:
 3062               	.LFB62:
 3063               	.LM314:
 3064               	.LVL177:
 3065               	/* prologue: function */
 3066               	/* frame size = 0 */
 3067               	.LBB461:
 3068               	.LBB462:
 3069               	.LM315:
 3070 0eae E091 0000 		lds r30,Timebase
 3071 0eb2 F091 0000 		lds r31,(Timebase)+1
 3072 0eb6 90E0      		ldi r25,lo8(0)
 3073 0eb8 9C01      		movw r18,r24
 3074               	.LVL178:
 3075 0eba 74E0      		ldi r23,4
 3076 0ebc 220F      	1:	lsl r18
 3077 0ebe 331F      		rol r19
 3078 0ec0 7A95      		dec r23
 3079 0ec2 01F4      		brne 1b
 3080 0ec4 280F      		add r18,r24
 3081 0ec6 391F      		adc r19,r25
 3082 0ec8 E20F      		add r30,r18
 3083 0eca F31F      		adc r31,r19
 3084 0ecc 168E      		std Z+30,__zero_reg__
 3085 0ece 178E      		std Z+31,__zero_reg__
 3086 0ed0 10A2      		std Z+32,__zero_reg__
 3087 0ed2 11A2      		std Z+33,__zero_reg__
 3088               	.LBE462:
 3089               	.LBE461:
 3090               	.LBB463:
 3091               	.LBB464:
 3092               	.LM316:
 3093 0ed4 128E      		std Z+26,__zero_reg__
 3094 0ed6 138E      		std Z+27,__zero_reg__
 3095 0ed8 148E      		std Z+28,__zero_reg__
 3096 0eda 158E      		std Z+29,__zero_reg__
 3097               	.LBE464:
 3098               	.LBE463:
 3099               	.LBB465:
 3100               	.LBB466:
 3101               	.LM317:
 3102 0edc 12A2      		std Z+34,__zero_reg__
 3103 0ede 13A2      		std Z+35,__zero_reg__
 3104 0ee0 14A2      		std Z+36,__zero_reg__
 3105 0ee2 15A2      		std Z+37,__zero_reg__
 3106               	.LBE466:
 3107               	.LBE465:
 3108               	.LBB467:
 3109               	.LBB468:
 3110               	.LM318:
 3111 0ee4 818D      		ldd r24,Z+25
 3112               	.LBE468:
 3113               	.LBE467:
 3114               	.LBB469:
 3115               	.LBB470:
 3116               	.LM319:
 3117 0ee6 807E      		andi r24,lo8(-32)
 3118 0ee8 818F      		std Z+25,r24
 3119               	/* epilogue start */
 3120               	.LBE470:
 3121               	.LBE469:
 3122               	.LM320:
 3123 0eea 0895      		ret
 3124               	.LFE62:
 3126               	.global	Timebase_DownCounter_SS_Clear_All_Flags
 3128               	Timebase_DownCounter_SS_Clear_All_Flags:
 3129               	.LFB63:
 3130               	.LM321:
 3131               	.LVL179:
 3132               	/* prologue: function */
 3133               	/* frame size = 0 */
 3134               	.LBB471:
 3135               	.LBB472:
 3136               	.LBB473:
 3137               	.LBB474:
 3138               	.LM322:
 3139 0eec E091 0000 		lds r30,Timebase
 3140 0ef0 F091 0000 		lds r31,(Timebase)+1
 3141 0ef4 90E0      		ldi r25,lo8(0)
 3142 0ef6 9C01      		movw r18,r24
 3143               	.LVL180:
 3144 0ef8 A4E0      		ldi r26,4
 3145 0efa 220F      	1:	lsl r18
 3146 0efc 331F      		rol r19
 3147 0efe AA95      		dec r26
 3148 0f00 01F4      		brne 1b
 3149 0f02 280F      		add r18,r24
 3150 0f04 391F      		adc r19,r25
 3151 0f06 E20F      		add r30,r18
 3152 0f08 F31F      		adc r31,r19
 3153 0f0a 168E      		std Z+30,__zero_reg__
 3154 0f0c 178E      		std Z+31,__zero_reg__
 3155 0f0e 10A2      		std Z+32,__zero_reg__
 3156 0f10 11A2      		std Z+33,__zero_reg__
 3157               	.LBE474:
 3158               	.LBE473:
 3159               	.LBB475:
 3160               	.LBB476:
 3161               	.LM323:
 3162 0f12 128E      		std Z+26,__zero_reg__
 3163 0f14 138E      		std Z+27,__zero_reg__
 3164 0f16 148E      		std Z+28,__zero_reg__
 3165 0f18 158E      		std Z+29,__zero_reg__
 3166               	.LBE476:
 3167               	.LBE475:
 3168               	.LBB477:
 3169               	.LBB478:
 3170               	.LM324:
 3171 0f1a 12A2      		std Z+34,__zero_reg__
 3172 0f1c 13A2      		std Z+35,__zero_reg__
 3173 0f1e 14A2      		std Z+36,__zero_reg__
 3174 0f20 15A2      		std Z+37,__zero_reg__
 3175               	.LBE478:
 3176               	.LBE477:
 3177               	.LBB479:
 3178               	.LBB480:
 3179               	.LM325:
 3180 0f22 818D      		ldd r24,Z+25
 3181               	.LBE480:
 3182               	.LBE479:
 3183               	.LBB481:
 3184               	.LBB482:
 3185               	.LM326:
 3186 0f24 807E      		andi r24,lo8(-32)
 3187 0f26 818F      		std Z+25,r24
 3188               	/* epilogue start */
 3189               	.LBE482:
 3190               	.LBE481:
 3191               	.LBE472:
 3192               	.LBE471:
 3193               	.LM327:
 3194 0f28 0895      		ret
 3195               	.LFE63:
 3197               	.global	Timebase_DownCounter_SS_Start
 3199               	Timebase_DownCounter_SS_Start:
 3200               	.LFB64:
 3201               	.LM328:
 3202               	.LVL181:
 3203               	/* prologue: function */
 3204               	/* frame size = 0 */
 3205               	.LBB483:
 3206               	.LBB484:
 3207               	.LM329:
 3208 0f2a E091 0000 		lds r30,Timebase
 3209 0f2e F091 0000 		lds r31,(Timebase)+1
 3210 0f32 90E0      		ldi r25,lo8(0)
 3211               	.LBE484:
 3212               	.LBE483:
 3213               	.LM330:
 3214 0f34 9C01      		movw r18,r24
 3215               	.LVL182:
 3216 0f36 B4E0      		ldi r27,4
 3217 0f38 220F      	1:	lsl r18
 3218 0f3a 331F      		rol r19
 3219 0f3c BA95      		dec r27
 3220 0f3e 01F4      		brne 1b
 3221 0f40 280F      		add r18,r24
 3222 0f42 391F      		adc r19,r25
 3223 0f44 E20F      		add r30,r18
 3224 0f46 F31F      		adc r31,r19
 3225 0f48 918D      		ldd r25,Z+25
 3226 0f4a 892F      		mov r24,r25
 3227 0f4c 8695      		lsr r24
 3228 0f4e 8F70      		andi r24,lo8(15)
 3229 0f50 8130      		cpi r24,lo8(1)
 3230 0f52 01F0      		breq .L177
 3231               	.LBB485:
 3232               	.LBB486:
 3233               	.LM331:
 3234 0f54 917E      		andi r25,lo8(-31)
 3235 0f56 9260      		ori r25,lo8(2)
 3236 0f58 918F      		std Z+25,r25
 3237               	.L177:
 3238 0f5a 0895      		ret
 3239               	.LBE486:
 3240               	.LBE485:
 3241               	.LFE64:
 3243               	.global	Timebase_DownCounter_SS_Stop
 3245               	Timebase_DownCounter_SS_Stop:
 3246               	.LFB65:
 3247               	.LM332:
 3248               	.LVL183:
 3249               	/* prologue: function */
 3250               	/* frame size = 0 */
 3251               	.LBB487:
 3252               	.LBB488:
 3253               	.LM333:
 3254 0f5c E091 0000 		lds r30,Timebase
 3255 0f60 F091 0000 		lds r31,(Timebase)+1
 3256 0f64 90E0      		ldi r25,lo8(0)
 3257               	.LBE488:
 3258               	.LBE487:
 3259               	.LM334:
 3260 0f66 9C01      		movw r18,r24
 3261               	.LVL184:
 3262 0f68 44E0      		ldi r20,4
 3263 0f6a 220F      	1:	lsl r18
 3264 0f6c 331F      		rol r19
 3265 0f6e 4A95      		dec r20
 3266 0f70 01F4      		brne 1b
 3267 0f72 280F      		add r18,r24
 3268 0f74 391F      		adc r19,r25
 3269 0f76 E20F      		add r30,r18
 3270 0f78 F31F      		adc r31,r19
 3271 0f7a 918D      		ldd r25,Z+25
 3272 0f7c 892F      		mov r24,r25
 3273 0f7e 8695      		lsr r24
 3274 0f80 8F70      		andi r24,lo8(15)
 3275 0f82 8230      		cpi r24,lo8(2)
 3276 0f84 01F0      		breq .L180
 3277               	.LBB489:
 3278               	.LBB490:
 3279               	.LM335:
 3280 0f86 917E      		andi r25,lo8(-31)
 3281 0f88 9460      		ori r25,lo8(4)
 3282 0f8a 918F      		std Z+25,r25
 3283               	.L180:
 3284 0f8c 0895      		ret
 3285               	.LBE490:
 3286               	.LBE489:
 3287               	.LFE65:
 3289               	.global	Timebase_DownCounter_SS_Set_Securely
 3291               	Timebase_DownCounter_SS_Set_Securely:
 3292               	.LFB66:
 3293               	.LM336:
 3294               	.LVL185:
 3295 0f8e 2F92      		push r2
 3296 0f90 3F92      		push r3
 3297 0f92 4F92      		push r4
 3298 0f94 5F92      		push r5
 3299 0f96 6F92      		push r6
 3300 0f98 7F92      		push r7
 3301 0f9a 8F92      		push r8
 3302 0f9c 9F92      		push r9
 3303 0f9e AF92      		push r10
 3304 0fa0 BF92      		push r11
 3305 0fa2 CF92      		push r12
 3306 0fa4 DF92      		push r13
 3307 0fa6 EF92      		push r14
 3308 0fa8 FF92      		push r15
 3309 0faa 0F93      		push r16
 3310 0fac 1F93      		push r17
 3311 0fae DF93      		push r29
 3312 0fb0 CF93      		push r28
 3313 0fb2 00D0      		rcall .
 3314 0fb4 00D0      		rcall .
 3315 0fb6 CDB7      		in r28,__SP_L__
 3316 0fb8 DEB7      		in r29,__SP_H__
 3317               	/* prologue: function */
 3318               	/* frame size = 4 */
 3319 0fba 4A01      		movw r8,r20
 3320 0fbc 5B01      		movw r10,r22
 3321               	.LBB491:
 3322               	.LBB492:
 3323               	.LM337:
 3324 0fbe 2091 0000 		lds r18,Timebase
 3325 0fc2 3091 0000 		lds r19,(Timebase)+1
 3326 0fc6 3C83      		std Y+4,r19
 3327 0fc8 2B83      		std Y+3,r18
 3328 0fca A82F      		mov r26,r24
 3329 0fcc B0E0      		ldi r27,lo8(0)
 3330 0fce BA83      		std Y+2,r27
 3331 0fd0 A983      		std Y+1,r26
 3332               	.LBE492:
 3333               	.LBE491:
 3334               	.LM338:
 3335 0fd2 FD01      		movw r30,r26
 3336 0fd4 64E0      		ldi r22,4
 3337 0fd6 EE0F      	1:	lsl r30
 3338 0fd8 FF1F      		rol r31
 3339 0fda 6A95      		dec r22
 3340 0fdc 01F4      		brne 1b
 3341 0fde EA0F      		add r30,r26
 3342 0fe0 FB1F      		adc r31,r27
 3343 0fe2 E20F      		add r30,r18
 3344 0fe4 F31F      		adc r31,r19
 3345 0fe6 818D      		ldd r24,Z+25
 3346               	.LVL186:
 3347 0fe8 8695      		lsr r24
 3348 0fea 8F70      		andi r24,lo8(15)
 3349 0fec 01F0      		breq .+2
 3350 0fee 00C0      		rjmp .L184
 3351               	.LVL187:
 3352               	.LBB493:
 3353               	.LBB494:
 3354               	.LBB495:
 3355               	.LM339:
 3356 0ff0 82A2      		std Z+34,r8
 3357 0ff2 93A2      		std Z+35,r9
 3358 0ff4 A4A2      		std Z+36,r10
 3359 0ff6 B5A2      		std Z+37,r11
 3360               	.LBE495:
 3361               	.LBE494:
 3362               	.LBB496:
 3363               	.LBB497:
 3364               	.LM340:
 3365 0ff8 F901      		movw r30,r18
 3366 0ffa C084      		ldd r12,Z+8
 3367 0ffc D184      		ldd r13,Z+9
 3368               	.LBE497:
 3369               	.LBE496:
 3370               	.LBB498:
 3371               	.LBB499:
 3372               	.LM341:
 3373 0ffe 2284      		ldd r2,Z+10
 3374 1000 3384      		ldd r3,Z+11
 3375 1002 4484      		ldd r4,Z+12
 3376 1004 5584      		ldd r5,Z+13
 3377               	.LVL188:
 3378               	.LBE499:
 3379               	.LBE498:
 3380               	.LM342:
 3381 1006 2181      		ldd r18,Z+1
 3382 1008 3281      		ldd r19,Z+2
 3383 100a 40E0      		ldi r20,lo8(0)
 3384 100c 50E0      		ldi r21,hi8(0)
 3385 100e C501      		movw r24,r10
 3386 1010 B401      		movw r22,r8
 3387 1012 0E94 0000 		call __divmodsi4
 3388 1016 7B01      		movw r14,r22
 3389 1018 8C01      		movw r16,r24
 3390               	.LM343:
 3391 101a AB81      		ldd r26,Y+3
 3392 101c BC81      		ldd r27,Y+4
 3393 101e 1196      		adiw r26,1
 3394 1020 2D91      		ld r18,X+
 3395 1022 3C91      		ld r19,X
 3396 1024 1297      		sbiw r26,1+1
 3397 1026 40E0      		ldi r20,lo8(0)
 3398 1028 50E0      		ldi r21,hi8(0)
 3399 102a C501      		movw r24,r10
 3400 102c B401      		movw r22,r8
 3401 102e 0E94 0000 		call __divmodsi4
 3402 1032 C901      		movw r24,r18
 3403 1034 DA01      		movw r26,r20
 3404 1036 3C01      		movw r6,r24
 3405 1038 4D01      		movw r8,r26
 3406               	.LVL189:
 3407               	.LM344:
 3408 103a 5601      		movw r10,r12
 3409               	.LVL190:
 3410 103c CC24      		clr r12
 3411 103e DD24      		clr r13
 3412               	.LVL191:
 3413 1040 AE0C      		add r10,r14
 3414 1042 BF1C      		adc r11,r15
 3415 1044 C01E      		adc r12,r16
 3416 1046 D11E      		adc r13,r17
 3417               	.LVL192:
 3418               	.LM345:
 3419 1048 EB81      		ldd r30,Y+3
 3420 104a FC81      		ldd r31,Y+4
 3421 104c 8181      		ldd r24,Z+1
 3422 104e 9281      		ldd r25,Z+2
 3423               	.LVL193:
 3424 1050 A0E0      		ldi r26,lo8(0)
 3425 1052 B0E0      		ldi r27,hi8(0)
 3426 1054 A816      		cp r10,r24
 3427 1056 B906      		cpc r11,r25
 3428 1058 CA06      		cpc r12,r26
 3429 105a DB06      		cpc r13,r27
 3430 105c 04F0      		brlt .L183
 3431               	.LM346:
 3432 105e 0894      		sec
 3433 1060 611C      		adc r6,__zero_reg__
 3434 1062 711C      		adc r7,__zero_reg__
 3435 1064 811C      		adc r8,__zero_reg__
 3436 1066 911C      		adc r9,__zero_reg__
 3437               	.LM347:
 3438 1068 2181      		ldd r18,Z+1
 3439 106a 3281      		ldd r19,Z+2
 3440 106c 40E0      		ldi r20,lo8(0)
 3441 106e 50E0      		ldi r21,hi8(0)
 3442 1070 C601      		movw r24,r12
 3443 1072 B501      		movw r22,r10
 3444 1074 0E94 0000 		call __divmodsi4
 3445 1078 AC01      		movw r20,r24
 3446 107a CB01      		movw r24,r22
 3447 107c DA01      		movw r26,r20
 3448 107e 5C01      		movw r10,r24
 3449 1080 6D01      		movw r12,r26
 3450               	.L183:
 3451               	.LBB500:
 3452               	.LBB501:
 3453               	.LM348:
 3454 1082 E981      		ldd r30,Y+1
 3455 1084 FA81      		ldd r31,Y+2
 3456 1086 54E0      		ldi r21,4
 3457 1088 EE0F      	1:	lsl r30
 3458 108a FF1F      		rol r31
 3459 108c 5A95      		dec r21
 3460 108e 01F4      		brne 1b
 3461 1090 2981      		ldd r18,Y+1
 3462 1092 3A81      		ldd r19,Y+2
 3463 1094 E20F      		add r30,r18
 3464 1096 F31F      		adc r31,r19
 3465 1098 8B81      		ldd r24,Y+3
 3466 109a 9C81      		ldd r25,Y+4
 3467 109c E80F      		add r30,r24
 3468 109e F91F      		adc r31,r25
 3469 10a0 260C      		add r2,r6
 3470 10a2 371C      		adc r3,r7
 3471 10a4 481C      		adc r4,r8
 3472 10a6 591C      		adc r5,r9
 3473 10a8 228E      		std Z+26,r2
 3474 10aa 338E      		std Z+27,r3
 3475 10ac 448E      		std Z+28,r4
 3476 10ae 558E      		std Z+29,r5
 3477               	.LBE501:
 3478               	.LBE500:
 3479               	.LBB502:
 3480               	.LBB503:
 3481               	.LM349:
 3482 10b0 A68E      		std Z+30,r10
 3483 10b2 B78E      		std Z+31,r11
 3484 10b4 C0A2      		std Z+32,r12
 3485 10b6 D1A2      		std Z+33,r13
 3486               	.LBE503:
 3487               	.LBE502:
 3488               	.LBB504:
 3489               	.LBB505:
 3490               	.LM350:
 3491 10b8 918D      		ldd r25,Z+25
 3492 10ba 892F      		mov r24,r25
 3493 10bc 8695      		lsr r24
 3494 10be 8F70      		andi r24,lo8(15)
 3495 10c0 8130      		cpi r24,lo8(1)
 3496 10c2 01F0      		breq .L184
 3497               	.LBB506:
 3498               	.LBB507:
 3499               	.LM351:
 3500 10c4 917E      		andi r25,lo8(-31)
 3501 10c6 9260      		ori r25,lo8(2)
 3502 10c8 918F      		std Z+25,r25
 3503               	.LVL194:
 3504               	.L184:
 3505               	/* epilogue start */
 3506               	.LBE507:
 3507               	.LBE506:
 3508               	.LBE505:
 3509               	.LBE504:
 3510               	.LBE493:
 3511               	.LM352:
 3512 10ca 0F90      		pop __tmp_reg__
 3513 10cc 0F90      		pop __tmp_reg__
 3514 10ce 0F90      		pop __tmp_reg__
 3515 10d0 0F90      		pop __tmp_reg__
 3516 10d2 CF91      		pop r28
 3517 10d4 DF91      		pop r29
 3518 10d6 1F91      		pop r17
 3519 10d8 0F91      		pop r16
 3520 10da FF90      		pop r15
 3521 10dc EF90      		pop r14
 3522 10de DF90      		pop r13
 3523 10e0 CF90      		pop r12
 3524               	.LVL195:
 3525 10e2 BF90      		pop r11
 3526 10e4 AF90      		pop r10
 3527               	.LVL196:
 3528 10e6 9F90      		pop r9
 3529 10e8 8F90      		pop r8
 3530               	.LVL197:
 3531 10ea 7F90      		pop r7
 3532 10ec 6F90      		pop r6
 3533               	.LVL198:
 3534 10ee 5F90      		pop r5
 3535 10f0 4F90      		pop r4
 3536 10f2 3F90      		pop r3
 3537 10f4 2F90      		pop r2
 3538               	.LVL199:
 3539 10f6 0895      		ret
 3540               	.LFE66:
 3542               	.global	Timebase_DownCounter_SS_Set_Forcefully
 3544               	Timebase_DownCounter_SS_Set_Forcefully:
 3545               	.LFB67:
 3546               	.LM353:
 3547               	.LVL200:
 3548               	/* prologue: function */
 3549               	/* frame size = 0 */
 3550               	.LBB508:
 3551               	.LBB509:
 3552               	.LBB510:
 3553               	.LBB511:
 3554               	.LM354:
 3555 10f8 E091 0000 		lds r30,Timebase
 3556 10fc F091 0000 		lds r31,(Timebase)+1
 3557 1100 A82F      		mov r26,r24
 3558 1102 B0E0      		ldi r27,lo8(0)
 3559 1104 9D01      		movw r18,r26
 3560 1106 94E0      		ldi r25,4
 3561 1108 220F      	1:	lsl r18
 3562 110a 331F      		rol r19
 3563 110c 9A95      		dec r25
 3564 110e 01F4      		brne 1b
 3565 1110 2A0F      		add r18,r26
 3566 1112 3B1F      		adc r19,r27
 3567 1114 E20F      		add r30,r18
 3568 1116 F31F      		adc r31,r19
 3569 1118 168E      		std Z+30,__zero_reg__
 3570 111a 178E      		std Z+31,__zero_reg__
 3571 111c 10A2      		std Z+32,__zero_reg__
 3572 111e 11A2      		std Z+33,__zero_reg__
 3573               	.LBE511:
 3574               	.LBE510:
 3575               	.LBB512:
 3576               	.LBB513:
 3577               	.LM355:
 3578 1120 128E      		std Z+26,__zero_reg__
 3579 1122 138E      		std Z+27,__zero_reg__
 3580 1124 148E      		std Z+28,__zero_reg__
 3581 1126 158E      		std Z+29,__zero_reg__
 3582               	.LBE513:
 3583               	.LBE512:
 3584               	.LBB514:
 3585               	.LBB515:
 3586               	.LM356:
 3587 1128 12A2      		std Z+34,__zero_reg__
 3588 112a 13A2      		std Z+35,__zero_reg__
 3589 112c 14A2      		std Z+36,__zero_reg__
 3590 112e 15A2      		std Z+37,__zero_reg__
 3591               	.LBE515:
 3592               	.LBE514:
 3593               	.LBB516:
 3594               	.LBB517:
 3595               	.LM357:
 3596 1130 918D      		ldd r25,Z+25
 3597               	.LBE517:
 3598               	.LBE516:
 3599               	.LBB518:
 3600               	.LBB519:
 3601               	.LM358:
 3602 1132 907E      		andi r25,lo8(-32)
 3603 1134 918F      		std Z+25,r25
 3604               	.LBE519:
 3605               	.LBE518:
 3606               	.LBE509:
 3607               	.LBE508:
 3608               	.LM359:
 3609 1136 0E94 0000 		call Timebase_DownCounter_SS_Set_Securely
 3610               	.LVL201:
 3611               	/* epilogue start */
 3612               	.LM360:
 3613 113a 0895      		ret
 3614               	.LFE67:
 3616               	.global	Timebase_DownCounter_SS_Update
 3618               	Timebase_DownCounter_SS_Update:
 3619               	.LFB68:
 3620               	.LM361:
 3621               	.LVL202:
 3622 113c 2F92      		push r2
 3623 113e 3F92      		push r3
 3624 1140 4F92      		push r4
 3625 1142 5F92      		push r5
 3626 1144 6F92      		push r6
 3627 1146 7F92      		push r7
 3628 1148 8F92      		push r8
 3629 114a 9F92      		push r9
 3630 114c AF92      		push r10
 3631 114e BF92      		push r11
 3632 1150 CF92      		push r12
 3633 1152 DF92      		push r13
 3634 1154 EF92      		push r14
 3635 1156 FF92      		push r15
 3636 1158 0F93      		push r16
 3637 115a 1F93      		push r17
 3638 115c DF93      		push r29
 3639 115e CF93      		push r28
 3640 1160 00D0      		rcall .
 3641 1162 00D0      		rcall .
 3642 1164 CDB7      		in r28,__SP_L__
 3643 1166 DEB7      		in r29,__SP_H__
 3644               	/* prologue: function */
 3645               	/* frame size = 4 */
 3646               	.LBB520:
 3647               	.LBB521:
 3648               	.LM362:
 3649 1168 2091 0000 		lds r18,Timebase
 3650 116c 3091 0000 		lds r19,(Timebase)+1
 3651 1170 3C83      		std Y+4,r19
 3652 1172 2B83      		std Y+3,r18
 3653 1174 C82E      		mov r12,r24
 3654 1176 DD24      		clr r13
 3655 1178 C601      		movw r24,r12
 3656               	.LVL203:
 3657 117a 44E0      		ldi r20,4
 3658 117c 880F      	1:	lsl r24
 3659 117e 991F      		rol r25
 3660 1180 4A95      		dec r20
 3661 1182 01F4      		brne 1b
 3662 1184 8C0D      		add r24,r12
 3663 1186 9D1D      		adc r25,r13
 3664 1188 820F      		add r24,r18
 3665 118a 931F      		adc r25,r19
 3666 118c 9A83      		std Y+2,r25
 3667 118e 8983      		std Y+1,r24
 3668 1190 FC01      		movw r30,r24
 3669 1192 818D      		ldd r24,Z+25
 3670 1194 8695      		lsr r24
 3671 1196 8F70      		andi r24,lo8(15)
 3672               	.LBE521:
 3673               	.LBE520:
 3674               	.LM363:
 3675 1198 8130      		cpi r24,lo8(1)
 3676 119a 01F0      		breq .+2
 3677 119c 00C0      		rjmp .L188
 3678               	.LBB522:
 3679               	.LBB523:
 3680               	.LBB524:
 3681               	.LM364:
 3682 119e F901      		movw r30,r18
 3683 11a0 8085      		ldd r24,Z+8
 3684 11a2 9185      		ldd r25,Z+9
 3685               	.LBE524:
 3686               	.LBE523:
 3687               	.LM365:
 3688 11a4 4C01      		movw r8,r24
 3689               	.LVL204:
 3690 11a6 AA24      		clr r10
 3691 11a8 BB24      		clr r11
 3692               	.LVL205:
 3693               	.LBB525:
 3694               	.LBB526:
 3695               	.LM366:
 3696 11aa 8285      		ldd r24,Z+10
 3697 11ac 9385      		ldd r25,Z+11
 3698 11ae A485      		ldd r26,Z+12
 3699 11b0 B585      		ldd r27,Z+13
 3700               	.LVL206:
 3701               	.LBE526:
 3702               	.LBE525:
 3703               	.LM367:
 3704 11b2 E981      		ldd r30,Y+1
 3705 11b4 FA81      		ldd r31,Y+2
 3706 11b6 E28C      		ldd r14,Z+26
 3707 11b8 F38C      		ldd r15,Z+27
 3708 11ba 048D      		ldd r16,Z+28
 3709 11bc 158D      		ldd r17,Z+29
 3710               	.LVL207:
 3711 11be E81A      		sub r14,r24
 3712 11c0 F90A      		sbc r15,r25
 3713 11c2 0A0B      		sbc r16,r26
 3714 11c4 1B0B      		sbc r17,r27
 3715 11c6 17FF      		sbrs r17,7
 3716 11c8 00C0      		rjmp .L189
 3717 11ca EE24      		clr r14
 3718 11cc FF24      		clr r15
 3719 11ce 8701      		movw r16,r14
 3720               	.L189:
 3721               	.LM368:
 3722 11d0 EB81      		ldd r30,Y+3
 3723 11d2 FC81      		ldd r31,Y+4
 3724 11d4 2181      		ldd r18,Z+1
 3725 11d6 3281      		ldd r19,Z+2
 3726 11d8 40E0      		ldi r20,lo8(0)
 3727 11da 50E0      		ldi r21,hi8(0)
 3728 11dc C801      		movw r24,r16
 3729 11de B701      		movw r22,r14
 3730 11e0 0E94 0000 		call __mulsi3
 3731               	.LM369:
 3732 11e4 F601      		movw r30,r12
 3733 11e6 24E0      		ldi r18,4
 3734 11e8 EE0F      	1:	lsl r30
 3735 11ea FF1F      		rol r31
 3736 11ec 2A95      		dec r18
 3737 11ee 01F4      		brne 1b
 3738 11f0 EC0D      		add r30,r12
 3739 11f2 FD1D      		adc r31,r13
 3740 11f4 2B81      		ldd r18,Y+3
 3741 11f6 3C81      		ldd r19,Y+4
 3742 11f8 E20F      		add r30,r18
 3743 11fa F31F      		adc r31,r19
 3744 11fc 268D      		ldd r18,Z+30
 3745 11fe 378D      		ldd r19,Z+31
 3746 1200 40A1      		ldd r20,Z+32
 3747 1202 51A1      		ldd r21,Z+33
 3748               	.LVL208:
 3749 1204 2819      		sub r18,r8
 3750 1206 3909      		sbc r19,r9
 3751 1208 4A09      		sbc r20,r10
 3752 120a 5B09      		sbc r21,r11
 3753 120c 260F      		add r18,r22
 3754 120e 371F      		adc r19,r23
 3755 1210 481F      		adc r20,r24
 3756 1212 591F      		adc r21,r25
 3757               	.LBB527:
 3758               	.LBB528:
 3759               	.LM370:
 3760 1214 22A3      		std Z+34,r18
 3761 1216 33A3      		std Z+35,r19
 3762 1218 44A3      		std Z+36,r20
 3763 121a 55A3      		std Z+37,r21
 3764               	.LBE528:
 3765               	.LBE527:
 3766               	.LM371:
 3767 121c 1216      		cp __zero_reg__,r18
 3768 121e 1306      		cpc __zero_reg__,r19
 3769 1220 1406      		cpc __zero_reg__,r20
 3770 1222 1506      		cpc __zero_reg__,r21
 3771 1224 04F4      		brge .+2
 3772 1226 00C0      		rjmp .L191
 3773               	.LBB529:
 3774               	.LBB530:
 3775               	.LBB531:
 3776               	.LBB532:
 3777               	.LM372:
 3778 1228 168E      		std Z+30,__zero_reg__
 3779 122a 178E      		std Z+31,__zero_reg__
 3780 122c 10A2      		std Z+32,__zero_reg__
 3781 122e 11A2      		std Z+33,__zero_reg__
 3782               	.LBE532:
 3783               	.LBE531:
 3784               	.LBB533:
 3785               	.LBB534:
 3786               	.LM373:
 3787 1230 128E      		std Z+26,__zero_reg__
 3788 1232 138E      		std Z+27,__zero_reg__
 3789 1234 148E      		std Z+28,__zero_reg__
 3790 1236 158E      		std Z+29,__zero_reg__
 3791               	.LBE534:
 3792               	.LBE533:
 3793               	.LBB535:
 3794               	.LBB536:
 3795               	.LM374:
 3796 1238 12A2      		std Z+34,__zero_reg__
 3797 123a 13A2      		std Z+35,__zero_reg__
 3798 123c 14A2      		std Z+36,__zero_reg__
 3799 123e 15A2      		std Z+37,__zero_reg__
 3800               	.LBE536:
 3801               	.LBE535:
 3802               	.LBB537:
 3803               	.LBB538:
 3804               	.LM375:
 3805 1240 818D      		ldd r24,Z+25
 3806               	.LBE538:
 3807               	.LBE537:
 3808               	.LBE530:
 3809               	.LBE529:
 3810               	.LBB539:
 3811               	.LBB540:
 3812               	.LM376:
 3813 1242 807E      		andi r24,lo8(-32)
 3814 1244 8860      		ori r24,lo8(8)
 3815 1246 818F      		std Z+25,r24
 3816 1248 00C0      		rjmp .L191
 3817               	.LVL209:
 3818               	.L188:
 3819               	.LBE540:
 3820               	.LBE539:
 3821               	.LBE522:
 3822               	.LM377:
 3823 124a 8230      		cpi r24,lo8(2)
 3824 124c 01F4      		brne .L191
 3825               	.LBB541:
 3826               	.LBB542:
 3827               	.LBB543:
 3828               	.LM378:
 3829 124e EB81      		ldd r30,Y+3
 3830 1250 FC81      		ldd r31,Y+4
 3831 1252 6084      		ldd r6,Z+8
 3832 1254 7184      		ldd r7,Z+9
 3833               	.LBE543:
 3834               	.LBE542:
 3835               	.LBB544:
 3836               	.LBB545:
 3837               	.LM379:
 3838 1256 E284      		ldd r14,Z+10
 3839 1258 F384      		ldd r15,Z+11
 3840 125a 0485      		ldd r16,Z+12
 3841 125c 1585      		ldd r17,Z+13
 3842               	.LVL210:
 3843               	.LBE545:
 3844               	.LBE544:
 3845               	.LBB546:
 3846               	.LBB547:
 3847               	.LM380:
 3848 125e E981      		ldd r30,Y+1
 3849 1260 FA81      		ldd r31,Y+2
 3850 1262 22A0      		ldd r2,Z+34
 3851 1264 33A0      		ldd r3,Z+35
 3852 1266 44A0      		ldd r4,Z+36
 3853 1268 55A0      		ldd r5,Z+37
 3854               	.LVL211:
 3855               	.LBE547:
 3856               	.LBE546:
 3857               	.LM381:
 3858 126a EB81      		ldd r30,Y+3
 3859 126c FC81      		ldd r31,Y+4
 3860 126e 2181      		ldd r18,Z+1
 3861 1270 3281      		ldd r19,Z+2
 3862               	.LM382:
 3863 1272 A180      		ldd r10,Z+1
 3864 1274 B280      		ldd r11,Z+2
 3865               	.LBB548:
 3866               	.LBB549:
 3867               	.LM383:
 3868 1276 40E0      		ldi r20,lo8(0)
 3869 1278 50E0      		ldi r21,hi8(0)
 3870 127a C201      		movw r24,r4
 3871 127c B101      		movw r22,r2
 3872 127e 0E94 0000 		call __divmodsi4
 3873 1282 E20E      		add r14,r18
 3874 1284 F31E      		adc r15,r19
 3875 1286 041F      		adc r16,r20
 3876 1288 151F      		adc r17,r21
 3877 128a E981      		ldd r30,Y+1
 3878 128c FA81      		ldd r31,Y+2
 3879 128e E28E      		std Z+26,r14
 3880 1290 F38E      		std Z+27,r15
 3881 1292 048F      		std Z+28,r16
 3882 1294 158F      		std Z+29,r17
 3883               	.LBE549:
 3884               	.LBE548:
 3885               	.LBB550:
 3886               	.LBB551:
 3887               	.LM384:
 3888 1296 CC24      		clr r12
 3889 1298 DD24      		clr r13
 3890 129a C201      		movw r24,r4
 3891 129c B101      		movw r22,r2
 3892 129e A601      		movw r20,r12
 3893 12a0 9501      		movw r18,r10
 3894 12a2 0E94 0000 		call __divmodsi4
 3895 12a6 8824      		clr r8
 3896 12a8 9924      		clr r9
 3897 12aa 660E      		add r6,r22
 3898 12ac 771E      		adc r7,r23
 3899 12ae 881E      		adc r8,r24
 3900 12b0 991E      		adc r9,r25
 3901 12b2 E981      		ldd r30,Y+1
 3902 12b4 FA81      		ldd r31,Y+2
 3903 12b6 668E      		std Z+30,r6
 3904 12b8 778E      		std Z+31,r7
 3905 12ba 80A2      		std Z+32,r8
 3906 12bc 91A2      		std Z+33,r9
 3907               	.LVL212:
 3908               	.L191:
 3909               	/* epilogue start */
 3910               	.LBE551:
 3911               	.LBE550:
 3912               	.LBE541:
 3913               	.LM385:
 3914 12be 0F90      		pop __tmp_reg__
 3915 12c0 0F90      		pop __tmp_reg__
 3916 12c2 0F90      		pop __tmp_reg__
 3917 12c4 0F90      		pop __tmp_reg__
 3918 12c6 CF91      		pop r28
 3919 12c8 DF91      		pop r29
 3920 12ca 1F91      		pop r17
 3921 12cc 0F91      		pop r16
 3922 12ce FF90      		pop r15
 3923 12d0 EF90      		pop r14
 3924               	.LVL213:
 3925 12d2 DF90      		pop r13
 3926 12d4 CF90      		pop r12
 3927 12d6 BF90      		pop r11
 3928 12d8 AF90      		pop r10
 3929               	.LVL214:
 3930 12da 9F90      		pop r9
 3931 12dc 8F90      		pop r8
 3932               	.LVL215:
 3933 12de 7F90      		pop r7
 3934 12e0 6F90      		pop r6
 3935 12e2 5F90      		pop r5
 3936 12e4 4F90      		pop r4
 3937 12e6 3F90      		pop r3
 3938 12e8 2F90      		pop r2
 3939               	.LVL216:
 3940 12ea 0895      		ret
 3941               	.LFE68:
 3943               	.global	Timebase_DownCounter_SS_Expired
 3945               	Timebase_DownCounter_SS_Expired:
 3946               	.LFB69:
 3947               	.LM386:
 3948               	.LVL217:
 3949               	/* prologue: function */
 3950               	/* frame size = 0 */
 3951               	.LM387:
 3952 12ec 40E0      		ldi r20,lo8(0)
 3953 12ee E091 0000 		lds r30,Timebase
 3954 12f2 F091 0000 		lds r31,(Timebase)+1
 3955 12f6 90E0      		ldi r25,lo8(0)
 3956               	.LVL218:
 3957 12f8 9C01      		movw r18,r24
 3958 12fa 54E0      		ldi r21,4
 3959 12fc 220F      	1:	lsl r18
 3960 12fe 331F      		rol r19
 3961 1300 5A95      		dec r21
 3962 1302 01F4      		brne 1b
 3963 1304 280F      		add r18,r24
 3964 1306 391F      		adc r19,r25
 3965 1308 E20F      		add r30,r18
 3966 130a F31F      		adc r31,r19
 3967 130c 818D      		ldd r24,Z+25
 3968               	.LVL219:
 3969 130e 8695      		lsr r24
 3970 1310 8F70      		andi r24,lo8(15)
 3971 1312 8430      		cpi r24,lo8(4)
 3972 1314 01F4      		brne .L193
 3973 1316 41E0      		ldi r20,lo8(1)
 3974               	.L193:
 3975               	.LM388:
 3976 1318 842F      		mov r24,r20
 3977               	/* epilogue start */
 3978 131a 0895      		ret
 3979               	.LFE69:
 3981               	.global	Timebase_DownCounter_SS_Expired_Event
 3983               	Timebase_DownCounter_SS_Expired_Event:
 3984               	.LFB70:
 3985               	.LM389:
 3986               	.LVL220:
 3987               	/* prologue: function */
 3988               	/* frame size = 0 */
 3989               	.LBB552:
 3990               	.LBB553:
 3991               	.LM390:
 3992 131c E091 0000 		lds r30,Timebase
 3993 1320 F091 0000 		lds r31,(Timebase)+1
 3994 1324 90E0      		ldi r25,lo8(0)
 3995               	.LBE553:
 3996               	.LBE552:
 3997               	.LM391:
 3998 1326 9C01      		movw r18,r24
 3999               	.LVL221:
 4000 1328 64E0      		ldi r22,4
 4001 132a 220F      	1:	lsl r18
 4002 132c 331F      		rol r19
 4003 132e 6A95      		dec r22
 4004 1330 01F4      		brne 1b
 4005 1332 280F      		add r18,r24
 4006 1334 391F      		adc r19,r25
 4007 1336 E20F      		add r30,r18
 4008 1338 F31F      		adc r31,r19
 4009 133a 818D      		ldd r24,Z+25
 4010 133c 8695      		lsr r24
 4011 133e 8F70      		andi r24,lo8(15)
 4012 1340 8430      		cpi r24,lo8(4)
 4013 1342 01F0      		breq .L196
 4014 1344 80E0      		ldi r24,lo8(0)
 4015 1346 0895      		ret
 4016               	.L196:
 4017               	.LBB554:
 4018               	.LBB555:
 4019               	.LBB556:
 4020               	.LBB557:
 4021               	.LBB558:
 4022               	.LBB559:
 4023               	.LM392:
 4024 1348 168E      		std Z+30,__zero_reg__
 4025 134a 178E      		std Z+31,__zero_reg__
 4026 134c 10A2      		std Z+32,__zero_reg__
 4027 134e 11A2      		std Z+33,__zero_reg__
 4028               	.LBE559:
 4029               	.LBE558:
 4030               	.LBB560:
 4031               	.LBB561:
 4032               	.LM393:
 4033 1350 128E      		std Z+26,__zero_reg__
 4034 1352 138E      		std Z+27,__zero_reg__
 4035 1354 148E      		std Z+28,__zero_reg__
 4036 1356 158E      		std Z+29,__zero_reg__
 4037               	.LBE561:
 4038               	.LBE560:
 4039               	.LBB562:
 4040               	.LBB563:
 4041               	.LM394:
 4042 1358 12A2      		std Z+34,__zero_reg__
 4043 135a 13A2      		std Z+35,__zero_reg__
 4044 135c 14A2      		std Z+36,__zero_reg__
 4045 135e 15A2      		std Z+37,__zero_reg__
 4046               	.LBE563:
 4047               	.LBE562:
 4048               	.LBB564:
 4049               	.LBB565:
 4050               	.LM395:
 4051 1360 818D      		ldd r24,Z+25
 4052               	.LBE565:
 4053               	.LBE564:
 4054               	.LBB566:
 4055               	.LBB567:
 4056               	.LM396:
 4057 1362 807E      		andi r24,lo8(-32)
 4058 1364 818F      		std Z+25,r24
 4059 1366 81E0      		ldi r24,lo8(1)
 4060               	.LBE567:
 4061               	.LBE566:
 4062               	.LBE557:
 4063               	.LBE556:
 4064               	.LBE555:
 4065               	.LBE554:
 4066               	.LM397:
 4067 1368 0895      		ret
 4068               	.LFE70:
 4070               	.global	Timebase_DownCounter_SS_Set_Period_Value_Securely
 4072               	Timebase_DownCounter_SS_Set_Period_Value_Securely:
 4073               	.LFB71:
 4074               	.LM398:
 4075               	.LVL222:
 4076 136a CF93      		push r28
 4077 136c DF93      		push r29
 4078               	/* prologue: function */
 4079               	/* frame size = 0 */
 4080               	.LBB568:
 4081               	.LBB569:
 4082               	.LM399:
 4083 136e C091 0000 		lds r28,Timebase
 4084 1372 D091 0000 		lds r29,(Timebase)+1
 4085 1376 282F      		mov r18,r24
 4086 1378 30E0      		ldi r19,lo8(0)
 4087               	.LBE569:
 4088               	.LBE568:
 4089               	.LM400:
 4090 137a F901      		movw r30,r18
 4091 137c A4E0      		ldi r26,4
 4092 137e EE0F      	1:	lsl r30
 4093 1380 FF1F      		rol r31
 4094 1382 AA95      		dec r26
 4095 1384 01F4      		brne 1b
 4096 1386 E20F      		add r30,r18
 4097 1388 F31F      		adc r31,r19
 4098 138a EC0F      		add r30,r28
 4099 138c FD1F      		adc r31,r29
 4100 138e 818D      		ldd r24,Z+25
 4101               	.LVL223:
 4102 1390 80FD      		sbrc r24,0
 4103 1392 00C0      		rjmp .L203
 4104               	.LM401:
 4105 1394 82A1      		ldd r24,Z+34
 4106 1396 93A1      		ldd r25,Z+35
 4107 1398 A4A1      		ldd r26,Z+36
 4108 139a B5A1      		ldd r27,Z+37
 4109 139c 841B      		sub r24,r20
 4110 139e 950B      		sbc r25,r21
 4111 13a0 A60B      		sbc r26,r22
 4112 13a2 B70B      		sbc r27,r23
 4113               	.LBB570:
 4114               	.LBB571:
 4115               	.LM402:
 4116 13a4 B7FF      		sbrs r27,7
 4117 13a6 00C0      		rjmp .L201
 4118               	.LM403:
 4119 13a8 16A2      		std Z+38,__zero_reg__
 4120 13aa 17A2      		std Z+39,__zero_reg__
 4121 13ac 10A6      		std Z+40,__zero_reg__
 4122 13ae 11A6      		std Z+41,__zero_reg__
 4123 13b0 00C0      		rjmp .L202
 4124               	.L201:
 4125               	.LM404:
 4126 13b2 86A3      		std Z+38,r24
 4127 13b4 97A3      		std Z+39,r25
 4128 13b6 A0A7      		std Z+40,r26
 4129 13b8 B1A7      		std Z+41,r27
 4130               	.L202:
 4131               	.LBE571:
 4132               	.LBE570:
 4133               	.LBB572:
 4134               	.LBB573:
 4135               	.LM405:
 4136 13ba F901      		movw r30,r18
 4137 13bc 74E0      		ldi r23,4
 4138 13be EE0F      	1:	lsl r30
 4139 13c0 FF1F      		rol r31
 4140 13c2 7A95      		dec r23
 4141 13c4 01F4      		brne 1b
 4142 13c6 E20F      		add r30,r18
 4143 13c8 F31F      		adc r31,r19
 4144 13ca EC0F      		add r30,r28
 4145 13cc FD1F      		adc r31,r29
 4146 13ce 818D      		ldd r24,Z+25
 4147 13d0 8160      		ori r24,lo8(1)
 4148 13d2 818F      		std Z+25,r24
 4149               	.L203:
 4150               	/* epilogue start */
 4151               	.LBE573:
 4152               	.LBE572:
 4153               	.LM406:
 4154 13d4 DF91      		pop r29
 4155 13d6 CF91      		pop r28
 4156 13d8 0895      		ret
 4157               	.LFE71:
 4159               	.global	Timebase_DownCounter_SS_Get_Remaining_Period_Value
 4161               	Timebase_DownCounter_SS_Get_Remaining_Period_Value:
 4162               	.LFB72:
 4163               	.LM407:
 4164               	.LVL224:
 4165               	/* prologue: function */
 4166               	/* frame size = 0 */
 4167               	.LBB574:
 4168               	.LBB575:
 4169               	.LM408:
 4170 13da E091 0000 		lds r30,Timebase
 4171 13de F091 0000 		lds r31,(Timebase)+1
 4172 13e2 90E0      		ldi r25,lo8(0)
 4173               	.LBE575:
 4174               	.LBE574:
 4175               	.LM409:
 4176 13e4 9C01      		movw r18,r24
 4177               	.LVL225:
 4178 13e6 B4E0      		ldi r27,4
 4179 13e8 220F      	1:	lsl r18
 4180 13ea 331F      		rol r19
 4181 13ec BA95      		dec r27
 4182 13ee 01F4      		brne 1b
 4183 13f0 280F      		add r18,r24
 4184 13f2 391F      		adc r19,r25
 4185 13f4 E20F      		add r30,r18
 4186 13f6 F31F      		adc r31,r19
 4187 13f8 22A1      		ldd r18,Z+34
 4188 13fa 33A1      		ldd r19,Z+35
 4189 13fc 44A1      		ldd r20,Z+36
 4190 13fe 55A1      		ldd r21,Z+37
 4191               	.LVL226:
 4192 1400 86A1      		ldd r24,Z+38
 4193 1402 97A1      		ldd r25,Z+39
 4194 1404 A0A5      		ldd r26,Z+40
 4195 1406 B1A5      		ldd r27,Z+41
 4196 1408 281B      		sub r18,r24
 4197 140a 390B      		sbc r19,r25
 4198 140c 4A0B      		sbc r20,r26
 4199 140e 5B0B      		sbc r21,r27
 4200 1410 57FF      		sbrs r21,7
 4201 1412 00C0      		rjmp .L205
 4202 1414 20E0      		ldi r18,lo8(0)
 4203 1416 30E0      		ldi r19,hi8(0)
 4204 1418 40E0      		ldi r20,hlo8(0)
 4205 141a 50E0      		ldi r21,hhi8(0)
 4206               	.L205:
 4207               	.LM410:
 4208 141c B901      		movw r22,r18
 4209               	.LVL227:
 4210 141e CA01      		movw r24,r20
 4211               	/* epilogue start */
 4212 1420 0895      		ret
 4213               	.LFE72:
 4215               	.global	Timebase_DownCounter_SS_Period_Value_Expired
 4217               	Timebase_DownCounter_SS_Period_Value_Expired:
 4218               	.LFB73:
 4219               	.LM411:
 4220               	.LVL228:
 4221 1422 CF93      		push r28
 4222 1424 DF93      		push r29
 4223               	/* prologue: function */
 4224               	/* frame size = 0 */
 4225               	.LBB576:
 4226               	.LBB577:
 4227               	.LBB578:
 4228               	.LBB579:
 4229               	.LM412:
 4230 1426 C091 0000 		lds r28,Timebase
 4231 142a D091 0000 		lds r29,(Timebase)+1
 4232 142e 682F      		mov r22,r24
 4233 1430 70E0      		ldi r23,lo8(0)
 4234               	.LBE579:
 4235               	.LBE578:
 4236               	.LM413:
 4237 1432 FB01      		movw r30,r22
 4238 1434 44E0      		ldi r20,4
 4239 1436 EE0F      	1:	lsl r30
 4240 1438 FF1F      		rol r31
 4241 143a 4A95      		dec r20
 4242 143c 01F4      		brne 1b
 4243 143e E60F      		add r30,r22
 4244 1440 F71F      		adc r31,r23
 4245 1442 EC0F      		add r30,r28
 4246 1444 FD1F      		adc r31,r29
 4247 1446 22A1      		ldd r18,Z+34
 4248 1448 33A1      		ldd r19,Z+35
 4249 144a 44A1      		ldd r20,Z+36
 4250 144c 55A1      		ldd r21,Z+37
 4251               	.LVL229:
 4252 144e 86A1      		ldd r24,Z+38
 4253 1450 97A1      		ldd r25,Z+39
 4254 1452 A0A5      		ldd r26,Z+40
 4255 1454 B1A5      		ldd r27,Z+41
 4256               	.LVL230:
 4257 1456 281B      		sub r18,r24
 4258 1458 390B      		sbc r19,r25
 4259 145a 4A0B      		sbc r20,r26
 4260 145c 5B0B      		sbc r21,r27
 4261               	.LM414:
 4262 145e 57FD      		sbrc r21,7
 4263 1460 00C0      		rjmp .L208
 4264               	.LBE577:
 4265               	.LBE576:
 4266               	.LM415:
 4267 1462 2115      		cp r18,__zero_reg__
 4268 1464 3105      		cpc r19,__zero_reg__
 4269 1466 4105      		cpc r20,__zero_reg__
 4270 1468 5105      		cpc r21,__zero_reg__
 4271 146a 01F0      		breq .L208
 4272 146c 20E0      		ldi r18,lo8(0)
 4273               	.LVL231:
 4274 146e 00C0      		rjmp .L209
 4275               	.LVL232:
 4276               	.L208:
 4277 1470 20E0      		ldi r18,lo8(0)
 4278               	.LVL233:
 4279 1472 CB01      		movw r24,r22
 4280 1474 34E0      		ldi r19,4
 4281 1476 880F      	1:	lsl r24
 4282 1478 991F      		rol r25
 4283 147a 3A95      		dec r19
 4284 147c 01F4      		brne 1b
 4285 147e 860F      		add r24,r22
 4286 1480 971F      		adc r25,r23
 4287 1482 C80F      		add r28,r24
 4288 1484 D91F      		adc r29,r25
 4289 1486 898D      		ldd r24,Y+25
 4290 1488 80FF      		sbrs r24,0
 4291 148a 21E0      		ldi r18,lo8(1)
 4292               	.L210:
 4293 148c 81E0      		ldi r24,lo8(1)
 4294 148e 2827      		eor r18,r24
 4295               	.L209:
 4296               	.LM416:
 4297 1490 822F      		mov r24,r18
 4298               	/* epilogue start */
 4299 1492 DF91      		pop r29
 4300 1494 CF91      		pop r28
 4301 1496 0895      		ret
 4302               	.LFE73:
 4304               	.global	Timebase_DownCounter_SS_Period_Value_Expired_Event
 4306               	Timebase_DownCounter_SS_Period_Value_Expired_Event:
 4307               	.LFB74:
 4308               	.LM417:
 4309               	.LVL234:
 4310 1498 1F93      		push r17
 4311               	/* prologue: function */
 4312               	/* frame size = 0 */
 4313 149a 182F      		mov r17,r24
 4314               	.LM418:
 4315 149c 0E94 0000 		call Timebase_DownCounter_SS_Period_Value_Expired
 4316               	.LVL235:
 4317 14a0 8130      		cpi r24,lo8(1)
 4318 14a2 01F0      		breq .L213
 4319 14a4 80E0      		ldi r24,lo8(0)
 4320 14a6 00C0      		rjmp .L214
 4321               	.L213:
 4322               	.LBB580:
 4323               	.LBB581:
 4324               	.LM419:
 4325 14a8 E091 0000 		lds r30,Timebase
 4326 14ac F091 0000 		lds r31,(Timebase)+1
 4327 14b0 212F      		mov r18,r17
 4328 14b2 30E0      		ldi r19,lo8(0)
 4329               	.LVL236:
 4330 14b4 C901      		movw r24,r18
 4331 14b6 54E0      		ldi r21,4
 4332 14b8 880F      	1:	lsl r24
 4333 14ba 991F      		rol r25
 4334 14bc 5A95      		dec r21
 4335 14be 01F4      		brne 1b
 4336 14c0 820F      		add r24,r18
 4337 14c2 931F      		adc r25,r19
 4338 14c4 E80F      		add r30,r24
 4339 14c6 F91F      		adc r31,r25
 4340 14c8 818D      		ldd r24,Z+25
 4341 14ca 8E7F      		andi r24,lo8(-2)
 4342 14cc 818F      		std Z+25,r24
 4343 14ce 81E0      		ldi r24,lo8(1)
 4344               	.L214:
 4345               	/* epilogue start */
 4346               	.LBE581:
 4347               	.LBE580:
 4348               	.LM420:
 4349 14d0 1F91      		pop r17
 4350               	.LVL237:
 4351 14d2 0895      		ret
 4352               	.LFE74:
 4354               	.global	Timebase_DownCounter_SS_Update_All
 4356               	Timebase_DownCounter_SS_Update_All:
 4357               	.LFB75:
 4358               	.LM421:
 4359 14d4 1F93      		push r17
 4360               	/* prologue: function */
 4361               	/* frame size = 0 */
 4362               	.LM422:
 4363 14d6 10E0      		ldi r17,lo8(0)
 4364               	.LVL238:
 4365               	.L217:
 4366               	.LBB582:
 4367               	.LM423:
 4368 14d8 812F      		mov r24,r17
 4369 14da 0E94 0000 		call Timebase_DownCounter_SS_Update
 4370               	.LM424:
 4371 14de 1F5F      		subi r17,lo8(-(1))
 4372 14e0 1530      		cpi r17,lo8(5)
 4373 14e2 01F4      		brne .L217
 4374               	/* epilogue start */
 4375               	.LBE582:
 4376               	.LM425:
 4377 14e4 1F91      		pop r17
 4378               	.LVL239:
 4379 14e6 0895      		ret
 4380               	.LFE75:
 4382               	.global	Timebase_DownCounter_SS_Reset_All
 4384               	Timebase_DownCounter_SS_Reset_All:
 4385               	.LFB76:
 4386               	.LM426:
 4387               	/* prologue: function */
 4388               	/* frame size = 0 */
 4389               	.LBB583:
 4390               	.LBB584:
 4391               	.LBB585:
 4392               	.LBB586:
 4393               	.LBB587:
 4394               	.LM427:
 4395 14e8 4091 0000 		lds r20,Timebase
 4396 14ec 5091 0000 		lds r21,(Timebase)+1
 4397 14f0 DA01      		movw r26,r20
 4398 14f2 5A96      		adiw r26,26
 4399 14f4 20E0      		ldi r18,lo8(0)
 4400 14f6 30E0      		ldi r19,hi8(0)
 4401               	.L221:
 4402 14f8 1496      		adiw r26,4
 4403 14fa 1D92      		st X+,__zero_reg__
 4404 14fc 1D92      		st X+,__zero_reg__
 4405 14fe 1D92      		st X+,__zero_reg__
 4406 1500 1C92      		st X,__zero_reg__
 4407 1502 1797      		sbiw r26,4+3
 4408               	.LBE587:
 4409               	.LBE586:
 4410               	.LBB588:
 4411               	.LBB589:
 4412               	.LM428:
 4413 1504 1D92      		st X+,__zero_reg__
 4414 1506 1D92      		st X+,__zero_reg__
 4415 1508 1D92      		st X+,__zero_reg__
 4416 150a 1C92      		st X,__zero_reg__
 4417 150c 1397      		sbiw r26,3
 4418               	.LBE589:
 4419               	.LBE588:
 4420               	.LBB590:
 4421               	.LBB591:
 4422               	.LM429:
 4423 150e 1896      		adiw r26,8
 4424 1510 1D92      		st X+,__zero_reg__
 4425 1512 1D92      		st X+,__zero_reg__
 4426 1514 1D92      		st X+,__zero_reg__
 4427 1516 1C92      		st X,__zero_reg__
 4428 1518 1B97      		sbiw r26,8+3
 4429               	.LBE591:
 4430               	.LBE590:
 4431               	.LBB592:
 4432               	.LBB593:
 4433               	.LM430:
 4434 151a F901      		movw r30,r18
 4435 151c 64E0      		ldi r22,4
 4436 151e EE0F      	1:	lsl r30
 4437 1520 FF1F      		rol r31
 4438 1522 6A95      		dec r22
 4439 1524 01F4      		brne 1b
 4440 1526 E20F      		add r30,r18
 4441 1528 F31F      		adc r31,r19
 4442 152a E40F      		add r30,r20
 4443 152c F51F      		adc r31,r21
 4444 152e 818D      		ldd r24,Z+25
 4445               	.LBE593:
 4446               	.LBE592:
 4447               	.LBB594:
 4448               	.LBB595:
 4449               	.LM431:
 4450 1530 807E      		andi r24,lo8(-32)
 4451 1532 818F      		std Z+25,r24
 4452 1534 2F5F      		subi r18,lo8(-(1))
 4453 1536 3F4F      		sbci r19,hi8(-(1))
 4454 1538 5196      		adiw r26,17
 4455               	.LBE595:
 4456               	.LBE594:
 4457               	.LBE585:
 4458               	.LBE584:
 4459               	.LM432:
 4460 153a 2530      		cpi r18,5
 4461 153c 3105      		cpc r19,__zero_reg__
 4462 153e 01F4      		brne .L221
 4463               	/* epilogue start */
 4464               	.LBE583:
 4465               	.LM433:
 4466 1540 0895      		ret
 4467               	.LFE76:
 4469               	.global	Timebase_Reset
 4471               	Timebase_Reset:
 4472               	.LFB77:
 4473               	.LM434:
 4474               	/* prologue: function */
 4475               	/* frame size = 0 */
 4476               	.LM435:
 4477 1542 0E94 0000 		call Timebase_DownCounter_SS_Reset_All
 4478               	.LM436:
 4479 1546 0E94 0000 		call Timebase_DownCounter_Reset_All
 4480               	/* epilogue start */
 4481               	.LM437:
 4482 154a 0895      		ret
 4483               	.LFE77:
 4485               	.global	Timebase_Init
 4487               	Timebase_Init:
 4488               	.LFB78:
 4489               	.LM438:
 4490               	.LVL240:
 4491 154c 0F93      		push r16
 4492 154e 1F93      		push r17
 4493               	/* prologue: function */
 4494               	/* frame size = 0 */
 4495 1550 8C01      		movw r16,r24
 4496               	.LM439:
 4497 1552 0E94 0000 		call Timebase_Struct_Init
 4498               	.LVL241:
 4499               	.LM440:
 4500 1556 C801      		movw r24,r16
 4501 1558 0E94 0000 		call Timebase_Timer_Config
 4502               	.LM441:
 4503 155c 0E94 0000 		call Timebase_Reset
 4504               	/* epilogue start */
 4505               	.LM442:
 4506 1560 1F91      		pop r17
 4507 1562 0F91      		pop r16
 4508               	.LVL242:
 4509 1564 0895      		ret
 4510               	.LFE78:
 4512               	.global	Timebase_Main_Loop_Executables
 4514               	Timebase_Main_Loop_Executables:
 4515               	.LFB79:
 4516               	.LM443:
 4517               	/* prologue: function */
 4518               	/* frame size = 0 */
 4519               	.LM444:
 4520 1566 E091 0000 		lds r30,Timebase
 4521 156a F091 0000 		lds r31,(Timebase)+1
 4522 156e 8789      		ldd r24,Z+23
 4523 1570 83FF      		sbrs r24,3
 4524 1572 00C0      		rjmp .L229
 4525               	.LM445:
 4526 1574 0E94 0000 		call Timebase_DownCounter_SS_Update_All
 4527               	.LM446:
 4528 1578 E091 0000 		lds r30,Timebase
 4529 157c F091 0000 		lds r31,(Timebase)+1
 4530 1580 8789      		ldd r24,Z+23
 4531 1582 877F      		andi r24,lo8(-9)
 4532 1584 878B      		std Z+23,r24
 4533               	.L229:
 4534               	.LM447:
 4535 1586 E091 0000 		lds r30,Timebase
 4536 158a F091 0000 		lds r31,(Timebase)+1
 4537 158e 8789      		ldd r24,Z+23
 4538 1590 81FF      		sbrs r24,1
 4539 1592 00C0      		rjmp .L231
 4540               	.LM448:
 4541 1594 0E94 0000 		call Timebase_DownCounter_Update_All
 4542               	.LM449:
 4543 1598 E091 0000 		lds r30,Timebase
 4544 159c F091 0000 		lds r31,(Timebase)+1
 4545 15a0 8789      		ldd r24,Z+23
 4546 15a2 8D7F      		andi r24,lo8(-3)
 4547 15a4 878B      		std Z+23,r24
 4548               	.L231:
 4549 15a6 0895      		ret
 4550               	.LFE79:
 4552               	.global	Timebase_ISR_Executables
 4554               	Timebase_ISR_Executables:
 4555               	.LFB80:
 4556               	.LM450:
 4557               	/* prologue: function */
 4558               	/* frame size = 0 */
 4559               	.LM451:
 4560 15a8 E091 0000 		lds r30,Timebase
 4561 15ac F091 0000 		lds r31,(Timebase)+1
 4562 15b0 8085      		ldd r24,Z+8
 4563 15b2 9185      		ldd r25,Z+9
 4564 15b4 0196      		adiw r24,1
 4565 15b6 9187      		std Z+9,r25
 4566 15b8 8087      		std Z+8,r24
 4567               	.LM452:
 4568 15ba 8381      		ldd r24,Z+3
 4569 15bc 86BD      		out 70-32,r24
 4570               	.LM453:
 4571 15be 8789      		ldd r24,Z+23
 4572 15c0 8860      		ori r24,lo8(8)
 4573 15c2 878B      		std Z+23,r24
 4574               	.LM454:
 4575 15c4 8085      		ldd r24,Z+8
 4576 15c6 9185      		ldd r25,Z+9
 4577 15c8 6181      		ldd r22,Z+1
 4578 15ca 7281      		ldd r23,Z+2
 4579 15cc 0E94 0000 		call __udivmodhi4
 4580 15d0 892B      		or r24,r25
 4581 15d2 01F4      		brne .L234
 4582               	.LM455:
 4583 15d4 8285      		ldd r24,Z+10
 4584 15d6 9385      		ldd r25,Z+11
 4585 15d8 A485      		ldd r26,Z+12
 4586 15da B585      		ldd r27,Z+13
 4587 15dc 0196      		adiw r24,1
 4588 15de A11D      		adc r26,__zero_reg__
 4589 15e0 B11D      		adc r27,__zero_reg__
 4590 15e2 8287      		std Z+10,r24
 4591 15e4 9387      		std Z+11,r25
 4592 15e6 A487      		std Z+12,r26
 4593 15e8 B587      		std Z+13,r27
 4594               	.LM456:
 4595 15ea 1186      		std Z+9,__zero_reg__
 4596 15ec 1086      		std Z+8,__zero_reg__
 4597               	.LM457:
 4598 15ee 8789      		ldd r24,Z+23
 4599 15f0 8260      		ori r24,lo8(2)
 4600 15f2 878B      		std Z+23,r24
 4601               	.L234:
 4602 15f4 0895      		ret
 4603               	.LFE80:
 4605               	.global	__vector_16
 4607               	__vector_16:
 4608               	.LFB81:
 4609               	.LM458:
 4610 15f6 1F92      		push __zero_reg__
 4611 15f8 0F92      		push r0
 4612 15fa 0FB6      		in r0,__SREG__
 4613 15fc 0F92      		push r0
 4614 15fe 1124      		clr __zero_reg__
 4615 1600 2F93      		push r18
 4616 1602 3F93      		push r19
 4617 1604 4F93      		push r20
 4618 1606 5F93      		push r21
 4619 1608 6F93      		push r22
 4620 160a 7F93      		push r23
 4621 160c 8F93      		push r24
 4622 160e 9F93      		push r25
 4623 1610 AF93      		push r26
 4624 1612 BF93      		push r27
 4625 1614 EF93      		push r30
 4626 1616 FF93      		push r31
 4627               	/* prologue: Signal */
 4628               	/* frame size = 0 */
 4629               	.LM459:
 4630 1618 0E94 0000 		call Timebase_ISR_Executables
 4631               	/* epilogue start */
 4632               	.LM460:
 4633 161c FF91      		pop r31
 4634 161e EF91      		pop r30
 4635 1620 BF91      		pop r27
 4636 1622 AF91      		pop r26
 4637 1624 9F91      		pop r25
 4638 1626 8F91      		pop r24
 4639 1628 7F91      		pop r23
 4640 162a 6F91      		pop r22
 4641 162c 5F91      		pop r21
 4642 162e 4F91      		pop r20
 4643 1630 3F91      		pop r19
 4644 1632 2F91      		pop r18
 4645 1634 0F90      		pop r0
 4646 1636 0FBE      		out __SREG__,r0
 4647 1638 0F90      		pop r0
 4648 163a 1F90      		pop __zero_reg__
 4649 163c 1895      		reti
 4650               	.LFE81:
 4652               		.data
 4653               	.LC0:
 4654 0000 5320 00   		.string	"S "
 4655               	.LC1:
 4656 0003 2C20 00   		.string	", "
 4657               	.LC2:
 4658 0006 5353 2000 		.string	"SS "
 4659               		.text
 4660               	.global	Timebase_Timer_Delay_SubSeconds
 4662               	Timebase_Timer_Delay_SubSeconds:
 4663               	.LFB16:
 4664               	.LM461:
 4665               	.LVL243:
 4666 163e 6F92      		push r6
 4667 1640 7F92      		push r7
 4668 1642 8F92      		push r8
 4669 1644 9F92      		push r9
 4670 1646 AF92      		push r10
 4671 1648 BF92      		push r11
 4672 164a CF92      		push r12
 4673 164c DF92      		push r13
 4674 164e EF92      		push r14
 4675 1650 FF92      		push r15
 4676 1652 0F93      		push r16
 4677 1654 1F93      		push r17
 4678 1656 CF93      		push r28
 4679 1658 DF93      		push r29
 4680               	/* prologue: function */
 4681               	/* frame size = 0 */
 4682 165a 5C01      		movw r10,r24
 4683               	.LM462:
 4684 165c 80E0      		ldi r24,lo8(.LC0)
 4685 165e 90E0      		ldi r25,hi8(.LC0)
 4686               	.LVL244:
 4687 1660 0E94 0000 		call UART_Transmit_Text
 4688               	.LBB596:
 4689               	.LBB597:
 4690               	.LM463:
 4691 1664 E091 0000 		lds r30,Timebase
 4692 1668 F091 0000 		lds r31,(Timebase)+1
 4693 166c 6285      		ldd r22,Z+10
 4694 166e 7385      		ldd r23,Z+11
 4695 1670 8485      		ldd r24,Z+12
 4696 1672 9585      		ldd r25,Z+13
 4697               	.LBE597:
 4698               	.LBE596:
 4699               	.LM464:
 4700 1674 0E94 0000 		call UART_Transmit_Number
 4701               	.LM465:
 4702 1678 80E0      		ldi r24,lo8(.LC1)
 4703 167a 90E0      		ldi r25,hi8(.LC1)
 4704 167c 0E94 0000 		call UART_Transmit_Text
 4705               	.LM466:
 4706 1680 80E0      		ldi r24,lo8(.LC2)
 4707 1682 90E0      		ldi r25,hi8(.LC2)
 4708 1684 0E94 0000 		call UART_Transmit_Text
 4709               	.LBB598:
 4710               	.LBB599:
 4711               	.LM467:
 4712 1688 E091 0000 		lds r30,Timebase
 4713 168c F091 0000 		lds r31,(Timebase)+1
 4714 1690 6085      		ldd r22,Z+8
 4715 1692 7185      		ldd r23,Z+9
 4716               	.LBE599:
 4717               	.LBE598:
 4718               	.LM468:
 4719 1694 80E0      		ldi r24,lo8(0)
 4720 1696 90E0      		ldi r25,hi8(0)
 4721 1698 0E94 0000 		call UART_Transmit_Number
 4722               	.LM469:
 4723 169c 0E94 0000 		call UART_Transmit_New_Line
 4724               	.LBB600:
 4725               	.LBB601:
 4726               	.LM470:
 4727 16a0 C091 0000 		lds r28,Timebase
 4728 16a4 D091 0000 		lds r29,(Timebase)+1
 4729 16a8 E884      		ldd r14,Y+8
 4730 16aa F984      		ldd r15,Y+9
 4731               	.LBE601:
 4732               	.LBE600:
 4733               	.LBB602:
 4734               	.LBB603:
 4735               	.LM471:
 4736 16ac 2A85      		ldd r18,Y+10
 4737 16ae 3B85      		ldd r19,Y+11
 4738 16b0 4C85      		ldd r20,Y+12
 4739 16b2 5D85      		ldd r21,Y+13
 4740               	.LVL245:
 4741               	.LBE603:
 4742               	.LBE602:
 4743               	.LM472:
 4744 16b4 6981      		ldd r22,Y+1
 4745 16b6 7A81      		ldd r23,Y+2
 4746 16b8 80E0      		ldi r24,lo8(0)
 4747 16ba 90E0      		ldi r25,hi8(0)
 4748 16bc 0E94 0000 		call __mulsi3
 4749               	.LVL246:
 4750 16c0 3B01      		movw r6,r22
 4751 16c2 4C01      		movw r8,r24
 4752               	.LVL247:
 4753               	.LM473:
 4754 16c4 00E0      		ldi r16,lo8(0)
 4755 16c6 10E0      		ldi r17,hi8(0)
 4756 16c8 6E0C      		add r6,r14
 4757 16ca 7F1C      		adc r7,r15
 4758 16cc 801E      		adc r8,r16
 4759 16ce 911E      		adc r9,r17
 4760               	.LM474:
 4761 16d0 CC24      		clr r12
 4762 16d2 DD24      		clr r13
 4763               	.LVL248:
 4764 16d4 6A0C      		add r6,r10
 4765 16d6 7B1C      		adc r7,r11
 4766 16d8 8C1C      		adc r8,r12
 4767 16da 9D1C      		adc r9,r13
 4768 16dc 60E0      		ldi r22,lo8(0)
 4769 16de 70E0      		ldi r23,hi8(0)
 4770 16e0 80E0      		ldi r24,hlo8(0)
 4771 16e2 90E0      		ldi r25,hhi8(0)
 4772               	.LVL249:
 4773 16e4 00C0      		rjmp .L238
 4774               	.L239:
 4775               	.LBB604:
 4776               	.LBB605:
 4777               	.LM475:
 4778 16e6 E884      		ldd r14,Y+8
 4779 16e8 F984      		ldd r15,Y+9
 4780               	.LBE605:
 4781               	.LBE604:
 4782               	.LBB606:
 4783               	.LBB607:
 4784               	.LM476:
 4785 16ea 2A85      		ldd r18,Y+10
 4786 16ec 3B85      		ldd r19,Y+11
 4787 16ee 4C85      		ldd r20,Y+12
 4788 16f0 5D85      		ldd r21,Y+13
 4789               	.LVL250:
 4790               	.LBE607:
 4791               	.LBE606:
 4792               	.LM477:
 4793 16f2 6981      		ldd r22,Y+1
 4794 16f4 7A81      		ldd r23,Y+2
 4795               	.LVL251:
 4796 16f6 80E0      		ldi r24,lo8(0)
 4797 16f8 90E0      		ldi r25,hi8(0)
 4798 16fa 0E94 0000 		call __mulsi3
 4799               	.LVL252:
 4800               	.LM478:
 4801 16fe 00E0      		ldi r16,lo8(0)
 4802 1700 10E0      		ldi r17,hi8(0)
 4803 1702 6E0D      		add r22,r14
 4804 1704 7F1D      		adc r23,r15
 4805 1706 801F      		adc r24,r16
 4806 1708 911F      		adc r25,r17
 4807               	.LVL253:
 4808               	.L238:
 4809               	.LM479:
 4810 170a 6615      		cp r22,r6
 4811 170c 7705      		cpc r23,r7
 4812 170e 8805      		cpc r24,r8
 4813 1710 9905      		cpc r25,r9
 4814 1712 04F0      		brlt .L239
 4815               	/* epilogue start */
 4816               	.LM480:
 4817 1714 DF91      		pop r29
 4818 1716 CF91      		pop r28
 4819 1718 1F91      		pop r17
 4820 171a 0F91      		pop r16
 4821 171c FF90      		pop r15
 4822 171e EF90      		pop r14
 4823 1720 DF90      		pop r13
 4824 1722 CF90      		pop r12
 4825               	.LVL254:
 4826 1724 BF90      		pop r11
 4827 1726 AF90      		pop r10
 4828               	.LVL255:
 4829 1728 9F90      		pop r9
 4830 172a 8F90      		pop r8
 4831 172c 7F90      		pop r7
 4832 172e 6F90      		pop r6
 4833               	.LVL256:
 4834 1730 0895      		ret
 4835               	.LFE16:
 4837               		.data
 4840               	C.2.1632:
 4841 000a 0100      		.word	1
 4842 000c 0800      		.word	8
 4843 000e 4000      		.word	64
 4844 0010 0001      		.word	256
 4845 0012 0004      		.word	1024
 4846               		.comm Timebase_type,175,1
 4847               		.comm Timebase,2,1
 5472               	.Letext0:
DEFINED SYMBOLS
                            *ABS*:00000000 timebase.c
C:\Users\WALTON\AppData\Local\Temp/cc4ryqBV.s:2      *ABS*:0000003f __SREG__
C:\Users\WALTON\AppData\Local\Temp/cc4ryqBV.s:3      *ABS*:0000003e __SP_H__
C:\Users\WALTON\AppData\Local\Temp/cc4ryqBV.s:4      *ABS*:0000003d __SP_L__
C:\Users\WALTON\AppData\Local\Temp/cc4ryqBV.s:5      *ABS*:00000034 __CCP__
C:\Users\WALTON\AppData\Local\Temp/cc4ryqBV.s:6      *ABS*:00000000 __tmp_reg__
C:\Users\WALTON\AppData\Local\Temp/cc4ryqBV.s:7      *ABS*:00000001 __zero_reg__
C:\Users\WALTON\AppData\Local\Temp/cc4ryqBV.s:18     .text:00000000 Timebase_Struct_Init
                            *COM*:000000af Timebase_type
                            *COM*:00000002 Timebase
C:\Users\WALTON\AppData\Local\Temp/cc4ryqBV.s:179    .text:0000012c Timebase_Timer_Config
C:\Users\WALTON\AppData\Local\Temp/cc4ryqBV.s:4840   .data:0000000a C.2.1632
C:\Users\WALTON\AppData\Local\Temp/cc4ryqBV.s:499    .text:000002c6 Timebase_Token_Executing
C:\Users\WALTON\AppData\Local\Temp/cc4ryqBV.s:515    .text:000002d2 Timebase_Token_Add
C:\Users\WALTON\AppData\Local\Temp/cc4ryqBV.s:541    .text:000002e8 Timebase_Token_Remove
C:\Users\WALTON\AppData\Local\Temp/cc4ryqBV.s:567    .text:000002fe Timebase_Token_Remove_All
C:\Users\WALTON\AppData\Local\Temp/cc4ryqBV.s:583    .text:0000030a Timebase_Timer_Get_SubSeconds
C:\Users\WALTON\AppData\Local\Temp/cc4ryqBV.s:601    .text:0000031a Timebase_Timer_Get_Seconds
C:\Users\WALTON\AppData\Local\Temp/cc4ryqBV.s:622    .text:00000330 Timebase_Timer_Set_SubSeconds
C:\Users\WALTON\AppData\Local\Temp/cc4ryqBV.s:640    .text:0000033e Timebase_Timer_Set_Seconds
C:\Users\WALTON\AppData\Local\Temp/cc4ryqBV.s:660    .text:00000350 Timebase_Timer_Await_SubSeconds
C:\Users\WALTON\AppData\Local\Temp/cc4ryqBV.s:743    .text:000003c4 Timebase_Timer_Delay_Seconds
C:\Users\WALTON\AppData\Local\Temp/cc4ryqBV.s:805    .text:00000406 Timebase_Window_Timer_Reset
C:\Users\WALTON\AppData\Local\Temp/cc4ryqBV.s:831    .text:00000422 Timebase_Window_Timer_Start
C:\Users\WALTON\AppData\Local\Temp/cc4ryqBV.s:879    .text:00000456 Timebase_Window_Timer_Get_Interval
C:\Users\WALTON\AppData\Local\Temp/cc4ryqBV.s:977    .text:000004d0 Timebase_Window_Timer_Get_Interval_Reset
C:\Users\WALTON\AppData\Local\Temp/cc4ryqBV.s:1017   .text:000004fa Timebase_DownCounter_Get_Status
C:\Users\WALTON\AppData\Local\Temp/cc4ryqBV.s:1053   .text:00000528 Timebase_DownCounter_Set_Status
C:\Users\WALTON\AppData\Local\Temp/cc4ryqBV.s:1093   .text:0000055c Timebase_DownCounter_Get_Value
C:\Users\WALTON\AppData\Local\Temp/cc4ryqBV.s:1131   .text:0000058c Timebase_DownCounter_Set_Value
C:\Users\WALTON\AppData\Local\Temp/cc4ryqBV.s:1168   .text:000005bc Timebase_DownCounter_Get_EndValue
C:\Users\WALTON\AppData\Local\Temp/cc4ryqBV.s:1206   .text:000005ec Timebase_DownCounter_Set_EndValue
C:\Users\WALTON\AppData\Local\Temp/cc4ryqBV.s:1243   .text:0000061c Timebase_DownCounter_Get_PeriodValue
C:\Users\WALTON\AppData\Local\Temp/cc4ryqBV.s:1281   .text:0000064c Timebase_DownCounter_Set_PeriodValue
C:\Users\WALTON\AppData\Local\Temp/cc4ryqBV.s:1343   .text:000006a8 Timebase_DownCounter_Get_Period_Flag
C:\Users\WALTON\AppData\Local\Temp/cc4ryqBV.s:1378   .text:000006d4 Timebase_DownCounter_Set_Period_Flag
C:\Users\WALTON\AppData\Local\Temp/cc4ryqBV.s:1414   .text:00000702 Timebase_DownCounter_Clear_Period_Flag
C:\Users\WALTON\AppData\Local\Temp/cc4ryqBV.s:1450   .text:00000730 Timebase_DownCounter_Reset
C:\Users\WALTON\AppData\Local\Temp/cc4ryqBV.s:1513   .text:00000770 Timebase_DownCounter_Clear_All_Flags
C:\Users\WALTON\AppData\Local\Temp/cc4ryqBV.s:1580   .text:000007b0 Timebase_DownCounter_Start
C:\Users\WALTON\AppData\Local\Temp/cc4ryqBV.s:1630   .text:000007ea Timebase_DownCounter_Stop
C:\Users\WALTON\AppData\Local\Temp/cc4ryqBV.s:1680   .text:00000824 Timebase_DownCounter_Set_Securely
C:\Users\WALTON\AppData\Local\Temp/cc4ryqBV.s:1780   .text:00000896 Timebase_DownCounter_Set_Forcefully
C:\Users\WALTON\AppData\Local\Temp/cc4ryqBV.s:1854   .text:000008e4 Timebase_DownCounter_Update
C:\Users\WALTON\AppData\Local\Temp/cc4ryqBV.s:2021   .text:000009ae Timebase_DownCounter_Expired
C:\Users\WALTON\AppData\Local\Temp/cc4ryqBV.s:2063   .text:000009e6 Timebase_DownCounter_Expired_Event
C:\Users\WALTON\AppData\Local\Temp/cc4ryqBV.s:2150   .text:00000a3a Timebase_DownCounter_Set_Period_Value_Securely
C:\Users\WALTON\AppData\Local\Temp/cc4ryqBV.s:2249   .text:00000abe Timebase_DownCounter_Get_Remaining_Period_Value
C:\Users\WALTON\AppData\Local\Temp/cc4ryqBV.s:2313   .text:00000b16 Timebase_DownCounter_Period_Value_Expired
C:\Users\WALTON\AppData\Local\Temp/cc4ryqBV.s:2413   .text:00000ba2 Timebase_DownCounter_Period_Value_Expired_Event
C:\Users\WALTON\AppData\Local\Temp/cc4ryqBV.s:2467   .text:00000be6 Timebase_DownCounter_Update_All
C:\Users\WALTON\AppData\Local\Temp/cc4ryqBV.s:2495   .text:00000bfa Timebase_DownCounter_Reset_All
C:\Users\WALTON\AppData\Local\Temp/cc4ryqBV.s:2585   .text:00000c50 Timebase_DownCounter_SS_Get_Status
C:\Users\WALTON\AppData\Local\Temp/cc4ryqBV.s:2617   .text:00000c76 Timebase_DownCounter_SS_Set_Status
C:\Users\WALTON\AppData\Local\Temp/cc4ryqBV.s:2653   .text:00000ca2 Timebase_DownCounter_SS_Get_Value
C:\Users\WALTON\AppData\Local\Temp/cc4ryqBV.s:2694   .text:00000cd8 Timebase_DownCounter_SS_Set_Value
C:\Users\WALTON\AppData\Local\Temp/cc4ryqBV.s:2726   .text:00000d00 Timebase_DownCounter_SS_Get_EndValueSec
C:\Users\WALTON\AppData\Local\Temp/cc4ryqBV.s:2767   .text:00000d36 Timebase_DownCounter_SS_Get_EndValueSubSec
C:\Users\WALTON\AppData\Local\Temp/cc4ryqBV.s:2808   .text:00000d6c Timebase_DownCounter_SS_Set_EndValueSec
C:\Users\WALTON\AppData\Local\Temp/cc4ryqBV.s:2840   .text:00000d94 Timebase_DownCounter_SS_Set_EndValueSubSec
C:\Users\WALTON\AppData\Local\Temp/cc4ryqBV.s:2872   .text:00000dbc Timebase_DownCounter_SS_Get_PeriodValue
C:\Users\WALTON\AppData\Local\Temp/cc4ryqBV.s:2913   .text:00000df2 Timebase_DownCounter_SS_Set_PeriodValue
C:\Users\WALTON\AppData\Local\Temp/cc4ryqBV.s:2966   .text:00000e3e Timebase_DownCounter_SS_Get_Period_Flag
C:\Users\WALTON\AppData\Local\Temp/cc4ryqBV.s:2997   .text:00000e62 Timebase_DownCounter_SS_Set_Period_Flag
C:\Users\WALTON\AppData\Local\Temp/cc4ryqBV.s:3029   .text:00000e88 Timebase_DownCounter_SS_Clear_Period_Flag
C:\Users\WALTON\AppData\Local\Temp/cc4ryqBV.s:3061   .text:00000eae Timebase_DownCounter_SS_Reset
C:\Users\WALTON\AppData\Local\Temp/cc4ryqBV.s:3128   .text:00000eec Timebase_DownCounter_SS_Clear_All_Flags
C:\Users\WALTON\AppData\Local\Temp/cc4ryqBV.s:3199   .text:00000f2a Timebase_DownCounter_SS_Start
C:\Users\WALTON\AppData\Local\Temp/cc4ryqBV.s:3245   .text:00000f5c Timebase_DownCounter_SS_Stop
C:\Users\WALTON\AppData\Local\Temp/cc4ryqBV.s:3291   .text:00000f8e Timebase_DownCounter_SS_Set_Securely
C:\Users\WALTON\AppData\Local\Temp/cc4ryqBV.s:3544   .text:000010f8 Timebase_DownCounter_SS_Set_Forcefully
C:\Users\WALTON\AppData\Local\Temp/cc4ryqBV.s:3618   .text:0000113c Timebase_DownCounter_SS_Update
C:\Users\WALTON\AppData\Local\Temp/cc4ryqBV.s:3945   .text:000012ec Timebase_DownCounter_SS_Expired
C:\Users\WALTON\AppData\Local\Temp/cc4ryqBV.s:3983   .text:0000131c Timebase_DownCounter_SS_Expired_Event
C:\Users\WALTON\AppData\Local\Temp/cc4ryqBV.s:4072   .text:0000136a Timebase_DownCounter_SS_Set_Period_Value_Securely
C:\Users\WALTON\AppData\Local\Temp/cc4ryqBV.s:4161   .text:000013da Timebase_DownCounter_SS_Get_Remaining_Period_Value
C:\Users\WALTON\AppData\Local\Temp/cc4ryqBV.s:4217   .text:00001422 Timebase_DownCounter_SS_Period_Value_Expired
C:\Users\WALTON\AppData\Local\Temp/cc4ryqBV.s:4306   .text:00001498 Timebase_DownCounter_SS_Period_Value_Expired_Event
C:\Users\WALTON\AppData\Local\Temp/cc4ryqBV.s:4356   .text:000014d4 Timebase_DownCounter_SS_Update_All
C:\Users\WALTON\AppData\Local\Temp/cc4ryqBV.s:4384   .text:000014e8 Timebase_DownCounter_SS_Reset_All
C:\Users\WALTON\AppData\Local\Temp/cc4ryqBV.s:4471   .text:00001542 Timebase_Reset
C:\Users\WALTON\AppData\Local\Temp/cc4ryqBV.s:4487   .text:0000154c Timebase_Init
C:\Users\WALTON\AppData\Local\Temp/cc4ryqBV.s:4514   .text:00001566 Timebase_Main_Loop_Executables
C:\Users\WALTON\AppData\Local\Temp/cc4ryqBV.s:4554   .text:000015a8 Timebase_ISR_Executables
C:\Users\WALTON\AppData\Local\Temp/cc4ryqBV.s:4607   .text:000015f6 __vector_16
C:\Users\WALTON\AppData\Local\Temp/cc4ryqBV.s:4662   .text:0000163e Timebase_Timer_Delay_SubSeconds

UNDEFINED SYMBOLS
__divmodsi4
__mulsi3
__udivmodhi4
UART_Transmit_Text
UART_Transmit_Number
UART_Transmit_New_Line
__do_copy_data
__do_clear_bss
