   1               		.file	"timebase.c"
   2               	__SREG__ = 0x3f
   3               	__SP_H__ = 0x3e
   4               	__SP_L__ = 0x3d
   5               	__CCP__  = 0x34
   6               	__tmp_reg__ = 0
   7               	__zero_reg__ = 1
  15               	.Ltext0:
  16               	.global	Timebase_Struct_Init
  18               	Timebase_Struct_Init:
  19               	.LFB6:
  20               	.LM1:
  21               	/* prologue: function */
  22               	/* frame size = 0 */
  23               	.LM2:
  24 0000 80E0      		ldi r24,lo8(Timebase_type)
  25 0002 90E0      		ldi r25,hi8(Timebase_type)
  26 0004 9093 0000 		sts (Timebase)+1,r25
  27 0008 8093 0000 		sts Timebase,r24
  28               	.LM3:
  29 000c 1092 0000 		sts Timebase_type,__zero_reg__
  30               	.LM4:
  31 0010 8091 0000 		lds r24,Timebase_type
  32 0014 8460      		ori r24,lo8(4)
  33 0016 8093 0000 		sts Timebase_type,r24
  34               	.LM5:
  35 001a 8091 0000 		lds r24,Timebase_type
  36 001e 8770      		andi r24,lo8(7)
  37 0020 8093 0000 		sts Timebase_type,r24
  38               	.LM6:
  39 0024 81E0      		ldi r24,lo8(1)
  40 0026 90E0      		ldi r25,hi8(1)
  41 0028 9093 0000 		sts (Timebase_type+1)+1,r25
  42 002c 8093 0000 		sts Timebase_type+1,r24
  43               	.LM7:
  44 0030 1092 0000 		sts Timebase_type+3,__zero_reg__
  45               	.LM8:
  46 0034 1092 0000 		sts (Timebase_type+14)+1,__zero_reg__
  47 0038 1092 0000 		sts Timebase_type+14,__zero_reg__
  48               	.LM9:
  49 003c 1092 0000 		sts Timebase_type+16,__zero_reg__
  50 0040 1092 0000 		sts (Timebase_type+16)+1,__zero_reg__
  51 0044 1092 0000 		sts (Timebase_type+16)+2,__zero_reg__
  52 0048 1092 0000 		sts (Timebase_type+16)+3,__zero_reg__
  53               	.LM10:
  54 004c 1092 0000 		sts (Timebase_type+8)+1,__zero_reg__
  55 0050 1092 0000 		sts Timebase_type+8,__zero_reg__
  56               	.LM11:
  57 0054 1092 0000 		sts Timebase_type+10,__zero_reg__
  58 0058 1092 0000 		sts (Timebase_type+10)+1,__zero_reg__
  59 005c 1092 0000 		sts (Timebase_type+10)+2,__zero_reg__
  60 0060 1092 0000 		sts (Timebase_type+10)+3,__zero_reg__
  61               	.LM12:
  62 0064 1092 0000 		sts Timebase_type+20,__zero_reg__
  63               	.LM13:
  64 0068 1092 0000 		sts Timebase_type+4,__zero_reg__
  65 006c 1092 0000 		sts (Timebase_type+4)+1,__zero_reg__
  66 0070 1092 0000 		sts (Timebase_type+4)+2,__zero_reg__
  67 0074 1092 0000 		sts (Timebase_type+4)+3,__zero_reg__
  68               	.LM14:
  69 0078 1092 0000 		sts Timebase_type+21,__zero_reg__
  70               	.LBB573:
  71               	.LM15:
  72 007c 1092 0000 		sts Timebase_type+47,__zero_reg__
  73               	.LM16:
  74 0080 1092 0000 		sts Timebase_type+48,__zero_reg__
  75 0084 1092 0000 		sts (Timebase_type+48)+1,__zero_reg__
  76 0088 1092 0000 		sts (Timebase_type+48)+2,__zero_reg__
  77 008c 1092 0000 		sts (Timebase_type+48)+3,__zero_reg__
  78               	.LM17:
  79 0090 1092 0000 		sts Timebase_type+52,__zero_reg__
  80 0094 1092 0000 		sts (Timebase_type+52)+1,__zero_reg__
  81 0098 1092 0000 		sts (Timebase_type+52)+2,__zero_reg__
  82 009c 1092 0000 		sts (Timebase_type+52)+3,__zero_reg__
  83               	.LM18:
  84 00a0 1092 0000 		sts Timebase_type+56,__zero_reg__
  85 00a4 1092 0000 		sts (Timebase_type+56)+1,__zero_reg__
  86 00a8 1092 0000 		sts (Timebase_type+56)+2,__zero_reg__
  87 00ac 1092 0000 		sts (Timebase_type+56)+3,__zero_reg__
  88               	.LM19:
  89 00b0 1092 0000 		sts Timebase_type+60,__zero_reg__
  90 00b4 1092 0000 		sts (Timebase_type+60)+1,__zero_reg__
  91 00b8 1092 0000 		sts (Timebase_type+60)+2,__zero_reg__
  92 00bc 1092 0000 		sts (Timebase_type+60)+3,__zero_reg__
  93               	.LM20:
  94 00c0 1092 0000 		sts Timebase_type+64,__zero_reg__
  95 00c4 1092 0000 		sts (Timebase_type+64)+1,__zero_reg__
  96 00c8 1092 0000 		sts (Timebase_type+64)+2,__zero_reg__
  97 00cc 1092 0000 		sts (Timebase_type+64)+3,__zero_reg__
  98               	.LBE573:
  99               	.LBB574:
 100               	.LM21:
 101 00d0 1092 0000 		sts Timebase_type+22,__zero_reg__
 102               	.LM22:
 103 00d4 1092 0000 		sts Timebase_type+23,__zero_reg__
 104 00d8 1092 0000 		sts (Timebase_type+23)+1,__zero_reg__
 105 00dc 1092 0000 		sts (Timebase_type+23)+2,__zero_reg__
 106 00e0 1092 0000 		sts (Timebase_type+23)+3,__zero_reg__
 107               	.LM23:
 108 00e4 1092 0000 		sts Timebase_type+27,__zero_reg__
 109 00e8 1092 0000 		sts (Timebase_type+27)+1,__zero_reg__
 110 00ec 1092 0000 		sts (Timebase_type+27)+2,__zero_reg__
 111 00f0 1092 0000 		sts (Timebase_type+27)+3,__zero_reg__
 112               	.LM24:
 113 00f4 1092 0000 		sts Timebase_type+31,__zero_reg__
 114 00f8 1092 0000 		sts (Timebase_type+31)+1,__zero_reg__
 115 00fc 1092 0000 		sts (Timebase_type+31)+2,__zero_reg__
 116 0100 1092 0000 		sts (Timebase_type+31)+3,__zero_reg__
 117               	.LM25:
 118 0104 1092 0000 		sts Timebase_type+35,__zero_reg__
 119 0108 1092 0000 		sts (Timebase_type+35)+1,__zero_reg__
 120 010c 1092 0000 		sts (Timebase_type+35)+2,__zero_reg__
 121 0110 1092 0000 		sts (Timebase_type+35)+3,__zero_reg__
 122               	.LM26:
 123 0114 1092 0000 		sts Timebase_type+39,__zero_reg__
 124 0118 1092 0000 		sts (Timebase_type+39)+1,__zero_reg__
 125 011c 1092 0000 		sts (Timebase_type+39)+2,__zero_reg__
 126 0120 1092 0000 		sts (Timebase_type+39)+3,__zero_reg__
 127               	.LM27:
 128 0124 1092 0000 		sts Timebase_type+43,__zero_reg__
 129 0128 1092 0000 		sts (Timebase_type+43)+1,__zero_reg__
 130 012c 1092 0000 		sts (Timebase_type+43)+2,__zero_reg__
 131 0130 1092 0000 		sts (Timebase_type+43)+3,__zero_reg__
 132               	.LBE574:
 133               	.LBB575:
 134               	.LM28:
 135 0134 1092 0000 		sts Timebase_type+85,__zero_reg__
 136               	.LM29:
 137 0138 1092 0000 		sts Timebase_type+86,__zero_reg__
 138 013c 1092 0000 		sts (Timebase_type+86)+1,__zero_reg__
 139 0140 1092 0000 		sts (Timebase_type+86)+2,__zero_reg__
 140 0144 1092 0000 		sts (Timebase_type+86)+3,__zero_reg__
 141               	.LM30:
 142 0148 1092 0000 		sts Timebase_type+90,__zero_reg__
 143 014c 1092 0000 		sts (Timebase_type+90)+1,__zero_reg__
 144 0150 1092 0000 		sts (Timebase_type+90)+2,__zero_reg__
 145 0154 1092 0000 		sts (Timebase_type+90)+3,__zero_reg__
 146               	.LM31:
 147 0158 1092 0000 		sts Timebase_type+94,__zero_reg__
 148 015c 1092 0000 		sts (Timebase_type+94)+1,__zero_reg__
 149 0160 1092 0000 		sts (Timebase_type+94)+2,__zero_reg__
 150 0164 1092 0000 		sts (Timebase_type+94)+3,__zero_reg__
 151               	.LBE575:
 152               	.LBB576:
 153               	.LM32:
 154 0168 1092 0000 		sts Timebase_type+68,__zero_reg__
 155               	.LM33:
 156 016c 1092 0000 		sts Timebase_type+69,__zero_reg__
 157 0170 1092 0000 		sts (Timebase_type+69)+1,__zero_reg__
 158 0174 1092 0000 		sts (Timebase_type+69)+2,__zero_reg__
 159 0178 1092 0000 		sts (Timebase_type+69)+3,__zero_reg__
 160               	.LM34:
 161 017c 1092 0000 		sts Timebase_type+73,__zero_reg__
 162 0180 1092 0000 		sts (Timebase_type+73)+1,__zero_reg__
 163 0184 1092 0000 		sts (Timebase_type+73)+2,__zero_reg__
 164 0188 1092 0000 		sts (Timebase_type+73)+3,__zero_reg__
 165               	.LM35:
 166 018c 1092 0000 		sts Timebase_type+77,__zero_reg__
 167 0190 1092 0000 		sts (Timebase_type+77)+1,__zero_reg__
 168 0194 1092 0000 		sts (Timebase_type+77)+2,__zero_reg__
 169 0198 1092 0000 		sts (Timebase_type+77)+3,__zero_reg__
 170               	.LM36:
 171 019c 1092 0000 		sts Timebase_type+81,__zero_reg__
 172 01a0 1092 0000 		sts (Timebase_type+81)+1,__zero_reg__
 173 01a4 1092 0000 		sts (Timebase_type+81)+2,__zero_reg__
 174 01a8 1092 0000 		sts (Timebase_type+81)+3,__zero_reg__
 175               	/* epilogue start */
 176               	.LBE576:
 177               	.LM37:
 178 01ac 0895      		ret
 179               	.LFE6:
 181               	.global	Timebase_Timer_Config
 183               	Timebase_Timer_Config:
 184               	.LFB7:
 185               	.LM38:
 186               	.LVL0:
 187 01ae 7F92      		push r7
 188 01b0 8F92      		push r8
 189 01b2 9F92      		push r9
 190 01b4 AF92      		push r10
 191 01b6 BF92      		push r11
 192 01b8 CF92      		push r12
 193 01ba DF92      		push r13
 194 01bc EF92      		push r14
 195 01be FF92      		push r15
 196 01c0 0F93      		push r16
 197 01c2 1F93      		push r17
 198 01c4 DF93      		push r29
 199 01c6 CF93      		push r28
 200 01c8 CDB7      		in r28,__SP_L__
 201 01ca DEB7      		in r29,__SP_H__
 202 01cc 2A97      		sbiw r28,10
 203 01ce 0FB6      		in __tmp_reg__,__SREG__
 204 01d0 F894      		cli
 205 01d2 DEBF      		out __SP_H__,r29
 206 01d4 0FBE      		out __SREG__,__tmp_reg__
 207 01d6 CDBF      		out __SP_L__,r28
 208               	/* prologue: function */
 209               	/* frame size = 10 */
 210 01d8 8C01      		movw r16,r24
 211               	.LM39:
 212 01da C090 0000 		lds r12,Timebase
 213 01de D090 0000 		lds r13,(Timebase)+1
 214 01e2 F601      		movw r30,r12
 215 01e4 8081      		ld r24,Z
 216               	.LVL1:
 217 01e6 80FF      		sbrs r24,0
 218 01e8 00C0      		rjmp .L4
 219               	.LBB577:
 220               	.LM40:
 221 01ea 0130      		cpi r16,1
 222 01ec 1105      		cpc r17,__zero_reg__
 223 01ee 01F4      		brne .L5
 224 01f0 96E0      		ldi r25,lo8(6)
 225               	.LVL2:
 226 01f2 00C0      		rjmp .L6
 227               	.LVL3:
 228               	.L5:
 229               	.LM41:
 230 01f4 0230      		cpi r16,2
 231 01f6 1105      		cpc r17,__zero_reg__
 232 01f8 01F4      		brne .L7
 233 01fa 95E0      		ldi r25,lo8(5)
 234               	.LVL4:
 235 01fc 00C0      		rjmp .L6
 236               	.LVL5:
 237               	.L7:
 238               	.LM42:
 239 01fe 0430      		cpi r16,4
 240 0200 1105      		cpc r17,__zero_reg__
 241 0202 01F4      		brne .L8
 242 0204 94E0      		ldi r25,lo8(4)
 243               	.LVL6:
 244 0206 00C0      		rjmp .L6
 245               	.LVL7:
 246               	.L8:
 247               	.LM43:
 248 0208 0830      		cpi r16,8
 249 020a 1105      		cpc r17,__zero_reg__
 250 020c 01F4      		brne .L9
 251 020e 93E0      		ldi r25,lo8(3)
 252               	.LVL8:
 253 0210 00C0      		rjmp .L6
 254               	.LVL9:
 255               	.L9:
 256               	.LM44:
 257 0212 0031      		cpi r16,16
 258 0214 1105      		cpc r17,__zero_reg__
 259 0216 01F4      		brne .L10
 260 0218 92E0      		ldi r25,lo8(2)
 261               	.LVL10:
 262 021a 00C0      		rjmp .L6
 263               	.LVL11:
 264               	.L10:
 265 021c 90E0      		ldi r25,lo8(0)
 266               	.LVL12:
 267 021e 0032      		cpi r16,32
 268 0220 1105      		cpc r17,__zero_reg__
 269 0222 01F4      		brne .L6
 270 0224 91E0      		ldi r25,lo8(1)
 271               	.L6:
 272               	.LM45:
 273               	/* #APP */
 274               	 ;  273 "timebase.c" 1
 275 0226 F894      		cli
 276               	 ;  0 "" 2
 277               	.LM46:
 278               	/* #NOAPP */
 279 0228 84B7      		in r24,84-32
 280 022a 877F      		andi r24,lo8(-9)
 281 022c 84BF      		out 84-32,r24
 282               	.LM47:
 283 022e 8091 6000 		lds r24,96
 284 0232 8068      		ori r24,lo8(-128)
 285 0234 8093 6000 		sts 96,r24
 286               	.LM48:
 287 0238 8091 6000 		lds r24,96
 288 023c 8861      		ori r24,lo8(24)
 289 023e 8093 6000 		sts 96,r24
 290               	.LM49:
 291 0242 9064      		ori r25,lo8(64)
 292 0244 9093 6000 		sts 96,r25
 293               	.LM50:
 294               	/* #APP */
 295               	 ;  278 "timebase.c" 1
 296 0248 7894      		sei
 297               	 ;  0 "" 2
 298               	/* #NOAPP */
 299 024a 00C0      		rjmp .L12
 300               	.LVL13:
 301               	.L4:
 302               	.LBE577:
 303               	.LM51:
 304 024c 81FD      		sbrc r24,1
 305 024e 00C0      		rjmp .L12
 306               	.LM52:
 307 0250 82FF      		sbrs r24,2
 308 0252 00C0      		rjmp .L12
 309               	.LBB578:
 310               	.LM53:
 311 0254 DE01      		movw r26,r28
 312 0256 1196      		adiw r26,1
 313 0258 E0E0      		ldi r30,lo8(C.2.1704)
 314 025a F0E0      		ldi r31,hi8(C.2.1704)
 315 025c 8AE0      		ldi r24,lo8(10)
 316               	.L13:
 317 025e 0190      		ld r0,Z+
 318 0260 0D92      		st X+,r0
 319 0262 8150      		subi r24,lo8(-(-1))
 320 0264 01F4      		brne .L13
 321               	.LM54:
 322 0266 9801      		movw r18,r16
 323 0268 40E0      		ldi r20,lo8(0)
 324 026a 50E0      		ldi r21,hi8(0)
 325               	.LVL14:
 326 026c 60E0      		ldi r22,lo8(12000000)
 327 026e 7BE1      		ldi r23,hi8(12000000)
 328 0270 87EB      		ldi r24,hlo8(12000000)
 329 0272 90E0      		ldi r25,hhi8(12000000)
 330 0274 0E94 0000 		call __divmodsi4
 331 0278 722E      		mov r7,r18
 332 027a 832E      		mov r8,r19
 333 027c 942E      		mov r9,r20
 334               	.LVL15:
 335 027e E52E      		mov r14,r21
 336 0280 5E01      		movw r10,r28
 337 0282 0894      		sec
 338 0284 A11C      		adc r10,__zero_reg__
 339 0286 B11C      		adc r11,__zero_reg__
 340 0288 C901      		movw r24,r18
 341 028a DA01      		movw r26,r20
 342 028c 9C01      		movw r18,r24
 343 028e AD01      		movw r20,r26
 344               	.LVL16:
 345 0290 FF24      		clr r15
 346               	.LVL17:
 347 0292 00C0      		rjmp .L14
 348               	.LVL18:
 349               	.L16:
 350               	.LM55:
 351 0294 F501      		movw r30,r10
 352 0296 2191      		ld r18,Z+
 353 0298 3191      		ld r19,Z+
 354               	.LVL19:
 355 029a 5F01      		movw r10,r30
 356 029c 40E0      		ldi r20,lo8(0)
 357 029e 50E0      		ldi r21,hi8(0)
 358 02a0 672D      		mov r22,r7
 359 02a2 782D      		mov r23,r8
 360 02a4 892D      		mov r24,r9
 361               	.LVL20:
 362 02a6 9E2D      		mov r25,r14
 363 02a8 0E94 0000 		call __divmodsi4
 364 02ac C901      		movw r24,r18
 365 02ae DA01      		movw r26,r20
 366 02b0 9C01      		movw r18,r24
 367 02b2 AD01      		movw r20,r26
 368               	.LVL21:
 369               	.LM56:
 370 02b4 F394      		inc r15
 371               	.LM57:
 372 02b6 F5E0      		ldi r31,lo8(5)
 373 02b8 FF16      		cp r15,r31
 374 02ba 01F0      		breq .L15
 375               	.LVL22:
 376               	.L14:
 377               	.LM58:
 378 02bc 2F3F      		cpi r18,lo8(255)
 379 02be 3105      		cpc r19,__zero_reg__
 380 02c0 4105      		cpc r20,__zero_reg__
 381 02c2 5105      		cpc r21,__zero_reg__
 382 02c4 01F0      		breq .+2
 383 02c6 04F4      		brge .L16
 384               	.L15:
 385               	.LM59:
 386 02c8 8F2D      		mov r24,r15
 387 02ca 8150      		subi r24,lo8(-(-1))
 388               	.LVL23:
 389               	.LM60:
 390 02cc 14BC      		out 68-32,__zero_reg__
 391               	.LM61:
 392 02ce 15BC      		out 69-32,__zero_reg__
 393               	.LM62:
 394 02d0 1092 6E00 		sts 110,__zero_reg__
 395               	.LM63:
 396 02d4 15BA      		out 53-32,__zero_reg__
 397               	.LM64:
 398 02d6 17BC      		out 71-32,__zero_reg__
 399               	.LM65:
 400 02d8 18BC      		out 72-32,__zero_reg__
 401               	.LM66:
 402 02da 16BC      		out 70-32,__zero_reg__
 403               	.LM67:
 404 02dc 17BC      		out 71-32,__zero_reg__
 405               	.LM68:
 406 02de 8823      		tst r24
 407 02e0 01F4      		brne .L17
 408               	.LM69:
 409 02e2 81E0      		ldi r24,lo8(1)
 410               	.LVL24:
 411 02e4 00C0      		rjmp .L24
 412               	.LVL25:
 413               	.L17:
 414               	.LM70:
 415 02e6 8130      		cpi r24,lo8(1)
 416 02e8 01F4      		brne .L19
 417               	.LM71:
 418 02ea 82E0      		ldi r24,lo8(2)
 419               	.LVL26:
 420 02ec 00C0      		rjmp .L24
 421               	.LVL27:
 422               	.L19:
 423               	.LM72:
 424 02ee 8230      		cpi r24,lo8(2)
 425 02f0 01F4      		brne .L20
 426               	.LM73:
 427 02f2 83E0      		ldi r24,lo8(3)
 428               	.LVL28:
 429 02f4 00C0      		rjmp .L24
 430               	.LVL29:
 431               	.L20:
 432               	.LM74:
 433 02f6 8330      		cpi r24,lo8(3)
 434 02f8 01F4      		brne .L21
 435               	.LM75:
 436 02fa 84E0      		ldi r24,lo8(4)
 437               	.LVL30:
 438 02fc 00C0      		rjmp .L24
 439               	.LVL31:
 440               	.L21:
 441               	.LM76:
 442 02fe 8430      		cpi r24,lo8(4)
 443 0300 01F4      		brne .L18
 444               	.LM77:
 445 0302 85E0      		ldi r24,lo8(5)
 446               	.LVL32:
 447               	.L24:
 448 0304 85BD      		out 69-32,r24
 449               	.LVL33:
 450               	.L18:
 451               	.LM78:
 452 0306 822F      		mov r24,r18
 453               	.LVL34:
 454 0308 8095      		com r24
 455 030a F601      		movw r30,r12
 456 030c 8383      		std Z+3,r24
 457               	.LM79:
 458 030e 8381      		ldd r24,Z+3
 459 0310 86BD      		out 70-32,r24
 460               	.LM80:
 461 0312 81E0      		ldi r24,lo8(1)
 462 0314 8093 6E00 		sts 110,r24
 463               	.LM81:
 464               	/* #APP */
 465               	 ;  326 "timebase.c" 1
 466 0318 7894      		sei
 467               	 ;  0 "" 2
 468               	.LVL35:
 469               	/* #NOAPP */
 470               	.L12:
 471               	.LBE578:
 472               	.LM82:
 473 031a F601      		movw r30,r12
 474 031c 1283      		std Z+2,r17
 475 031e 0183      		std Z+1,r16
 476               	/* epilogue start */
 477               	.LM83:
 478 0320 2A96      		adiw r28,10
 479 0322 0FB6      		in __tmp_reg__,__SREG__
 480 0324 F894      		cli
 481 0326 DEBF      		out __SP_H__,r29
 482 0328 0FBE      		out __SREG__,__tmp_reg__
 483 032a CDBF      		out __SP_L__,r28
 484 032c CF91      		pop r28
 485 032e DF91      		pop r29
 486 0330 1F91      		pop r17
 487 0332 0F91      		pop r16
 488               	.LVL36:
 489 0334 FF90      		pop r15
 490 0336 EF90      		pop r14
 491 0338 DF90      		pop r13
 492 033a CF90      		pop r12
 493 033c BF90      		pop r11
 494 033e AF90      		pop r10
 495 0340 9F90      		pop r9
 496 0342 8F90      		pop r8
 497 0344 7F90      		pop r7
 498 0346 0895      		ret
 499               	.LFE7:
 501               	.global	Timebase_Atomic_Operation_Start
 503               	Timebase_Atomic_Operation_Start:
 504               	.LFB8:
 505               	.LM84:
 506               	/* prologue: function */
 507               	/* frame size = 0 */
 508               	.LM85:
 509               	/* #APP */
 510               	 ;  346 "timebase.c" 1
 511 0348 F894      		cli
 512               	 ;  0 "" 2
 513               	/* epilogue start */
 514               	.LM86:
 515               	/* #NOAPP */
 516 034a 0895      		ret
 517               	.LFE8:
 519               	.global	Timebase_Atomic_Operation_End
 521               	Timebase_Atomic_Operation_End:
 522               	.LFB9:
 523               	.LM87:
 524               	/* prologue: function */
 525               	/* frame size = 0 */
 526               	.LM88:
 527               	/* #APP */
 528               	 ;  350 "timebase.c" 1
 529 034c 7894      		sei
 530               	 ;  0 "" 2
 531               	/* epilogue start */
 532               	.LM89:
 533               	/* #NOAPP */
 534 034e 0895      		ret
 535               	.LFE9:
 537               	.global	Timebase_Timer_Get_SubSecondsShadow
 539               	Timebase_Timer_Get_SubSecondsShadow:
 540               	.LFB10:
 541               	.LM90:
 542               	/* prologue: function */
 543               	/* frame size = 0 */
 544               	.LM91:
 545 0350 E091 0000 		lds r30,Timebase
 546 0354 F091 0000 		lds r31,(Timebase)+1
 547 0358 2685      		ldd r18,Z+14
 548 035a 3785      		ldd r19,Z+15
 549               	.LM92:
 550 035c C901      		movw r24,r18
 551               	/* epilogue start */
 552 035e 0895      		ret
 553               	.LFE10:
 555               	.global	Timebase_Timer_Get_SecondsShadow
 557               	Timebase_Timer_Get_SecondsShadow:
 558               	.LFB11:
 559               	.LM93:
 560               	/* prologue: function */
 561               	/* frame size = 0 */
 562               	.LM94:
 563 0360 E091 0000 		lds r30,Timebase
 564 0364 F091 0000 		lds r31,(Timebase)+1
 565 0368 2089      		ldd r18,Z+16
 566 036a 3189      		ldd r19,Z+17
 567 036c 4289      		ldd r20,Z+18
 568 036e 5389      		ldd r21,Z+19
 569               	.LM95:
 570 0370 B901      		movw r22,r18
 571 0372 CA01      		movw r24,r20
 572               	/* epilogue start */
 573 0374 0895      		ret
 574               	.LFE11:
 576               	.global	Timebase_Timer_Get_SubSeconds
 578               	Timebase_Timer_Get_SubSeconds:
 579               	.LFB12:
 580               	.LM96:
 581               	/* prologue: function */
 582               	/* frame size = 0 */
 583               	.LM97:
 584 0376 E091 0000 		lds r30,Timebase
 585 037a F091 0000 		lds r31,(Timebase)+1
 586 037e 2085      		ldd r18,Z+8
 587 0380 3185      		ldd r19,Z+9
 588               	.LM98:
 589 0382 C901      		movw r24,r18
 590               	/* epilogue start */
 591 0384 0895      		ret
 592               	.LFE12:
 594               	.global	Timebase_Timer_Get_Seconds
 596               	Timebase_Timer_Get_Seconds:
 597               	.LFB13:
 598               	.LM99:
 599               	/* prologue: function */
 600               	/* frame size = 0 */
 601               	.LM100:
 602 0386 E091 0000 		lds r30,Timebase
 603 038a F091 0000 		lds r31,(Timebase)+1
 604 038e 2285      		ldd r18,Z+10
 605 0390 3385      		ldd r19,Z+11
 606 0392 4485      		ldd r20,Z+12
 607 0394 5585      		ldd r21,Z+13
 608               	.LM101:
 609 0396 B901      		movw r22,r18
 610 0398 CA01      		movw r24,r20
 611               	/* epilogue start */
 612 039a 0895      		ret
 613               	.LFE13:
 615               	.global	Timebase_Timer_Set_SubSeconds
 617               	Timebase_Timer_Set_SubSeconds:
 618               	.LFB14:
 619               	.LM102:
 620               	.LVL37:
 621               	/* prologue: function */
 622               	/* frame size = 0 */
 623               	.LM103:
 624 039c E091 0000 		lds r30,Timebase
 625 03a0 F091 0000 		lds r31,(Timebase)+1
 626 03a4 9187      		std Z+9,r25
 627 03a6 8087      		std Z+8,r24
 628               	/* epilogue start */
 629               	.LM104:
 630 03a8 0895      		ret
 631               	.LFE14:
 633               	.global	Timebase_Timer_Set_Seconds
 635               	Timebase_Timer_Set_Seconds:
 636               	.LFB15:
 637               	.LM105:
 638               	.LVL38:
 639               	/* prologue: function */
 640               	/* frame size = 0 */
 641               	.LM106:
 642 03aa E091 0000 		lds r30,Timebase
 643 03ae F091 0000 		lds r31,(Timebase)+1
 644 03b2 6287      		std Z+10,r22
 645 03b4 7387      		std Z+11,r23
 646 03b6 8487      		std Z+12,r24
 647 03b8 9587      		std Z+13,r25
 648               	/* epilogue start */
 649               	.LM107:
 650 03ba 0895      		ret
 651               	.LFE15:
 653               	.global	Timebase_Timer_Sync_With_Shadow_Variables
 655               	Timebase_Timer_Sync_With_Shadow_Variables:
 656               	.LFB16:
 657               	.LM108:
 658               	/* prologue: function */
 659               	/* frame size = 0 */
 660               	.LM109:
 661 03bc E091 0000 		lds r30,Timebase
 662 03c0 F091 0000 		lds r31,(Timebase)+1
 663 03c4 8489      		ldd r24,Z+20
 664 03c6 8823      		tst r24
 665 03c8 01F4      		brne .L43
 666               	.LBB579:
 667               	.LBB580:
 668               	.LM110:
 669               	/* #APP */
 670               	 ;  346 "timebase.c" 1
 671 03ca F894      		cli
 672               	 ;  0 "" 2
 673               	/* #NOAPP */
 674               	.LBE580:
 675               	.LBE579:
 676               	.LM111:
 677 03cc 8685      		ldd r24,Z+14
 678 03ce 9785      		ldd r25,Z+15
 679 03d0 9187      		std Z+9,r25
 680 03d2 8087      		std Z+8,r24
 681               	.LM112:
 682 03d4 8089      		ldd r24,Z+16
 683 03d6 9189      		ldd r25,Z+17
 684 03d8 A289      		ldd r26,Z+18
 685 03da B389      		ldd r27,Z+19
 686 03dc 8287      		std Z+10,r24
 687 03de 9387      		std Z+11,r25
 688 03e0 A487      		std Z+12,r26
 689 03e2 B587      		std Z+13,r27
 690               	.LBB581:
 691               	.LBB582:
 692               	.LM113:
 693               	/* #APP */
 694               	 ;  350 "timebase.c" 1
 695 03e4 7894      		sei
 696               	 ;  0 "" 2
 697               	/* #NOAPP */
 698               	.LBE582:
 699               	.LBE581:
 700               	.LM114:
 701 03e6 81E0      		ldi r24,lo8(1)
 702 03e8 848B      		std Z+20,r24
 703               	.L43:
 704 03ea 0895      		ret
 705               	.LFE16:
 707               	.global	Timebase_Timer_Delay_SubSeconds
 709               	Timebase_Timer_Delay_SubSeconds:
 710               	.LFB17:
 711               	.LM115:
 712               	.LVL39:
 713 03ec 6F92      		push r6
 714 03ee 7F92      		push r7
 715 03f0 8F92      		push r8
 716 03f2 9F92      		push r9
 717 03f4 AF92      		push r10
 718 03f6 BF92      		push r11
 719 03f8 CF92      		push r12
 720 03fa DF92      		push r13
 721 03fc EF92      		push r14
 722 03fe FF92      		push r15
 723 0400 0F93      		push r16
 724 0402 1F93      		push r17
 725 0404 CF93      		push r28
 726 0406 DF93      		push r29
 727               	/* prologue: function */
 728               	/* frame size = 0 */
 729 0408 5C01      		movw r10,r24
 730               	.LBB583:
 731               	.LBB584:
 732               	.LM116:
 733               	/* #APP */
 734               	 ;  346 "timebase.c" 1
 735 040a F894      		cli
 736               	 ;  0 "" 2
 737               	/* #NOAPP */
 738               	.LBE584:
 739               	.LBE583:
 740               	.LBB585:
 741               	.LBB586:
 742               	.LM117:
 743 040c C091 0000 		lds r28,Timebase
 744 0410 D091 0000 		lds r29,(Timebase)+1
 745 0414 EE84      		ldd r14,Y+14
 746 0416 FF84      		ldd r15,Y+15
 747               	.LBE586:
 748               	.LBE585:
 749               	.LBB587:
 750               	.LBB588:
 751               	.LM118:
 752 0418 2889      		ldd r18,Y+16
 753 041a 3989      		ldd r19,Y+17
 754 041c 4A89      		ldd r20,Y+18
 755 041e 5B89      		ldd r21,Y+19
 756               	.LVL40:
 757               	.LBE588:
 758               	.LBE587:
 759               	.LBB589:
 760               	.LBB590:
 761               	.LM119:
 762               	/* #APP */
 763               	 ;  350 "timebase.c" 1
 764 0420 7894      		sei
 765               	 ;  0 "" 2
 766               	/* #NOAPP */
 767               	.LBE590:
 768               	.LBE589:
 769               	.LM120:
 770 0422 6981      		ldd r22,Y+1
 771 0424 7A81      		ldd r23,Y+2
 772 0426 80E0      		ldi r24,lo8(0)
 773 0428 90E0      		ldi r25,hi8(0)
 774               	.LVL41:
 775 042a 0E94 0000 		call __mulsi3
 776               	.LVL42:
 777 042e 3B01      		movw r6,r22
 778 0430 4C01      		movw r8,r24
 779               	.LVL43:
 780               	.LM121:
 781 0432 00E0      		ldi r16,lo8(0)
 782 0434 10E0      		ldi r17,hi8(0)
 783 0436 6E0C      		add r6,r14
 784 0438 7F1C      		adc r7,r15
 785 043a 801E      		adc r8,r16
 786 043c 911E      		adc r9,r17
 787               	.LM122:
 788 043e CC24      		clr r12
 789 0440 DD24      		clr r13
 790               	.LVL44:
 791 0442 6A0C      		add r6,r10
 792 0444 7B1C      		adc r7,r11
 793 0446 8C1C      		adc r8,r12
 794 0448 9D1C      		adc r9,r13
 795 044a 60E0      		ldi r22,lo8(0)
 796 044c 70E0      		ldi r23,hi8(0)
 797 044e 80E0      		ldi r24,hlo8(0)
 798 0450 90E0      		ldi r25,hhi8(0)
 799               	.LVL45:
 800 0452 00C0      		rjmp .L45
 801               	.L46:
 802               	.LBB591:
 803               	.LBB592:
 804               	.LM123:
 805               	/* #APP */
 806               	 ;  346 "timebase.c" 1
 807 0454 F894      		cli
 808               	 ;  0 "" 2
 809               	/* #NOAPP */
 810               	.LBE592:
 811               	.LBE591:
 812               	.LBB593:
 813               	.LBB594:
 814               	.LM124:
 815 0456 EE84      		ldd r14,Y+14
 816 0458 FF84      		ldd r15,Y+15
 817               	.LBE594:
 818               	.LBE593:
 819               	.LBB595:
 820               	.LBB596:
 821               	.LM125:
 822 045a 2889      		ldd r18,Y+16
 823 045c 3989      		ldd r19,Y+17
 824 045e 4A89      		ldd r20,Y+18
 825 0460 5B89      		ldd r21,Y+19
 826               	.LVL46:
 827               	.LBE596:
 828               	.LBE595:
 829               	.LBB597:
 830               	.LBB598:
 831               	.LM126:
 832               	/* #APP */
 833               	 ;  350 "timebase.c" 1
 834 0462 7894      		sei
 835               	 ;  0 "" 2
 836               	/* #NOAPP */
 837               	.LBE598:
 838               	.LBE597:
 839               	.LM127:
 840 0464 6981      		ldd r22,Y+1
 841 0466 7A81      		ldd r23,Y+2
 842               	.LVL47:
 843 0468 80E0      		ldi r24,lo8(0)
 844 046a 90E0      		ldi r25,hi8(0)
 845 046c 0E94 0000 		call __mulsi3
 846               	.LVL48:
 847               	.LM128:
 848 0470 00E0      		ldi r16,lo8(0)
 849 0472 10E0      		ldi r17,hi8(0)
 850 0474 6E0D      		add r22,r14
 851 0476 7F1D      		adc r23,r15
 852 0478 801F      		adc r24,r16
 853 047a 911F      		adc r25,r17
 854               	.LVL49:
 855               	.L45:
 856               	.LM129:
 857 047c 6615      		cp r22,r6
 858 047e 7705      		cpc r23,r7
 859 0480 8805      		cpc r24,r8
 860 0482 9905      		cpc r25,r9
 861 0484 04F0      		brlt .L46
 862               	/* epilogue start */
 863               	.LM130:
 864 0486 DF91      		pop r29
 865 0488 CF91      		pop r28
 866 048a 1F91      		pop r17
 867 048c 0F91      		pop r16
 868 048e FF90      		pop r15
 869 0490 EF90      		pop r14
 870 0492 DF90      		pop r13
 871 0494 CF90      		pop r12
 872               	.LVL50:
 873 0496 BF90      		pop r11
 874 0498 AF90      		pop r10
 875               	.LVL51:
 876 049a 9F90      		pop r9
 877 049c 8F90      		pop r8
 878 049e 7F90      		pop r7
 879 04a0 6F90      		pop r6
 880               	.LVL52:
 881 04a2 0895      		ret
 882               	.LFE17:
 884               	.global	Timebase_Timer_Await_SubSeconds
 886               	Timebase_Timer_Await_SubSeconds:
 887               	.LFB18:
 888               	.LM131:
 889               	.LVL53:
 890               	/* prologue: function */
 891               	/* frame size = 0 */
 892 04a4 BC01      		movw r22,r24
 893               	.LBB599:
 894               	.LBB600:
 895               	.LM132:
 896               	/* #APP */
 897               	 ;  346 "timebase.c" 1
 898 04a6 F894      		cli
 899               	 ;  0 "" 2
 900               	/* #NOAPP */
 901               	.LBE600:
 902               	.LBE599:
 903               	.LBB601:
 904               	.LBB602:
 905               	.LM133:
 906 04a8 E091 0000 		lds r30,Timebase
 907 04ac F091 0000 		lds r31,(Timebase)+1
 908 04b0 00C0      		rjmp .L53
 909               	.LVL54:
 910               	.L50:
 911               	.LBE602:
 912               	.LBE601:
 913               	.LBB603:
 914               	.LBB604:
 915               	.LM134:
 916               	/* #APP */
 917               	 ;  346 "timebase.c" 1
 918 04b2 F894      		cli
 919               	 ;  0 "" 2
 920               	.LVL55:
 921               	/* #NOAPP */
 922               	.L53:
 923               	.LBE604:
 924               	.LBE603:
 925               	.LBB605:
 926               	.LBB606:
 927               	.LM135:
 928 04b4 8685      		ldd r24,Z+14
 929 04b6 9785      		ldd r25,Z+15
 930               	.LBE606:
 931               	.LBE605:
 932               	.LBB607:
 933               	.LBB608:
 934               	.LM136:
 935               	/* #APP */
 936               	 ;  350 "timebase.c" 1
 937 04b8 7894      		sei
 938               	 ;  0 "" 2
 939               	/* #NOAPP */
 940               	.LBE608:
 941               	.LBE607:
 942               	.LM137:
 943 04ba 2481      		ldd r18,Z+4
 944 04bc 3581      		ldd r19,Z+5
 945 04be 4681      		ldd r20,Z+6
 946 04c0 5781      		ldd r21,Z+7
 947 04c2 A0E0      		ldi r26,lo8(0)
 948 04c4 B0E0      		ldi r27,hi8(0)
 949 04c6 8217      		cp r24,r18
 950 04c8 9307      		cpc r25,r19
 951 04ca A407      		cpc r26,r20
 952 04cc B507      		cpc r27,r21
 953 04ce 01F4      		brne .L50
 954               	.LBB609:
 955               	.LBB610:
 956               	.LM138:
 957               	/* #APP */
 958               	 ;  346 "timebase.c" 1
 959 04d0 F894      		cli
 960               	 ;  0 "" 2
 961               	/* #NOAPP */
 962               	.LBE610:
 963               	.LBE609:
 964               	.LBB611:
 965               	.LBB612:
 966               	.LM139:
 967 04d2 8685      		ldd r24,Z+14
 968 04d4 9785      		ldd r25,Z+15
 969               	.LVL56:
 970               	.LBE612:
 971               	.LBE611:
 972               	.LBB613:
 973               	.LBB614:
 974               	.LM140:
 975               	/* #APP */
 976               	 ;  350 "timebase.c" 1
 977 04d6 7894      		sei
 978               	 ;  0 "" 2
 979               	/* #NOAPP */
 980               	.LBE614:
 981               	.LBE613:
 982               	.LM141:
 983 04d8 A0E0      		ldi r26,lo8(0)
 984 04da B0E0      		ldi r27,hi8(0)
 985               	.LVL57:
 986 04dc 8483      		std Z+4,r24
 987 04de 9583      		std Z+5,r25
 988 04e0 A683      		std Z+6,r26
 989 04e2 B783      		std Z+7,r27
 990               	.LVL58:
 991               	.LM142:
 992 04e4 2481      		ldd r18,Z+4
 993 04e6 3581      		ldd r19,Z+5
 994 04e8 4681      		ldd r20,Z+6
 995 04ea 5781      		ldd r21,Z+7
 996 04ec CB01      		movw r24,r22
 997 04ee A0E0      		ldi r26,lo8(0)
 998 04f0 B0E0      		ldi r27,hi8(0)
 999               	.LVL59:
 1000 04f2 820F      		add r24,r18
 1001 04f4 931F      		adc r25,r19
 1002 04f6 A41F      		adc r26,r20
 1003 04f8 B51F      		adc r27,r21
 1004               	.LVL60:
 1005 04fa 8483      		std Z+4,r24
 1006 04fc 9583      		std Z+5,r25
 1007 04fe A683      		std Z+6,r26
 1008 0500 B783      		std Z+7,r27
 1009               	.LM143:
 1010 0502 2481      		ldd r18,Z+4
 1011 0504 3581      		ldd r19,Z+5
 1012 0506 4681      		ldd r20,Z+6
 1013 0508 5781      		ldd r21,Z+7
 1014 050a 8181      		ldd r24,Z+1
 1015 050c 9281      		ldd r25,Z+2
 1016               	.LVL61:
 1017 050e A0E0      		ldi r26,lo8(0)
 1018 0510 B0E0      		ldi r27,hi8(0)
 1019               	.LVL62:
 1020 0512 2817      		cp r18,r24
 1021 0514 3907      		cpc r19,r25
 1022 0516 4A07      		cpc r20,r26
 1023 0518 5B07      		cpc r21,r27
 1024 051a 04F0      		brlt .L52
 1025               	.LM144:
 1026 051c 2481      		ldd r18,Z+4
 1027 051e 3581      		ldd r19,Z+5
 1028 0520 4681      		ldd r20,Z+6
 1029 0522 5781      		ldd r21,Z+7
 1030 0524 8181      		ldd r24,Z+1
 1031 0526 9281      		ldd r25,Z+2
 1032 0528 A0E0      		ldi r26,lo8(0)
 1033 052a B0E0      		ldi r27,hi8(0)
 1034 052c 281B      		sub r18,r24
 1035 052e 390B      		sbc r19,r25
 1036 0530 4A0B      		sbc r20,r26
 1037 0532 5B0B      		sbc r21,r27
 1038 0534 2483      		std Z+4,r18
 1039 0536 3583      		std Z+5,r19
 1040 0538 4683      		std Z+6,r20
 1041 053a 5783      		std Z+7,r21
 1042               	.L52:
 1043 053c 0895      		ret
 1044               	.LFE18:
 1046               	.global	Timebase_Timer_Delay_Seconds
 1048               	Timebase_Timer_Delay_Seconds:
 1049               	.LFB19:
 1050               	.LM145:
 1051               	.LVL63:
 1052               	/* prologue: function */
 1053               	/* frame size = 0 */
 1054               	.LBB615:
 1055               	.LBB616:
 1056               	.LM146:
 1057               	/* #APP */
 1058               	 ;  346 "timebase.c" 1
 1059 053e F894      		cli
 1060               	 ;  0 "" 2
 1061               	/* #NOAPP */
 1062               	.LBE616:
 1063               	.LBE615:
 1064               	.LBB617:
 1065               	.LBB618:
 1066               	.LM147:
 1067 0540 E091 0000 		lds r30,Timebase
 1068 0544 F091 0000 		lds r31,(Timebase)+1
 1069 0548 2089      		ldd r18,Z+16
 1070 054a 3189      		ldd r19,Z+17
 1071 054c 4289      		ldd r20,Z+18
 1072 054e 5389      		ldd r21,Z+19
 1073               	.LVL64:
 1074               	.LBE618:
 1075               	.LBE617:
 1076               	.LBB619:
 1077               	.LBB620:
 1078               	.LM148:
 1079               	/* #APP */
 1080               	 ;  350 "timebase.c" 1
 1081 0550 7894      		sei
 1082               	 ;  0 "" 2
 1083               	/* #NOAPP */
 1084               	.LBE620:
 1085               	.LBE619:
 1086               	.LM149:
 1087 0552 A0E0      		ldi r26,lo8(0)
 1088 0554 B0E0      		ldi r27,hi8(0)
 1089               	.LVL65:
 1090 0556 820F      		add r24,r18
 1091 0558 931F      		adc r25,r19
 1092 055a A41F      		adc r26,r20
 1093 055c B51F      		adc r27,r21
 1094               	.LVL66:
 1095 055e 20E0      		ldi r18,lo8(0)
 1096 0560 30E0      		ldi r19,hi8(0)
 1097 0562 40E0      		ldi r20,hlo8(0)
 1098 0564 50E0      		ldi r21,hhi8(0)
 1099               	.LVL67:
 1100 0566 00C0      		rjmp .L55
 1101               	.L56:
 1102               	.LBB621:
 1103               	.LBB622:
 1104               	.LM150:
 1105               	/* #APP */
 1106               	 ;  346 "timebase.c" 1
 1107 0568 F894      		cli
 1108               	 ;  0 "" 2
 1109               	/* #NOAPP */
 1110               	.LBE622:
 1111               	.LBE621:
 1112               	.LBB623:
 1113               	.LBB624:
 1114               	.LM151:
 1115 056a 2089      		ldd r18,Z+16
 1116 056c 3189      		ldd r19,Z+17
 1117 056e 4289      		ldd r20,Z+18
 1118 0570 5389      		ldd r21,Z+19
 1119               	.LBE624:
 1120               	.LBE623:
 1121               	.LBB625:
 1122               	.LBB626:
 1123               	.LM152:
 1124               	/* #APP */
 1125               	 ;  350 "timebase.c" 1
 1126 0572 7894      		sei
 1127               	 ;  0 "" 2
 1128               	/* #NOAPP */
 1129               	.L55:
 1130               	.LBE626:
 1131               	.LBE625:
 1132               	.LM153:
 1133 0574 2817      		cp r18,r24
 1134 0576 3907      		cpc r19,r25
 1135 0578 4A07      		cpc r20,r26
 1136 057a 5B07      		cpc r21,r27
 1137 057c 04F0      		brlt .L56
 1138               	/* epilogue start */
 1139               	.LM154:
 1140 057e 0895      		ret
 1141               	.LFE19:
 1143               	.global	Timebase_UpCounter_SS_Get_Status
 1145               	Timebase_UpCounter_SS_Get_Status:
 1146               	.LFB20:
 1147               	.LM155:
 1148               	.LVL68:
 1149               	/* prologue: function */
 1150               	/* frame size = 0 */
 1151               	.LM156:
 1152 0580 E091 0000 		lds r30,Timebase
 1153 0584 F091 0000 		lds r31,(Timebase)+1
 1154 0588 90E0      		ldi r25,lo8(0)
 1155               	.LVL69:
 1156 058a 29E1      		ldi r18,lo8(25)
 1157 058c 30E0      		ldi r19,hi8(25)
 1158 058e AC01      		movw r20,r24
 1159 0590 429F      		mul r20,r18
 1160 0592 C001      		movw r24,r0
 1161 0594 439F      		mul r20,r19
 1162 0596 900D      		add r25,r0
 1163 0598 529F      		mul r21,r18
 1164 059a 900D      		add r25,r0
 1165 059c 1124      		clr r1
 1166               	.LVL70:
 1167 059e E80F      		add r30,r24
 1168 05a0 F91F      		adc r31,r25
 1169 05a2 8689      		ldd r24,Z+22
 1170 05a4 8695      		lsr r24
 1171               	.LM157:
 1172 05a6 8F70      		andi r24,lo8(15)
 1173               	/* epilogue start */
 1174 05a8 0895      		ret
 1175               	.LFE20:
 1177               	.global	Timebase_UpCounter_SS_Set_Status
 1179               	Timebase_UpCounter_SS_Set_Status:
 1180               	.LFB21:
 1181               	.LM158:
 1182               	.LVL71:
 1183               	/* prologue: function */
 1184               	/* frame size = 0 */
 1185               	.LM159:
 1186 05aa E091 0000 		lds r30,Timebase
 1187 05ae F091 0000 		lds r31,(Timebase)+1
 1188 05b2 90E0      		ldi r25,lo8(0)
 1189               	.LVL72:
 1190 05b4 29E1      		ldi r18,lo8(25)
 1191 05b6 30E0      		ldi r19,hi8(25)
 1192 05b8 AC01      		movw r20,r24
 1193 05ba 429F      		mul r20,r18
 1194 05bc C001      		movw r24,r0
 1195 05be 439F      		mul r20,r19
 1196 05c0 900D      		add r25,r0
 1197 05c2 529F      		mul r21,r18
 1198 05c4 900D      		add r25,r0
 1199 05c6 1124      		clr r1
 1200               	.LVL73:
 1201 05c8 E80F      		add r30,r24
 1202 05ca F91F      		adc r31,r25
 1203 05cc 6F70      		andi r22,lo8(15)
 1204               	.LVL74:
 1205 05ce 660F      		lsl r22
 1206 05d0 8689      		ldd r24,Z+22
 1207 05d2 817E      		andi r24,lo8(-31)
 1208 05d4 862B      		or r24,r22
 1209 05d6 868B      		std Z+22,r24
 1210               	/* epilogue start */
 1211               	.LM160:
 1212 05d8 0895      		ret
 1213               	.LFE21:
 1215               	.global	Timebase_UpCounter_SS_Get_Value
 1217               	Timebase_UpCounter_SS_Get_Value:
 1218               	.LFB22:
 1219               	.LM161:
 1220               	.LVL75:
 1221               	/* prologue: function */
 1222               	/* frame size = 0 */
 1223               	.LM162:
 1224 05da E091 0000 		lds r30,Timebase
 1225 05de F091 0000 		lds r31,(Timebase)+1
 1226 05e2 90E0      		ldi r25,lo8(0)
 1227               	.LVL76:
 1228 05e4 29E1      		ldi r18,lo8(25)
 1229 05e6 30E0      		ldi r19,hi8(25)
 1230 05e8 AC01      		movw r20,r24
 1231 05ea 429F      		mul r20,r18
 1232 05ec C001      		movw r24,r0
 1233 05ee 439F      		mul r20,r19
 1234 05f0 900D      		add r25,r0
 1235 05f2 529F      		mul r21,r18
 1236 05f4 900D      		add r25,r0
 1237 05f6 1124      		clr r1
 1238               	.LVL77:
 1239 05f8 E80F      		add r30,r24
 1240 05fa F91F      		adc r31,r25
 1241 05fc DF01      		movw r26,r30
 1242 05fe 9796      		adiw r26,39
 1243 0600 67A1      		ldd r22,Z+39
 1244 0602 1196      		adiw r26,1
 1245 0604 7C91      		ld r23,X
 1246 0606 1197      		sbiw r26,1
 1247               	.LM163:
 1248 0608 1296      		adiw r26,2
 1249 060a 8C91      		ld r24,X
 1250 060c 1297      		sbiw r26,2
 1251 060e 1396      		adiw r26,3
 1252 0610 9C91      		ld r25,X
 1253               	.LVL78:
 1254               	/* epilogue start */
 1255 0612 0895      		ret
 1256               	.LFE22:
 1258               	.global	Timebase_UpCounter_SS_Set_Value
 1260               	Timebase_UpCounter_SS_Set_Value:
 1261               	.LFB23:
 1262               	.LM164:
 1263               	.LVL79:
 1264 0614 CF93      		push r28
 1265 0616 DF93      		push r29
 1266               	/* prologue: function */
 1267               	/* frame size = 0 */
 1268               	.LM165:
 1269 0618 C091 0000 		lds r28,Timebase
 1270 061c D091 0000 		lds r29,(Timebase)+1
 1271 0620 90E0      		ldi r25,lo8(0)
 1272               	.LVL80:
 1273 0622 29E1      		ldi r18,lo8(25)
 1274 0624 30E0      		ldi r19,hi8(25)
 1275 0626 FC01      		movw r30,r24
 1276 0628 E29F      		mul r30,r18
 1277 062a C001      		movw r24,r0
 1278 062c E39F      		mul r30,r19
 1279 062e 900D      		add r25,r0
 1280 0630 F29F      		mul r31,r18
 1281 0632 900D      		add r25,r0
 1282 0634 1124      		clr r1
 1283               	.LVL81:
 1284 0636 C80F      		add r28,r24
 1285 0638 D91F      		adc r29,r25
 1286 063a CA01      		movw r24,r20
 1287               	.LVL82:
 1288 063c DB01      		movw r26,r22
 1289 063e B7FF      		sbrs r27,7
 1290 0640 00C0      		rjmp .L65
 1291               	.LVL83:
 1292 0642 80E0      		ldi r24,lo8(0)
 1293 0644 90E0      		ldi r25,hi8(0)
 1294 0646 A0E0      		ldi r26,hlo8(0)
 1295 0648 B0E0      		ldi r27,hhi8(0)
 1296               	.L65:
 1297 064a 8FA3      		std Y+39,r24
 1298 064c 98A7      		std Y+40,r25
 1299 064e A9A7      		std Y+41,r26
 1300 0650 BAA7      		std Y+42,r27
 1301               	/* epilogue start */
 1302               	.LM166:
 1303 0652 DF91      		pop r29
 1304 0654 CF91      		pop r28
 1305 0656 0895      		ret
 1306               	.LFE23:
 1308               	.global	Timebase_UpCounter_SS_Get_EndValueSec
 1310               	Timebase_UpCounter_SS_Get_EndValueSec:
 1311               	.LFB24:
 1312               	.LM167:
 1313               	.LVL84:
 1314               	/* prologue: function */
 1315               	/* frame size = 0 */
 1316               	.LM168:
 1317 0658 E091 0000 		lds r30,Timebase
 1318 065c F091 0000 		lds r31,(Timebase)+1
 1319 0660 90E0      		ldi r25,lo8(0)
 1320               	.LVL85:
 1321 0662 29E1      		ldi r18,lo8(25)
 1322 0664 30E0      		ldi r19,hi8(25)
 1323 0666 AC01      		movw r20,r24
 1324 0668 429F      		mul r20,r18
 1325 066a C001      		movw r24,r0
 1326 066c 439F      		mul r20,r19
 1327 066e 900D      		add r25,r0
 1328 0670 529F      		mul r21,r18
 1329 0672 900D      		add r25,r0
 1330 0674 1124      		clr r1
 1331               	.LVL86:
 1332 0676 E80F      		add r30,r24
 1333 0678 F91F      		adc r31,r25
 1334 067a DF01      		movw r26,r30
 1335 067c 5796      		adiw r26,23
 1336 067e 6789      		ldd r22,Z+23
 1337 0680 1196      		adiw r26,1
 1338 0682 7C91      		ld r23,X
 1339 0684 1197      		sbiw r26,1
 1340               	.LM169:
 1341 0686 1296      		adiw r26,2
 1342 0688 8C91      		ld r24,X
 1343 068a 1297      		sbiw r26,2
 1344 068c 1396      		adiw r26,3
 1345 068e 9C91      		ld r25,X
 1346               	.LVL87:
 1347               	/* epilogue start */
 1348 0690 0895      		ret
 1349               	.LFE24:
 1351               	.global	Timebase_UpCounter_SS_Get_EndValueSubSec
 1353               	Timebase_UpCounter_SS_Get_EndValueSubSec:
 1354               	.LFB25:
 1355               	.LM170:
 1356               	.LVL88:
 1357               	/* prologue: function */
 1358               	/* frame size = 0 */
 1359               	.LM171:
 1360 0692 E091 0000 		lds r30,Timebase
 1361 0696 F091 0000 		lds r31,(Timebase)+1
 1362 069a 90E0      		ldi r25,lo8(0)
 1363               	.LVL89:
 1364 069c 29E1      		ldi r18,lo8(25)
 1365 069e 30E0      		ldi r19,hi8(25)
 1366 06a0 AC01      		movw r20,r24
 1367 06a2 429F      		mul r20,r18
 1368 06a4 C001      		movw r24,r0
 1369 06a6 439F      		mul r20,r19
 1370 06a8 900D      		add r25,r0
 1371 06aa 529F      		mul r21,r18
 1372 06ac 900D      		add r25,r0
 1373 06ae 1124      		clr r1
 1374               	.LVL90:
 1375 06b0 E80F      		add r30,r24
 1376 06b2 F91F      		adc r31,r25
 1377 06b4 DF01      		movw r26,r30
 1378 06b6 5B96      		adiw r26,27
 1379 06b8 638D      		ldd r22,Z+27
 1380 06ba 1196      		adiw r26,1
 1381 06bc 7C91      		ld r23,X
 1382 06be 1197      		sbiw r26,1
 1383               	.LM172:
 1384 06c0 1296      		adiw r26,2
 1385 06c2 8C91      		ld r24,X
 1386 06c4 1297      		sbiw r26,2
 1387 06c6 1396      		adiw r26,3
 1388 06c8 9C91      		ld r25,X
 1389               	.LVL91:
 1390               	/* epilogue start */
 1391 06ca 0895      		ret
 1392               	.LFE25:
 1394               	.global	Timebase_UpCounter_SS_Set_EndValueSec
 1396               	Timebase_UpCounter_SS_Set_EndValueSec:
 1397               	.LFB26:
 1398               	.LM173:
 1399               	.LVL92:
 1400               	/* prologue: function */
 1401               	/* frame size = 0 */
 1402               	.LM174:
 1403 06cc E091 0000 		lds r30,Timebase
 1404 06d0 F091 0000 		lds r31,(Timebase)+1
 1405 06d4 90E0      		ldi r25,lo8(0)
 1406               	.LVL93:
 1407 06d6 29E1      		ldi r18,lo8(25)
 1408 06d8 30E0      		ldi r19,hi8(25)
 1409 06da DC01      		movw r26,r24
 1410 06dc A29F      		mul r26,r18
 1411 06de C001      		movw r24,r0
 1412 06e0 A39F      		mul r26,r19
 1413 06e2 900D      		add r25,r0
 1414 06e4 B29F      		mul r27,r18
 1415 06e6 900D      		add r25,r0
 1416 06e8 1124      		clr r1
 1417               	.LVL94:
 1418 06ea E80F      		add r30,r24
 1419 06ec F91F      		adc r31,r25
 1420 06ee 478B      		std Z+23,r20
 1421 06f0 508F      		std Z+24,r21
 1422 06f2 618F      		std Z+25,r22
 1423 06f4 728F      		std Z+26,r23
 1424               	/* epilogue start */
 1425               	.LM175:
 1426 06f6 0895      		ret
 1427               	.LFE26:
 1429               	.global	Timebase_UpCounter_SS_Set_EndValueSubSec
 1431               	Timebase_UpCounter_SS_Set_EndValueSubSec:
 1432               	.LFB27:
 1433               	.LM176:
 1434               	.LVL95:
 1435               	/* prologue: function */
 1436               	/* frame size = 0 */
 1437               	.LM177:
 1438 06f8 E091 0000 		lds r30,Timebase
 1439 06fc F091 0000 		lds r31,(Timebase)+1
 1440 0700 90E0      		ldi r25,lo8(0)
 1441               	.LVL96:
 1442 0702 29E1      		ldi r18,lo8(25)
 1443 0704 30E0      		ldi r19,hi8(25)
 1444 0706 DC01      		movw r26,r24
 1445 0708 A29F      		mul r26,r18
 1446 070a C001      		movw r24,r0
 1447 070c A39F      		mul r26,r19
 1448 070e 900D      		add r25,r0
 1449 0710 B29F      		mul r27,r18
 1450 0712 900D      		add r25,r0
 1451 0714 1124      		clr r1
 1452               	.LVL97:
 1453 0716 E80F      		add r30,r24
 1454 0718 F91F      		adc r31,r25
 1455 071a 438F      		std Z+27,r20
 1456 071c 548F      		std Z+28,r21
 1457 071e 658F      		std Z+29,r22
 1458 0720 768F      		std Z+30,r23
 1459               	/* epilogue start */
 1460               	.LM178:
 1461 0722 0895      		ret
 1462               	.LFE27:
 1464               	.global	Timebase_UpCounter_SS_Get_TargetValue
 1466               	Timebase_UpCounter_SS_Get_TargetValue:
 1467               	.LFB28:
 1468               	.LM179:
 1469               	.LVL98:
 1470               	/* prologue: function */
 1471               	/* frame size = 0 */
 1472               	.LM180:
 1473 0724 E091 0000 		lds r30,Timebase
 1474 0728 F091 0000 		lds r31,(Timebase)+1
 1475 072c 90E0      		ldi r25,lo8(0)
 1476               	.LVL99:
 1477 072e 29E1      		ldi r18,lo8(25)
 1478 0730 30E0      		ldi r19,hi8(25)
 1479 0732 AC01      		movw r20,r24
 1480 0734 429F      		mul r20,r18
 1481 0736 C001      		movw r24,r0
 1482 0738 439F      		mul r20,r19
 1483 073a 900D      		add r25,r0
 1484 073c 529F      		mul r21,r18
 1485 073e 900D      		add r25,r0
 1486 0740 1124      		clr r1
 1487               	.LVL100:
 1488 0742 E80F      		add r30,r24
 1489 0744 F91F      		adc r31,r25
 1490 0746 DF01      		movw r26,r30
 1491 0748 5F96      		adiw r26,31
 1492 074a 678D      		ldd r22,Z+31
 1493 074c 1196      		adiw r26,1
 1494 074e 7C91      		ld r23,X
 1495 0750 1197      		sbiw r26,1
 1496               	.LM181:
 1497 0752 1296      		adiw r26,2
 1498 0754 8C91      		ld r24,X
 1499 0756 1297      		sbiw r26,2
 1500 0758 1396      		adiw r26,3
 1501 075a 9C91      		ld r25,X
 1502               	.LVL101:
 1503               	/* epilogue start */
 1504 075c 0895      		ret
 1505               	.LFE28:
 1507               	.global	Timebase_UpCounter_SS_Set_TargetValue
 1509               	Timebase_UpCounter_SS_Set_TargetValue:
 1510               	.LFB29:
 1511               	.LM182:
 1512               	.LVL102:
 1513               	/* prologue: function */
 1514               	/* frame size = 0 */
 1515               	.LM183:
 1516 075e E091 0000 		lds r30,Timebase
 1517 0762 F091 0000 		lds r31,(Timebase)+1
 1518 0766 90E0      		ldi r25,lo8(0)
 1519               	.LVL103:
 1520 0768 29E1      		ldi r18,lo8(25)
 1521 076a 30E0      		ldi r19,hi8(25)
 1522 076c DC01      		movw r26,r24
 1523 076e A29F      		mul r26,r18
 1524 0770 C001      		movw r24,r0
 1525 0772 A39F      		mul r26,r19
 1526 0774 900D      		add r25,r0
 1527 0776 B29F      		mul r27,r18
 1528 0778 900D      		add r25,r0
 1529 077a 1124      		clr r1
 1530               	.LVL104:
 1531 077c E80F      		add r30,r24
 1532 077e F91F      		adc r31,r25
 1533 0780 478F      		std Z+31,r20
 1534 0782 50A3      		std Z+32,r21
 1535 0784 61A3      		std Z+33,r22
 1536 0786 72A3      		std Z+34,r23
 1537               	/* epilogue start */
 1538               	.LM184:
 1539 0788 0895      		ret
 1540               	.LFE29:
 1542               	.global	Timebase_UpCounter_SS_Get_TemporaryValue
 1544               	Timebase_UpCounter_SS_Get_TemporaryValue:
 1545               	.LFB30:
 1546               	.LM185:
 1547               	.LVL105:
 1548               	/* prologue: function */
 1549               	/* frame size = 0 */
 1550               	.LM186:
 1551 078a E091 0000 		lds r30,Timebase
 1552 078e F091 0000 		lds r31,(Timebase)+1
 1553 0792 90E0      		ldi r25,lo8(0)
 1554               	.LVL106:
 1555 0794 29E1      		ldi r18,lo8(25)
 1556 0796 30E0      		ldi r19,hi8(25)
 1557 0798 AC01      		movw r20,r24
 1558 079a 429F      		mul r20,r18
 1559 079c C001      		movw r24,r0
 1560 079e 439F      		mul r20,r19
 1561 07a0 900D      		add r25,r0
 1562 07a2 529F      		mul r21,r18
 1563 07a4 900D      		add r25,r0
 1564 07a6 1124      		clr r1
 1565               	.LVL107:
 1566 07a8 E80F      		add r30,r24
 1567 07aa F91F      		adc r31,r25
 1568 07ac DF01      		movw r26,r30
 1569 07ae 9396      		adiw r26,35
 1570 07b0 63A1      		ldd r22,Z+35
 1571 07b2 1196      		adiw r26,1
 1572 07b4 7C91      		ld r23,X
 1573 07b6 1197      		sbiw r26,1
 1574               	.LM187:
 1575 07b8 1296      		adiw r26,2
 1576 07ba 8C91      		ld r24,X
 1577 07bc 1297      		sbiw r26,2
 1578 07be 1396      		adiw r26,3
 1579 07c0 9C91      		ld r25,X
 1580               	.LVL108:
 1581               	/* epilogue start */
 1582 07c2 0895      		ret
 1583               	.LFE30:
 1585               	.global	Timebase_UpCounter_SS_Set_TemporaryValue
 1587               	Timebase_UpCounter_SS_Set_TemporaryValue:
 1588               	.LFB31:
 1589               	.LM188:
 1590               	.LVL109:
 1591 07c4 CF93      		push r28
 1592 07c6 DF93      		push r29
 1593               	/* prologue: function */
 1594               	/* frame size = 0 */
 1595               	.LM189:
 1596 07c8 C091 0000 		lds r28,Timebase
 1597 07cc D091 0000 		lds r29,(Timebase)+1
 1598 07d0 90E0      		ldi r25,lo8(0)
 1599               	.LVL110:
 1600 07d2 29E1      		ldi r18,lo8(25)
 1601 07d4 30E0      		ldi r19,hi8(25)
 1602 07d6 FC01      		movw r30,r24
 1603 07d8 E29F      		mul r30,r18
 1604 07da C001      		movw r24,r0
 1605 07dc E39F      		mul r30,r19
 1606 07de 900D      		add r25,r0
 1607 07e0 F29F      		mul r31,r18
 1608 07e2 900D      		add r25,r0
 1609 07e4 1124      		clr r1
 1610               	.LVL111:
 1611 07e6 C80F      		add r28,r24
 1612 07e8 D91F      		adc r29,r25
 1613 07ea CA01      		movw r24,r20
 1614               	.LVL112:
 1615 07ec DB01      		movw r26,r22
 1616 07ee B7FF      		sbrs r27,7
 1617 07f0 00C0      		rjmp .L82
 1618               	.LVL113:
 1619 07f2 80E0      		ldi r24,lo8(0)
 1620 07f4 90E0      		ldi r25,hi8(0)
 1621 07f6 A0E0      		ldi r26,hlo8(0)
 1622 07f8 B0E0      		ldi r27,hhi8(0)
 1623               	.L82:
 1624 07fa 8BA3      		std Y+35,r24
 1625 07fc 9CA3      		std Y+36,r25
 1626 07fe ADA3      		std Y+37,r26
 1627 0800 BEA3      		std Y+38,r27
 1628               	/* epilogue start */
 1629               	.LM190:
 1630 0802 DF91      		pop r29
 1631 0804 CF91      		pop r28
 1632 0806 0895      		ret
 1633               	.LFE31:
 1635               	.global	Timebase_UpCounter_SS_Get_PeriodValue
 1637               	Timebase_UpCounter_SS_Get_PeriodValue:
 1638               	.LFB32:
 1639               	.LM191:
 1640               	.LVL114:
 1641               	/* prologue: function */
 1642               	/* frame size = 0 */
 1643               	.LM192:
 1644 0808 E091 0000 		lds r30,Timebase
 1645 080c F091 0000 		lds r31,(Timebase)+1
 1646 0810 90E0      		ldi r25,lo8(0)
 1647               	.LVL115:
 1648 0812 29E1      		ldi r18,lo8(25)
 1649 0814 30E0      		ldi r19,hi8(25)
 1650 0816 AC01      		movw r20,r24
 1651 0818 429F      		mul r20,r18
 1652 081a C001      		movw r24,r0
 1653 081c 439F      		mul r20,r19
 1654 081e 900D      		add r25,r0
 1655 0820 529F      		mul r21,r18
 1656 0822 900D      		add r25,r0
 1657 0824 1124      		clr r1
 1658               	.LVL116:
 1659 0826 E80F      		add r30,r24
 1660 0828 F91F      		adc r31,r25
 1661 082a DF01      		movw r26,r30
 1662 082c 9B96      		adiw r26,43
 1663 082e 63A5      		ldd r22,Z+43
 1664 0830 1196      		adiw r26,1
 1665 0832 7C91      		ld r23,X
 1666 0834 1197      		sbiw r26,1
 1667               	.LM193:
 1668 0836 1296      		adiw r26,2
 1669 0838 8C91      		ld r24,X
 1670 083a 1297      		sbiw r26,2
 1671 083c 1396      		adiw r26,3
 1672 083e 9C91      		ld r25,X
 1673               	.LVL117:
 1674               	/* epilogue start */
 1675 0840 0895      		ret
 1676               	.LFE32:
 1678               	.global	Timebase_UpCounter_SS_Set_PeriodValue
 1680               	Timebase_UpCounter_SS_Set_PeriodValue:
 1681               	.LFB33:
 1682               	.LM194:
 1683               	.LVL118:
 1684               	/* prologue: function */
 1685               	/* frame size = 0 */
 1686               	.LM195:
 1687 0842 E091 0000 		lds r30,Timebase
 1688 0846 F091 0000 		lds r31,(Timebase)+1
 1689 084a 90E0      		ldi r25,lo8(0)
 1690               	.LVL119:
 1691 084c 29E1      		ldi r18,lo8(25)
 1692 084e 30E0      		ldi r19,hi8(25)
 1693 0850 DC01      		movw r26,r24
 1694 0852 A29F      		mul r26,r18
 1695 0854 C001      		movw r24,r0
 1696 0856 A39F      		mul r26,r19
 1697 0858 900D      		add r25,r0
 1698 085a B29F      		mul r27,r18
 1699 085c 900D      		add r25,r0
 1700 085e 1124      		clr r1
 1701               	.LVL120:
 1702 0860 E80F      		add r30,r24
 1703 0862 F91F      		adc r31,r25
 1704 0864 43A7      		std Z+43,r20
 1705 0866 54A7      		std Z+44,r21
 1706 0868 65A7      		std Z+45,r22
 1707 086a 76A7      		std Z+46,r23
 1708               	/* epilogue start */
 1709               	.LM196:
 1710 086c 0895      		ret
 1711               	.LFE33:
 1713               	.global	Timebase_UpCounter_SS_Get_Period_Flag
 1715               	Timebase_UpCounter_SS_Get_Period_Flag:
 1716               	.LFB34:
 1717               	.LM197:
 1718               	.LVL121:
 1719               	/* prologue: function */
 1720               	/* frame size = 0 */
 1721               	.LM198:
 1722 086e E091 0000 		lds r30,Timebase
 1723 0872 F091 0000 		lds r31,(Timebase)+1
 1724 0876 90E0      		ldi r25,lo8(0)
 1725               	.LVL122:
 1726 0878 29E1      		ldi r18,lo8(25)
 1727 087a 30E0      		ldi r19,hi8(25)
 1728 087c AC01      		movw r20,r24
 1729 087e 429F      		mul r20,r18
 1730 0880 C001      		movw r24,r0
 1731 0882 439F      		mul r20,r19
 1732 0884 900D      		add r25,r0
 1733 0886 529F      		mul r21,r18
 1734 0888 900D      		add r25,r0
 1735 088a 1124      		clr r1
 1736               	.LVL123:
 1737 088c E80F      		add r30,r24
 1738 088e F91F      		adc r31,r25
 1739 0890 8689      		ldd r24,Z+22
 1740               	.LM199:
 1741 0892 8170      		andi r24,lo8(1)
 1742               	/* epilogue start */
 1743 0894 0895      		ret
 1744               	.LFE34:
 1746               	.global	Timebase_UpCounter_SS_Set_Period_Flag
 1748               	Timebase_UpCounter_SS_Set_Period_Flag:
 1749               	.LFB35:
 1750               	.LM200:
 1751               	.LVL124:
 1752               	/* prologue: function */
 1753               	/* frame size = 0 */
 1754               	.LM201:
 1755 0896 E091 0000 		lds r30,Timebase
 1756 089a F091 0000 		lds r31,(Timebase)+1
 1757 089e 90E0      		ldi r25,lo8(0)
 1758               	.LVL125:
 1759 08a0 29E1      		ldi r18,lo8(25)
 1760 08a2 30E0      		ldi r19,hi8(25)
 1761 08a4 AC01      		movw r20,r24
 1762 08a6 429F      		mul r20,r18
 1763 08a8 C001      		movw r24,r0
 1764 08aa 439F      		mul r20,r19
 1765 08ac 900D      		add r25,r0
 1766 08ae 529F      		mul r21,r18
 1767 08b0 900D      		add r25,r0
 1768 08b2 1124      		clr r1
 1769               	.LVL126:
 1770 08b4 E80F      		add r30,r24
 1771 08b6 F91F      		adc r31,r25
 1772 08b8 8689      		ldd r24,Z+22
 1773 08ba 8160      		ori r24,lo8(1)
 1774 08bc 868B      		std Z+22,r24
 1775               	/* epilogue start */
 1776               	.LM202:
 1777 08be 0895      		ret
 1778               	.LFE35:
 1780               	.global	Timebase_UpCounter_SS_Clear_Period_Flag
 1782               	Timebase_UpCounter_SS_Clear_Period_Flag:
 1783               	.LFB36:
 1784               	.LM203:
 1785               	.LVL127:
 1786               	/* prologue: function */
 1787               	/* frame size = 0 */
 1788               	.LM204:
 1789 08c0 E091 0000 		lds r30,Timebase
 1790 08c4 F091 0000 		lds r31,(Timebase)+1
 1791 08c8 90E0      		ldi r25,lo8(0)
 1792               	.LVL128:
 1793 08ca 29E1      		ldi r18,lo8(25)
 1794 08cc 30E0      		ldi r19,hi8(25)
 1795 08ce AC01      		movw r20,r24
 1796 08d0 429F      		mul r20,r18
 1797 08d2 C001      		movw r24,r0
 1798 08d4 439F      		mul r20,r19
 1799 08d6 900D      		add r25,r0
 1800 08d8 529F      		mul r21,r18
 1801 08da 900D      		add r25,r0
 1802 08dc 1124      		clr r1
 1803               	.LVL129:
 1804 08de E80F      		add r30,r24
 1805 08e0 F91F      		adc r31,r25
 1806 08e2 8689      		ldd r24,Z+22
 1807 08e4 8E7F      		andi r24,lo8(-2)
 1808 08e6 868B      		std Z+22,r24
 1809               	/* epilogue start */
 1810               	.LM205:
 1811 08e8 0895      		ret
 1812               	.LFE36:
 1814               	.global	Timebase_UpCounter_SS_Reset
 1816               	Timebase_UpCounter_SS_Reset:
 1817               	.LFB37:
 1818               	.LM206:
 1819               	.LVL130:
 1820               	/* prologue: function */
 1821               	/* frame size = 0 */
 1822               	.LBB627:
 1823               	.LBB628:
 1824               	.LM207:
 1825 08ea E091 0000 		lds r30,Timebase
 1826 08ee F091 0000 		lds r31,(Timebase)+1
 1827 08f2 90E0      		ldi r25,lo8(0)
 1828 08f4 29E1      		ldi r18,lo8(25)
 1829 08f6 30E0      		ldi r19,hi8(25)
 1830 08f8 AC01      		movw r20,r24
 1831               	.LVL131:
 1832 08fa 429F      		mul r20,r18
 1833 08fc C001      		movw r24,r0
 1834 08fe 439F      		mul r20,r19
 1835 0900 900D      		add r25,r0
 1836 0902 529F      		mul r21,r18
 1837 0904 900D      		add r25,r0
 1838 0906 1124      		clr r1
 1839 0908 E80F      		add r30,r24
 1840 090a F91F      		adc r31,r25
 1841 090c 8689      		ldd r24,Z+22
 1842               	.LBE628:
 1843               	.LBE627:
 1844               	.LBB629:
 1845               	.LBB630:
 1846               	.LM208:
 1847 090e 17A2      		std Z+39,__zero_reg__
 1848 0910 10A6      		std Z+40,__zero_reg__
 1849 0912 11A6      		std Z+41,__zero_reg__
 1850 0914 12A6      		std Z+42,__zero_reg__
 1851               	.LBE630:
 1852               	.LBE629:
 1853               	.LBB631:
 1854               	.LBB632:
 1855               	.LM209:
 1856 0916 178A      		std Z+23,__zero_reg__
 1857 0918 108E      		std Z+24,__zero_reg__
 1858 091a 118E      		std Z+25,__zero_reg__
 1859 091c 128E      		std Z+26,__zero_reg__
 1860               	.LBE632:
 1861               	.LBE631:
 1862               	.LBB633:
 1863               	.LBB634:
 1864               	.LM210:
 1865 091e 138E      		std Z+27,__zero_reg__
 1866 0920 148E      		std Z+28,__zero_reg__
 1867 0922 158E      		std Z+29,__zero_reg__
 1868 0924 168E      		std Z+30,__zero_reg__
 1869               	.LBE634:
 1870               	.LBE633:
 1871               	.LBB635:
 1872               	.LBB636:
 1873               	.LM211:
 1874 0926 178E      		std Z+31,__zero_reg__
 1875 0928 10A2      		std Z+32,__zero_reg__
 1876 092a 11A2      		std Z+33,__zero_reg__
 1877 092c 12A2      		std Z+34,__zero_reg__
 1878               	.LBE636:
 1879               	.LBE635:
 1880               	.LBB637:
 1881               	.LBB638:
 1882               	.LM212:
 1883 092e 13A2      		std Z+35,__zero_reg__
 1884 0930 14A2      		std Z+36,__zero_reg__
 1885 0932 15A2      		std Z+37,__zero_reg__
 1886 0934 16A2      		std Z+38,__zero_reg__
 1887               	.LBE638:
 1888               	.LBE637:
 1889               	.LBB639:
 1890               	.LBB640:
 1891               	.LM213:
 1892 0936 13A6      		std Z+43,__zero_reg__
 1893 0938 14A6      		std Z+44,__zero_reg__
 1894 093a 15A6      		std Z+45,__zero_reg__
 1895 093c 16A6      		std Z+46,__zero_reg__
 1896               	.LBE640:
 1897               	.LBE639:
 1898               	.LBB641:
 1899               	.LBB642:
 1900               	.LM214:
 1901 093e 807E      		andi r24,lo8(-32)
 1902 0940 868B      		std Z+22,r24
 1903               	/* epilogue start */
 1904               	.LBE642:
 1905               	.LBE641:
 1906               	.LM215:
 1907 0942 0895      		ret
 1908               	.LFE37:
 1910               	.global	Timebase_UpCounter_SS_Clear_All_Flags
 1912               	Timebase_UpCounter_SS_Clear_All_Flags:
 1913               	.LFB38:
 1914               	.LM216:
 1915               	.LVL132:
 1916               	/* prologue: function */
 1917               	/* frame size = 0 */
 1918               	.LM217:
 1919 0944 0E94 0000 		call Timebase_UpCounter_SS_Reset
 1920               	.LVL133:
 1921               	/* epilogue start */
 1922               	.LM218:
 1923 0948 0895      		ret
 1924               	.LFE38:
 1926               	.global	Timebase_UpCounter_SS_Start
 1928               	Timebase_UpCounter_SS_Start:
 1929               	.LFB39:
 1930               	.LM219:
 1931               	.LVL134:
 1932               	/* prologue: function */
 1933               	/* frame size = 0 */
 1934               	.LBB643:
 1935               	.LBB644:
 1936               	.LM220:
 1937 094a E091 0000 		lds r30,Timebase
 1938 094e F091 0000 		lds r31,(Timebase)+1
 1939 0952 90E0      		ldi r25,lo8(0)
 1940               	.LBE644:
 1941               	.LBE643:
 1942               	.LM221:
 1943 0954 29E1      		ldi r18,lo8(25)
 1944 0956 30E0      		ldi r19,hi8(25)
 1945 0958 AC01      		movw r20,r24
 1946               	.LVL135:
 1947 095a 429F      		mul r20,r18
 1948 095c C001      		movw r24,r0
 1949 095e 439F      		mul r20,r19
 1950 0960 900D      		add r25,r0
 1951 0962 529F      		mul r21,r18
 1952 0964 900D      		add r25,r0
 1953 0966 1124      		clr r1
 1954 0968 E80F      		add r30,r24
 1955 096a F91F      		adc r31,r25
 1956 096c 9689      		ldd r25,Z+22
 1957 096e 892F      		mov r24,r25
 1958 0970 8695      		lsr r24
 1959 0972 8F70      		andi r24,lo8(15)
 1960 0974 8130      		cpi r24,lo8(1)
 1961 0976 01F0      		breq .L100
 1962               	.LBB645:
 1963               	.LBB646:
 1964               	.LM222:
 1965 0978 917E      		andi r25,lo8(-31)
 1966 097a 9260      		ori r25,lo8(2)
 1967 097c 968B      		std Z+22,r25
 1968               	.L100:
 1969 097e 0895      		ret
 1970               	.LBE646:
 1971               	.LBE645:
 1972               	.LFE39:
 1974               	.global	Timebase_UpCounter_SS_Stop
 1976               	Timebase_UpCounter_SS_Stop:
 1977               	.LFB40:
 1978               	.LM223:
 1979               	.LVL136:
 1980               	/* prologue: function */
 1981               	/* frame size = 0 */
 1982               	.LBB647:
 1983               	.LBB648:
 1984               	.LM224:
 1985 0980 E091 0000 		lds r30,Timebase
 1986 0984 F091 0000 		lds r31,(Timebase)+1
 1987 0988 90E0      		ldi r25,lo8(0)
 1988               	.LBE648:
 1989               	.LBE647:
 1990               	.LM225:
 1991 098a 29E1      		ldi r18,lo8(25)
 1992 098c 30E0      		ldi r19,hi8(25)
 1993 098e AC01      		movw r20,r24
 1994               	.LVL137:
 1995 0990 429F      		mul r20,r18
 1996 0992 C001      		movw r24,r0
 1997 0994 439F      		mul r20,r19
 1998 0996 900D      		add r25,r0
 1999 0998 529F      		mul r21,r18
 2000 099a 900D      		add r25,r0
 2001 099c 1124      		clr r1
 2002 099e E80F      		add r30,r24
 2003 09a0 F91F      		adc r31,r25
 2004 09a2 9689      		ldd r25,Z+22
 2005 09a4 892F      		mov r24,r25
 2006 09a6 8695      		lsr r24
 2007 09a8 8F70      		andi r24,lo8(15)
 2008 09aa 8230      		cpi r24,lo8(2)
 2009 09ac 01F0      		breq .L103
 2010               	.LBB649:
 2011               	.LBB650:
 2012               	.LM226:
 2013 09ae 917E      		andi r25,lo8(-31)
 2014 09b0 9460      		ori r25,lo8(4)
 2015 09b2 968B      		std Z+22,r25
 2016               	.L103:
 2017 09b4 0895      		ret
 2018               	.LBE650:
 2019               	.LBE649:
 2020               	.LFE40:
 2022               	.global	Timebase_UpCounter_SS_Set_Securely
 2024               	Timebase_UpCounter_SS_Set_Securely:
 2025               	.LFB41:
 2026               	.LM227:
 2027               	.LVL138:
 2028 09b6 2F92      		push r2
 2029 09b8 3F92      		push r3
 2030 09ba 4F92      		push r4
 2031 09bc 5F92      		push r5
 2032 09be 6F92      		push r6
 2033 09c0 7F92      		push r7
 2034 09c2 8F92      		push r8
 2035 09c4 9F92      		push r9
 2036 09c6 AF92      		push r10
 2037 09c8 BF92      		push r11
 2038 09ca CF92      		push r12
 2039 09cc DF92      		push r13
 2040 09ce EF92      		push r14
 2041 09d0 FF92      		push r15
 2042 09d2 0F93      		push r16
 2043 09d4 1F93      		push r17
 2044 09d6 DF93      		push r29
 2045 09d8 CF93      		push r28
 2046 09da 00D0      		rcall .
 2047 09dc 00D0      		rcall .
 2048 09de CDB7      		in r28,__SP_L__
 2049 09e0 DEB7      		in r29,__SP_H__
 2050               	/* prologue: function */
 2051               	/* frame size = 4 */
 2052 09e2 4A01      		movw r8,r20
 2053 09e4 5B01      		movw r10,r22
 2054               	.LBB651:
 2055               	.LBB652:
 2056               	.LM228:
 2057 09e6 2091 0000 		lds r18,Timebase
 2058 09ea 3091 0000 		lds r19,(Timebase)+1
 2059 09ee 3C83      		std Y+4,r19
 2060 09f0 2B83      		std Y+3,r18
 2061 09f2 A82F      		mov r26,r24
 2062 09f4 B0E0      		ldi r27,lo8(0)
 2063 09f6 BA83      		std Y+2,r27
 2064 09f8 A983      		std Y+1,r26
 2065               	.LBE652:
 2066               	.LBE651:
 2067               	.LM229:
 2068 09fa 89E1      		ldi r24,lo8(25)
 2069 09fc 90E0      		ldi r25,hi8(25)
 2070               	.LVL139:
 2071 09fe A89F      		mul r26,r24
 2072 0a00 F001      		movw r30,r0
 2073 0a02 A99F      		mul r26,r25
 2074 0a04 F00D      		add r31,r0
 2075 0a06 B89F      		mul r27,r24
 2076 0a08 F00D      		add r31,r0
 2077 0a0a 1124      		clr r1
 2078 0a0c E20F      		add r30,r18
 2079 0a0e F31F      		adc r31,r19
 2080 0a10 8689      		ldd r24,Z+22
 2081 0a12 8695      		lsr r24
 2082 0a14 8F70      		andi r24,lo8(15)
 2083 0a16 01F0      		breq .+2
 2084 0a18 00C0      		rjmp .L107
 2085               	.LVL140:
 2086               	.LBB653:
 2087               	.LBB654:
 2088               	.LBB655:
 2089               	.LM230:
 2090 0a1a 17A2      		std Z+39,__zero_reg__
 2091 0a1c 10A6      		std Z+40,__zero_reg__
 2092 0a1e 11A6      		std Z+41,__zero_reg__
 2093 0a20 12A6      		std Z+42,__zero_reg__
 2094               	.LBE655:
 2095               	.LBE654:
 2096               	.LBB656:
 2097               	.LBB657:
 2098               	.LM231:
 2099 0a22 13A2      		std Z+35,__zero_reg__
 2100 0a24 14A2      		std Z+36,__zero_reg__
 2101 0a26 15A2      		std Z+37,__zero_reg__
 2102 0a28 16A2      		std Z+38,__zero_reg__
 2103               	.LBE657:
 2104               	.LBE656:
 2105               	.LBB658:
 2106               	.LBB659:
 2107               	.LM232:
 2108 0a2a 478F      		std Z+31,r20
 2109 0a2c 50A3      		std Z+32,r21
 2110 0a2e 61A3      		std Z+33,r22
 2111 0a30 72A3      		std Z+34,r23
 2112               	.LBE659:
 2113               	.LBE658:
 2114               	.LBB660:
 2115               	.LBB661:
 2116               	.LM233:
 2117 0a32 F901      		movw r30,r18
 2118 0a34 C084      		ldd r12,Z+8
 2119 0a36 D184      		ldd r13,Z+9
 2120               	.LBE661:
 2121               	.LBE660:
 2122               	.LBB662:
 2123               	.LBB663:
 2124               	.LM234:
 2125 0a38 2284      		ldd r2,Z+10
 2126 0a3a 3384      		ldd r3,Z+11
 2127 0a3c 4484      		ldd r4,Z+12
 2128 0a3e 5584      		ldd r5,Z+13
 2129               	.LVL141:
 2130               	.LBE663:
 2131               	.LBE662:
 2132               	.LM235:
 2133 0a40 2181      		ldd r18,Z+1
 2134 0a42 3281      		ldd r19,Z+2
 2135 0a44 40E0      		ldi r20,lo8(0)
 2136 0a46 50E0      		ldi r21,hi8(0)
 2137 0a48 C501      		movw r24,r10
 2138 0a4a B401      		movw r22,r8
 2139 0a4c 0E94 0000 		call __divmodsi4
 2140 0a50 7B01      		movw r14,r22
 2141 0a52 8C01      		movw r16,r24
 2142               	.LM236:
 2143 0a54 AB81      		ldd r26,Y+3
 2144 0a56 BC81      		ldd r27,Y+4
 2145 0a58 1196      		adiw r26,1
 2146 0a5a 2D91      		ld r18,X+
 2147 0a5c 3C91      		ld r19,X
 2148 0a5e 1297      		sbiw r26,1+1
 2149 0a60 40E0      		ldi r20,lo8(0)
 2150 0a62 50E0      		ldi r21,hi8(0)
 2151 0a64 C501      		movw r24,r10
 2152 0a66 B401      		movw r22,r8
 2153 0a68 0E94 0000 		call __divmodsi4
 2154 0a6c C901      		movw r24,r18
 2155 0a6e DA01      		movw r26,r20
 2156 0a70 3C01      		movw r6,r24
 2157 0a72 4D01      		movw r8,r26
 2158               	.LVL142:
 2159               	.LM237:
 2160 0a74 5601      		movw r10,r12
 2161               	.LVL143:
 2162 0a76 CC24      		clr r12
 2163 0a78 DD24      		clr r13
 2164               	.LVL144:
 2165 0a7a AE0C      		add r10,r14
 2166 0a7c BF1C      		adc r11,r15
 2167 0a7e C01E      		adc r12,r16
 2168 0a80 D11E      		adc r13,r17
 2169               	.LVL145:
 2170               	.LM238:
 2171 0a82 EB81      		ldd r30,Y+3
 2172 0a84 FC81      		ldd r31,Y+4
 2173 0a86 8181      		ldd r24,Z+1
 2174 0a88 9281      		ldd r25,Z+2
 2175               	.LVL146:
 2176 0a8a A0E0      		ldi r26,lo8(0)
 2177 0a8c B0E0      		ldi r27,hi8(0)
 2178 0a8e A816      		cp r10,r24
 2179 0a90 B906      		cpc r11,r25
 2180 0a92 CA06      		cpc r12,r26
 2181 0a94 DB06      		cpc r13,r27
 2182 0a96 04F0      		brlt .L106
 2183               	.LM239:
 2184 0a98 0894      		sec
 2185 0a9a 611C      		adc r6,__zero_reg__
 2186 0a9c 711C      		adc r7,__zero_reg__
 2187 0a9e 811C      		adc r8,__zero_reg__
 2188 0aa0 911C      		adc r9,__zero_reg__
 2189               	.LM240:
 2190 0aa2 2181      		ldd r18,Z+1
 2191 0aa4 3281      		ldd r19,Z+2
 2192 0aa6 40E0      		ldi r20,lo8(0)
 2193 0aa8 50E0      		ldi r21,hi8(0)
 2194 0aaa C601      		movw r24,r12
 2195 0aac B501      		movw r22,r10
 2196 0aae 0E94 0000 		call __divmodsi4
 2197 0ab2 AC01      		movw r20,r24
 2198 0ab4 CB01      		movw r24,r22
 2199 0ab6 DA01      		movw r26,r20
 2200 0ab8 5C01      		movw r10,r24
 2201 0aba 6D01      		movw r12,r26
 2202               	.L106:
 2203               	.LBB664:
 2204               	.LBB665:
 2205               	.LM241:
 2206 0abc 89E1      		ldi r24,lo8(25)
 2207 0abe 90E0      		ldi r25,hi8(25)
 2208 0ac0 2981      		ldd r18,Y+1
 2209 0ac2 3A81      		ldd r19,Y+2
 2210 0ac4 289F      		mul r18,r24
 2211 0ac6 F001      		movw r30,r0
 2212 0ac8 299F      		mul r18,r25
 2213 0aca F00D      		add r31,r0
 2214 0acc 389F      		mul r19,r24
 2215 0ace F00D      		add r31,r0
 2216 0ad0 1124      		clr r1
 2217 0ad2 8B81      		ldd r24,Y+3
 2218 0ad4 9C81      		ldd r25,Y+4
 2219 0ad6 E80F      		add r30,r24
 2220 0ad8 F91F      		adc r31,r25
 2221 0ada 260C      		add r2,r6
 2222 0adc 371C      		adc r3,r7
 2223 0ade 481C      		adc r4,r8
 2224 0ae0 591C      		adc r5,r9
 2225 0ae2 278A      		std Z+23,r2
 2226 0ae4 308E      		std Z+24,r3
 2227 0ae6 418E      		std Z+25,r4
 2228 0ae8 528E      		std Z+26,r5
 2229               	.LBE665:
 2230               	.LBE664:
 2231               	.LBB666:
 2232               	.LBB667:
 2233               	.LM242:
 2234 0aea A38E      		std Z+27,r10
 2235 0aec B48E      		std Z+28,r11
 2236 0aee C58E      		std Z+29,r12
 2237 0af0 D68E      		std Z+30,r13
 2238               	.LBE667:
 2239               	.LBE666:
 2240               	.LBB668:
 2241               	.LBB669:
 2242               	.LM243:
 2243 0af2 9689      		ldd r25,Z+22
 2244 0af4 892F      		mov r24,r25
 2245 0af6 8695      		lsr r24
 2246 0af8 8F70      		andi r24,lo8(15)
 2247 0afa 8130      		cpi r24,lo8(1)
 2248 0afc 01F0      		breq .L107
 2249               	.LBB670:
 2250               	.LBB671:
 2251               	.LM244:
 2252 0afe 917E      		andi r25,lo8(-31)
 2253 0b00 9260      		ori r25,lo8(2)
 2254 0b02 968B      		std Z+22,r25
 2255               	.LVL147:
 2256               	.L107:
 2257               	/* epilogue start */
 2258               	.LBE671:
 2259               	.LBE670:
 2260               	.LBE669:
 2261               	.LBE668:
 2262               	.LBE653:
 2263               	.LM245:
 2264 0b04 0F90      		pop __tmp_reg__
 2265 0b06 0F90      		pop __tmp_reg__
 2266 0b08 0F90      		pop __tmp_reg__
 2267 0b0a 0F90      		pop __tmp_reg__
 2268 0b0c CF91      		pop r28
 2269 0b0e DF91      		pop r29
 2270 0b10 1F91      		pop r17
 2271 0b12 0F91      		pop r16
 2272 0b14 FF90      		pop r15
 2273 0b16 EF90      		pop r14
 2274 0b18 DF90      		pop r13
 2275 0b1a CF90      		pop r12
 2276               	.LVL148:
 2277 0b1c BF90      		pop r11
 2278 0b1e AF90      		pop r10
 2279               	.LVL149:
 2280 0b20 9F90      		pop r9
 2281 0b22 8F90      		pop r8
 2282               	.LVL150:
 2283 0b24 7F90      		pop r7
 2284 0b26 6F90      		pop r6
 2285               	.LVL151:
 2286 0b28 5F90      		pop r5
 2287 0b2a 4F90      		pop r4
 2288 0b2c 3F90      		pop r3
 2289 0b2e 2F90      		pop r2
 2290               	.LVL152:
 2291 0b30 0895      		ret
 2292               	.LFE41:
 2294               	.global	Timebase_UpCounter_SS_Set_Forcefully
 2296               	Timebase_UpCounter_SS_Set_Forcefully:
 2297               	.LFB42:
 2298               	.LM246:
 2299               	.LVL153:
 2300 0b32 DF92      		push r13
 2301 0b34 EF92      		push r14
 2302 0b36 FF92      		push r15
 2303 0b38 0F93      		push r16
 2304 0b3a 1F93      		push r17
 2305               	/* prologue: function */
 2306               	/* frame size = 0 */
 2307 0b3c D82E      		mov r13,r24
 2308 0b3e 7A01      		movw r14,r20
 2309 0b40 8B01      		movw r16,r22
 2310               	.LM247:
 2311 0b42 0E94 0000 		call Timebase_UpCounter_SS_Reset
 2312               	.LVL154:
 2313               	.LM248:
 2314 0b46 8D2D      		mov r24,r13
 2315 0b48 B801      		movw r22,r16
 2316 0b4a A701      		movw r20,r14
 2317 0b4c 0E94 0000 		call Timebase_UpCounter_SS_Set_Securely
 2318               	/* epilogue start */
 2319               	.LM249:
 2320 0b50 1F91      		pop r17
 2321 0b52 0F91      		pop r16
 2322 0b54 FF90      		pop r15
 2323 0b56 EF90      		pop r14
 2324               	.LVL155:
 2325 0b58 DF90      		pop r13
 2326               	.LVL156:
 2327 0b5a 0895      		ret
 2328               	.LFE42:
 2330               	.global	Timebase_UpCounter_SS_Update
 2332               	Timebase_UpCounter_SS_Update:
 2333               	.LFB43:
 2334               	.LM250:
 2335               	.LVL157:
 2336 0b5c 2F92      		push r2
 2337 0b5e 3F92      		push r3
 2338 0b60 4F92      		push r4
 2339 0b62 5F92      		push r5
 2340 0b64 6F92      		push r6
 2341 0b66 7F92      		push r7
 2342 0b68 8F92      		push r8
 2343 0b6a 9F92      		push r9
 2344 0b6c AF92      		push r10
 2345 0b6e BF92      		push r11
 2346 0b70 CF92      		push r12
 2347 0b72 DF92      		push r13
 2348 0b74 EF92      		push r14
 2349 0b76 FF92      		push r15
 2350 0b78 0F93      		push r16
 2351 0b7a 1F93      		push r17
 2352 0b7c DF93      		push r29
 2353 0b7e CF93      		push r28
 2354 0b80 00D0      		rcall .
 2355 0b82 00D0      		rcall .
 2356 0b84 00D0      		rcall .
 2357 0b86 CDB7      		in r28,__SP_L__
 2358 0b88 DEB7      		in r29,__SP_H__
 2359               	/* prologue: function */
 2360               	/* frame size = 6 */
 2361               	.LBB672:
 2362               	.LBB673:
 2363               	.LM251:
 2364 0b8a 2090 0000 		lds r2,Timebase
 2365 0b8e 3090 0000 		lds r3,(Timebase)+1
 2366 0b92 282F      		mov r18,r24
 2367 0b94 30E0      		ldi r19,lo8(0)
 2368 0b96 3E83      		std Y+6,r19
 2369 0b98 2D83      		std Y+5,r18
 2370 0b9a 89E1      		ldi r24,lo8(25)
 2371 0b9c 90E0      		ldi r25,hi8(25)
 2372               	.LVL158:
 2373 0b9e 289F      		mul r18,r24
 2374 0ba0 5001      		movw r10,r0
 2375 0ba2 299F      		mul r18,r25
 2376 0ba4 B00C      		add r11,r0
 2377 0ba6 389F      		mul r19,r24
 2378 0ba8 B00C      		add r11,r0
 2379 0baa 1124      		clr r1
 2380 0bac A20C      		add r10,r2
 2381 0bae B31C      		adc r11,r3
 2382 0bb0 D501      		movw r26,r10
 2383 0bb2 5696      		adiw r26,22
 2384 0bb4 8C91      		ld r24,X
 2385 0bb6 8695      		lsr r24
 2386 0bb8 8F70      		andi r24,lo8(15)
 2387               	.LBE673:
 2388               	.LBE672:
 2389               	.LM252:
 2390 0bba 8130      		cpi r24,lo8(1)
 2391 0bbc 01F0      		breq .+2
 2392 0bbe 00C0      		rjmp .L111
 2393               	.LBB674:
 2394               	.LBB675:
 2395               	.LM253:
 2396 0bc0 F101      		movw r30,r2
 2397 0bc2 8285      		ldd r24,Z+10
 2398 0bc4 9385      		ldd r25,Z+11
 2399 0bc6 A485      		ldd r26,Z+12
 2400 0bc8 B585      		ldd r27,Z+13
 2401               	.LVL159:
 2402               	.LBE675:
 2403               	.LBE674:
 2404               	.LBB676:
 2405               	.LBB677:
 2406               	.LM254:
 2407 0bca E084      		ldd r14,Z+8
 2408 0bcc F184      		ldd r15,Z+9
 2409               	.LBE677:
 2410               	.LBE676:
 2411               	.LM255:
 2412 0bce 00E0      		ldi r16,lo8(0)
 2413 0bd0 10E0      		ldi r17,hi8(0)
 2414               	.LVL160:
 2415               	.LM256:
 2416 0bd2 F501      		movw r30,r10
 2417 0bd4 2789      		ldd r18,Z+23
 2418 0bd6 308D      		ldd r19,Z+24
 2419 0bd8 418D      		ldd r20,Z+25
 2420 0bda 528D      		ldd r21,Z+26
 2421 0bdc 281B      		sub r18,r24
 2422 0bde 390B      		sbc r19,r25
 2423 0be0 4A0B      		sbc r20,r26
 2424 0be2 5B0B      		sbc r21,r27
 2425               	.LM257:
 2426 0be4 D101      		movw r26,r2
 2427 0be6 1196      		adiw r26,1
 2428 0be8 6D91      		ld r22,X+
 2429 0bea 7C91      		ld r23,X
 2430 0bec 1297      		sbiw r26,1+1
 2431               	.LM258:
 2432 0bee 80E0      		ldi r24,lo8(0)
 2433 0bf0 90E0      		ldi r25,hi8(0)
 2434               	.LVL161:
 2435 0bf2 0E94 0000 		call __mulsi3
 2436 0bf6 9B01      		movw r18,r22
 2437 0bf8 AC01      		movw r20,r24
 2438               	.LVL162:
 2439 0bfa 2E19      		sub r18,r14
 2440 0bfc 3F09      		sbc r19,r15
 2441 0bfe 400B      		sbc r20,r16
 2442 0c00 510B      		sbc r21,r17
 2443               	.LM259:
 2444 0c02 F501      		movw r30,r10
 2445 0c04 838D      		ldd r24,Z+27
 2446 0c06 948D      		ldd r25,Z+28
 2447 0c08 A58D      		ldd r26,Z+29
 2448 0c0a B68D      		ldd r27,Z+30
 2449 0c0c 280F      		add r18,r24
 2450 0c0e 391F      		adc r19,r25
 2451 0c10 4A1F      		adc r20,r26
 2452 0c12 5B1F      		adc r21,r27
 2453 0c14 57FF      		sbrs r21,7
 2454 0c16 00C0      		rjmp .L112
 2455 0c18 20E0      		ldi r18,lo8(0)
 2456 0c1a 30E0      		ldi r19,hi8(0)
 2457 0c1c 40E0      		ldi r20,hlo8(0)
 2458 0c1e 50E0      		ldi r21,hhi8(0)
 2459               	.L112:
 2460               	.LBB678:
 2461               	.LBB679:
 2462               	.LM260:
 2463 0c20 89E1      		ldi r24,lo8(25)
 2464 0c22 90E0      		ldi r25,hi8(25)
 2465 0c24 6D81      		ldd r22,Y+5
 2466 0c26 7E81      		ldd r23,Y+6
 2467 0c28 689F      		mul r22,r24
 2468 0c2a F001      		movw r30,r0
 2469 0c2c 699F      		mul r22,r25
 2470 0c2e F00D      		add r31,r0
 2471 0c30 789F      		mul r23,r24
 2472 0c32 F00D      		add r31,r0
 2473 0c34 1124      		clr r1
 2474 0c36 E20D      		add r30,r2
 2475 0c38 F31D      		adc r31,r3
 2476 0c3a 23A3      		std Z+35,r18
 2477 0c3c 34A3      		std Z+36,r19
 2478 0c3e 45A3      		std Z+37,r20
 2479 0c40 56A3      		std Z+38,r21
 2480               	.LBE679:
 2481               	.LBE678:
 2482               	.LM261:
 2483 0c42 878D      		ldd r24,Z+31
 2484 0c44 90A1      		ldd r25,Z+32
 2485 0c46 A1A1      		ldd r26,Z+33
 2486 0c48 B2A1      		ldd r27,Z+34
 2487               	.LVL163:
 2488               	.LBB680:
 2489               	.LBB681:
 2490               	.LM262:
 2491 0c4a 821B      		sub r24,r18
 2492 0c4c 930B      		sbc r25,r19
 2493 0c4e A40B      		sbc r26,r20
 2494 0c50 B50B      		sbc r27,r21
 2495 0c52 B7FF      		sbrs r27,7
 2496 0c54 00C0      		rjmp .L113
 2497 0c56 80E0      		ldi r24,lo8(0)
 2498 0c58 90E0      		ldi r25,hi8(0)
 2499 0c5a A0E0      		ldi r26,hlo8(0)
 2500 0c5c B0E0      		ldi r27,hhi8(0)
 2501               	.L113:
 2502 0c5e 87A3      		std Z+39,r24
 2503 0c60 90A7      		std Z+40,r25
 2504 0c62 A1A7      		std Z+41,r26
 2505 0c64 B2A7      		std Z+42,r27
 2506               	.LBE681:
 2507               	.LBE680:
 2508               	.LM263:
 2509 0c66 89E1      		ldi r24,lo8(25)
 2510 0c68 90E0      		ldi r25,hi8(25)
 2511               	.LVL164:
 2512 0c6a AD81      		ldd r26,Y+5
 2513 0c6c BE81      		ldd r27,Y+6
 2514 0c6e A89F      		mul r26,r24
 2515 0c70 B001      		movw r22,r0
 2516 0c72 A99F      		mul r26,r25
 2517 0c74 700D      		add r23,r0
 2518 0c76 B89F      		mul r27,r24
 2519 0c78 700D      		add r23,r0
 2520 0c7a 1124      		clr r1
 2521 0c7c 620D      		add r22,r2
 2522 0c7e 731D      		adc r23,r3
 2523 0c80 FB01      		movw r30,r22
 2524 0c82 83A1      		ldd r24,Z+35
 2525 0c84 94A1      		ldd r25,Z+36
 2526 0c86 A5A1      		ldd r26,Z+37
 2527 0c88 B6A1      		ldd r27,Z+38
 2528 0c8a 1816      		cp __zero_reg__,r24
 2529 0c8c 1906      		cpc __zero_reg__,r25
 2530 0c8e 1A06      		cpc __zero_reg__,r26
 2531 0c90 1B06      		cpc __zero_reg__,r27
 2532 0c92 04F4      		brge .+2
 2533 0c94 00C0      		rjmp .L118
 2534               	.LBB682:
 2535               	.LBB683:
 2536               	.LM264:
 2537 0c96 DB01      		movw r26,r22
 2538 0c98 5796      		adiw r26,23
 2539 0c9a 1D92      		st X+,__zero_reg__
 2540 0c9c 1D92      		st X+,__zero_reg__
 2541 0c9e 1D92      		st X+,__zero_reg__
 2542 0ca0 1C92      		st X,__zero_reg__
 2543 0ca2 5A97      		sbiw r26,23+3
 2544               	.LBE683:
 2545               	.LBE682:
 2546               	.LBB684:
 2547               	.LBB685:
 2548               	.LM265:
 2549 0ca4 138E      		std Z+27,__zero_reg__
 2550 0ca6 148E      		std Z+28,__zero_reg__
 2551 0ca8 158E      		std Z+29,__zero_reg__
 2552 0caa 168E      		std Z+30,__zero_reg__
 2553               	.LBE685:
 2554               	.LBE684:
 2555               	.LBB686:
 2556               	.LBB687:
 2557               	.LM266:
 2558 0cac 9396      		adiw r26,35
 2559 0cae 1D92      		st X+,__zero_reg__
 2560 0cb0 1D92      		st X+,__zero_reg__
 2561 0cb2 1D92      		st X+,__zero_reg__
 2562 0cb4 1C92      		st X,__zero_reg__
 2563 0cb6 9697      		sbiw r26,35+3
 2564               	.LBE687:
 2565               	.LBE686:
 2566               	.LBB688:
 2567               	.LBB689:
 2568               	.LM267:
 2569 0cb8 7F96      		adiw r30,31
 2570               	.LBE689:
 2571               	.LBE688:
 2572               	.LBB690:
 2573               	.LBB691:
 2574               	.LM268:
 2575 0cba 5F96      		adiw r26,31
 2576 0cbc 2C91      		ld r18,X
 2577               	.LVL165:
 2578 0cbe 3181      		ldd r19,Z+1
 2579               	.LVL166:
 2580 0cc0 4281      		ldd r20,Z+2
 2581               	.LVL167:
 2582 0cc2 5381      		ldd r21,Z+3
 2583               	.LVL168:
 2584 0cc4 C901      		movw r24,r18
 2585               	.LVL169:
 2586 0cc6 DA01      		movw r26,r20
 2587               	.LVL170:
 2588 0cc8 B7FF      		sbrs r27,7
 2589 0cca 00C0      		rjmp .L115
 2590               	.LVL171:
 2591 0ccc 80E0      		ldi r24,lo8(0)
 2592 0cce 90E0      		ldi r25,hi8(0)
 2593 0cd0 A0E0      		ldi r26,hlo8(0)
 2594 0cd2 B0E0      		ldi r27,hhi8(0)
 2595               	.L115:
 2596 0cd4 FB01      		movw r30,r22
 2597 0cd6 87A3      		std Z+39,r24
 2598 0cd8 90A7      		std Z+40,r25
 2599 0cda A1A7      		std Z+41,r26
 2600 0cdc B2A7      		std Z+42,r27
 2601               	.LBE691:
 2602               	.LBE690:
 2603               	.LBB692:
 2604               	.LBB693:
 2605               	.LM269:
 2606 0cde 89E1      		ldi r24,lo8(25)
 2607 0ce0 90E0      		ldi r25,hi8(25)
 2608               	.LVL172:
 2609 0ce2 2D81      		ldd r18,Y+5
 2610 0ce4 3E81      		ldd r19,Y+6
 2611 0ce6 289F      		mul r18,r24
 2612 0ce8 F001      		movw r30,r0
 2613 0cea 299F      		mul r18,r25
 2614 0cec F00D      		add r31,r0
 2615 0cee 389F      		mul r19,r24
 2616 0cf0 F00D      		add r31,r0
 2617 0cf2 1124      		clr r1
 2618 0cf4 E20D      		add r30,r2
 2619 0cf6 F31D      		adc r31,r3
 2620 0cf8 8689      		ldd r24,Z+22
 2621 0cfa 817E      		andi r24,lo8(-31)
 2622 0cfc 8860      		ori r24,lo8(8)
 2623 0cfe 868B      		std Z+22,r24
 2624 0d00 00C0      		rjmp .L118
 2625               	.LVL173:
 2626               	.L111:
 2627               	.LBE693:
 2628               	.LBE692:
 2629               	.LM270:
 2630 0d02 8230      		cpi r24,lo8(2)
 2631 0d04 01F0      		breq .+2
 2632 0d06 00C0      		rjmp .L118
 2633               	.LBB694:
 2634               	.LBB695:
 2635               	.LBB696:
 2636               	.LM271:
 2637 0d08 D101      		movw r26,r2
 2638 0d0a 1A96      		adiw r26,10
 2639 0d0c 6D91      		ld r22,X+
 2640 0d0e 7D91      		ld r23,X+
 2641 0d10 8D91      		ld r24,X+
 2642 0d12 9C91      		ld r25,X
 2643 0d14 1D97      		sbiw r26,10+3
 2644 0d16 6983      		std Y+1,r22
 2645 0d18 7A83      		std Y+2,r23
 2646 0d1a 8B83      		std Y+3,r24
 2647 0d1c 9C83      		std Y+4,r25
 2648               	.LVL174:
 2649               	.LBE696:
 2650               	.LBE695:
 2651               	.LBB697:
 2652               	.LBB698:
 2653               	.LM272:
 2654 0d1e 1896      		adiw r26,8
 2655 0d20 8D90      		ld r8,X+
 2656 0d22 9C90      		ld r9,X
 2657 0d24 1997      		sbiw r26,8+1
 2658               	.LBE698:
 2659               	.LBE697:
 2660               	.LBB699:
 2661               	.LBB700:
 2662               	.LM273:
 2663 0d26 F501      		movw r30,r10
 2664 0d28 A3A0      		ldd r10,Z+35
 2665 0d2a B4A0      		ldd r11,Z+36
 2666 0d2c C5A0      		ldd r12,Z+37
 2667 0d2e D6A0      		ldd r13,Z+38
 2668               	.LVL175:
 2669               	.LBE700:
 2670               	.LBE699:
 2671               	.LM274:
 2672 0d30 1196      		adiw r26,1
 2673 0d32 2D91      		ld r18,X+
 2674 0d34 3C91      		ld r19,X
 2675 0d36 1297      		sbiw r26,1+1
 2676 0d38 40E0      		ldi r20,lo8(0)
 2677 0d3a 50E0      		ldi r21,hi8(0)
 2678 0d3c C601      		movw r24,r12
 2679 0d3e B501      		movw r22,r10
 2680 0d40 0E94 0000 		call __divmodsi4
 2681 0d44 7B01      		movw r14,r22
 2682 0d46 8C01      		movw r16,r24
 2683               	.LM275:
 2684 0d48 D101      		movw r26,r2
 2685 0d4a 1196      		adiw r26,1
 2686 0d4c 2D91      		ld r18,X+
 2687 0d4e 3C91      		ld r19,X
 2688 0d50 1297      		sbiw r26,1+1
 2689 0d52 40E0      		ldi r20,lo8(0)
 2690 0d54 50E0      		ldi r21,hi8(0)
 2691 0d56 C601      		movw r24,r12
 2692 0d58 B501      		movw r22,r10
 2693 0d5a 0E94 0000 		call __divmodsi4
 2694 0d5e C901      		movw r24,r18
 2695 0d60 DA01      		movw r26,r20
 2696 0d62 2C01      		movw r4,r24
 2697 0d64 3D01      		movw r6,r26
 2698               	.LVL176:
 2699               	.LM276:
 2700 0d66 AA24      		clr r10
 2701 0d68 BB24      		clr r11
 2702               	.LVL177:
 2703 0d6a 8E0C      		add r8,r14
 2704 0d6c 9F1C      		adc r9,r15
 2705 0d6e A01E      		adc r10,r16
 2706 0d70 B11E      		adc r11,r17
 2707               	.LVL178:
 2708               	.LM277:
 2709 0d72 F101      		movw r30,r2
 2710 0d74 8181      		ldd r24,Z+1
 2711 0d76 9281      		ldd r25,Z+2
 2712               	.LVL179:
 2713 0d78 A0E0      		ldi r26,lo8(0)
 2714 0d7a B0E0      		ldi r27,hi8(0)
 2715 0d7c 8816      		cp r8,r24
 2716 0d7e 9906      		cpc r9,r25
 2717 0d80 AA06      		cpc r10,r26
 2718 0d82 BB06      		cpc r11,r27
 2719 0d84 04F0      		brlt .L116
 2720               	.LM278:
 2721 0d86 0894      		sec
 2722 0d88 411C      		adc r4,__zero_reg__
 2723 0d8a 511C      		adc r5,__zero_reg__
 2724 0d8c 611C      		adc r6,__zero_reg__
 2725 0d8e 711C      		adc r7,__zero_reg__
 2726               	.LM279:
 2727 0d90 2181      		ldd r18,Z+1
 2728 0d92 3281      		ldd r19,Z+2
 2729 0d94 40E0      		ldi r20,lo8(0)
 2730 0d96 50E0      		ldi r21,hi8(0)
 2731 0d98 C501      		movw r24,r10
 2732 0d9a B401      		movw r22,r8
 2733 0d9c 0E94 0000 		call __divmodsi4
 2734 0da0 AC01      		movw r20,r24
 2735 0da2 CB01      		movw r24,r22
 2736 0da4 DA01      		movw r26,r20
 2737 0da6 4C01      		movw r8,r24
 2738 0da8 5D01      		movw r10,r26
 2739               	.L116:
 2740               	.LBB701:
 2741               	.LBB702:
 2742               	.LM280:
 2743 0daa 89E1      		ldi r24,lo8(25)
 2744 0dac 90E0      		ldi r25,hi8(25)
 2745 0dae 2D81      		ldd r18,Y+5
 2746 0db0 3E81      		ldd r19,Y+6
 2747 0db2 289F      		mul r18,r24
 2748 0db4 B001      		movw r22,r0
 2749 0db6 299F      		mul r18,r25
 2750 0db8 700D      		add r23,r0
 2751 0dba 389F      		mul r19,r24
 2752 0dbc 700D      		add r23,r0
 2753 0dbe 1124      		clr r1
 2754 0dc0 620D      		add r22,r2
 2755 0dc2 731D      		adc r23,r3
 2756 0dc4 8981      		ldd r24,Y+1
 2757 0dc6 9A81      		ldd r25,Y+2
 2758 0dc8 AB81      		ldd r26,Y+3
 2759 0dca BC81      		ldd r27,Y+4
 2760 0dcc 840D      		add r24,r4
 2761 0dce 951D      		adc r25,r5
 2762 0dd0 A61D      		adc r26,r6
 2763 0dd2 B71D      		adc r27,r7
 2764 0dd4 FB01      		movw r30,r22
 2765 0dd6 878B      		std Z+23,r24
 2766 0dd8 908F      		std Z+24,r25
 2767 0dda A18F      		std Z+25,r26
 2768 0ddc B28F      		std Z+26,r27
 2769               	.LBE702:
 2770               	.LBE701:
 2771               	.LBB703:
 2772               	.LBB704:
 2773               	.LM281:
 2774 0dde DB01      		movw r26,r22
 2775 0de0 5B96      		adiw r26,27
 2776 0de2 8D92      		st X+,r8
 2777 0de4 9D92      		st X+,r9
 2778 0de6 AD92      		st X+,r10
 2779 0de8 BC92      		st X,r11
 2780 0dea 5E97      		sbiw r26,27+3
 2781               	.LBE704:
 2782               	.LBE703:
 2783               	.LM282:
 2784 0dec 5F96      		adiw r26,31
 2785 0dee 2D91      		ld r18,X+
 2786 0df0 3D91      		ld r19,X+
 2787 0df2 4D91      		ld r20,X+
 2788 0df4 5C91      		ld r21,X
 2789 0df6 9297      		sbiw r26,31+3
 2790               	.LVL180:
 2791 0df8 9396      		adiw r26,35
 2792 0dfa 8D91      		ld r24,X+
 2793 0dfc 9D91      		ld r25,X+
 2794 0dfe 0D90      		ld __tmp_reg__,X+
 2795 0e00 BC91      		ld r27,X
 2796 0e02 A02D      		mov r26,__tmp_reg__
 2797               	.LBB705:
 2798               	.LBB706:
 2799               	.LM283:
 2800 0e04 281B      		sub r18,r24
 2801 0e06 390B      		sbc r19,r25
 2802 0e08 4A0B      		sbc r20,r26
 2803 0e0a 5B0B      		sbc r21,r27
 2804 0e0c 57FF      		sbrs r21,7
 2805 0e0e 00C0      		rjmp .L117
 2806 0e10 20E0      		ldi r18,lo8(0)
 2807 0e12 30E0      		ldi r19,hi8(0)
 2808 0e14 40E0      		ldi r20,hlo8(0)
 2809 0e16 50E0      		ldi r21,hhi8(0)
 2810               	.L117:
 2811 0e18 FB01      		movw r30,r22
 2812 0e1a 27A3      		std Z+39,r18
 2813 0e1c 30A7      		std Z+40,r19
 2814 0e1e 41A7      		std Z+41,r20
 2815 0e20 52A7      		std Z+42,r21
 2816               	.LVL181:
 2817               	.L118:
 2818               	/* epilogue start */
 2819               	.LBE706:
 2820               	.LBE705:
 2821               	.LBE694:
 2822               	.LM284:
 2823 0e22 2696      		adiw r28,6
 2824 0e24 0FB6      		in __tmp_reg__,__SREG__
 2825 0e26 F894      		cli
 2826 0e28 DEBF      		out __SP_H__,r29
 2827 0e2a 0FBE      		out __SREG__,__tmp_reg__
 2828 0e2c CDBF      		out __SP_L__,r28
 2829 0e2e CF91      		pop r28
 2830 0e30 DF91      		pop r29
 2831 0e32 1F91      		pop r17
 2832 0e34 0F91      		pop r16
 2833               	.LVL182:
 2834 0e36 FF90      		pop r15
 2835 0e38 EF90      		pop r14
 2836 0e3a DF90      		pop r13
 2837 0e3c CF90      		pop r12
 2838 0e3e BF90      		pop r11
 2839 0e40 AF90      		pop r10
 2840               	.LVL183:
 2841 0e42 9F90      		pop r9
 2842 0e44 8F90      		pop r8
 2843               	.LVL184:
 2844 0e46 7F90      		pop r7
 2845 0e48 6F90      		pop r6
 2846 0e4a 5F90      		pop r5
 2847 0e4c 4F90      		pop r4
 2848               	.LVL185:
 2849 0e4e 3F90      		pop r3
 2850 0e50 2F90      		pop r2
 2851 0e52 0895      		ret
 2852               	.LFE43:
 2854               	.global	Timebase_UpCounter_SS_Expired
 2856               	Timebase_UpCounter_SS_Expired:
 2857               	.LFB44:
 2858               	.LM285:
 2859               	.LVL186:
 2860               	/* prologue: function */
 2861               	/* frame size = 0 */
 2862               	.LM286:
 2863 0e54 40E0      		ldi r20,lo8(0)
 2864 0e56 E091 0000 		lds r30,Timebase
 2865 0e5a F091 0000 		lds r31,(Timebase)+1
 2866 0e5e 90E0      		ldi r25,lo8(0)
 2867               	.LVL187:
 2868 0e60 29E1      		ldi r18,lo8(25)
 2869 0e62 30E0      		ldi r19,hi8(25)
 2870 0e64 BC01      		movw r22,r24
 2871 0e66 629F      		mul r22,r18
 2872 0e68 C001      		movw r24,r0
 2873 0e6a 639F      		mul r22,r19
 2874 0e6c 900D      		add r25,r0
 2875 0e6e 729F      		mul r23,r18
 2876 0e70 900D      		add r25,r0
 2877 0e72 1124      		clr r1
 2878               	.LVL188:
 2879 0e74 E80F      		add r30,r24
 2880 0e76 F91F      		adc r31,r25
 2881 0e78 8689      		ldd r24,Z+22
 2882 0e7a 8695      		lsr r24
 2883 0e7c 8F70      		andi r24,lo8(15)
 2884 0e7e 8430      		cpi r24,lo8(4)
 2885 0e80 01F4      		brne .L120
 2886 0e82 41E0      		ldi r20,lo8(1)
 2887               	.L120:
 2888               	.LM287:
 2889 0e84 842F      		mov r24,r20
 2890               	/* epilogue start */
 2891 0e86 0895      		ret
 2892               	.LFE44:
 2894               	.global	Timebase_UpCounter_SS_Expired_Event
 2896               	Timebase_UpCounter_SS_Expired_Event:
 2897               	.LFB45:
 2898               	.LM288:
 2899               	.LVL189:
 2900               	/* prologue: function */
 2901               	/* frame size = 0 */
 2902 0e88 482F      		mov r20,r24
 2903               	.LM289:
 2904 0e8a E091 0000 		lds r30,Timebase
 2905 0e8e F091 0000 		lds r31,(Timebase)+1
 2906 0e92 282F      		mov r18,r24
 2907 0e94 30E0      		ldi r19,lo8(0)
 2908               	.LVL190:
 2909 0e96 89E1      		ldi r24,lo8(25)
 2910 0e98 90E0      		ldi r25,hi8(25)
 2911               	.LVL191:
 2912 0e9a BC01      		movw r22,r24
 2913 0e9c 269F      		mul r18,r22
 2914 0e9e C001      		movw r24,r0
 2915 0ea0 279F      		mul r18,r23
 2916 0ea2 900D      		add r25,r0
 2917 0ea4 369F      		mul r19,r22
 2918 0ea6 900D      		add r25,r0
 2919 0ea8 1124      		clr r1
 2920 0eaa E80F      		add r30,r24
 2921 0eac F91F      		adc r31,r25
 2922 0eae 8689      		ldd r24,Z+22
 2923 0eb0 8695      		lsr r24
 2924 0eb2 8F70      		andi r24,lo8(15)
 2925 0eb4 8430      		cpi r24,lo8(4)
 2926 0eb6 01F0      		breq .L123
 2927 0eb8 80E0      		ldi r24,lo8(0)
 2928 0eba 0895      		ret
 2929               	.L123:
 2930               	.LBB707:
 2931               	.LBB708:
 2932               	.LM290:
 2933 0ebc 842F      		mov r24,r20
 2934 0ebe 0E94 0000 		call Timebase_UpCounter_SS_Reset
 2935               	.LVL192:
 2936 0ec2 81E0      		ldi r24,lo8(1)
 2937               	.LBE708:
 2938               	.LBE707:
 2939               	.LM291:
 2940 0ec4 0895      		ret
 2941               	.LFE45:
 2943               	.global	Timebase_UpCounter_SS_Set_Period_Value_Securely
 2945               	Timebase_UpCounter_SS_Set_Period_Value_Securely:
 2946               	.LFB46:
 2947               	.LM292:
 2948               	.LVL193:
 2949               	/* prologue: function */
 2950               	/* frame size = 0 */
 2951               	.LBB709:
 2952               	.LBB710:
 2953               	.LM293:
 2954 0ec6 E091 0000 		lds r30,Timebase
 2955 0eca F091 0000 		lds r31,(Timebase)+1
 2956 0ece 90E0      		ldi r25,lo8(0)
 2957               	.LBE710:
 2958               	.LBE709:
 2959               	.LM294:
 2960 0ed0 29E1      		ldi r18,lo8(25)
 2961 0ed2 30E0      		ldi r19,hi8(25)
 2962 0ed4 DC01      		movw r26,r24
 2963               	.LVL194:
 2964 0ed6 A29F      		mul r26,r18
 2965 0ed8 C001      		movw r24,r0
 2966 0eda A39F      		mul r26,r19
 2967 0edc 900D      		add r25,r0
 2968 0ede B29F      		mul r27,r18
 2969 0ee0 900D      		add r25,r0
 2970 0ee2 1124      		clr r1
 2971 0ee4 E80F      		add r30,r24
 2972 0ee6 F91F      		adc r31,r25
 2973 0ee8 8689      		ldd r24,Z+22
 2974 0eea 80FD      		sbrc r24,0
 2975 0eec 00C0      		rjmp .L128
 2976               	.LBB711:
 2977               	.LBB712:
 2978               	.LM295:
 2979 0eee 87A1      		ldd r24,Z+39
 2980 0ef0 90A5      		ldd r25,Z+40
 2981 0ef2 A1A5      		ldd r26,Z+41
 2982 0ef4 B2A5      		ldd r27,Z+42
 2983 0ef6 840F      		add r24,r20
 2984 0ef8 951F      		adc r25,r21
 2985 0efa A61F      		adc r26,r22
 2986 0efc B71F      		adc r27,r23
 2987 0efe 83A7      		std Z+43,r24
 2988 0f00 94A7      		std Z+44,r25
 2989 0f02 A5A7      		std Z+45,r26
 2990 0f04 B6A7      		std Z+46,r27
 2991               	.LBE712:
 2992               	.LBE711:
 2993               	.LBB713:
 2994               	.LBB714:
 2995               	.LM296:
 2996 0f06 8689      		ldd r24,Z+22
 2997 0f08 8160      		ori r24,lo8(1)
 2998 0f0a 868B      		std Z+22,r24
 2999               	.L128:
 3000 0f0c 0895      		ret
 3001               	.LBE714:
 3002               	.LBE713:
 3003               	.LFE46:
 3005               	.global	Timebase_UpCounter_SS_Get_Remaining_Period_Value
 3007               	Timebase_UpCounter_SS_Get_Remaining_Period_Value:
 3008               	.LFB47:
 3009               	.LM297:
 3010               	.LVL195:
 3011               	/* prologue: function */
 3012               	/* frame size = 0 */
 3013               	.LBB715:
 3014               	.LBB716:
 3015               	.LM298:
 3016 0f0e E091 0000 		lds r30,Timebase
 3017 0f12 F091 0000 		lds r31,(Timebase)+1
 3018 0f16 90E0      		ldi r25,lo8(0)
 3019 0f18 29E1      		ldi r18,lo8(25)
 3020 0f1a 30E0      		ldi r19,hi8(25)
 3021 0f1c AC01      		movw r20,r24
 3022               	.LVL196:
 3023 0f1e 429F      		mul r20,r18
 3024 0f20 C001      		movw r24,r0
 3025 0f22 439F      		mul r20,r19
 3026 0f24 900D      		add r25,r0
 3027 0f26 529F      		mul r21,r18
 3028 0f28 900D      		add r25,r0
 3029 0f2a 1124      		clr r1
 3030 0f2c E80F      		add r30,r24
 3031 0f2e F91F      		adc r31,r25
 3032 0f30 23A5      		ldd r18,Z+43
 3033 0f32 34A5      		ldd r19,Z+44
 3034 0f34 45A5      		ldd r20,Z+45
 3035 0f36 56A5      		ldd r21,Z+46
 3036               	.LVL197:
 3037               	.LBE716:
 3038               	.LBE715:
 3039               	.LM299:
 3040 0f38 87A1      		ldd r24,Z+39
 3041 0f3a 90A5      		ldd r25,Z+40
 3042 0f3c A1A5      		ldd r26,Z+41
 3043 0f3e B2A5      		ldd r27,Z+42
 3044 0f40 281B      		sub r18,r24
 3045 0f42 390B      		sbc r19,r25
 3046 0f44 4A0B      		sbc r20,r26
 3047 0f46 5B0B      		sbc r21,r27
 3048 0f48 57FF      		sbrs r21,7
 3049 0f4a 00C0      		rjmp .L130
 3050 0f4c 20E0      		ldi r18,lo8(0)
 3051 0f4e 30E0      		ldi r19,hi8(0)
 3052 0f50 40E0      		ldi r20,hlo8(0)
 3053 0f52 50E0      		ldi r21,hhi8(0)
 3054               	.L130:
 3055               	.LM300:
 3056 0f54 B901      		movw r22,r18
 3057               	.LVL198:
 3058 0f56 CA01      		movw r24,r20
 3059               	/* epilogue start */
 3060 0f58 0895      		ret
 3061               	.LFE47:
 3063               	.global	Timebase_UpCounter_SS_Period_Value_Expired
 3065               	Timebase_UpCounter_SS_Period_Value_Expired:
 3066               	.LFB48:
 3067               	.LM301:
 3068               	.LVL199:
 3069 0f5a CF93      		push r28
 3070 0f5c DF93      		push r29
 3071               	/* prologue: function */
 3072               	/* frame size = 0 */
 3073               	.LBB717:
 3074               	.LBB718:
 3075               	.LBB719:
 3076               	.LBB720:
 3077               	.LM302:
 3078 0f5e C091 0000 		lds r28,Timebase
 3079 0f62 D091 0000 		lds r29,(Timebase)+1
 3080 0f66 682F      		mov r22,r24
 3081 0f68 70E0      		ldi r23,lo8(0)
 3082 0f6a 89E1      		ldi r24,lo8(25)
 3083 0f6c 90E0      		ldi r25,hi8(25)
 3084               	.LVL200:
 3085 0f6e 689F      		mul r22,r24
 3086 0f70 F001      		movw r30,r0
 3087 0f72 699F      		mul r22,r25
 3088 0f74 F00D      		add r31,r0
 3089 0f76 789F      		mul r23,r24
 3090 0f78 F00D      		add r31,r0
 3091 0f7a 1124      		clr r1
 3092 0f7c EC0F      		add r30,r28
 3093 0f7e FD1F      		adc r31,r29
 3094 0f80 23A5      		ldd r18,Z+43
 3095 0f82 34A5      		ldd r19,Z+44
 3096 0f84 45A5      		ldd r20,Z+45
 3097 0f86 56A5      		ldd r21,Z+46
 3098               	.LVL201:
 3099               	.LBE720:
 3100               	.LBE719:
 3101               	.LM303:
 3102 0f88 87A1      		ldd r24,Z+39
 3103 0f8a 90A5      		ldd r25,Z+40
 3104 0f8c A1A5      		ldd r26,Z+41
 3105 0f8e B2A5      		ldd r27,Z+42
 3106 0f90 281B      		sub r18,r24
 3107 0f92 390B      		sbc r19,r25
 3108 0f94 4A0B      		sbc r20,r26
 3109 0f96 5B0B      		sbc r21,r27
 3110               	.LM304:
 3111 0f98 57FD      		sbrc r21,7
 3112 0f9a 00C0      		rjmp .L133
 3113               	.LBE718:
 3114               	.LBE717:
 3115               	.LM305:
 3116 0f9c 2115      		cp r18,__zero_reg__
 3117 0f9e 3105      		cpc r19,__zero_reg__
 3118 0fa0 4105      		cpc r20,__zero_reg__
 3119 0fa2 5105      		cpc r21,__zero_reg__
 3120 0fa4 01F0      		breq .L133
 3121 0fa6 20E0      		ldi r18,lo8(0)
 3122               	.LVL202:
 3123 0fa8 00C0      		rjmp .L134
 3124               	.LVL203:
 3125               	.L133:
 3126 0faa 20E0      		ldi r18,lo8(0)
 3127               	.LVL204:
 3128 0fac 89E1      		ldi r24,lo8(25)
 3129 0fae 90E0      		ldi r25,hi8(25)
 3130 0fb0 AC01      		movw r20,r24
 3131 0fb2 649F      		mul r22,r20
 3132 0fb4 C001      		movw r24,r0
 3133 0fb6 659F      		mul r22,r21
 3134 0fb8 900D      		add r25,r0
 3135 0fba 749F      		mul r23,r20
 3136 0fbc 900D      		add r25,r0
 3137 0fbe 1124      		clr r1
 3138 0fc0 C80F      		add r28,r24
 3139 0fc2 D91F      		adc r29,r25
 3140 0fc4 8E89      		ldd r24,Y+22
 3141 0fc6 80FF      		sbrs r24,0
 3142 0fc8 21E0      		ldi r18,lo8(1)
 3143               	.L135:
 3144 0fca 81E0      		ldi r24,lo8(1)
 3145 0fcc 2827      		eor r18,r24
 3146               	.L134:
 3147               	.LM306:
 3148 0fce 822F      		mov r24,r18
 3149               	/* epilogue start */
 3150 0fd0 DF91      		pop r29
 3151 0fd2 CF91      		pop r28
 3152 0fd4 0895      		ret
 3153               	.LFE48:
 3155               	.global	Timebase_UpCounter_SS_Period_Value_Expired_Event
 3157               	Timebase_UpCounter_SS_Period_Value_Expired_Event:
 3158               	.LFB49:
 3159               	.LM307:
 3160               	.LVL205:
 3161 0fd6 1F93      		push r17
 3162               	/* prologue: function */
 3163               	/* frame size = 0 */
 3164 0fd8 182F      		mov r17,r24
 3165               	.LM308:
 3166 0fda 0E94 0000 		call Timebase_UpCounter_SS_Period_Value_Expired
 3167               	.LVL206:
 3168 0fde 8130      		cpi r24,lo8(1)
 3169 0fe0 01F0      		breq .L138
 3170 0fe2 80E0      		ldi r24,lo8(0)
 3171 0fe4 00C0      		rjmp .L139
 3172               	.L138:
 3173               	.LBB721:
 3174               	.LBB722:
 3175               	.LM309:
 3176 0fe6 E091 0000 		lds r30,Timebase
 3177 0fea F091 0000 		lds r31,(Timebase)+1
 3178 0fee 212F      		mov r18,r17
 3179 0ff0 30E0      		ldi r19,lo8(0)
 3180               	.LVL207:
 3181 0ff2 89E1      		ldi r24,lo8(25)
 3182 0ff4 90E0      		ldi r25,hi8(25)
 3183 0ff6 AC01      		movw r20,r24
 3184 0ff8 249F      		mul r18,r20
 3185 0ffa C001      		movw r24,r0
 3186 0ffc 259F      		mul r18,r21
 3187 0ffe 900D      		add r25,r0
 3188 1000 349F      		mul r19,r20
 3189 1002 900D      		add r25,r0
 3190 1004 1124      		clr r1
 3191 1006 E80F      		add r30,r24
 3192 1008 F91F      		adc r31,r25
 3193 100a 8689      		ldd r24,Z+22
 3194 100c 8E7F      		andi r24,lo8(-2)
 3195 100e 868B      		std Z+22,r24
 3196 1010 81E0      		ldi r24,lo8(1)
 3197               	.L139:
 3198               	/* epilogue start */
 3199               	.LBE722:
 3200               	.LBE721:
 3201               	.LM310:
 3202 1012 1F91      		pop r17
 3203               	.LVL208:
 3204 1014 0895      		ret
 3205               	.LFE49:
 3207               	.global	Timebase_UpCounter_SS_Update_All
 3209               	Timebase_UpCounter_SS_Update_All:
 3210               	.LFB50:
 3211               	.LM311:
 3212               	/* prologue: function */
 3213               	/* frame size = 0 */
 3214               	.LBB723:
 3215               	.LM312:
 3216 1016 80E0      		ldi r24,lo8(0)
 3217 1018 0E94 0000 		call Timebase_UpCounter_SS_Update
 3218               	/* epilogue start */
 3219               	.LBE723:
 3220               	.LM313:
 3221 101c 0895      		ret
 3222               	.LFE50:
 3224               	.global	Timebase_UpCounter_SS_Reset_All
 3226               	Timebase_UpCounter_SS_Reset_All:
 3227               	.LFB51:
 3228               	.LM314:
 3229               	/* prologue: function */
 3230               	/* frame size = 0 */
 3231               	.LBB724:
 3232               	.LM315:
 3233 101e 80E0      		ldi r24,lo8(0)
 3234 1020 0E94 0000 		call Timebase_UpCounter_SS_Reset
 3235               	/* epilogue start */
 3236               	.LBE724:
 3237               	.LM316:
 3238 1024 0895      		ret
 3239               	.LFE51:
 3241               	.global	Timebase_UpCounter_Get_Status
 3243               	Timebase_UpCounter_Get_Status:
 3244               	.LFB52:
 3245               	.LM317:
 3246               	.LVL209:
 3247               	/* prologue: function */
 3248               	/* frame size = 0 */
 3249               	.LM318:
 3250 1026 E091 0000 		lds r30,Timebase
 3251 102a F091 0000 		lds r31,(Timebase)+1
 3252 102e 90E0      		ldi r25,lo8(0)
 3253               	.LVL210:
 3254 1030 25E1      		ldi r18,lo8(21)
 3255 1032 30E0      		ldi r19,hi8(21)
 3256 1034 AC01      		movw r20,r24
 3257 1036 429F      		mul r20,r18
 3258 1038 C001      		movw r24,r0
 3259 103a 439F      		mul r20,r19
 3260 103c 900D      		add r25,r0
 3261 103e 529F      		mul r21,r18
 3262 1040 900D      		add r25,r0
 3263 1042 1124      		clr r1
 3264               	.LVL211:
 3265 1044 E80F      		add r30,r24
 3266 1046 F91F      		adc r31,r25
 3267 1048 87A5      		ldd r24,Z+47
 3268 104a 8695      		lsr r24
 3269               	.LM319:
 3270 104c 8F70      		andi r24,lo8(15)
 3271               	/* epilogue start */
 3272 104e 0895      		ret
 3273               	.LFE52:
 3275               	.global	Timebase_UpCounter_Set_Status
 3277               	Timebase_UpCounter_Set_Status:
 3278               	.LFB53:
 3279               	.LM320:
 3280               	.LVL212:
 3281               	/* prologue: function */
 3282               	/* frame size = 0 */
 3283               	.LM321:
 3284 1050 E091 0000 		lds r30,Timebase
 3285 1054 F091 0000 		lds r31,(Timebase)+1
 3286 1058 90E0      		ldi r25,lo8(0)
 3287               	.LVL213:
 3288 105a 25E1      		ldi r18,lo8(21)
 3289 105c 30E0      		ldi r19,hi8(21)
 3290 105e AC01      		movw r20,r24
 3291 1060 429F      		mul r20,r18
 3292 1062 C001      		movw r24,r0
 3293 1064 439F      		mul r20,r19
 3294 1066 900D      		add r25,r0
 3295 1068 529F      		mul r21,r18
 3296 106a 900D      		add r25,r0
 3297 106c 1124      		clr r1
 3298               	.LVL214:
 3299 106e E80F      		add r30,r24
 3300 1070 F91F      		adc r31,r25
 3301 1072 6F70      		andi r22,lo8(15)
 3302               	.LVL215:
 3303 1074 660F      		lsl r22
 3304 1076 87A5      		ldd r24,Z+47
 3305 1078 817E      		andi r24,lo8(-31)
 3306 107a 862B      		or r24,r22
 3307 107c 87A7      		std Z+47,r24
 3308               	/* epilogue start */
 3309               	.LM322:
 3310 107e 0895      		ret
 3311               	.LFE53:
 3313               	.global	Timebase_UpCounter_Get_Value
 3315               	Timebase_UpCounter_Get_Value:
 3316               	.LFB54:
 3317               	.LM323:
 3318               	.LVL216:
 3319               	/* prologue: function */
 3320               	/* frame size = 0 */
 3321               	.LM324:
 3322 1080 E091 0000 		lds r30,Timebase
 3323 1084 F091 0000 		lds r31,(Timebase)+1
 3324 1088 90E0      		ldi r25,lo8(0)
 3325               	.LVL217:
 3326 108a 25E1      		ldi r18,lo8(21)
 3327 108c 30E0      		ldi r19,hi8(21)
 3328 108e AC01      		movw r20,r24
 3329 1090 429F      		mul r20,r18
 3330 1092 C001      		movw r24,r0
 3331 1094 439F      		mul r20,r19
 3332 1096 900D      		add r25,r0
 3333 1098 529F      		mul r21,r18
 3334 109a 900D      		add r25,r0
 3335 109c 1124      		clr r1
 3336               	.LVL218:
 3337 109e E80F      		add r30,r24
 3338 10a0 F91F      		adc r31,r25
 3339 10a2 DF01      		movw r26,r30
 3340 10a4 DC96      		adiw r26,60
 3341 10a6 64AD      		ldd r22,Z+60
 3342 10a8 1196      		adiw r26,1
 3343 10aa 7C91      		ld r23,X
 3344 10ac 1197      		sbiw r26,1
 3345               	.LM325:
 3346 10ae 1296      		adiw r26,2
 3347 10b0 8C91      		ld r24,X
 3348 10b2 1297      		sbiw r26,2
 3349 10b4 1396      		adiw r26,3
 3350 10b6 9C91      		ld r25,X
 3351               	.LVL219:
 3352               	/* epilogue start */
 3353 10b8 0895      		ret
 3354               	.LFE54:
 3356               	.global	Timebase_UpCounter_Set_Value
 3358               	Timebase_UpCounter_Set_Value:
 3359               	.LFB55:
 3360               	.LM326:
 3361               	.LVL220:
 3362 10ba CF93      		push r28
 3363 10bc DF93      		push r29
 3364               	/* prologue: function */
 3365               	/* frame size = 0 */
 3366               	.LM327:
 3367 10be C091 0000 		lds r28,Timebase
 3368 10c2 D091 0000 		lds r29,(Timebase)+1
 3369 10c6 90E0      		ldi r25,lo8(0)
 3370               	.LVL221:
 3371 10c8 25E1      		ldi r18,lo8(21)
 3372 10ca 30E0      		ldi r19,hi8(21)
 3373 10cc FC01      		movw r30,r24
 3374 10ce E29F      		mul r30,r18
 3375 10d0 C001      		movw r24,r0
 3376 10d2 E39F      		mul r30,r19
 3377 10d4 900D      		add r25,r0
 3378 10d6 F29F      		mul r31,r18
 3379 10d8 900D      		add r25,r0
 3380 10da 1124      		clr r1
 3381               	.LVL222:
 3382 10dc C80F      		add r28,r24
 3383 10de D91F      		adc r29,r25
 3384 10e0 CA01      		movw r24,r20
 3385               	.LVL223:
 3386 10e2 DB01      		movw r26,r22
 3387 10e4 B7FF      		sbrs r27,7
 3388 10e6 00C0      		rjmp .L152
 3389               	.LVL224:
 3390 10e8 80E0      		ldi r24,lo8(0)
 3391 10ea 90E0      		ldi r25,hi8(0)
 3392 10ec A0E0      		ldi r26,hlo8(0)
 3393 10ee B0E0      		ldi r27,hhi8(0)
 3394               	.L152:
 3395 10f0 8CAF      		std Y+60,r24
 3396 10f2 9DAF      		std Y+61,r25
 3397 10f4 AEAF      		std Y+62,r26
 3398 10f6 BFAF      		std Y+63,r27
 3399               	/* epilogue start */
 3400               	.LM328:
 3401 10f8 DF91      		pop r29
 3402 10fa CF91      		pop r28
 3403 10fc 0895      		ret
 3404               	.LFE55:
 3406               	.global	Timebase_UpCounter_Get_EndValueSec
 3408               	Timebase_UpCounter_Get_EndValueSec:
 3409               	.LFB56:
 3410               	.LM329:
 3411               	.LVL225:
 3412               	/* prologue: function */
 3413               	/* frame size = 0 */
 3414               	.LM330:
 3415 10fe E091 0000 		lds r30,Timebase
 3416 1102 F091 0000 		lds r31,(Timebase)+1
 3417 1106 90E0      		ldi r25,lo8(0)
 3418               	.LVL226:
 3419 1108 25E1      		ldi r18,lo8(21)
 3420 110a 30E0      		ldi r19,hi8(21)
 3421 110c AC01      		movw r20,r24
 3422 110e 429F      		mul r20,r18
 3423 1110 C001      		movw r24,r0
 3424 1112 439F      		mul r20,r19
 3425 1114 900D      		add r25,r0
 3426 1116 529F      		mul r21,r18
 3427 1118 900D      		add r25,r0
 3428 111a 1124      		clr r1
 3429               	.LVL227:
 3430 111c E80F      		add r30,r24
 3431 111e F91F      		adc r31,r25
 3432 1120 DF01      		movw r26,r30
 3433 1122 D096      		adiw r26,48
 3434 1124 60A9      		ldd r22,Z+48
 3435 1126 1196      		adiw r26,1
 3436 1128 7C91      		ld r23,X
 3437 112a 1197      		sbiw r26,1
 3438               	.LM331:
 3439 112c 1296      		adiw r26,2
 3440 112e 8C91      		ld r24,X
 3441 1130 1297      		sbiw r26,2
 3442 1132 1396      		adiw r26,3
 3443 1134 9C91      		ld r25,X
 3444               	.LVL228:
 3445               	/* epilogue start */
 3446 1136 0895      		ret
 3447               	.LFE56:
 3449               	.global	Timebase_UpCounter_Get_EndValueSubSec
 3451               	Timebase_UpCounter_Get_EndValueSubSec:
 3452               	.LFB57:
 3453               	.LM332:
 3454               	.LVL229:
 3455               	/* prologue: function */
 3456               	/* frame size = 0 */
 3457               	.LM333:
 3458 1138 E091 0000 		lds r30,Timebase
 3459 113c F091 0000 		lds r31,(Timebase)+1
 3460 1140 90E0      		ldi r25,lo8(0)
 3461               	.LVL230:
 3462 1142 25E1      		ldi r18,lo8(21)
 3463 1144 30E0      		ldi r19,hi8(21)
 3464 1146 AC01      		movw r20,r24
 3465 1148 429F      		mul r20,r18
 3466 114a C001      		movw r24,r0
 3467 114c 439F      		mul r20,r19
 3468 114e 900D      		add r25,r0
 3469 1150 529F      		mul r21,r18
 3470 1152 900D      		add r25,r0
 3471 1154 1124      		clr r1
 3472               	.LVL231:
 3473 1156 E80F      		add r30,r24
 3474 1158 F91F      		adc r31,r25
 3475 115a DF01      		movw r26,r30
 3476 115c D096      		adiw r26,48
 3477 115e 60A9      		ldd r22,Z+48
 3478 1160 1196      		adiw r26,1
 3479 1162 7C91      		ld r23,X
 3480 1164 1197      		sbiw r26,1
 3481               	.LM334:
 3482 1166 1296      		adiw r26,2
 3483 1168 8C91      		ld r24,X
 3484 116a 1297      		sbiw r26,2
 3485 116c 1396      		adiw r26,3
 3486 116e 9C91      		ld r25,X
 3487               	.LVL232:
 3488               	/* epilogue start */
 3489 1170 0895      		ret
 3490               	.LFE57:
 3492               	.global	Timebase_UpCounter_Set_EndValueSec
 3494               	Timebase_UpCounter_Set_EndValueSec:
 3495               	.LFB58:
 3496               	.LM335:
 3497               	.LVL233:
 3498               	/* prologue: function */
 3499               	/* frame size = 0 */
 3500               	.LM336:
 3501 1172 E091 0000 		lds r30,Timebase
 3502 1176 F091 0000 		lds r31,(Timebase)+1
 3503 117a 90E0      		ldi r25,lo8(0)
 3504               	.LVL234:
 3505 117c 25E1      		ldi r18,lo8(21)
 3506 117e 30E0      		ldi r19,hi8(21)
 3507 1180 DC01      		movw r26,r24
 3508 1182 A29F      		mul r26,r18
 3509 1184 C001      		movw r24,r0
 3510 1186 A39F      		mul r26,r19
 3511 1188 900D      		add r25,r0
 3512 118a B29F      		mul r27,r18
 3513 118c 900D      		add r25,r0
 3514 118e 1124      		clr r1
 3515               	.LVL235:
 3516 1190 E80F      		add r30,r24
 3517 1192 F91F      		adc r31,r25
 3518 1194 40AB      		std Z+48,r20
 3519 1196 51AB      		std Z+49,r21
 3520 1198 62AB      		std Z+50,r22
 3521 119a 73AB      		std Z+51,r23
 3522               	/* epilogue start */
 3523               	.LM337:
 3524 119c 0895      		ret
 3525               	.LFE58:
 3527               	.global	Timebase_UpCounter_Set_EndValueSubSec
 3529               	Timebase_UpCounter_Set_EndValueSubSec:
 3530               	.LFB59:
 3531               	.LM338:
 3532               	.LVL236:
 3533               	/* prologue: function */
 3534               	/* frame size = 0 */
 3535               	.LM339:
 3536 119e E091 0000 		lds r30,Timebase
 3537 11a2 F091 0000 		lds r31,(Timebase)+1
 3538 11a6 90E0      		ldi r25,lo8(0)
 3539               	.LVL237:
 3540 11a8 25E1      		ldi r18,lo8(21)
 3541 11aa 30E0      		ldi r19,hi8(21)
 3542 11ac DC01      		movw r26,r24
 3543 11ae A29F      		mul r26,r18
 3544 11b0 C001      		movw r24,r0
 3545 11b2 A39F      		mul r26,r19
 3546 11b4 900D      		add r25,r0
 3547 11b6 B29F      		mul r27,r18
 3548 11b8 900D      		add r25,r0
 3549 11ba 1124      		clr r1
 3550               	.LVL238:
 3551 11bc E80F      		add r30,r24
 3552 11be F91F      		adc r31,r25
 3553 11c0 40AB      		std Z+48,r20
 3554 11c2 51AB      		std Z+49,r21
 3555 11c4 62AB      		std Z+50,r22
 3556 11c6 73AB      		std Z+51,r23
 3557               	/* epilogue start */
 3558               	.LM340:
 3559 11c8 0895      		ret
 3560               	.LFE59:
 3562               	.global	Timebase_UpCounter_Get_TargetValue
 3564               	Timebase_UpCounter_Get_TargetValue:
 3565               	.LFB60:
 3566               	.LM341:
 3567               	.LVL239:
 3568               	/* prologue: function */
 3569               	/* frame size = 0 */
 3570               	.LM342:
 3571 11ca E091 0000 		lds r30,Timebase
 3572 11ce F091 0000 		lds r31,(Timebase)+1
 3573 11d2 90E0      		ldi r25,lo8(0)
 3574               	.LVL240:
 3575 11d4 25E1      		ldi r18,lo8(21)
 3576 11d6 30E0      		ldi r19,hi8(21)
 3577 11d8 AC01      		movw r20,r24
 3578 11da 429F      		mul r20,r18
 3579 11dc C001      		movw r24,r0
 3580 11de 439F      		mul r20,r19
 3581 11e0 900D      		add r25,r0
 3582 11e2 529F      		mul r21,r18
 3583 11e4 900D      		add r25,r0
 3584 11e6 1124      		clr r1
 3585               	.LVL241:
 3586 11e8 E80F      		add r30,r24
 3587 11ea F91F      		adc r31,r25
 3588 11ec DF01      		movw r26,r30
 3589 11ee D496      		adiw r26,52
 3590 11f0 64A9      		ldd r22,Z+52
 3591 11f2 1196      		adiw r26,1
 3592 11f4 7C91      		ld r23,X
 3593 11f6 1197      		sbiw r26,1
 3594               	.LM343:
 3595 11f8 1296      		adiw r26,2
 3596 11fa 8C91      		ld r24,X
 3597 11fc 1297      		sbiw r26,2
 3598 11fe 1396      		adiw r26,3
 3599 1200 9C91      		ld r25,X
 3600               	.LVL242:
 3601               	/* epilogue start */
 3602 1202 0895      		ret
 3603               	.LFE60:
 3605               	.global	Timebase_UpCounter_Set_TargetValue
 3607               	Timebase_UpCounter_Set_TargetValue:
 3608               	.LFB61:
 3609               	.LM344:
 3610               	.LVL243:
 3611               	/* prologue: function */
 3612               	/* frame size = 0 */
 3613               	.LM345:
 3614 1204 E091 0000 		lds r30,Timebase
 3615 1208 F091 0000 		lds r31,(Timebase)+1
 3616 120c 90E0      		ldi r25,lo8(0)
 3617               	.LVL244:
 3618 120e 25E1      		ldi r18,lo8(21)
 3619 1210 30E0      		ldi r19,hi8(21)
 3620 1212 DC01      		movw r26,r24
 3621 1214 A29F      		mul r26,r18
 3622 1216 C001      		movw r24,r0
 3623 1218 A39F      		mul r26,r19
 3624 121a 900D      		add r25,r0
 3625 121c B29F      		mul r27,r18
 3626 121e 900D      		add r25,r0
 3627 1220 1124      		clr r1
 3628               	.LVL245:
 3629 1222 E80F      		add r30,r24
 3630 1224 F91F      		adc r31,r25
 3631 1226 44AB      		std Z+52,r20
 3632 1228 55AB      		std Z+53,r21
 3633 122a 66AB      		std Z+54,r22
 3634 122c 77AB      		std Z+55,r23
 3635               	/* epilogue start */
 3636               	.LM346:
 3637 122e 0895      		ret
 3638               	.LFE61:
 3640               	.global	Timebase_UpCounter_Get_TemporaryValue
 3642               	Timebase_UpCounter_Get_TemporaryValue:
 3643               	.LFB62:
 3644               	.LM347:
 3645               	.LVL246:
 3646               	/* prologue: function */
 3647               	/* frame size = 0 */
 3648               	.LM348:
 3649 1230 E091 0000 		lds r30,Timebase
 3650 1234 F091 0000 		lds r31,(Timebase)+1
 3651 1238 90E0      		ldi r25,lo8(0)
 3652               	.LVL247:
 3653 123a 25E1      		ldi r18,lo8(21)
 3654 123c 30E0      		ldi r19,hi8(21)
 3655 123e AC01      		movw r20,r24
 3656 1240 429F      		mul r20,r18
 3657 1242 C001      		movw r24,r0
 3658 1244 439F      		mul r20,r19
 3659 1246 900D      		add r25,r0
 3660 1248 529F      		mul r21,r18
 3661 124a 900D      		add r25,r0
 3662 124c 1124      		clr r1
 3663               	.LVL248:
 3664 124e E80F      		add r30,r24
 3665 1250 F91F      		adc r31,r25
 3666 1252 DF01      		movw r26,r30
 3667 1254 D896      		adiw r26,56
 3668 1256 60AD      		ldd r22,Z+56
 3669 1258 1196      		adiw r26,1
 3670 125a 7C91      		ld r23,X
 3671 125c 1197      		sbiw r26,1
 3672               	.LM349:
 3673 125e 1296      		adiw r26,2
 3674 1260 8C91      		ld r24,X
 3675 1262 1297      		sbiw r26,2
 3676 1264 1396      		adiw r26,3
 3677 1266 9C91      		ld r25,X
 3678               	.LVL249:
 3679               	/* epilogue start */
 3680 1268 0895      		ret
 3681               	.LFE62:
 3683               	.global	Timebase_UpCounter_Set_TemporaryValue
 3685               	Timebase_UpCounter_Set_TemporaryValue:
 3686               	.LFB63:
 3687               	.LM350:
 3688               	.LVL250:
 3689 126a CF93      		push r28
 3690 126c DF93      		push r29
 3691               	/* prologue: function */
 3692               	/* frame size = 0 */
 3693               	.LM351:
 3694 126e C091 0000 		lds r28,Timebase
 3695 1272 D091 0000 		lds r29,(Timebase)+1
 3696 1276 90E0      		ldi r25,lo8(0)
 3697               	.LVL251:
 3698 1278 25E1      		ldi r18,lo8(21)
 3699 127a 30E0      		ldi r19,hi8(21)
 3700 127c FC01      		movw r30,r24
 3701 127e E29F      		mul r30,r18
 3702 1280 C001      		movw r24,r0
 3703 1282 E39F      		mul r30,r19
 3704 1284 900D      		add r25,r0
 3705 1286 F29F      		mul r31,r18
 3706 1288 900D      		add r25,r0
 3707 128a 1124      		clr r1
 3708               	.LVL252:
 3709 128c C80F      		add r28,r24
 3710 128e D91F      		adc r29,r25
 3711 1290 CA01      		movw r24,r20
 3712               	.LVL253:
 3713 1292 DB01      		movw r26,r22
 3714 1294 B7FF      		sbrs r27,7
 3715 1296 00C0      		rjmp .L169
 3716               	.LVL254:
 3717 1298 80E0      		ldi r24,lo8(0)
 3718 129a 90E0      		ldi r25,hi8(0)
 3719 129c A0E0      		ldi r26,hlo8(0)
 3720 129e B0E0      		ldi r27,hhi8(0)
 3721               	.L169:
 3722 12a0 88AF      		std Y+56,r24
 3723 12a2 99AF      		std Y+57,r25
 3724 12a4 AAAF      		std Y+58,r26
 3725 12a6 BBAF      		std Y+59,r27
 3726               	/* epilogue start */
 3727               	.LM352:
 3728 12a8 DF91      		pop r29
 3729 12aa CF91      		pop r28
 3730 12ac 0895      		ret
 3731               	.LFE63:
 3733               	.global	Timebase_UpCounter_Get_PeriodValue
 3735               	Timebase_UpCounter_Get_PeriodValue:
 3736               	.LFB64:
 3737               	.LM353:
 3738               	.LVL255:
 3739               	/* prologue: function */
 3740               	/* frame size = 0 */
 3741               	.LM354:
 3742 12ae E091 0000 		lds r30,Timebase
 3743 12b2 F091 0000 		lds r31,(Timebase)+1
 3744 12b6 90E0      		ldi r25,lo8(0)
 3745               	.LVL256:
 3746 12b8 25E1      		ldi r18,lo8(21)
 3747 12ba 30E0      		ldi r19,hi8(21)
 3748 12bc AC01      		movw r20,r24
 3749 12be 429F      		mul r20,r18
 3750 12c0 C001      		movw r24,r0
 3751 12c2 439F      		mul r20,r19
 3752 12c4 900D      		add r25,r0
 3753 12c6 529F      		mul r21,r18
 3754 12c8 900D      		add r25,r0
 3755 12ca 1124      		clr r1
 3756               	.LVL257:
 3757 12cc E80F      		add r30,r24
 3758 12ce F91F      		adc r31,r25
 3759 12d0 E05C      		subi r30,lo8(-(64))
 3760 12d2 FF4F      		sbci r31,hi8(-(64))
 3761 12d4 6081      		ld r22,Z
 3762 12d6 7181      		ldd r23,Z+1
 3763               	.LM355:
 3764 12d8 8281      		ldd r24,Z+2
 3765 12da 9381      		ldd r25,Z+3
 3766               	.LVL258:
 3767               	/* epilogue start */
 3768 12dc 0895      		ret
 3769               	.LFE64:
 3771               	.global	Timebase_UpCounter_Set_PeriodValue
 3773               	Timebase_UpCounter_Set_PeriodValue:
 3774               	.LFB65:
 3775               	.LM356:
 3776               	.LVL259:
 3777               	/* prologue: function */
 3778               	/* frame size = 0 */
 3779               	.LM357:
 3780 12de E091 0000 		lds r30,Timebase
 3781 12e2 F091 0000 		lds r31,(Timebase)+1
 3782 12e6 90E0      		ldi r25,lo8(0)
 3783               	.LVL260:
 3784 12e8 25E1      		ldi r18,lo8(21)
 3785 12ea 30E0      		ldi r19,hi8(21)
 3786 12ec DC01      		movw r26,r24
 3787 12ee A29F      		mul r26,r18
 3788 12f0 C001      		movw r24,r0
 3789 12f2 A39F      		mul r26,r19
 3790 12f4 900D      		add r25,r0
 3791 12f6 B29F      		mul r27,r18
 3792 12f8 900D      		add r25,r0
 3793 12fa 1124      		clr r1
 3794               	.LVL261:
 3795 12fc E80F      		add r30,r24
 3796 12fe F91F      		adc r31,r25
 3797 1300 E05C      		subi r30,lo8(-(64))
 3798 1302 FF4F      		sbci r31,hi8(-(64))
 3799 1304 4083      		st Z,r20
 3800 1306 5183      		std Z+1,r21
 3801 1308 6283      		std Z+2,r22
 3802 130a 7383      		std Z+3,r23
 3803               	/* epilogue start */
 3804               	.LM358:
 3805 130c 0895      		ret
 3806               	.LFE65:
 3808               	.global	Timebase_UpCounter_Get_Period_Flag
 3810               	Timebase_UpCounter_Get_Period_Flag:
 3811               	.LFB66:
 3812               	.LM359:
 3813               	.LVL262:
 3814               	/* prologue: function */
 3815               	/* frame size = 0 */
 3816               	.LM360:
 3817 130e E091 0000 		lds r30,Timebase
 3818 1312 F091 0000 		lds r31,(Timebase)+1
 3819 1316 90E0      		ldi r25,lo8(0)
 3820               	.LVL263:
 3821 1318 25E1      		ldi r18,lo8(21)
 3822 131a 30E0      		ldi r19,hi8(21)
 3823 131c AC01      		movw r20,r24
 3824 131e 429F      		mul r20,r18
 3825 1320 C001      		movw r24,r0
 3826 1322 439F      		mul r20,r19
 3827 1324 900D      		add r25,r0
 3828 1326 529F      		mul r21,r18
 3829 1328 900D      		add r25,r0
 3830 132a 1124      		clr r1
 3831               	.LVL264:
 3832 132c E80F      		add r30,r24
 3833 132e F91F      		adc r31,r25
 3834 1330 87A5      		ldd r24,Z+47
 3835               	.LM361:
 3836 1332 8170      		andi r24,lo8(1)
 3837               	/* epilogue start */
 3838 1334 0895      		ret
 3839               	.LFE66:
 3841               	.global	Timebase_UpCounter_Set_Period_Flag
 3843               	Timebase_UpCounter_Set_Period_Flag:
 3844               	.LFB67:
 3845               	.LM362:
 3846               	.LVL265:
 3847               	/* prologue: function */
 3848               	/* frame size = 0 */
 3849               	.LM363:
 3850 1336 E091 0000 		lds r30,Timebase
 3851 133a F091 0000 		lds r31,(Timebase)+1
 3852 133e 90E0      		ldi r25,lo8(0)
 3853               	.LVL266:
 3854 1340 25E1      		ldi r18,lo8(21)
 3855 1342 30E0      		ldi r19,hi8(21)
 3856 1344 AC01      		movw r20,r24
 3857 1346 429F      		mul r20,r18
 3858 1348 C001      		movw r24,r0
 3859 134a 439F      		mul r20,r19
 3860 134c 900D      		add r25,r0
 3861 134e 529F      		mul r21,r18
 3862 1350 900D      		add r25,r0
 3863 1352 1124      		clr r1
 3864               	.LVL267:
 3865 1354 E80F      		add r30,r24
 3866 1356 F91F      		adc r31,r25
 3867 1358 87A5      		ldd r24,Z+47
 3868 135a 8160      		ori r24,lo8(1)
 3869 135c 87A7      		std Z+47,r24
 3870               	/* epilogue start */
 3871               	.LM364:
 3872 135e 0895      		ret
 3873               	.LFE67:
 3875               	.global	Timebase_UpCounter_Clear_Period_Flag
 3877               	Timebase_UpCounter_Clear_Period_Flag:
 3878               	.LFB68:
 3879               	.LM365:
 3880               	.LVL268:
 3881               	/* prologue: function */
 3882               	/* frame size = 0 */
 3883               	.LM366:
 3884 1360 E091 0000 		lds r30,Timebase
 3885 1364 F091 0000 		lds r31,(Timebase)+1
 3886 1368 90E0      		ldi r25,lo8(0)
 3887               	.LVL269:
 3888 136a 25E1      		ldi r18,lo8(21)
 3889 136c 30E0      		ldi r19,hi8(21)
 3890 136e AC01      		movw r20,r24
 3891 1370 429F      		mul r20,r18
 3892 1372 C001      		movw r24,r0
 3893 1374 439F      		mul r20,r19
 3894 1376 900D      		add r25,r0
 3895 1378 529F      		mul r21,r18
 3896 137a 900D      		add r25,r0
 3897 137c 1124      		clr r1
 3898               	.LVL270:
 3899 137e E80F      		add r30,r24
 3900 1380 F91F      		adc r31,r25
 3901 1382 87A5      		ldd r24,Z+47
 3902 1384 8E7F      		andi r24,lo8(-2)
 3903 1386 87A7      		std Z+47,r24
 3904               	/* epilogue start */
 3905               	.LM367:
 3906 1388 0895      		ret
 3907               	.LFE68:
 3909               	.global	Timebase_UpCounter_Reset
 3911               	Timebase_UpCounter_Reset:
 3912               	.LFB69:
 3913               	.LM368:
 3914               	.LVL271:
 3915               	/* prologue: function */
 3916               	/* frame size = 0 */
 3917               	.LBB725:
 3918               	.LBB726:
 3919               	.LM369:
 3920 138a E091 0000 		lds r30,Timebase
 3921 138e F091 0000 		lds r31,(Timebase)+1
 3922 1392 90E0      		ldi r25,lo8(0)
 3923 1394 25E1      		ldi r18,lo8(21)
 3924 1396 30E0      		ldi r19,hi8(21)
 3925 1398 AC01      		movw r20,r24
 3926               	.LVL272:
 3927 139a 429F      		mul r20,r18
 3928 139c C001      		movw r24,r0
 3929 139e 439F      		mul r20,r19
 3930 13a0 900D      		add r25,r0
 3931 13a2 529F      		mul r21,r18
 3932 13a4 900D      		add r25,r0
 3933 13a6 1124      		clr r1
 3934 13a8 E80F      		add r30,r24
 3935 13aa F91F      		adc r31,r25
 3936 13ac 87A5      		ldd r24,Z+47
 3937               	.LBE726:
 3938               	.LBE725:
 3939               	.LBB727:
 3940               	.LBB728:
 3941               	.LM370:
 3942 13ae 14AE      		std Z+60,__zero_reg__
 3943 13b0 15AE      		std Z+61,__zero_reg__
 3944 13b2 16AE      		std Z+62,__zero_reg__
 3945 13b4 17AE      		std Z+63,__zero_reg__
 3946               	.LBE728:
 3947               	.LBE727:
 3948               	.LBB729:
 3949               	.LBB730:
 3950               	.LM371:
 3951 13b6 10AA      		std Z+48,__zero_reg__
 3952 13b8 11AA      		std Z+49,__zero_reg__
 3953 13ba 12AA      		std Z+50,__zero_reg__
 3954 13bc 13AA      		std Z+51,__zero_reg__
 3955               	.LBE730:
 3956               	.LBE729:
 3957               	.LBB731:
 3958               	.LBB732:
 3959               	.LM372:
 3960 13be 14AA      		std Z+52,__zero_reg__
 3961 13c0 15AA      		std Z+53,__zero_reg__
 3962 13c2 16AA      		std Z+54,__zero_reg__
 3963 13c4 17AA      		std Z+55,__zero_reg__
 3964               	.LBE732:
 3965               	.LBE731:
 3966               	.LBB733:
 3967               	.LBB734:
 3968               	.LM373:
 3969 13c6 10AE      		std Z+56,__zero_reg__
 3970 13c8 11AE      		std Z+57,__zero_reg__
 3971 13ca 12AE      		std Z+58,__zero_reg__
 3972 13cc 13AE      		std Z+59,__zero_reg__
 3973               	.LBE734:
 3974               	.LBE733:
 3975               	.LBB735:
 3976               	.LBB736:
 3977               	.LM374:
 3978 13ce E05C      		subi r30,lo8(-(64))
 3979 13d0 FF4F      		sbci r31,hi8(-(64))
 3980 13d2 1082      		st Z,__zero_reg__
 3981 13d4 1182      		std Z+1,__zero_reg__
 3982 13d6 1282      		std Z+2,__zero_reg__
 3983 13d8 1382      		std Z+3,__zero_reg__
 3984 13da E054      		subi r30,lo8(-(-64))
 3985 13dc F040      		sbci r31,hi8(-(-64))
 3986               	.LBE736:
 3987               	.LBE735:
 3988               	.LBB737:
 3989               	.LBB738:
 3990               	.LM375:
 3991 13de 807E      		andi r24,lo8(-32)
 3992 13e0 87A7      		std Z+47,r24
 3993               	/* epilogue start */
 3994               	.LBE738:
 3995               	.LBE737:
 3996               	.LM376:
 3997 13e2 0895      		ret
 3998               	.LFE69:
 4000               	.global	Timebase_UpCounter_Clear_All_Flags
 4002               	Timebase_UpCounter_Clear_All_Flags:
 4003               	.LFB70:
 4004               	.LM377:
 4005               	.LVL273:
 4006               	/* prologue: function */
 4007               	/* frame size = 0 */
 4008               	.LM378:
 4009 13e4 0E94 0000 		call Timebase_UpCounter_Reset
 4010               	.LVL274:
 4011               	/* epilogue start */
 4012               	.LM379:
 4013 13e8 0895      		ret
 4014               	.LFE70:
 4016               	.global	Timebase_UpCounter_Start
 4018               	Timebase_UpCounter_Start:
 4019               	.LFB71:
 4020               	.LM380:
 4021               	.LVL275:
 4022               	/* prologue: function */
 4023               	/* frame size = 0 */
 4024               	.LBB739:
 4025               	.LBB740:
 4026               	.LM381:
 4027 13ea E091 0000 		lds r30,Timebase
 4028 13ee F091 0000 		lds r31,(Timebase)+1
 4029 13f2 90E0      		ldi r25,lo8(0)
 4030               	.LBE740:
 4031               	.LBE739:
 4032               	.LM382:
 4033 13f4 25E1      		ldi r18,lo8(21)
 4034 13f6 30E0      		ldi r19,hi8(21)
 4035 13f8 AC01      		movw r20,r24
 4036               	.LVL276:
 4037 13fa 429F      		mul r20,r18
 4038 13fc C001      		movw r24,r0
 4039 13fe 439F      		mul r20,r19
 4040 1400 900D      		add r25,r0
 4041 1402 529F      		mul r21,r18
 4042 1404 900D      		add r25,r0
 4043 1406 1124      		clr r1
 4044 1408 E80F      		add r30,r24
 4045 140a F91F      		adc r31,r25
 4046 140c 97A5      		ldd r25,Z+47
 4047 140e 892F      		mov r24,r25
 4048 1410 8695      		lsr r24
 4049 1412 8F70      		andi r24,lo8(15)
 4050 1414 8130      		cpi r24,lo8(1)
 4051 1416 01F0      		breq .L187
 4052               	.LBB741:
 4053               	.LBB742:
 4054               	.LM383:
 4055 1418 917E      		andi r25,lo8(-31)
 4056 141a 9260      		ori r25,lo8(2)
 4057 141c 97A7      		std Z+47,r25
 4058               	.L187:
 4059 141e 0895      		ret
 4060               	.LBE742:
 4061               	.LBE741:
 4062               	.LFE71:
 4064               	.global	Timebase_UpCounter_Stop
 4066               	Timebase_UpCounter_Stop:
 4067               	.LFB72:
 4068               	.LM384:
 4069               	.LVL277:
 4070               	/* prologue: function */
 4071               	/* frame size = 0 */
 4072               	.LBB743:
 4073               	.LBB744:
 4074               	.LM385:
 4075 1420 E091 0000 		lds r30,Timebase
 4076 1424 F091 0000 		lds r31,(Timebase)+1
 4077 1428 90E0      		ldi r25,lo8(0)
 4078               	.LBE744:
 4079               	.LBE743:
 4080               	.LM386:
 4081 142a 25E1      		ldi r18,lo8(21)
 4082 142c 30E0      		ldi r19,hi8(21)
 4083 142e AC01      		movw r20,r24
 4084               	.LVL278:
 4085 1430 429F      		mul r20,r18
 4086 1432 C001      		movw r24,r0
 4087 1434 439F      		mul r20,r19
 4088 1436 900D      		add r25,r0
 4089 1438 529F      		mul r21,r18
 4090 143a 900D      		add r25,r0
 4091 143c 1124      		clr r1
 4092 143e E80F      		add r30,r24
 4093 1440 F91F      		adc r31,r25
 4094 1442 97A5      		ldd r25,Z+47
 4095 1444 892F      		mov r24,r25
 4096 1446 8695      		lsr r24
 4097 1448 8F70      		andi r24,lo8(15)
 4098 144a 8230      		cpi r24,lo8(2)
 4099 144c 01F0      		breq .L190
 4100               	.LBB745:
 4101               	.LBB746:
 4102               	.LM387:
 4103 144e 917E      		andi r25,lo8(-31)
 4104 1450 9460      		ori r25,lo8(4)
 4105 1452 97A7      		std Z+47,r25
 4106               	.L190:
 4107 1454 0895      		ret
 4108               	.LBE746:
 4109               	.LBE745:
 4110               	.LFE72:
 4112               	.global	Timebase_UpCounter_Set_Securely
 4114               	Timebase_UpCounter_Set_Securely:
 4115               	.LFB73:
 4116               	.LM388:
 4117               	.LVL279:
 4118               	/* prologue: function */
 4119               	/* frame size = 0 */
 4120               	.LBB747:
 4121               	.LBB748:
 4122               	.LM389:
 4123 1456 A091 0000 		lds r26,Timebase
 4124 145a B091 0000 		lds r27,(Timebase)+1
 4125 145e 90E0      		ldi r25,lo8(0)
 4126               	.LBE748:
 4127               	.LBE747:
 4128               	.LM390:
 4129 1460 25E1      		ldi r18,lo8(21)
 4130 1462 30E0      		ldi r19,hi8(21)
 4131 1464 829F      		mul r24,r18
 4132 1466 F001      		movw r30,r0
 4133 1468 839F      		mul r24,r19
 4134 146a F00D      		add r31,r0
 4135 146c 929F      		mul r25,r18
 4136 146e F00D      		add r31,r0
 4137 1470 1124      		clr r1
 4138               	.LVL280:
 4139 1472 EA0F      		add r30,r26
 4140 1474 FB1F      		adc r31,r27
 4141 1476 87A5      		ldd r24,Z+47
 4142 1478 8695      		lsr r24
 4143 147a 8F70      		andi r24,lo8(15)
 4144 147c 01F4      		brne .L193
 4145               	.LBB749:
 4146               	.LBB750:
 4147               	.LM391:
 4148 147e 14AE      		std Z+60,__zero_reg__
 4149 1480 15AE      		std Z+61,__zero_reg__
 4150 1482 16AE      		std Z+62,__zero_reg__
 4151 1484 17AE      		std Z+63,__zero_reg__
 4152               	.LBE750:
 4153               	.LBE749:
 4154               	.LBB751:
 4155               	.LBB752:
 4156               	.LM392:
 4157 1486 10AE      		std Z+56,__zero_reg__
 4158 1488 11AE      		std Z+57,__zero_reg__
 4159 148a 12AE      		std Z+58,__zero_reg__
 4160 148c 13AE      		std Z+59,__zero_reg__
 4161               	.LBE752:
 4162               	.LBE751:
 4163               	.LBB753:
 4164               	.LBB754:
 4165               	.LM393:
 4166 148e 44AB      		std Z+52,r20
 4167 1490 55AB      		std Z+53,r21
 4168 1492 66AB      		std Z+54,r22
 4169 1494 77AB      		std Z+55,r23
 4170               	.LBE754:
 4171               	.LBE753:
 4172               	.LBB755:
 4173               	.LBB756:
 4174               	.LM394:
 4175 1496 1A96      		adiw r26,10
 4176 1498 8D91      		ld r24,X+
 4177 149a 9D91      		ld r25,X+
 4178 149c 0D90      		ld __tmp_reg__,X+
 4179 149e BC91      		ld r27,X
 4180 14a0 A02D      		mov r26,__tmp_reg__
 4181               	.LVL281:
 4182               	.LBE756:
 4183               	.LBE755:
 4184               	.LBB757:
 4185               	.LBB758:
 4186               	.LM395:
 4187 14a2 840F      		add r24,r20
 4188 14a4 951F      		adc r25,r21
 4189 14a6 A61F      		adc r26,r22
 4190 14a8 B71F      		adc r27,r23
 4191 14aa 80AB      		std Z+48,r24
 4192 14ac 91AB      		std Z+49,r25
 4193 14ae A2AB      		std Z+50,r26
 4194 14b0 B3AB      		std Z+51,r27
 4195               	.LBE758:
 4196               	.LBE757:
 4197               	.LBB759:
 4198               	.LBB760:
 4199               	.LM396:
 4200 14b2 97A5      		ldd r25,Z+47
 4201 14b4 892F      		mov r24,r25
 4202               	.LVL282:
 4203 14b6 8695      		lsr r24
 4204 14b8 8F70      		andi r24,lo8(15)
 4205 14ba 8130      		cpi r24,lo8(1)
 4206 14bc 01F0      		breq .L193
 4207               	.LBB761:
 4208               	.LBB762:
 4209               	.LM397:
 4210 14be 917E      		andi r25,lo8(-31)
 4211 14c0 9260      		ori r25,lo8(2)
 4212 14c2 97A7      		std Z+47,r25
 4213               	.L193:
 4214 14c4 0895      		ret
 4215               	.LBE762:
 4216               	.LBE761:
 4217               	.LBE760:
 4218               	.LBE759:
 4219               	.LFE73:
 4221               	.global	Timebase_UpCounter_Set_Forcefully
 4223               	Timebase_UpCounter_Set_Forcefully:
 4224               	.LFB74:
 4225               	.LM398:
 4226               	.LVL283:
 4227 14c6 DF92      		push r13
 4228 14c8 EF92      		push r14
 4229 14ca FF92      		push r15
 4230 14cc 0F93      		push r16
 4231 14ce 1F93      		push r17
 4232               	/* prologue: function */
 4233               	/* frame size = 0 */
 4234 14d0 D82E      		mov r13,r24
 4235 14d2 7A01      		movw r14,r20
 4236 14d4 8B01      		movw r16,r22
 4237               	.LM399:
 4238 14d6 0E94 0000 		call Timebase_UpCounter_Reset
 4239               	.LVL284:
 4240               	.LM400:
 4241 14da 8D2D      		mov r24,r13
 4242 14dc B801      		movw r22,r16
 4243 14de A701      		movw r20,r14
 4244 14e0 0E94 0000 		call Timebase_UpCounter_Set_Securely
 4245               	/* epilogue start */
 4246               	.LM401:
 4247 14e4 1F91      		pop r17
 4248 14e6 0F91      		pop r16
 4249 14e8 FF90      		pop r15
 4250 14ea EF90      		pop r14
 4251               	.LVL285:
 4252 14ec DF90      		pop r13
 4253               	.LVL286:
 4254 14ee 0895      		ret
 4255               	.LFE74:
 4257               	.global	Timebase_UpCounter_Update
 4259               	Timebase_UpCounter_Update:
 4260               	.LFB75:
 4261               	.LM402:
 4262               	.LVL287:
 4263 14f0 0F93      		push r16
 4264 14f2 1F93      		push r17
 4265 14f4 CF93      		push r28
 4266 14f6 DF93      		push r29
 4267               	/* prologue: function */
 4268               	/* frame size = 0 */
 4269               	.LBB763:
 4270               	.LBB764:
 4271               	.LM403:
 4272 14f8 6091 0000 		lds r22,Timebase
 4273 14fc 7091 0000 		lds r23,(Timebase)+1
 4274 1500 082F      		mov r16,r24
 4275 1502 10E0      		ldi r17,lo8(0)
 4276 1504 85E1      		ldi r24,lo8(21)
 4277 1506 90E0      		ldi r25,hi8(21)
 4278               	.LVL288:
 4279 1508 089F      		mul r16,r24
 4280 150a F001      		movw r30,r0
 4281 150c 099F      		mul r16,r25
 4282 150e F00D      		add r31,r0
 4283 1510 189F      		mul r17,r24
 4284 1512 F00D      		add r31,r0
 4285 1514 1124      		clr r1
 4286 1516 E60F      		add r30,r22
 4287 1518 F71F      		adc r31,r23
 4288 151a 87A5      		ldd r24,Z+47
 4289 151c 8695      		lsr r24
 4290 151e 8F70      		andi r24,lo8(15)
 4291               	.LBE764:
 4292               	.LBE763:
 4293               	.LM404:
 4294 1520 8130      		cpi r24,lo8(1)
 4295 1522 01F0      		breq .+2
 4296 1524 00C0      		rjmp .L197
 4297               	.LBB765:
 4298               	.LBB766:
 4299               	.LM405:
 4300 1526 EB01      		movw r28,r22
 4301 1528 8A85      		ldd r24,Y+10
 4302 152a 9B85      		ldd r25,Y+11
 4303 152c AC85      		ldd r26,Y+12
 4304 152e BD85      		ldd r27,Y+13
 4305               	.LVL289:
 4306               	.LBE766:
 4307               	.LBE765:
 4308               	.LM406:
 4309 1530 20A9      		ldd r18,Z+48
 4310 1532 31A9      		ldd r19,Z+49
 4311 1534 42A9      		ldd r20,Z+50
 4312 1536 53A9      		ldd r21,Z+51
 4313               	.LVL290:
 4314 1538 281B      		sub r18,r24
 4315 153a 390B      		sbc r19,r25
 4316 153c 4A0B      		sbc r20,r26
 4317 153e 5B0B      		sbc r21,r27
 4318 1540 57FF      		sbrs r21,7
 4319 1542 00C0      		rjmp .L198
 4320 1544 20E0      		ldi r18,lo8(0)
 4321 1546 30E0      		ldi r19,hi8(0)
 4322 1548 40E0      		ldi r20,hlo8(0)
 4323 154a 50E0      		ldi r21,hhi8(0)
 4324               	.L198:
 4325               	.LBB767:
 4326               	.LBB768:
 4327               	.LM407:
 4328 154c 85E1      		ldi r24,lo8(21)
 4329 154e 90E0      		ldi r25,hi8(21)
 4330               	.LVL291:
 4331 1550 089F      		mul r16,r24
 4332 1552 F001      		movw r30,r0
 4333 1554 099F      		mul r16,r25
 4334 1556 F00D      		add r31,r0
 4335 1558 189F      		mul r17,r24
 4336 155a F00D      		add r31,r0
 4337 155c 1124      		clr r1
 4338 155e E60F      		add r30,r22
 4339 1560 F71F      		adc r31,r23
 4340 1562 20AF      		std Z+56,r18
 4341 1564 31AF      		std Z+57,r19
 4342 1566 42AF      		std Z+58,r20
 4343 1568 53AF      		std Z+59,r21
 4344               	.LBE768:
 4345               	.LBE767:
 4346               	.LM408:
 4347 156a 84A9      		ldd r24,Z+52
 4348 156c 95A9      		ldd r25,Z+53
 4349 156e A6A9      		ldd r26,Z+54
 4350 1570 B7A9      		ldd r27,Z+55
 4351               	.LVL292:
 4352               	.LBB769:
 4353               	.LBB770:
 4354               	.LM409:
 4355 1572 821B      		sub r24,r18
 4356 1574 930B      		sbc r25,r19
 4357 1576 A40B      		sbc r26,r20
 4358 1578 B50B      		sbc r27,r21
 4359 157a B7FF      		sbrs r27,7
 4360 157c 00C0      		rjmp .L199
 4361 157e 80E0      		ldi r24,lo8(0)
 4362 1580 90E0      		ldi r25,hi8(0)
 4363 1582 A0E0      		ldi r26,hlo8(0)
 4364 1584 B0E0      		ldi r27,hhi8(0)
 4365               	.L199:
 4366 1586 84AF      		std Z+60,r24
 4367 1588 95AF      		std Z+61,r25
 4368 158a A6AF      		std Z+62,r26
 4369 158c B7AF      		std Z+63,r27
 4370               	.LBE770:
 4371               	.LBE769:
 4372               	.LM410:
 4373 158e 85E1      		ldi r24,lo8(21)
 4374 1590 90E0      		ldi r25,hi8(21)
 4375               	.LVL293:
 4376 1592 089F      		mul r16,r24
 4377 1594 E001      		movw r28,r0
 4378 1596 099F      		mul r16,r25
 4379 1598 D00D      		add r29,r0
 4380 159a 189F      		mul r17,r24
 4381 159c D00D      		add r29,r0
 4382 159e 1124      		clr r1
 4383 15a0 C60F      		add r28,r22
 4384 15a2 D71F      		adc r29,r23
 4385 15a4 88AD      		ldd r24,Y+56
 4386 15a6 99AD      		ldd r25,Y+57
 4387 15a8 AAAD      		ldd r26,Y+58
 4388 15aa BBAD      		ldd r27,Y+59
 4389 15ac 1816      		cp __zero_reg__,r24
 4390 15ae 1906      		cpc __zero_reg__,r25
 4391 15b0 1A06      		cpc __zero_reg__,r26
 4392 15b2 1B06      		cpc __zero_reg__,r27
 4393 15b4 04F4      		brge .+2
 4394 15b6 00C0      		rjmp .L203
 4395               	.LBB771:
 4396               	.LBB772:
 4397               	.LM411:
 4398 15b8 18AA      		std Y+48,__zero_reg__
 4399 15ba 19AA      		std Y+49,__zero_reg__
 4400 15bc 1AAA      		std Y+50,__zero_reg__
 4401 15be 1BAA      		std Y+51,__zero_reg__
 4402               	.LBE772:
 4403               	.LBE771:
 4404               	.LBB773:
 4405               	.LBB774:
 4406               	.LM412:
 4407 15c0 18AE      		std Y+56,__zero_reg__
 4408 15c2 19AE      		std Y+57,__zero_reg__
 4409 15c4 1AAE      		std Y+58,__zero_reg__
 4410 15c6 1BAE      		std Y+59,__zero_reg__
 4411               	.LBE774:
 4412               	.LBE773:
 4413               	.LBB775:
 4414               	.LBB776:
 4415               	.LM413:
 4416 15c8 FE01      		movw r30,r28
 4417 15ca F496      		adiw r30,52
 4418               	.LBE776:
 4419               	.LBE775:
 4420               	.LBB777:
 4421               	.LBB778:
 4422               	.LM414:
 4423 15cc 2CA9      		ldd r18,Y+52
 4424               	.LVL294:
 4425 15ce 3181      		ldd r19,Z+1
 4426               	.LVL295:
 4427 15d0 4281      		ldd r20,Z+2
 4428               	.LVL296:
 4429 15d2 5381      		ldd r21,Z+3
 4430               	.LVL297:
 4431 15d4 C901      		movw r24,r18
 4432               	.LVL298:
 4433 15d6 DA01      		movw r26,r20
 4434               	.LVL299:
 4435 15d8 B7FF      		sbrs r27,7
 4436 15da 00C0      		rjmp .L201
 4437               	.LVL300:
 4438 15dc 80E0      		ldi r24,lo8(0)
 4439 15de 90E0      		ldi r25,hi8(0)
 4440 15e0 A0E0      		ldi r26,hlo8(0)
 4441 15e2 B0E0      		ldi r27,hhi8(0)
 4442               	.L201:
 4443 15e4 8CAF      		std Y+60,r24
 4444 15e6 9DAF      		std Y+61,r25
 4445 15e8 AEAF      		std Y+62,r26
 4446 15ea BFAF      		std Y+63,r27
 4447               	.LBE778:
 4448               	.LBE777:
 4449               	.LBB779:
 4450               	.LBB780:
 4451               	.LM415:
 4452 15ec 85E1      		ldi r24,lo8(21)
 4453 15ee 90E0      		ldi r25,hi8(21)
 4454               	.LVL301:
 4455 15f0 089F      		mul r16,r24
 4456 15f2 F001      		movw r30,r0
 4457 15f4 099F      		mul r16,r25
 4458 15f6 F00D      		add r31,r0
 4459 15f8 189F      		mul r17,r24
 4460 15fa F00D      		add r31,r0
 4461 15fc 1124      		clr r1
 4462 15fe E60F      		add r30,r22
 4463 1600 F71F      		adc r31,r23
 4464 1602 87A5      		ldd r24,Z+47
 4465 1604 817E      		andi r24,lo8(-31)
 4466 1606 8860      		ori r24,lo8(8)
 4467 1608 87A7      		std Z+47,r24
 4468 160a 00C0      		rjmp .L203
 4469               	.LVL302:
 4470               	.L197:
 4471               	.LBE780:
 4472               	.LBE779:
 4473               	.LM416:
 4474 160c 8230      		cpi r24,lo8(2)
 4475 160e 01F4      		brne .L203
 4476               	.LBB781:
 4477               	.LBB782:
 4478               	.LM417:
 4479 1610 EB01      		movw r28,r22
 4480 1612 8A85      		ldd r24,Y+10
 4481 1614 9B85      		ldd r25,Y+11
 4482 1616 AC85      		ldd r26,Y+12
 4483 1618 BD85      		ldd r27,Y+13
 4484               	.LVL303:
 4485               	.LBE782:
 4486               	.LBE781:
 4487               	.LBB783:
 4488               	.LBB784:
 4489               	.LM418:
 4490 161a 20AD      		ldd r18,Z+56
 4491 161c 31AD      		ldd r19,Z+57
 4492 161e 42AD      		ldd r20,Z+58
 4493 1620 53AD      		ldd r21,Z+59
 4494 1622 820F      		add r24,r18
 4495 1624 931F      		adc r25,r19
 4496 1626 A41F      		adc r26,r20
 4497 1628 B51F      		adc r27,r21
 4498 162a 80AB      		std Z+48,r24
 4499 162c 91AB      		std Z+49,r25
 4500 162e A2AB      		std Z+50,r26
 4501 1630 B3AB      		std Z+51,r27
 4502               	.LBE784:
 4503               	.LBE783:
 4504               	.LM419:
 4505 1632 84A9      		ldd r24,Z+52
 4506 1634 95A9      		ldd r25,Z+53
 4507 1636 A6A9      		ldd r26,Z+54
 4508 1638 B7A9      		ldd r27,Z+55
 4509               	.LVL304:
 4510               	.LBB785:
 4511               	.LBB786:
 4512               	.LM420:
 4513 163a 821B      		sub r24,r18
 4514 163c 930B      		sbc r25,r19
 4515 163e A40B      		sbc r26,r20
 4516 1640 B50B      		sbc r27,r21
 4517 1642 B7FF      		sbrs r27,7
 4518 1644 00C0      		rjmp .L202
 4519 1646 80E0      		ldi r24,lo8(0)
 4520 1648 90E0      		ldi r25,hi8(0)
 4521 164a A0E0      		ldi r26,hlo8(0)
 4522 164c B0E0      		ldi r27,hhi8(0)
 4523               	.L202:
 4524 164e 84AF      		std Z+60,r24
 4525 1650 95AF      		std Z+61,r25
 4526 1652 A6AF      		std Z+62,r26
 4527 1654 B7AF      		std Z+63,r27
 4528               	.LVL305:
 4529               	.L203:
 4530               	/* epilogue start */
 4531               	.LBE786:
 4532               	.LBE785:
 4533               	.LM421:
 4534 1656 DF91      		pop r29
 4535 1658 CF91      		pop r28
 4536 165a 1F91      		pop r17
 4537 165c 0F91      		pop r16
 4538 165e 0895      		ret
 4539               	.LFE75:
 4541               	.global	Timebase_UpCounter_Expired
 4543               	Timebase_UpCounter_Expired:
 4544               	.LFB76:
 4545               	.LM422:
 4546               	.LVL306:
 4547               	/* prologue: function */
 4548               	/* frame size = 0 */
 4549               	.LM423:
 4550 1660 40E0      		ldi r20,lo8(0)
 4551 1662 E091 0000 		lds r30,Timebase
 4552 1666 F091 0000 		lds r31,(Timebase)+1
 4553 166a 90E0      		ldi r25,lo8(0)
 4554               	.LVL307:
 4555 166c 25E1      		ldi r18,lo8(21)
 4556 166e 30E0      		ldi r19,hi8(21)
 4557 1670 BC01      		movw r22,r24
 4558 1672 629F      		mul r22,r18
 4559 1674 C001      		movw r24,r0
 4560 1676 639F      		mul r22,r19
 4561 1678 900D      		add r25,r0
 4562 167a 729F      		mul r23,r18
 4563 167c 900D      		add r25,r0
 4564 167e 1124      		clr r1
 4565               	.LVL308:
 4566 1680 E80F      		add r30,r24
 4567 1682 F91F      		adc r31,r25
 4568 1684 87A5      		ldd r24,Z+47
 4569 1686 8695      		lsr r24
 4570 1688 8F70      		andi r24,lo8(15)
 4571 168a 8430      		cpi r24,lo8(4)
 4572 168c 01F4      		brne .L205
 4573 168e 41E0      		ldi r20,lo8(1)
 4574               	.L205:
 4575               	.LM424:
 4576 1690 842F      		mov r24,r20
 4577               	/* epilogue start */
 4578 1692 0895      		ret
 4579               	.LFE76:
 4581               	.global	Timebase_UpCounter_Expired_Event
 4583               	Timebase_UpCounter_Expired_Event:
 4584               	.LFB77:
 4585               	.LM425:
 4586               	.LVL309:
 4587               	/* prologue: function */
 4588               	/* frame size = 0 */
 4589 1694 482F      		mov r20,r24
 4590               	.LM426:
 4591 1696 E091 0000 		lds r30,Timebase
 4592 169a F091 0000 		lds r31,(Timebase)+1
 4593 169e 282F      		mov r18,r24
 4594 16a0 30E0      		ldi r19,lo8(0)
 4595               	.LVL310:
 4596 16a2 85E1      		ldi r24,lo8(21)
 4597 16a4 90E0      		ldi r25,hi8(21)
 4598               	.LVL311:
 4599 16a6 BC01      		movw r22,r24
 4600 16a8 269F      		mul r18,r22
 4601 16aa C001      		movw r24,r0
 4602 16ac 279F      		mul r18,r23
 4603 16ae 900D      		add r25,r0
 4604 16b0 369F      		mul r19,r22
 4605 16b2 900D      		add r25,r0
 4606 16b4 1124      		clr r1
 4607 16b6 E80F      		add r30,r24
 4608 16b8 F91F      		adc r31,r25
 4609 16ba 87A5      		ldd r24,Z+47
 4610 16bc 8695      		lsr r24
 4611 16be 8F70      		andi r24,lo8(15)
 4612 16c0 8430      		cpi r24,lo8(4)
 4613 16c2 01F0      		breq .L208
 4614 16c4 80E0      		ldi r24,lo8(0)
 4615 16c6 0895      		ret
 4616               	.L208:
 4617               	.LBB787:
 4618               	.LBB788:
 4619               	.LM427:
 4620 16c8 842F      		mov r24,r20
 4621 16ca 0E94 0000 		call Timebase_UpCounter_Reset
 4622               	.LVL312:
 4623 16ce 81E0      		ldi r24,lo8(1)
 4624               	.LBE788:
 4625               	.LBE787:
 4626               	.LM428:
 4627 16d0 0895      		ret
 4628               	.LFE77:
 4630               	.global	Timebase_UpCounter_Set_Period_Value_Securely
 4632               	Timebase_UpCounter_Set_Period_Value_Securely:
 4633               	.LFB78:
 4634               	.LM429:
 4635               	.LVL313:
 4636               	/* prologue: function */
 4637               	/* frame size = 0 */
 4638               	.LBB789:
 4639               	.LBB790:
 4640               	.LM430:
 4641 16d2 E091 0000 		lds r30,Timebase
 4642 16d6 F091 0000 		lds r31,(Timebase)+1
 4643 16da 90E0      		ldi r25,lo8(0)
 4644               	.LBE790:
 4645               	.LBE789:
 4646               	.LM431:
 4647 16dc 25E1      		ldi r18,lo8(21)
 4648 16de 30E0      		ldi r19,hi8(21)
 4649 16e0 DC01      		movw r26,r24
 4650               	.LVL314:
 4651 16e2 A29F      		mul r26,r18
 4652 16e4 C001      		movw r24,r0
 4653 16e6 A39F      		mul r26,r19
 4654 16e8 900D      		add r25,r0
 4655 16ea B29F      		mul r27,r18
 4656 16ec 900D      		add r25,r0
 4657 16ee 1124      		clr r1
 4658 16f0 E80F      		add r30,r24
 4659 16f2 F91F      		adc r31,r25
 4660 16f4 87A5      		ldd r24,Z+47
 4661 16f6 80FD      		sbrc r24,0
 4662 16f8 00C0      		rjmp .L213
 4663               	.LBB791:
 4664               	.LBB792:
 4665               	.LM432:
 4666 16fa 84AD      		ldd r24,Z+60
 4667 16fc 95AD      		ldd r25,Z+61
 4668 16fe A6AD      		ldd r26,Z+62
 4669 1700 B7AD      		ldd r27,Z+63
 4670 1702 840F      		add r24,r20
 4671 1704 951F      		adc r25,r21
 4672 1706 A61F      		adc r26,r22
 4673 1708 B71F      		adc r27,r23
 4674 170a E05C      		subi r30,lo8(-(64))
 4675 170c FF4F      		sbci r31,hi8(-(64))
 4676 170e 8083      		st Z,r24
 4677 1710 9183      		std Z+1,r25
 4678 1712 A283      		std Z+2,r26
 4679 1714 B383      		std Z+3,r27
 4680 1716 E054      		subi r30,lo8(-(-64))
 4681 1718 F040      		sbci r31,hi8(-(-64))
 4682               	.LBE792:
 4683               	.LBE791:
 4684               	.LBB793:
 4685               	.LBB794:
 4686               	.LM433:
 4687 171a 87A5      		ldd r24,Z+47
 4688 171c 8160      		ori r24,lo8(1)
 4689 171e 87A7      		std Z+47,r24
 4690               	.L213:
 4691 1720 0895      		ret
 4692               	.LBE794:
 4693               	.LBE793:
 4694               	.LFE78:
 4696               	.global	Timebase_UpCounter_Get_Remaining_Period_Value
 4698               	Timebase_UpCounter_Get_Remaining_Period_Value:
 4699               	.LFB79:
 4700               	.LM434:
 4701               	.LVL315:
 4702               	/* prologue: function */
 4703               	/* frame size = 0 */
 4704               	.LBB795:
 4705               	.LBB796:
 4706               	.LM435:
 4707 1722 E091 0000 		lds r30,Timebase
 4708 1726 F091 0000 		lds r31,(Timebase)+1
 4709 172a 90E0      		ldi r25,lo8(0)
 4710               	.LBE796:
 4711               	.LBE795:
 4712               	.LM436:
 4713 172c 25E1      		ldi r18,lo8(21)
 4714 172e 30E0      		ldi r19,hi8(21)
 4715 1730 AC01      		movw r20,r24
 4716               	.LVL316:
 4717 1732 429F      		mul r20,r18
 4718 1734 C001      		movw r24,r0
 4719 1736 439F      		mul r20,r19
 4720 1738 900D      		add r25,r0
 4721 173a 529F      		mul r21,r18
 4722 173c 900D      		add r25,r0
 4723 173e 1124      		clr r1
 4724 1740 E80F      		add r30,r24
 4725 1742 F91F      		adc r31,r25
 4726 1744 E05C      		subi r30,lo8(-(64))
 4727 1746 FF4F      		sbci r31,hi8(-(64))
 4728 1748 2081      		ld r18,Z
 4729 174a 3181      		ldd r19,Z+1
 4730 174c 4281      		ldd r20,Z+2
 4731 174e 5381      		ldd r21,Z+3
 4732               	.LVL317:
 4733 1750 E054      		subi r30,lo8(-(-64))
 4734 1752 F040      		sbci r31,hi8(-(-64))
 4735 1754 84AD      		ldd r24,Z+60
 4736 1756 95AD      		ldd r25,Z+61
 4737 1758 A6AD      		ldd r26,Z+62
 4738 175a B7AD      		ldd r27,Z+63
 4739 175c 281B      		sub r18,r24
 4740 175e 390B      		sbc r19,r25
 4741 1760 4A0B      		sbc r20,r26
 4742 1762 5B0B      		sbc r21,r27
 4743 1764 57FF      		sbrs r21,7
 4744 1766 00C0      		rjmp .L215
 4745 1768 20E0      		ldi r18,lo8(0)
 4746 176a 30E0      		ldi r19,hi8(0)
 4747 176c 40E0      		ldi r20,hlo8(0)
 4748 176e 50E0      		ldi r21,hhi8(0)
 4749               	.L215:
 4750               	.LM437:
 4751 1770 B901      		movw r22,r18
 4752               	.LVL318:
 4753 1772 CA01      		movw r24,r20
 4754               	/* epilogue start */
 4755 1774 0895      		ret
 4756               	.LFE79:
 4758               	.global	Timebase_UpCounter_Period_Value_Expired
 4760               	Timebase_UpCounter_Period_Value_Expired:
 4761               	.LFB80:
 4762               	.LM438:
 4763               	.LVL319:
 4764 1776 CF93      		push r28
 4765 1778 DF93      		push r29
 4766               	/* prologue: function */
 4767               	/* frame size = 0 */
 4768               	.LBB797:
 4769               	.LBB798:
 4770               	.LBB799:
 4771               	.LBB800:
 4772               	.LM439:
 4773 177a C091 0000 		lds r28,Timebase
 4774 177e D091 0000 		lds r29,(Timebase)+1
 4775 1782 682F      		mov r22,r24
 4776 1784 70E0      		ldi r23,lo8(0)
 4777               	.LBE800:
 4778               	.LBE799:
 4779               	.LM440:
 4780 1786 85E1      		ldi r24,lo8(21)
 4781 1788 90E0      		ldi r25,hi8(21)
 4782               	.LVL320:
 4783 178a 689F      		mul r22,r24
 4784 178c F001      		movw r30,r0
 4785 178e 699F      		mul r22,r25
 4786 1790 F00D      		add r31,r0
 4787 1792 789F      		mul r23,r24
 4788 1794 F00D      		add r31,r0
 4789 1796 1124      		clr r1
 4790 1798 EC0F      		add r30,r28
 4791 179a FD1F      		adc r31,r29
 4792 179c E05C      		subi r30,lo8(-(64))
 4793 179e FF4F      		sbci r31,hi8(-(64))
 4794 17a0 2081      		ld r18,Z
 4795 17a2 3181      		ldd r19,Z+1
 4796 17a4 4281      		ldd r20,Z+2
 4797 17a6 5381      		ldd r21,Z+3
 4798               	.LVL321:
 4799 17a8 E054      		subi r30,lo8(-(-64))
 4800 17aa F040      		sbci r31,hi8(-(-64))
 4801 17ac 84AD      		ldd r24,Z+60
 4802 17ae 95AD      		ldd r25,Z+61
 4803 17b0 A6AD      		ldd r26,Z+62
 4804 17b2 B7AD      		ldd r27,Z+63
 4805 17b4 281B      		sub r18,r24
 4806 17b6 390B      		sbc r19,r25
 4807 17b8 4A0B      		sbc r20,r26
 4808 17ba 5B0B      		sbc r21,r27
 4809               	.LM441:
 4810 17bc 57FD      		sbrc r21,7
 4811 17be 00C0      		rjmp .L218
 4812               	.LBE798:
 4813               	.LBE797:
 4814               	.LM442:
 4815 17c0 2115      		cp r18,__zero_reg__
 4816 17c2 3105      		cpc r19,__zero_reg__
 4817 17c4 4105      		cpc r20,__zero_reg__
 4818 17c6 5105      		cpc r21,__zero_reg__
 4819 17c8 01F0      		breq .L218
 4820 17ca 20E0      		ldi r18,lo8(0)
 4821               	.LVL322:
 4822 17cc 00C0      		rjmp .L219
 4823               	.LVL323:
 4824               	.L218:
 4825 17ce 20E0      		ldi r18,lo8(0)
 4826               	.LVL324:
 4827 17d0 85E1      		ldi r24,lo8(21)
 4828 17d2 90E0      		ldi r25,hi8(21)
 4829 17d4 AC01      		movw r20,r24
 4830 17d6 649F      		mul r22,r20
 4831 17d8 C001      		movw r24,r0
 4832 17da 659F      		mul r22,r21
 4833 17dc 900D      		add r25,r0
 4834 17de 749F      		mul r23,r20
 4835 17e0 900D      		add r25,r0
 4836 17e2 1124      		clr r1
 4837 17e4 C80F      		add r28,r24
 4838 17e6 D91F      		adc r29,r25
 4839 17e8 8FA5      		ldd r24,Y+47
 4840 17ea 80FF      		sbrs r24,0
 4841 17ec 21E0      		ldi r18,lo8(1)
 4842               	.L220:
 4843 17ee 81E0      		ldi r24,lo8(1)
 4844 17f0 2827      		eor r18,r24
 4845               	.L219:
 4846               	.LM443:
 4847 17f2 822F      		mov r24,r18
 4848               	/* epilogue start */
 4849 17f4 DF91      		pop r29
 4850 17f6 CF91      		pop r28
 4851 17f8 0895      		ret
 4852               	.LFE80:
 4854               	.global	Timebase_UpCounter_Period_Value_Expired_Event
 4856               	Timebase_UpCounter_Period_Value_Expired_Event:
 4857               	.LFB81:
 4858               	.LM444:
 4859               	.LVL325:
 4860 17fa 1F93      		push r17
 4861               	/* prologue: function */
 4862               	/* frame size = 0 */
 4863 17fc 182F      		mov r17,r24
 4864               	.LM445:
 4865 17fe 0E94 0000 		call Timebase_UpCounter_Period_Value_Expired
 4866               	.LVL326:
 4867 1802 8130      		cpi r24,lo8(1)
 4868 1804 01F0      		breq .L223
 4869 1806 80E0      		ldi r24,lo8(0)
 4870 1808 00C0      		rjmp .L224
 4871               	.L223:
 4872               	.LBB801:
 4873               	.LBB802:
 4874               	.LM446:
 4875 180a E091 0000 		lds r30,Timebase
 4876 180e F091 0000 		lds r31,(Timebase)+1
 4877 1812 212F      		mov r18,r17
 4878 1814 30E0      		ldi r19,lo8(0)
 4879               	.LVL327:
 4880 1816 85E1      		ldi r24,lo8(21)
 4881 1818 90E0      		ldi r25,hi8(21)
 4882 181a AC01      		movw r20,r24
 4883 181c 249F      		mul r18,r20
 4884 181e C001      		movw r24,r0
 4885 1820 259F      		mul r18,r21
 4886 1822 900D      		add r25,r0
 4887 1824 349F      		mul r19,r20
 4888 1826 900D      		add r25,r0
 4889 1828 1124      		clr r1
 4890 182a E80F      		add r30,r24
 4891 182c F91F      		adc r31,r25
 4892 182e 87A5      		ldd r24,Z+47
 4893 1830 8E7F      		andi r24,lo8(-2)
 4894 1832 87A7      		std Z+47,r24
 4895 1834 81E0      		ldi r24,lo8(1)
 4896               	.L224:
 4897               	/* epilogue start */
 4898               	.LBE802:
 4899               	.LBE801:
 4900               	.LM447:
 4901 1836 1F91      		pop r17
 4902               	.LVL328:
 4903 1838 0895      		ret
 4904               	.LFE81:
 4906               	.global	Timebase_UpCounter_Update_All
 4908               	Timebase_UpCounter_Update_All:
 4909               	.LFB82:
 4910               	.LM448:
 4911               	/* prologue: function */
 4912               	/* frame size = 0 */
 4913               	.LBB803:
 4914               	.LM449:
 4915 183a 80E0      		ldi r24,lo8(0)
 4916 183c 0E94 0000 		call Timebase_UpCounter_Update
 4917               	/* epilogue start */
 4918               	.LBE803:
 4919               	.LM450:
 4920 1840 0895      		ret
 4921               	.LFE82:
 4923               	.global	Timebase_UpCounter_Reset_All
 4925               	Timebase_UpCounter_Reset_All:
 4926               	.LFB83:
 4927               	.LM451:
 4928               	/* prologue: function */
 4929               	/* frame size = 0 */
 4930               	.LBB804:
 4931               	.LM452:
 4932 1842 80E0      		ldi r24,lo8(0)
 4933 1844 0E94 0000 		call Timebase_UpCounter_Reset
 4934               	/* epilogue start */
 4935               	.LBE804:
 4936               	.LM453:
 4937 1848 0895      		ret
 4938               	.LFE83:
 4940               	.global	Timebase_DownCounter_SS_Get_Status
 4942               	Timebase_DownCounter_SS_Get_Status:
 4943               	.LFB84:
 4944               	.LM454:
 4945               	.LVL329:
 4946               	/* prologue: function */
 4947               	/* frame size = 0 */
 4948               	.LM455:
 4949 184a E091 0000 		lds r30,Timebase
 4950 184e F091 0000 		lds r31,(Timebase)+1
 4951 1852 90E0      		ldi r25,lo8(0)
 4952               	.LVL330:
 4953 1854 9C01      		movw r18,r24
 4954 1856 44E0      		ldi r20,4
 4955 1858 220F      	1:	lsl r18
 4956 185a 331F      		rol r19
 4957 185c 4A95      		dec r20
 4958 185e 01F4      		brne 1b
 4959 1860 280F      		add r18,r24
 4960 1862 391F      		adc r19,r25
 4961 1864 E20F      		add r30,r18
 4962 1866 F31F      		adc r31,r19
 4963 1868 EC5B      		subi r30,lo8(-(68))
 4964 186a FF4F      		sbci r31,hi8(-(68))
 4965 186c 8081      		ld r24,Z
 4966               	.LVL331:
 4967 186e 8695      		lsr r24
 4968               	.LM456:
 4969 1870 8F70      		andi r24,lo8(15)
 4970               	/* epilogue start */
 4971 1872 0895      		ret
 4972               	.LFE84:
 4974               	.global	Timebase_DownCounter_SS_Set_Status
 4976               	Timebase_DownCounter_SS_Set_Status:
 4977               	.LFB85:
 4978               	.LM457:
 4979               	.LVL332:
 4980               	/* prologue: function */
 4981               	/* frame size = 0 */
 4982               	.LM458:
 4983 1874 E091 0000 		lds r30,Timebase
 4984 1878 F091 0000 		lds r31,(Timebase)+1
 4985 187c 90E0      		ldi r25,lo8(0)
 4986               	.LVL333:
 4987 187e 9C01      		movw r18,r24
 4988 1880 54E0      		ldi r21,4
 4989 1882 220F      	1:	lsl r18
 4990 1884 331F      		rol r19
 4991 1886 5A95      		dec r21
 4992 1888 01F4      		brne 1b
 4993 188a 280F      		add r18,r24
 4994 188c 391F      		adc r19,r25
 4995 188e E20F      		add r30,r18
 4996 1890 F31F      		adc r31,r19
 4997 1892 EC5B      		subi r30,lo8(-(68))
 4998 1894 FF4F      		sbci r31,hi8(-(68))
 4999 1896 6F70      		andi r22,lo8(15)
 5000               	.LVL334:
 5001 1898 660F      		lsl r22
 5002 189a 8081      		ld r24,Z
 5003               	.LVL335:
 5004 189c 817E      		andi r24,lo8(-31)
 5005 189e 862B      		or r24,r22
 5006 18a0 8083      		st Z,r24
 5007               	/* epilogue start */
 5008               	.LM459:
 5009 18a2 0895      		ret
 5010               	.LFE85:
 5012               	.global	Timebase_DownCounter_SS_Get_Value
 5014               	Timebase_DownCounter_SS_Get_Value:
 5015               	.LFB86:
 5016               	.LM460:
 5017               	.LVL336:
 5018               	/* prologue: function */
 5019               	/* frame size = 0 */
 5020               	.LM461:
 5021 18a4 E091 0000 		lds r30,Timebase
 5022 18a8 F091 0000 		lds r31,(Timebase)+1
 5023 18ac 90E0      		ldi r25,lo8(0)
 5024               	.LVL337:
 5025 18ae 9C01      		movw r18,r24
 5026 18b0 64E0      		ldi r22,4
 5027 18b2 220F      	1:	lsl r18
 5028 18b4 331F      		rol r19
 5029 18b6 6A95      		dec r22
 5030 18b8 01F4      		brne 1b
 5031 18ba 280F      		add r18,r24
 5032 18bc 391F      		adc r19,r25
 5033 18be E20F      		add r30,r18
 5034 18c0 F31F      		adc r31,r19
 5035 18c2 E35B      		subi r30,lo8(-(77))
 5036 18c4 FF4F      		sbci r31,hi8(-(77))
 5037 18c6 6081      		ld r22,Z
 5038 18c8 7181      		ldd r23,Z+1
 5039               	.LM462:
 5040 18ca 8281      		ldd r24,Z+2
 5041               	.LVL338:
 5042 18cc 9381      		ldd r25,Z+3
 5043               	.LVL339:
 5044               	/* epilogue start */
 5045 18ce 0895      		ret
 5046               	.LFE86:
 5048               	.global	Timebase_DownCounter_SS_Set_Value
 5050               	Timebase_DownCounter_SS_Set_Value:
 5051               	.LFB87:
 5052               	.LM463:
 5053               	.LVL340:
 5054               	/* prologue: function */
 5055               	/* frame size = 0 */
 5056               	.LM464:
 5057 18d0 E091 0000 		lds r30,Timebase
 5058 18d4 F091 0000 		lds r31,(Timebase)+1
 5059 18d8 90E0      		ldi r25,lo8(0)
 5060               	.LVL341:
 5061 18da 9C01      		movw r18,r24
 5062 18dc A4E0      		ldi r26,4
 5063 18de 220F      	1:	lsl r18
 5064 18e0 331F      		rol r19
 5065 18e2 AA95      		dec r26
 5066 18e4 01F4      		brne 1b
 5067 18e6 280F      		add r18,r24
 5068 18e8 391F      		adc r19,r25
 5069 18ea E20F      		add r30,r18
 5070 18ec F31F      		adc r31,r19
 5071 18ee E35B      		subi r30,lo8(-(77))
 5072 18f0 FF4F      		sbci r31,hi8(-(77))
 5073 18f2 4083      		st Z,r20
 5074 18f4 5183      		std Z+1,r21
 5075 18f6 6283      		std Z+2,r22
 5076 18f8 7383      		std Z+3,r23
 5077               	/* epilogue start */
 5078               	.LM465:
 5079 18fa 0895      		ret
 5080               	.LFE87:
 5082               	.global	Timebase_DownCounter_SS_Get_EndValueSec
 5084               	Timebase_DownCounter_SS_Get_EndValueSec:
 5085               	.LFB88:
 5086               	.LM466:
 5087               	.LVL342:
 5088               	/* prologue: function */
 5089               	/* frame size = 0 */
 5090               	.LM467:
 5091 18fc E091 0000 		lds r30,Timebase
 5092 1900 F091 0000 		lds r31,(Timebase)+1
 5093 1904 90E0      		ldi r25,lo8(0)
 5094               	.LVL343:
 5095 1906 9C01      		movw r18,r24
 5096 1908 B4E0      		ldi r27,4
 5097 190a 220F      	1:	lsl r18
 5098 190c 331F      		rol r19
 5099 190e BA95      		dec r27
 5100 1910 01F4      		brne 1b
 5101 1912 280F      		add r18,r24
 5102 1914 391F      		adc r19,r25
 5103 1916 E20F      		add r30,r18
 5104 1918 F31F      		adc r31,r19
 5105 191a EB5B      		subi r30,lo8(-(69))
 5106 191c FF4F      		sbci r31,hi8(-(69))
 5107 191e 6081      		ld r22,Z
 5108 1920 7181      		ldd r23,Z+1
 5109               	.LM468:
 5110 1922 8281      		ldd r24,Z+2
 5111               	.LVL344:
 5112 1924 9381      		ldd r25,Z+3
 5113               	.LVL345:
 5114               	/* epilogue start */
 5115 1926 0895      		ret
 5116               	.LFE88:
 5118               	.global	Timebase_DownCounter_SS_Get_EndValueSubSec
 5120               	Timebase_DownCounter_SS_Get_EndValueSubSec:
 5121               	.LFB89:
 5122               	.LM469:
 5123               	.LVL346:
 5124               	/* prologue: function */
 5125               	/* frame size = 0 */
 5126               	.LM470:
 5127 1928 E091 0000 		lds r30,Timebase
 5128 192c F091 0000 		lds r31,(Timebase)+1
 5129 1930 90E0      		ldi r25,lo8(0)
 5130               	.LVL347:
 5131 1932 9C01      		movw r18,r24
 5132 1934 44E0      		ldi r20,4
 5133 1936 220F      	1:	lsl r18
 5134 1938 331F      		rol r19
 5135 193a 4A95      		dec r20
 5136 193c 01F4      		brne 1b
 5137 193e 280F      		add r18,r24
 5138 1940 391F      		adc r19,r25
 5139 1942 E20F      		add r30,r18
 5140 1944 F31F      		adc r31,r19
 5141 1946 E75B      		subi r30,lo8(-(73))
 5142 1948 FF4F      		sbci r31,hi8(-(73))
 5143 194a 6081      		ld r22,Z
 5144 194c 7181      		ldd r23,Z+1
 5145               	.LM471:
 5146 194e 8281      		ldd r24,Z+2
 5147               	.LVL348:
 5148 1950 9381      		ldd r25,Z+3
 5149               	.LVL349:
 5150               	/* epilogue start */
 5151 1952 0895      		ret
 5152               	.LFE89:
 5154               	.global	Timebase_DownCounter_SS_Set_EndValueSec
 5156               	Timebase_DownCounter_SS_Set_EndValueSec:
 5157               	.LFB90:
 5158               	.LM472:
 5159               	.LVL350:
 5160               	/* prologue: function */
 5161               	/* frame size = 0 */
 5162               	.LM473:
 5163 1954 E091 0000 		lds r30,Timebase
 5164 1958 F091 0000 		lds r31,(Timebase)+1
 5165 195c 90E0      		ldi r25,lo8(0)
 5166               	.LVL351:
 5167 195e 9C01      		movw r18,r24
 5168 1960 A4E0      		ldi r26,4
 5169 1962 220F      	1:	lsl r18
 5170 1964 331F      		rol r19
 5171 1966 AA95      		dec r26
 5172 1968 01F4      		brne 1b
 5173 196a 280F      		add r18,r24
 5174 196c 391F      		adc r19,r25
 5175 196e E20F      		add r30,r18
 5176 1970 F31F      		adc r31,r19
 5177 1972 EB5B      		subi r30,lo8(-(69))
 5178 1974 FF4F      		sbci r31,hi8(-(69))
 5179 1976 4083      		st Z,r20
 5180 1978 5183      		std Z+1,r21
 5181 197a 6283      		std Z+2,r22
 5182 197c 7383      		std Z+3,r23
 5183               	/* epilogue start */
 5184               	.LM474:
 5185 197e 0895      		ret
 5186               	.LFE90:
 5188               	.global	Timebase_DownCounter_SS_Set_EndValueSubSec
 5190               	Timebase_DownCounter_SS_Set_EndValueSubSec:
 5191               	.LFB91:
 5192               	.LM475:
 5193               	.LVL352:
 5194               	/* prologue: function */
 5195               	/* frame size = 0 */
 5196               	.LM476:
 5197 1980 E091 0000 		lds r30,Timebase
 5198 1984 F091 0000 		lds r31,(Timebase)+1
 5199 1988 90E0      		ldi r25,lo8(0)
 5200               	.LVL353:
 5201 198a 9C01      		movw r18,r24
 5202 198c B4E0      		ldi r27,4
 5203 198e 220F      	1:	lsl r18
 5204 1990 331F      		rol r19
 5205 1992 BA95      		dec r27
 5206 1994 01F4      		brne 1b
 5207 1996 280F      		add r18,r24
 5208 1998 391F      		adc r19,r25
 5209 199a E20F      		add r30,r18
 5210 199c F31F      		adc r31,r19
 5211 199e E75B      		subi r30,lo8(-(73))
 5212 19a0 FF4F      		sbci r31,hi8(-(73))
 5213 19a2 4083      		st Z,r20
 5214 19a4 5183      		std Z+1,r21
 5215 19a6 6283      		std Z+2,r22
 5216 19a8 7383      		std Z+3,r23
 5217               	/* epilogue start */
 5218               	.LM477:
 5219 19aa 0895      		ret
 5220               	.LFE91:
 5222               	.global	Timebase_DownCounter_SS_Get_PeriodValue
 5224               	Timebase_DownCounter_SS_Get_PeriodValue:
 5225               	.LFB92:
 5226               	.LM478:
 5227               	.LVL354:
 5228               	/* prologue: function */
 5229               	/* frame size = 0 */
 5230               	.LM479:
 5231 19ac E091 0000 		lds r30,Timebase
 5232 19b0 F091 0000 		lds r31,(Timebase)+1
 5233 19b4 90E0      		ldi r25,lo8(0)
 5234               	.LVL355:
 5235 19b6 9C01      		movw r18,r24
 5236 19b8 44E0      		ldi r20,4
 5237 19ba 220F      	1:	lsl r18
 5238 19bc 331F      		rol r19
 5239 19be 4A95      		dec r20
 5240 19c0 01F4      		brne 1b
 5241 19c2 280F      		add r18,r24
 5242 19c4 391F      		adc r19,r25
 5243 19c6 E20F      		add r30,r18
 5244 19c8 F31F      		adc r31,r19
 5245 19ca EF5A      		subi r30,lo8(-(81))
 5246 19cc FF4F      		sbci r31,hi8(-(81))
 5247 19ce 6081      		ld r22,Z
 5248 19d0 7181      		ldd r23,Z+1
 5249               	.LM480:
 5250 19d2 8281      		ldd r24,Z+2
 5251               	.LVL356:
 5252 19d4 9381      		ldd r25,Z+3
 5253               	.LVL357:
 5254               	/* epilogue start */
 5255 19d6 0895      		ret
 5256               	.LFE92:
 5258               	.global	Timebase_DownCounter_SS_Set_PeriodValue
 5260               	Timebase_DownCounter_SS_Set_PeriodValue:
 5261               	.LFB93:
 5262               	.LM481:
 5263               	.LVL358:
 5264               	/* prologue: function */
 5265               	/* frame size = 0 */
 5266 19d8 E091 0000 		lds r30,Timebase
 5267 19dc F091 0000 		lds r31,(Timebase)+1
 5268 19e0 282F      		mov r18,r24
 5269 19e2 30E0      		ldi r19,lo8(0)
 5270               	.LVL359:
 5271               	.LM482:
 5272 19e4 77FF      		sbrs r23,7
 5273 19e6 00C0      		rjmp .L249
 5274               	.LVL360:
 5275               	.LM483:
 5276 19e8 C901      		movw r24,r18
 5277 19ea B4E0      		ldi r27,4
 5278 19ec 880F      	1:	lsl r24
 5279 19ee 991F      		rol r25
 5280 19f0 BA95      		dec r27
 5281 19f2 01F4      		brne 1b
 5282 19f4 820F      		add r24,r18
 5283 19f6 931F      		adc r25,r19
 5284 19f8 E80F      		add r30,r24
 5285 19fa F91F      		adc r31,r25
 5286 19fc EF5A      		subi r30,lo8(-(81))
 5287 19fe FF4F      		sbci r31,hi8(-(81))
 5288 1a00 1082      		st Z,__zero_reg__
 5289 1a02 1182      		std Z+1,__zero_reg__
 5290 1a04 1282      		std Z+2,__zero_reg__
 5291 1a06 1382      		std Z+3,__zero_reg__
 5292 1a08 0895      		ret
 5293               	.LVL361:
 5294               	.L249:
 5295               	.LM484:
 5296 1a0a C901      		movw r24,r18
 5297 1a0c A4E0      		ldi r26,4
 5298 1a0e 880F      	1:	lsl r24
 5299 1a10 991F      		rol r25
 5300 1a12 AA95      		dec r26
 5301 1a14 01F4      		brne 1b
 5302 1a16 820F      		add r24,r18
 5303 1a18 931F      		adc r25,r19
 5304 1a1a E80F      		add r30,r24
 5305 1a1c F91F      		adc r31,r25
 5306 1a1e EF5A      		subi r30,lo8(-(81))
 5307 1a20 FF4F      		sbci r31,hi8(-(81))
 5308 1a22 4083      		st Z,r20
 5309 1a24 5183      		std Z+1,r21
 5310 1a26 6283      		std Z+2,r22
 5311 1a28 7383      		std Z+3,r23
 5312 1a2a 0895      		ret
 5313               	.LFE93:
 5315               	.global	Timebase_DownCounter_SS_Get_Period_Flag
 5317               	Timebase_DownCounter_SS_Get_Period_Flag:
 5318               	.LFB94:
 5319               	.LM485:
 5320               	.LVL362:
 5321               	/* prologue: function */
 5322               	/* frame size = 0 */
 5323               	.LM486:
 5324 1a2c E091 0000 		lds r30,Timebase
 5325 1a30 F091 0000 		lds r31,(Timebase)+1
 5326 1a34 90E0      		ldi r25,lo8(0)
 5327               	.LVL363:
 5328 1a36 9C01      		movw r18,r24
 5329 1a38 44E0      		ldi r20,4
 5330 1a3a 220F      	1:	lsl r18
 5331 1a3c 331F      		rol r19
 5332 1a3e 4A95      		dec r20
 5333 1a40 01F4      		brne 1b
 5334 1a42 280F      		add r18,r24
 5335 1a44 391F      		adc r19,r25
 5336 1a46 E20F      		add r30,r18
 5337 1a48 F31F      		adc r31,r19
 5338 1a4a EC5B      		subi r30,lo8(-(68))
 5339 1a4c FF4F      		sbci r31,hi8(-(68))
 5340 1a4e 8081      		ld r24,Z
 5341               	.LVL364:
 5342               	.LM487:
 5343 1a50 8170      		andi r24,lo8(1)
 5344               	/* epilogue start */
 5345 1a52 0895      		ret
 5346               	.LFE94:
 5348               	.global	Timebase_DownCounter_SS_Set_Period_Flag
 5350               	Timebase_DownCounter_SS_Set_Period_Flag:
 5351               	.LFB95:
 5352               	.LM488:
 5353               	.LVL365:
 5354               	/* prologue: function */
 5355               	/* frame size = 0 */
 5356               	.LM489:
 5357 1a54 E091 0000 		lds r30,Timebase
 5358 1a58 F091 0000 		lds r31,(Timebase)+1
 5359 1a5c 90E0      		ldi r25,lo8(0)
 5360               	.LVL366:
 5361 1a5e 9C01      		movw r18,r24
 5362 1a60 54E0      		ldi r21,4
 5363 1a62 220F      	1:	lsl r18
 5364 1a64 331F      		rol r19
 5365 1a66 5A95      		dec r21
 5366 1a68 01F4      		brne 1b
 5367 1a6a 280F      		add r18,r24
 5368 1a6c 391F      		adc r19,r25
 5369 1a6e E20F      		add r30,r18
 5370 1a70 F31F      		adc r31,r19
 5371 1a72 EC5B      		subi r30,lo8(-(68))
 5372 1a74 FF4F      		sbci r31,hi8(-(68))
 5373 1a76 8081      		ld r24,Z
 5374               	.LVL367:
 5375 1a78 8160      		ori r24,lo8(1)
 5376 1a7a 8083      		st Z,r24
 5377               	/* epilogue start */
 5378               	.LM490:
 5379 1a7c 0895      		ret
 5380               	.LFE95:
 5382               	.global	Timebase_DownCounter_SS_Clear_Period_Flag
 5384               	Timebase_DownCounter_SS_Clear_Period_Flag:
 5385               	.LFB96:
 5386               	.LM491:
 5387               	.LVL368:
 5388               	/* prologue: function */
 5389               	/* frame size = 0 */
 5390               	.LM492:
 5391 1a7e E091 0000 		lds r30,Timebase
 5392 1a82 F091 0000 		lds r31,(Timebase)+1
 5393 1a86 90E0      		ldi r25,lo8(0)
 5394               	.LVL369:
 5395 1a88 9C01      		movw r18,r24
 5396 1a8a 64E0      		ldi r22,4
 5397 1a8c 220F      	1:	lsl r18
 5398 1a8e 331F      		rol r19
 5399 1a90 6A95      		dec r22
 5400 1a92 01F4      		brne 1b
 5401 1a94 280F      		add r18,r24
 5402 1a96 391F      		adc r19,r25
 5403 1a98 E20F      		add r30,r18
 5404 1a9a F31F      		adc r31,r19
 5405 1a9c EC5B      		subi r30,lo8(-(68))
 5406 1a9e FF4F      		sbci r31,hi8(-(68))
 5407 1aa0 8081      		ld r24,Z
 5408               	.LVL370:
 5409 1aa2 8E7F      		andi r24,lo8(-2)
 5410 1aa4 8083      		st Z,r24
 5411               	/* epilogue start */
 5412               	.LM493:
 5413 1aa6 0895      		ret
 5414               	.LFE96:
 5416               	.global	Timebase_DownCounter_SS_Reset
 5418               	Timebase_DownCounter_SS_Reset:
 5419               	.LFB97:
 5420               	.LM494:
 5421               	.LVL371:
 5422               	/* prologue: function */
 5423               	/* frame size = 0 */
 5424               	.LBB805:
 5425               	.LBB806:
 5426               	.LM495:
 5427 1aa8 E091 0000 		lds r30,Timebase
 5428 1aac F091 0000 		lds r31,(Timebase)+1
 5429 1ab0 90E0      		ldi r25,lo8(0)
 5430 1ab2 9C01      		movw r18,r24
 5431               	.LVL372:
 5432 1ab4 74E0      		ldi r23,4
 5433 1ab6 220F      	1:	lsl r18
 5434 1ab8 331F      		rol r19
 5435 1aba 7A95      		dec r23
 5436 1abc 01F4      		brne 1b
 5437 1abe 280F      		add r18,r24
 5438 1ac0 391F      		adc r19,r25
 5439 1ac2 E20F      		add r30,r18
 5440 1ac4 F31F      		adc r31,r19
 5441 1ac6 E75B      		subi r30,lo8(-(73))
 5442 1ac8 FF4F      		sbci r31,hi8(-(73))
 5443 1aca 1082      		st Z,__zero_reg__
 5444 1acc 1182      		std Z+1,__zero_reg__
 5445 1ace 1282      		std Z+2,__zero_reg__
 5446 1ad0 1382      		std Z+3,__zero_reg__
 5447               	.LBE806:
 5448               	.LBE805:
 5449               	.LBB807:
 5450               	.LBB808:
 5451               	.LM496:
 5452 1ad2 1292      		st -Z,__zero_reg__
 5453 1ad4 1292      		st -Z,__zero_reg__
 5454 1ad6 1292      		st -Z,__zero_reg__
 5455 1ad8 1292      		st -Z,__zero_reg__
 5456               	.LBE808:
 5457               	.LBE807:
 5458               	.LBB809:
 5459               	.LBB810:
 5460               	.LM497:
 5461 1ada 3896      		adiw r30,8
 5462 1adc 1082      		st Z,__zero_reg__
 5463 1ade 1182      		std Z+1,__zero_reg__
 5464 1ae0 1282      		std Z+2,__zero_reg__
 5465 1ae2 1382      		std Z+3,__zero_reg__
 5466               	.LBE810:
 5467               	.LBE809:
 5468               	.LBB811:
 5469               	.LBB812:
 5470               	.LM498:
 5471 1ae4 3997      		sbiw r30,9
 5472 1ae6 8081      		ld r24,Z
 5473               	.LBE812:
 5474               	.LBE811:
 5475               	.LBB813:
 5476               	.LBB814:
 5477               	.LM499:
 5478 1ae8 807E      		andi r24,lo8(-32)
 5479 1aea 8083      		st Z,r24
 5480               	/* epilogue start */
 5481               	.LBE814:
 5482               	.LBE813:
 5483               	.LM500:
 5484 1aec 0895      		ret
 5485               	.LFE97:
 5487               	.global	Timebase_DownCounter_SS_Clear_All_Flags
 5489               	Timebase_DownCounter_SS_Clear_All_Flags:
 5490               	.LFB98:
 5491               	.LM501:
 5492               	.LVL373:
 5493               	/* prologue: function */
 5494               	/* frame size = 0 */
 5495               	.LBB815:
 5496               	.LBB816:
 5497               	.LBB817:
 5498               	.LBB818:
 5499               	.LM502:
 5500 1aee E091 0000 		lds r30,Timebase
 5501 1af2 F091 0000 		lds r31,(Timebase)+1
 5502 1af6 90E0      		ldi r25,lo8(0)
 5503 1af8 9C01      		movw r18,r24
 5504               	.LVL374:
 5505 1afa A4E0      		ldi r26,4
 5506 1afc 220F      	1:	lsl r18
 5507 1afe 331F      		rol r19
 5508 1b00 AA95      		dec r26
 5509 1b02 01F4      		brne 1b
 5510 1b04 280F      		add r18,r24
 5511 1b06 391F      		adc r19,r25
 5512 1b08 E20F      		add r30,r18
 5513 1b0a F31F      		adc r31,r19
 5514 1b0c E75B      		subi r30,lo8(-(73))
 5515 1b0e FF4F      		sbci r31,hi8(-(73))
 5516 1b10 1082      		st Z,__zero_reg__
 5517 1b12 1182      		std Z+1,__zero_reg__
 5518 1b14 1282      		std Z+2,__zero_reg__
 5519 1b16 1382      		std Z+3,__zero_reg__
 5520               	.LBE818:
 5521               	.LBE817:
 5522               	.LBB819:
 5523               	.LBB820:
 5524               	.LM503:
 5525 1b18 1292      		st -Z,__zero_reg__
 5526 1b1a 1292      		st -Z,__zero_reg__
 5527 1b1c 1292      		st -Z,__zero_reg__
 5528 1b1e 1292      		st -Z,__zero_reg__
 5529               	.LBE820:
 5530               	.LBE819:
 5531               	.LBB821:
 5532               	.LBB822:
 5533               	.LM504:
 5534 1b20 3896      		adiw r30,8
 5535 1b22 1082      		st Z,__zero_reg__
 5536 1b24 1182      		std Z+1,__zero_reg__
 5537 1b26 1282      		std Z+2,__zero_reg__
 5538 1b28 1382      		std Z+3,__zero_reg__
 5539               	.LBE822:
 5540               	.LBE821:
 5541               	.LBB823:
 5542               	.LBB824:
 5543               	.LM505:
 5544 1b2a 3997      		sbiw r30,9
 5545 1b2c 8081      		ld r24,Z
 5546               	.LBE824:
 5547               	.LBE823:
 5548               	.LBB825:
 5549               	.LBB826:
 5550               	.LM506:
 5551 1b2e 807E      		andi r24,lo8(-32)
 5552 1b30 8083      		st Z,r24
 5553               	/* epilogue start */
 5554               	.LBE826:
 5555               	.LBE825:
 5556               	.LBE816:
 5557               	.LBE815:
 5558               	.LM507:
 5559 1b32 0895      		ret
 5560               	.LFE98:
 5562               	.global	Timebase_DownCounter_SS_Start
 5564               	Timebase_DownCounter_SS_Start:
 5565               	.LFB99:
 5566               	.LM508:
 5567               	.LVL375:
 5568               	/* prologue: function */
 5569               	/* frame size = 0 */
 5570               	.LBB827:
 5571               	.LBB828:
 5572               	.LM509:
 5573 1b34 E091 0000 		lds r30,Timebase
 5574 1b38 F091 0000 		lds r31,(Timebase)+1
 5575 1b3c 90E0      		ldi r25,lo8(0)
 5576               	.LBE828:
 5577               	.LBE827:
 5578               	.LM510:
 5579 1b3e 9C01      		movw r18,r24
 5580               	.LVL376:
 5581 1b40 B4E0      		ldi r27,4
 5582 1b42 220F      	1:	lsl r18
 5583 1b44 331F      		rol r19
 5584 1b46 BA95      		dec r27
 5585 1b48 01F4      		brne 1b
 5586 1b4a 280F      		add r18,r24
 5587 1b4c 391F      		adc r19,r25
 5588 1b4e E20F      		add r30,r18
 5589 1b50 F31F      		adc r31,r19
 5590 1b52 EC5B      		subi r30,lo8(-(68))
 5591 1b54 FF4F      		sbci r31,hi8(-(68))
 5592 1b56 9081      		ld r25,Z
 5593 1b58 892F      		mov r24,r25
 5594 1b5a 8695      		lsr r24
 5595 1b5c 8F70      		andi r24,lo8(15)
 5596 1b5e 8130      		cpi r24,lo8(1)
 5597 1b60 01F0      		breq .L264
 5598               	.LBB829:
 5599               	.LBB830:
 5600               	.LM511:
 5601 1b62 917E      		andi r25,lo8(-31)
 5602 1b64 9260      		ori r25,lo8(2)
 5603 1b66 9083      		st Z,r25
 5604               	.L264:
 5605 1b68 0895      		ret
 5606               	.LBE830:
 5607               	.LBE829:
 5608               	.LFE99:
 5610               	.global	Timebase_DownCounter_SS_Stop
 5612               	Timebase_DownCounter_SS_Stop:
 5613               	.LFB100:
 5614               	.LM512:
 5615               	.LVL377:
 5616               	/* prologue: function */
 5617               	/* frame size = 0 */
 5618               	.LBB831:
 5619               	.LBB832:
 5620               	.LM513:
 5621 1b6a E091 0000 		lds r30,Timebase
 5622 1b6e F091 0000 		lds r31,(Timebase)+1
 5623 1b72 90E0      		ldi r25,lo8(0)
 5624               	.LBE832:
 5625               	.LBE831:
 5626               	.LM514:
 5627 1b74 9C01      		movw r18,r24
 5628               	.LVL378:
 5629 1b76 44E0      		ldi r20,4
 5630 1b78 220F      	1:	lsl r18
 5631 1b7a 331F      		rol r19
 5632 1b7c 4A95      		dec r20
 5633 1b7e 01F4      		brne 1b
 5634 1b80 280F      		add r18,r24
 5635 1b82 391F      		adc r19,r25
 5636 1b84 E20F      		add r30,r18
 5637 1b86 F31F      		adc r31,r19
 5638 1b88 EC5B      		subi r30,lo8(-(68))
 5639 1b8a FF4F      		sbci r31,hi8(-(68))
 5640 1b8c 9081      		ld r25,Z
 5641 1b8e 892F      		mov r24,r25
 5642 1b90 8695      		lsr r24
 5643 1b92 8F70      		andi r24,lo8(15)
 5644 1b94 8230      		cpi r24,lo8(2)
 5645 1b96 01F0      		breq .L267
 5646               	.LBB833:
 5647               	.LBB834:
 5648               	.LM515:
 5649 1b98 917E      		andi r25,lo8(-31)
 5650 1b9a 9460      		ori r25,lo8(4)
 5651 1b9c 9083      		st Z,r25
 5652               	.L267:
 5653 1b9e 0895      		ret
 5654               	.LBE834:
 5655               	.LBE833:
 5656               	.LFE100:
 5658               	.global	Timebase_DownCounter_SS_Set_Securely
 5660               	Timebase_DownCounter_SS_Set_Securely:
 5661               	.LFB101:
 5662               	.LM516:
 5663               	.LVL379:
 5664 1ba0 2F92      		push r2
 5665 1ba2 3F92      		push r3
 5666 1ba4 4F92      		push r4
 5667 1ba6 5F92      		push r5
 5668 1ba8 6F92      		push r6
 5669 1baa 7F92      		push r7
 5670 1bac 8F92      		push r8
 5671 1bae 9F92      		push r9
 5672 1bb0 AF92      		push r10
 5673 1bb2 BF92      		push r11
 5674 1bb4 CF92      		push r12
 5675 1bb6 DF92      		push r13
 5676 1bb8 EF92      		push r14
 5677 1bba FF92      		push r15
 5678 1bbc 0F93      		push r16
 5679 1bbe 1F93      		push r17
 5680 1bc0 DF93      		push r29
 5681 1bc2 CF93      		push r28
 5682 1bc4 00D0      		rcall .
 5683 1bc6 00D0      		rcall .
 5684 1bc8 CDB7      		in r28,__SP_L__
 5685 1bca DEB7      		in r29,__SP_H__
 5686               	/* prologue: function */
 5687               	/* frame size = 4 */
 5688 1bcc 4A01      		movw r8,r20
 5689 1bce 5B01      		movw r10,r22
 5690               	.LBB835:
 5691               	.LBB836:
 5692               	.LM517:
 5693 1bd0 2091 0000 		lds r18,Timebase
 5694 1bd4 3091 0000 		lds r19,(Timebase)+1
 5695 1bd8 3C83      		std Y+4,r19
 5696 1bda 2B83      		std Y+3,r18
 5697 1bdc A82F      		mov r26,r24
 5698 1bde B0E0      		ldi r27,lo8(0)
 5699 1be0 BA83      		std Y+2,r27
 5700 1be2 A983      		std Y+1,r26
 5701               	.LBE836:
 5702               	.LBE835:
 5703               	.LM518:
 5704 1be4 FD01      		movw r30,r26
 5705 1be6 64E0      		ldi r22,4
 5706 1be8 EE0F      	1:	lsl r30
 5707 1bea FF1F      		rol r31
 5708 1bec 6A95      		dec r22
 5709 1bee 01F4      		brne 1b
 5710 1bf0 EA0F      		add r30,r26
 5711 1bf2 FB1F      		adc r31,r27
 5712 1bf4 E20F      		add r30,r18
 5713 1bf6 F31F      		adc r31,r19
 5714 1bf8 EC5B      		subi r30,lo8(-(68))
 5715 1bfa FF4F      		sbci r31,hi8(-(68))
 5716 1bfc 8081      		ld r24,Z
 5717               	.LVL380:
 5718 1bfe E454      		subi r30,lo8(-(-68))
 5719 1c00 F040      		sbci r31,hi8(-(-68))
 5720 1c02 8695      		lsr r24
 5721 1c04 8F70      		andi r24,lo8(15)
 5722 1c06 01F0      		breq .+2
 5723 1c08 00C0      		rjmp .L271
 5724               	.LVL381:
 5725               	.LBB837:
 5726               	.LBB838:
 5727               	.LBB839:
 5728               	.LM519:
 5729 1c0a E35B      		subi r30,lo8(-(77))
 5730 1c0c FF4F      		sbci r31,hi8(-(77))
 5731 1c0e 8082      		st Z,r8
 5732 1c10 9182      		std Z+1,r9
 5733 1c12 A282      		std Z+2,r10
 5734 1c14 B382      		std Z+3,r11
 5735               	.LBE839:
 5736               	.LBE838:
 5737               	.LBB840:
 5738               	.LBB841:
 5739               	.LM520:
 5740 1c16 F901      		movw r30,r18
 5741 1c18 C084      		ldd r12,Z+8
 5742 1c1a D184      		ldd r13,Z+9
 5743               	.LBE841:
 5744               	.LBE840:
 5745               	.LBB842:
 5746               	.LBB843:
 5747               	.LM521:
 5748 1c1c 2284      		ldd r2,Z+10
 5749 1c1e 3384      		ldd r3,Z+11
 5750 1c20 4484      		ldd r4,Z+12
 5751 1c22 5584      		ldd r5,Z+13
 5752               	.LVL382:
 5753               	.LBE843:
 5754               	.LBE842:
 5755               	.LM522:
 5756 1c24 2181      		ldd r18,Z+1
 5757 1c26 3281      		ldd r19,Z+2
 5758 1c28 40E0      		ldi r20,lo8(0)
 5759 1c2a 50E0      		ldi r21,hi8(0)
 5760 1c2c C501      		movw r24,r10
 5761 1c2e B401      		movw r22,r8
 5762 1c30 0E94 0000 		call __divmodsi4
 5763 1c34 7B01      		movw r14,r22
 5764 1c36 8C01      		movw r16,r24
 5765               	.LM523:
 5766 1c38 AB81      		ldd r26,Y+3
 5767 1c3a BC81      		ldd r27,Y+4
 5768 1c3c 1196      		adiw r26,1
 5769 1c3e 2D91      		ld r18,X+
 5770 1c40 3C91      		ld r19,X
 5771 1c42 1297      		sbiw r26,1+1
 5772 1c44 40E0      		ldi r20,lo8(0)
 5773 1c46 50E0      		ldi r21,hi8(0)
 5774 1c48 C501      		movw r24,r10
 5775 1c4a B401      		movw r22,r8
 5776 1c4c 0E94 0000 		call __divmodsi4
 5777 1c50 C901      		movw r24,r18
 5778 1c52 DA01      		movw r26,r20
 5779 1c54 3C01      		movw r6,r24
 5780 1c56 4D01      		movw r8,r26
 5781               	.LVL383:
 5782               	.LM524:
 5783 1c58 5601      		movw r10,r12
 5784               	.LVL384:
 5785 1c5a CC24      		clr r12
 5786 1c5c DD24      		clr r13
 5787               	.LVL385:
 5788 1c5e AE0C      		add r10,r14
 5789 1c60 BF1C      		adc r11,r15
 5790 1c62 C01E      		adc r12,r16
 5791 1c64 D11E      		adc r13,r17
 5792               	.LVL386:
 5793               	.LM525:
 5794 1c66 EB81      		ldd r30,Y+3
 5795 1c68 FC81      		ldd r31,Y+4
 5796 1c6a 8181      		ldd r24,Z+1
 5797 1c6c 9281      		ldd r25,Z+2
 5798               	.LVL387:
 5799 1c6e A0E0      		ldi r26,lo8(0)
 5800 1c70 B0E0      		ldi r27,hi8(0)
 5801 1c72 A816      		cp r10,r24
 5802 1c74 B906      		cpc r11,r25
 5803 1c76 CA06      		cpc r12,r26
 5804 1c78 DB06      		cpc r13,r27
 5805 1c7a 04F0      		brlt .L270
 5806               	.LM526:
 5807 1c7c 0894      		sec
 5808 1c7e 611C      		adc r6,__zero_reg__
 5809 1c80 711C      		adc r7,__zero_reg__
 5810 1c82 811C      		adc r8,__zero_reg__
 5811 1c84 911C      		adc r9,__zero_reg__
 5812               	.LM527:
 5813 1c86 2181      		ldd r18,Z+1
 5814 1c88 3281      		ldd r19,Z+2
 5815 1c8a 40E0      		ldi r20,lo8(0)
 5816 1c8c 50E0      		ldi r21,hi8(0)
 5817 1c8e C601      		movw r24,r12
 5818 1c90 B501      		movw r22,r10
 5819 1c92 0E94 0000 		call __divmodsi4
 5820 1c96 AC01      		movw r20,r24
 5821 1c98 CB01      		movw r24,r22
 5822 1c9a DA01      		movw r26,r20
 5823 1c9c 5C01      		movw r10,r24
 5824 1c9e 6D01      		movw r12,r26
 5825               	.L270:
 5826               	.LBB844:
 5827               	.LBB845:
 5828               	.LM528:
 5829 1ca0 E981      		ldd r30,Y+1
 5830 1ca2 FA81      		ldd r31,Y+2
 5831 1ca4 54E0      		ldi r21,4
 5832 1ca6 EE0F      	1:	lsl r30
 5833 1ca8 FF1F      		rol r31
 5834 1caa 5A95      		dec r21
 5835 1cac 01F4      		brne 1b
 5836 1cae 2981      		ldd r18,Y+1
 5837 1cb0 3A81      		ldd r19,Y+2
 5838 1cb2 E20F      		add r30,r18
 5839 1cb4 F31F      		adc r31,r19
 5840 1cb6 8B81      		ldd r24,Y+3
 5841 1cb8 9C81      		ldd r25,Y+4
 5842 1cba E80F      		add r30,r24
 5843 1cbc F91F      		adc r31,r25
 5844 1cbe EB5B      		subi r30,lo8(-(69))
 5845 1cc0 FF4F      		sbci r31,hi8(-(69))
 5846 1cc2 260C      		add r2,r6
 5847 1cc4 371C      		adc r3,r7
 5848 1cc6 481C      		adc r4,r8
 5849 1cc8 591C      		adc r5,r9
 5850 1cca 2192      		st Z+,r2
 5851 1ccc 3192      		st Z+,r3
 5852 1cce 4192      		st Z+,r4
 5853 1cd0 5192      		st Z+,r5
 5854               	.LBE845:
 5855               	.LBE844:
 5856               	.LBB846:
 5857               	.LBB847:
 5858               	.LM529:
 5859 1cd2 A082      		st Z,r10
 5860 1cd4 B182      		std Z+1,r11
 5861 1cd6 C282      		std Z+2,r12
 5862 1cd8 D382      		std Z+3,r13
 5863               	.LBE847:
 5864               	.LBE846:
 5865               	.LBB848:
 5866               	.LBB849:
 5867               	.LM530:
 5868 1cda 3597      		sbiw r30,5
 5869 1cdc 9081      		ld r25,Z
 5870 1cde 892F      		mov r24,r25
 5871 1ce0 8695      		lsr r24
 5872 1ce2 8F70      		andi r24,lo8(15)
 5873 1ce4 8130      		cpi r24,lo8(1)
 5874 1ce6 01F0      		breq .L271
 5875               	.LBB850:
 5876               	.LBB851:
 5877               	.LM531:
 5878 1ce8 917E      		andi r25,lo8(-31)
 5879 1cea 9260      		ori r25,lo8(2)
 5880 1cec 9083      		st Z,r25
 5881               	.LVL388:
 5882               	.L271:
 5883               	/* epilogue start */
 5884               	.LBE851:
 5885               	.LBE850:
 5886               	.LBE849:
 5887               	.LBE848:
 5888               	.LBE837:
 5889               	.LM532:
 5890 1cee 0F90      		pop __tmp_reg__
 5891 1cf0 0F90      		pop __tmp_reg__
 5892 1cf2 0F90      		pop __tmp_reg__
 5893 1cf4 0F90      		pop __tmp_reg__
 5894 1cf6 CF91      		pop r28
 5895 1cf8 DF91      		pop r29
 5896 1cfa 1F91      		pop r17
 5897 1cfc 0F91      		pop r16
 5898 1cfe FF90      		pop r15
 5899 1d00 EF90      		pop r14
 5900 1d02 DF90      		pop r13
 5901 1d04 CF90      		pop r12
 5902               	.LVL389:
 5903 1d06 BF90      		pop r11
 5904 1d08 AF90      		pop r10
 5905               	.LVL390:
 5906 1d0a 9F90      		pop r9
 5907 1d0c 8F90      		pop r8
 5908               	.LVL391:
 5909 1d0e 7F90      		pop r7
 5910 1d10 6F90      		pop r6
 5911               	.LVL392:
 5912 1d12 5F90      		pop r5
 5913 1d14 4F90      		pop r4
 5914 1d16 3F90      		pop r3
 5915 1d18 2F90      		pop r2
 5916               	.LVL393:
 5917 1d1a 0895      		ret
 5918               	.LFE101:
 5920               	.global	Timebase_DownCounter_SS_Set_Forcefully
 5922               	Timebase_DownCounter_SS_Set_Forcefully:
 5923               	.LFB102:
 5924               	.LM533:
 5925               	.LVL394:
 5926               	/* prologue: function */
 5927               	/* frame size = 0 */
 5928               	.LBB852:
 5929               	.LBB853:
 5930               	.LBB854:
 5931               	.LBB855:
 5932               	.LM534:
 5933 1d1c E091 0000 		lds r30,Timebase
 5934 1d20 F091 0000 		lds r31,(Timebase)+1
 5935 1d24 A82F      		mov r26,r24
 5936 1d26 B0E0      		ldi r27,lo8(0)
 5937 1d28 9D01      		movw r18,r26
 5938 1d2a 94E0      		ldi r25,4
 5939 1d2c 220F      	1:	lsl r18
 5940 1d2e 331F      		rol r19
 5941 1d30 9A95      		dec r25
 5942 1d32 01F4      		brne 1b
 5943 1d34 2A0F      		add r18,r26
 5944 1d36 3B1F      		adc r19,r27
 5945 1d38 E20F      		add r30,r18
 5946 1d3a F31F      		adc r31,r19
 5947 1d3c E75B      		subi r30,lo8(-(73))
 5948 1d3e FF4F      		sbci r31,hi8(-(73))
 5949 1d40 1082      		st Z,__zero_reg__
 5950 1d42 1182      		std Z+1,__zero_reg__
 5951 1d44 1282      		std Z+2,__zero_reg__
 5952 1d46 1382      		std Z+3,__zero_reg__
 5953               	.LBE855:
 5954               	.LBE854:
 5955               	.LBB856:
 5956               	.LBB857:
 5957               	.LM535:
 5958 1d48 1292      		st -Z,__zero_reg__
 5959 1d4a 1292      		st -Z,__zero_reg__
 5960 1d4c 1292      		st -Z,__zero_reg__
 5961 1d4e 1292      		st -Z,__zero_reg__
 5962               	.LBE857:
 5963               	.LBE856:
 5964               	.LBB858:
 5965               	.LBB859:
 5966               	.LM536:
 5967 1d50 3896      		adiw r30,8
 5968 1d52 1082      		st Z,__zero_reg__
 5969 1d54 1182      		std Z+1,__zero_reg__
 5970 1d56 1282      		std Z+2,__zero_reg__
 5971 1d58 1382      		std Z+3,__zero_reg__
 5972               	.LBE859:
 5973               	.LBE858:
 5974               	.LBB860:
 5975               	.LBB861:
 5976               	.LM537:
 5977 1d5a 3997      		sbiw r30,9
 5978 1d5c 9081      		ld r25,Z
 5979               	.LBE861:
 5980               	.LBE860:
 5981               	.LBB862:
 5982               	.LBB863:
 5983               	.LM538:
 5984 1d5e 907E      		andi r25,lo8(-32)
 5985 1d60 9083      		st Z,r25
 5986               	.LBE863:
 5987               	.LBE862:
 5988               	.LBE853:
 5989               	.LBE852:
 5990               	.LM539:
 5991 1d62 0E94 0000 		call Timebase_DownCounter_SS_Set_Securely
 5992               	.LVL395:
 5993               	/* epilogue start */
 5994               	.LM540:
 5995 1d66 0895      		ret
 5996               	.LFE102:
 5998               	.global	Timebase_DownCounter_SS_Update
 6000               	Timebase_DownCounter_SS_Update:
 6001               	.LFB103:
 6002               	.LM541:
 6003               	.LVL396:
 6004 1d68 2F92      		push r2
 6005 1d6a 3F92      		push r3
 6006 1d6c 4F92      		push r4
 6007 1d6e 5F92      		push r5
 6008 1d70 6F92      		push r6
 6009 1d72 7F92      		push r7
 6010 1d74 8F92      		push r8
 6011 1d76 9F92      		push r9
 6012 1d78 AF92      		push r10
 6013 1d7a BF92      		push r11
 6014 1d7c CF92      		push r12
 6015 1d7e DF92      		push r13
 6016 1d80 EF92      		push r14
 6017 1d82 FF92      		push r15
 6018 1d84 0F93      		push r16
 6019 1d86 1F93      		push r17
 6020 1d88 CF93      		push r28
 6021 1d8a DF93      		push r29
 6022               	/* prologue: function */
 6023               	/* frame size = 0 */
 6024               	.LBB864:
 6025               	.LBB865:
 6026               	.LM542:
 6027 1d8c E091 0000 		lds r30,Timebase
 6028 1d90 F091 0000 		lds r31,(Timebase)+1
 6029 1d94 90E0      		ldi r25,lo8(0)
 6030 1d96 EC01      		movw r28,r24
 6031               	.LVL397:
 6032 1d98 44E0      		ldi r20,4
 6033 1d9a CC0F      	1:	lsl r28
 6034 1d9c DD1F      		rol r29
 6035 1d9e 4A95      		dec r20
 6036 1da0 01F4      		brne 1b
 6037 1da2 C80F      		add r28,r24
 6038 1da4 D91F      		adc r29,r25
 6039 1da6 CE0F      		add r28,r30
 6040 1da8 DF1F      		adc r29,r31
 6041 1daa 34E4      		ldi r19,lo8(68)
 6042 1dac C32E      		mov r12,r19
 6043 1dae D12C      		mov r13,__zero_reg__
 6044 1db0 CC0E      		add r12,r28
 6045 1db2 DD1E      		adc r13,r29
 6046 1db4 D601      		movw r26,r12
 6047 1db6 8C91      		ld r24,X
 6048 1db8 8695      		lsr r24
 6049 1dba 8F70      		andi r24,lo8(15)
 6050               	.LBE865:
 6051               	.LBE864:
 6052               	.LM543:
 6053 1dbc 8130      		cpi r24,lo8(1)
 6054 1dbe 01F0      		breq .+2
 6055 1dc0 00C0      		rjmp .L275
 6056               	.LBB866:
 6057               	.LBB867:
 6058               	.LBB868:
 6059               	.LM544:
 6060 1dc2 E084      		ldd r14,Z+8
 6061 1dc4 F184      		ldd r15,Z+9
 6062               	.LBE868:
 6063               	.LBE867:
 6064               	.LM545:
 6065 1dc6 00E0      		ldi r16,lo8(0)
 6066 1dc8 10E0      		ldi r17,hi8(0)
 6067               	.LVL398:
 6068               	.LBB869:
 6069               	.LBB870:
 6070               	.LM546:
 6071 1dca 6284      		ldd r6,Z+10
 6072 1dcc 7384      		ldd r7,Z+11
 6073 1dce 8484      		ldd r8,Z+12
 6074 1dd0 9584      		ldd r9,Z+13
 6075               	.LVL399:
 6076               	.LBE870:
 6077               	.LBE869:
 6078               	.LM547:
 6079 1dd2 25E4      		ldi r18,lo8(69)
 6080 1dd4 A22E      		mov r10,r18
 6081 1dd6 B12C      		mov r11,__zero_reg__
 6082 1dd8 AC0E      		add r10,r28
 6083 1dda BD1E      		adc r11,r29
 6084 1ddc D501      		movw r26,r10
 6085 1dde 2D91      		ld r18,X+
 6086 1de0 3D91      		ld r19,X+
 6087 1de2 4D91      		ld r20,X+
 6088 1de4 5C91      		ld r21,X
 6089 1de6 2619      		sub r18,r6
 6090 1de8 3709      		sbc r19,r7
 6091 1dea 4809      		sbc r20,r8
 6092 1dec 5909      		sbc r21,r9
 6093               	.LM548:
 6094 1dee 6181      		ldd r22,Z+1
 6095 1df0 7281      		ldd r23,Z+2
 6096               	.LM549:
 6097 1df2 80E0      		ldi r24,lo8(0)
 6098 1df4 90E0      		ldi r25,hi8(0)
 6099 1df6 0E94 0000 		call __mulsi3
 6100 1dfa 6E19      		sub r22,r14
 6101 1dfc 7F09      		sbc r23,r15
 6102 1dfe 800B      		sbc r24,r16
 6103 1e00 910B      		sbc r25,r17
 6104               	.LVL400:
 6105               	.LM550:
 6106 1e02 DE01      		movw r26,r28
 6107 1e04 A75B      		subi r26,lo8(-(73))
 6108 1e06 BF4F      		sbci r27,hi8(-(73))
 6109 1e08 2D91      		ld r18,X+
 6110 1e0a 3D91      		ld r19,X+
 6111 1e0c 4D91      		ld r20,X+
 6112 1e0e 5C91      		ld r21,X
 6113 1e10 1397      		sbiw r26,3
 6114 1e12 620F      		add r22,r18
 6115 1e14 731F      		adc r23,r19
 6116 1e16 841F      		adc r24,r20
 6117 1e18 951F      		adc r25,r21
 6118               	.LBB871:
 6119               	.LBB872:
 6120               	.LM551:
 6121 1e1a FE01      		movw r30,r28
 6122 1e1c E35B      		subi r30,lo8(-(77))
 6123 1e1e FF4F      		sbci r31,hi8(-(77))
 6124 1e20 6083      		st Z,r22
 6125 1e22 7183      		std Z+1,r23
 6126 1e24 8283      		std Z+2,r24
 6127 1e26 9383      		std Z+3,r25
 6128               	.LBE872:
 6129               	.LBE871:
 6130               	.LM552:
 6131 1e28 1616      		cp __zero_reg__,r22
 6132 1e2a 1706      		cpc __zero_reg__,r23
 6133 1e2c 1806      		cpc __zero_reg__,r24
 6134 1e2e 1906      		cpc __zero_reg__,r25
 6135 1e30 04F4      		brge .+2
 6136 1e32 00C0      		rjmp .L277
 6137               	.LBB873:
 6138               	.LBB874:
 6139               	.LBB875:
 6140               	.LBB876:
 6141               	.LM553:
 6142 1e34 1D92      		st X+,__zero_reg__
 6143 1e36 1D92      		st X+,__zero_reg__
 6144 1e38 1D92      		st X+,__zero_reg__
 6145 1e3a 1C92      		st X,__zero_reg__
 6146 1e3c 1397      		sbiw r26,3
 6147               	.LBE876:
 6148               	.LBE875:
 6149               	.LBB877:
 6150               	.LBB878:
 6151               	.LM554:
 6152 1e3e D501      		movw r26,r10
 6153 1e40 1D92      		st X+,__zero_reg__
 6154 1e42 1D92      		st X+,__zero_reg__
 6155 1e44 1D92      		st X+,__zero_reg__
 6156 1e46 1C92      		st X,__zero_reg__
 6157 1e48 1397      		sbiw r26,3
 6158               	.LBE878:
 6159               	.LBE877:
 6160               	.LBB879:
 6161               	.LBB880:
 6162               	.LM555:
 6163 1e4a 1082      		st Z,__zero_reg__
 6164 1e4c 1182      		std Z+1,__zero_reg__
 6165 1e4e 1282      		std Z+2,__zero_reg__
 6166 1e50 1382      		std Z+3,__zero_reg__
 6167               	.LBE880:
 6168               	.LBE879:
 6169               	.LBB881:
 6170               	.LBB882:
 6171               	.LM556:
 6172 1e52 F601      		movw r30,r12
 6173 1e54 8081      		ld r24,Z
 6174               	.LBE882:
 6175               	.LBE881:
 6176               	.LBE874:
 6177               	.LBE873:
 6178               	.LBB883:
 6179               	.LBB884:
 6180               	.LM557:
 6181 1e56 807E      		andi r24,lo8(-32)
 6182 1e58 8860      		ori r24,lo8(8)
 6183 1e5a 8083      		st Z,r24
 6184 1e5c 00C0      		rjmp .L277
 6185               	.LVL401:
 6186               	.L275:
 6187               	.LBE884:
 6188               	.LBE883:
 6189               	.LBE866:
 6190               	.LM558:
 6191 1e5e 8230      		cpi r24,lo8(2)
 6192 1e60 01F4      		brne .L277
 6193               	.LBB885:
 6194               	.LBB886:
 6195               	.LBB887:
 6196               	.LM559:
 6197 1e62 6084      		ldd r6,Z+8
 6198 1e64 7184      		ldd r7,Z+9
 6199               	.LBE887:
 6200               	.LBE886:
 6201               	.LBB888:
 6202               	.LBB889:
 6203               	.LM560:
 6204 1e66 E284      		ldd r14,Z+10
 6205 1e68 F384      		ldd r15,Z+11
 6206 1e6a 0485      		ldd r16,Z+12
 6207 1e6c 1585      		ldd r17,Z+13
 6208               	.LVL402:
 6209               	.LBE889:
 6210               	.LBE888:
 6211               	.LBB890:
 6212               	.LBB891:
 6213               	.LM561:
 6214 1e6e C35B      		subi r28,lo8(-(77))
 6215 1e70 DF4F      		sbci r29,hi8(-(77))
 6216 1e72 2880      		ld r2,Y
 6217 1e74 3980      		ldd r3,Y+1
 6218 1e76 4A80      		ldd r4,Y+2
 6219 1e78 5B80      		ldd r5,Y+3
 6220               	.LVL403:
 6221               	.LBE891:
 6222               	.LBE890:
 6223               	.LM562:
 6224 1e7a 2181      		ldd r18,Z+1
 6225 1e7c 3281      		ldd r19,Z+2
 6226               	.LM563:
 6227 1e7e A180      		ldd r10,Z+1
 6228 1e80 B280      		ldd r11,Z+2
 6229               	.LBB892:
 6230               	.LBB893:
 6231               	.LM564:
 6232 1e82 2897      		sbiw r28,8
 6233 1e84 40E0      		ldi r20,lo8(0)
 6234 1e86 50E0      		ldi r21,hi8(0)
 6235 1e88 C201      		movw r24,r4
 6236 1e8a B101      		movw r22,r2
 6237 1e8c 0E94 0000 		call __divmodsi4
 6238 1e90 E20E      		add r14,r18
 6239 1e92 F31E      		adc r15,r19
 6240 1e94 041F      		adc r16,r20
 6241 1e96 151F      		adc r17,r21
 6242 1e98 E992      		st Y+,r14
 6243 1e9a F992      		st Y+,r15
 6244 1e9c 0993      		st Y+,r16
 6245 1e9e 1993      		st Y+,r17
 6246               	.LBE893:
 6247               	.LBE892:
 6248               	.LBB894:
 6249               	.LBB895:
 6250               	.LM565:
 6251 1ea0 CC24      		clr r12
 6252 1ea2 DD24      		clr r13
 6253 1ea4 C201      		movw r24,r4
 6254 1ea6 B101      		movw r22,r2
 6255 1ea8 A601      		movw r20,r12
 6256 1eaa 9501      		movw r18,r10
 6257 1eac 0E94 0000 		call __divmodsi4
 6258 1eb0 8824      		clr r8
 6259 1eb2 9924      		clr r9
 6260 1eb4 660E      		add r6,r22
 6261 1eb6 771E      		adc r7,r23
 6262 1eb8 881E      		adc r8,r24
 6263 1eba 991E      		adc r9,r25
 6264 1ebc 6882      		st Y,r6
 6265 1ebe 7982      		std Y+1,r7
 6266 1ec0 8A82      		std Y+2,r8
 6267 1ec2 9B82      		std Y+3,r9
 6268               	.LVL404:
 6269               	.L277:
 6270               	/* epilogue start */
 6271               	.LBE895:
 6272               	.LBE894:
 6273               	.LBE885:
 6274               	.LM566:
 6275 1ec4 DF91      		pop r29
 6276 1ec6 CF91      		pop r28
 6277 1ec8 1F91      		pop r17
 6278 1eca 0F91      		pop r16
 6279               	.LVL405:
 6280 1ecc FF90      		pop r15
 6281 1ece EF90      		pop r14
 6282               	.LVL406:
 6283 1ed0 DF90      		pop r13
 6284 1ed2 CF90      		pop r12
 6285 1ed4 BF90      		pop r11
 6286 1ed6 AF90      		pop r10
 6287 1ed8 9F90      		pop r9
 6288 1eda 8F90      		pop r8
 6289 1edc 7F90      		pop r7
 6290 1ede 6F90      		pop r6
 6291 1ee0 5F90      		pop r5
 6292 1ee2 4F90      		pop r4
 6293 1ee4 3F90      		pop r3
 6294 1ee6 2F90      		pop r2
 6295               	.LVL407:
 6296 1ee8 0895      		ret
 6297               	.LFE103:
 6299               	.global	Timebase_DownCounter_SS_Expired
 6301               	Timebase_DownCounter_SS_Expired:
 6302               	.LFB104:
 6303               	.LM567:
 6304               	.LVL408:
 6305               	/* prologue: function */
 6306               	/* frame size = 0 */
 6307               	.LM568:
 6308 1eea 40E0      		ldi r20,lo8(0)
 6309 1eec E091 0000 		lds r30,Timebase
 6310 1ef0 F091 0000 		lds r31,(Timebase)+1
 6311 1ef4 90E0      		ldi r25,lo8(0)
 6312               	.LVL409:
 6313 1ef6 9C01      		movw r18,r24
 6314 1ef8 54E0      		ldi r21,4
 6315 1efa 220F      	1:	lsl r18
 6316 1efc 331F      		rol r19
 6317 1efe 5A95      		dec r21
 6318 1f00 01F4      		brne 1b
 6319 1f02 280F      		add r18,r24
 6320 1f04 391F      		adc r19,r25
 6321 1f06 E20F      		add r30,r18
 6322 1f08 F31F      		adc r31,r19
 6323 1f0a EC5B      		subi r30,lo8(-(68))
 6324 1f0c FF4F      		sbci r31,hi8(-(68))
 6325 1f0e 8081      		ld r24,Z
 6326               	.LVL410:
 6327 1f10 8695      		lsr r24
 6328 1f12 8F70      		andi r24,lo8(15)
 6329 1f14 8430      		cpi r24,lo8(4)
 6330 1f16 01F4      		brne .L279
 6331 1f18 41E0      		ldi r20,lo8(1)
 6332               	.L279:
 6333               	.LM569:
 6334 1f1a 842F      		mov r24,r20
 6335               	/* epilogue start */
 6336 1f1c 0895      		ret
 6337               	.LFE104:
 6339               	.global	Timebase_DownCounter_SS_Expired_Event
 6341               	Timebase_DownCounter_SS_Expired_Event:
 6342               	.LFB105:
 6343               	.LM570:
 6344               	.LVL411:
 6345               	/* prologue: function */
 6346               	/* frame size = 0 */
 6347               	.LBB896:
 6348               	.LBB897:
 6349               	.LM571:
 6350 1f1e E091 0000 		lds r30,Timebase
 6351 1f22 F091 0000 		lds r31,(Timebase)+1
 6352 1f26 90E0      		ldi r25,lo8(0)
 6353               	.LBE897:
 6354               	.LBE896:
 6355               	.LM572:
 6356 1f28 9C01      		movw r18,r24
 6357               	.LVL412:
 6358 1f2a 64E0      		ldi r22,4
 6359 1f2c 220F      	1:	lsl r18
 6360 1f2e 331F      		rol r19
 6361 1f30 6A95      		dec r22
 6362 1f32 01F4      		brne 1b
 6363 1f34 280F      		add r18,r24
 6364 1f36 391F      		adc r19,r25
 6365 1f38 E20F      		add r30,r18
 6366 1f3a F31F      		adc r31,r19
 6367 1f3c DF01      		movw r26,r30
 6368 1f3e AC5B      		subi r26,lo8(-(68))
 6369 1f40 BF4F      		sbci r27,hi8(-(68))
 6370 1f42 8C91      		ld r24,X
 6371 1f44 8695      		lsr r24
 6372 1f46 8F70      		andi r24,lo8(15)
 6373 1f48 8430      		cpi r24,lo8(4)
 6374 1f4a 01F0      		breq .L282
 6375 1f4c 80E0      		ldi r24,lo8(0)
 6376 1f4e 0895      		ret
 6377               	.L282:
 6378               	.LBB898:
 6379               	.LBB899:
 6380               	.LBB900:
 6381               	.LBB901:
 6382               	.LBB902:
 6383               	.LBB903:
 6384               	.LM573:
 6385 1f50 E75B      		subi r30,lo8(-(73))
 6386 1f52 FF4F      		sbci r31,hi8(-(73))
 6387 1f54 1082      		st Z,__zero_reg__
 6388 1f56 1182      		std Z+1,__zero_reg__
 6389 1f58 1282      		std Z+2,__zero_reg__
 6390 1f5a 1382      		std Z+3,__zero_reg__
 6391               	.LBE903:
 6392               	.LBE902:
 6393               	.LBB904:
 6394               	.LBB905:
 6395               	.LM574:
 6396 1f5c 1292      		st -Z,__zero_reg__
 6397 1f5e 1292      		st -Z,__zero_reg__
 6398 1f60 1292      		st -Z,__zero_reg__
 6399 1f62 1292      		st -Z,__zero_reg__
 6400               	.LBE905:
 6401               	.LBE904:
 6402               	.LBB906:
 6403               	.LBB907:
 6404               	.LM575:
 6405 1f64 3896      		adiw r30,8
 6406 1f66 1082      		st Z,__zero_reg__
 6407 1f68 1182      		std Z+1,__zero_reg__
 6408 1f6a 1282      		std Z+2,__zero_reg__
 6409 1f6c 1382      		std Z+3,__zero_reg__
 6410               	.LBE907:
 6411               	.LBE906:
 6412               	.LBB908:
 6413               	.LBB909:
 6414               	.LM576:
 6415 1f6e 8C91      		ld r24,X
 6416               	.LBE909:
 6417               	.LBE908:
 6418               	.LBB910:
 6419               	.LBB911:
 6420               	.LM577:
 6421 1f70 807E      		andi r24,lo8(-32)
 6422 1f72 8C93      		st X,r24
 6423 1f74 81E0      		ldi r24,lo8(1)
 6424               	.LBE911:
 6425               	.LBE910:
 6426               	.LBE901:
 6427               	.LBE900:
 6428               	.LBE899:
 6429               	.LBE898:
 6430               	.LM578:
 6431 1f76 0895      		ret
 6432               	.LFE105:
 6434               	.global	Timebase_DownCounter_SS_Set_Period_Value_Securely
 6436               	Timebase_DownCounter_SS_Set_Period_Value_Securely:
 6437               	.LFB106:
 6438               	.LM579:
 6439               	.LVL413:
 6440 1f78 CF93      		push r28
 6441 1f7a DF93      		push r29
 6442               	/* prologue: function */
 6443               	/* frame size = 0 */
 6444               	.LBB912:
 6445               	.LBB913:
 6446               	.LM580:
 6447 1f7c C091 0000 		lds r28,Timebase
 6448 1f80 D091 0000 		lds r29,(Timebase)+1
 6449 1f84 282F      		mov r18,r24
 6450 1f86 30E0      		ldi r19,lo8(0)
 6451               	.LBE913:
 6452               	.LBE912:
 6453               	.LM581:
 6454 1f88 F901      		movw r30,r18
 6455 1f8a A4E0      		ldi r26,4
 6456 1f8c EE0F      	1:	lsl r30
 6457 1f8e FF1F      		rol r31
 6458 1f90 AA95      		dec r26
 6459 1f92 01F4      		brne 1b
 6460 1f94 E20F      		add r30,r18
 6461 1f96 F31F      		adc r31,r19
 6462 1f98 EC0F      		add r30,r28
 6463 1f9a FD1F      		adc r31,r29
 6464 1f9c EC5B      		subi r30,lo8(-(68))
 6465 1f9e FF4F      		sbci r31,hi8(-(68))
 6466 1fa0 8081      		ld r24,Z
 6467               	.LVL414:
 6468 1fa2 E454      		subi r30,lo8(-(-68))
 6469 1fa4 F040      		sbci r31,hi8(-(-68))
 6470 1fa6 80FD      		sbrc r24,0
 6471 1fa8 00C0      		rjmp .L289
 6472               	.LM582:
 6473 1faa E35B      		subi r30,lo8(-(77))
 6474 1fac FF4F      		sbci r31,hi8(-(77))
 6475 1fae 8191      		ld r24,Z+
 6476 1fb0 9191      		ld r25,Z+
 6477 1fb2 A191      		ld r26,Z+
 6478 1fb4 B191      		ld r27,Z+
 6479 1fb6 841B      		sub r24,r20
 6480 1fb8 950B      		sbc r25,r21
 6481 1fba A60B      		sbc r26,r22
 6482 1fbc B70B      		sbc r27,r23
 6483               	.LBB914:
 6484               	.LBB915:
 6485               	.LM583:
 6486 1fbe B7FF      		sbrs r27,7
 6487 1fc0 00C0      		rjmp .L287
 6488               	.LM584:
 6489 1fc2 1082      		st Z,__zero_reg__
 6490 1fc4 1182      		std Z+1,__zero_reg__
 6491 1fc6 1282      		std Z+2,__zero_reg__
 6492 1fc8 1382      		std Z+3,__zero_reg__
 6493 1fca 00C0      		rjmp .L288
 6494               	.L287:
 6495               	.LM585:
 6496 1fcc 8083      		st Z,r24
 6497 1fce 9183      		std Z+1,r25
 6498 1fd0 A283      		std Z+2,r26
 6499 1fd2 B383      		std Z+3,r27
 6500               	.L288:
 6501               	.LBE915:
 6502               	.LBE914:
 6503               	.LBB916:
 6504               	.LBB917:
 6505               	.LM586:
 6506 1fd4 F901      		movw r30,r18
 6507 1fd6 74E0      		ldi r23,4
 6508 1fd8 EE0F      	1:	lsl r30
 6509 1fda FF1F      		rol r31
 6510 1fdc 7A95      		dec r23
 6511 1fde 01F4      		brne 1b
 6512 1fe0 E20F      		add r30,r18
 6513 1fe2 F31F      		adc r31,r19
 6514 1fe4 EC0F      		add r30,r28
 6515 1fe6 FD1F      		adc r31,r29
 6516 1fe8 EC5B      		subi r30,lo8(-(68))
 6517 1fea FF4F      		sbci r31,hi8(-(68))
 6518 1fec 8081      		ld r24,Z
 6519 1fee 8160      		ori r24,lo8(1)
 6520 1ff0 8083      		st Z,r24
 6521               	.L289:
 6522               	/* epilogue start */
 6523               	.LBE917:
 6524               	.LBE916:
 6525               	.LM587:
 6526 1ff2 DF91      		pop r29
 6527 1ff4 CF91      		pop r28
 6528 1ff6 0895      		ret
 6529               	.LFE106:
 6531               	.global	Timebase_DownCounter_SS_Get_Remaining_Period_Value
 6533               	Timebase_DownCounter_SS_Get_Remaining_Period_Value:
 6534               	.LFB107:
 6535               	.LM588:
 6536               	.LVL415:
 6537               	/* prologue: function */
 6538               	/* frame size = 0 */
 6539               	.LBB918:
 6540               	.LBB919:
 6541               	.LM589:
 6542 1ff8 E091 0000 		lds r30,Timebase
 6543 1ffc F091 0000 		lds r31,(Timebase)+1
 6544 2000 90E0      		ldi r25,lo8(0)
 6545               	.LBE919:
 6546               	.LBE918:
 6547               	.LM590:
 6548 2002 9C01      		movw r18,r24
 6549               	.LVL416:
 6550 2004 B4E0      		ldi r27,4
 6551 2006 220F      	1:	lsl r18
 6552 2008 331F      		rol r19
 6553 200a BA95      		dec r27
 6554 200c 01F4      		brne 1b
 6555 200e 280F      		add r18,r24
 6556 2010 391F      		adc r19,r25
 6557 2012 E20F      		add r30,r18
 6558 2014 F31F      		adc r31,r19
 6559 2016 DF01      		movw r26,r30
 6560 2018 AF5A      		subi r26,lo8(-(81))
 6561 201a BF4F      		sbci r27,hi8(-(81))
 6562 201c E35B      		subi r30,lo8(-(77))
 6563 201e FF4F      		sbci r31,hi8(-(77))
 6564 2020 2081      		ld r18,Z
 6565 2022 3181      		ldd r19,Z+1
 6566 2024 4281      		ldd r20,Z+2
 6567 2026 5381      		ldd r21,Z+3
 6568               	.LVL417:
 6569 2028 8D91      		ld r24,X+
 6570 202a 9D91      		ld r25,X+
 6571 202c 0D90      		ld __tmp_reg__,X+
 6572 202e BC91      		ld r27,X
 6573 2030 A02D      		mov r26,__tmp_reg__
 6574 2032 281B      		sub r18,r24
 6575 2034 390B      		sbc r19,r25
 6576 2036 4A0B      		sbc r20,r26
 6577 2038 5B0B      		sbc r21,r27
 6578 203a 57FF      		sbrs r21,7
 6579 203c 00C0      		rjmp .L291
 6580 203e 20E0      		ldi r18,lo8(0)
 6581 2040 30E0      		ldi r19,hi8(0)
 6582 2042 40E0      		ldi r20,hlo8(0)
 6583 2044 50E0      		ldi r21,hhi8(0)
 6584               	.L291:
 6585               	.LM591:
 6586 2046 B901      		movw r22,r18
 6587               	.LVL418:
 6588 2048 CA01      		movw r24,r20
 6589               	/* epilogue start */
 6590 204a 0895      		ret
 6591               	.LFE107:
 6593               	.global	Timebase_DownCounter_SS_Period_Value_Expired
 6595               	Timebase_DownCounter_SS_Period_Value_Expired:
 6596               	.LFB108:
 6597               	.LM592:
 6598               	.LVL419:
 6599 204c CF93      		push r28
 6600 204e DF93      		push r29
 6601               	/* prologue: function */
 6602               	/* frame size = 0 */
 6603               	.LBB920:
 6604               	.LBB921:
 6605               	.LBB922:
 6606               	.LBB923:
 6607               	.LM593:
 6608 2050 C091 0000 		lds r28,Timebase
 6609 2054 D091 0000 		lds r29,(Timebase)+1
 6610 2058 682F      		mov r22,r24
 6611 205a 70E0      		ldi r23,lo8(0)
 6612               	.LBE923:
 6613               	.LBE922:
 6614               	.LM594:
 6615 205c FB01      		movw r30,r22
 6616 205e 44E0      		ldi r20,4
 6617 2060 EE0F      	1:	lsl r30
 6618 2062 FF1F      		rol r31
 6619 2064 4A95      		dec r20
 6620 2066 01F4      		brne 1b
 6621 2068 E60F      		add r30,r22
 6622 206a F71F      		adc r31,r23
 6623 206c EC0F      		add r30,r28
 6624 206e FD1F      		adc r31,r29
 6625 2070 DF01      		movw r26,r30
 6626 2072 AF5A      		subi r26,lo8(-(81))
 6627 2074 BF4F      		sbci r27,hi8(-(81))
 6628 2076 E35B      		subi r30,lo8(-(77))
 6629 2078 FF4F      		sbci r31,hi8(-(77))
 6630 207a 2081      		ld r18,Z
 6631 207c 3181      		ldd r19,Z+1
 6632 207e 4281      		ldd r20,Z+2
 6633 2080 5381      		ldd r21,Z+3
 6634               	.LVL420:
 6635 2082 8D91      		ld r24,X+
 6636 2084 9D91      		ld r25,X+
 6637 2086 0D90      		ld __tmp_reg__,X+
 6638 2088 BC91      		ld r27,X
 6639 208a A02D      		mov r26,__tmp_reg__
 6640               	.LVL421:
 6641 208c 281B      		sub r18,r24
 6642 208e 390B      		sbc r19,r25
 6643 2090 4A0B      		sbc r20,r26
 6644 2092 5B0B      		sbc r21,r27
 6645               	.LM595:
 6646 2094 57FD      		sbrc r21,7
 6647 2096 00C0      		rjmp .L294
 6648               	.LBE921:
 6649               	.LBE920:
 6650               	.LM596:
 6651 2098 2115      		cp r18,__zero_reg__
 6652 209a 3105      		cpc r19,__zero_reg__
 6653 209c 4105      		cpc r20,__zero_reg__
 6654 209e 5105      		cpc r21,__zero_reg__
 6655 20a0 01F0      		breq .L294
 6656 20a2 20E0      		ldi r18,lo8(0)
 6657               	.LVL422:
 6658 20a4 00C0      		rjmp .L295
 6659               	.LVL423:
 6660               	.L294:
 6661 20a6 20E0      		ldi r18,lo8(0)
 6662               	.LVL424:
 6663 20a8 CB01      		movw r24,r22
 6664 20aa 34E0      		ldi r19,4
 6665 20ac 880F      	1:	lsl r24
 6666 20ae 991F      		rol r25
 6667 20b0 3A95      		dec r19
 6668 20b2 01F4      		brne 1b
 6669 20b4 860F      		add r24,r22
 6670 20b6 971F      		adc r25,r23
 6671 20b8 C80F      		add r28,r24
 6672 20ba D91F      		adc r29,r25
 6673 20bc CC5B      		subi r28,lo8(-(68))
 6674 20be DF4F      		sbci r29,hi8(-(68))
 6675 20c0 8881      		ld r24,Y
 6676 20c2 80FF      		sbrs r24,0
 6677 20c4 21E0      		ldi r18,lo8(1)
 6678               	.L296:
 6679 20c6 81E0      		ldi r24,lo8(1)
 6680 20c8 2827      		eor r18,r24
 6681               	.L295:
 6682               	.LM597:
 6683 20ca 822F      		mov r24,r18
 6684               	/* epilogue start */
 6685 20cc DF91      		pop r29
 6686 20ce CF91      		pop r28
 6687 20d0 0895      		ret
 6688               	.LFE108:
 6690               	.global	Timebase_DownCounter_SS_Period_Value_Expired_Event
 6692               	Timebase_DownCounter_SS_Period_Value_Expired_Event:
 6693               	.LFB109:
 6694               	.LM598:
 6695               	.LVL425:
 6696 20d2 1F93      		push r17
 6697               	/* prologue: function */
 6698               	/* frame size = 0 */
 6699 20d4 182F      		mov r17,r24
 6700               	.LM599:
 6701 20d6 0E94 0000 		call Timebase_DownCounter_SS_Period_Value_Expired
 6702               	.LVL426:
 6703 20da 8130      		cpi r24,lo8(1)
 6704 20dc 01F0      		breq .L299
 6705 20de 80E0      		ldi r24,lo8(0)
 6706 20e0 00C0      		rjmp .L300
 6707               	.L299:
 6708               	.LBB924:
 6709               	.LBB925:
 6710               	.LM600:
 6711 20e2 E091 0000 		lds r30,Timebase
 6712 20e6 F091 0000 		lds r31,(Timebase)+1
 6713 20ea 212F      		mov r18,r17
 6714 20ec 30E0      		ldi r19,lo8(0)
 6715               	.LVL427:
 6716 20ee C901      		movw r24,r18
 6717 20f0 54E0      		ldi r21,4
 6718 20f2 880F      	1:	lsl r24
 6719 20f4 991F      		rol r25
 6720 20f6 5A95      		dec r21
 6721 20f8 01F4      		brne 1b
 6722 20fa 820F      		add r24,r18
 6723 20fc 931F      		adc r25,r19
 6724 20fe E80F      		add r30,r24
 6725 2100 F91F      		adc r31,r25
 6726 2102 EC5B      		subi r30,lo8(-(68))
 6727 2104 FF4F      		sbci r31,hi8(-(68))
 6728 2106 8081      		ld r24,Z
 6729 2108 8E7F      		andi r24,lo8(-2)
 6730 210a 8083      		st Z,r24
 6731 210c 81E0      		ldi r24,lo8(1)
 6732               	.L300:
 6733               	/* epilogue start */
 6734               	.LBE925:
 6735               	.LBE924:
 6736               	.LM601:
 6737 210e 1F91      		pop r17
 6738               	.LVL428:
 6739 2110 0895      		ret
 6740               	.LFE109:
 6742               	.global	Timebase_DownCounter_SS_Update_All
 6744               	Timebase_DownCounter_SS_Update_All:
 6745               	.LFB110:
 6746               	.LM602:
 6747               	/* prologue: function */
 6748               	/* frame size = 0 */
 6749               	.LBB926:
 6750               	.LM603:
 6751 2112 80E0      		ldi r24,lo8(0)
 6752 2114 0E94 0000 		call Timebase_DownCounter_SS_Update
 6753               	/* epilogue start */
 6754               	.LBE926:
 6755               	.LM604:
 6756 2118 0895      		ret
 6757               	.LFE110:
 6759               	.global	Timebase_DownCounter_SS_Reset_All
 6761               	Timebase_DownCounter_SS_Reset_All:
 6762               	.LFB111:
 6763               	.LM605:
 6764               	/* prologue: function */
 6765               	/* frame size = 0 */
 6766               	.LBB927:
 6767               	.LBB928:
 6768               	.LBB929:
 6769               	.LBB930:
 6770               	.LBB931:
 6771               	.LM606:
 6772 211a E091 0000 		lds r30,Timebase
 6773 211e F091 0000 		lds r31,(Timebase)+1
 6774 2122 E75B      		subi r30,lo8(-(73))
 6775 2124 FF4F      		sbci r31,hi8(-(73))
 6776 2126 1082      		st Z,__zero_reg__
 6777 2128 1182      		std Z+1,__zero_reg__
 6778 212a 1282      		std Z+2,__zero_reg__
 6779 212c 1382      		std Z+3,__zero_reg__
 6780               	.LBE931:
 6781               	.LBE930:
 6782               	.LBB932:
 6783               	.LBB933:
 6784               	.LM607:
 6785 212e 1292      		st -Z,__zero_reg__
 6786 2130 1292      		st -Z,__zero_reg__
 6787 2132 1292      		st -Z,__zero_reg__
 6788 2134 1292      		st -Z,__zero_reg__
 6789               	.LBE933:
 6790               	.LBE932:
 6791               	.LBB934:
 6792               	.LBB935:
 6793               	.LM608:
 6794 2136 3896      		adiw r30,8
 6795 2138 1082      		st Z,__zero_reg__
 6796 213a 1182      		std Z+1,__zero_reg__
 6797 213c 1282      		std Z+2,__zero_reg__
 6798 213e 1382      		std Z+3,__zero_reg__
 6799               	.LBE935:
 6800               	.LBE934:
 6801               	.LBB936:
 6802               	.LBB937:
 6803               	.LM609:
 6804 2140 3997      		sbiw r30,9
 6805 2142 8081      		ld r24,Z
 6806               	.LBE937:
 6807               	.LBE936:
 6808               	.LBB938:
 6809               	.LBB939:
 6810               	.LM610:
 6811 2144 807E      		andi r24,lo8(-32)
 6812 2146 8083      		st Z,r24
 6813               	/* epilogue start */
 6814               	.LBE939:
 6815               	.LBE938:
 6816               	.LBE929:
 6817               	.LBE928:
 6818               	.LBE927:
 6819               	.LM611:
 6820 2148 0895      		ret
 6821               	.LFE111:
 6823               	.global	Timebase_DownCounter_Get_Status
 6825               	Timebase_DownCounter_Get_Status:
 6826               	.LFB112:
 6827               	.LM612:
 6828               	.LVL429:
 6829               	/* prologue: function */
 6830               	/* frame size = 0 */
 6831               	.LM613:
 6832 214a E091 0000 		lds r30,Timebase
 6833 214e F091 0000 		lds r31,(Timebase)+1
 6834 2152 90E0      		ldi r25,lo8(0)
 6835               	.LVL430:
 6836 2154 2DE0      		ldi r18,lo8(13)
 6837 2156 30E0      		ldi r19,hi8(13)
 6838 2158 AC01      		movw r20,r24
 6839 215a 429F      		mul r20,r18
 6840 215c C001      		movw r24,r0
 6841 215e 439F      		mul r20,r19
 6842 2160 900D      		add r25,r0
 6843 2162 529F      		mul r21,r18
 6844 2164 900D      		add r25,r0
 6845 2166 1124      		clr r1
 6846               	.LVL431:
 6847 2168 E80F      		add r30,r24
 6848 216a F91F      		adc r31,r25
 6849 216c EB5A      		subi r30,lo8(-(85))
 6850 216e FF4F      		sbci r31,hi8(-(85))
 6851 2170 8081      		ld r24,Z
 6852 2172 8695      		lsr r24
 6853               	.LM614:
 6854 2174 8F70      		andi r24,lo8(15)
 6855               	/* epilogue start */
 6856 2176 0895      		ret
 6857               	.LFE112:
 6859               	.global	Timebase_DownCounter_Set_Status
 6861               	Timebase_DownCounter_Set_Status:
 6862               	.LFB113:
 6863               	.LM615:
 6864               	.LVL432:
 6865               	/* prologue: function */
 6866               	/* frame size = 0 */
 6867               	.LM616:
 6868 2178 E091 0000 		lds r30,Timebase
 6869 217c F091 0000 		lds r31,(Timebase)+1
 6870 2180 90E0      		ldi r25,lo8(0)
 6871               	.LVL433:
 6872 2182 2DE0      		ldi r18,lo8(13)
 6873 2184 30E0      		ldi r19,hi8(13)
 6874 2186 AC01      		movw r20,r24
 6875 2188 429F      		mul r20,r18
 6876 218a C001      		movw r24,r0
 6877 218c 439F      		mul r20,r19
 6878 218e 900D      		add r25,r0
 6879 2190 529F      		mul r21,r18
 6880 2192 900D      		add r25,r0
 6881 2194 1124      		clr r1
 6882               	.LVL434:
 6883 2196 E80F      		add r30,r24
 6884 2198 F91F      		adc r31,r25
 6885 219a EB5A      		subi r30,lo8(-(85))
 6886 219c FF4F      		sbci r31,hi8(-(85))
 6887 219e 6F70      		andi r22,lo8(15)
 6888               	.LVL435:
 6889 21a0 660F      		lsl r22
 6890 21a2 8081      		ld r24,Z
 6891 21a4 817E      		andi r24,lo8(-31)
 6892 21a6 862B      		or r24,r22
 6893 21a8 8083      		st Z,r24
 6894               	/* epilogue start */
 6895               	.LM617:
 6896 21aa 0895      		ret
 6897               	.LFE113:
 6899               	.global	Timebase_DownCounter_Get_Value
 6901               	Timebase_DownCounter_Get_Value:
 6902               	.LFB114:
 6903               	.LM618:
 6904               	.LVL436:
 6905               	/* prologue: function */
 6906               	/* frame size = 0 */
 6907               	.LM619:
 6908 21ac E091 0000 		lds r30,Timebase
 6909 21b0 F091 0000 		lds r31,(Timebase)+1
 6910 21b4 90E0      		ldi r25,lo8(0)
 6911               	.LVL437:
 6912 21b6 2DE0      		ldi r18,lo8(13)
 6913 21b8 30E0      		ldi r19,hi8(13)
 6914 21ba AC01      		movw r20,r24
 6915 21bc 429F      		mul r20,r18
 6916 21be C001      		movw r24,r0
 6917 21c0 439F      		mul r20,r19
 6918 21c2 900D      		add r25,r0
 6919 21c4 529F      		mul r21,r18
 6920 21c6 900D      		add r25,r0
 6921 21c8 1124      		clr r1
 6922               	.LVL438:
 6923 21ca E80F      		add r30,r24
 6924 21cc F91F      		adc r31,r25
 6925 21ce E65A      		subi r30,lo8(-(90))
 6926 21d0 FF4F      		sbci r31,hi8(-(90))
 6927 21d2 6081      		ld r22,Z
 6928 21d4 7181      		ldd r23,Z+1
 6929               	.LM620:
 6930 21d6 8281      		ldd r24,Z+2
 6931 21d8 9381      		ldd r25,Z+3
 6932               	.LVL439:
 6933               	/* epilogue start */
 6934 21da 0895      		ret
 6935               	.LFE114:
 6937               	.global	Timebase_DownCounter_Set_Value
 6939               	Timebase_DownCounter_Set_Value:
 6940               	.LFB115:
 6941               	.LM621:
 6942               	.LVL440:
 6943               	/* prologue: function */
 6944               	/* frame size = 0 */
 6945               	.LM622:
 6946 21dc E091 0000 		lds r30,Timebase
 6947 21e0 F091 0000 		lds r31,(Timebase)+1
 6948 21e4 90E0      		ldi r25,lo8(0)
 6949               	.LVL441:
 6950 21e6 2DE0      		ldi r18,lo8(13)
 6951 21e8 30E0      		ldi r19,hi8(13)
 6952 21ea DC01      		movw r26,r24
 6953 21ec A29F      		mul r26,r18
 6954 21ee C001      		movw r24,r0
 6955 21f0 A39F      		mul r26,r19
 6956 21f2 900D      		add r25,r0
 6957 21f4 B29F      		mul r27,r18
 6958 21f6 900D      		add r25,r0
 6959 21f8 1124      		clr r1
 6960               	.LVL442:
 6961 21fa E80F      		add r30,r24
 6962 21fc F91F      		adc r31,r25
 6963 21fe E65A      		subi r30,lo8(-(90))
 6964 2200 FF4F      		sbci r31,hi8(-(90))
 6965 2202 4083      		st Z,r20
 6966 2204 5183      		std Z+1,r21
 6967 2206 6283      		std Z+2,r22
 6968 2208 7383      		std Z+3,r23
 6969               	/* epilogue start */
 6970               	.LM623:
 6971 220a 0895      		ret
 6972               	.LFE115:
 6974               	.global	Timebase_DownCounter_Get_EndValue
 6976               	Timebase_DownCounter_Get_EndValue:
 6977               	.LFB116:
 6978               	.LM624:
 6979               	.LVL443:
 6980               	/* prologue: function */
 6981               	/* frame size = 0 */
 6982               	.LM625:
 6983 220c E091 0000 		lds r30,Timebase
 6984 2210 F091 0000 		lds r31,(Timebase)+1
 6985 2214 90E0      		ldi r25,lo8(0)
 6986               	.LVL444:
 6987 2216 2DE0      		ldi r18,lo8(13)
 6988 2218 30E0      		ldi r19,hi8(13)
 6989 221a AC01      		movw r20,r24
 6990 221c 429F      		mul r20,r18
 6991 221e C001      		movw r24,r0
 6992 2220 439F      		mul r20,r19
 6993 2222 900D      		add r25,r0
 6994 2224 529F      		mul r21,r18
 6995 2226 900D      		add r25,r0
 6996 2228 1124      		clr r1
 6997               	.LVL445:
 6998 222a E80F      		add r30,r24
 6999 222c F91F      		adc r31,r25
 7000 222e EA5A      		subi r30,lo8(-(86))
 7001 2230 FF4F      		sbci r31,hi8(-(86))
 7002 2232 6081      		ld r22,Z
 7003 2234 7181      		ldd r23,Z+1
 7004               	.LM626:
 7005 2236 8281      		ldd r24,Z+2
 7006 2238 9381      		ldd r25,Z+3
 7007               	.LVL446:
 7008               	/* epilogue start */
 7009 223a 0895      		ret
 7010               	.LFE116:
 7012               	.global	Timebase_DownCounter_Set_EndValue
 7014               	Timebase_DownCounter_Set_EndValue:
 7015               	.LFB117:
 7016               	.LM627:
 7017               	.LVL447:
 7018               	/* prologue: function */
 7019               	/* frame size = 0 */
 7020               	.LM628:
 7021 223c E091 0000 		lds r30,Timebase
 7022 2240 F091 0000 		lds r31,(Timebase)+1
 7023 2244 90E0      		ldi r25,lo8(0)
 7024               	.LVL448:
 7025 2246 2DE0      		ldi r18,lo8(13)
 7026 2248 30E0      		ldi r19,hi8(13)
 7027 224a DC01      		movw r26,r24
 7028 224c A29F      		mul r26,r18
 7029 224e C001      		movw r24,r0
 7030 2250 A39F      		mul r26,r19
 7031 2252 900D      		add r25,r0
 7032 2254 B29F      		mul r27,r18
 7033 2256 900D      		add r25,r0
 7034 2258 1124      		clr r1
 7035               	.LVL449:
 7036 225a E80F      		add r30,r24
 7037 225c F91F      		adc r31,r25
 7038 225e EA5A      		subi r30,lo8(-(86))
 7039 2260 FF4F      		sbci r31,hi8(-(86))
 7040 2262 4083      		st Z,r20
 7041 2264 5183      		std Z+1,r21
 7042 2266 6283      		std Z+2,r22
 7043 2268 7383      		std Z+3,r23
 7044               	/* epilogue start */
 7045               	.LM629:
 7046 226a 0895      		ret
 7047               	.LFE117:
 7049               	.global	Timebase_DownCounter_Get_PeriodValue
 7051               	Timebase_DownCounter_Get_PeriodValue:
 7052               	.LFB118:
 7053               	.LM630:
 7054               	.LVL450:
 7055               	/* prologue: function */
 7056               	/* frame size = 0 */
 7057               	.LM631:
 7058 226c E091 0000 		lds r30,Timebase
 7059 2270 F091 0000 		lds r31,(Timebase)+1
 7060 2274 90E0      		ldi r25,lo8(0)
 7061               	.LVL451:
 7062 2276 2DE0      		ldi r18,lo8(13)
 7063 2278 30E0      		ldi r19,hi8(13)
 7064 227a AC01      		movw r20,r24
 7065 227c 429F      		mul r20,r18
 7066 227e C001      		movw r24,r0
 7067 2280 439F      		mul r20,r19
 7068 2282 900D      		add r25,r0
 7069 2284 529F      		mul r21,r18
 7070 2286 900D      		add r25,r0
 7071 2288 1124      		clr r1
 7072               	.LVL452:
 7073 228a E80F      		add r30,r24
 7074 228c F91F      		adc r31,r25
 7075 228e E25A      		subi r30,lo8(-(94))
 7076 2290 FF4F      		sbci r31,hi8(-(94))
 7077 2292 6081      		ld r22,Z
 7078 2294 7181      		ldd r23,Z+1
 7079               	.LM632:
 7080 2296 8281      		ldd r24,Z+2
 7081 2298 9381      		ldd r25,Z+3
 7082               	.LVL453:
 7083               	/* epilogue start */
 7084 229a 0895      		ret
 7085               	.LFE118:
 7087               	.global	Timebase_DownCounter_Set_PeriodValue
 7089               	Timebase_DownCounter_Set_PeriodValue:
 7090               	.LFB119:
 7091               	.LM633:
 7092               	.LVL454:
 7093               	/* prologue: function */
 7094               	/* frame size = 0 */
 7095 229c E091 0000 		lds r30,Timebase
 7096 22a0 F091 0000 		lds r31,(Timebase)+1
 7097 22a4 282F      		mov r18,r24
 7098 22a6 30E0      		ldi r19,lo8(0)
 7099               	.LVL455:
 7100               	.LM634:
 7101 22a8 77FF      		sbrs r23,7
 7102 22aa 00C0      		rjmp .L321
 7103               	.LVL456:
 7104               	.LM635:
 7105 22ac 8DE0      		ldi r24,lo8(13)
 7106 22ae 90E0      		ldi r25,hi8(13)
 7107 22b0 AC01      		movw r20,r24
 7108               	.LVL457:
 7109 22b2 249F      		mul r18,r20
 7110 22b4 C001      		movw r24,r0
 7111 22b6 259F      		mul r18,r21
 7112 22b8 900D      		add r25,r0
 7113 22ba 349F      		mul r19,r20
 7114 22bc 900D      		add r25,r0
 7115 22be 1124      		clr r1
 7116 22c0 E80F      		add r30,r24
 7117 22c2 F91F      		adc r31,r25
 7118 22c4 E25A      		subi r30,lo8(-(94))
 7119 22c6 FF4F      		sbci r31,hi8(-(94))
 7120 22c8 1082      		st Z,__zero_reg__
 7121 22ca 1182      		std Z+1,__zero_reg__
 7122 22cc 1282      		std Z+2,__zero_reg__
 7123 22ce 1382      		std Z+3,__zero_reg__
 7124 22d0 0895      		ret
 7125               	.LVL458:
 7126               	.L321:
 7127               	.LM636:
 7128 22d2 8DE0      		ldi r24,lo8(13)
 7129 22d4 90E0      		ldi r25,hi8(13)
 7130 22d6 DC01      		movw r26,r24
 7131 22d8 2A9F      		mul r18,r26
 7132 22da C001      		movw r24,r0
 7133 22dc 2B9F      		mul r18,r27
 7134 22de 900D      		add r25,r0
 7135 22e0 3A9F      		mul r19,r26
 7136 22e2 900D      		add r25,r0
 7137 22e4 1124      		clr r1
 7138 22e6 E80F      		add r30,r24
 7139 22e8 F91F      		adc r31,r25
 7140 22ea E25A      		subi r30,lo8(-(94))
 7141 22ec FF4F      		sbci r31,hi8(-(94))
 7142 22ee 4083      		st Z,r20
 7143 22f0 5183      		std Z+1,r21
 7144 22f2 6283      		std Z+2,r22
 7145 22f4 7383      		std Z+3,r23
 7146 22f6 0895      		ret
 7147               	.LFE119:
 7149               	.global	Timebase_DownCounter_Get_Period_Flag
 7151               	Timebase_DownCounter_Get_Period_Flag:
 7152               	.LFB120:
 7153               	.LM637:
 7154               	.LVL459:
 7155               	/* prologue: function */
 7156               	/* frame size = 0 */
 7157               	.LM638:
 7158 22f8 E091 0000 		lds r30,Timebase
 7159 22fc F091 0000 		lds r31,(Timebase)+1
 7160 2300 90E0      		ldi r25,lo8(0)
 7161               	.LVL460:
 7162 2302 2DE0      		ldi r18,lo8(13)
 7163 2304 30E0      		ldi r19,hi8(13)
 7164 2306 AC01      		movw r20,r24
 7165 2308 429F      		mul r20,r18
 7166 230a C001      		movw r24,r0
 7167 230c 439F      		mul r20,r19
 7168 230e 900D      		add r25,r0
 7169 2310 529F      		mul r21,r18
 7170 2312 900D      		add r25,r0
 7171 2314 1124      		clr r1
 7172               	.LVL461:
 7173 2316 E80F      		add r30,r24
 7174 2318 F91F      		adc r31,r25
 7175 231a EB5A      		subi r30,lo8(-(85))
 7176 231c FF4F      		sbci r31,hi8(-(85))
 7177 231e 8081      		ld r24,Z
 7178               	.LM639:
 7179 2320 8170      		andi r24,lo8(1)
 7180               	/* epilogue start */
 7181 2322 0895      		ret
 7182               	.LFE120:
 7184               	.global	Timebase_DownCounter_Set_Period_Flag
 7186               	Timebase_DownCounter_Set_Period_Flag:
 7187               	.LFB121:
 7188               	.LM640:
 7189               	.LVL462:
 7190               	/* prologue: function */
 7191               	/* frame size = 0 */
 7192               	.LM641:
 7193 2324 E091 0000 		lds r30,Timebase
 7194 2328 F091 0000 		lds r31,(Timebase)+1
 7195 232c 90E0      		ldi r25,lo8(0)
 7196               	.LVL463:
 7197 232e 2DE0      		ldi r18,lo8(13)
 7198 2330 30E0      		ldi r19,hi8(13)
 7199 2332 AC01      		movw r20,r24
 7200 2334 429F      		mul r20,r18
 7201 2336 C001      		movw r24,r0
 7202 2338 439F      		mul r20,r19
 7203 233a 900D      		add r25,r0
 7204 233c 529F      		mul r21,r18
 7205 233e 900D      		add r25,r0
 7206 2340 1124      		clr r1
 7207               	.LVL464:
 7208 2342 E80F      		add r30,r24
 7209 2344 F91F      		adc r31,r25
 7210 2346 EB5A      		subi r30,lo8(-(85))
 7211 2348 FF4F      		sbci r31,hi8(-(85))
 7212 234a 8081      		ld r24,Z
 7213 234c 8160      		ori r24,lo8(1)
 7214 234e 8083      		st Z,r24
 7215               	/* epilogue start */
 7216               	.LM642:
 7217 2350 0895      		ret
 7218               	.LFE121:
 7220               	.global	Timebase_DownCounter_Clear_Period_Flag
 7222               	Timebase_DownCounter_Clear_Period_Flag:
 7223               	.LFB122:
 7224               	.LM643:
 7225               	.LVL465:
 7226               	/* prologue: function */
 7227               	/* frame size = 0 */
 7228               	.LM644:
 7229 2352 E091 0000 		lds r30,Timebase
 7230 2356 F091 0000 		lds r31,(Timebase)+1
 7231 235a 90E0      		ldi r25,lo8(0)
 7232               	.LVL466:
 7233 235c 2DE0      		ldi r18,lo8(13)
 7234 235e 30E0      		ldi r19,hi8(13)
 7235 2360 AC01      		movw r20,r24
 7236 2362 429F      		mul r20,r18
 7237 2364 C001      		movw r24,r0
 7238 2366 439F      		mul r20,r19
 7239 2368 900D      		add r25,r0
 7240 236a 529F      		mul r21,r18
 7241 236c 900D      		add r25,r0
 7242 236e 1124      		clr r1
 7243               	.LVL467:
 7244 2370 E80F      		add r30,r24
 7245 2372 F91F      		adc r31,r25
 7246 2374 EB5A      		subi r30,lo8(-(85))
 7247 2376 FF4F      		sbci r31,hi8(-(85))
 7248 2378 8081      		ld r24,Z
 7249 237a 8E7F      		andi r24,lo8(-2)
 7250 237c 8083      		st Z,r24
 7251               	/* epilogue start */
 7252               	.LM645:
 7253 237e 0895      		ret
 7254               	.LFE122:
 7256               	.global	Timebase_DownCounter_Reset
 7258               	Timebase_DownCounter_Reset:
 7259               	.LFB123:
 7260               	.LM646:
 7261               	.LVL468:
 7262               	/* prologue: function */
 7263               	/* frame size = 0 */
 7264               	.LBB940:
 7265               	.LBB941:
 7266               	.LM647:
 7267 2380 E091 0000 		lds r30,Timebase
 7268 2384 F091 0000 		lds r31,(Timebase)+1
 7269 2388 90E0      		ldi r25,lo8(0)
 7270 238a 2DE0      		ldi r18,lo8(13)
 7271 238c 30E0      		ldi r19,hi8(13)
 7272 238e AC01      		movw r20,r24
 7273               	.LVL469:
 7274 2390 429F      		mul r20,r18
 7275 2392 C001      		movw r24,r0
 7276 2394 439F      		mul r20,r19
 7277 2396 900D      		add r25,r0
 7278 2398 529F      		mul r21,r18
 7279 239a 900D      		add r25,r0
 7280 239c 1124      		clr r1
 7281 239e E80F      		add r30,r24
 7282 23a0 F91F      		adc r31,r25
 7283 23a2 EA5A      		subi r30,lo8(-(86))
 7284 23a4 FF4F      		sbci r31,hi8(-(86))
 7285 23a6 1192      		st Z+,__zero_reg__
 7286 23a8 1192      		st Z+,__zero_reg__
 7287 23aa 1192      		st Z+,__zero_reg__
 7288 23ac 1192      		st Z+,__zero_reg__
 7289               	.LBE941:
 7290               	.LBE940:
 7291               	.LBB942:
 7292               	.LBB943:
 7293               	.LM648:
 7294 23ae 1082      		st Z,__zero_reg__
 7295 23b0 1182      		std Z+1,__zero_reg__
 7296 23b2 1282      		std Z+2,__zero_reg__
 7297 23b4 1382      		std Z+3,__zero_reg__
 7298               	.LBE943:
 7299               	.LBE942:
 7300               	.LBB944:
 7301               	.LBB945:
 7302               	.LM649:
 7303 23b6 3597      		sbiw r30,5
 7304 23b8 8081      		ld r24,Z
 7305               	.LBE945:
 7306               	.LBE944:
 7307               	.LBB946:
 7308               	.LBB947:
 7309               	.LM650:
 7310 23ba 807E      		andi r24,lo8(-32)
 7311 23bc 8083      		st Z,r24
 7312               	/* epilogue start */
 7313               	.LBE947:
 7314               	.LBE946:
 7315               	.LM651:
 7316 23be 0895      		ret
 7317               	.LFE123:
 7319               	.global	Timebase_DownCounter_Clear_All_Flags
 7321               	Timebase_DownCounter_Clear_All_Flags:
 7322               	.LFB124:
 7323               	.LM652:
 7324               	.LVL470:
 7325               	/* prologue: function */
 7326               	/* frame size = 0 */
 7327               	.LBB948:
 7328               	.LBB949:
 7329               	.LBB950:
 7330               	.LBB951:
 7331               	.LM653:
 7332 23c0 E091 0000 		lds r30,Timebase
 7333 23c4 F091 0000 		lds r31,(Timebase)+1
 7334 23c8 90E0      		ldi r25,lo8(0)
 7335 23ca 2DE0      		ldi r18,lo8(13)
 7336 23cc 30E0      		ldi r19,hi8(13)
 7337 23ce AC01      		movw r20,r24
 7338               	.LVL471:
 7339 23d0 429F      		mul r20,r18
 7340 23d2 C001      		movw r24,r0
 7341 23d4 439F      		mul r20,r19
 7342 23d6 900D      		add r25,r0
 7343 23d8 529F      		mul r21,r18
 7344 23da 900D      		add r25,r0
 7345 23dc 1124      		clr r1
 7346 23de E80F      		add r30,r24
 7347 23e0 F91F      		adc r31,r25
 7348 23e2 EA5A      		subi r30,lo8(-(86))
 7349 23e4 FF4F      		sbci r31,hi8(-(86))
 7350 23e6 1192      		st Z+,__zero_reg__
 7351 23e8 1192      		st Z+,__zero_reg__
 7352 23ea 1192      		st Z+,__zero_reg__
 7353 23ec 1192      		st Z+,__zero_reg__
 7354               	.LBE951:
 7355               	.LBE950:
 7356               	.LBB952:
 7357               	.LBB953:
 7358               	.LM654:
 7359 23ee 1082      		st Z,__zero_reg__
 7360 23f0 1182      		std Z+1,__zero_reg__
 7361 23f2 1282      		std Z+2,__zero_reg__
 7362 23f4 1382      		std Z+3,__zero_reg__
 7363               	.LBE953:
 7364               	.LBE952:
 7365               	.LBB954:
 7366               	.LBB955:
 7367               	.LM655:
 7368 23f6 3597      		sbiw r30,5
 7369 23f8 8081      		ld r24,Z
 7370               	.LBE955:
 7371               	.LBE954:
 7372               	.LBB956:
 7373               	.LBB957:
 7374               	.LM656:
 7375 23fa 807E      		andi r24,lo8(-32)
 7376 23fc 8083      		st Z,r24
 7377               	/* epilogue start */
 7378               	.LBE957:
 7379               	.LBE956:
 7380               	.LBE949:
 7381               	.LBE948:
 7382               	.LM657:
 7383 23fe 0895      		ret
 7384               	.LFE124:
 7386               	.global	Timebase_DownCounter_Start
 7388               	Timebase_DownCounter_Start:
 7389               	.LFB125:
 7390               	.LM658:
 7391               	.LVL472:
 7392               	/* prologue: function */
 7393               	/* frame size = 0 */
 7394               	.LBB958:
 7395               	.LBB959:
 7396               	.LM659:
 7397 2400 E091 0000 		lds r30,Timebase
 7398 2404 F091 0000 		lds r31,(Timebase)+1
 7399 2408 90E0      		ldi r25,lo8(0)
 7400               	.LBE959:
 7401               	.LBE958:
 7402               	.LM660:
 7403 240a 2DE0      		ldi r18,lo8(13)
 7404 240c 30E0      		ldi r19,hi8(13)
 7405 240e AC01      		movw r20,r24
 7406               	.LVL473:
 7407 2410 429F      		mul r20,r18
 7408 2412 C001      		movw r24,r0
 7409 2414 439F      		mul r20,r19
 7410 2416 900D      		add r25,r0
 7411 2418 529F      		mul r21,r18
 7412 241a 900D      		add r25,r0
 7413 241c 1124      		clr r1
 7414 241e E80F      		add r30,r24
 7415 2420 F91F      		adc r31,r25
 7416 2422 EB5A      		subi r30,lo8(-(85))
 7417 2424 FF4F      		sbci r31,hi8(-(85))
 7418 2426 9081      		ld r25,Z
 7419 2428 892F      		mov r24,r25
 7420 242a 8695      		lsr r24
 7421 242c 8F70      		andi r24,lo8(15)
 7422 242e 8130      		cpi r24,lo8(1)
 7423 2430 01F0      		breq .L336
 7424               	.LBB960:
 7425               	.LBB961:
 7426               	.LM661:
 7427 2432 917E      		andi r25,lo8(-31)
 7428 2434 9260      		ori r25,lo8(2)
 7429 2436 9083      		st Z,r25
 7430               	.L336:
 7431 2438 0895      		ret
 7432               	.LBE961:
 7433               	.LBE960:
 7434               	.LFE125:
 7436               	.global	Timebase_DownCounter_Stop
 7438               	Timebase_DownCounter_Stop:
 7439               	.LFB126:
 7440               	.LM662:
 7441               	.LVL474:
 7442               	/* prologue: function */
 7443               	/* frame size = 0 */
 7444               	.LBB962:
 7445               	.LBB963:
 7446               	.LM663:
 7447 243a E091 0000 		lds r30,Timebase
 7448 243e F091 0000 		lds r31,(Timebase)+1
 7449 2442 90E0      		ldi r25,lo8(0)
 7450               	.LBE963:
 7451               	.LBE962:
 7452               	.LM664:
 7453 2444 2DE0      		ldi r18,lo8(13)
 7454 2446 30E0      		ldi r19,hi8(13)
 7455 2448 AC01      		movw r20,r24
 7456               	.LVL475:
 7457 244a 429F      		mul r20,r18
 7458 244c C001      		movw r24,r0
 7459 244e 439F      		mul r20,r19
 7460 2450 900D      		add r25,r0
 7461 2452 529F      		mul r21,r18
 7462 2454 900D      		add r25,r0
 7463 2456 1124      		clr r1
 7464 2458 E80F      		add r30,r24
 7465 245a F91F      		adc r31,r25
 7466 245c EB5A      		subi r30,lo8(-(85))
 7467 245e FF4F      		sbci r31,hi8(-(85))
 7468 2460 9081      		ld r25,Z
 7469 2462 892F      		mov r24,r25
 7470 2464 8695      		lsr r24
 7471 2466 8F70      		andi r24,lo8(15)
 7472 2468 8230      		cpi r24,lo8(2)
 7473 246a 01F0      		breq .L339
 7474               	.LBB964:
 7475               	.LBB965:
 7476               	.LM665:
 7477 246c 917E      		andi r25,lo8(-31)
 7478 246e 9460      		ori r25,lo8(4)
 7479 2470 9083      		st Z,r25
 7480               	.L339:
 7481 2472 0895      		ret
 7482               	.LBE965:
 7483               	.LBE964:
 7484               	.LFE126:
 7486               	.global	Timebase_DownCounter_Set_Securely
 7488               	Timebase_DownCounter_Set_Securely:
 7489               	.LFB127:
 7490               	.LM666:
 7491               	.LVL476:
 7492 2474 CF93      		push r28
 7493 2476 DF93      		push r29
 7494               	/* prologue: function */
 7495               	/* frame size = 0 */
 7496               	.LBB966:
 7497               	.LBB967:
 7498               	.LM667:
 7499 2478 A091 0000 		lds r26,Timebase
 7500 247c B091 0000 		lds r27,(Timebase)+1
 7501 2480 90E0      		ldi r25,lo8(0)
 7502               	.LBE967:
 7503               	.LBE966:
 7504               	.LM668:
 7505 2482 2DE0      		ldi r18,lo8(13)
 7506 2484 30E0      		ldi r19,hi8(13)
 7507 2486 829F      		mul r24,r18
 7508 2488 F001      		movw r30,r0
 7509 248a 839F      		mul r24,r19
 7510 248c F00D      		add r31,r0
 7511 248e 929F      		mul r25,r18
 7512 2490 F00D      		add r31,r0
 7513 2492 1124      		clr r1
 7514               	.LVL477:
 7515 2494 EA0F      		add r30,r26
 7516 2496 FB1F      		adc r31,r27
 7517 2498 EF01      		movw r28,r30
 7518 249a CB5A      		subi r28,lo8(-(85))
 7519 249c DF4F      		sbci r29,hi8(-(85))
 7520 249e 8881      		ld r24,Y
 7521 24a0 8695      		lsr r24
 7522 24a2 8F70      		andi r24,lo8(15)
 7523 24a4 01F4      		brne .L342
 7524               	.LBB968:
 7525               	.LBB969:
 7526               	.LM669:
 7527 24a6 E65A      		subi r30,lo8(-(90))
 7528 24a8 FF4F      		sbci r31,hi8(-(90))
 7529 24aa 4083      		st Z,r20
 7530 24ac 5183      		std Z+1,r21
 7531 24ae 6283      		std Z+2,r22
 7532 24b0 7383      		std Z+3,r23
 7533               	.LBE969:
 7534               	.LBE968:
 7535               	.LBB970:
 7536               	.LBB971:
 7537               	.LM670:
 7538 24b2 1A96      		adiw r26,10
 7539 24b4 8D91      		ld r24,X+
 7540 24b6 9D91      		ld r25,X+
 7541 24b8 0D90      		ld __tmp_reg__,X+
 7542 24ba BC91      		ld r27,X
 7543 24bc A02D      		mov r26,__tmp_reg__
 7544               	.LBE971:
 7545               	.LBE970:
 7546               	.LBB972:
 7547               	.LBB973:
 7548               	.LM671:
 7549 24be 840F      		add r24,r20
 7550 24c0 951F      		adc r25,r21
 7551 24c2 A61F      		adc r26,r22
 7552 24c4 B71F      		adc r27,r23
 7553 24c6 B293      		st -Z,r27
 7554 24c8 A293      		st -Z,r26
 7555 24ca 9293      		st -Z,r25
 7556 24cc 8293      		st -Z,r24
 7557               	.LBE973:
 7558               	.LBE972:
 7559               	.LBB974:
 7560               	.LBB975:
 7561               	.LM672:
 7562 24ce 9881      		ld r25,Y
 7563 24d0 892F      		mov r24,r25
 7564 24d2 8695      		lsr r24
 7565 24d4 8F70      		andi r24,lo8(15)
 7566 24d6 8130      		cpi r24,lo8(1)
 7567 24d8 01F0      		breq .L342
 7568               	.LBB976:
 7569               	.LBB977:
 7570               	.LM673:
 7571 24da 917E      		andi r25,lo8(-31)
 7572 24dc 9260      		ori r25,lo8(2)
 7573 24de 9883      		st Y,r25
 7574               	.L342:
 7575               	/* epilogue start */
 7576               	.LBE977:
 7577               	.LBE976:
 7578               	.LBE975:
 7579               	.LBE974:
 7580               	.LM674:
 7581 24e0 DF91      		pop r29
 7582 24e2 CF91      		pop r28
 7583 24e4 0895      		ret
 7584               	.LFE127:
 7586               	.global	Timebase_DownCounter_Set_Forcefully
 7588               	Timebase_DownCounter_Set_Forcefully:
 7589               	.LFB128:
 7590               	.LM675:
 7591               	.LVL478:
 7592 24e6 CF93      		push r28
 7593 24e8 DF93      		push r29
 7594               	/* prologue: function */
 7595               	/* frame size = 0 */
 7596               	.LBB978:
 7597               	.LBB979:
 7598               	.LBB980:
 7599               	.LBB981:
 7600               	.LM676:
 7601 24ea E091 0000 		lds r30,Timebase
 7602 24ee F091 0000 		lds r31,(Timebase)+1
 7603 24f2 A82F      		mov r26,r24
 7604 24f4 B0E0      		ldi r27,lo8(0)
 7605 24f6 2DE0      		ldi r18,lo8(13)
 7606 24f8 30E0      		ldi r19,hi8(13)
 7607 24fa E901      		movw r28,r18
 7608 24fc AC9F      		mul r26,r28
 7609 24fe 9001      		movw r18,r0
 7610 2500 AD9F      		mul r26,r29
 7611 2502 300D      		add r19,r0
 7612 2504 BC9F      		mul r27,r28
 7613 2506 300D      		add r19,r0
 7614 2508 1124      		clr r1
 7615 250a E20F      		add r30,r18
 7616 250c F31F      		adc r31,r19
 7617 250e EA5A      		subi r30,lo8(-(86))
 7618 2510 FF4F      		sbci r31,hi8(-(86))
 7619 2512 1192      		st Z+,__zero_reg__
 7620 2514 1192      		st Z+,__zero_reg__
 7621 2516 1192      		st Z+,__zero_reg__
 7622 2518 1192      		st Z+,__zero_reg__
 7623               	.LBE981:
 7624               	.LBE980:
 7625               	.LBB982:
 7626               	.LBB983:
 7627               	.LM677:
 7628 251a 1082      		st Z,__zero_reg__
 7629 251c 1182      		std Z+1,__zero_reg__
 7630 251e 1282      		std Z+2,__zero_reg__
 7631 2520 1382      		std Z+3,__zero_reg__
 7632               	.LBE983:
 7633               	.LBE982:
 7634               	.LBB984:
 7635               	.LBB985:
 7636               	.LM678:
 7637 2522 3597      		sbiw r30,5
 7638 2524 9081      		ld r25,Z
 7639               	.LBE985:
 7640               	.LBE984:
 7641               	.LBB986:
 7642               	.LBB987:
 7643               	.LM679:
 7644 2526 907E      		andi r25,lo8(-32)
 7645 2528 9083      		st Z,r25
 7646               	.LBE987:
 7647               	.LBE986:
 7648               	.LBE979:
 7649               	.LBE978:
 7650               	.LM680:
 7651 252a 0E94 0000 		call Timebase_DownCounter_Set_Securely
 7652               	.LVL479:
 7653               	/* epilogue start */
 7654               	.LM681:
 7655 252e DF91      		pop r29
 7656 2530 CF91      		pop r28
 7657 2532 0895      		ret
 7658               	.LFE128:
 7660               	.global	Timebase_DownCounter_Update
 7662               	Timebase_DownCounter_Update:
 7663               	.LFB129:
 7664               	.LM682:
 7665               	.LVL480:
 7666 2534 0F93      		push r16
 7667 2536 1F93      		push r17
 7668 2538 CF93      		push r28
 7669 253a DF93      		push r29
 7670               	/* prologue: function */
 7671               	/* frame size = 0 */
 7672               	.LBB988:
 7673               	.LBB989:
 7674               	.LM683:
 7675 253c A091 0000 		lds r26,Timebase
 7676 2540 B091 0000 		lds r27,(Timebase)+1
 7677 2544 90E0      		ldi r25,lo8(0)
 7678 2546 2DE0      		ldi r18,lo8(13)
 7679 2548 30E0      		ldi r19,hi8(13)
 7680 254a 829F      		mul r24,r18
 7681 254c F001      		movw r30,r0
 7682 254e 839F      		mul r24,r19
 7683 2550 F00D      		add r31,r0
 7684 2552 929F      		mul r25,r18
 7685 2554 F00D      		add r31,r0
 7686 2556 1124      		clr r1
 7687               	.LVL481:
 7688 2558 EA0F      		add r30,r26
 7689 255a FB1F      		adc r31,r27
 7690 255c 8F01      		movw r16,r30
 7691 255e 0B5A      		subi r16,lo8(-(85))
 7692 2560 1F4F      		sbci r17,hi8(-(85))
 7693 2562 E801      		movw r28,r16
 7694 2564 8881      		ld r24,Y
 7695 2566 8695      		lsr r24
 7696 2568 8F70      		andi r24,lo8(15)
 7697               	.LBE989:
 7698               	.LBE988:
 7699               	.LM684:
 7700 256a 8130      		cpi r24,lo8(1)
 7701 256c 01F4      		brne .L346
 7702               	.LBB990:
 7703               	.LBB991:
 7704               	.LM685:
 7705 256e 1A96      		adiw r26,10
 7706 2570 2D91      		ld r18,X+
 7707 2572 3D91      		ld r19,X+
 7708 2574 4D91      		ld r20,X+
 7709 2576 5C91      		ld r21,X
 7710 2578 1D97      		sbiw r26,10+3
 7711               	.LBE991:
 7712               	.LBE990:
 7713               	.LM686:
 7714 257a BF01      		movw r22,r30
 7715 257c 6A5A      		subi r22,lo8(-(86))
 7716 257e 7F4F      		sbci r23,hi8(-(86))
 7717 2580 EB01      		movw r28,r22
 7718 2582 8881      		ld r24,Y
 7719 2584 9981      		ldd r25,Y+1
 7720 2586 AA81      		ldd r26,Y+2
 7721 2588 BB81      		ldd r27,Y+3
 7722 258a 821B      		sub r24,r18
 7723 258c 930B      		sbc r25,r19
 7724 258e A40B      		sbc r26,r20
 7725 2590 B50B      		sbc r27,r21
 7726               	.LBB992:
 7727               	.LBB993:
 7728               	.LM687:
 7729 2592 E65A      		subi r30,lo8(-(90))
 7730 2594 FF4F      		sbci r31,hi8(-(90))
 7731 2596 8083      		st Z,r24
 7732 2598 9183      		std Z+1,r25
 7733 259a A283      		std Z+2,r26
 7734 259c B383      		std Z+3,r27
 7735               	.LBE993:
 7736               	.LBE992:
 7737               	.LM688:
 7738 259e 1816      		cp __zero_reg__,r24
 7739 25a0 1906      		cpc __zero_reg__,r25
 7740 25a2 1A06      		cpc __zero_reg__,r26
 7741 25a4 1B06      		cpc __zero_reg__,r27
 7742 25a6 04F0      		brlt .L348
 7743               	.LBB994:
 7744               	.LBB995:
 7745               	.LBB996:
 7746               	.LBB997:
 7747               	.LM689:
 7748 25a8 DB01      		movw r26,r22
 7749 25aa 1D92      		st X+,__zero_reg__
 7750 25ac 1D92      		st X+,__zero_reg__
 7751 25ae 1D92      		st X+,__zero_reg__
 7752 25b0 1C92      		st X,__zero_reg__
 7753 25b2 1397      		sbiw r26,3
 7754               	.LBE997:
 7755               	.LBE996:
 7756               	.LBB998:
 7757               	.LBB999:
 7758               	.LM690:
 7759 25b4 1082      		st Z,__zero_reg__
 7760 25b6 1182      		std Z+1,__zero_reg__
 7761 25b8 1282      		std Z+2,__zero_reg__
 7762 25ba 1382      		std Z+3,__zero_reg__
 7763               	.LBE999:
 7764               	.LBE998:
 7765               	.LBB1000:
 7766               	.LBB1001:
 7767               	.LM691:
 7768 25bc E801      		movw r28,r16
 7769 25be 8881      		ld r24,Y
 7770               	.LBE1001:
 7771               	.LBE1000:
 7772               	.LBE995:
 7773               	.LBE994:
 7774               	.LBB1002:
 7775               	.LBB1003:
 7776               	.LM692:
 7777 25c0 807E      		andi r24,lo8(-32)
 7778 25c2 8860      		ori r24,lo8(8)
 7779 25c4 8883      		st Y,r24
 7780 25c6 00C0      		rjmp .L348
 7781               	.L346:
 7782               	.LBE1003:
 7783               	.LBE1002:
 7784               	.LM693:
 7785 25c8 8230      		cpi r24,lo8(2)
 7786 25ca 01F4      		brne .L348
 7787               	.LBB1004:
 7788               	.LBB1005:
 7789               	.LM694:
 7790 25cc 1A96      		adiw r26,10
 7791 25ce 8D91      		ld r24,X+
 7792 25d0 9D91      		ld r25,X+
 7793 25d2 0D90      		ld __tmp_reg__,X+
 7794 25d4 BC91      		ld r27,X
 7795 25d6 A02D      		mov r26,__tmp_reg__
 7796               	.LBE1005:
 7797               	.LBE1004:
 7798               	.LBB1006:
 7799               	.LBB1007:
 7800               	.LM695:
 7801 25d8 E65A      		subi r30,lo8(-(90))
 7802 25da FF4F      		sbci r31,hi8(-(90))
 7803 25dc 2081      		ld r18,Z
 7804 25de 3181      		ldd r19,Z+1
 7805 25e0 4281      		ldd r20,Z+2
 7806 25e2 5381      		ldd r21,Z+3
 7807 25e4 820F      		add r24,r18
 7808 25e6 931F      		adc r25,r19
 7809 25e8 A41F      		adc r26,r20
 7810 25ea B51F      		adc r27,r21
 7811 25ec B293      		st -Z,r27
 7812 25ee A293      		st -Z,r26
 7813 25f0 9293      		st -Z,r25
 7814 25f2 8293      		st -Z,r24
 7815               	.L348:
 7816               	/* epilogue start */
 7817               	.LBE1007:
 7818               	.LBE1006:
 7819               	.LM696:
 7820 25f4 DF91      		pop r29
 7821 25f6 CF91      		pop r28
 7822 25f8 1F91      		pop r17
 7823 25fa 0F91      		pop r16
 7824 25fc 0895      		ret
 7825               	.LFE129:
 7827               	.global	Timebase_DownCounter_Expired
 7829               	Timebase_DownCounter_Expired:
 7830               	.LFB130:
 7831               	.LM697:
 7832               	.LVL482:
 7833               	/* prologue: function */
 7834               	/* frame size = 0 */
 7835               	.LM698:
 7836 25fe 40E0      		ldi r20,lo8(0)
 7837 2600 E091 0000 		lds r30,Timebase
 7838 2604 F091 0000 		lds r31,(Timebase)+1
 7839 2608 90E0      		ldi r25,lo8(0)
 7840               	.LVL483:
 7841 260a 2DE0      		ldi r18,lo8(13)
 7842 260c 30E0      		ldi r19,hi8(13)
 7843 260e BC01      		movw r22,r24
 7844 2610 629F      		mul r22,r18
 7845 2612 C001      		movw r24,r0
 7846 2614 639F      		mul r22,r19
 7847 2616 900D      		add r25,r0
 7848 2618 729F      		mul r23,r18
 7849 261a 900D      		add r25,r0
 7850 261c 1124      		clr r1
 7851               	.LVL484:
 7852 261e E80F      		add r30,r24
 7853 2620 F91F      		adc r31,r25
 7854 2622 EB5A      		subi r30,lo8(-(85))
 7855 2624 FF4F      		sbci r31,hi8(-(85))
 7856 2626 8081      		ld r24,Z
 7857 2628 8695      		lsr r24
 7858 262a 8F70      		andi r24,lo8(15)
 7859 262c 8430      		cpi r24,lo8(4)
 7860 262e 01F4      		brne .L350
 7861 2630 41E0      		ldi r20,lo8(1)
 7862               	.L350:
 7863               	.LM699:
 7864 2632 842F      		mov r24,r20
 7865               	/* epilogue start */
 7866 2634 0895      		ret
 7867               	.LFE130:
 7869               	.global	Timebase_DownCounter_Expired_Event
 7871               	Timebase_DownCounter_Expired_Event:
 7872               	.LFB131:
 7873               	.LM700:
 7874               	.LVL485:
 7875               	/* prologue: function */
 7876               	/* frame size = 0 */
 7877               	.LBB1008:
 7878               	.LBB1009:
 7879               	.LM701:
 7880 2636 E091 0000 		lds r30,Timebase
 7881 263a F091 0000 		lds r31,(Timebase)+1
 7882 263e 90E0      		ldi r25,lo8(0)
 7883               	.LBE1009:
 7884               	.LBE1008:
 7885               	.LM702:
 7886 2640 2DE0      		ldi r18,lo8(13)
 7887 2642 30E0      		ldi r19,hi8(13)
 7888 2644 AC01      		movw r20,r24
 7889               	.LVL486:
 7890 2646 429F      		mul r20,r18
 7891 2648 C001      		movw r24,r0
 7892 264a 439F      		mul r20,r19
 7893 264c 900D      		add r25,r0
 7894 264e 529F      		mul r21,r18
 7895 2650 900D      		add r25,r0
 7896 2652 1124      		clr r1
 7897 2654 E80F      		add r30,r24
 7898 2656 F91F      		adc r31,r25
 7899 2658 DF01      		movw r26,r30
 7900 265a AB5A      		subi r26,lo8(-(85))
 7901 265c BF4F      		sbci r27,hi8(-(85))
 7902 265e 8C91      		ld r24,X
 7903 2660 8695      		lsr r24
 7904 2662 8F70      		andi r24,lo8(15)
 7905 2664 8430      		cpi r24,lo8(4)
 7906 2666 01F0      		breq .L353
 7907 2668 80E0      		ldi r24,lo8(0)
 7908 266a 0895      		ret
 7909               	.L353:
 7910               	.LBB1010:
 7911               	.LBB1011:
 7912               	.LBB1012:
 7913               	.LBB1013:
 7914               	.LBB1014:
 7915               	.LBB1015:
 7916               	.LM703:
 7917 266c EA5A      		subi r30,lo8(-(86))
 7918 266e FF4F      		sbci r31,hi8(-(86))
 7919 2670 1192      		st Z+,__zero_reg__
 7920 2672 1192      		st Z+,__zero_reg__
 7921 2674 1192      		st Z+,__zero_reg__
 7922 2676 1192      		st Z+,__zero_reg__
 7923               	.LBE1015:
 7924               	.LBE1014:
 7925               	.LBB1016:
 7926               	.LBB1017:
 7927               	.LM704:
 7928 2678 1082      		st Z,__zero_reg__
 7929 267a 1182      		std Z+1,__zero_reg__
 7930 267c 1282      		std Z+2,__zero_reg__
 7931 267e 1382      		std Z+3,__zero_reg__
 7932               	.LBE1017:
 7933               	.LBE1016:
 7934               	.LBB1018:
 7935               	.LBB1019:
 7936               	.LM705:
 7937 2680 8C91      		ld r24,X
 7938               	.LBE1019:
 7939               	.LBE1018:
 7940               	.LBB1020:
 7941               	.LBB1021:
 7942               	.LM706:
 7943 2682 807E      		andi r24,lo8(-32)
 7944 2684 8C93      		st X,r24
 7945 2686 81E0      		ldi r24,lo8(1)
 7946               	.LBE1021:
 7947               	.LBE1020:
 7948               	.LBE1013:
 7949               	.LBE1012:
 7950               	.LBE1011:
 7951               	.LBE1010:
 7952               	.LM707:
 7953 2688 0895      		ret
 7954               	.LFE131:
 7956               	.global	Timebase_DownCounter_Set_Period_Value_Securely
 7958               	Timebase_DownCounter_Set_Period_Value_Securely:
 7959               	.LFB132:
 7960               	.LM708:
 7961               	.LVL487:
 7962 268a CF93      		push r28
 7963 268c DF93      		push r29
 7964               	/* prologue: function */
 7965               	/* frame size = 0 */
 7966               	.LBB1022:
 7967               	.LBB1023:
 7968               	.LM709:
 7969 268e C091 0000 		lds r28,Timebase
 7970 2692 D091 0000 		lds r29,(Timebase)+1
 7971 2696 282F      		mov r18,r24
 7972 2698 30E0      		ldi r19,lo8(0)
 7973               	.LBE1023:
 7974               	.LBE1022:
 7975               	.LM710:
 7976 269a 8DE0      		ldi r24,lo8(13)
 7977 269c 90E0      		ldi r25,hi8(13)
 7978               	.LVL488:
 7979 269e 289F      		mul r18,r24
 7980 26a0 F001      		movw r30,r0
 7981 26a2 299F      		mul r18,r25
 7982 26a4 F00D      		add r31,r0
 7983 26a6 389F      		mul r19,r24
 7984 26a8 F00D      		add r31,r0
 7985 26aa 1124      		clr r1
 7986 26ac EC0F      		add r30,r28
 7987 26ae FD1F      		adc r31,r29
 7988 26b0 EB5A      		subi r30,lo8(-(85))
 7989 26b2 FF4F      		sbci r31,hi8(-(85))
 7990 26b4 8081      		ld r24,Z
 7991 26b6 E555      		subi r30,lo8(-(-85))
 7992 26b8 F040      		sbci r31,hi8(-(-85))
 7993 26ba 80FD      		sbrc r24,0
 7994 26bc 00C0      		rjmp .L360
 7995               	.LM711:
 7996 26be E65A      		subi r30,lo8(-(90))
 7997 26c0 FF4F      		sbci r31,hi8(-(90))
 7998 26c2 8191      		ld r24,Z+
 7999 26c4 9191      		ld r25,Z+
 8000 26c6 A191      		ld r26,Z+
 8001 26c8 B191      		ld r27,Z+
 8002 26ca 841B      		sub r24,r20
 8003 26cc 950B      		sbc r25,r21
 8004 26ce A60B      		sbc r26,r22
 8005 26d0 B70B      		sbc r27,r23
 8006               	.LBB1024:
 8007               	.LBB1025:
 8008               	.LM712:
 8009 26d2 B7FF      		sbrs r27,7
 8010 26d4 00C0      		rjmp .L358
 8011               	.LM713:
 8012 26d6 1082      		st Z,__zero_reg__
 8013 26d8 1182      		std Z+1,__zero_reg__
 8014 26da 1282      		std Z+2,__zero_reg__
 8015 26dc 1382      		std Z+3,__zero_reg__
 8016 26de 00C0      		rjmp .L359
 8017               	.L358:
 8018               	.LM714:
 8019 26e0 8083      		st Z,r24
 8020 26e2 9183      		std Z+1,r25
 8021 26e4 A283      		std Z+2,r26
 8022 26e6 B383      		std Z+3,r27
 8023               	.L359:
 8024               	.LBE1025:
 8025               	.LBE1024:
 8026               	.LBB1026:
 8027               	.LBB1027:
 8028               	.LM715:
 8029 26e8 8DE0      		ldi r24,lo8(13)
 8030 26ea 90E0      		ldi r25,hi8(13)
 8031 26ec 289F      		mul r18,r24
 8032 26ee F001      		movw r30,r0
 8033 26f0 299F      		mul r18,r25
 8034 26f2 F00D      		add r31,r0
 8035 26f4 389F      		mul r19,r24
 8036 26f6 F00D      		add r31,r0
 8037 26f8 1124      		clr r1
 8038 26fa EC0F      		add r30,r28
 8039 26fc FD1F      		adc r31,r29
 8040 26fe EB5A      		subi r30,lo8(-(85))
 8041 2700 FF4F      		sbci r31,hi8(-(85))
 8042 2702 8081      		ld r24,Z
 8043 2704 8160      		ori r24,lo8(1)
 8044 2706 8083      		st Z,r24
 8045               	.L360:
 8046               	/* epilogue start */
 8047               	.LBE1027:
 8048               	.LBE1026:
 8049               	.LM716:
 8050 2708 DF91      		pop r29
 8051 270a CF91      		pop r28
 8052 270c 0895      		ret
 8053               	.LFE132:
 8055               	.global	Timebase_DownCounter_Get_Remaining_Period_Value
 8057               	Timebase_DownCounter_Get_Remaining_Period_Value:
 8058               	.LFB133:
 8059               	.LM717:
 8060               	.LVL489:
 8061               	/* prologue: function */
 8062               	/* frame size = 0 */
 8063               	.LBB1028:
 8064               	.LBB1029:
 8065               	.LM718:
 8066 270e E091 0000 		lds r30,Timebase
 8067 2712 F091 0000 		lds r31,(Timebase)+1
 8068 2716 90E0      		ldi r25,lo8(0)
 8069               	.LBE1029:
 8070               	.LBE1028:
 8071               	.LM719:
 8072 2718 2DE0      		ldi r18,lo8(13)
 8073 271a 30E0      		ldi r19,hi8(13)
 8074 271c AC01      		movw r20,r24
 8075               	.LVL490:
 8076 271e 429F      		mul r20,r18
 8077 2720 C001      		movw r24,r0
 8078 2722 439F      		mul r20,r19
 8079 2724 900D      		add r25,r0
 8080 2726 529F      		mul r21,r18
 8081 2728 900D      		add r25,r0
 8082 272a 1124      		clr r1
 8083 272c E80F      		add r30,r24
 8084 272e F91F      		adc r31,r25
 8085 2730 DF01      		movw r26,r30
 8086 2732 A25A      		subi r26,lo8(-(94))
 8087 2734 BF4F      		sbci r27,hi8(-(94))
 8088 2736 E65A      		subi r30,lo8(-(90))
 8089 2738 FF4F      		sbci r31,hi8(-(90))
 8090 273a 2081      		ld r18,Z
 8091 273c 3181      		ldd r19,Z+1
 8092 273e 4281      		ldd r20,Z+2
 8093 2740 5381      		ldd r21,Z+3
 8094               	.LVL491:
 8095 2742 8D91      		ld r24,X+
 8096 2744 9D91      		ld r25,X+
 8097 2746 0D90      		ld __tmp_reg__,X+
 8098 2748 BC91      		ld r27,X
 8099 274a A02D      		mov r26,__tmp_reg__
 8100 274c 281B      		sub r18,r24
 8101 274e 390B      		sbc r19,r25
 8102 2750 4A0B      		sbc r20,r26
 8103 2752 5B0B      		sbc r21,r27
 8104 2754 57FF      		sbrs r21,7
 8105 2756 00C0      		rjmp .L362
 8106 2758 20E0      		ldi r18,lo8(0)
 8107 275a 30E0      		ldi r19,hi8(0)
 8108 275c 40E0      		ldi r20,hlo8(0)
 8109 275e 50E0      		ldi r21,hhi8(0)
 8110               	.L362:
 8111               	.LM720:
 8112 2760 B901      		movw r22,r18
 8113               	.LVL492:
 8114 2762 CA01      		movw r24,r20
 8115               	/* epilogue start */
 8116 2764 0895      		ret
 8117               	.LFE133:
 8119               	.global	Timebase_DownCounter_Period_Value_Expired
 8121               	Timebase_DownCounter_Period_Value_Expired:
 8122               	.LFB134:
 8123               	.LM721:
 8124               	.LVL493:
 8125 2766 CF93      		push r28
 8126 2768 DF93      		push r29
 8127               	/* prologue: function */
 8128               	/* frame size = 0 */
 8129               	.LBB1030:
 8130               	.LBB1031:
 8131               	.LBB1032:
 8132               	.LBB1033:
 8133               	.LM722:
 8134 276a C091 0000 		lds r28,Timebase
 8135 276e D091 0000 		lds r29,(Timebase)+1
 8136 2772 682F      		mov r22,r24
 8137 2774 70E0      		ldi r23,lo8(0)
 8138               	.LBE1033:
 8139               	.LBE1032:
 8140               	.LM723:
 8141 2776 8DE0      		ldi r24,lo8(13)
 8142 2778 90E0      		ldi r25,hi8(13)
 8143               	.LVL494:
 8144 277a 689F      		mul r22,r24
 8145 277c F001      		movw r30,r0
 8146 277e 699F      		mul r22,r25
 8147 2780 F00D      		add r31,r0
 8148 2782 789F      		mul r23,r24
 8149 2784 F00D      		add r31,r0
 8150 2786 1124      		clr r1
 8151 2788 EC0F      		add r30,r28
 8152 278a FD1F      		adc r31,r29
 8153 278c DF01      		movw r26,r30
 8154 278e A25A      		subi r26,lo8(-(94))
 8155 2790 BF4F      		sbci r27,hi8(-(94))
 8156 2792 E65A      		subi r30,lo8(-(90))
 8157 2794 FF4F      		sbci r31,hi8(-(90))
 8158 2796 2081      		ld r18,Z
 8159 2798 3181      		ldd r19,Z+1
 8160 279a 4281      		ldd r20,Z+2
 8161 279c 5381      		ldd r21,Z+3
 8162               	.LVL495:
 8163 279e 8D91      		ld r24,X+
 8164 27a0 9D91      		ld r25,X+
 8165 27a2 0D90      		ld __tmp_reg__,X+
 8166 27a4 BC91      		ld r27,X
 8167 27a6 A02D      		mov r26,__tmp_reg__
 8168 27a8 281B      		sub r18,r24
 8169 27aa 390B      		sbc r19,r25
 8170 27ac 4A0B      		sbc r20,r26
 8171 27ae 5B0B      		sbc r21,r27
 8172               	.LM724:
 8173 27b0 57FD      		sbrc r21,7
 8174 27b2 00C0      		rjmp .L365
 8175               	.LBE1031:
 8176               	.LBE1030:
 8177               	.LM725:
 8178 27b4 2115      		cp r18,__zero_reg__
 8179 27b6 3105      		cpc r19,__zero_reg__
 8180 27b8 4105      		cpc r20,__zero_reg__
 8181 27ba 5105      		cpc r21,__zero_reg__
 8182 27bc 01F0      		breq .L365
 8183 27be 20E0      		ldi r18,lo8(0)
 8184               	.LVL496:
 8185 27c0 00C0      		rjmp .L366
 8186               	.LVL497:
 8187               	.L365:
 8188 27c2 20E0      		ldi r18,lo8(0)
 8189               	.LVL498:
 8190 27c4 8DE0      		ldi r24,lo8(13)
 8191 27c6 90E0      		ldi r25,hi8(13)
 8192 27c8 AC01      		movw r20,r24
 8193 27ca 649F      		mul r22,r20
 8194 27cc C001      		movw r24,r0
 8195 27ce 659F      		mul r22,r21
 8196 27d0 900D      		add r25,r0
 8197 27d2 749F      		mul r23,r20
 8198 27d4 900D      		add r25,r0
 8199 27d6 1124      		clr r1
 8200 27d8 C80F      		add r28,r24
 8201 27da D91F      		adc r29,r25
 8202 27dc CB5A      		subi r28,lo8(-(85))
 8203 27de DF4F      		sbci r29,hi8(-(85))
 8204 27e0 8881      		ld r24,Y
 8205 27e2 80FF      		sbrs r24,0
 8206 27e4 21E0      		ldi r18,lo8(1)
 8207               	.L367:
 8208 27e6 81E0      		ldi r24,lo8(1)
 8209 27e8 2827      		eor r18,r24
 8210               	.L366:
 8211               	.LM726:
 8212 27ea 822F      		mov r24,r18
 8213               	/* epilogue start */
 8214 27ec DF91      		pop r29
 8215 27ee CF91      		pop r28
 8216 27f0 0895      		ret
 8217               	.LFE134:
 8219               	.global	Timebase_DownCounter_Period_Value_Expired_Event
 8221               	Timebase_DownCounter_Period_Value_Expired_Event:
 8222               	.LFB135:
 8223               	.LM727:
 8224               	.LVL499:
 8225 27f2 1F93      		push r17
 8226               	/* prologue: function */
 8227               	/* frame size = 0 */
 8228 27f4 182F      		mov r17,r24
 8229               	.LM728:
 8230 27f6 0E94 0000 		call Timebase_DownCounter_Period_Value_Expired
 8231               	.LVL500:
 8232 27fa 8130      		cpi r24,lo8(1)
 8233 27fc 01F0      		breq .L370
 8234 27fe 80E0      		ldi r24,lo8(0)
 8235 2800 00C0      		rjmp .L371
 8236               	.L370:
 8237               	.LBB1034:
 8238               	.LBB1035:
 8239               	.LM729:
 8240 2802 E091 0000 		lds r30,Timebase
 8241 2806 F091 0000 		lds r31,(Timebase)+1
 8242 280a 212F      		mov r18,r17
 8243 280c 30E0      		ldi r19,lo8(0)
 8244               	.LVL501:
 8245 280e 8DE0      		ldi r24,lo8(13)
 8246 2810 90E0      		ldi r25,hi8(13)
 8247 2812 AC01      		movw r20,r24
 8248 2814 249F      		mul r18,r20
 8249 2816 C001      		movw r24,r0
 8250 2818 259F      		mul r18,r21
 8251 281a 900D      		add r25,r0
 8252 281c 349F      		mul r19,r20
 8253 281e 900D      		add r25,r0
 8254 2820 1124      		clr r1
 8255 2822 E80F      		add r30,r24
 8256 2824 F91F      		adc r31,r25
 8257 2826 EB5A      		subi r30,lo8(-(85))
 8258 2828 FF4F      		sbci r31,hi8(-(85))
 8259 282a 8081      		ld r24,Z
 8260 282c 8E7F      		andi r24,lo8(-2)
 8261 282e 8083      		st Z,r24
 8262 2830 81E0      		ldi r24,lo8(1)
 8263               	.L371:
 8264               	/* epilogue start */
 8265               	.LBE1035:
 8266               	.LBE1034:
 8267               	.LM730:
 8268 2832 1F91      		pop r17
 8269               	.LVL502:
 8270 2834 0895      		ret
 8271               	.LFE135:
 8273               	.global	Timebase_DownCounter_Update_All
 8275               	Timebase_DownCounter_Update_All:
 8276               	.LFB136:
 8277               	.LM731:
 8278               	/* prologue: function */
 8279               	/* frame size = 0 */
 8280               	.LBB1036:
 8281               	.LM732:
 8282 2836 80E0      		ldi r24,lo8(0)
 8283 2838 0E94 0000 		call Timebase_DownCounter_Update
 8284               	/* epilogue start */
 8285               	.LBE1036:
 8286               	.LM733:
 8287 283c 0895      		ret
 8288               	.LFE136:
 8290               	.global	Timebase_DownCounter_Reset_All
 8292               	Timebase_DownCounter_Reset_All:
 8293               	.LFB137:
 8294               	.LM734:
 8295               	/* prologue: function */
 8296               	/* frame size = 0 */
 8297               	.LBB1037:
 8298               	.LBB1038:
 8299               	.LBB1039:
 8300               	.LBB1040:
 8301               	.LBB1041:
 8302               	.LM735:
 8303 283e E091 0000 		lds r30,Timebase
 8304 2842 F091 0000 		lds r31,(Timebase)+1
 8305 2846 EA5A      		subi r30,lo8(-(86))
 8306 2848 FF4F      		sbci r31,hi8(-(86))
 8307 284a 1192      		st Z+,__zero_reg__
 8308 284c 1192      		st Z+,__zero_reg__
 8309 284e 1192      		st Z+,__zero_reg__
 8310 2850 1192      		st Z+,__zero_reg__
 8311               	.LBE1041:
 8312               	.LBE1040:
 8313               	.LBB1042:
 8314               	.LBB1043:
 8315               	.LM736:
 8316 2852 1082      		st Z,__zero_reg__
 8317 2854 1182      		std Z+1,__zero_reg__
 8318 2856 1282      		std Z+2,__zero_reg__
 8319 2858 1382      		std Z+3,__zero_reg__
 8320               	.LBE1043:
 8321               	.LBE1042:
 8322               	.LBB1044:
 8323               	.LBB1045:
 8324               	.LM737:
 8325 285a 3597      		sbiw r30,5
 8326 285c 8081      		ld r24,Z
 8327               	.LBE1045:
 8328               	.LBE1044:
 8329               	.LBB1046:
 8330               	.LBB1047:
 8331               	.LM738:
 8332 285e 807E      		andi r24,lo8(-32)
 8333 2860 8083      		st Z,r24
 8334               	/* epilogue start */
 8335               	.LBE1047:
 8336               	.LBE1046:
 8337               	.LBE1039:
 8338               	.LBE1038:
 8339               	.LBE1037:
 8340               	.LM739:
 8341 2862 0895      		ret
 8342               	.LFE137:
 8344               	.global	Timebase_Reset
 8346               	Timebase_Reset:
 8347               	.LFB138:
 8348               	.LM740:
 8349               	/* prologue: function */
 8350               	/* frame size = 0 */
 8351               	.LM741:
 8352 2864 0E94 0000 		call Timebase_UpCounter_Reset_All
 8353               	.LM742:
 8354 2868 0E94 0000 		call Timebase_DownCounter_SS_Reset_All
 8355               	.LM743:
 8356 286c 0E94 0000 		call Timebase_DownCounter_Reset_All
 8357               	/* epilogue start */
 8358               	.LM744:
 8359 2870 0895      		ret
 8360               	.LFE138:
 8362               	.global	Timebase_Init
 8364               	Timebase_Init:
 8365               	.LFB139:
 8366               	.LM745:
 8367               	.LVL503:
 8368 2872 0F93      		push r16
 8369 2874 1F93      		push r17
 8370               	/* prologue: function */
 8371               	/* frame size = 0 */
 8372 2876 8C01      		movw r16,r24
 8373               	.LM746:
 8374 2878 0E94 0000 		call Timebase_Struct_Init
 8375               	.LVL504:
 8376               	.LM747:
 8377 287c C801      		movw r24,r16
 8378 287e 0E94 0000 		call Timebase_Timer_Config
 8379               	.LM748:
 8380 2882 0E94 0000 		call Timebase_Reset
 8381               	/* epilogue start */
 8382               	.LM749:
 8383 2886 1F91      		pop r17
 8384 2888 0F91      		pop r16
 8385               	.LVL505:
 8386 288a 0895      		ret
 8387               	.LFE139:
 8389               	.global	Timebase_Main_Loop_Executables
 8391               	Timebase_Main_Loop_Executables:
 8392               	.LFB140:
 8393               	.LM750:
 8394               	/* prologue: function */
 8395               	/* frame size = 0 */
 8396               	.LM751:
 8397 288c E091 0000 		lds r30,Timebase
 8398 2890 F091 0000 		lds r31,(Timebase)+1
 8399 2894 8589      		ldd r24,Z+21
 8400 2896 82FF      		sbrs r24,2
 8401 2898 00C0      		rjmp .L382
 8402               	.LM752:
 8403 289a 0E94 0000 		call Timebase_Timer_Sync_With_Shadow_Variables
 8404               	.LM753:
 8405 289e 0E94 0000 		call Timebase_UpCounter_SS_Update_All
 8406               	.LM754:
 8407 28a2 E091 0000 		lds r30,Timebase
 8408 28a6 F091 0000 		lds r31,(Timebase)+1
 8409 28aa 8589      		ldd r24,Z+21
 8410 28ac 8B7F      		andi r24,lo8(-5)
 8411 28ae 858B      		std Z+21,r24
 8412               	.L382:
 8413               	.LM755:
 8414 28b0 E091 0000 		lds r30,Timebase
 8415 28b4 F091 0000 		lds r31,(Timebase)+1
 8416 28b8 8589      		ldd r24,Z+21
 8417 28ba 80FF      		sbrs r24,0
 8418 28bc 00C0      		rjmp .L383
 8419               	.LM756:
 8420 28be 0E94 0000 		call Timebase_Timer_Sync_With_Shadow_Variables
 8421               	.LM757:
 8422 28c2 0E94 0000 		call Timebase_UpCounter_Update_All
 8423               	.LM758:
 8424 28c6 E091 0000 		lds r30,Timebase
 8425 28ca F091 0000 		lds r31,(Timebase)+1
 8426 28ce 8589      		ldd r24,Z+21
 8427 28d0 8E7F      		andi r24,lo8(-2)
 8428 28d2 858B      		std Z+21,r24
 8429               	.L383:
 8430               	.LM759:
 8431 28d4 E091 0000 		lds r30,Timebase
 8432 28d8 F091 0000 		lds r31,(Timebase)+1
 8433 28dc 8589      		ldd r24,Z+21
 8434 28de 83FF      		sbrs r24,3
 8435 28e0 00C0      		rjmp .L384
 8436               	.LM760:
 8437 28e2 0E94 0000 		call Timebase_Timer_Sync_With_Shadow_Variables
 8438               	.LM761:
 8439 28e6 0E94 0000 		call Timebase_DownCounter_SS_Update_All
 8440               	.LM762:
 8441 28ea E091 0000 		lds r30,Timebase
 8442 28ee F091 0000 		lds r31,(Timebase)+1
 8443 28f2 8589      		ldd r24,Z+21
 8444 28f4 877F      		andi r24,lo8(-9)
 8445 28f6 858B      		std Z+21,r24
 8446               	.L384:
 8447               	.LM763:
 8448 28f8 E091 0000 		lds r30,Timebase
 8449 28fc F091 0000 		lds r31,(Timebase)+1
 8450 2900 8589      		ldd r24,Z+21
 8451 2902 81FF      		sbrs r24,1
 8452 2904 00C0      		rjmp .L385
 8453               	.LM764:
 8454 2906 0E94 0000 		call Timebase_Timer_Sync_With_Shadow_Variables
 8455               	.LM765:
 8456 290a 0E94 0000 		call Timebase_DownCounter_Update_All
 8457               	.LM766:
 8458 290e E091 0000 		lds r30,Timebase
 8459 2912 F091 0000 		lds r31,(Timebase)+1
 8460 2916 8589      		ldd r24,Z+21
 8461 2918 8D7F      		andi r24,lo8(-3)
 8462 291a 858B      		std Z+21,r24
 8463               	.L385:
 8464               	.LM767:
 8465 291c E091 0000 		lds r30,Timebase
 8466 2920 F091 0000 		lds r31,(Timebase)+1
 8467 2924 148A      		std Z+20,__zero_reg__
 8468               	/* epilogue start */
 8469               	.LM768:
 8470 2926 0895      		ret
 8471               	.LFE140:
 8473               	.global	Timebase_ISR_Executables
 8475               	Timebase_ISR_Executables:
 8476               	.LFB141:
 8477               	.LM769:
 8478               	/* prologue: function */
 8479               	/* frame size = 0 */
 8480               	.LM770:
 8481 2928 E091 0000 		lds r30,Timebase
 8482 292c F091 0000 		lds r31,(Timebase)+1
 8483 2930 8685      		ldd r24,Z+14
 8484 2932 9785      		ldd r25,Z+15
 8485 2934 0196      		adiw r24,1
 8486 2936 9787      		std Z+15,r25
 8487 2938 8687      		std Z+14,r24
 8488               	.LM771:
 8489 293a 8589      		ldd r24,Z+21
 8490 293c 8460      		ori r24,lo8(4)
 8491 293e 858B      		std Z+21,r24
 8492               	.LM772:
 8493 2940 8589      		ldd r24,Z+21
 8494 2942 8860      		ori r24,lo8(8)
 8495 2944 858B      		std Z+21,r24
 8496               	.LM773:
 8497 2946 2685      		ldd r18,Z+14
 8498 2948 3785      		ldd r19,Z+15
 8499 294a 8181      		ldd r24,Z+1
 8500 294c 9281      		ldd r25,Z+2
 8501 294e 2817      		cp r18,r24
 8502 2950 3907      		cpc r19,r25
 8503 2952 00F0      		brlo .L389
 8504               	.LM774:
 8505 2954 8089      		ldd r24,Z+16
 8506 2956 9189      		ldd r25,Z+17
 8507 2958 A289      		ldd r26,Z+18
 8508 295a B389      		ldd r27,Z+19
 8509 295c 0196      		adiw r24,1
 8510 295e A11D      		adc r26,__zero_reg__
 8511 2960 B11D      		adc r27,__zero_reg__
 8512 2962 808B      		std Z+16,r24
 8513 2964 918B      		std Z+17,r25
 8514 2966 A28B      		std Z+18,r26
 8515 2968 B38B      		std Z+19,r27
 8516               	.LM775:
 8517 296a 1786      		std Z+15,__zero_reg__
 8518 296c 1686      		std Z+14,__zero_reg__
 8519               	.LM776:
 8520 296e 8589      		ldd r24,Z+21
 8521 2970 8160      		ori r24,lo8(1)
 8522 2972 858B      		std Z+21,r24
 8523               	.LM777:
 8524 2974 8589      		ldd r24,Z+21
 8525 2976 8260      		ori r24,lo8(2)
 8526 2978 858B      		std Z+21,r24
 8527               	.L389:
 8528 297a 0895      		ret
 8529               	.LFE141:
 8531               	.global	__vector_16
 8533               	__vector_16:
 8534               	.LFB142:
 8535               	.LM778:
 8536 297c 1F92      		push __zero_reg__
 8537 297e 0F92      		push r0
 8538 2980 0FB6      		in r0,__SREG__
 8539 2982 0F92      		push r0
 8540 2984 1124      		clr __zero_reg__
 8541 2986 2F93      		push r18
 8542 2988 3F93      		push r19
 8543 298a 4F93      		push r20
 8544 298c 5F93      		push r21
 8545 298e 6F93      		push r22
 8546 2990 7F93      		push r23
 8547 2992 8F93      		push r24
 8548 2994 9F93      		push r25
 8549 2996 AF93      		push r26
 8550 2998 BF93      		push r27
 8551 299a EF93      		push r30
 8552 299c FF93      		push r31
 8553               	/* prologue: Signal */
 8554               	/* frame size = 0 */
 8555               	.LM779:
 8556 299e E091 0000 		lds r30,Timebase
 8557 29a2 F091 0000 		lds r31,(Timebase)+1
 8558 29a6 8381      		ldd r24,Z+3
 8559 29a8 86BD      		out 70-32,r24
 8560               	.LM780:
 8561 29aa 0E94 0000 		call Timebase_ISR_Executables
 8562               	/* epilogue start */
 8563               	.LM781:
 8564 29ae FF91      		pop r31
 8565 29b0 EF91      		pop r30
 8566 29b2 BF91      		pop r27
 8567 29b4 AF91      		pop r26
 8568 29b6 9F91      		pop r25
 8569 29b8 8F91      		pop r24
 8570 29ba 7F91      		pop r23
 8571 29bc 6F91      		pop r22
 8572 29be 5F91      		pop r21
 8573 29c0 4F91      		pop r20
 8574 29c2 3F91      		pop r19
 8575 29c4 2F91      		pop r18
 8576 29c6 0F90      		pop r0
 8577 29c8 0FBE      		out __SREG__,r0
 8578 29ca 0F90      		pop r0
 8579 29cc 1F90      		pop __zero_reg__
 8580 29ce 1895      		reti
 8581               	.LFE142:
 8583               		.data
 8586               	C.2.1704:
 8587 0000 0100      		.word	1
 8588 0002 0800      		.word	8
 8589 0004 4000      		.word	64
 8590 0006 0001      		.word	256
 8591 0008 0004      		.word	1024
 8592               		.comm Timebase_type,98,1
 8593               		.comm Timebase,2,1
 9706               	.Letext0:
DEFINED SYMBOLS
                            *ABS*:00000000 timebase.c
C:\Users\WALTON\AppData\Local\Temp/ccqk2Frx.s:2      *ABS*:0000003f __SREG__
C:\Users\WALTON\AppData\Local\Temp/ccqk2Frx.s:3      *ABS*:0000003e __SP_H__
C:\Users\WALTON\AppData\Local\Temp/ccqk2Frx.s:4      *ABS*:0000003d __SP_L__
C:\Users\WALTON\AppData\Local\Temp/ccqk2Frx.s:5      *ABS*:00000034 __CCP__
C:\Users\WALTON\AppData\Local\Temp/ccqk2Frx.s:6      *ABS*:00000000 __tmp_reg__
C:\Users\WALTON\AppData\Local\Temp/ccqk2Frx.s:7      *ABS*:00000001 __zero_reg__
C:\Users\WALTON\AppData\Local\Temp/ccqk2Frx.s:18     .text:00000000 Timebase_Struct_Init
                            *COM*:00000062 Timebase_type
                            *COM*:00000002 Timebase
C:\Users\WALTON\AppData\Local\Temp/ccqk2Frx.s:183    .text:000001ae Timebase_Timer_Config
C:\Users\WALTON\AppData\Local\Temp/ccqk2Frx.s:8586   .data:00000000 C.2.1704
C:\Users\WALTON\AppData\Local\Temp/ccqk2Frx.s:503    .text:00000348 Timebase_Atomic_Operation_Start
C:\Users\WALTON\AppData\Local\Temp/ccqk2Frx.s:521    .text:0000034c Timebase_Atomic_Operation_End
C:\Users\WALTON\AppData\Local\Temp/ccqk2Frx.s:539    .text:00000350 Timebase_Timer_Get_SubSecondsShadow
C:\Users\WALTON\AppData\Local\Temp/ccqk2Frx.s:557    .text:00000360 Timebase_Timer_Get_SecondsShadow
C:\Users\WALTON\AppData\Local\Temp/ccqk2Frx.s:578    .text:00000376 Timebase_Timer_Get_SubSeconds
C:\Users\WALTON\AppData\Local\Temp/ccqk2Frx.s:596    .text:00000386 Timebase_Timer_Get_Seconds
C:\Users\WALTON\AppData\Local\Temp/ccqk2Frx.s:617    .text:0000039c Timebase_Timer_Set_SubSeconds
C:\Users\WALTON\AppData\Local\Temp/ccqk2Frx.s:635    .text:000003aa Timebase_Timer_Set_Seconds
C:\Users\WALTON\AppData\Local\Temp/ccqk2Frx.s:655    .text:000003bc Timebase_Timer_Sync_With_Shadow_Variables
C:\Users\WALTON\AppData\Local\Temp/ccqk2Frx.s:709    .text:000003ec Timebase_Timer_Delay_SubSeconds
C:\Users\WALTON\AppData\Local\Temp/ccqk2Frx.s:886    .text:000004a4 Timebase_Timer_Await_SubSeconds
C:\Users\WALTON\AppData\Local\Temp/ccqk2Frx.s:1048   .text:0000053e Timebase_Timer_Delay_Seconds
C:\Users\WALTON\AppData\Local\Temp/ccqk2Frx.s:1145   .text:00000580 Timebase_UpCounter_SS_Get_Status
C:\Users\WALTON\AppData\Local\Temp/ccqk2Frx.s:1179   .text:000005aa Timebase_UpCounter_SS_Set_Status
C:\Users\WALTON\AppData\Local\Temp/ccqk2Frx.s:1217   .text:000005da Timebase_UpCounter_SS_Get_Value
C:\Users\WALTON\AppData\Local\Temp/ccqk2Frx.s:1260   .text:00000614 Timebase_UpCounter_SS_Set_Value
C:\Users\WALTON\AppData\Local\Temp/ccqk2Frx.s:1310   .text:00000658 Timebase_UpCounter_SS_Get_EndValueSec
C:\Users\WALTON\AppData\Local\Temp/ccqk2Frx.s:1353   .text:00000692 Timebase_UpCounter_SS_Get_EndValueSubSec
C:\Users\WALTON\AppData\Local\Temp/ccqk2Frx.s:1396   .text:000006cc Timebase_UpCounter_SS_Set_EndValueSec
C:\Users\WALTON\AppData\Local\Temp/ccqk2Frx.s:1431   .text:000006f8 Timebase_UpCounter_SS_Set_EndValueSubSec
C:\Users\WALTON\AppData\Local\Temp/ccqk2Frx.s:1466   .text:00000724 Timebase_UpCounter_SS_Get_TargetValue
C:\Users\WALTON\AppData\Local\Temp/ccqk2Frx.s:1509   .text:0000075e Timebase_UpCounter_SS_Set_TargetValue
C:\Users\WALTON\AppData\Local\Temp/ccqk2Frx.s:1544   .text:0000078a Timebase_UpCounter_SS_Get_TemporaryValue
C:\Users\WALTON\AppData\Local\Temp/ccqk2Frx.s:1587   .text:000007c4 Timebase_UpCounter_SS_Set_TemporaryValue
C:\Users\WALTON\AppData\Local\Temp/ccqk2Frx.s:1637   .text:00000808 Timebase_UpCounter_SS_Get_PeriodValue
C:\Users\WALTON\AppData\Local\Temp/ccqk2Frx.s:1680   .text:00000842 Timebase_UpCounter_SS_Set_PeriodValue
C:\Users\WALTON\AppData\Local\Temp/ccqk2Frx.s:1715   .text:0000086e Timebase_UpCounter_SS_Get_Period_Flag
C:\Users\WALTON\AppData\Local\Temp/ccqk2Frx.s:1748   .text:00000896 Timebase_UpCounter_SS_Set_Period_Flag
C:\Users\WALTON\AppData\Local\Temp/ccqk2Frx.s:1782   .text:000008c0 Timebase_UpCounter_SS_Clear_Period_Flag
C:\Users\WALTON\AppData\Local\Temp/ccqk2Frx.s:1816   .text:000008ea Timebase_UpCounter_SS_Reset
C:\Users\WALTON\AppData\Local\Temp/ccqk2Frx.s:1912   .text:00000944 Timebase_UpCounter_SS_Clear_All_Flags
C:\Users\WALTON\AppData\Local\Temp/ccqk2Frx.s:1928   .text:0000094a Timebase_UpCounter_SS_Start
C:\Users\WALTON\AppData\Local\Temp/ccqk2Frx.s:1976   .text:00000980 Timebase_UpCounter_SS_Stop
C:\Users\WALTON\AppData\Local\Temp/ccqk2Frx.s:2024   .text:000009b6 Timebase_UpCounter_SS_Set_Securely
C:\Users\WALTON\AppData\Local\Temp/ccqk2Frx.s:2296   .text:00000b32 Timebase_UpCounter_SS_Set_Forcefully
C:\Users\WALTON\AppData\Local\Temp/ccqk2Frx.s:2332   .text:00000b5c Timebase_UpCounter_SS_Update
C:\Users\WALTON\AppData\Local\Temp/ccqk2Frx.s:2856   .text:00000e54 Timebase_UpCounter_SS_Expired
C:\Users\WALTON\AppData\Local\Temp/ccqk2Frx.s:2896   .text:00000e88 Timebase_UpCounter_SS_Expired_Event
C:\Users\WALTON\AppData\Local\Temp/ccqk2Frx.s:2945   .text:00000ec6 Timebase_UpCounter_SS_Set_Period_Value_Securely
C:\Users\WALTON\AppData\Local\Temp/ccqk2Frx.s:3007   .text:00000f0e Timebase_UpCounter_SS_Get_Remaining_Period_Value
C:\Users\WALTON\AppData\Local\Temp/ccqk2Frx.s:3065   .text:00000f5a Timebase_UpCounter_SS_Period_Value_Expired
C:\Users\WALTON\AppData\Local\Temp/ccqk2Frx.s:3157   .text:00000fd6 Timebase_UpCounter_SS_Period_Value_Expired_Event
C:\Users\WALTON\AppData\Local\Temp/ccqk2Frx.s:3209   .text:00001016 Timebase_UpCounter_SS_Update_All
C:\Users\WALTON\AppData\Local\Temp/ccqk2Frx.s:3226   .text:0000101e Timebase_UpCounter_SS_Reset_All
C:\Users\WALTON\AppData\Local\Temp/ccqk2Frx.s:3243   .text:00001026 Timebase_UpCounter_Get_Status
C:\Users\WALTON\AppData\Local\Temp/ccqk2Frx.s:3277   .text:00001050 Timebase_UpCounter_Set_Status
C:\Users\WALTON\AppData\Local\Temp/ccqk2Frx.s:3315   .text:00001080 Timebase_UpCounter_Get_Value
C:\Users\WALTON\AppData\Local\Temp/ccqk2Frx.s:3358   .text:000010ba Timebase_UpCounter_Set_Value
C:\Users\WALTON\AppData\Local\Temp/ccqk2Frx.s:3408   .text:000010fe Timebase_UpCounter_Get_EndValueSec
C:\Users\WALTON\AppData\Local\Temp/ccqk2Frx.s:3451   .text:00001138 Timebase_UpCounter_Get_EndValueSubSec
C:\Users\WALTON\AppData\Local\Temp/ccqk2Frx.s:3494   .text:00001172 Timebase_UpCounter_Set_EndValueSec
C:\Users\WALTON\AppData\Local\Temp/ccqk2Frx.s:3529   .text:0000119e Timebase_UpCounter_Set_EndValueSubSec
C:\Users\WALTON\AppData\Local\Temp/ccqk2Frx.s:3564   .text:000011ca Timebase_UpCounter_Get_TargetValue
C:\Users\WALTON\AppData\Local\Temp/ccqk2Frx.s:3607   .text:00001204 Timebase_UpCounter_Set_TargetValue
C:\Users\WALTON\AppData\Local\Temp/ccqk2Frx.s:3642   .text:00001230 Timebase_UpCounter_Get_TemporaryValue
C:\Users\WALTON\AppData\Local\Temp/ccqk2Frx.s:3685   .text:0000126a Timebase_UpCounter_Set_TemporaryValue
C:\Users\WALTON\AppData\Local\Temp/ccqk2Frx.s:3735   .text:000012ae Timebase_UpCounter_Get_PeriodValue
C:\Users\WALTON\AppData\Local\Temp/ccqk2Frx.s:3773   .text:000012de Timebase_UpCounter_Set_PeriodValue
C:\Users\WALTON\AppData\Local\Temp/ccqk2Frx.s:3810   .text:0000130e Timebase_UpCounter_Get_Period_Flag
C:\Users\WALTON\AppData\Local\Temp/ccqk2Frx.s:3843   .text:00001336 Timebase_UpCounter_Set_Period_Flag
C:\Users\WALTON\AppData\Local\Temp/ccqk2Frx.s:3877   .text:00001360 Timebase_UpCounter_Clear_Period_Flag
C:\Users\WALTON\AppData\Local\Temp/ccqk2Frx.s:3911   .text:0000138a Timebase_UpCounter_Reset
C:\Users\WALTON\AppData\Local\Temp/ccqk2Frx.s:4002   .text:000013e4 Timebase_UpCounter_Clear_All_Flags
C:\Users\WALTON\AppData\Local\Temp/ccqk2Frx.s:4018   .text:000013ea Timebase_UpCounter_Start
C:\Users\WALTON\AppData\Local\Temp/ccqk2Frx.s:4066   .text:00001420 Timebase_UpCounter_Stop
C:\Users\WALTON\AppData\Local\Temp/ccqk2Frx.s:4114   .text:00001456 Timebase_UpCounter_Set_Securely
C:\Users\WALTON\AppData\Local\Temp/ccqk2Frx.s:4223   .text:000014c6 Timebase_UpCounter_Set_Forcefully
C:\Users\WALTON\AppData\Local\Temp/ccqk2Frx.s:4259   .text:000014f0 Timebase_UpCounter_Update
C:\Users\WALTON\AppData\Local\Temp/ccqk2Frx.s:4543   .text:00001660 Timebase_UpCounter_Expired
C:\Users\WALTON\AppData\Local\Temp/ccqk2Frx.s:4583   .text:00001694 Timebase_UpCounter_Expired_Event
C:\Users\WALTON\AppData\Local\Temp/ccqk2Frx.s:4632   .text:000016d2 Timebase_UpCounter_Set_Period_Value_Securely
C:\Users\WALTON\AppData\Local\Temp/ccqk2Frx.s:4698   .text:00001722 Timebase_UpCounter_Get_Remaining_Period_Value
C:\Users\WALTON\AppData\Local\Temp/ccqk2Frx.s:4760   .text:00001776 Timebase_UpCounter_Period_Value_Expired
C:\Users\WALTON\AppData\Local\Temp/ccqk2Frx.s:4856   .text:000017fa Timebase_UpCounter_Period_Value_Expired_Event
C:\Users\WALTON\AppData\Local\Temp/ccqk2Frx.s:4908   .text:0000183a Timebase_UpCounter_Update_All
C:\Users\WALTON\AppData\Local\Temp/ccqk2Frx.s:4925   .text:00001842 Timebase_UpCounter_Reset_All
C:\Users\WALTON\AppData\Local\Temp/ccqk2Frx.s:4942   .text:0000184a Timebase_DownCounter_SS_Get_Status
C:\Users\WALTON\AppData\Local\Temp/ccqk2Frx.s:4976   .text:00001874 Timebase_DownCounter_SS_Set_Status
C:\Users\WALTON\AppData\Local\Temp/ccqk2Frx.s:5014   .text:000018a4 Timebase_DownCounter_SS_Get_Value
C:\Users\WALTON\AppData\Local\Temp/ccqk2Frx.s:5050   .text:000018d0 Timebase_DownCounter_SS_Set_Value
C:\Users\WALTON\AppData\Local\Temp/ccqk2Frx.s:5084   .text:000018fc Timebase_DownCounter_SS_Get_EndValueSec
C:\Users\WALTON\AppData\Local\Temp/ccqk2Frx.s:5120   .text:00001928 Timebase_DownCounter_SS_Get_EndValueSubSec
C:\Users\WALTON\AppData\Local\Temp/ccqk2Frx.s:5156   .text:00001954 Timebase_DownCounter_SS_Set_EndValueSec
C:\Users\WALTON\AppData\Local\Temp/ccqk2Frx.s:5190   .text:00001980 Timebase_DownCounter_SS_Set_EndValueSubSec
C:\Users\WALTON\AppData\Local\Temp/ccqk2Frx.s:5224   .text:000019ac Timebase_DownCounter_SS_Get_PeriodValue
C:\Users\WALTON\AppData\Local\Temp/ccqk2Frx.s:5260   .text:000019d8 Timebase_DownCounter_SS_Set_PeriodValue
C:\Users\WALTON\AppData\Local\Temp/ccqk2Frx.s:5317   .text:00001a2c Timebase_DownCounter_SS_Get_Period_Flag
C:\Users\WALTON\AppData\Local\Temp/ccqk2Frx.s:5350   .text:00001a54 Timebase_DownCounter_SS_Set_Period_Flag
C:\Users\WALTON\AppData\Local\Temp/ccqk2Frx.s:5384   .text:00001a7e Timebase_DownCounter_SS_Clear_Period_Flag
C:\Users\WALTON\AppData\Local\Temp/ccqk2Frx.s:5418   .text:00001aa8 Timebase_DownCounter_SS_Reset
C:\Users\WALTON\AppData\Local\Temp/ccqk2Frx.s:5489   .text:00001aee Timebase_DownCounter_SS_Clear_All_Flags
C:\Users\WALTON\AppData\Local\Temp/ccqk2Frx.s:5564   .text:00001b34 Timebase_DownCounter_SS_Start
C:\Users\WALTON\AppData\Local\Temp/ccqk2Frx.s:5612   .text:00001b6a Timebase_DownCounter_SS_Stop
C:\Users\WALTON\AppData\Local\Temp/ccqk2Frx.s:5660   .text:00001ba0 Timebase_DownCounter_SS_Set_Securely
C:\Users\WALTON\AppData\Local\Temp/ccqk2Frx.s:5922   .text:00001d1c Timebase_DownCounter_SS_Set_Forcefully
C:\Users\WALTON\AppData\Local\Temp/ccqk2Frx.s:6000   .text:00001d68 Timebase_DownCounter_SS_Update
C:\Users\WALTON\AppData\Local\Temp/ccqk2Frx.s:6301   .text:00001eea Timebase_DownCounter_SS_Expired
C:\Users\WALTON\AppData\Local\Temp/ccqk2Frx.s:6341   .text:00001f1e Timebase_DownCounter_SS_Expired_Event
C:\Users\WALTON\AppData\Local\Temp/ccqk2Frx.s:6436   .text:00001f78 Timebase_DownCounter_SS_Set_Period_Value_Securely
C:\Users\WALTON\AppData\Local\Temp/ccqk2Frx.s:6533   .text:00001ff8 Timebase_DownCounter_SS_Get_Remaining_Period_Value
C:\Users\WALTON\AppData\Local\Temp/ccqk2Frx.s:6595   .text:0000204c Timebase_DownCounter_SS_Period_Value_Expired
C:\Users\WALTON\AppData\Local\Temp/ccqk2Frx.s:6692   .text:000020d2 Timebase_DownCounter_SS_Period_Value_Expired_Event
C:\Users\WALTON\AppData\Local\Temp/ccqk2Frx.s:6744   .text:00002112 Timebase_DownCounter_SS_Update_All
C:\Users\WALTON\AppData\Local\Temp/ccqk2Frx.s:6761   .text:0000211a Timebase_DownCounter_SS_Reset_All
C:\Users\WALTON\AppData\Local\Temp/ccqk2Frx.s:6825   .text:0000214a Timebase_DownCounter_Get_Status
C:\Users\WALTON\AppData\Local\Temp/ccqk2Frx.s:6861   .text:00002178 Timebase_DownCounter_Set_Status
C:\Users\WALTON\AppData\Local\Temp/ccqk2Frx.s:6901   .text:000021ac Timebase_DownCounter_Get_Value
C:\Users\WALTON\AppData\Local\Temp/ccqk2Frx.s:6939   .text:000021dc Timebase_DownCounter_Set_Value
C:\Users\WALTON\AppData\Local\Temp/ccqk2Frx.s:6976   .text:0000220c Timebase_DownCounter_Get_EndValue
C:\Users\WALTON\AppData\Local\Temp/ccqk2Frx.s:7014   .text:0000223c Timebase_DownCounter_Set_EndValue
C:\Users\WALTON\AppData\Local\Temp/ccqk2Frx.s:7051   .text:0000226c Timebase_DownCounter_Get_PeriodValue
C:\Users\WALTON\AppData\Local\Temp/ccqk2Frx.s:7089   .text:0000229c Timebase_DownCounter_Set_PeriodValue
C:\Users\WALTON\AppData\Local\Temp/ccqk2Frx.s:7151   .text:000022f8 Timebase_DownCounter_Get_Period_Flag
C:\Users\WALTON\AppData\Local\Temp/ccqk2Frx.s:7186   .text:00002324 Timebase_DownCounter_Set_Period_Flag
C:\Users\WALTON\AppData\Local\Temp/ccqk2Frx.s:7222   .text:00002352 Timebase_DownCounter_Clear_Period_Flag
C:\Users\WALTON\AppData\Local\Temp/ccqk2Frx.s:7258   .text:00002380 Timebase_DownCounter_Reset
C:\Users\WALTON\AppData\Local\Temp/ccqk2Frx.s:7321   .text:000023c0 Timebase_DownCounter_Clear_All_Flags
C:\Users\WALTON\AppData\Local\Temp/ccqk2Frx.s:7388   .text:00002400 Timebase_DownCounter_Start
C:\Users\WALTON\AppData\Local\Temp/ccqk2Frx.s:7438   .text:0000243a Timebase_DownCounter_Stop
C:\Users\WALTON\AppData\Local\Temp/ccqk2Frx.s:7488   .text:00002474 Timebase_DownCounter_Set_Securely
C:\Users\WALTON\AppData\Local\Temp/ccqk2Frx.s:7588   .text:000024e6 Timebase_DownCounter_Set_Forcefully
C:\Users\WALTON\AppData\Local\Temp/ccqk2Frx.s:7662   .text:00002534 Timebase_DownCounter_Update
C:\Users\WALTON\AppData\Local\Temp/ccqk2Frx.s:7829   .text:000025fe Timebase_DownCounter_Expired
C:\Users\WALTON\AppData\Local\Temp/ccqk2Frx.s:7871   .text:00002636 Timebase_DownCounter_Expired_Event
C:\Users\WALTON\AppData\Local\Temp/ccqk2Frx.s:7958   .text:0000268a Timebase_DownCounter_Set_Period_Value_Securely
C:\Users\WALTON\AppData\Local\Temp/ccqk2Frx.s:8057   .text:0000270e Timebase_DownCounter_Get_Remaining_Period_Value
C:\Users\WALTON\AppData\Local\Temp/ccqk2Frx.s:8121   .text:00002766 Timebase_DownCounter_Period_Value_Expired
C:\Users\WALTON\AppData\Local\Temp/ccqk2Frx.s:8221   .text:000027f2 Timebase_DownCounter_Period_Value_Expired_Event
C:\Users\WALTON\AppData\Local\Temp/ccqk2Frx.s:8275   .text:00002836 Timebase_DownCounter_Update_All
C:\Users\WALTON\AppData\Local\Temp/ccqk2Frx.s:8292   .text:0000283e Timebase_DownCounter_Reset_All
C:\Users\WALTON\AppData\Local\Temp/ccqk2Frx.s:8346   .text:00002864 Timebase_Reset
C:\Users\WALTON\AppData\Local\Temp/ccqk2Frx.s:8364   .text:00002872 Timebase_Init
C:\Users\WALTON\AppData\Local\Temp/ccqk2Frx.s:8391   .text:0000288c Timebase_Main_Loop_Executables
C:\Users\WALTON\AppData\Local\Temp/ccqk2Frx.s:8475   .text:00002928 Timebase_ISR_Executables
C:\Users\WALTON\AppData\Local\Temp/ccqk2Frx.s:8533   .text:0000297c __vector_16

UNDEFINED SYMBOLS
__divmodsi4
__mulsi3
__do_copy_data
__do_clear_bss
