   1               		.file	"timebase.c"
   2               	__SREG__ = 0x3f
   3               	__SP_H__ = 0x3e
   4               	__SP_L__ = 0x3d
   5               	__CCP__  = 0x34
   6               	__tmp_reg__ = 0
   7               	__zero_reg__ = 1
  15               	.Ltext0:
  16               	.global	Timebase_Struct_Init
  18               	Timebase_Struct_Init:
  19               	.LFB6:
  20               	.LM1:
  21               	/* prologue: function */
  22               	/* frame size = 0 */
  23               	.LM2:
  24 0000 80E0      		ldi r24,lo8(Timebase_type)
  25 0002 90E0      		ldi r25,hi8(Timebase_type)
  26 0004 9093 0000 		sts (Timebase)+1,r25
  27 0008 8093 0000 		sts Timebase,r24
  28               	.LM3:
  29 000c 1092 0000 		sts Timebase_type,__zero_reg__
  30               	.LM4:
  31 0010 8091 0000 		lds r24,Timebase_type
  32 0014 8460      		ori r24,lo8(4)
  33 0016 8093 0000 		sts Timebase_type,r24
  34               	.LM5:
  35 001a 8091 0000 		lds r24,Timebase_type
  36 001e 8770      		andi r24,lo8(7)
  37 0020 8093 0000 		sts Timebase_type,r24
  38               	.LM6:
  39 0024 81E0      		ldi r24,lo8(1)
  40 0026 90E0      		ldi r25,hi8(1)
  41 0028 9093 0000 		sts (Timebase_type+1)+1,r25
  42 002c 8093 0000 		sts Timebase_type+1,r24
  43               	.LM7:
  44 0030 1092 0000 		sts Timebase_type+3,__zero_reg__
  45               	.LM8:
  46 0034 1092 0000 		sts (Timebase_type+14)+1,__zero_reg__
  47 0038 1092 0000 		sts Timebase_type+14,__zero_reg__
  48               	.LM9:
  49 003c 1092 0000 		sts Timebase_type+16,__zero_reg__
  50 0040 1092 0000 		sts (Timebase_type+16)+1,__zero_reg__
  51 0044 1092 0000 		sts (Timebase_type+16)+2,__zero_reg__
  52 0048 1092 0000 		sts (Timebase_type+16)+3,__zero_reg__
  53               	.LM10:
  54 004c 1092 0000 		sts (Timebase_type+8)+1,__zero_reg__
  55 0050 1092 0000 		sts Timebase_type+8,__zero_reg__
  56               	.LM11:
  57 0054 1092 0000 		sts Timebase_type+10,__zero_reg__
  58 0058 1092 0000 		sts (Timebase_type+10)+1,__zero_reg__
  59 005c 1092 0000 		sts (Timebase_type+10)+2,__zero_reg__
  60 0060 1092 0000 		sts (Timebase_type+10)+3,__zero_reg__
  61               	.LM12:
  62 0064 1092 0000 		sts Timebase_type+20,__zero_reg__
  63               	.LM13:
  64 0068 1092 0000 		sts Timebase_type+4,__zero_reg__
  65 006c 1092 0000 		sts (Timebase_type+4)+1,__zero_reg__
  66 0070 1092 0000 		sts (Timebase_type+4)+2,__zero_reg__
  67 0074 1092 0000 		sts (Timebase_type+4)+3,__zero_reg__
  68               	.LM14:
  69 0078 1092 0000 		sts Timebase_type+21,__zero_reg__
  70 007c 1092 0000 		sts (Timebase_type+21)+1,__zero_reg__
  71 0080 1092 0000 		sts (Timebase_type+21)+2,__zero_reg__
  72 0084 1092 0000 		sts (Timebase_type+21)+3,__zero_reg__
  73               	.LM15:
  74 0088 1092 0000 		sts Timebase_type+25,__zero_reg__
  75 008c 1092 0000 		sts (Timebase_type+25)+1,__zero_reg__
  76 0090 1092 0000 		sts (Timebase_type+25)+2,__zero_reg__
  77 0094 1092 0000 		sts (Timebase_type+25)+3,__zero_reg__
  78               	.LM16:
  79 0098 1092 0000 		sts Timebase_type+29,__zero_reg__
  80               	.LM17:
  81 009c 1092 0000 		sts Timebase_type+30,__zero_reg__
  82               	.LM18:
  83 00a0 1092 0000 		sts Timebase_type+31,__zero_reg__
  84               	.LBB572:
  85               	.LM19:
  86 00a4 1092 0000 		sts Timebase_type+57,__zero_reg__
  87               	.LM20:
  88 00a8 1092 0000 		sts Timebase_type+58,__zero_reg__
  89 00ac 1092 0000 		sts (Timebase_type+58)+1,__zero_reg__
  90 00b0 1092 0000 		sts (Timebase_type+58)+2,__zero_reg__
  91 00b4 1092 0000 		sts (Timebase_type+58)+3,__zero_reg__
  92               	.LM21:
  93 00b8 1092 0000 		sts Timebase_type+62,__zero_reg__
  94 00bc 1092 0000 		sts (Timebase_type+62)+1,__zero_reg__
  95 00c0 1092 0000 		sts (Timebase_type+62)+2,__zero_reg__
  96 00c4 1092 0000 		sts (Timebase_type+62)+3,__zero_reg__
  97               	.LM22:
  98 00c8 1092 0000 		sts Timebase_type+66,__zero_reg__
  99 00cc 1092 0000 		sts (Timebase_type+66)+1,__zero_reg__
 100 00d0 1092 0000 		sts (Timebase_type+66)+2,__zero_reg__
 101 00d4 1092 0000 		sts (Timebase_type+66)+3,__zero_reg__
 102               	.LM23:
 103 00d8 1092 0000 		sts Timebase_type+70,__zero_reg__
 104 00dc 1092 0000 		sts (Timebase_type+70)+1,__zero_reg__
 105 00e0 1092 0000 		sts (Timebase_type+70)+2,__zero_reg__
 106 00e4 1092 0000 		sts (Timebase_type+70)+3,__zero_reg__
 107               	.LM24:
 108 00e8 1092 0000 		sts Timebase_type+74,__zero_reg__
 109 00ec 1092 0000 		sts (Timebase_type+74)+1,__zero_reg__
 110 00f0 1092 0000 		sts (Timebase_type+74)+2,__zero_reg__
 111 00f4 1092 0000 		sts (Timebase_type+74)+3,__zero_reg__
 112               	.LBE572:
 113               	.LBB573:
 114               	.LM25:
 115 00f8 1092 0000 		sts Timebase_type+32,__zero_reg__
 116               	.LM26:
 117 00fc 1092 0000 		sts Timebase_type+33,__zero_reg__
 118 0100 1092 0000 		sts (Timebase_type+33)+1,__zero_reg__
 119 0104 1092 0000 		sts (Timebase_type+33)+2,__zero_reg__
 120 0108 1092 0000 		sts (Timebase_type+33)+3,__zero_reg__
 121               	.LM27:
 122 010c 1092 0000 		sts Timebase_type+37,__zero_reg__
 123 0110 1092 0000 		sts (Timebase_type+37)+1,__zero_reg__
 124 0114 1092 0000 		sts (Timebase_type+37)+2,__zero_reg__
 125 0118 1092 0000 		sts (Timebase_type+37)+3,__zero_reg__
 126               	.LM28:
 127 011c 1092 0000 		sts Timebase_type+41,__zero_reg__
 128 0120 1092 0000 		sts (Timebase_type+41)+1,__zero_reg__
 129 0124 1092 0000 		sts (Timebase_type+41)+2,__zero_reg__
 130 0128 1092 0000 		sts (Timebase_type+41)+3,__zero_reg__
 131               	.LM29:
 132 012c 1092 0000 		sts Timebase_type+45,__zero_reg__
 133 0130 1092 0000 		sts (Timebase_type+45)+1,__zero_reg__
 134 0134 1092 0000 		sts (Timebase_type+45)+2,__zero_reg__
 135 0138 1092 0000 		sts (Timebase_type+45)+3,__zero_reg__
 136               	.LM30:
 137 013c 1092 0000 		sts Timebase_type+49,__zero_reg__
 138 0140 1092 0000 		sts (Timebase_type+49)+1,__zero_reg__
 139 0144 1092 0000 		sts (Timebase_type+49)+2,__zero_reg__
 140 0148 1092 0000 		sts (Timebase_type+49)+3,__zero_reg__
 141               	.LM31:
 142 014c 1092 0000 		sts Timebase_type+53,__zero_reg__
 143 0150 1092 0000 		sts (Timebase_type+53)+1,__zero_reg__
 144 0154 1092 0000 		sts (Timebase_type+53)+2,__zero_reg__
 145 0158 1092 0000 		sts (Timebase_type+53)+3,__zero_reg__
 146               	.LBE573:
 147               	.LBB574:
 148               	.LM32:
 149 015c 1092 0000 		sts Timebase_type+95,__zero_reg__
 150               	.LM33:
 151 0160 1092 0000 		sts Timebase_type+96,__zero_reg__
 152 0164 1092 0000 		sts (Timebase_type+96)+1,__zero_reg__
 153 0168 1092 0000 		sts (Timebase_type+96)+2,__zero_reg__
 154 016c 1092 0000 		sts (Timebase_type+96)+3,__zero_reg__
 155               	.LM34:
 156 0170 1092 0000 		sts Timebase_type+100,__zero_reg__
 157 0174 1092 0000 		sts (Timebase_type+100)+1,__zero_reg__
 158 0178 1092 0000 		sts (Timebase_type+100)+2,__zero_reg__
 159 017c 1092 0000 		sts (Timebase_type+100)+3,__zero_reg__
 160               	.LM35:
 161 0180 1092 0000 		sts Timebase_type+104,__zero_reg__
 162 0184 1092 0000 		sts (Timebase_type+104)+1,__zero_reg__
 163 0188 1092 0000 		sts (Timebase_type+104)+2,__zero_reg__
 164 018c 1092 0000 		sts (Timebase_type+104)+3,__zero_reg__
 165               	.LBE574:
 166               	.LBB575:
 167               	.LM36:
 168 0190 1092 0000 		sts Timebase_type+78,__zero_reg__
 169               	.LM37:
 170 0194 1092 0000 		sts Timebase_type+79,__zero_reg__
 171 0198 1092 0000 		sts (Timebase_type+79)+1,__zero_reg__
 172 019c 1092 0000 		sts (Timebase_type+79)+2,__zero_reg__
 173 01a0 1092 0000 		sts (Timebase_type+79)+3,__zero_reg__
 174               	.LM38:
 175 01a4 1092 0000 		sts Timebase_type+83,__zero_reg__
 176 01a8 1092 0000 		sts (Timebase_type+83)+1,__zero_reg__
 177 01ac 1092 0000 		sts (Timebase_type+83)+2,__zero_reg__
 178 01b0 1092 0000 		sts (Timebase_type+83)+3,__zero_reg__
 179               	.LM39:
 180 01b4 1092 0000 		sts Timebase_type+87,__zero_reg__
 181 01b8 1092 0000 		sts (Timebase_type+87)+1,__zero_reg__
 182 01bc 1092 0000 		sts (Timebase_type+87)+2,__zero_reg__
 183 01c0 1092 0000 		sts (Timebase_type+87)+3,__zero_reg__
 184               	.LM40:
 185 01c4 1092 0000 		sts Timebase_type+91,__zero_reg__
 186 01c8 1092 0000 		sts (Timebase_type+91)+1,__zero_reg__
 187 01cc 1092 0000 		sts (Timebase_type+91)+2,__zero_reg__
 188 01d0 1092 0000 		sts (Timebase_type+91)+3,__zero_reg__
 189               	/* epilogue start */
 190               	.LBE575:
 191               	.LM41:
 192 01d4 0895      		ret
 193               	.LFE6:
 195               	.global	Timebase_Timer_Config
 197               	Timebase_Timer_Config:
 198               	.LFB7:
 199               	.LM42:
 200               	.LVL0:
 201 01d6 7F92      		push r7
 202 01d8 8F92      		push r8
 203 01da 9F92      		push r9
 204 01dc AF92      		push r10
 205 01de BF92      		push r11
 206 01e0 CF92      		push r12
 207 01e2 DF92      		push r13
 208 01e4 EF92      		push r14
 209 01e6 FF92      		push r15
 210 01e8 0F93      		push r16
 211 01ea 1F93      		push r17
 212 01ec DF93      		push r29
 213 01ee CF93      		push r28
 214 01f0 CDB7      		in r28,__SP_L__
 215 01f2 DEB7      		in r29,__SP_H__
 216 01f4 2A97      		sbiw r28,10
 217 01f6 0FB6      		in __tmp_reg__,__SREG__
 218 01f8 F894      		cli
 219 01fa DEBF      		out __SP_H__,r29
 220 01fc 0FBE      		out __SREG__,__tmp_reg__
 221 01fe CDBF      		out __SP_L__,r28
 222               	/* prologue: function */
 223               	/* frame size = 10 */
 224 0200 8C01      		movw r16,r24
 225               	.LM43:
 226 0202 C090 0000 		lds r12,Timebase
 227 0206 D090 0000 		lds r13,(Timebase)+1
 228 020a F601      		movw r30,r12
 229 020c 8081      		ld r24,Z
 230               	.LVL1:
 231 020e 80FF      		sbrs r24,0
 232 0210 00C0      		rjmp .L4
 233               	.LBB576:
 234               	.LM44:
 235 0212 0130      		cpi r16,1
 236 0214 1105      		cpc r17,__zero_reg__
 237 0216 01F4      		brne .L5
 238 0218 96E0      		ldi r25,lo8(6)
 239               	.LVL2:
 240 021a 00C0      		rjmp .L6
 241               	.LVL3:
 242               	.L5:
 243               	.LM45:
 244 021c 0230      		cpi r16,2
 245 021e 1105      		cpc r17,__zero_reg__
 246 0220 01F4      		brne .L7
 247 0222 95E0      		ldi r25,lo8(5)
 248               	.LVL4:
 249 0224 00C0      		rjmp .L6
 250               	.LVL5:
 251               	.L7:
 252               	.LM46:
 253 0226 0430      		cpi r16,4
 254 0228 1105      		cpc r17,__zero_reg__
 255 022a 01F4      		brne .L8
 256 022c 94E0      		ldi r25,lo8(4)
 257               	.LVL6:
 258 022e 00C0      		rjmp .L6
 259               	.LVL7:
 260               	.L8:
 261               	.LM47:
 262 0230 0830      		cpi r16,8
 263 0232 1105      		cpc r17,__zero_reg__
 264 0234 01F4      		brne .L9
 265 0236 93E0      		ldi r25,lo8(3)
 266               	.LVL8:
 267 0238 00C0      		rjmp .L6
 268               	.LVL9:
 269               	.L9:
 270               	.LM48:
 271 023a 0031      		cpi r16,16
 272 023c 1105      		cpc r17,__zero_reg__
 273 023e 01F4      		brne .L10
 274 0240 92E0      		ldi r25,lo8(2)
 275               	.LVL10:
 276 0242 00C0      		rjmp .L6
 277               	.LVL11:
 278               	.L10:
 279 0244 90E0      		ldi r25,lo8(0)
 280               	.LVL12:
 281 0246 0032      		cpi r16,32
 282 0248 1105      		cpc r17,__zero_reg__
 283 024a 01F4      		brne .L6
 284 024c 91E0      		ldi r25,lo8(1)
 285               	.L6:
 286               	.LM49:
 287               	/* #APP */
 288               	 ;  273 "timebase.c" 1
 289 024e F894      		cli
 290               	 ;  0 "" 2
 291               	.LM50:
 292               	/* #NOAPP */
 293 0250 84B7      		in r24,84-32
 294 0252 877F      		andi r24,lo8(-9)
 295 0254 84BF      		out 84-32,r24
 296               	.LM51:
 297 0256 8091 6000 		lds r24,96
 298 025a 8068      		ori r24,lo8(-128)
 299 025c 8093 6000 		sts 96,r24
 300               	.LM52:
 301 0260 8091 6000 		lds r24,96
 302 0264 8861      		ori r24,lo8(24)
 303 0266 8093 6000 		sts 96,r24
 304               	.LM53:
 305 026a 9064      		ori r25,lo8(64)
 306 026c 9093 6000 		sts 96,r25
 307               	.LM54:
 308               	/* #APP */
 309               	 ;  278 "timebase.c" 1
 310 0270 7894      		sei
 311               	 ;  0 "" 2
 312               	/* #NOAPP */
 313 0272 00C0      		rjmp .L12
 314               	.LVL13:
 315               	.L4:
 316               	.LBE576:
 317               	.LM55:
 318 0274 81FD      		sbrc r24,1
 319 0276 00C0      		rjmp .L12
 320               	.LM56:
 321 0278 82FF      		sbrs r24,2
 322 027a 00C0      		rjmp .L12
 323               	.LBB577:
 324               	.LM57:
 325 027c DE01      		movw r26,r28
 326 027e 1196      		adiw r26,1
 327 0280 E0E0      		ldi r30,lo8(C.2.1703)
 328 0282 F0E0      		ldi r31,hi8(C.2.1703)
 329 0284 8AE0      		ldi r24,lo8(10)
 330               	.L13:
 331 0286 0190      		ld r0,Z+
 332 0288 0D92      		st X+,r0
 333 028a 8150      		subi r24,lo8(-(-1))
 334 028c 01F4      		brne .L13
 335               	.LM58:
 336 028e 9801      		movw r18,r16
 337 0290 40E0      		ldi r20,lo8(0)
 338 0292 50E0      		ldi r21,hi8(0)
 339               	.LVL14:
 340 0294 60E0      		ldi r22,lo8(12000000)
 341 0296 7BE1      		ldi r23,hi8(12000000)
 342 0298 87EB      		ldi r24,hlo8(12000000)
 343 029a 90E0      		ldi r25,hhi8(12000000)
 344 029c 0E94 0000 		call __divmodsi4
 345 02a0 722E      		mov r7,r18
 346 02a2 832E      		mov r8,r19
 347 02a4 942E      		mov r9,r20
 348               	.LVL15:
 349 02a6 E52E      		mov r14,r21
 350 02a8 5E01      		movw r10,r28
 351 02aa 0894      		sec
 352 02ac A11C      		adc r10,__zero_reg__
 353 02ae B11C      		adc r11,__zero_reg__
 354 02b0 C901      		movw r24,r18
 355 02b2 DA01      		movw r26,r20
 356 02b4 9C01      		movw r18,r24
 357 02b6 AD01      		movw r20,r26
 358               	.LVL16:
 359 02b8 FF24      		clr r15
 360               	.LVL17:
 361 02ba 00C0      		rjmp .L14
 362               	.LVL18:
 363               	.L16:
 364               	.LM59:
 365 02bc F501      		movw r30,r10
 366 02be 2191      		ld r18,Z+
 367 02c0 3191      		ld r19,Z+
 368               	.LVL19:
 369 02c2 5F01      		movw r10,r30
 370 02c4 40E0      		ldi r20,lo8(0)
 371 02c6 50E0      		ldi r21,hi8(0)
 372 02c8 672D      		mov r22,r7
 373 02ca 782D      		mov r23,r8
 374 02cc 892D      		mov r24,r9
 375               	.LVL20:
 376 02ce 9E2D      		mov r25,r14
 377 02d0 0E94 0000 		call __divmodsi4
 378 02d4 C901      		movw r24,r18
 379 02d6 DA01      		movw r26,r20
 380 02d8 9C01      		movw r18,r24
 381 02da AD01      		movw r20,r26
 382               	.LVL21:
 383               	.LM60:
 384 02dc F394      		inc r15
 385               	.LM61:
 386 02de F5E0      		ldi r31,lo8(5)
 387 02e0 FF16      		cp r15,r31
 388 02e2 01F0      		breq .L15
 389               	.LVL22:
 390               	.L14:
 391               	.LM62:
 392 02e4 2F3F      		cpi r18,lo8(255)
 393 02e6 3105      		cpc r19,__zero_reg__
 394 02e8 4105      		cpc r20,__zero_reg__
 395 02ea 5105      		cpc r21,__zero_reg__
 396 02ec 01F0      		breq .+2
 397 02ee 04F4      		brge .L16
 398               	.L15:
 399               	.LM63:
 400 02f0 8F2D      		mov r24,r15
 401 02f2 8150      		subi r24,lo8(-(-1))
 402               	.LVL23:
 403               	.LM64:
 404 02f4 14BC      		out 68-32,__zero_reg__
 405               	.LM65:
 406 02f6 15BC      		out 69-32,__zero_reg__
 407               	.LM66:
 408 02f8 1092 6E00 		sts 110,__zero_reg__
 409               	.LM67:
 410 02fc 15BA      		out 53-32,__zero_reg__
 411               	.LM68:
 412 02fe 17BC      		out 71-32,__zero_reg__
 413               	.LM69:
 414 0300 18BC      		out 72-32,__zero_reg__
 415               	.LM70:
 416 0302 16BC      		out 70-32,__zero_reg__
 417               	.LM71:
 418 0304 17BC      		out 71-32,__zero_reg__
 419               	.LM72:
 420 0306 8823      		tst r24
 421 0308 01F4      		brne .L17
 422               	.LM73:
 423 030a 81E0      		ldi r24,lo8(1)
 424               	.LVL24:
 425 030c 00C0      		rjmp .L24
 426               	.LVL25:
 427               	.L17:
 428               	.LM74:
 429 030e 8130      		cpi r24,lo8(1)
 430 0310 01F4      		brne .L19
 431               	.LM75:
 432 0312 82E0      		ldi r24,lo8(2)
 433               	.LVL26:
 434 0314 00C0      		rjmp .L24
 435               	.LVL27:
 436               	.L19:
 437               	.LM76:
 438 0316 8230      		cpi r24,lo8(2)
 439 0318 01F4      		brne .L20
 440               	.LM77:
 441 031a 83E0      		ldi r24,lo8(3)
 442               	.LVL28:
 443 031c 00C0      		rjmp .L24
 444               	.LVL29:
 445               	.L20:
 446               	.LM78:
 447 031e 8330      		cpi r24,lo8(3)
 448 0320 01F4      		brne .L21
 449               	.LM79:
 450 0322 84E0      		ldi r24,lo8(4)
 451               	.LVL30:
 452 0324 00C0      		rjmp .L24
 453               	.LVL31:
 454               	.L21:
 455               	.LM80:
 456 0326 8430      		cpi r24,lo8(4)
 457 0328 01F4      		brne .L18
 458               	.LM81:
 459 032a 85E0      		ldi r24,lo8(5)
 460               	.LVL32:
 461               	.L24:
 462 032c 85BD      		out 69-32,r24
 463               	.LVL33:
 464               	.L18:
 465               	.LM82:
 466 032e 822F      		mov r24,r18
 467               	.LVL34:
 468 0330 8095      		com r24
 469 0332 F601      		movw r30,r12
 470 0334 8383      		std Z+3,r24
 471               	.LM83:
 472 0336 8381      		ldd r24,Z+3
 473 0338 86BD      		out 70-32,r24
 474               	.LM84:
 475 033a 81E0      		ldi r24,lo8(1)
 476 033c 8093 6E00 		sts 110,r24
 477               	.LM85:
 478               	/* #APP */
 479               	 ;  326 "timebase.c" 1
 480 0340 7894      		sei
 481               	 ;  0 "" 2
 482               	.LVL35:
 483               	/* #NOAPP */
 484               	.L12:
 485               	.LBE577:
 486               	.LM86:
 487 0342 F601      		movw r30,r12
 488 0344 1283      		std Z+2,r17
 489 0346 0183      		std Z+1,r16
 490               	/* epilogue start */
 491               	.LM87:
 492 0348 2A96      		adiw r28,10
 493 034a 0FB6      		in __tmp_reg__,__SREG__
 494 034c F894      		cli
 495 034e DEBF      		out __SP_H__,r29
 496 0350 0FBE      		out __SREG__,__tmp_reg__
 497 0352 CDBF      		out __SP_L__,r28
 498 0354 CF91      		pop r28
 499 0356 DF91      		pop r29
 500 0358 1F91      		pop r17
 501 035a 0F91      		pop r16
 502               	.LVL36:
 503 035c FF90      		pop r15
 504 035e EF90      		pop r14
 505 0360 DF90      		pop r13
 506 0362 CF90      		pop r12
 507 0364 BF90      		pop r11
 508 0366 AF90      		pop r10
 509 0368 9F90      		pop r9
 510 036a 8F90      		pop r8
 511 036c 7F90      		pop r7
 512 036e 0895      		ret
 513               	.LFE7:
 515               	.global	Timebase_Atomic_Operation_Start
 517               	Timebase_Atomic_Operation_Start:
 518               	.LFB8:
 519               	.LM88:
 520               	/* prologue: function */
 521               	/* frame size = 0 */
 522               	.LM89:
 523               	/* #APP */
 524               	 ;  346 "timebase.c" 1
 525 0370 F894      		cli
 526               	 ;  0 "" 2
 527               	/* epilogue start */
 528               	.LM90:
 529               	/* #NOAPP */
 530 0372 0895      		ret
 531               	.LFE8:
 533               	.global	Timebase_Atomic_Operation_End
 535               	Timebase_Atomic_Operation_End:
 536               	.LFB9:
 537               	.LM91:
 538               	/* prologue: function */
 539               	/* frame size = 0 */
 540               	.LM92:
 541               	/* #APP */
 542               	 ;  350 "timebase.c" 1
 543 0374 7894      		sei
 544               	 ;  0 "" 2
 545               	/* epilogue start */
 546               	.LM93:
 547               	/* #NOAPP */
 548 0376 0895      		ret
 549               	.LFE9:
 551               	.global	Timebase_Token_Executing
 553               	Timebase_Token_Executing:
 554               	.LFB10:
 555               	.LM94:
 556               	/* prologue: function */
 557               	/* frame size = 0 */
 558               	.LM95:
 559 0378 E091 0000 		lds r30,Timebase
 560 037c F091 0000 		lds r31,(Timebase)+1
 561 0380 878D      		ldd r24,Z+31
 562               	/* epilogue start */
 563               	.LM96:
 564 0382 0895      		ret
 565               	.LFE10:
 567               	.global	Timebase_Token_Add
 569               	Timebase_Token_Add:
 570               	.LFB11:
 571               	.LM97:
 572               	/* prologue: function */
 573               	/* frame size = 0 */
 574               	.LBB578:
 575               	.LBB579:
 576               	.LM98:
 577 0384 E091 0000 		lds r30,Timebase
 578 0388 F091 0000 		lds r31,(Timebase)+1
 579 038c 878D      		ldd r24,Z+31
 580               	.LBE579:
 581               	.LBE578:
 582               	.LM99:
 583 038e 8F33      		cpi r24,lo8(63)
 584 0390 00F4      		brsh .L33
 585               	.LM100:
 586 0392 878D      		ldd r24,Z+31
 587 0394 8F5F      		subi r24,lo8(-(1))
 588 0396 878F      		std Z+31,r24
 589               	.L33:
 590 0398 0895      		ret
 591               	.LFE11:
 593               	.global	Timebase_Token_Remove
 595               	Timebase_Token_Remove:
 596               	.LFB12:
 597               	.LM101:
 598               	/* prologue: function */
 599               	/* frame size = 0 */
 600               	.LBB580:
 601               	.LBB581:
 602               	.LM102:
 603 039a E091 0000 		lds r30,Timebase
 604 039e F091 0000 		lds r31,(Timebase)+1
 605 03a2 878D      		ldd r24,Z+31
 606               	.LBE581:
 607               	.LBE580:
 608               	.LM103:
 609 03a4 8823      		tst r24
 610 03a6 01F0      		breq .L36
 611               	.LM104:
 612 03a8 878D      		ldd r24,Z+31
 613 03aa 8150      		subi r24,lo8(-(-1))
 614 03ac 878F      		std Z+31,r24
 615               	.L36:
 616 03ae 0895      		ret
 617               	.LFE12:
 619               	.global	Timebase_Token_Remove_All
 621               	Timebase_Token_Remove_All:
 622               	.LFB13:
 623               	.LM105:
 624               	/* prologue: function */
 625               	/* frame size = 0 */
 626               	.LM106:
 627 03b0 E091 0000 		lds r30,Timebase
 628 03b4 F091 0000 		lds r31,(Timebase)+1
 629 03b8 178E      		std Z+31,__zero_reg__
 630               	/* epilogue start */
 631               	.LM107:
 632 03ba 0895      		ret
 633               	.LFE13:
 635               	.global	Timebase_Timer_Get_SubSecondsShadow
 637               	Timebase_Timer_Get_SubSecondsShadow:
 638               	.LFB14:
 639               	.LM108:
 640               	/* prologue: function */
 641               	/* frame size = 0 */
 642               	.LM109:
 643 03bc E091 0000 		lds r30,Timebase
 644 03c0 F091 0000 		lds r31,(Timebase)+1
 645 03c4 2685      		ldd r18,Z+14
 646 03c6 3785      		ldd r19,Z+15
 647               	.LM110:
 648 03c8 C901      		movw r24,r18
 649               	/* epilogue start */
 650 03ca 0895      		ret
 651               	.LFE14:
 653               	.global	Timebase_Timer_Get_SecondsShadow
 655               	Timebase_Timer_Get_SecondsShadow:
 656               	.LFB15:
 657               	.LM111:
 658               	/* prologue: function */
 659               	/* frame size = 0 */
 660               	.LM112:
 661 03cc E091 0000 		lds r30,Timebase
 662 03d0 F091 0000 		lds r31,(Timebase)+1
 663 03d4 2089      		ldd r18,Z+16
 664 03d6 3189      		ldd r19,Z+17
 665 03d8 4289      		ldd r20,Z+18
 666 03da 5389      		ldd r21,Z+19
 667               	.LM113:
 668 03dc B901      		movw r22,r18
 669 03de CA01      		movw r24,r20
 670               	/* epilogue start */
 671 03e0 0895      		ret
 672               	.LFE15:
 674               	.global	Timebase_Timer_Get_SubSeconds
 676               	Timebase_Timer_Get_SubSeconds:
 677               	.LFB16:
 678               	.LM114:
 679               	/* prologue: function */
 680               	/* frame size = 0 */
 681               	.LM115:
 682 03e2 E091 0000 		lds r30,Timebase
 683 03e6 F091 0000 		lds r31,(Timebase)+1
 684 03ea 2085      		ldd r18,Z+8
 685 03ec 3185      		ldd r19,Z+9
 686               	.LM116:
 687 03ee C901      		movw r24,r18
 688               	/* epilogue start */
 689 03f0 0895      		ret
 690               	.LFE16:
 692               	.global	Timebase_Timer_Get_Seconds
 694               	Timebase_Timer_Get_Seconds:
 695               	.LFB17:
 696               	.LM117:
 697               	/* prologue: function */
 698               	/* frame size = 0 */
 699               	.LM118:
 700 03f2 E091 0000 		lds r30,Timebase
 701 03f6 F091 0000 		lds r31,(Timebase)+1
 702 03fa 2285      		ldd r18,Z+10
 703 03fc 3385      		ldd r19,Z+11
 704 03fe 4485      		ldd r20,Z+12
 705 0400 5585      		ldd r21,Z+13
 706               	.LM119:
 707 0402 B901      		movw r22,r18
 708 0404 CA01      		movw r24,r20
 709               	/* epilogue start */
 710 0406 0895      		ret
 711               	.LFE17:
 713               	.global	Timebase_Timer_Set_SubSeconds
 715               	Timebase_Timer_Set_SubSeconds:
 716               	.LFB18:
 717               	.LM120:
 718               	.LVL37:
 719               	/* prologue: function */
 720               	/* frame size = 0 */
 721               	.LM121:
 722 0408 E091 0000 		lds r30,Timebase
 723 040c F091 0000 		lds r31,(Timebase)+1
 724 0410 9187      		std Z+9,r25
 725 0412 8087      		std Z+8,r24
 726               	/* epilogue start */
 727               	.LM122:
 728 0414 0895      		ret
 729               	.LFE18:
 731               	.global	Timebase_Timer_Set_Seconds
 733               	Timebase_Timer_Set_Seconds:
 734               	.LFB19:
 735               	.LM123:
 736               	.LVL38:
 737               	/* prologue: function */
 738               	/* frame size = 0 */
 739               	.LM124:
 740 0416 E091 0000 		lds r30,Timebase
 741 041a F091 0000 		lds r31,(Timebase)+1
 742 041e 6287      		std Z+10,r22
 743 0420 7387      		std Z+11,r23
 744 0422 8487      		std Z+12,r24
 745 0424 9587      		std Z+13,r25
 746               	/* epilogue start */
 747               	.LM125:
 748 0426 0895      		ret
 749               	.LFE19:
 751               	.global	Timebase_Timer_Sync_With_Shadow_Variables
 753               	Timebase_Timer_Sync_With_Shadow_Variables:
 754               	.LFB20:
 755               	.LM126:
 756               	/* prologue: function */
 757               	/* frame size = 0 */
 758               	.LM127:
 759 0428 E091 0000 		lds r30,Timebase
 760 042c F091 0000 		lds r31,(Timebase)+1
 761 0430 8489      		ldd r24,Z+20
 762 0432 8823      		tst r24
 763 0434 01F4      		brne .L53
 764               	.LBB582:
 765               	.LBB583:
 766               	.LM128:
 767               	/* #APP */
 768               	 ;  346 "timebase.c" 1
 769 0436 F894      		cli
 770               	 ;  0 "" 2
 771               	/* #NOAPP */
 772               	.LBE583:
 773               	.LBE582:
 774               	.LM129:
 775 0438 8685      		ldd r24,Z+14
 776 043a 9785      		ldd r25,Z+15
 777 043c 9187      		std Z+9,r25
 778 043e 8087      		std Z+8,r24
 779               	.LM130:
 780 0440 8089      		ldd r24,Z+16
 781 0442 9189      		ldd r25,Z+17
 782 0444 A289      		ldd r26,Z+18
 783 0446 B389      		ldd r27,Z+19
 784 0448 8287      		std Z+10,r24
 785 044a 9387      		std Z+11,r25
 786 044c A487      		std Z+12,r26
 787 044e B587      		std Z+13,r27
 788               	.LBB584:
 789               	.LBB585:
 790               	.LM131:
 791               	/* #APP */
 792               	 ;  350 "timebase.c" 1
 793 0450 7894      		sei
 794               	 ;  0 "" 2
 795               	/* #NOAPP */
 796               	.LBE585:
 797               	.LBE584:
 798               	.LM132:
 799 0452 81E0      		ldi r24,lo8(1)
 800 0454 848B      		std Z+20,r24
 801               	.L53:
 802 0456 0895      		ret
 803               	.LFE20:
 805               	.global	Timebase_Timer_Delay_SubSeconds
 807               	Timebase_Timer_Delay_SubSeconds:
 808               	.LFB21:
 809               	.LM133:
 810               	.LVL39:
 811 0458 6F92      		push r6
 812 045a 7F92      		push r7
 813 045c 8F92      		push r8
 814 045e 9F92      		push r9
 815 0460 AF92      		push r10
 816 0462 BF92      		push r11
 817 0464 CF92      		push r12
 818 0466 DF92      		push r13
 819 0468 EF92      		push r14
 820 046a FF92      		push r15
 821 046c 0F93      		push r16
 822 046e 1F93      		push r17
 823 0470 CF93      		push r28
 824 0472 DF93      		push r29
 825               	/* prologue: function */
 826               	/* frame size = 0 */
 827 0474 5C01      		movw r10,r24
 828               	.LBB586:
 829               	.LBB587:
 830               	.LM134:
 831               	/* #APP */
 832               	 ;  346 "timebase.c" 1
 833 0476 F894      		cli
 834               	 ;  0 "" 2
 835               	/* #NOAPP */
 836               	.LBE587:
 837               	.LBE586:
 838               	.LBB588:
 839               	.LBB589:
 840               	.LM135:
 841 0478 C091 0000 		lds r28,Timebase
 842 047c D091 0000 		lds r29,(Timebase)+1
 843 0480 EE84      		ldd r14,Y+14
 844 0482 FF84      		ldd r15,Y+15
 845               	.LBE589:
 846               	.LBE588:
 847               	.LBB590:
 848               	.LBB591:
 849               	.LM136:
 850 0484 2889      		ldd r18,Y+16
 851 0486 3989      		ldd r19,Y+17
 852 0488 4A89      		ldd r20,Y+18
 853 048a 5B89      		ldd r21,Y+19
 854               	.LVL40:
 855               	.LBE591:
 856               	.LBE590:
 857               	.LBB592:
 858               	.LBB593:
 859               	.LM137:
 860               	/* #APP */
 861               	 ;  350 "timebase.c" 1
 862 048c 7894      		sei
 863               	 ;  0 "" 2
 864               	/* #NOAPP */
 865               	.LBE593:
 866               	.LBE592:
 867               	.LM138:
 868 048e 6981      		ldd r22,Y+1
 869 0490 7A81      		ldd r23,Y+2
 870 0492 80E0      		ldi r24,lo8(0)
 871 0494 90E0      		ldi r25,hi8(0)
 872               	.LVL41:
 873 0496 0E94 0000 		call __mulsi3
 874               	.LVL42:
 875 049a 3B01      		movw r6,r22
 876 049c 4C01      		movw r8,r24
 877               	.LVL43:
 878               	.LM139:
 879 049e 00E0      		ldi r16,lo8(0)
 880 04a0 10E0      		ldi r17,hi8(0)
 881 04a2 6E0C      		add r6,r14
 882 04a4 7F1C      		adc r7,r15
 883 04a6 801E      		adc r8,r16
 884 04a8 911E      		adc r9,r17
 885               	.LM140:
 886 04aa CC24      		clr r12
 887 04ac DD24      		clr r13
 888               	.LVL44:
 889 04ae 6A0C      		add r6,r10
 890 04b0 7B1C      		adc r7,r11
 891 04b2 8C1C      		adc r8,r12
 892 04b4 9D1C      		adc r9,r13
 893 04b6 60E0      		ldi r22,lo8(0)
 894 04b8 70E0      		ldi r23,hi8(0)
 895 04ba 80E0      		ldi r24,hlo8(0)
 896 04bc 90E0      		ldi r25,hhi8(0)
 897               	.LVL45:
 898 04be 00C0      		rjmp .L55
 899               	.L56:
 900               	.LBB594:
 901               	.LBB595:
 902               	.LM141:
 903               	/* #APP */
 904               	 ;  346 "timebase.c" 1
 905 04c0 F894      		cli
 906               	 ;  0 "" 2
 907               	/* #NOAPP */
 908               	.LBE595:
 909               	.LBE594:
 910               	.LBB596:
 911               	.LBB597:
 912               	.LM142:
 913 04c2 EE84      		ldd r14,Y+14
 914 04c4 FF84      		ldd r15,Y+15
 915               	.LBE597:
 916               	.LBE596:
 917               	.LBB598:
 918               	.LBB599:
 919               	.LM143:
 920 04c6 2889      		ldd r18,Y+16
 921 04c8 3989      		ldd r19,Y+17
 922 04ca 4A89      		ldd r20,Y+18
 923 04cc 5B89      		ldd r21,Y+19
 924               	.LVL46:
 925               	.LBE599:
 926               	.LBE598:
 927               	.LBB600:
 928               	.LBB601:
 929               	.LM144:
 930               	/* #APP */
 931               	 ;  350 "timebase.c" 1
 932 04ce 7894      		sei
 933               	 ;  0 "" 2
 934               	/* #NOAPP */
 935               	.LBE601:
 936               	.LBE600:
 937               	.LM145:
 938 04d0 6981      		ldd r22,Y+1
 939 04d2 7A81      		ldd r23,Y+2
 940               	.LVL47:
 941 04d4 80E0      		ldi r24,lo8(0)
 942 04d6 90E0      		ldi r25,hi8(0)
 943 04d8 0E94 0000 		call __mulsi3
 944               	.LVL48:
 945               	.LM146:
 946 04dc 00E0      		ldi r16,lo8(0)
 947 04de 10E0      		ldi r17,hi8(0)
 948 04e0 6E0D      		add r22,r14
 949 04e2 7F1D      		adc r23,r15
 950 04e4 801F      		adc r24,r16
 951 04e6 911F      		adc r25,r17
 952               	.LVL49:
 953               	.L55:
 954               	.LM147:
 955 04e8 6615      		cp r22,r6
 956 04ea 7705      		cpc r23,r7
 957 04ec 8805      		cpc r24,r8
 958 04ee 9905      		cpc r25,r9
 959 04f0 04F0      		brlt .L56
 960               	/* epilogue start */
 961               	.LM148:
 962 04f2 DF91      		pop r29
 963 04f4 CF91      		pop r28
 964 04f6 1F91      		pop r17
 965 04f8 0F91      		pop r16
 966 04fa FF90      		pop r15
 967 04fc EF90      		pop r14
 968 04fe DF90      		pop r13
 969 0500 CF90      		pop r12
 970               	.LVL50:
 971 0502 BF90      		pop r11
 972 0504 AF90      		pop r10
 973               	.LVL51:
 974 0506 9F90      		pop r9
 975 0508 8F90      		pop r8
 976 050a 7F90      		pop r7
 977 050c 6F90      		pop r6
 978               	.LVL52:
 979 050e 0895      		ret
 980               	.LFE21:
 982               	.global	Timebase_Timer_Await_SubSeconds
 984               	Timebase_Timer_Await_SubSeconds:
 985               	.LFB22:
 986               	.LM149:
 987               	.LVL53:
 988               	/* prologue: function */
 989               	/* frame size = 0 */
 990 0510 BC01      		movw r22,r24
 991               	.LBB602:
 992               	.LBB603:
 993               	.LM150:
 994               	/* #APP */
 995               	 ;  346 "timebase.c" 1
 996 0512 F894      		cli
 997               	 ;  0 "" 2
 998               	/* #NOAPP */
 999               	.LBE603:
 1000               	.LBE602:
 1001               	.LBB604:
 1002               	.LBB605:
 1003               	.LM151:
 1004 0514 E091 0000 		lds r30,Timebase
 1005 0518 F091 0000 		lds r31,(Timebase)+1
 1006 051c 00C0      		rjmp .L63
 1007               	.LVL54:
 1008               	.L60:
 1009               	.LBE605:
 1010               	.LBE604:
 1011               	.LBB606:
 1012               	.LBB607:
 1013               	.LM152:
 1014               	/* #APP */
 1015               	 ;  346 "timebase.c" 1
 1016 051e F894      		cli
 1017               	 ;  0 "" 2
 1018               	.LVL55:
 1019               	/* #NOAPP */
 1020               	.L63:
 1021               	.LBE607:
 1022               	.LBE606:
 1023               	.LBB608:
 1024               	.LBB609:
 1025               	.LM153:
 1026 0520 8685      		ldd r24,Z+14
 1027 0522 9785      		ldd r25,Z+15
 1028               	.LBE609:
 1029               	.LBE608:
 1030               	.LBB610:
 1031               	.LBB611:
 1032               	.LM154:
 1033               	/* #APP */
 1034               	 ;  350 "timebase.c" 1
 1035 0524 7894      		sei
 1036               	 ;  0 "" 2
 1037               	/* #NOAPP */
 1038               	.LBE611:
 1039               	.LBE610:
 1040               	.LM155:
 1041 0526 2481      		ldd r18,Z+4
 1042 0528 3581      		ldd r19,Z+5
 1043 052a 4681      		ldd r20,Z+6
 1044 052c 5781      		ldd r21,Z+7
 1045 052e A0E0      		ldi r26,lo8(0)
 1046 0530 B0E0      		ldi r27,hi8(0)
 1047 0532 8217      		cp r24,r18
 1048 0534 9307      		cpc r25,r19
 1049 0536 A407      		cpc r26,r20
 1050 0538 B507      		cpc r27,r21
 1051 053a 01F4      		brne .L60
 1052               	.LBB612:
 1053               	.LBB613:
 1054               	.LM156:
 1055               	/* #APP */
 1056               	 ;  346 "timebase.c" 1
 1057 053c F894      		cli
 1058               	 ;  0 "" 2
 1059               	/* #NOAPP */
 1060               	.LBE613:
 1061               	.LBE612:
 1062               	.LBB614:
 1063               	.LBB615:
 1064               	.LM157:
 1065 053e 8685      		ldd r24,Z+14
 1066 0540 9785      		ldd r25,Z+15
 1067               	.LVL56:
 1068               	.LBE615:
 1069               	.LBE614:
 1070               	.LBB616:
 1071               	.LBB617:
 1072               	.LM158:
 1073               	/* #APP */
 1074               	 ;  350 "timebase.c" 1
 1075 0542 7894      		sei
 1076               	 ;  0 "" 2
 1077               	/* #NOAPP */
 1078               	.LBE617:
 1079               	.LBE616:
 1080               	.LM159:
 1081 0544 A0E0      		ldi r26,lo8(0)
 1082 0546 B0E0      		ldi r27,hi8(0)
 1083               	.LVL57:
 1084 0548 8483      		std Z+4,r24
 1085 054a 9583      		std Z+5,r25
 1086 054c A683      		std Z+6,r26
 1087 054e B783      		std Z+7,r27
 1088               	.LVL58:
 1089               	.LM160:
 1090 0550 2481      		ldd r18,Z+4
 1091 0552 3581      		ldd r19,Z+5
 1092 0554 4681      		ldd r20,Z+6
 1093 0556 5781      		ldd r21,Z+7
 1094 0558 CB01      		movw r24,r22
 1095 055a A0E0      		ldi r26,lo8(0)
 1096 055c B0E0      		ldi r27,hi8(0)
 1097               	.LVL59:
 1098 055e 820F      		add r24,r18
 1099 0560 931F      		adc r25,r19
 1100 0562 A41F      		adc r26,r20
 1101 0564 B51F      		adc r27,r21
 1102               	.LVL60:
 1103 0566 8483      		std Z+4,r24
 1104 0568 9583      		std Z+5,r25
 1105 056a A683      		std Z+6,r26
 1106 056c B783      		std Z+7,r27
 1107               	.LM161:
 1108 056e 2481      		ldd r18,Z+4
 1109 0570 3581      		ldd r19,Z+5
 1110 0572 4681      		ldd r20,Z+6
 1111 0574 5781      		ldd r21,Z+7
 1112 0576 8181      		ldd r24,Z+1
 1113 0578 9281      		ldd r25,Z+2
 1114               	.LVL61:
 1115 057a A0E0      		ldi r26,lo8(0)
 1116 057c B0E0      		ldi r27,hi8(0)
 1117               	.LVL62:
 1118 057e 2817      		cp r18,r24
 1119 0580 3907      		cpc r19,r25
 1120 0582 4A07      		cpc r20,r26
 1121 0584 5B07      		cpc r21,r27
 1122 0586 04F0      		brlt .L62
 1123               	.LM162:
 1124 0588 2481      		ldd r18,Z+4
 1125 058a 3581      		ldd r19,Z+5
 1126 058c 4681      		ldd r20,Z+6
 1127 058e 5781      		ldd r21,Z+7
 1128 0590 8181      		ldd r24,Z+1
 1129 0592 9281      		ldd r25,Z+2
 1130 0594 A0E0      		ldi r26,lo8(0)
 1131 0596 B0E0      		ldi r27,hi8(0)
 1132 0598 281B      		sub r18,r24
 1133 059a 390B      		sbc r19,r25
 1134 059c 4A0B      		sbc r20,r26
 1135 059e 5B0B      		sbc r21,r27
 1136 05a0 2483      		std Z+4,r18
 1137 05a2 3583      		std Z+5,r19
 1138 05a4 4683      		std Z+6,r20
 1139 05a6 5783      		std Z+7,r21
 1140               	.L62:
 1141 05a8 0895      		ret
 1142               	.LFE22:
 1144               	.global	Timebase_Timer_Delay_Seconds
 1146               	Timebase_Timer_Delay_Seconds:
 1147               	.LFB23:
 1148               	.LM163:
 1149               	.LVL63:
 1150               	/* prologue: function */
 1151               	/* frame size = 0 */
 1152               	.LBB618:
 1153               	.LBB619:
 1154               	.LM164:
 1155               	/* #APP */
 1156               	 ;  346 "timebase.c" 1
 1157 05aa F894      		cli
 1158               	 ;  0 "" 2
 1159               	/* #NOAPP */
 1160               	.LBE619:
 1161               	.LBE618:
 1162               	.LBB620:
 1163               	.LBB621:
 1164               	.LM165:
 1165 05ac E091 0000 		lds r30,Timebase
 1166 05b0 F091 0000 		lds r31,(Timebase)+1
 1167 05b4 2089      		ldd r18,Z+16
 1168 05b6 3189      		ldd r19,Z+17
 1169 05b8 4289      		ldd r20,Z+18
 1170 05ba 5389      		ldd r21,Z+19
 1171               	.LVL64:
 1172               	.LBE621:
 1173               	.LBE620:
 1174               	.LBB622:
 1175               	.LBB623:
 1176               	.LM166:
 1177               	/* #APP */
 1178               	 ;  350 "timebase.c" 1
 1179 05bc 7894      		sei
 1180               	 ;  0 "" 2
 1181               	/* #NOAPP */
 1182               	.LBE623:
 1183               	.LBE622:
 1184               	.LM167:
 1185 05be A0E0      		ldi r26,lo8(0)
 1186 05c0 B0E0      		ldi r27,hi8(0)
 1187               	.LVL65:
 1188 05c2 820F      		add r24,r18
 1189 05c4 931F      		adc r25,r19
 1190 05c6 A41F      		adc r26,r20
 1191 05c8 B51F      		adc r27,r21
 1192               	.LVL66:
 1193 05ca 20E0      		ldi r18,lo8(0)
 1194 05cc 30E0      		ldi r19,hi8(0)
 1195 05ce 40E0      		ldi r20,hlo8(0)
 1196 05d0 50E0      		ldi r21,hhi8(0)
 1197               	.LVL67:
 1198 05d2 00C0      		rjmp .L65
 1199               	.L66:
 1200               	.LBB624:
 1201               	.LBB625:
 1202               	.LM168:
 1203               	/* #APP */
 1204               	 ;  346 "timebase.c" 1
 1205 05d4 F894      		cli
 1206               	 ;  0 "" 2
 1207               	/* #NOAPP */
 1208               	.LBE625:
 1209               	.LBE624:
 1210               	.LBB626:
 1211               	.LBB627:
 1212               	.LM169:
 1213 05d6 2089      		ldd r18,Z+16
 1214 05d8 3189      		ldd r19,Z+17
 1215 05da 4289      		ldd r20,Z+18
 1216 05dc 5389      		ldd r21,Z+19
 1217               	.LBE627:
 1218               	.LBE626:
 1219               	.LBB628:
 1220               	.LBB629:
 1221               	.LM170:
 1222               	/* #APP */
 1223               	 ;  350 "timebase.c" 1
 1224 05de 7894      		sei
 1225               	 ;  0 "" 2
 1226               	/* #NOAPP */
 1227               	.L65:
 1228               	.LBE629:
 1229               	.LBE628:
 1230               	.LM171:
 1231 05e0 2817      		cp r18,r24
 1232 05e2 3907      		cpc r19,r25
 1233 05e4 4A07      		cpc r20,r26
 1234 05e6 5B07      		cpc r21,r27
 1235 05e8 04F0      		brlt .L66
 1236               	/* epilogue start */
 1237               	.LM172:
 1238 05ea 0895      		ret
 1239               	.LFE23:
 1241               	.global	Timebase_Window_Timer_Reset
 1243               	Timebase_Window_Timer_Reset:
 1244               	.LFB24:
 1245               	.LM173:
 1246               	/* prologue: function */
 1247               	/* frame size = 0 */
 1248               	.LM174:
 1249 05ec E091 0000 		lds r30,Timebase
 1250 05f0 F091 0000 		lds r31,(Timebase)+1
 1251 05f4 158A      		std Z+21,__zero_reg__
 1252 05f6 168A      		std Z+22,__zero_reg__
 1253 05f8 178A      		std Z+23,__zero_reg__
 1254 05fa 108E      		std Z+24,__zero_reg__
 1255               	.LM175:
 1256 05fc 118E      		std Z+25,__zero_reg__
 1257 05fe 128E      		std Z+26,__zero_reg__
 1258 0600 138E      		std Z+27,__zero_reg__
 1259 0602 148E      		std Z+28,__zero_reg__
 1260               	.LM176:
 1261 0604 158E      		std Z+29,__zero_reg__
 1262               	/* epilogue start */
 1263               	.LM177:
 1264 0606 0895      		ret
 1265               	.LFE24:
 1267               	.global	Timebase_Window_Timer_Start
 1269               	Timebase_Window_Timer_Start:
 1270               	.LFB25:
 1271               	.LM178:
 1272               	/* prologue: function */
 1273               	/* frame size = 0 */
 1274               	.LM179:
 1275 0608 E091 0000 		lds r30,Timebase
 1276 060c F091 0000 		lds r31,(Timebase)+1
 1277 0610 858D      		ldd r24,Z+29
 1278 0612 8823      		tst r24
 1279 0614 01F4      		brne .L72
 1280               	.LBB630:
 1281               	.LBB631:
 1282               	.LM180:
 1283               	/* #APP */
 1284               	 ;  346 "timebase.c" 1
 1285 0616 F894      		cli
 1286               	 ;  0 "" 2
 1287               	/* #NOAPP */
 1288               	.LBE631:
 1289               	.LBE630:
 1290               	.LBB632:
 1291               	.LBB633:
 1292               	.LM181:
 1293 0618 8089      		ldd r24,Z+16
 1294 061a 9189      		ldd r25,Z+17
 1295 061c A289      		ldd r26,Z+18
 1296 061e B389      		ldd r27,Z+19
 1297               	.LBE633:
 1298               	.LBE632:
 1299               	.LM182:
 1300 0620 858B      		std Z+21,r24
 1301 0622 968B      		std Z+22,r25
 1302 0624 A78B      		std Z+23,r26
 1303 0626 B08F      		std Z+24,r27
 1304               	.LBB634:
 1305               	.LBB635:
 1306               	.LM183:
 1307 0628 8685      		ldd r24,Z+14
 1308 062a 9785      		ldd r25,Z+15
 1309               	.LBE635:
 1310               	.LBE634:
 1311               	.LM184:
 1312 062c A0E0      		ldi r26,lo8(0)
 1313 062e B0E0      		ldi r27,hi8(0)
 1314 0630 818F      		std Z+25,r24
 1315 0632 928F      		std Z+26,r25
 1316 0634 A38F      		std Z+27,r26
 1317 0636 B48F      		std Z+28,r27
 1318               	.LBB636:
 1319               	.LBB637:
 1320               	.LM185:
 1321               	/* #APP */
 1322               	 ;  350 "timebase.c" 1
 1323 0638 7894      		sei
 1324               	 ;  0 "" 2
 1325               	/* #NOAPP */
 1326               	.LBE637:
 1327               	.LBE636:
 1328               	.LM186:
 1329 063a 81E0      		ldi r24,lo8(1)
 1330 063c 858F      		std Z+29,r24
 1331               	.L72:
 1332 063e 0895      		ret
 1333               	.LFE25:
 1335               	.global	Timebase_Window_Timer_Get_Interval
 1337               	Timebase_Window_Timer_Get_Interval:
 1338               	.LFB26:
 1339               	.LM187:
 1340 0640 EF92      		push r14
 1341 0642 FF92      		push r15
 1342 0644 0F93      		push r16
 1343 0646 1F93      		push r17
 1344 0648 CF93      		push r28
 1345 064a DF93      		push r29
 1346               	/* prologue: function */
 1347               	/* frame size = 0 */
 1348               	.LM188:
 1349 064c C091 0000 		lds r28,Timebase
 1350 0650 D091 0000 		lds r29,(Timebase)+1
 1351 0654 8D8D      		ldd r24,Y+29
 1352 0656 8130      		cpi r24,lo8(1)
 1353 0658 01F0      		breq .L74
 1354 065a EE24      		clr r14
 1355 065c FF24      		clr r15
 1356 065e 8701      		movw r16,r14
 1357               	.LVL68:
 1358 0660 00C0      		rjmp .L75
 1359               	.LVL69:
 1360               	.L74:
 1361               	.LBB638:
 1362               	.LBB639:
 1363               	.LM189:
 1364               	/* #APP */
 1365               	 ;  346 "timebase.c" 1
 1366 0662 F894      		cli
 1367               	 ;  0 "" 2
 1368               	/* #NOAPP */
 1369               	.LBE639:
 1370               	.LBE638:
 1371               	.LBB640:
 1372               	.LBB641:
 1373               	.LM190:
 1374 0664 2889      		ldd r18,Y+16
 1375 0666 3989      		ldd r19,Y+17
 1376 0668 4A89      		ldd r20,Y+18
 1377 066a 5B89      		ldd r21,Y+19
 1378               	.LVL70:
 1379               	.LBE641:
 1380               	.LBE640:
 1381               	.LBB642:
 1382               	.LBB643:
 1383               	.LM191:
 1384 066c 8E85      		ldd r24,Y+14
 1385 066e 9F85      		ldd r25,Y+15
 1386               	.LBE643:
 1387               	.LBE642:
 1388               	.LM192:
 1389 0670 7C01      		movw r14,r24
 1390               	.LVL71:
 1391 0672 00E0      		ldi r16,lo8(0)
 1392 0674 10E0      		ldi r17,hi8(0)
 1393               	.LVL72:
 1394               	.LBB644:
 1395               	.LBB645:
 1396               	.LM193:
 1397               	/* #APP */
 1398               	 ;  350 "timebase.c" 1
 1399 0676 7894      		sei
 1400               	 ;  0 "" 2
 1401               	/* #NOAPP */
 1402               	.LBE645:
 1403               	.LBE644:
 1404               	.LM194:
 1405 0678 8D89      		ldd r24,Y+21
 1406 067a 9E89      		ldd r25,Y+22
 1407 067c AF89      		ldd r26,Y+23
 1408 067e B88D      		ldd r27,Y+24
 1409 0680 281B      		sub r18,r24
 1410 0682 390B      		sbc r19,r25
 1411 0684 4A0B      		sbc r20,r26
 1412 0686 5B0B      		sbc r21,r27
 1413               	.LVL73:
 1414               	.LM195:
 1415 0688 6981      		ldd r22,Y+1
 1416 068a 7A81      		ldd r23,Y+2
 1417 068c 80E0      		ldi r24,lo8(0)
 1418 068e 90E0      		ldi r25,hi8(0)
 1419 0690 0E94 0000 		call __mulsi3
 1420               	.LVL74:
 1421               	.LM196:
 1422 0694 298D      		ldd r18,Y+25
 1423 0696 3A8D      		ldd r19,Y+26
 1424 0698 4B8D      		ldd r20,Y+27
 1425 069a 5C8D      		ldd r21,Y+28
 1426 069c E21A      		sub r14,r18
 1427 069e F30A      		sbc r15,r19
 1428 06a0 040B      		sbc r16,r20
 1429 06a2 150B      		sbc r17,r21
 1430               	.LVL75:
 1431 06a4 E60E      		add r14,r22
 1432 06a6 F71E      		adc r15,r23
 1433 06a8 081F      		adc r16,r24
 1434 06aa 191F      		adc r17,r25
 1435               	.L75:
 1436               	.LM197:
 1437 06ac B701      		movw r22,r14
 1438               	.LVL76:
 1439 06ae C801      		movw r24,r16
 1440               	.LVL77:
 1441               	/* epilogue start */
 1442 06b0 DF91      		pop r29
 1443 06b2 CF91      		pop r28
 1444 06b4 1F91      		pop r17
 1445 06b6 0F91      		pop r16
 1446 06b8 FF90      		pop r15
 1447 06ba EF90      		pop r14
 1448 06bc 0895      		ret
 1449               	.LFE26:
 1451               	.global	Timebase_Window_Timer_Get_Interval_Reset
 1453               	Timebase_Window_Timer_Get_Interval_Reset:
 1454               	.LFB27:
 1455               	.LM198:
 1456               	/* prologue: function */
 1457               	/* frame size = 0 */
 1458               	.LM199:
 1459 06be 0E94 0000 		call Timebase_Window_Timer_Get_Interval
 1460 06c2 282F      		mov r18,r24
 1461               	.LVL78:
 1462               	.LM200:
 1463 06c4 E091 0000 		lds r30,Timebase
 1464 06c8 F091 0000 		lds r31,(Timebase)+1
 1465 06cc 858D      		ldd r24,Z+29
 1466 06ce 8130      		cpi r24,lo8(1)
 1467 06d0 01F4      		brne .L78
 1468               	.LBB646:
 1469               	.LBB647:
 1470               	.LM201:
 1471 06d2 158A      		std Z+21,__zero_reg__
 1472 06d4 168A      		std Z+22,__zero_reg__
 1473 06d6 178A      		std Z+23,__zero_reg__
 1474 06d8 108E      		std Z+24,__zero_reg__
 1475               	.LM202:
 1476 06da 118E      		std Z+25,__zero_reg__
 1477 06dc 128E      		std Z+26,__zero_reg__
 1478 06de 138E      		std Z+27,__zero_reg__
 1479 06e0 148E      		std Z+28,__zero_reg__
 1480               	.LM203:
 1481 06e2 158E      		std Z+29,__zero_reg__
 1482               	.L78:
 1483               	.LBE647:
 1484               	.LBE646:
 1485               	.LM204:
 1486 06e4 822F      		mov r24,r18
 1487               	/* epilogue start */
 1488 06e6 0895      		ret
 1489               	.LFE27:
 1491               	.global	Timebase_UpCounter_SS_Get_Status
 1493               	Timebase_UpCounter_SS_Get_Status:
 1494               	.LFB28:
 1495               	.LM205:
 1496               	.LVL79:
 1497               	/* prologue: function */
 1498               	/* frame size = 0 */
 1499               	.LM206:
 1500 06e8 E091 0000 		lds r30,Timebase
 1501 06ec F091 0000 		lds r31,(Timebase)+1
 1502 06f0 90E0      		ldi r25,lo8(0)
 1503               	.LVL80:
 1504 06f2 29E1      		ldi r18,lo8(25)
 1505 06f4 30E0      		ldi r19,hi8(25)
 1506 06f6 AC01      		movw r20,r24
 1507 06f8 429F      		mul r20,r18
 1508 06fa C001      		movw r24,r0
 1509 06fc 439F      		mul r20,r19
 1510 06fe 900D      		add r25,r0
 1511 0700 529F      		mul r21,r18
 1512 0702 900D      		add r25,r0
 1513 0704 1124      		clr r1
 1514               	.LVL81:
 1515 0706 E80F      		add r30,r24
 1516 0708 F91F      		adc r31,r25
 1517 070a 80A1      		ldd r24,Z+32
 1518 070c 8695      		lsr r24
 1519               	.LM207:
 1520 070e 8F70      		andi r24,lo8(15)
 1521               	/* epilogue start */
 1522 0710 0895      		ret
 1523               	.LFE28:
 1525               	.global	Timebase_UpCounter_SS_Set_Status
 1527               	Timebase_UpCounter_SS_Set_Status:
 1528               	.LFB29:
 1529               	.LM208:
 1530               	.LVL82:
 1531               	/* prologue: function */
 1532               	/* frame size = 0 */
 1533               	.LM209:
 1534 0712 E091 0000 		lds r30,Timebase
 1535 0716 F091 0000 		lds r31,(Timebase)+1
 1536 071a 90E0      		ldi r25,lo8(0)
 1537               	.LVL83:
 1538 071c 29E1      		ldi r18,lo8(25)
 1539 071e 30E0      		ldi r19,hi8(25)
 1540 0720 AC01      		movw r20,r24
 1541 0722 429F      		mul r20,r18
 1542 0724 C001      		movw r24,r0
 1543 0726 439F      		mul r20,r19
 1544 0728 900D      		add r25,r0
 1545 072a 529F      		mul r21,r18
 1546 072c 900D      		add r25,r0
 1547 072e 1124      		clr r1
 1548               	.LVL84:
 1549 0730 E80F      		add r30,r24
 1550 0732 F91F      		adc r31,r25
 1551 0734 6F70      		andi r22,lo8(15)
 1552               	.LVL85:
 1553 0736 660F      		lsl r22
 1554 0738 80A1      		ldd r24,Z+32
 1555 073a 817E      		andi r24,lo8(-31)
 1556 073c 862B      		or r24,r22
 1557 073e 80A3      		std Z+32,r24
 1558               	/* epilogue start */
 1559               	.LM210:
 1560 0740 0895      		ret
 1561               	.LFE29:
 1563               	.global	Timebase_UpCounter_SS_Get_Value
 1565               	Timebase_UpCounter_SS_Get_Value:
 1566               	.LFB30:
 1567               	.LM211:
 1568               	.LVL86:
 1569               	/* prologue: function */
 1570               	/* frame size = 0 */
 1571               	.LM212:
 1572 0742 E091 0000 		lds r30,Timebase
 1573 0746 F091 0000 		lds r31,(Timebase)+1
 1574 074a 90E0      		ldi r25,lo8(0)
 1575               	.LVL87:
 1576 074c 29E1      		ldi r18,lo8(25)
 1577 074e 30E0      		ldi r19,hi8(25)
 1578 0750 AC01      		movw r20,r24
 1579 0752 429F      		mul r20,r18
 1580 0754 C001      		movw r24,r0
 1581 0756 439F      		mul r20,r19
 1582 0758 900D      		add r25,r0
 1583 075a 529F      		mul r21,r18
 1584 075c 900D      		add r25,r0
 1585 075e 1124      		clr r1
 1586               	.LVL88:
 1587 0760 E80F      		add r30,r24
 1588 0762 F91F      		adc r31,r25
 1589 0764 DF01      		movw r26,r30
 1590 0766 D196      		adiw r26,49
 1591 0768 61A9      		ldd r22,Z+49
 1592 076a 1196      		adiw r26,1
 1593 076c 7C91      		ld r23,X
 1594 076e 1197      		sbiw r26,1
 1595               	.LM213:
 1596 0770 1296      		adiw r26,2
 1597 0772 8C91      		ld r24,X
 1598 0774 1297      		sbiw r26,2
 1599 0776 1396      		adiw r26,3
 1600 0778 9C91      		ld r25,X
 1601               	.LVL89:
 1602               	/* epilogue start */
 1603 077a 0895      		ret
 1604               	.LFE30:
 1606               	.global	Timebase_UpCounter_SS_Set_Value
 1608               	Timebase_UpCounter_SS_Set_Value:
 1609               	.LFB31:
 1610               	.LM214:
 1611               	.LVL90:
 1612               	/* prologue: function */
 1613               	/* frame size = 0 */
 1614               	.LM215:
 1615 077c E091 0000 		lds r30,Timebase
 1616 0780 F091 0000 		lds r31,(Timebase)+1
 1617 0784 90E0      		ldi r25,lo8(0)
 1618               	.LVL91:
 1619 0786 29E1      		ldi r18,lo8(25)
 1620 0788 30E0      		ldi r19,hi8(25)
 1621 078a DC01      		movw r26,r24
 1622 078c A29F      		mul r26,r18
 1623 078e C001      		movw r24,r0
 1624 0790 A39F      		mul r26,r19
 1625 0792 900D      		add r25,r0
 1626 0794 B29F      		mul r27,r18
 1627 0796 900D      		add r25,r0
 1628 0798 1124      		clr r1
 1629               	.LVL92:
 1630 079a E80F      		add r30,r24
 1631 079c F91F      		adc r31,r25
 1632 079e 41AB      		std Z+49,r20
 1633 07a0 52AB      		std Z+50,r21
 1634 07a2 63AB      		std Z+51,r22
 1635 07a4 74AB      		std Z+52,r23
 1636               	/* epilogue start */
 1637               	.LM216:
 1638 07a6 0895      		ret
 1639               	.LFE31:
 1641               	.global	Timebase_UpCounter_SS_Get_EndValueSec
 1643               	Timebase_UpCounter_SS_Get_EndValueSec:
 1644               	.LFB32:
 1645               	.LM217:
 1646               	.LVL93:
 1647               	/* prologue: function */
 1648               	/* frame size = 0 */
 1649               	.LM218:
 1650 07a8 E091 0000 		lds r30,Timebase
 1651 07ac F091 0000 		lds r31,(Timebase)+1
 1652 07b0 90E0      		ldi r25,lo8(0)
 1653               	.LVL94:
 1654 07b2 29E1      		ldi r18,lo8(25)
 1655 07b4 30E0      		ldi r19,hi8(25)
 1656 07b6 AC01      		movw r20,r24
 1657 07b8 429F      		mul r20,r18
 1658 07ba C001      		movw r24,r0
 1659 07bc 439F      		mul r20,r19
 1660 07be 900D      		add r25,r0
 1661 07c0 529F      		mul r21,r18
 1662 07c2 900D      		add r25,r0
 1663 07c4 1124      		clr r1
 1664               	.LVL95:
 1665 07c6 E80F      		add r30,r24
 1666 07c8 F91F      		adc r31,r25
 1667 07ca DF01      		movw r26,r30
 1668 07cc 9196      		adiw r26,33
 1669 07ce 61A1      		ldd r22,Z+33
 1670 07d0 1196      		adiw r26,1
 1671 07d2 7C91      		ld r23,X
 1672 07d4 1197      		sbiw r26,1
 1673               	.LM219:
 1674 07d6 1296      		adiw r26,2
 1675 07d8 8C91      		ld r24,X
 1676 07da 1297      		sbiw r26,2
 1677 07dc 1396      		adiw r26,3
 1678 07de 9C91      		ld r25,X
 1679               	.LVL96:
 1680               	/* epilogue start */
 1681 07e0 0895      		ret
 1682               	.LFE32:
 1684               	.global	Timebase_UpCounter_SS_Get_EndValueSubSec
 1686               	Timebase_UpCounter_SS_Get_EndValueSubSec:
 1687               	.LFB33:
 1688               	.LM220:
 1689               	.LVL97:
 1690               	/* prologue: function */
 1691               	/* frame size = 0 */
 1692               	.LM221:
 1693 07e2 E091 0000 		lds r30,Timebase
 1694 07e6 F091 0000 		lds r31,(Timebase)+1
 1695 07ea 90E0      		ldi r25,lo8(0)
 1696               	.LVL98:
 1697 07ec 29E1      		ldi r18,lo8(25)
 1698 07ee 30E0      		ldi r19,hi8(25)
 1699 07f0 AC01      		movw r20,r24
 1700 07f2 429F      		mul r20,r18
 1701 07f4 C001      		movw r24,r0
 1702 07f6 439F      		mul r20,r19
 1703 07f8 900D      		add r25,r0
 1704 07fa 529F      		mul r21,r18
 1705 07fc 900D      		add r25,r0
 1706 07fe 1124      		clr r1
 1707               	.LVL99:
 1708 0800 E80F      		add r30,r24
 1709 0802 F91F      		adc r31,r25
 1710 0804 DF01      		movw r26,r30
 1711 0806 9596      		adiw r26,37
 1712 0808 65A1      		ldd r22,Z+37
 1713 080a 1196      		adiw r26,1
 1714 080c 7C91      		ld r23,X
 1715 080e 1197      		sbiw r26,1
 1716               	.LM222:
 1717 0810 1296      		adiw r26,2
 1718 0812 8C91      		ld r24,X
 1719 0814 1297      		sbiw r26,2
 1720 0816 1396      		adiw r26,3
 1721 0818 9C91      		ld r25,X
 1722               	.LVL100:
 1723               	/* epilogue start */
 1724 081a 0895      		ret
 1725               	.LFE33:
 1727               	.global	Timebase_UpCounter_SS_Set_EndValueSec
 1729               	Timebase_UpCounter_SS_Set_EndValueSec:
 1730               	.LFB34:
 1731               	.LM223:
 1732               	.LVL101:
 1733               	/* prologue: function */
 1734               	/* frame size = 0 */
 1735               	.LM224:
 1736 081c E091 0000 		lds r30,Timebase
 1737 0820 F091 0000 		lds r31,(Timebase)+1
 1738 0824 90E0      		ldi r25,lo8(0)
 1739               	.LVL102:
 1740 0826 29E1      		ldi r18,lo8(25)
 1741 0828 30E0      		ldi r19,hi8(25)
 1742 082a DC01      		movw r26,r24
 1743 082c A29F      		mul r26,r18
 1744 082e C001      		movw r24,r0
 1745 0830 A39F      		mul r26,r19
 1746 0832 900D      		add r25,r0
 1747 0834 B29F      		mul r27,r18
 1748 0836 900D      		add r25,r0
 1749 0838 1124      		clr r1
 1750               	.LVL103:
 1751 083a E80F      		add r30,r24
 1752 083c F91F      		adc r31,r25
 1753 083e 41A3      		std Z+33,r20
 1754 0840 52A3      		std Z+34,r21
 1755 0842 63A3      		std Z+35,r22
 1756 0844 74A3      		std Z+36,r23
 1757               	/* epilogue start */
 1758               	.LM225:
 1759 0846 0895      		ret
 1760               	.LFE34:
 1762               	.global	Timebase_UpCounter_SS_Set_EndValueSubSec
 1764               	Timebase_UpCounter_SS_Set_EndValueSubSec:
 1765               	.LFB35:
 1766               	.LM226:
 1767               	.LVL104:
 1768               	/* prologue: function */
 1769               	/* frame size = 0 */
 1770               	.LM227:
 1771 0848 E091 0000 		lds r30,Timebase
 1772 084c F091 0000 		lds r31,(Timebase)+1
 1773 0850 90E0      		ldi r25,lo8(0)
 1774               	.LVL105:
 1775 0852 29E1      		ldi r18,lo8(25)
 1776 0854 30E0      		ldi r19,hi8(25)
 1777 0856 DC01      		movw r26,r24
 1778 0858 A29F      		mul r26,r18
 1779 085a C001      		movw r24,r0
 1780 085c A39F      		mul r26,r19
 1781 085e 900D      		add r25,r0
 1782 0860 B29F      		mul r27,r18
 1783 0862 900D      		add r25,r0
 1784 0864 1124      		clr r1
 1785               	.LVL106:
 1786 0866 E80F      		add r30,r24
 1787 0868 F91F      		adc r31,r25
 1788 086a 45A3      		std Z+37,r20
 1789 086c 56A3      		std Z+38,r21
 1790 086e 67A3      		std Z+39,r22
 1791 0870 70A7      		std Z+40,r23
 1792               	/* epilogue start */
 1793               	.LM228:
 1794 0872 0895      		ret
 1795               	.LFE35:
 1797               	.global	Timebase_UpCounter_SS_Get_TargetValue
 1799               	Timebase_UpCounter_SS_Get_TargetValue:
 1800               	.LFB36:
 1801               	.LM229:
 1802               	.LVL107:
 1803               	/* prologue: function */
 1804               	/* frame size = 0 */
 1805               	.LM230:
 1806 0874 E091 0000 		lds r30,Timebase
 1807 0878 F091 0000 		lds r31,(Timebase)+1
 1808 087c 90E0      		ldi r25,lo8(0)
 1809               	.LVL108:
 1810 087e 29E1      		ldi r18,lo8(25)
 1811 0880 30E0      		ldi r19,hi8(25)
 1812 0882 AC01      		movw r20,r24
 1813 0884 429F      		mul r20,r18
 1814 0886 C001      		movw r24,r0
 1815 0888 439F      		mul r20,r19
 1816 088a 900D      		add r25,r0
 1817 088c 529F      		mul r21,r18
 1818 088e 900D      		add r25,r0
 1819 0890 1124      		clr r1
 1820               	.LVL109:
 1821 0892 E80F      		add r30,r24
 1822 0894 F91F      		adc r31,r25
 1823 0896 DF01      		movw r26,r30
 1824 0898 9996      		adiw r26,41
 1825 089a 61A5      		ldd r22,Z+41
 1826 089c 1196      		adiw r26,1
 1827 089e 7C91      		ld r23,X
 1828 08a0 1197      		sbiw r26,1
 1829               	.LM231:
 1830 08a2 1296      		adiw r26,2
 1831 08a4 8C91      		ld r24,X
 1832 08a6 1297      		sbiw r26,2
 1833 08a8 1396      		adiw r26,3
 1834 08aa 9C91      		ld r25,X
 1835               	.LVL110:
 1836               	/* epilogue start */
 1837 08ac 0895      		ret
 1838               	.LFE36:
 1840               	.global	Timebase_UpCounter_SS_Set_TargetValue
 1842               	Timebase_UpCounter_SS_Set_TargetValue:
 1843               	.LFB37:
 1844               	.LM232:
 1845               	.LVL111:
 1846               	/* prologue: function */
 1847               	/* frame size = 0 */
 1848               	.LM233:
 1849 08ae E091 0000 		lds r30,Timebase
 1850 08b2 F091 0000 		lds r31,(Timebase)+1
 1851 08b6 90E0      		ldi r25,lo8(0)
 1852               	.LVL112:
 1853 08b8 29E1      		ldi r18,lo8(25)
 1854 08ba 30E0      		ldi r19,hi8(25)
 1855 08bc DC01      		movw r26,r24
 1856 08be A29F      		mul r26,r18
 1857 08c0 C001      		movw r24,r0
 1858 08c2 A39F      		mul r26,r19
 1859 08c4 900D      		add r25,r0
 1860 08c6 B29F      		mul r27,r18
 1861 08c8 900D      		add r25,r0
 1862 08ca 1124      		clr r1
 1863               	.LVL113:
 1864 08cc E80F      		add r30,r24
 1865 08ce F91F      		adc r31,r25
 1866 08d0 41A7      		std Z+41,r20
 1867 08d2 52A7      		std Z+42,r21
 1868 08d4 63A7      		std Z+43,r22
 1869 08d6 74A7      		std Z+44,r23
 1870               	/* epilogue start */
 1871               	.LM234:
 1872 08d8 0895      		ret
 1873               	.LFE37:
 1875               	.global	Timebase_UpCounter_SS_Get_TemporaryValue
 1877               	Timebase_UpCounter_SS_Get_TemporaryValue:
 1878               	.LFB38:
 1879               	.LM235:
 1880               	.LVL114:
 1881               	/* prologue: function */
 1882               	/* frame size = 0 */
 1883               	.LM236:
 1884 08da E091 0000 		lds r30,Timebase
 1885 08de F091 0000 		lds r31,(Timebase)+1
 1886 08e2 90E0      		ldi r25,lo8(0)
 1887               	.LVL115:
 1888 08e4 29E1      		ldi r18,lo8(25)
 1889 08e6 30E0      		ldi r19,hi8(25)
 1890 08e8 AC01      		movw r20,r24
 1891 08ea 429F      		mul r20,r18
 1892 08ec C001      		movw r24,r0
 1893 08ee 439F      		mul r20,r19
 1894 08f0 900D      		add r25,r0
 1895 08f2 529F      		mul r21,r18
 1896 08f4 900D      		add r25,r0
 1897 08f6 1124      		clr r1
 1898               	.LVL116:
 1899 08f8 E80F      		add r30,r24
 1900 08fa F91F      		adc r31,r25
 1901 08fc DF01      		movw r26,r30
 1902 08fe 9D96      		adiw r26,45
 1903 0900 65A5      		ldd r22,Z+45
 1904 0902 1196      		adiw r26,1
 1905 0904 7C91      		ld r23,X
 1906 0906 1197      		sbiw r26,1
 1907               	.LM237:
 1908 0908 1296      		adiw r26,2
 1909 090a 8C91      		ld r24,X
 1910 090c 1297      		sbiw r26,2
 1911 090e 1396      		adiw r26,3
 1912 0910 9C91      		ld r25,X
 1913               	.LVL117:
 1914               	/* epilogue start */
 1915 0912 0895      		ret
 1916               	.LFE38:
 1918               	.global	Timebase_UpCounter_SS_Set_TemporaryValue
 1920               	Timebase_UpCounter_SS_Set_TemporaryValue:
 1921               	.LFB39:
 1922               	.LM238:
 1923               	.LVL118:
 1924               	/* prologue: function */
 1925               	/* frame size = 0 */
 1926               	.LM239:
 1927 0914 E091 0000 		lds r30,Timebase
 1928 0918 F091 0000 		lds r31,(Timebase)+1
 1929 091c 90E0      		ldi r25,lo8(0)
 1930               	.LVL119:
 1931 091e 29E1      		ldi r18,lo8(25)
 1932 0920 30E0      		ldi r19,hi8(25)
 1933 0922 DC01      		movw r26,r24
 1934 0924 A29F      		mul r26,r18
 1935 0926 C001      		movw r24,r0
 1936 0928 A39F      		mul r26,r19
 1937 092a 900D      		add r25,r0
 1938 092c B29F      		mul r27,r18
 1939 092e 900D      		add r25,r0
 1940 0930 1124      		clr r1
 1941               	.LVL120:
 1942 0932 E80F      		add r30,r24
 1943 0934 F91F      		adc r31,r25
 1944 0936 45A7      		std Z+45,r20
 1945 0938 56A7      		std Z+46,r21
 1946 093a 67A7      		std Z+47,r22
 1947 093c 70AB      		std Z+48,r23
 1948               	/* epilogue start */
 1949               	.LM240:
 1950 093e 0895      		ret
 1951               	.LFE39:
 1953               	.global	Timebase_UpCounter_SS_Get_PeriodValue
 1955               	Timebase_UpCounter_SS_Get_PeriodValue:
 1956               	.LFB40:
 1957               	.LM241:
 1958               	.LVL121:
 1959               	/* prologue: function */
 1960               	/* frame size = 0 */
 1961               	.LM242:
 1962 0940 E091 0000 		lds r30,Timebase
 1963 0944 F091 0000 		lds r31,(Timebase)+1
 1964 0948 90E0      		ldi r25,lo8(0)
 1965               	.LVL122:
 1966 094a 29E1      		ldi r18,lo8(25)
 1967 094c 30E0      		ldi r19,hi8(25)
 1968 094e AC01      		movw r20,r24
 1969 0950 429F      		mul r20,r18
 1970 0952 C001      		movw r24,r0
 1971 0954 439F      		mul r20,r19
 1972 0956 900D      		add r25,r0
 1973 0958 529F      		mul r21,r18
 1974 095a 900D      		add r25,r0
 1975 095c 1124      		clr r1
 1976               	.LVL123:
 1977 095e E80F      		add r30,r24
 1978 0960 F91F      		adc r31,r25
 1979 0962 DF01      		movw r26,r30
 1980 0964 D596      		adiw r26,53
 1981 0966 65A9      		ldd r22,Z+53
 1982 0968 1196      		adiw r26,1
 1983 096a 7C91      		ld r23,X
 1984 096c 1197      		sbiw r26,1
 1985               	.LM243:
 1986 096e 1296      		adiw r26,2
 1987 0970 8C91      		ld r24,X
 1988 0972 1297      		sbiw r26,2
 1989 0974 1396      		adiw r26,3
 1990 0976 9C91      		ld r25,X
 1991               	.LVL124:
 1992               	/* epilogue start */
 1993 0978 0895      		ret
 1994               	.LFE40:
 1996               	.global	Timebase_UpCounter_SS_Set_PeriodValue
 1998               	Timebase_UpCounter_SS_Set_PeriodValue:
 1999               	.LFB41:
 2000               	.LM244:
 2001               	.LVL125:
 2002               	/* prologue: function */
 2003               	/* frame size = 0 */
 2004               	.LM245:
 2005 097a E091 0000 		lds r30,Timebase
 2006 097e F091 0000 		lds r31,(Timebase)+1
 2007 0982 90E0      		ldi r25,lo8(0)
 2008               	.LVL126:
 2009 0984 29E1      		ldi r18,lo8(25)
 2010 0986 30E0      		ldi r19,hi8(25)
 2011 0988 DC01      		movw r26,r24
 2012 098a A29F      		mul r26,r18
 2013 098c C001      		movw r24,r0
 2014 098e A39F      		mul r26,r19
 2015 0990 900D      		add r25,r0
 2016 0992 B29F      		mul r27,r18
 2017 0994 900D      		add r25,r0
 2018 0996 1124      		clr r1
 2019               	.LVL127:
 2020 0998 E80F      		add r30,r24
 2021 099a F91F      		adc r31,r25
 2022 099c 45AB      		std Z+53,r20
 2023 099e 56AB      		std Z+54,r21
 2024 09a0 67AB      		std Z+55,r22
 2025 09a2 70AF      		std Z+56,r23
 2026               	/* epilogue start */
 2027               	.LM246:
 2028 09a4 0895      		ret
 2029               	.LFE41:
 2031               	.global	Timebase_UpCounter_SS_Get_Period_Flag
 2033               	Timebase_UpCounter_SS_Get_Period_Flag:
 2034               	.LFB42:
 2035               	.LM247:
 2036               	.LVL128:
 2037               	/* prologue: function */
 2038               	/* frame size = 0 */
 2039               	.LM248:
 2040 09a6 E091 0000 		lds r30,Timebase
 2041 09aa F091 0000 		lds r31,(Timebase)+1
 2042 09ae 90E0      		ldi r25,lo8(0)
 2043               	.LVL129:
 2044 09b0 29E1      		ldi r18,lo8(25)
 2045 09b2 30E0      		ldi r19,hi8(25)
 2046 09b4 AC01      		movw r20,r24
 2047 09b6 429F      		mul r20,r18
 2048 09b8 C001      		movw r24,r0
 2049 09ba 439F      		mul r20,r19
 2050 09bc 900D      		add r25,r0
 2051 09be 529F      		mul r21,r18
 2052 09c0 900D      		add r25,r0
 2053 09c2 1124      		clr r1
 2054               	.LVL130:
 2055 09c4 E80F      		add r30,r24
 2056 09c6 F91F      		adc r31,r25
 2057 09c8 80A1      		ldd r24,Z+32
 2058               	.LM249:
 2059 09ca 8170      		andi r24,lo8(1)
 2060               	/* epilogue start */
 2061 09cc 0895      		ret
 2062               	.LFE42:
 2064               	.global	Timebase_UpCounter_SS_Set_Period_Flag
 2066               	Timebase_UpCounter_SS_Set_Period_Flag:
 2067               	.LFB43:
 2068               	.LM250:
 2069               	.LVL131:
 2070               	/* prologue: function */
 2071               	/* frame size = 0 */
 2072               	.LM251:
 2073 09ce E091 0000 		lds r30,Timebase
 2074 09d2 F091 0000 		lds r31,(Timebase)+1
 2075 09d6 90E0      		ldi r25,lo8(0)
 2076               	.LVL132:
 2077 09d8 29E1      		ldi r18,lo8(25)
 2078 09da 30E0      		ldi r19,hi8(25)
 2079 09dc AC01      		movw r20,r24
 2080 09de 429F      		mul r20,r18
 2081 09e0 C001      		movw r24,r0
 2082 09e2 439F      		mul r20,r19
 2083 09e4 900D      		add r25,r0
 2084 09e6 529F      		mul r21,r18
 2085 09e8 900D      		add r25,r0
 2086 09ea 1124      		clr r1
 2087               	.LVL133:
 2088 09ec E80F      		add r30,r24
 2089 09ee F91F      		adc r31,r25
 2090 09f0 80A1      		ldd r24,Z+32
 2091 09f2 8160      		ori r24,lo8(1)
 2092 09f4 80A3      		std Z+32,r24
 2093               	/* epilogue start */
 2094               	.LM252:
 2095 09f6 0895      		ret
 2096               	.LFE43:
 2098               	.global	Timebase_UpCounter_SS_Clear_Period_Flag
 2100               	Timebase_UpCounter_SS_Clear_Period_Flag:
 2101               	.LFB44:
 2102               	.LM253:
 2103               	.LVL134:
 2104               	/* prologue: function */
 2105               	/* frame size = 0 */
 2106               	.LM254:
 2107 09f8 E091 0000 		lds r30,Timebase
 2108 09fc F091 0000 		lds r31,(Timebase)+1
 2109 0a00 90E0      		ldi r25,lo8(0)
 2110               	.LVL135:
 2111 0a02 29E1      		ldi r18,lo8(25)
 2112 0a04 30E0      		ldi r19,hi8(25)
 2113 0a06 AC01      		movw r20,r24
 2114 0a08 429F      		mul r20,r18
 2115 0a0a C001      		movw r24,r0
 2116 0a0c 439F      		mul r20,r19
 2117 0a0e 900D      		add r25,r0
 2118 0a10 529F      		mul r21,r18
 2119 0a12 900D      		add r25,r0
 2120 0a14 1124      		clr r1
 2121               	.LVL136:
 2122 0a16 E80F      		add r30,r24
 2123 0a18 F91F      		adc r31,r25
 2124 0a1a 80A1      		ldd r24,Z+32
 2125 0a1c 8E7F      		andi r24,lo8(-2)
 2126 0a1e 80A3      		std Z+32,r24
 2127               	/* epilogue start */
 2128               	.LM255:
 2129 0a20 0895      		ret
 2130               	.LFE44:
 2132               	.global	Timebase_UpCounter_SS_Reset
 2134               	Timebase_UpCounter_SS_Reset:
 2135               	.LFB45:
 2136               	.LM256:
 2137               	.LVL137:
 2138               	/* prologue: function */
 2139               	/* frame size = 0 */
 2140               	.LBB648:
 2141               	.LBB649:
 2142               	.LM257:
 2143 0a22 E091 0000 		lds r30,Timebase
 2144 0a26 F091 0000 		lds r31,(Timebase)+1
 2145 0a2a 90E0      		ldi r25,lo8(0)
 2146 0a2c 29E1      		ldi r18,lo8(25)
 2147 0a2e 30E0      		ldi r19,hi8(25)
 2148 0a30 AC01      		movw r20,r24
 2149               	.LVL138:
 2150 0a32 429F      		mul r20,r18
 2151 0a34 C001      		movw r24,r0
 2152 0a36 439F      		mul r20,r19
 2153 0a38 900D      		add r25,r0
 2154 0a3a 529F      		mul r21,r18
 2155 0a3c 900D      		add r25,r0
 2156 0a3e 1124      		clr r1
 2157 0a40 E80F      		add r30,r24
 2158 0a42 F91F      		adc r31,r25
 2159 0a44 80A1      		ldd r24,Z+32
 2160               	.LBE649:
 2161               	.LBE648:
 2162               	.LBB650:
 2163               	.LBB651:
 2164               	.LM258:
 2165 0a46 11AA      		std Z+49,__zero_reg__
 2166 0a48 12AA      		std Z+50,__zero_reg__
 2167 0a4a 13AA      		std Z+51,__zero_reg__
 2168 0a4c 14AA      		std Z+52,__zero_reg__
 2169               	.LBE651:
 2170               	.LBE650:
 2171               	.LBB652:
 2172               	.LBB653:
 2173               	.LM259:
 2174 0a4e 11A2      		std Z+33,__zero_reg__
 2175 0a50 12A2      		std Z+34,__zero_reg__
 2176 0a52 13A2      		std Z+35,__zero_reg__
 2177 0a54 14A2      		std Z+36,__zero_reg__
 2178               	.LBE653:
 2179               	.LBE652:
 2180               	.LBB654:
 2181               	.LBB655:
 2182               	.LM260:
 2183 0a56 15A2      		std Z+37,__zero_reg__
 2184 0a58 16A2      		std Z+38,__zero_reg__
 2185 0a5a 17A2      		std Z+39,__zero_reg__
 2186 0a5c 10A6      		std Z+40,__zero_reg__
 2187               	.LBE655:
 2188               	.LBE654:
 2189               	.LBB656:
 2190               	.LBB657:
 2191               	.LM261:
 2192 0a5e 11A6      		std Z+41,__zero_reg__
 2193 0a60 12A6      		std Z+42,__zero_reg__
 2194 0a62 13A6      		std Z+43,__zero_reg__
 2195 0a64 14A6      		std Z+44,__zero_reg__
 2196               	.LBE657:
 2197               	.LBE656:
 2198               	.LBB658:
 2199               	.LBB659:
 2200               	.LM262:
 2201 0a66 15A6      		std Z+45,__zero_reg__
 2202 0a68 16A6      		std Z+46,__zero_reg__
 2203 0a6a 17A6      		std Z+47,__zero_reg__
 2204 0a6c 10AA      		std Z+48,__zero_reg__
 2205               	.LBE659:
 2206               	.LBE658:
 2207               	.LBB660:
 2208               	.LBB661:
 2209               	.LM263:
 2210 0a6e 15AA      		std Z+53,__zero_reg__
 2211 0a70 16AA      		std Z+54,__zero_reg__
 2212 0a72 17AA      		std Z+55,__zero_reg__
 2213 0a74 10AE      		std Z+56,__zero_reg__
 2214               	.LBE661:
 2215               	.LBE660:
 2216               	.LBB662:
 2217               	.LBB663:
 2218               	.LM264:
 2219 0a76 807E      		andi r24,lo8(-32)
 2220 0a78 80A3      		std Z+32,r24
 2221               	/* epilogue start */
 2222               	.LBE663:
 2223               	.LBE662:
 2224               	.LM265:
 2225 0a7a 0895      		ret
 2226               	.LFE45:
 2228               	.global	Timebase_UpCounter_SS_Clear_All_Flags
 2230               	Timebase_UpCounter_SS_Clear_All_Flags:
 2231               	.LFB46:
 2232               	.LM266:
 2233               	.LVL139:
 2234               	/* prologue: function */
 2235               	/* frame size = 0 */
 2236               	.LM267:
 2237 0a7c 0E94 0000 		call Timebase_UpCounter_SS_Reset
 2238               	.LVL140:
 2239               	/* epilogue start */
 2240               	.LM268:
 2241 0a80 0895      		ret
 2242               	.LFE46:
 2244               	.global	Timebase_UpCounter_SS_Start
 2246               	Timebase_UpCounter_SS_Start:
 2247               	.LFB47:
 2248               	.LM269:
 2249               	.LVL141:
 2250               	/* prologue: function */
 2251               	/* frame size = 0 */
 2252               	.LBB664:
 2253               	.LBB665:
 2254               	.LM270:
 2255 0a82 E091 0000 		lds r30,Timebase
 2256 0a86 F091 0000 		lds r31,(Timebase)+1
 2257 0a8a 90E0      		ldi r25,lo8(0)
 2258               	.LBE665:
 2259               	.LBE664:
 2260               	.LM271:
 2261 0a8c 29E1      		ldi r18,lo8(25)
 2262 0a8e 30E0      		ldi r19,hi8(25)
 2263 0a90 AC01      		movw r20,r24
 2264               	.LVL142:
 2265 0a92 429F      		mul r20,r18
 2266 0a94 C001      		movw r24,r0
 2267 0a96 439F      		mul r20,r19
 2268 0a98 900D      		add r25,r0
 2269 0a9a 529F      		mul r21,r18
 2270 0a9c 900D      		add r25,r0
 2271 0a9e 1124      		clr r1
 2272 0aa0 E80F      		add r30,r24
 2273 0aa2 F91F      		adc r31,r25
 2274 0aa4 90A1      		ldd r25,Z+32
 2275 0aa6 892F      		mov r24,r25
 2276 0aa8 8695      		lsr r24
 2277 0aaa 8F70      		andi r24,lo8(15)
 2278 0aac 8130      		cpi r24,lo8(1)
 2279 0aae 01F0      		breq .L120
 2280               	.LBB666:
 2281               	.LBB667:
 2282               	.LM272:
 2283 0ab0 917E      		andi r25,lo8(-31)
 2284 0ab2 9260      		ori r25,lo8(2)
 2285 0ab4 90A3      		std Z+32,r25
 2286               	.L120:
 2287 0ab6 0895      		ret
 2288               	.LBE667:
 2289               	.LBE666:
 2290               	.LFE47:
 2292               	.global	Timebase_UpCounter_SS_Stop
 2294               	Timebase_UpCounter_SS_Stop:
 2295               	.LFB48:
 2296               	.LM273:
 2297               	.LVL143:
 2298               	/* prologue: function */
 2299               	/* frame size = 0 */
 2300               	.LBB668:
 2301               	.LBB669:
 2302               	.LM274:
 2303 0ab8 E091 0000 		lds r30,Timebase
 2304 0abc F091 0000 		lds r31,(Timebase)+1
 2305 0ac0 90E0      		ldi r25,lo8(0)
 2306               	.LBE669:
 2307               	.LBE668:
 2308               	.LM275:
 2309 0ac2 29E1      		ldi r18,lo8(25)
 2310 0ac4 30E0      		ldi r19,hi8(25)
 2311 0ac6 AC01      		movw r20,r24
 2312               	.LVL144:
 2313 0ac8 429F      		mul r20,r18
 2314 0aca C001      		movw r24,r0
 2315 0acc 439F      		mul r20,r19
 2316 0ace 900D      		add r25,r0
 2317 0ad0 529F      		mul r21,r18
 2318 0ad2 900D      		add r25,r0
 2319 0ad4 1124      		clr r1
 2320 0ad6 E80F      		add r30,r24
 2321 0ad8 F91F      		adc r31,r25
 2322 0ada 90A1      		ldd r25,Z+32
 2323 0adc 892F      		mov r24,r25
 2324 0ade 8695      		lsr r24
 2325 0ae0 8F70      		andi r24,lo8(15)
 2326 0ae2 8230      		cpi r24,lo8(2)
 2327 0ae4 01F0      		breq .L123
 2328               	.LBB670:
 2329               	.LBB671:
 2330               	.LM276:
 2331 0ae6 917E      		andi r25,lo8(-31)
 2332 0ae8 9460      		ori r25,lo8(4)
 2333 0aea 90A3      		std Z+32,r25
 2334               	.L123:
 2335 0aec 0895      		ret
 2336               	.LBE671:
 2337               	.LBE670:
 2338               	.LFE48:
 2340               	.global	Timebase_UpCounter_SS_Set_Securely
 2342               	Timebase_UpCounter_SS_Set_Securely:
 2343               	.LFB49:
 2344               	.LM277:
 2345               	.LVL145:
 2346 0aee 2F92      		push r2
 2347 0af0 3F92      		push r3
 2348 0af2 4F92      		push r4
 2349 0af4 5F92      		push r5
 2350 0af6 6F92      		push r6
 2351 0af8 7F92      		push r7
 2352 0afa 8F92      		push r8
 2353 0afc 9F92      		push r9
 2354 0afe AF92      		push r10
 2355 0b00 BF92      		push r11
 2356 0b02 CF92      		push r12
 2357 0b04 DF92      		push r13
 2358 0b06 EF92      		push r14
 2359 0b08 FF92      		push r15
 2360 0b0a 0F93      		push r16
 2361 0b0c 1F93      		push r17
 2362 0b0e DF93      		push r29
 2363 0b10 CF93      		push r28
 2364 0b12 00D0      		rcall .
 2365 0b14 00D0      		rcall .
 2366 0b16 CDB7      		in r28,__SP_L__
 2367 0b18 DEB7      		in r29,__SP_H__
 2368               	/* prologue: function */
 2369               	/* frame size = 4 */
 2370 0b1a 4A01      		movw r8,r20
 2371 0b1c 5B01      		movw r10,r22
 2372               	.LBB672:
 2373               	.LBB673:
 2374               	.LM278:
 2375 0b1e 2091 0000 		lds r18,Timebase
 2376 0b22 3091 0000 		lds r19,(Timebase)+1
 2377 0b26 3C83      		std Y+4,r19
 2378 0b28 2B83      		std Y+3,r18
 2379 0b2a A82F      		mov r26,r24
 2380 0b2c B0E0      		ldi r27,lo8(0)
 2381 0b2e BA83      		std Y+2,r27
 2382 0b30 A983      		std Y+1,r26
 2383               	.LBE673:
 2384               	.LBE672:
 2385               	.LM279:
 2386 0b32 89E1      		ldi r24,lo8(25)
 2387 0b34 90E0      		ldi r25,hi8(25)
 2388               	.LVL146:
 2389 0b36 A89F      		mul r26,r24
 2390 0b38 F001      		movw r30,r0
 2391 0b3a A99F      		mul r26,r25
 2392 0b3c F00D      		add r31,r0
 2393 0b3e B89F      		mul r27,r24
 2394 0b40 F00D      		add r31,r0
 2395 0b42 1124      		clr r1
 2396 0b44 E20F      		add r30,r18
 2397 0b46 F31F      		adc r31,r19
 2398 0b48 80A1      		ldd r24,Z+32
 2399 0b4a 8695      		lsr r24
 2400 0b4c 8F70      		andi r24,lo8(15)
 2401 0b4e 01F0      		breq .+2
 2402 0b50 00C0      		rjmp .L127
 2403               	.LVL147:
 2404               	.LBB674:
 2405               	.LBB675:
 2406               	.LBB676:
 2407               	.LM280:
 2408 0b52 11AA      		std Z+49,__zero_reg__
 2409 0b54 12AA      		std Z+50,__zero_reg__
 2410 0b56 13AA      		std Z+51,__zero_reg__
 2411 0b58 14AA      		std Z+52,__zero_reg__
 2412               	.LBE676:
 2413               	.LBE675:
 2414               	.LBB677:
 2415               	.LBB678:
 2416               	.LM281:
 2417 0b5a 15A6      		std Z+45,__zero_reg__
 2418 0b5c 16A6      		std Z+46,__zero_reg__
 2419 0b5e 17A6      		std Z+47,__zero_reg__
 2420 0b60 10AA      		std Z+48,__zero_reg__
 2421               	.LBE678:
 2422               	.LBE677:
 2423               	.LBB679:
 2424               	.LBB680:
 2425               	.LM282:
 2426 0b62 F901      		movw r30,r18
 2427 0b64 8285      		ldd r24,Z+10
 2428 0b66 9385      		ldd r25,Z+11
 2429 0b68 A485      		ldd r26,Z+12
 2430 0b6a B585      		ldd r27,Z+13
 2431               	.LVL148:
 2432               	.LBE680:
 2433               	.LBE679:
 2434               	.LBB681:
 2435               	.LBB682:
 2436               	.LM283:
 2437 0b6c C084      		ldd r12,Z+8
 2438 0b6e D184      		ldd r13,Z+9
 2439               	.LBE682:
 2440               	.LBE681:
 2441               	.LBB683:
 2442               	.LBB684:
 2443               	.LM284:
 2444 0b70 2284      		ldd r2,Z+10
 2445 0b72 3384      		ldd r3,Z+11
 2446 0b74 4484      		ldd r4,Z+12
 2447 0b76 5584      		ldd r5,Z+13
 2448               	.LVL149:
 2449               	.LBE684:
 2450               	.LBE683:
 2451               	.LM285:
 2452 0b78 2181      		ldd r18,Z+1
 2453 0b7a 3281      		ldd r19,Z+2
 2454 0b7c 40E0      		ldi r20,lo8(0)
 2455 0b7e 50E0      		ldi r21,hi8(0)
 2456 0b80 C501      		movw r24,r10
 2457 0b82 B401      		movw r22,r8
 2458 0b84 0E94 0000 		call __divmodsi4
 2459 0b88 7B01      		movw r14,r22
 2460 0b8a 8C01      		movw r16,r24
 2461               	.LVL150:
 2462               	.LM286:
 2463 0b8c AB81      		ldd r26,Y+3
 2464 0b8e BC81      		ldd r27,Y+4
 2465 0b90 1196      		adiw r26,1
 2466 0b92 2D91      		ld r18,X+
 2467 0b94 3C91      		ld r19,X
 2468 0b96 1297      		sbiw r26,1+1
 2469 0b98 40E0      		ldi r20,lo8(0)
 2470 0b9a 50E0      		ldi r21,hi8(0)
 2471 0b9c C501      		movw r24,r10
 2472 0b9e B401      		movw r22,r8
 2473 0ba0 0E94 0000 		call __divmodsi4
 2474 0ba4 C901      		movw r24,r18
 2475 0ba6 DA01      		movw r26,r20
 2476 0ba8 3C01      		movw r6,r24
 2477 0baa 4D01      		movw r8,r26
 2478               	.LVL151:
 2479               	.LM287:
 2480 0bac 5601      		movw r10,r12
 2481               	.LVL152:
 2482 0bae CC24      		clr r12
 2483 0bb0 DD24      		clr r13
 2484               	.LVL153:
 2485 0bb2 AE0C      		add r10,r14
 2486 0bb4 BF1C      		adc r11,r15
 2487 0bb6 C01E      		adc r12,r16
 2488 0bb8 D11E      		adc r13,r17
 2489               	.LVL154:
 2490               	.LM288:
 2491 0bba EB81      		ldd r30,Y+3
 2492 0bbc FC81      		ldd r31,Y+4
 2493 0bbe 8181      		ldd r24,Z+1
 2494 0bc0 9281      		ldd r25,Z+2
 2495               	.LVL155:
 2496 0bc2 A0E0      		ldi r26,lo8(0)
 2497 0bc4 B0E0      		ldi r27,hi8(0)
 2498 0bc6 A816      		cp r10,r24
 2499 0bc8 B906      		cpc r11,r25
 2500 0bca CA06      		cpc r12,r26
 2501 0bcc DB06      		cpc r13,r27
 2502 0bce 04F0      		brlt .L126
 2503               	.LM289:
 2504 0bd0 0894      		sec
 2505 0bd2 611C      		adc r6,__zero_reg__
 2506 0bd4 711C      		adc r7,__zero_reg__
 2507 0bd6 811C      		adc r8,__zero_reg__
 2508 0bd8 911C      		adc r9,__zero_reg__
 2509               	.LM290:
 2510 0bda 2181      		ldd r18,Z+1
 2511 0bdc 3281      		ldd r19,Z+2
 2512 0bde 40E0      		ldi r20,lo8(0)
 2513 0be0 50E0      		ldi r21,hi8(0)
 2514 0be2 C601      		movw r24,r12
 2515 0be4 B501      		movw r22,r10
 2516 0be6 0E94 0000 		call __divmodsi4
 2517 0bea AC01      		movw r20,r24
 2518 0bec CB01      		movw r24,r22
 2519 0bee DA01      		movw r26,r20
 2520 0bf0 5C01      		movw r10,r24
 2521 0bf2 6D01      		movw r12,r26
 2522               	.L126:
 2523               	.LBB685:
 2524               	.LBB686:
 2525               	.LM291:
 2526 0bf4 89E1      		ldi r24,lo8(25)
 2527 0bf6 90E0      		ldi r25,hi8(25)
 2528 0bf8 2981      		ldd r18,Y+1
 2529 0bfa 3A81      		ldd r19,Y+2
 2530 0bfc 289F      		mul r18,r24
 2531 0bfe F001      		movw r30,r0
 2532 0c00 299F      		mul r18,r25
 2533 0c02 F00D      		add r31,r0
 2534 0c04 389F      		mul r19,r24
 2535 0c06 F00D      		add r31,r0
 2536 0c08 1124      		clr r1
 2537 0c0a 8B81      		ldd r24,Y+3
 2538 0c0c 9C81      		ldd r25,Y+4
 2539 0c0e E80F      		add r30,r24
 2540 0c10 F91F      		adc r31,r25
 2541 0c12 260C      		add r2,r6
 2542 0c14 371C      		adc r3,r7
 2543 0c16 481C      		adc r4,r8
 2544 0c18 591C      		adc r5,r9
 2545 0c1a 21A2      		std Z+33,r2
 2546 0c1c 32A2      		std Z+34,r3
 2547 0c1e 43A2      		std Z+35,r4
 2548 0c20 54A2      		std Z+36,r5
 2549               	.LBE686:
 2550               	.LBE685:
 2551               	.LBB687:
 2552               	.LBB688:
 2553               	.LM292:
 2554 0c22 A5A2      		std Z+37,r10
 2555 0c24 B6A2      		std Z+38,r11
 2556 0c26 C7A2      		std Z+39,r12
 2557 0c28 D0A6      		std Z+40,r13
 2558               	.LBE688:
 2559               	.LBE687:
 2560               	.LBB689:
 2561               	.LBB690:
 2562               	.LM293:
 2563 0c2a 90A1      		ldd r25,Z+32
 2564 0c2c 892F      		mov r24,r25
 2565 0c2e 8695      		lsr r24
 2566 0c30 8F70      		andi r24,lo8(15)
 2567 0c32 8130      		cpi r24,lo8(1)
 2568 0c34 01F0      		breq .L127
 2569               	.LBB691:
 2570               	.LBB692:
 2571               	.LM294:
 2572 0c36 917E      		andi r25,lo8(-31)
 2573 0c38 9260      		ori r25,lo8(2)
 2574 0c3a 90A3      		std Z+32,r25
 2575               	.LVL156:
 2576               	.L127:
 2577               	/* epilogue start */
 2578               	.LBE692:
 2579               	.LBE691:
 2580               	.LBE690:
 2581               	.LBE689:
 2582               	.LBE674:
 2583               	.LM295:
 2584 0c3c 0F90      		pop __tmp_reg__
 2585 0c3e 0F90      		pop __tmp_reg__
 2586 0c40 0F90      		pop __tmp_reg__
 2587 0c42 0F90      		pop __tmp_reg__
 2588 0c44 CF91      		pop r28
 2589 0c46 DF91      		pop r29
 2590 0c48 1F91      		pop r17
 2591 0c4a 0F91      		pop r16
 2592 0c4c FF90      		pop r15
 2593 0c4e EF90      		pop r14
 2594 0c50 DF90      		pop r13
 2595 0c52 CF90      		pop r12
 2596               	.LVL157:
 2597 0c54 BF90      		pop r11
 2598 0c56 AF90      		pop r10
 2599               	.LVL158:
 2600 0c58 9F90      		pop r9
 2601 0c5a 8F90      		pop r8
 2602               	.LVL159:
 2603 0c5c 7F90      		pop r7
 2604 0c5e 6F90      		pop r6
 2605               	.LVL160:
 2606 0c60 5F90      		pop r5
 2607 0c62 4F90      		pop r4
 2608 0c64 3F90      		pop r3
 2609 0c66 2F90      		pop r2
 2610               	.LVL161:
 2611 0c68 0895      		ret
 2612               	.LFE49:
 2614               	.global	Timebase_UpCounter_SS_Set_Forcefully
 2616               	Timebase_UpCounter_SS_Set_Forcefully:
 2617               	.LFB50:
 2618               	.LM296:
 2619               	.LVL162:
 2620 0c6a DF92      		push r13
 2621 0c6c EF92      		push r14
 2622 0c6e FF92      		push r15
 2623 0c70 0F93      		push r16
 2624 0c72 1F93      		push r17
 2625               	/* prologue: function */
 2626               	/* frame size = 0 */
 2627 0c74 D82E      		mov r13,r24
 2628 0c76 7A01      		movw r14,r20
 2629 0c78 8B01      		movw r16,r22
 2630               	.LM297:
 2631 0c7a 0E94 0000 		call Timebase_UpCounter_SS_Reset
 2632               	.LVL163:
 2633               	.LM298:
 2634 0c7e 8D2D      		mov r24,r13
 2635 0c80 B801      		movw r22,r16
 2636 0c82 A701      		movw r20,r14
 2637 0c84 0E94 0000 		call Timebase_UpCounter_SS_Set_Securely
 2638               	/* epilogue start */
 2639               	.LM299:
 2640 0c88 1F91      		pop r17
 2641 0c8a 0F91      		pop r16
 2642 0c8c FF90      		pop r15
 2643 0c8e EF90      		pop r14
 2644               	.LVL164:
 2645 0c90 DF90      		pop r13
 2646               	.LVL165:
 2647 0c92 0895      		ret
 2648               	.LFE50:
 2650               	.global	Timebase_UpCounter_SS_Update
 2652               	Timebase_UpCounter_SS_Update:
 2653               	.LFB51:
 2654               	.LM300:
 2655               	.LVL166:
 2656 0c94 EF92      		push r14
 2657 0c96 FF92      		push r15
 2658 0c98 0F93      		push r16
 2659 0c9a 1F93      		push r17
 2660               	/* prologue: function */
 2661               	/* frame size = 0 */
 2662               	.LBB693:
 2663               	.LBB694:
 2664               	.LM301:
 2665 0c9c A091 0000 		lds r26,Timebase
 2666 0ca0 B091 0000 		lds r27,(Timebase)+1
 2667 0ca4 90E0      		ldi r25,lo8(0)
 2668 0ca6 29E1      		ldi r18,lo8(25)
 2669 0ca8 30E0      		ldi r19,hi8(25)
 2670 0caa 829F      		mul r24,r18
 2671 0cac F001      		movw r30,r0
 2672 0cae 839F      		mul r24,r19
 2673 0cb0 F00D      		add r31,r0
 2674 0cb2 929F      		mul r25,r18
 2675 0cb4 F00D      		add r31,r0
 2676 0cb6 1124      		clr r1
 2677               	.LVL167:
 2678 0cb8 EA0F      		add r30,r26
 2679 0cba FB1F      		adc r31,r27
 2680 0cbc 80A1      		ldd r24,Z+32
 2681 0cbe 8695      		lsr r24
 2682 0cc0 8F70      		andi r24,lo8(15)
 2683               	.LBE694:
 2684               	.LBE693:
 2685               	.LM302:
 2686 0cc2 8130      		cpi r24,lo8(1)
 2687 0cc4 01F4      		brne .L131
 2688               	.LBB695:
 2689               	.LBB696:
 2690               	.LM303:
 2691 0cc6 1A96      		adiw r26,10
 2692 0cc8 8D91      		ld r24,X+
 2693 0cca 9D91      		ld r25,X+
 2694 0ccc 0D90      		ld __tmp_reg__,X+
 2695 0cce BC91      		ld r27,X
 2696 0cd0 A02D      		mov r26,__tmp_reg__
 2697               	.LVL168:
 2698               	.LBE696:
 2699               	.LBE695:
 2700               	.LBB697:
 2701               	.LBB698:
 2702               	.LM304:
 2703 0cd2 E1A4      		ldd r14,Z+41
 2704 0cd4 F2A4      		ldd r15,Z+42
 2705 0cd6 03A5      		ldd r16,Z+43
 2706 0cd8 14A5      		ldd r17,Z+44
 2707 0cda 25A5      		ldd r18,Z+45
 2708 0cdc 36A5      		ldd r19,Z+46
 2709 0cde 47A5      		ldd r20,Z+47
 2710 0ce0 50A9      		ldd r21,Z+48
 2711 0ce2 D801      		movw r26,r16
 2712 0ce4 C701      		movw r24,r14
 2713               	.LVL169:
 2714 0ce6 821B      		sub r24,r18
 2715 0ce8 930B      		sbc r25,r19
 2716 0cea A40B      		sbc r26,r20
 2717 0cec B50B      		sbc r27,r21
 2718 0cee 81AB      		std Z+49,r24
 2719 0cf0 92AB      		std Z+50,r25
 2720 0cf2 A3AB      		std Z+51,r26
 2721 0cf4 B4AB      		std Z+52,r27
 2722               	.LBE698:
 2723               	.LBE697:
 2724               	.LM305:
 2725 0cf6 1216      		cp __zero_reg__,r18
 2726 0cf8 1306      		cpc __zero_reg__,r19
 2727 0cfa 1406      		cpc __zero_reg__,r20
 2728 0cfc 1506      		cpc __zero_reg__,r21
 2729 0cfe 04F0      		brlt .L133
 2730               	.LBB699:
 2731               	.LBB700:
 2732               	.LM306:
 2733 0d00 15A6      		std Z+45,__zero_reg__
 2734 0d02 16A6      		std Z+46,__zero_reg__
 2735 0d04 17A6      		std Z+47,__zero_reg__
 2736 0d06 10AA      		std Z+48,__zero_reg__
 2737               	.LBE700:
 2738               	.LBE699:
 2739               	.LBB701:
 2740               	.LBB702:
 2741               	.LM307:
 2742 0d08 E1AA      		std Z+49,r14
 2743 0d0a F2AA      		std Z+50,r15
 2744 0d0c 03AB      		std Z+51,r16
 2745 0d0e 14AB      		std Z+52,r17
 2746               	.LBE702:
 2747               	.LBE701:
 2748               	.LBB703:
 2749               	.LBB704:
 2750               	.LM308:
 2751 0d10 80A1      		ldd r24,Z+32
 2752 0d12 817E      		andi r24,lo8(-31)
 2753 0d14 8860      		ori r24,lo8(8)
 2754 0d16 80A3      		std Z+32,r24
 2755 0d18 00C0      		rjmp .L133
 2756               	.L131:
 2757               	.LBE704:
 2758               	.LBE703:
 2759               	.LM309:
 2760 0d1a 8230      		cpi r24,lo8(2)
 2761 0d1c 01F4      		brne .L133
 2762               	.LBB705:
 2763               	.LBB706:
 2764               	.LM310:
 2765 0d1e 1A96      		adiw r26,10
 2766 0d20 8D91      		ld r24,X+
 2767 0d22 9D91      		ld r25,X+
 2768 0d24 0D90      		ld __tmp_reg__,X+
 2769 0d26 BC91      		ld r27,X
 2770 0d28 A02D      		mov r26,__tmp_reg__
 2771               	.LVL170:
 2772               	.LBE706:
 2773               	.LBE705:
 2774               	.LBB707:
 2775               	.LBB708:
 2776               	.LM311:
 2777 0d2a 81A5      		ldd r24,Z+41
 2778 0d2c 92A5      		ldd r25,Z+42
 2779 0d2e A3A5      		ldd r26,Z+43
 2780 0d30 B4A5      		ldd r27,Z+44
 2781               	.LVL171:
 2782 0d32 25A5      		ldd r18,Z+45
 2783 0d34 36A5      		ldd r19,Z+46
 2784 0d36 47A5      		ldd r20,Z+47
 2785 0d38 50A9      		ldd r21,Z+48
 2786 0d3a 821B      		sub r24,r18
 2787 0d3c 930B      		sbc r25,r19
 2788 0d3e A40B      		sbc r26,r20
 2789 0d40 B50B      		sbc r27,r21
 2790 0d42 81AB      		std Z+49,r24
 2791 0d44 92AB      		std Z+50,r25
 2792 0d46 A3AB      		std Z+51,r26
 2793 0d48 B4AB      		std Z+52,r27
 2794               	.L133:
 2795               	/* epilogue start */
 2796               	.LBE708:
 2797               	.LBE707:
 2798               	.LM312:
 2799 0d4a 1F91      		pop r17
 2800 0d4c 0F91      		pop r16
 2801 0d4e FF90      		pop r15
 2802 0d50 EF90      		pop r14
 2803 0d52 0895      		ret
 2804               	.LFE51:
 2806               	.global	Timebase_UpCounter_SS_Expired
 2808               	Timebase_UpCounter_SS_Expired:
 2809               	.LFB52:
 2810               	.LM313:
 2811               	.LVL172:
 2812               	/* prologue: function */
 2813               	/* frame size = 0 */
 2814               	.LM314:
 2815 0d54 40E0      		ldi r20,lo8(0)
 2816 0d56 E091 0000 		lds r30,Timebase
 2817 0d5a F091 0000 		lds r31,(Timebase)+1
 2818 0d5e 90E0      		ldi r25,lo8(0)
 2819               	.LVL173:
 2820 0d60 29E1      		ldi r18,lo8(25)
 2821 0d62 30E0      		ldi r19,hi8(25)
 2822 0d64 BC01      		movw r22,r24
 2823 0d66 629F      		mul r22,r18
 2824 0d68 C001      		movw r24,r0
 2825 0d6a 639F      		mul r22,r19
 2826 0d6c 900D      		add r25,r0
 2827 0d6e 729F      		mul r23,r18
 2828 0d70 900D      		add r25,r0
 2829 0d72 1124      		clr r1
 2830               	.LVL174:
 2831 0d74 E80F      		add r30,r24
 2832 0d76 F91F      		adc r31,r25
 2833 0d78 80A1      		ldd r24,Z+32
 2834 0d7a 8695      		lsr r24
 2835 0d7c 8F70      		andi r24,lo8(15)
 2836 0d7e 8430      		cpi r24,lo8(4)
 2837 0d80 01F4      		brne .L135
 2838 0d82 41E0      		ldi r20,lo8(1)
 2839               	.L135:
 2840               	.LM315:
 2841 0d84 842F      		mov r24,r20
 2842               	/* epilogue start */
 2843 0d86 0895      		ret
 2844               	.LFE52:
 2846               	.global	Timebase_UpCounter_SS_Expired_Event
 2848               	Timebase_UpCounter_SS_Expired_Event:
 2849               	.LFB53:
 2850               	.LM316:
 2851               	.LVL175:
 2852               	/* prologue: function */
 2853               	/* frame size = 0 */
 2854 0d88 482F      		mov r20,r24
 2855               	.LM317:
 2856 0d8a E091 0000 		lds r30,Timebase
 2857 0d8e F091 0000 		lds r31,(Timebase)+1
 2858 0d92 282F      		mov r18,r24
 2859 0d94 30E0      		ldi r19,lo8(0)
 2860               	.LVL176:
 2861 0d96 89E1      		ldi r24,lo8(25)
 2862 0d98 90E0      		ldi r25,hi8(25)
 2863               	.LVL177:
 2864 0d9a BC01      		movw r22,r24
 2865 0d9c 269F      		mul r18,r22
 2866 0d9e C001      		movw r24,r0
 2867 0da0 279F      		mul r18,r23
 2868 0da2 900D      		add r25,r0
 2869 0da4 369F      		mul r19,r22
 2870 0da6 900D      		add r25,r0
 2871 0da8 1124      		clr r1
 2872 0daa E80F      		add r30,r24
 2873 0dac F91F      		adc r31,r25
 2874 0dae 80A1      		ldd r24,Z+32
 2875 0db0 8695      		lsr r24
 2876 0db2 8F70      		andi r24,lo8(15)
 2877 0db4 8430      		cpi r24,lo8(4)
 2878 0db6 01F0      		breq .L138
 2879 0db8 80E0      		ldi r24,lo8(0)
 2880 0dba 0895      		ret
 2881               	.L138:
 2882               	.LBB709:
 2883               	.LBB710:
 2884               	.LM318:
 2885 0dbc 842F      		mov r24,r20
 2886 0dbe 0E94 0000 		call Timebase_UpCounter_SS_Reset
 2887               	.LVL178:
 2888 0dc2 81E0      		ldi r24,lo8(1)
 2889               	.LBE710:
 2890               	.LBE709:
 2891               	.LM319:
 2892 0dc4 0895      		ret
 2893               	.LFE53:
 2895               	.global	Timebase_UpCounter_SS_Set_Period_Value_Securely
 2897               	Timebase_UpCounter_SS_Set_Period_Value_Securely:
 2898               	.LFB54:
 2899               	.LM320:
 2900               	.LVL179:
 2901               	/* prologue: function */
 2902               	/* frame size = 0 */
 2903               	.LBB711:
 2904               	.LBB712:
 2905               	.LM321:
 2906 0dc6 E091 0000 		lds r30,Timebase
 2907 0dca F091 0000 		lds r31,(Timebase)+1
 2908 0dce 90E0      		ldi r25,lo8(0)
 2909               	.LBE712:
 2910               	.LBE711:
 2911               	.LM322:
 2912 0dd0 29E1      		ldi r18,lo8(25)
 2913 0dd2 30E0      		ldi r19,hi8(25)
 2914 0dd4 DC01      		movw r26,r24
 2915               	.LVL180:
 2916 0dd6 A29F      		mul r26,r18
 2917 0dd8 C001      		movw r24,r0
 2918 0dda A39F      		mul r26,r19
 2919 0ddc 900D      		add r25,r0
 2920 0dde B29F      		mul r27,r18
 2921 0de0 900D      		add r25,r0
 2922 0de2 1124      		clr r1
 2923 0de4 E80F      		add r30,r24
 2924 0de6 F91F      		adc r31,r25
 2925 0de8 80A1      		ldd r24,Z+32
 2926 0dea 80FD      		sbrc r24,0
 2927 0dec 00C0      		rjmp .L143
 2928               	.LBB713:
 2929               	.LBB714:
 2930               	.LM323:
 2931 0dee 81A9      		ldd r24,Z+49
 2932 0df0 92A9      		ldd r25,Z+50
 2933 0df2 A3A9      		ldd r26,Z+51
 2934 0df4 B4A9      		ldd r27,Z+52
 2935 0df6 840F      		add r24,r20
 2936 0df8 951F      		adc r25,r21
 2937 0dfa A61F      		adc r26,r22
 2938 0dfc B71F      		adc r27,r23
 2939 0dfe 85AB      		std Z+53,r24
 2940 0e00 96AB      		std Z+54,r25
 2941 0e02 A7AB      		std Z+55,r26
 2942 0e04 B0AF      		std Z+56,r27
 2943               	.LBE714:
 2944               	.LBE713:
 2945               	.LBB715:
 2946               	.LBB716:
 2947               	.LM324:
 2948 0e06 80A1      		ldd r24,Z+32
 2949 0e08 8160      		ori r24,lo8(1)
 2950 0e0a 80A3      		std Z+32,r24
 2951               	.L143:
 2952 0e0c 0895      		ret
 2953               	.LBE716:
 2954               	.LBE715:
 2955               	.LFE54:
 2957               	.global	Timebase_UpCounter_SS_Get_Remaining_Period_Value
 2959               	Timebase_UpCounter_SS_Get_Remaining_Period_Value:
 2960               	.LFB55:
 2961               	.LM325:
 2962               	.LVL181:
 2963               	/* prologue: function */
 2964               	/* frame size = 0 */
 2965               	.LBB717:
 2966               	.LBB718:
 2967               	.LM326:
 2968 0e0e E091 0000 		lds r30,Timebase
 2969 0e12 F091 0000 		lds r31,(Timebase)+1
 2970 0e16 90E0      		ldi r25,lo8(0)
 2971               	.LBE718:
 2972               	.LBE717:
 2973               	.LM327:
 2974 0e18 29E1      		ldi r18,lo8(25)
 2975 0e1a 30E0      		ldi r19,hi8(25)
 2976 0e1c AC01      		movw r20,r24
 2977               	.LVL182:
 2978 0e1e 429F      		mul r20,r18
 2979 0e20 C001      		movw r24,r0
 2980 0e22 439F      		mul r20,r19
 2981 0e24 900D      		add r25,r0
 2982 0e26 529F      		mul r21,r18
 2983 0e28 900D      		add r25,r0
 2984 0e2a 1124      		clr r1
 2985 0e2c E80F      		add r30,r24
 2986 0e2e F91F      		adc r31,r25
 2987 0e30 25A9      		ldd r18,Z+53
 2988 0e32 36A9      		ldd r19,Z+54
 2989 0e34 47A9      		ldd r20,Z+55
 2990 0e36 50AD      		ldd r21,Z+56
 2991               	.LVL183:
 2992 0e38 81A9      		ldd r24,Z+49
 2993 0e3a 92A9      		ldd r25,Z+50
 2994 0e3c A3A9      		ldd r26,Z+51
 2995 0e3e B4A9      		ldd r27,Z+52
 2996 0e40 281B      		sub r18,r24
 2997 0e42 390B      		sbc r19,r25
 2998 0e44 4A0B      		sbc r20,r26
 2999 0e46 5B0B      		sbc r21,r27
 3000 0e48 57FF      		sbrs r21,7
 3001 0e4a 00C0      		rjmp .L145
 3002 0e4c 20E0      		ldi r18,lo8(0)
 3003 0e4e 30E0      		ldi r19,hi8(0)
 3004 0e50 40E0      		ldi r20,hlo8(0)
 3005 0e52 50E0      		ldi r21,hhi8(0)
 3006               	.L145:
 3007               	.LM328:
 3008 0e54 B901      		movw r22,r18
 3009               	.LVL184:
 3010 0e56 CA01      		movw r24,r20
 3011               	/* epilogue start */
 3012 0e58 0895      		ret
 3013               	.LFE55:
 3015               	.global	Timebase_UpCounter_SS_Period_Value_Expired
 3017               	Timebase_UpCounter_SS_Period_Value_Expired:
 3018               	.LFB56:
 3019               	.LM329:
 3020               	.LVL185:
 3021 0e5a CF93      		push r28
 3022 0e5c DF93      		push r29
 3023               	/* prologue: function */
 3024               	/* frame size = 0 */
 3025               	.LBB719:
 3026               	.LBB720:
 3027               	.LBB721:
 3028               	.LBB722:
 3029               	.LM330:
 3030 0e5e C091 0000 		lds r28,Timebase
 3031 0e62 D091 0000 		lds r29,(Timebase)+1
 3032 0e66 682F      		mov r22,r24
 3033 0e68 70E0      		ldi r23,lo8(0)
 3034               	.LBE722:
 3035               	.LBE721:
 3036               	.LM331:
 3037 0e6a 89E1      		ldi r24,lo8(25)
 3038 0e6c 90E0      		ldi r25,hi8(25)
 3039               	.LVL186:
 3040 0e6e 689F      		mul r22,r24
 3041 0e70 F001      		movw r30,r0
 3042 0e72 699F      		mul r22,r25
 3043 0e74 F00D      		add r31,r0
 3044 0e76 789F      		mul r23,r24
 3045 0e78 F00D      		add r31,r0
 3046 0e7a 1124      		clr r1
 3047 0e7c EC0F      		add r30,r28
 3048 0e7e FD1F      		adc r31,r29
 3049 0e80 25A9      		ldd r18,Z+53
 3050 0e82 36A9      		ldd r19,Z+54
 3051 0e84 47A9      		ldd r20,Z+55
 3052 0e86 50AD      		ldd r21,Z+56
 3053               	.LVL187:
 3054 0e88 81A9      		ldd r24,Z+49
 3055 0e8a 92A9      		ldd r25,Z+50
 3056 0e8c A3A9      		ldd r26,Z+51
 3057 0e8e B4A9      		ldd r27,Z+52
 3058 0e90 281B      		sub r18,r24
 3059 0e92 390B      		sbc r19,r25
 3060 0e94 4A0B      		sbc r20,r26
 3061 0e96 5B0B      		sbc r21,r27
 3062               	.LM332:
 3063 0e98 57FD      		sbrc r21,7
 3064 0e9a 00C0      		rjmp .L148
 3065               	.LBE720:
 3066               	.LBE719:
 3067               	.LM333:
 3068 0e9c 2115      		cp r18,__zero_reg__
 3069 0e9e 3105      		cpc r19,__zero_reg__
 3070 0ea0 4105      		cpc r20,__zero_reg__
 3071 0ea2 5105      		cpc r21,__zero_reg__
 3072 0ea4 01F0      		breq .L148
 3073 0ea6 20E0      		ldi r18,lo8(0)
 3074               	.LVL188:
 3075 0ea8 00C0      		rjmp .L149
 3076               	.LVL189:
 3077               	.L148:
 3078 0eaa 20E0      		ldi r18,lo8(0)
 3079               	.LVL190:
 3080 0eac 89E1      		ldi r24,lo8(25)
 3081 0eae 90E0      		ldi r25,hi8(25)
 3082 0eb0 AC01      		movw r20,r24
 3083 0eb2 649F      		mul r22,r20
 3084 0eb4 C001      		movw r24,r0
 3085 0eb6 659F      		mul r22,r21
 3086 0eb8 900D      		add r25,r0
 3087 0eba 749F      		mul r23,r20
 3088 0ebc 900D      		add r25,r0
 3089 0ebe 1124      		clr r1
 3090 0ec0 C80F      		add r28,r24
 3091 0ec2 D91F      		adc r29,r25
 3092 0ec4 88A1      		ldd r24,Y+32
 3093 0ec6 80FF      		sbrs r24,0
 3094 0ec8 21E0      		ldi r18,lo8(1)
 3095               	.L150:
 3096 0eca 81E0      		ldi r24,lo8(1)
 3097 0ecc 2827      		eor r18,r24
 3098               	.L149:
 3099               	.LM334:
 3100 0ece 822F      		mov r24,r18
 3101               	/* epilogue start */
 3102 0ed0 DF91      		pop r29
 3103 0ed2 CF91      		pop r28
 3104 0ed4 0895      		ret
 3105               	.LFE56:
 3107               	.global	Timebase_UpCounter_SS_Period_Value_Expired_Event
 3109               	Timebase_UpCounter_SS_Period_Value_Expired_Event:
 3110               	.LFB57:
 3111               	.LM335:
 3112               	.LVL191:
 3113 0ed6 1F93      		push r17
 3114               	/* prologue: function */
 3115               	/* frame size = 0 */
 3116 0ed8 182F      		mov r17,r24
 3117               	.LM336:
 3118 0eda 0E94 0000 		call Timebase_UpCounter_SS_Period_Value_Expired
 3119               	.LVL192:
 3120 0ede 8130      		cpi r24,lo8(1)
 3121 0ee0 01F0      		breq .L153
 3122 0ee2 80E0      		ldi r24,lo8(0)
 3123 0ee4 00C0      		rjmp .L154
 3124               	.L153:
 3125               	.LBB723:
 3126               	.LBB724:
 3127               	.LM337:
 3128 0ee6 E091 0000 		lds r30,Timebase
 3129 0eea F091 0000 		lds r31,(Timebase)+1
 3130 0eee 212F      		mov r18,r17
 3131 0ef0 30E0      		ldi r19,lo8(0)
 3132               	.LVL193:
 3133 0ef2 89E1      		ldi r24,lo8(25)
 3134 0ef4 90E0      		ldi r25,hi8(25)
 3135 0ef6 AC01      		movw r20,r24
 3136 0ef8 249F      		mul r18,r20
 3137 0efa C001      		movw r24,r0
 3138 0efc 259F      		mul r18,r21
 3139 0efe 900D      		add r25,r0
 3140 0f00 349F      		mul r19,r20
 3141 0f02 900D      		add r25,r0
 3142 0f04 1124      		clr r1
 3143 0f06 E80F      		add r30,r24
 3144 0f08 F91F      		adc r31,r25
 3145 0f0a 80A1      		ldd r24,Z+32
 3146 0f0c 8E7F      		andi r24,lo8(-2)
 3147 0f0e 80A3      		std Z+32,r24
 3148 0f10 81E0      		ldi r24,lo8(1)
 3149               	.L154:
 3150               	/* epilogue start */
 3151               	.LBE724:
 3152               	.LBE723:
 3153               	.LM338:
 3154 0f12 1F91      		pop r17
 3155               	.LVL194:
 3156 0f14 0895      		ret
 3157               	.LFE57:
 3159               	.global	Timebase_UpCounter_SS_Update_All
 3161               	Timebase_UpCounter_SS_Update_All:
 3162               	.LFB58:
 3163               	.LM339:
 3164               	/* prologue: function */
 3165               	/* frame size = 0 */
 3166               	.LBB725:
 3167               	.LM340:
 3168 0f16 80E0      		ldi r24,lo8(0)
 3169 0f18 0E94 0000 		call Timebase_UpCounter_SS_Update
 3170               	/* epilogue start */
 3171               	.LBE725:
 3172               	.LM341:
 3173 0f1c 0895      		ret
 3174               	.LFE58:
 3176               	.global	Timebase_UpCounter_SS_Reset_All
 3178               	Timebase_UpCounter_SS_Reset_All:
 3179               	.LFB59:
 3180               	.LM342:
 3181               	/* prologue: function */
 3182               	/* frame size = 0 */
 3183               	.LBB726:
 3184               	.LM343:
 3185 0f1e 80E0      		ldi r24,lo8(0)
 3186 0f20 0E94 0000 		call Timebase_UpCounter_SS_Reset
 3187               	/* epilogue start */
 3188               	.LBE726:
 3189               	.LM344:
 3190 0f24 0895      		ret
 3191               	.LFE59:
 3193               	.global	Timebase_UpCounter_Get_Status
 3195               	Timebase_UpCounter_Get_Status:
 3196               	.LFB60:
 3197               	.LM345:
 3198               	.LVL195:
 3199               	/* prologue: function */
 3200               	/* frame size = 0 */
 3201               	.LM346:
 3202 0f26 E091 0000 		lds r30,Timebase
 3203 0f2a F091 0000 		lds r31,(Timebase)+1
 3204 0f2e 90E0      		ldi r25,lo8(0)
 3205               	.LVL196:
 3206 0f30 25E1      		ldi r18,lo8(21)
 3207 0f32 30E0      		ldi r19,hi8(21)
 3208 0f34 AC01      		movw r20,r24
 3209 0f36 429F      		mul r20,r18
 3210 0f38 C001      		movw r24,r0
 3211 0f3a 439F      		mul r20,r19
 3212 0f3c 900D      		add r25,r0
 3213 0f3e 529F      		mul r21,r18
 3214 0f40 900D      		add r25,r0
 3215 0f42 1124      		clr r1
 3216               	.LVL197:
 3217 0f44 E80F      		add r30,r24
 3218 0f46 F91F      		adc r31,r25
 3219 0f48 81AD      		ldd r24,Z+57
 3220 0f4a 8695      		lsr r24
 3221               	.LM347:
 3222 0f4c 8F70      		andi r24,lo8(15)
 3223               	/* epilogue start */
 3224 0f4e 0895      		ret
 3225               	.LFE60:
 3227               	.global	Timebase_UpCounter_Set_Status
 3229               	Timebase_UpCounter_Set_Status:
 3230               	.LFB61:
 3231               	.LM348:
 3232               	.LVL198:
 3233               	/* prologue: function */
 3234               	/* frame size = 0 */
 3235               	.LM349:
 3236 0f50 E091 0000 		lds r30,Timebase
 3237 0f54 F091 0000 		lds r31,(Timebase)+1
 3238 0f58 90E0      		ldi r25,lo8(0)
 3239               	.LVL199:
 3240 0f5a 25E1      		ldi r18,lo8(21)
 3241 0f5c 30E0      		ldi r19,hi8(21)
 3242 0f5e AC01      		movw r20,r24
 3243 0f60 429F      		mul r20,r18
 3244 0f62 C001      		movw r24,r0
 3245 0f64 439F      		mul r20,r19
 3246 0f66 900D      		add r25,r0
 3247 0f68 529F      		mul r21,r18
 3248 0f6a 900D      		add r25,r0
 3249 0f6c 1124      		clr r1
 3250               	.LVL200:
 3251 0f6e E80F      		add r30,r24
 3252 0f70 F91F      		adc r31,r25
 3253 0f72 6F70      		andi r22,lo8(15)
 3254               	.LVL201:
 3255 0f74 660F      		lsl r22
 3256 0f76 81AD      		ldd r24,Z+57
 3257 0f78 817E      		andi r24,lo8(-31)
 3258 0f7a 862B      		or r24,r22
 3259 0f7c 81AF      		std Z+57,r24
 3260               	/* epilogue start */
 3261               	.LM350:
 3262 0f7e 0895      		ret
 3263               	.LFE61:
 3265               	.global	Timebase_UpCounter_Get_Value
 3267               	Timebase_UpCounter_Get_Value:
 3268               	.LFB62:
 3269               	.LM351:
 3270               	.LVL202:
 3271               	/* prologue: function */
 3272               	/* frame size = 0 */
 3273               	.LM352:
 3274 0f80 E091 0000 		lds r30,Timebase
 3275 0f84 F091 0000 		lds r31,(Timebase)+1
 3276 0f88 90E0      		ldi r25,lo8(0)
 3277               	.LVL203:
 3278 0f8a 25E1      		ldi r18,lo8(21)
 3279 0f8c 30E0      		ldi r19,hi8(21)
 3280 0f8e AC01      		movw r20,r24
 3281 0f90 429F      		mul r20,r18
 3282 0f92 C001      		movw r24,r0
 3283 0f94 439F      		mul r20,r19
 3284 0f96 900D      		add r25,r0
 3285 0f98 529F      		mul r21,r18
 3286 0f9a 900D      		add r25,r0
 3287 0f9c 1124      		clr r1
 3288               	.LVL204:
 3289 0f9e E80F      		add r30,r24
 3290 0fa0 F91F      		adc r31,r25
 3291 0fa2 EA5B      		subi r30,lo8(-(70))
 3292 0fa4 FF4F      		sbci r31,hi8(-(70))
 3293 0fa6 6081      		ld r22,Z
 3294 0fa8 7181      		ldd r23,Z+1
 3295               	.LM353:
 3296 0faa 8281      		ldd r24,Z+2
 3297 0fac 9381      		ldd r25,Z+3
 3298               	.LVL205:
 3299               	/* epilogue start */
 3300 0fae 0895      		ret
 3301               	.LFE62:
 3303               	.global	Timebase_UpCounter_Set_Value
 3305               	Timebase_UpCounter_Set_Value:
 3306               	.LFB63:
 3307               	.LM354:
 3308               	.LVL206:
 3309               	/* prologue: function */
 3310               	/* frame size = 0 */
 3311               	.LM355:
 3312 0fb0 E091 0000 		lds r30,Timebase
 3313 0fb4 F091 0000 		lds r31,(Timebase)+1
 3314 0fb8 90E0      		ldi r25,lo8(0)
 3315               	.LVL207:
 3316 0fba 25E1      		ldi r18,lo8(21)
 3317 0fbc 30E0      		ldi r19,hi8(21)
 3318 0fbe DC01      		movw r26,r24
 3319 0fc0 A29F      		mul r26,r18
 3320 0fc2 C001      		movw r24,r0
 3321 0fc4 A39F      		mul r26,r19
 3322 0fc6 900D      		add r25,r0
 3323 0fc8 B29F      		mul r27,r18
 3324 0fca 900D      		add r25,r0
 3325 0fcc 1124      		clr r1
 3326               	.LVL208:
 3327 0fce E80F      		add r30,r24
 3328 0fd0 F91F      		adc r31,r25
 3329 0fd2 EA5B      		subi r30,lo8(-(70))
 3330 0fd4 FF4F      		sbci r31,hi8(-(70))
 3331 0fd6 4083      		st Z,r20
 3332 0fd8 5183      		std Z+1,r21
 3333 0fda 6283      		std Z+2,r22
 3334 0fdc 7383      		std Z+3,r23
 3335               	/* epilogue start */
 3336               	.LM356:
 3337 0fde 0895      		ret
 3338               	.LFE63:
 3340               	.global	Timebase_UpCounter_Get_EndValue
 3342               	Timebase_UpCounter_Get_EndValue:
 3343               	.LFB64:
 3344               	.LM357:
 3345               	.LVL209:
 3346               	/* prologue: function */
 3347               	/* frame size = 0 */
 3348               	.LM358:
 3349 0fe0 E091 0000 		lds r30,Timebase
 3350 0fe4 F091 0000 		lds r31,(Timebase)+1
 3351 0fe8 90E0      		ldi r25,lo8(0)
 3352               	.LVL210:
 3353 0fea 25E1      		ldi r18,lo8(21)
 3354 0fec 30E0      		ldi r19,hi8(21)
 3355 0fee AC01      		movw r20,r24
 3356 0ff0 429F      		mul r20,r18
 3357 0ff2 C001      		movw r24,r0
 3358 0ff4 439F      		mul r20,r19
 3359 0ff6 900D      		add r25,r0
 3360 0ff8 529F      		mul r21,r18
 3361 0ffa 900D      		add r25,r0
 3362 0ffc 1124      		clr r1
 3363               	.LVL211:
 3364 0ffe E80F      		add r30,r24
 3365 1000 F91F      		adc r31,r25
 3366 1002 DF01      		movw r26,r30
 3367 1004 DA96      		adiw r26,58
 3368 1006 62AD      		ldd r22,Z+58
 3369 1008 1196      		adiw r26,1
 3370 100a 7C91      		ld r23,X
 3371 100c 1197      		sbiw r26,1
 3372               	.LM359:
 3373 100e 1296      		adiw r26,2
 3374 1010 8C91      		ld r24,X
 3375 1012 1297      		sbiw r26,2
 3376 1014 1396      		adiw r26,3
 3377 1016 9C91      		ld r25,X
 3378               	.LVL212:
 3379               	/* epilogue start */
 3380 1018 0895      		ret
 3381               	.LFE64:
 3383               	.global	Timebase_UpCounter_Set_EndValue
 3385               	Timebase_UpCounter_Set_EndValue:
 3386               	.LFB65:
 3387               	.LM360:
 3388               	.LVL213:
 3389               	/* prologue: function */
 3390               	/* frame size = 0 */
 3391               	.LM361:
 3392 101a E091 0000 		lds r30,Timebase
 3393 101e F091 0000 		lds r31,(Timebase)+1
 3394 1022 90E0      		ldi r25,lo8(0)
 3395               	.LVL214:
 3396 1024 25E1      		ldi r18,lo8(21)
 3397 1026 30E0      		ldi r19,hi8(21)
 3398 1028 DC01      		movw r26,r24
 3399 102a A29F      		mul r26,r18
 3400 102c C001      		movw r24,r0
 3401 102e A39F      		mul r26,r19
 3402 1030 900D      		add r25,r0
 3403 1032 B29F      		mul r27,r18
 3404 1034 900D      		add r25,r0
 3405 1036 1124      		clr r1
 3406               	.LVL215:
 3407 1038 E80F      		add r30,r24
 3408 103a F91F      		adc r31,r25
 3409 103c 42AF      		std Z+58,r20
 3410 103e 53AF      		std Z+59,r21
 3411 1040 64AF      		std Z+60,r22
 3412 1042 75AF      		std Z+61,r23
 3413               	/* epilogue start */
 3414               	.LM362:
 3415 1044 0895      		ret
 3416               	.LFE65:
 3418               	.global	Timebase_UpCounter_Get_TargetValue
 3420               	Timebase_UpCounter_Get_TargetValue:
 3421               	.LFB66:
 3422               	.LM363:
 3423               	.LVL216:
 3424               	/* prologue: function */
 3425               	/* frame size = 0 */
 3426               	.LM364:
 3427 1046 E091 0000 		lds r30,Timebase
 3428 104a F091 0000 		lds r31,(Timebase)+1
 3429 104e 90E0      		ldi r25,lo8(0)
 3430               	.LVL217:
 3431 1050 25E1      		ldi r18,lo8(21)
 3432 1052 30E0      		ldi r19,hi8(21)
 3433 1054 AC01      		movw r20,r24
 3434 1056 429F      		mul r20,r18
 3435 1058 C001      		movw r24,r0
 3436 105a 439F      		mul r20,r19
 3437 105c 900D      		add r25,r0
 3438 105e 529F      		mul r21,r18
 3439 1060 900D      		add r25,r0
 3440 1062 1124      		clr r1
 3441               	.LVL218:
 3442 1064 E80F      		add r30,r24
 3443 1066 F91F      		adc r31,r25
 3444 1068 FE96      		adiw r30,62
 3445 106a 6081      		ld r22,Z
 3446 106c 7181      		ldd r23,Z+1
 3447               	.LM365:
 3448 106e 8281      		ldd r24,Z+2
 3449 1070 9381      		ldd r25,Z+3
 3450               	.LVL219:
 3451               	/* epilogue start */
 3452 1072 0895      		ret
 3453               	.LFE66:
 3455               	.global	Timebase_UpCounter_Set_TargetValue
 3457               	Timebase_UpCounter_Set_TargetValue:
 3458               	.LFB67:
 3459               	.LM366:
 3460               	.LVL220:
 3461               	/* prologue: function */
 3462               	/* frame size = 0 */
 3463               	.LM367:
 3464 1074 E091 0000 		lds r30,Timebase
 3465 1078 F091 0000 		lds r31,(Timebase)+1
 3466 107c 90E0      		ldi r25,lo8(0)
 3467               	.LVL221:
 3468 107e 25E1      		ldi r18,lo8(21)
 3469 1080 30E0      		ldi r19,hi8(21)
 3470 1082 DC01      		movw r26,r24
 3471 1084 A29F      		mul r26,r18
 3472 1086 C001      		movw r24,r0
 3473 1088 A39F      		mul r26,r19
 3474 108a 900D      		add r25,r0
 3475 108c B29F      		mul r27,r18
 3476 108e 900D      		add r25,r0
 3477 1090 1124      		clr r1
 3478               	.LVL222:
 3479 1092 E80F      		add r30,r24
 3480 1094 F91F      		adc r31,r25
 3481 1096 FE96      		adiw r30,62
 3482 1098 4083      		st Z,r20
 3483 109a 5183      		std Z+1,r21
 3484 109c 6283      		std Z+2,r22
 3485 109e 7383      		std Z+3,r23
 3486               	/* epilogue start */
 3487               	.LM368:
 3488 10a0 0895      		ret
 3489               	.LFE67:
 3491               	.global	Timebase_UpCounter_Get_TemporaryValue
 3493               	Timebase_UpCounter_Get_TemporaryValue:
 3494               	.LFB68:
 3495               	.LM369:
 3496               	.LVL223:
 3497               	/* prologue: function */
 3498               	/* frame size = 0 */
 3499               	.LM370:
 3500 10a2 E091 0000 		lds r30,Timebase
 3501 10a6 F091 0000 		lds r31,(Timebase)+1
 3502 10aa 90E0      		ldi r25,lo8(0)
 3503               	.LVL224:
 3504 10ac 25E1      		ldi r18,lo8(21)
 3505 10ae 30E0      		ldi r19,hi8(21)
 3506 10b0 AC01      		movw r20,r24
 3507 10b2 429F      		mul r20,r18
 3508 10b4 C001      		movw r24,r0
 3509 10b6 439F      		mul r20,r19
 3510 10b8 900D      		add r25,r0
 3511 10ba 529F      		mul r21,r18
 3512 10bc 900D      		add r25,r0
 3513 10be 1124      		clr r1
 3514               	.LVL225:
 3515 10c0 E80F      		add r30,r24
 3516 10c2 F91F      		adc r31,r25
 3517 10c4 EE5B      		subi r30,lo8(-(66))
 3518 10c6 FF4F      		sbci r31,hi8(-(66))
 3519 10c8 6081      		ld r22,Z
 3520 10ca 7181      		ldd r23,Z+1
 3521               	.LM371:
 3522 10cc 8281      		ldd r24,Z+2
 3523 10ce 9381      		ldd r25,Z+3
 3524               	.LVL226:
 3525               	/* epilogue start */
 3526 10d0 0895      		ret
 3527               	.LFE68:
 3529               	.global	Timebase_UpCounter_Set_TemporaryValue
 3531               	Timebase_UpCounter_Set_TemporaryValue:
 3532               	.LFB69:
 3533               	.LM372:
 3534               	.LVL227:
 3535               	/* prologue: function */
 3536               	/* frame size = 0 */
 3537               	.LM373:
 3538 10d2 E091 0000 		lds r30,Timebase
 3539 10d6 F091 0000 		lds r31,(Timebase)+1
 3540 10da 90E0      		ldi r25,lo8(0)
 3541               	.LVL228:
 3542 10dc 25E1      		ldi r18,lo8(21)
 3543 10de 30E0      		ldi r19,hi8(21)
 3544 10e0 DC01      		movw r26,r24
 3545 10e2 A29F      		mul r26,r18
 3546 10e4 C001      		movw r24,r0
 3547 10e6 A39F      		mul r26,r19
 3548 10e8 900D      		add r25,r0
 3549 10ea B29F      		mul r27,r18
 3550 10ec 900D      		add r25,r0
 3551 10ee 1124      		clr r1
 3552               	.LVL229:
 3553 10f0 E80F      		add r30,r24
 3554 10f2 F91F      		adc r31,r25
 3555 10f4 EE5B      		subi r30,lo8(-(66))
 3556 10f6 FF4F      		sbci r31,hi8(-(66))
 3557 10f8 4083      		st Z,r20
 3558 10fa 5183      		std Z+1,r21
 3559 10fc 6283      		std Z+2,r22
 3560 10fe 7383      		std Z+3,r23
 3561               	/* epilogue start */
 3562               	.LM374:
 3563 1100 0895      		ret
 3564               	.LFE69:
 3566               	.global	Timebase_UpCounter_Get_PeriodValue
 3568               	Timebase_UpCounter_Get_PeriodValue:
 3569               	.LFB70:
 3570               	.LM375:
 3571               	.LVL230:
 3572               	/* prologue: function */
 3573               	/* frame size = 0 */
 3574               	.LM376:
 3575 1102 E091 0000 		lds r30,Timebase
 3576 1106 F091 0000 		lds r31,(Timebase)+1
 3577 110a 90E0      		ldi r25,lo8(0)
 3578               	.LVL231:
 3579 110c 25E1      		ldi r18,lo8(21)
 3580 110e 30E0      		ldi r19,hi8(21)
 3581 1110 AC01      		movw r20,r24
 3582 1112 429F      		mul r20,r18
 3583 1114 C001      		movw r24,r0
 3584 1116 439F      		mul r20,r19
 3585 1118 900D      		add r25,r0
 3586 111a 529F      		mul r21,r18
 3587 111c 900D      		add r25,r0
 3588 111e 1124      		clr r1
 3589               	.LVL232:
 3590 1120 E80F      		add r30,r24
 3591 1122 F91F      		adc r31,r25
 3592 1124 E65B      		subi r30,lo8(-(74))
 3593 1126 FF4F      		sbci r31,hi8(-(74))
 3594 1128 6081      		ld r22,Z
 3595 112a 7181      		ldd r23,Z+1
 3596               	.LM377:
 3597 112c 8281      		ldd r24,Z+2
 3598 112e 9381      		ldd r25,Z+3
 3599               	.LVL233:
 3600               	/* epilogue start */
 3601 1130 0895      		ret
 3602               	.LFE70:
 3604               	.global	Timebase_UpCounter_Set_PeriodValue
 3606               	Timebase_UpCounter_Set_PeriodValue:
 3607               	.LFB71:
 3608               	.LM378:
 3609               	.LVL234:
 3610               	/* prologue: function */
 3611               	/* frame size = 0 */
 3612               	.LM379:
 3613 1132 E091 0000 		lds r30,Timebase
 3614 1136 F091 0000 		lds r31,(Timebase)+1
 3615 113a 90E0      		ldi r25,lo8(0)
 3616               	.LVL235:
 3617 113c 25E1      		ldi r18,lo8(21)
 3618 113e 30E0      		ldi r19,hi8(21)
 3619 1140 DC01      		movw r26,r24
 3620 1142 A29F      		mul r26,r18
 3621 1144 C001      		movw r24,r0
 3622 1146 A39F      		mul r26,r19
 3623 1148 900D      		add r25,r0
 3624 114a B29F      		mul r27,r18
 3625 114c 900D      		add r25,r0
 3626 114e 1124      		clr r1
 3627               	.LVL236:
 3628 1150 E80F      		add r30,r24
 3629 1152 F91F      		adc r31,r25
 3630 1154 E65B      		subi r30,lo8(-(74))
 3631 1156 FF4F      		sbci r31,hi8(-(74))
 3632 1158 4083      		st Z,r20
 3633 115a 5183      		std Z+1,r21
 3634 115c 6283      		std Z+2,r22
 3635 115e 7383      		std Z+3,r23
 3636               	/* epilogue start */
 3637               	.LM380:
 3638 1160 0895      		ret
 3639               	.LFE71:
 3641               	.global	Timebase_UpCounter_Get_Period_Flag
 3643               	Timebase_UpCounter_Get_Period_Flag:
 3644               	.LFB72:
 3645               	.LM381:
 3646               	.LVL237:
 3647               	/* prologue: function */
 3648               	/* frame size = 0 */
 3649               	.LM382:
 3650 1162 E091 0000 		lds r30,Timebase
 3651 1166 F091 0000 		lds r31,(Timebase)+1
 3652 116a 90E0      		ldi r25,lo8(0)
 3653               	.LVL238:
 3654 116c 25E1      		ldi r18,lo8(21)
 3655 116e 30E0      		ldi r19,hi8(21)
 3656 1170 AC01      		movw r20,r24
 3657 1172 429F      		mul r20,r18
 3658 1174 C001      		movw r24,r0
 3659 1176 439F      		mul r20,r19
 3660 1178 900D      		add r25,r0
 3661 117a 529F      		mul r21,r18
 3662 117c 900D      		add r25,r0
 3663 117e 1124      		clr r1
 3664               	.LVL239:
 3665 1180 E80F      		add r30,r24
 3666 1182 F91F      		adc r31,r25
 3667 1184 81AD      		ldd r24,Z+57
 3668               	.LM383:
 3669 1186 8170      		andi r24,lo8(1)
 3670               	/* epilogue start */
 3671 1188 0895      		ret
 3672               	.LFE72:
 3674               	.global	Timebase_UpCounter_Set_Period_Flag
 3676               	Timebase_UpCounter_Set_Period_Flag:
 3677               	.LFB73:
 3678               	.LM384:
 3679               	.LVL240:
 3680               	/* prologue: function */
 3681               	/* frame size = 0 */
 3682               	.LM385:
 3683 118a E091 0000 		lds r30,Timebase
 3684 118e F091 0000 		lds r31,(Timebase)+1
 3685 1192 90E0      		ldi r25,lo8(0)
 3686               	.LVL241:
 3687 1194 25E1      		ldi r18,lo8(21)
 3688 1196 30E0      		ldi r19,hi8(21)
 3689 1198 AC01      		movw r20,r24
 3690 119a 429F      		mul r20,r18
 3691 119c C001      		movw r24,r0
 3692 119e 439F      		mul r20,r19
 3693 11a0 900D      		add r25,r0
 3694 11a2 529F      		mul r21,r18
 3695 11a4 900D      		add r25,r0
 3696 11a6 1124      		clr r1
 3697               	.LVL242:
 3698 11a8 E80F      		add r30,r24
 3699 11aa F91F      		adc r31,r25
 3700 11ac 81AD      		ldd r24,Z+57
 3701 11ae 8160      		ori r24,lo8(1)
 3702 11b0 81AF      		std Z+57,r24
 3703               	/* epilogue start */
 3704               	.LM386:
 3705 11b2 0895      		ret
 3706               	.LFE73:
 3708               	.global	Timebase_UpCounter_Clear_Period_Flag
 3710               	Timebase_UpCounter_Clear_Period_Flag:
 3711               	.LFB74:
 3712               	.LM387:
 3713               	.LVL243:
 3714               	/* prologue: function */
 3715               	/* frame size = 0 */
 3716               	.LM388:
 3717 11b4 E091 0000 		lds r30,Timebase
 3718 11b8 F091 0000 		lds r31,(Timebase)+1
 3719 11bc 90E0      		ldi r25,lo8(0)
 3720               	.LVL244:
 3721 11be 25E1      		ldi r18,lo8(21)
 3722 11c0 30E0      		ldi r19,hi8(21)
 3723 11c2 AC01      		movw r20,r24
 3724 11c4 429F      		mul r20,r18
 3725 11c6 C001      		movw r24,r0
 3726 11c8 439F      		mul r20,r19
 3727 11ca 900D      		add r25,r0
 3728 11cc 529F      		mul r21,r18
 3729 11ce 900D      		add r25,r0
 3730 11d0 1124      		clr r1
 3731               	.LVL245:
 3732 11d2 E80F      		add r30,r24
 3733 11d4 F91F      		adc r31,r25
 3734 11d6 81AD      		ldd r24,Z+57
 3735 11d8 8E7F      		andi r24,lo8(-2)
 3736 11da 81AF      		std Z+57,r24
 3737               	/* epilogue start */
 3738               	.LM389:
 3739 11dc 0895      		ret
 3740               	.LFE74:
 3742               	.global	Timebase_UpCounter_Reset
 3744               	Timebase_UpCounter_Reset:
 3745               	.LFB75:
 3746               	.LM390:
 3747               	.LVL246:
 3748               	/* prologue: function */
 3749               	/* frame size = 0 */
 3750               	.LBB727:
 3751               	.LBB728:
 3752               	.LM391:
 3753 11de E091 0000 		lds r30,Timebase
 3754 11e2 F091 0000 		lds r31,(Timebase)+1
 3755 11e6 90E0      		ldi r25,lo8(0)
 3756 11e8 25E1      		ldi r18,lo8(21)
 3757 11ea 30E0      		ldi r19,hi8(21)
 3758 11ec AC01      		movw r20,r24
 3759               	.LVL247:
 3760 11ee 429F      		mul r20,r18
 3761 11f0 C001      		movw r24,r0
 3762 11f2 439F      		mul r20,r19
 3763 11f4 900D      		add r25,r0
 3764 11f6 529F      		mul r21,r18
 3765 11f8 900D      		add r25,r0
 3766 11fa 1124      		clr r1
 3767 11fc E80F      		add r30,r24
 3768 11fe F91F      		adc r31,r25
 3769 1200 81AD      		ldd r24,Z+57
 3770               	.LBE728:
 3771               	.LBE727:
 3772               	.LBB729:
 3773               	.LBB730:
 3774               	.LM392:
 3775 1202 EA5B      		subi r30,lo8(-(70))
 3776 1204 FF4F      		sbci r31,hi8(-(70))
 3777 1206 1082      		st Z,__zero_reg__
 3778 1208 1182      		std Z+1,__zero_reg__
 3779 120a 1282      		std Z+2,__zero_reg__
 3780 120c 1382      		std Z+3,__zero_reg__
 3781 120e E654      		subi r30,lo8(-(-70))
 3782 1210 F040      		sbci r31,hi8(-(-70))
 3783               	.LBE730:
 3784               	.LBE729:
 3785               	.LBB731:
 3786               	.LBB732:
 3787               	.LM393:
 3788 1212 12AE      		std Z+58,__zero_reg__
 3789 1214 13AE      		std Z+59,__zero_reg__
 3790 1216 14AE      		std Z+60,__zero_reg__
 3791 1218 15AE      		std Z+61,__zero_reg__
 3792               	.LBE732:
 3793               	.LBE731:
 3794               	.LBB733:
 3795               	.LBB734:
 3796               	.LM394:
 3797 121a FE96      		adiw r30,62
 3798 121c 1192      		st Z+,__zero_reg__
 3799 121e 1192      		st Z+,__zero_reg__
 3800 1220 1192      		st Z+,__zero_reg__
 3801 1222 1192      		st Z+,__zero_reg__
 3802               	.LBE734:
 3803               	.LBE733:
 3804               	.LBB735:
 3805               	.LBB736:
 3806               	.LM395:
 3807 1224 1082      		st Z,__zero_reg__
 3808 1226 1182      		std Z+1,__zero_reg__
 3809 1228 1282      		std Z+2,__zero_reg__
 3810 122a 1382      		std Z+3,__zero_reg__
 3811               	.LBE736:
 3812               	.LBE735:
 3813               	.LBB737:
 3814               	.LBB738:
 3815               	.LM396:
 3816 122c 3896      		adiw r30,8
 3817 122e 1082      		st Z,__zero_reg__
 3818 1230 1182      		std Z+1,__zero_reg__
 3819 1232 1282      		std Z+2,__zero_reg__
 3820 1234 1382      		std Z+3,__zero_reg__
 3821 1236 EA54      		subi r30,lo8(-(-74))
 3822 1238 F040      		sbci r31,hi8(-(-74))
 3823               	.LBE738:
 3824               	.LBE737:
 3825               	.LBB739:
 3826               	.LBB740:
 3827               	.LM397:
 3828 123a 807E      		andi r24,lo8(-32)
 3829 123c 81AF      		std Z+57,r24
 3830               	/* epilogue start */
 3831               	.LBE740:
 3832               	.LBE739:
 3833               	.LM398:
 3834 123e 0895      		ret
 3835               	.LFE75:
 3837               	.global	Timebase_UpCounter_Clear_All_Flags
 3839               	Timebase_UpCounter_Clear_All_Flags:
 3840               	.LFB76:
 3841               	.LM399:
 3842               	.LVL248:
 3843               	/* prologue: function */
 3844               	/* frame size = 0 */
 3845               	.LM400:
 3846 1240 0E94 0000 		call Timebase_UpCounter_Reset
 3847               	.LVL249:
 3848               	/* epilogue start */
 3849               	.LM401:
 3850 1244 0895      		ret
 3851               	.LFE76:
 3853               	.global	Timebase_UpCounter_Start
 3855               	Timebase_UpCounter_Start:
 3856               	.LFB77:
 3857               	.LM402:
 3858               	.LVL250:
 3859               	/* prologue: function */
 3860               	/* frame size = 0 */
 3861               	.LBB741:
 3862               	.LBB742:
 3863               	.LM403:
 3864 1246 E091 0000 		lds r30,Timebase
 3865 124a F091 0000 		lds r31,(Timebase)+1
 3866 124e 90E0      		ldi r25,lo8(0)
 3867               	.LBE742:
 3868               	.LBE741:
 3869               	.LM404:
 3870 1250 25E1      		ldi r18,lo8(21)
 3871 1252 30E0      		ldi r19,hi8(21)
 3872 1254 AC01      		movw r20,r24
 3873               	.LVL251:
 3874 1256 429F      		mul r20,r18
 3875 1258 C001      		movw r24,r0
 3876 125a 439F      		mul r20,r19
 3877 125c 900D      		add r25,r0
 3878 125e 529F      		mul r21,r18
 3879 1260 900D      		add r25,r0
 3880 1262 1124      		clr r1
 3881 1264 E80F      		add r30,r24
 3882 1266 F91F      		adc r31,r25
 3883 1268 91AD      		ldd r25,Z+57
 3884 126a 892F      		mov r24,r25
 3885 126c 8695      		lsr r24
 3886 126e 8F70      		andi r24,lo8(15)
 3887 1270 8130      		cpi r24,lo8(1)
 3888 1272 01F0      		breq .L196
 3889               	.LBB743:
 3890               	.LBB744:
 3891               	.LM405:
 3892 1274 917E      		andi r25,lo8(-31)
 3893 1276 9260      		ori r25,lo8(2)
 3894 1278 91AF      		std Z+57,r25
 3895               	.L196:
 3896 127a 0895      		ret
 3897               	.LBE744:
 3898               	.LBE743:
 3899               	.LFE77:
 3901               	.global	Timebase_UpCounter_Stop
 3903               	Timebase_UpCounter_Stop:
 3904               	.LFB78:
 3905               	.LM406:
 3906               	.LVL252:
 3907               	/* prologue: function */
 3908               	/* frame size = 0 */
 3909               	.LBB745:
 3910               	.LBB746:
 3911               	.LM407:
 3912 127c E091 0000 		lds r30,Timebase
 3913 1280 F091 0000 		lds r31,(Timebase)+1
 3914 1284 90E0      		ldi r25,lo8(0)
 3915               	.LBE746:
 3916               	.LBE745:
 3917               	.LM408:
 3918 1286 25E1      		ldi r18,lo8(21)
 3919 1288 30E0      		ldi r19,hi8(21)
 3920 128a AC01      		movw r20,r24
 3921               	.LVL253:
 3922 128c 429F      		mul r20,r18
 3923 128e C001      		movw r24,r0
 3924 1290 439F      		mul r20,r19
 3925 1292 900D      		add r25,r0
 3926 1294 529F      		mul r21,r18
 3927 1296 900D      		add r25,r0
 3928 1298 1124      		clr r1
 3929 129a E80F      		add r30,r24
 3930 129c F91F      		adc r31,r25
 3931 129e 91AD      		ldd r25,Z+57
 3932 12a0 892F      		mov r24,r25
 3933 12a2 8695      		lsr r24
 3934 12a4 8F70      		andi r24,lo8(15)
 3935 12a6 8230      		cpi r24,lo8(2)
 3936 12a8 01F0      		breq .L199
 3937               	.LBB747:
 3938               	.LBB748:
 3939               	.LM409:
 3940 12aa 917E      		andi r25,lo8(-31)
 3941 12ac 9460      		ori r25,lo8(4)
 3942 12ae 91AF      		std Z+57,r25
 3943               	.L199:
 3944 12b0 0895      		ret
 3945               	.LBE748:
 3946               	.LBE747:
 3947               	.LFE78:
 3949               	.global	Timebase_UpCounter_Set_Securely
 3951               	Timebase_UpCounter_Set_Securely:
 3952               	.LFB79:
 3953               	.LM410:
 3954               	.LVL254:
 3955               	/* prologue: function */
 3956               	/* frame size = 0 */
 3957               	.LBB749:
 3958               	.LBB750:
 3959               	.LM411:
 3960 12b2 A091 0000 		lds r26,Timebase
 3961 12b6 B091 0000 		lds r27,(Timebase)+1
 3962 12ba 90E0      		ldi r25,lo8(0)
 3963               	.LBE750:
 3964               	.LBE749:
 3965               	.LM412:
 3966 12bc 25E1      		ldi r18,lo8(21)
 3967 12be 30E0      		ldi r19,hi8(21)
 3968 12c0 829F      		mul r24,r18
 3969 12c2 F001      		movw r30,r0
 3970 12c4 839F      		mul r24,r19
 3971 12c6 F00D      		add r31,r0
 3972 12c8 929F      		mul r25,r18
 3973 12ca F00D      		add r31,r0
 3974 12cc 1124      		clr r1
 3975               	.LVL255:
 3976 12ce EA0F      		add r30,r26
 3977 12d0 FB1F      		adc r31,r27
 3978 12d2 81AD      		ldd r24,Z+57
 3979 12d4 8695      		lsr r24
 3980 12d6 8F70      		andi r24,lo8(15)
 3981 12d8 01F4      		brne .L202
 3982               	.LBB751:
 3983               	.LBB752:
 3984               	.LM413:
 3985 12da EA5B      		subi r30,lo8(-(70))
 3986 12dc FF4F      		sbci r31,hi8(-(70))
 3987 12de 1082      		st Z,__zero_reg__
 3988 12e0 1182      		std Z+1,__zero_reg__
 3989 12e2 1282      		std Z+2,__zero_reg__
 3990 12e4 1382      		std Z+3,__zero_reg__
 3991               	.LBE752:
 3992               	.LBE751:
 3993               	.LBB753:
 3994               	.LBB754:
 3995               	.LM414:
 3996 12e6 1292      		st -Z,__zero_reg__
 3997 12e8 1292      		st -Z,__zero_reg__
 3998 12ea 1292      		st -Z,__zero_reg__
 3999 12ec 1292      		st -Z,__zero_reg__
 4000               	.LBE754:
 4001               	.LBE753:
 4002               	.LBB755:
 4003               	.LBB756:
 4004               	.LM415:
 4005 12ee 7293      		st -Z,r23
 4006 12f0 6293      		st -Z,r22
 4007 12f2 5293      		st -Z,r21
 4008 12f4 4293      		st -Z,r20
 4009 12f6 FE97      		sbiw r30,62
 4010               	.LBE756:
 4011               	.LBE755:
 4012               	.LBB757:
 4013               	.LBB758:
 4014               	.LM416:
 4015 12f8 1A96      		adiw r26,10
 4016 12fa 8D91      		ld r24,X+
 4017 12fc 9D91      		ld r25,X+
 4018 12fe 0D90      		ld __tmp_reg__,X+
 4019 1300 BC91      		ld r27,X
 4020 1302 A02D      		mov r26,__tmp_reg__
 4021               	.LVL256:
 4022               	.LBE758:
 4023               	.LBE757:
 4024               	.LBB759:
 4025               	.LBB760:
 4026               	.LM417:
 4027 1304 840F      		add r24,r20
 4028 1306 951F      		adc r25,r21
 4029 1308 A61F      		adc r26,r22
 4030 130a B71F      		adc r27,r23
 4031 130c 82AF      		std Z+58,r24
 4032 130e 93AF      		std Z+59,r25
 4033 1310 A4AF      		std Z+60,r26
 4034 1312 B5AF      		std Z+61,r27
 4035               	.LBE760:
 4036               	.LBE759:
 4037               	.LBB761:
 4038               	.LBB762:
 4039               	.LM418:
 4040 1314 91AD      		ldd r25,Z+57
 4041 1316 892F      		mov r24,r25
 4042               	.LVL257:
 4043 1318 8695      		lsr r24
 4044 131a 8F70      		andi r24,lo8(15)
 4045 131c 8130      		cpi r24,lo8(1)
 4046 131e 01F0      		breq .L202
 4047               	.LBB763:
 4048               	.LBB764:
 4049               	.LM419:
 4050 1320 917E      		andi r25,lo8(-31)
 4051 1322 9260      		ori r25,lo8(2)
 4052 1324 91AF      		std Z+57,r25
 4053               	.L202:
 4054 1326 0895      		ret
 4055               	.LBE764:
 4056               	.LBE763:
 4057               	.LBE762:
 4058               	.LBE761:
 4059               	.LFE79:
 4061               	.global	Timebase_UpCounter_Set_Forcefully
 4063               	Timebase_UpCounter_Set_Forcefully:
 4064               	.LFB80:
 4065               	.LM420:
 4066               	.LVL258:
 4067 1328 DF92      		push r13
 4068 132a EF92      		push r14
 4069 132c FF92      		push r15
 4070 132e 0F93      		push r16
 4071 1330 1F93      		push r17
 4072               	/* prologue: function */
 4073               	/* frame size = 0 */
 4074 1332 D82E      		mov r13,r24
 4075 1334 7A01      		movw r14,r20
 4076 1336 8B01      		movw r16,r22
 4077               	.LM421:
 4078 1338 0E94 0000 		call Timebase_UpCounter_Reset
 4079               	.LVL259:
 4080               	.LM422:
 4081 133c 8D2D      		mov r24,r13
 4082 133e B801      		movw r22,r16
 4083 1340 A701      		movw r20,r14
 4084 1342 0E94 0000 		call Timebase_UpCounter_Set_Securely
 4085               	/* epilogue start */
 4086               	.LM423:
 4087 1346 1F91      		pop r17
 4088 1348 0F91      		pop r16
 4089 134a FF90      		pop r15
 4090 134c EF90      		pop r14
 4091               	.LVL260:
 4092 134e DF90      		pop r13
 4093               	.LVL261:
 4094 1350 0895      		ret
 4095               	.LFE80:
 4097               	.global	Timebase_UpCounter_Update
 4099               	Timebase_UpCounter_Update:
 4100               	.LFB81:
 4101               	.LM424:
 4102               	.LVL262:
 4103 1352 EF92      		push r14
 4104 1354 FF92      		push r15
 4105 1356 0F93      		push r16
 4106 1358 1F93      		push r17
 4107 135a CF93      		push r28
 4108 135c DF93      		push r29
 4109               	/* prologue: function */
 4110               	/* frame size = 0 */
 4111               	.LBB765:
 4112               	.LBB766:
 4113               	.LM425:
 4114 135e A091 0000 		lds r26,Timebase
 4115 1362 B091 0000 		lds r27,(Timebase)+1
 4116 1366 90E0      		ldi r25,lo8(0)
 4117 1368 25E1      		ldi r18,lo8(21)
 4118 136a 30E0      		ldi r19,hi8(21)
 4119 136c 829F      		mul r24,r18
 4120 136e F001      		movw r30,r0
 4121 1370 839F      		mul r24,r19
 4122 1372 F00D      		add r31,r0
 4123 1374 929F      		mul r25,r18
 4124 1376 F00D      		add r31,r0
 4125 1378 1124      		clr r1
 4126               	.LVL263:
 4127 137a EA0F      		add r30,r26
 4128 137c FB1F      		adc r31,r27
 4129 137e 81AD      		ldd r24,Z+57
 4130 1380 8695      		lsr r24
 4131 1382 8F70      		andi r24,lo8(15)
 4132               	.LBE766:
 4133               	.LBE765:
 4134               	.LM426:
 4135 1384 8130      		cpi r24,lo8(1)
 4136 1386 01F0      		breq .+2
 4137 1388 00C0      		rjmp .L206
 4138               	.LBB767:
 4139               	.LBB768:
 4140               	.LM427:
 4141 138a 1A96      		adiw r26,10
 4142 138c 8D91      		ld r24,X+
 4143 138e 9D91      		ld r25,X+
 4144 1390 0D90      		ld __tmp_reg__,X+
 4145 1392 BC91      		ld r27,X
 4146 1394 A02D      		mov r26,__tmp_reg__
 4147               	.LVL264:
 4148               	.LBE768:
 4149               	.LBE767:
 4150               	.LM428:
 4151 1396 22AD      		ldd r18,Z+58
 4152 1398 33AD      		ldd r19,Z+59
 4153 139a 44AD      		ldd r20,Z+60
 4154 139c 55AD      		ldd r21,Z+61
 4155 139e 281B      		sub r18,r24
 4156 13a0 390B      		sbc r19,r25
 4157 13a2 4A0B      		sbc r20,r26
 4158 13a4 5B0B      		sbc r21,r27
 4159               	.LBB769:
 4160               	.LBB770:
 4161               	.LM429:
 4162 13a6 BF01      		movw r22,r30
 4163 13a8 6E5B      		subi r22,lo8(-(66))
 4164 13aa 7F4F      		sbci r23,hi8(-(66))
 4165 13ac DB01      		movw r26,r22
 4166 13ae 2D93      		st X+,r18
 4167 13b0 3D93      		st X+,r19
 4168 13b2 4D93      		st X+,r20
 4169 13b4 5C93      		st X,r21
 4170 13b6 1397      		sbiw r26,3
 4171               	.LBE770:
 4172               	.LBE769:
 4173               	.LBB771:
 4174               	.LBB772:
 4175               	.LM430:
 4176 13b8 EF01      		movw r28,r30
 4177 13ba CA5B      		subi r28,lo8(-(70))
 4178 13bc DF4F      		sbci r29,hi8(-(70))
 4179 13be FE96      		adiw r30,62
 4180 13c0 E080      		ld r14,Z
 4181 13c2 F180      		ldd r15,Z+1
 4182 13c4 0281      		ldd r16,Z+2
 4183 13c6 1381      		ldd r17,Z+3
 4184 13c8 FE97      		sbiw r30,62
 4185 13ca D801      		movw r26,r16
 4186 13cc C701      		movw r24,r14
 4187               	.LVL265:
 4188 13ce 821B      		sub r24,r18
 4189 13d0 930B      		sbc r25,r19
 4190 13d2 A40B      		sbc r26,r20
 4191 13d4 B50B      		sbc r27,r21
 4192 13d6 8883      		st Y,r24
 4193 13d8 9983      		std Y+1,r25
 4194 13da AA83      		std Y+2,r26
 4195 13dc BB83      		std Y+3,r27
 4196               	.LBE772:
 4197               	.LBE771:
 4198               	.LM431:
 4199 13de 1216      		cp __zero_reg__,r18
 4200 13e0 1306      		cpc __zero_reg__,r19
 4201 13e2 1406      		cpc __zero_reg__,r20
 4202 13e4 1506      		cpc __zero_reg__,r21
 4203 13e6 04F0      		brlt .L208
 4204               	.LBB773:
 4205               	.LBB774:
 4206               	.LM432:
 4207 13e8 12AE      		std Z+58,__zero_reg__
 4208 13ea 13AE      		std Z+59,__zero_reg__
 4209 13ec 14AE      		std Z+60,__zero_reg__
 4210 13ee 15AE      		std Z+61,__zero_reg__
 4211               	.LBE774:
 4212               	.LBE773:
 4213               	.LBB775:
 4214               	.LBB776:
 4215               	.LM433:
 4216 13f0 DB01      		movw r26,r22
 4217 13f2 1D92      		st X+,__zero_reg__
 4218 13f4 1D92      		st X+,__zero_reg__
 4219 13f6 1D92      		st X+,__zero_reg__
 4220 13f8 1C92      		st X,__zero_reg__
 4221 13fa 1397      		sbiw r26,3
 4222               	.LBE776:
 4223               	.LBE775:
 4224               	.LBB777:
 4225               	.LBB778:
 4226               	.LM434:
 4227 13fc E882      		st Y,r14
 4228 13fe F982      		std Y+1,r15
 4229 1400 0A83      		std Y+2,r16
 4230 1402 1B83      		std Y+3,r17
 4231               	.LBE778:
 4232               	.LBE777:
 4233               	.LBB779:
 4234               	.LBB780:
 4235               	.LM435:
 4236 1404 81AD      		ldd r24,Z+57
 4237 1406 817E      		andi r24,lo8(-31)
 4238 1408 8860      		ori r24,lo8(8)
 4239 140a 81AF      		std Z+57,r24
 4240 140c 00C0      		rjmp .L208
 4241               	.L206:
 4242               	.LBE780:
 4243               	.LBE779:
 4244               	.LM436:
 4245 140e 8230      		cpi r24,lo8(2)
 4246 1410 01F4      		brne .L208
 4247               	.LBB781:
 4248               	.LBB782:
 4249               	.LM437:
 4250 1412 1A96      		adiw r26,10
 4251 1414 8D91      		ld r24,X+
 4252 1416 9D91      		ld r25,X+
 4253 1418 0D90      		ld __tmp_reg__,X+
 4254 141a BC91      		ld r27,X
 4255 141c A02D      		mov r26,__tmp_reg__
 4256               	.LVL266:
 4257               	.LBE782:
 4258               	.LBE781:
 4259               	.LBB783:
 4260               	.LBB784:
 4261               	.LM438:
 4262 141e EE5B      		subi r30,lo8(-(66))
 4263 1420 FF4F      		sbci r31,hi8(-(66))
 4264 1422 2081      		ld r18,Z
 4265 1424 3181      		ldd r19,Z+1
 4266 1426 4281      		ldd r20,Z+2
 4267 1428 5381      		ldd r21,Z+3
 4268 142a E254      		subi r30,lo8(-(-66))
 4269 142c F040      		sbci r31,hi8(-(-66))
 4270 142e 820F      		add r24,r18
 4271 1430 931F      		adc r25,r19
 4272 1432 A41F      		adc r26,r20
 4273 1434 B51F      		adc r27,r21
 4274 1436 82AF      		std Z+58,r24
 4275 1438 93AF      		std Z+59,r25
 4276 143a A4AF      		std Z+60,r26
 4277 143c B5AF      		std Z+61,r27
 4278               	.LBE784:
 4279               	.LBE783:
 4280               	.LBB785:
 4281               	.LBB786:
 4282               	.LM439:
 4283 143e FE96      		adiw r30,62
 4284 1440 8081      		ld r24,Z
 4285 1442 9181      		ldd r25,Z+1
 4286 1444 A281      		ldd r26,Z+2
 4287 1446 B381      		ldd r27,Z+3
 4288               	.LVL267:
 4289 1448 821B      		sub r24,r18
 4290 144a 930B      		sbc r25,r19
 4291 144c A40B      		sbc r26,r20
 4292 144e B50B      		sbc r27,r21
 4293 1450 3896      		adiw r30,8
 4294 1452 8083      		st Z,r24
 4295 1454 9183      		std Z+1,r25
 4296 1456 A283      		std Z+2,r26
 4297 1458 B383      		std Z+3,r27
 4298               	.L208:
 4299               	/* epilogue start */
 4300               	.LBE786:
 4301               	.LBE785:
 4302               	.LM440:
 4303 145a DF91      		pop r29
 4304 145c CF91      		pop r28
 4305 145e 1F91      		pop r17
 4306 1460 0F91      		pop r16
 4307 1462 FF90      		pop r15
 4308 1464 EF90      		pop r14
 4309 1466 0895      		ret
 4310               	.LFE81:
 4312               	.global	Timebase_UpCounter_Expired
 4314               	Timebase_UpCounter_Expired:
 4315               	.LFB82:
 4316               	.LM441:
 4317               	.LVL268:
 4318               	/* prologue: function */
 4319               	/* frame size = 0 */
 4320               	.LM442:
 4321 1468 40E0      		ldi r20,lo8(0)
 4322 146a E091 0000 		lds r30,Timebase
 4323 146e F091 0000 		lds r31,(Timebase)+1
 4324 1472 90E0      		ldi r25,lo8(0)
 4325               	.LVL269:
 4326 1474 25E1      		ldi r18,lo8(21)
 4327 1476 30E0      		ldi r19,hi8(21)
 4328 1478 BC01      		movw r22,r24
 4329 147a 629F      		mul r22,r18
 4330 147c C001      		movw r24,r0
 4331 147e 639F      		mul r22,r19
 4332 1480 900D      		add r25,r0
 4333 1482 729F      		mul r23,r18
 4334 1484 900D      		add r25,r0
 4335 1486 1124      		clr r1
 4336               	.LVL270:
 4337 1488 E80F      		add r30,r24
 4338 148a F91F      		adc r31,r25
 4339 148c 81AD      		ldd r24,Z+57
 4340 148e 8695      		lsr r24
 4341 1490 8F70      		andi r24,lo8(15)
 4342 1492 8430      		cpi r24,lo8(4)
 4343 1494 01F4      		brne .L210
 4344 1496 41E0      		ldi r20,lo8(1)
 4345               	.L210:
 4346               	.LM443:
 4347 1498 842F      		mov r24,r20
 4348               	/* epilogue start */
 4349 149a 0895      		ret
 4350               	.LFE82:
 4352               	.global	Timebase_UpCounter_Expired_Event
 4354               	Timebase_UpCounter_Expired_Event:
 4355               	.LFB83:
 4356               	.LM444:
 4357               	.LVL271:
 4358               	/* prologue: function */
 4359               	/* frame size = 0 */
 4360 149c 482F      		mov r20,r24
 4361               	.LM445:
 4362 149e E091 0000 		lds r30,Timebase
 4363 14a2 F091 0000 		lds r31,(Timebase)+1
 4364 14a6 282F      		mov r18,r24
 4365 14a8 30E0      		ldi r19,lo8(0)
 4366               	.LVL272:
 4367 14aa 85E1      		ldi r24,lo8(21)
 4368 14ac 90E0      		ldi r25,hi8(21)
 4369               	.LVL273:
 4370 14ae BC01      		movw r22,r24
 4371 14b0 269F      		mul r18,r22
 4372 14b2 C001      		movw r24,r0
 4373 14b4 279F      		mul r18,r23
 4374 14b6 900D      		add r25,r0
 4375 14b8 369F      		mul r19,r22
 4376 14ba 900D      		add r25,r0
 4377 14bc 1124      		clr r1
 4378 14be E80F      		add r30,r24
 4379 14c0 F91F      		adc r31,r25
 4380 14c2 81AD      		ldd r24,Z+57
 4381 14c4 8695      		lsr r24
 4382 14c6 8F70      		andi r24,lo8(15)
 4383 14c8 8430      		cpi r24,lo8(4)
 4384 14ca 01F0      		breq .L213
 4385 14cc 80E0      		ldi r24,lo8(0)
 4386 14ce 0895      		ret
 4387               	.L213:
 4388               	.LBB787:
 4389               	.LBB788:
 4390               	.LM446:
 4391 14d0 842F      		mov r24,r20
 4392 14d2 0E94 0000 		call Timebase_UpCounter_Reset
 4393               	.LVL274:
 4394 14d6 81E0      		ldi r24,lo8(1)
 4395               	.LBE788:
 4396               	.LBE787:
 4397               	.LM447:
 4398 14d8 0895      		ret
 4399               	.LFE83:
 4401               	.global	Timebase_UpCounter_Set_Period_Value_Securely
 4403               	Timebase_UpCounter_Set_Period_Value_Securely:
 4404               	.LFB84:
 4405               	.LM448:
 4406               	.LVL275:
 4407 14da CF93      		push r28
 4408 14dc DF93      		push r29
 4409               	/* prologue: function */
 4410               	/* frame size = 0 */
 4411               	.LBB789:
 4412               	.LBB790:
 4413               	.LM449:
 4414 14de C091 0000 		lds r28,Timebase
 4415 14e2 D091 0000 		lds r29,(Timebase)+1
 4416 14e6 90E0      		ldi r25,lo8(0)
 4417               	.LBE790:
 4418               	.LBE789:
 4419               	.LM450:
 4420 14e8 25E1      		ldi r18,lo8(21)
 4421 14ea 30E0      		ldi r19,hi8(21)
 4422 14ec FC01      		movw r30,r24
 4423               	.LVL276:
 4424 14ee E29F      		mul r30,r18
 4425 14f0 C001      		movw r24,r0
 4426 14f2 E39F      		mul r30,r19
 4427 14f4 900D      		add r25,r0
 4428 14f6 F29F      		mul r31,r18
 4429 14f8 900D      		add r25,r0
 4430 14fa 1124      		clr r1
 4431 14fc C80F      		add r28,r24
 4432 14fe D91F      		adc r29,r25
 4433 1500 89AD      		ldd r24,Y+57
 4434 1502 80FD      		sbrc r24,0
 4435 1504 00C0      		rjmp .L218
 4436               	.LBB791:
 4437               	.LBB792:
 4438               	.LM451:
 4439 1506 FE01      		movw r30,r28
 4440 1508 E65B      		subi r30,lo8(-(74))
 4441 150a FF4F      		sbci r31,hi8(-(74))
 4442 150c CA5B      		subi r28,lo8(-(70))
 4443 150e DF4F      		sbci r29,hi8(-(70))
 4444 1510 8881      		ld r24,Y
 4445 1512 9981      		ldd r25,Y+1
 4446 1514 AA81      		ldd r26,Y+2
 4447 1516 BB81      		ldd r27,Y+3
 4448 1518 C654      		subi r28,lo8(-(-70))
 4449 151a D040      		sbci r29,hi8(-(-70))
 4450 151c 840F      		add r24,r20
 4451 151e 951F      		adc r25,r21
 4452 1520 A61F      		adc r26,r22
 4453 1522 B71F      		adc r27,r23
 4454 1524 8083      		st Z,r24
 4455 1526 9183      		std Z+1,r25
 4456 1528 A283      		std Z+2,r26
 4457 152a B383      		std Z+3,r27
 4458               	.LBE792:
 4459               	.LBE791:
 4460               	.LBB793:
 4461               	.LBB794:
 4462               	.LM452:
 4463 152c 89AD      		ldd r24,Y+57
 4464 152e 8160      		ori r24,lo8(1)
 4465 1530 89AF      		std Y+57,r24
 4466               	.L218:
 4467               	/* epilogue start */
 4468               	.LBE794:
 4469               	.LBE793:
 4470               	.LM453:
 4471 1532 DF91      		pop r29
 4472 1534 CF91      		pop r28
 4473 1536 0895      		ret
 4474               	.LFE84:
 4476               	.global	Timebase_UpCounter_Get_Remaining_Period_Value
 4478               	Timebase_UpCounter_Get_Remaining_Period_Value:
 4479               	.LFB85:
 4480               	.LM454:
 4481               	.LVL277:
 4482               	/* prologue: function */
 4483               	/* frame size = 0 */
 4484               	.LBB795:
 4485               	.LBB796:
 4486               	.LM455:
 4487 1538 E091 0000 		lds r30,Timebase
 4488 153c F091 0000 		lds r31,(Timebase)+1
 4489 1540 90E0      		ldi r25,lo8(0)
 4490               	.LBE796:
 4491               	.LBE795:
 4492               	.LM456:
 4493 1542 25E1      		ldi r18,lo8(21)
 4494 1544 30E0      		ldi r19,hi8(21)
 4495 1546 AC01      		movw r20,r24
 4496               	.LVL278:
 4497 1548 429F      		mul r20,r18
 4498 154a C001      		movw r24,r0
 4499 154c 439F      		mul r20,r19
 4500 154e 900D      		add r25,r0
 4501 1550 529F      		mul r21,r18
 4502 1552 900D      		add r25,r0
 4503 1554 1124      		clr r1
 4504 1556 E80F      		add r30,r24
 4505 1558 F91F      		adc r31,r25
 4506 155a DF01      		movw r26,r30
 4507 155c AA5B      		subi r26,lo8(-(70))
 4508 155e BF4F      		sbci r27,hi8(-(70))
 4509 1560 E65B      		subi r30,lo8(-(74))
 4510 1562 FF4F      		sbci r31,hi8(-(74))
 4511 1564 2081      		ld r18,Z
 4512 1566 3181      		ldd r19,Z+1
 4513 1568 4281      		ldd r20,Z+2
 4514 156a 5381      		ldd r21,Z+3
 4515               	.LVL279:
 4516 156c 8D91      		ld r24,X+
 4517 156e 9D91      		ld r25,X+
 4518 1570 0D90      		ld __tmp_reg__,X+
 4519 1572 BC91      		ld r27,X
 4520 1574 A02D      		mov r26,__tmp_reg__
 4521 1576 281B      		sub r18,r24
 4522 1578 390B      		sbc r19,r25
 4523 157a 4A0B      		sbc r20,r26
 4524 157c 5B0B      		sbc r21,r27
 4525 157e 57FF      		sbrs r21,7
 4526 1580 00C0      		rjmp .L220
 4527 1582 20E0      		ldi r18,lo8(0)
 4528 1584 30E0      		ldi r19,hi8(0)
 4529 1586 40E0      		ldi r20,hlo8(0)
 4530 1588 50E0      		ldi r21,hhi8(0)
 4531               	.L220:
 4532               	.LM457:
 4533 158a B901      		movw r22,r18
 4534               	.LVL280:
 4535 158c CA01      		movw r24,r20
 4536               	/* epilogue start */
 4537 158e 0895      		ret
 4538               	.LFE85:
 4540               	.global	Timebase_UpCounter_Period_Value_Expired
 4542               	Timebase_UpCounter_Period_Value_Expired:
 4543               	.LFB86:
 4544               	.LM458:
 4545               	.LVL281:
 4546 1590 CF93      		push r28
 4547 1592 DF93      		push r29
 4548               	/* prologue: function */
 4549               	/* frame size = 0 */
 4550               	.LBB797:
 4551               	.LBB798:
 4552               	.LBB799:
 4553               	.LBB800:
 4554               	.LM459:
 4555 1594 C091 0000 		lds r28,Timebase
 4556 1598 D091 0000 		lds r29,(Timebase)+1
 4557 159c 682F      		mov r22,r24
 4558 159e 70E0      		ldi r23,lo8(0)
 4559               	.LBE800:
 4560               	.LBE799:
 4561               	.LM460:
 4562 15a0 85E1      		ldi r24,lo8(21)
 4563 15a2 90E0      		ldi r25,hi8(21)
 4564               	.LVL282:
 4565 15a4 689F      		mul r22,r24
 4566 15a6 F001      		movw r30,r0
 4567 15a8 699F      		mul r22,r25
 4568 15aa F00D      		add r31,r0
 4569 15ac 789F      		mul r23,r24
 4570 15ae F00D      		add r31,r0
 4571 15b0 1124      		clr r1
 4572 15b2 EC0F      		add r30,r28
 4573 15b4 FD1F      		adc r31,r29
 4574 15b6 DF01      		movw r26,r30
 4575 15b8 AA5B      		subi r26,lo8(-(70))
 4576 15ba BF4F      		sbci r27,hi8(-(70))
 4577 15bc E65B      		subi r30,lo8(-(74))
 4578 15be FF4F      		sbci r31,hi8(-(74))
 4579 15c0 2081      		ld r18,Z
 4580 15c2 3181      		ldd r19,Z+1
 4581 15c4 4281      		ldd r20,Z+2
 4582 15c6 5381      		ldd r21,Z+3
 4583               	.LVL283:
 4584 15c8 8D91      		ld r24,X+
 4585 15ca 9D91      		ld r25,X+
 4586 15cc 0D90      		ld __tmp_reg__,X+
 4587 15ce BC91      		ld r27,X
 4588 15d0 A02D      		mov r26,__tmp_reg__
 4589 15d2 281B      		sub r18,r24
 4590 15d4 390B      		sbc r19,r25
 4591 15d6 4A0B      		sbc r20,r26
 4592 15d8 5B0B      		sbc r21,r27
 4593               	.LM461:
 4594 15da 57FD      		sbrc r21,7
 4595 15dc 00C0      		rjmp .L223
 4596               	.LBE798:
 4597               	.LBE797:
 4598               	.LM462:
 4599 15de 2115      		cp r18,__zero_reg__
 4600 15e0 3105      		cpc r19,__zero_reg__
 4601 15e2 4105      		cpc r20,__zero_reg__
 4602 15e4 5105      		cpc r21,__zero_reg__
 4603 15e6 01F0      		breq .L223
 4604 15e8 20E0      		ldi r18,lo8(0)
 4605               	.LVL284:
 4606 15ea 00C0      		rjmp .L224
 4607               	.LVL285:
 4608               	.L223:
 4609 15ec 20E0      		ldi r18,lo8(0)
 4610               	.LVL286:
 4611 15ee 85E1      		ldi r24,lo8(21)
 4612 15f0 90E0      		ldi r25,hi8(21)
 4613 15f2 AC01      		movw r20,r24
 4614 15f4 649F      		mul r22,r20
 4615 15f6 C001      		movw r24,r0
 4616 15f8 659F      		mul r22,r21
 4617 15fa 900D      		add r25,r0
 4618 15fc 749F      		mul r23,r20
 4619 15fe 900D      		add r25,r0
 4620 1600 1124      		clr r1
 4621 1602 C80F      		add r28,r24
 4622 1604 D91F      		adc r29,r25
 4623 1606 89AD      		ldd r24,Y+57
 4624 1608 80FF      		sbrs r24,0
 4625 160a 21E0      		ldi r18,lo8(1)
 4626               	.L225:
 4627 160c 81E0      		ldi r24,lo8(1)
 4628 160e 2827      		eor r18,r24
 4629               	.L224:
 4630               	.LM463:
 4631 1610 822F      		mov r24,r18
 4632               	/* epilogue start */
 4633 1612 DF91      		pop r29
 4634 1614 CF91      		pop r28
 4635 1616 0895      		ret
 4636               	.LFE86:
 4638               	.global	Timebase_UpCounter_Period_Value_Expired_Event
 4640               	Timebase_UpCounter_Period_Value_Expired_Event:
 4641               	.LFB87:
 4642               	.LM464:
 4643               	.LVL287:
 4644 1618 1F93      		push r17
 4645               	/* prologue: function */
 4646               	/* frame size = 0 */
 4647 161a 182F      		mov r17,r24
 4648               	.LM465:
 4649 161c 0E94 0000 		call Timebase_UpCounter_Period_Value_Expired
 4650               	.LVL288:
 4651 1620 8130      		cpi r24,lo8(1)
 4652 1622 01F0      		breq .L228
 4653 1624 80E0      		ldi r24,lo8(0)
 4654 1626 00C0      		rjmp .L229
 4655               	.L228:
 4656               	.LBB801:
 4657               	.LBB802:
 4658               	.LM466:
 4659 1628 E091 0000 		lds r30,Timebase
 4660 162c F091 0000 		lds r31,(Timebase)+1
 4661 1630 212F      		mov r18,r17
 4662 1632 30E0      		ldi r19,lo8(0)
 4663               	.LVL289:
 4664 1634 85E1      		ldi r24,lo8(21)
 4665 1636 90E0      		ldi r25,hi8(21)
 4666 1638 AC01      		movw r20,r24
 4667 163a 249F      		mul r18,r20
 4668 163c C001      		movw r24,r0
 4669 163e 259F      		mul r18,r21
 4670 1640 900D      		add r25,r0
 4671 1642 349F      		mul r19,r20
 4672 1644 900D      		add r25,r0
 4673 1646 1124      		clr r1
 4674 1648 E80F      		add r30,r24
 4675 164a F91F      		adc r31,r25
 4676 164c 81AD      		ldd r24,Z+57
 4677 164e 8E7F      		andi r24,lo8(-2)
 4678 1650 81AF      		std Z+57,r24
 4679 1652 81E0      		ldi r24,lo8(1)
 4680               	.L229:
 4681               	/* epilogue start */
 4682               	.LBE802:
 4683               	.LBE801:
 4684               	.LM467:
 4685 1654 1F91      		pop r17
 4686               	.LVL290:
 4687 1656 0895      		ret
 4688               	.LFE87:
 4690               	.global	Timebase_UpCounter_Update_All
 4692               	Timebase_UpCounter_Update_All:
 4693               	.LFB88:
 4694               	.LM468:
 4695               	/* prologue: function */
 4696               	/* frame size = 0 */
 4697               	.LBB803:
 4698               	.LM469:
 4699 1658 80E0      		ldi r24,lo8(0)
 4700 165a 0E94 0000 		call Timebase_UpCounter_Update
 4701               	/* epilogue start */
 4702               	.LBE803:
 4703               	.LM470:
 4704 165e 0895      		ret
 4705               	.LFE88:
 4707               	.global	Timebase_UpCounter_Reset_All
 4709               	Timebase_UpCounter_Reset_All:
 4710               	.LFB89:
 4711               	.LM471:
 4712               	/* prologue: function */
 4713               	/* frame size = 0 */
 4714               	.LBB804:
 4715               	.LM472:
 4716 1660 80E0      		ldi r24,lo8(0)
 4717 1662 0E94 0000 		call Timebase_UpCounter_Reset
 4718               	/* epilogue start */
 4719               	.LBE804:
 4720               	.LM473:
 4721 1666 0895      		ret
 4722               	.LFE89:
 4724               	.global	Timebase_DownCounter_SS_Get_Status
 4726               	Timebase_DownCounter_SS_Get_Status:
 4727               	.LFB90:
 4728               	.LM474:
 4729               	.LVL291:
 4730               	/* prologue: function */
 4731               	/* frame size = 0 */
 4732               	.LM475:
 4733 1668 E091 0000 		lds r30,Timebase
 4734 166c F091 0000 		lds r31,(Timebase)+1
 4735 1670 90E0      		ldi r25,lo8(0)
 4736               	.LVL292:
 4737 1672 9C01      		movw r18,r24
 4738 1674 44E0      		ldi r20,4
 4739 1676 220F      	1:	lsl r18
 4740 1678 331F      		rol r19
 4741 167a 4A95      		dec r20
 4742 167c 01F4      		brne 1b
 4743 167e 280F      		add r18,r24
 4744 1680 391F      		adc r19,r25
 4745 1682 E20F      		add r30,r18
 4746 1684 F31F      		adc r31,r19
 4747 1686 E25B      		subi r30,lo8(-(78))
 4748 1688 FF4F      		sbci r31,hi8(-(78))
 4749 168a 8081      		ld r24,Z
 4750               	.LVL293:
 4751 168c 8695      		lsr r24
 4752               	.LM476:
 4753 168e 8F70      		andi r24,lo8(15)
 4754               	/* epilogue start */
 4755 1690 0895      		ret
 4756               	.LFE90:
 4758               	.global	Timebase_DownCounter_SS_Set_Status
 4760               	Timebase_DownCounter_SS_Set_Status:
 4761               	.LFB91:
 4762               	.LM477:
 4763               	.LVL294:
 4764               	/* prologue: function */
 4765               	/* frame size = 0 */
 4766               	.LM478:
 4767 1692 E091 0000 		lds r30,Timebase
 4768 1696 F091 0000 		lds r31,(Timebase)+1
 4769 169a 90E0      		ldi r25,lo8(0)
 4770               	.LVL295:
 4771 169c 9C01      		movw r18,r24
 4772 169e 54E0      		ldi r21,4
 4773 16a0 220F      	1:	lsl r18
 4774 16a2 331F      		rol r19
 4775 16a4 5A95      		dec r21
 4776 16a6 01F4      		brne 1b
 4777 16a8 280F      		add r18,r24
 4778 16aa 391F      		adc r19,r25
 4779 16ac E20F      		add r30,r18
 4780 16ae F31F      		adc r31,r19
 4781 16b0 E25B      		subi r30,lo8(-(78))
 4782 16b2 FF4F      		sbci r31,hi8(-(78))
 4783 16b4 6F70      		andi r22,lo8(15)
 4784               	.LVL296:
 4785 16b6 660F      		lsl r22
 4786 16b8 8081      		ld r24,Z
 4787               	.LVL297:
 4788 16ba 817E      		andi r24,lo8(-31)
 4789 16bc 862B      		or r24,r22
 4790 16be 8083      		st Z,r24
 4791               	/* epilogue start */
 4792               	.LM479:
 4793 16c0 0895      		ret
 4794               	.LFE91:
 4796               	.global	Timebase_DownCounter_SS_Get_Value
 4798               	Timebase_DownCounter_SS_Get_Value:
 4799               	.LFB92:
 4800               	.LM480:
 4801               	.LVL298:
 4802               	/* prologue: function */
 4803               	/* frame size = 0 */
 4804               	.LM481:
 4805 16c2 E091 0000 		lds r30,Timebase
 4806 16c6 F091 0000 		lds r31,(Timebase)+1
 4807 16ca 90E0      		ldi r25,lo8(0)
 4808               	.LVL299:
 4809 16cc 9C01      		movw r18,r24
 4810 16ce 64E0      		ldi r22,4
 4811 16d0 220F      	1:	lsl r18
 4812 16d2 331F      		rol r19
 4813 16d4 6A95      		dec r22
 4814 16d6 01F4      		brne 1b
 4815 16d8 280F      		add r18,r24
 4816 16da 391F      		adc r19,r25
 4817 16dc E20F      		add r30,r18
 4818 16de F31F      		adc r31,r19
 4819 16e0 E95A      		subi r30,lo8(-(87))
 4820 16e2 FF4F      		sbci r31,hi8(-(87))
 4821 16e4 6081      		ld r22,Z
 4822 16e6 7181      		ldd r23,Z+1
 4823               	.LM482:
 4824 16e8 8281      		ldd r24,Z+2
 4825               	.LVL300:
 4826 16ea 9381      		ldd r25,Z+3
 4827               	.LVL301:
 4828               	/* epilogue start */
 4829 16ec 0895      		ret
 4830               	.LFE92:
 4832               	.global	Timebase_DownCounter_SS_Set_Value
 4834               	Timebase_DownCounter_SS_Set_Value:
 4835               	.LFB93:
 4836               	.LM483:
 4837               	.LVL302:
 4838               	/* prologue: function */
 4839               	/* frame size = 0 */
 4840               	.LM484:
 4841 16ee E091 0000 		lds r30,Timebase
 4842 16f2 F091 0000 		lds r31,(Timebase)+1
 4843 16f6 90E0      		ldi r25,lo8(0)
 4844               	.LVL303:
 4845 16f8 9C01      		movw r18,r24
 4846 16fa A4E0      		ldi r26,4
 4847 16fc 220F      	1:	lsl r18
 4848 16fe 331F      		rol r19
 4849 1700 AA95      		dec r26
 4850 1702 01F4      		brne 1b
 4851 1704 280F      		add r18,r24
 4852 1706 391F      		adc r19,r25
 4853 1708 E20F      		add r30,r18
 4854 170a F31F      		adc r31,r19
 4855 170c E95A      		subi r30,lo8(-(87))
 4856 170e FF4F      		sbci r31,hi8(-(87))
 4857 1710 4083      		st Z,r20
 4858 1712 5183      		std Z+1,r21
 4859 1714 6283      		std Z+2,r22
 4860 1716 7383      		std Z+3,r23
 4861               	/* epilogue start */
 4862               	.LM485:
 4863 1718 0895      		ret
 4864               	.LFE93:
 4866               	.global	Timebase_DownCounter_SS_Get_EndValueSec
 4868               	Timebase_DownCounter_SS_Get_EndValueSec:
 4869               	.LFB94:
 4870               	.LM486:
 4871               	.LVL304:
 4872               	/* prologue: function */
 4873               	/* frame size = 0 */
 4874               	.LM487:
 4875 171a E091 0000 		lds r30,Timebase
 4876 171e F091 0000 		lds r31,(Timebase)+1
 4877 1722 90E0      		ldi r25,lo8(0)
 4878               	.LVL305:
 4879 1724 9C01      		movw r18,r24
 4880 1726 B4E0      		ldi r27,4
 4881 1728 220F      	1:	lsl r18
 4882 172a 331F      		rol r19
 4883 172c BA95      		dec r27
 4884 172e 01F4      		brne 1b
 4885 1730 280F      		add r18,r24
 4886 1732 391F      		adc r19,r25
 4887 1734 E20F      		add r30,r18
 4888 1736 F31F      		adc r31,r19
 4889 1738 E15B      		subi r30,lo8(-(79))
 4890 173a FF4F      		sbci r31,hi8(-(79))
 4891 173c 6081      		ld r22,Z
 4892 173e 7181      		ldd r23,Z+1
 4893               	.LM488:
 4894 1740 8281      		ldd r24,Z+2
 4895               	.LVL306:
 4896 1742 9381      		ldd r25,Z+3
 4897               	.LVL307:
 4898               	/* epilogue start */
 4899 1744 0895      		ret
 4900               	.LFE94:
 4902               	.global	Timebase_DownCounter_SS_Get_EndValueSubSec
 4904               	Timebase_DownCounter_SS_Get_EndValueSubSec:
 4905               	.LFB95:
 4906               	.LM489:
 4907               	.LVL308:
 4908               	/* prologue: function */
 4909               	/* frame size = 0 */
 4910               	.LM490:
 4911 1746 E091 0000 		lds r30,Timebase
 4912 174a F091 0000 		lds r31,(Timebase)+1
 4913 174e 90E0      		ldi r25,lo8(0)
 4914               	.LVL309:
 4915 1750 9C01      		movw r18,r24
 4916 1752 44E0      		ldi r20,4
 4917 1754 220F      	1:	lsl r18
 4918 1756 331F      		rol r19
 4919 1758 4A95      		dec r20
 4920 175a 01F4      		brne 1b
 4921 175c 280F      		add r18,r24
 4922 175e 391F      		adc r19,r25
 4923 1760 E20F      		add r30,r18
 4924 1762 F31F      		adc r31,r19
 4925 1764 ED5A      		subi r30,lo8(-(83))
 4926 1766 FF4F      		sbci r31,hi8(-(83))
 4927 1768 6081      		ld r22,Z
 4928 176a 7181      		ldd r23,Z+1
 4929               	.LM491:
 4930 176c 8281      		ldd r24,Z+2
 4931               	.LVL310:
 4932 176e 9381      		ldd r25,Z+3
 4933               	.LVL311:
 4934               	/* epilogue start */
 4935 1770 0895      		ret
 4936               	.LFE95:
 4938               	.global	Timebase_DownCounter_SS_Set_EndValueSec
 4940               	Timebase_DownCounter_SS_Set_EndValueSec:
 4941               	.LFB96:
 4942               	.LM492:
 4943               	.LVL312:
 4944               	/* prologue: function */
 4945               	/* frame size = 0 */
 4946               	.LM493:
 4947 1772 E091 0000 		lds r30,Timebase
 4948 1776 F091 0000 		lds r31,(Timebase)+1
 4949 177a 90E0      		ldi r25,lo8(0)
 4950               	.LVL313:
 4951 177c 9C01      		movw r18,r24
 4952 177e A4E0      		ldi r26,4
 4953 1780 220F      	1:	lsl r18
 4954 1782 331F      		rol r19
 4955 1784 AA95      		dec r26
 4956 1786 01F4      		brne 1b
 4957 1788 280F      		add r18,r24
 4958 178a 391F      		adc r19,r25
 4959 178c E20F      		add r30,r18
 4960 178e F31F      		adc r31,r19
 4961 1790 E15B      		subi r30,lo8(-(79))
 4962 1792 FF4F      		sbci r31,hi8(-(79))
 4963 1794 4083      		st Z,r20
 4964 1796 5183      		std Z+1,r21
 4965 1798 6283      		std Z+2,r22
 4966 179a 7383      		std Z+3,r23
 4967               	/* epilogue start */
 4968               	.LM494:
 4969 179c 0895      		ret
 4970               	.LFE96:
 4972               	.global	Timebase_DownCounter_SS_Set_EndValueSubSec
 4974               	Timebase_DownCounter_SS_Set_EndValueSubSec:
 4975               	.LFB97:
 4976               	.LM495:
 4977               	.LVL314:
 4978               	/* prologue: function */
 4979               	/* frame size = 0 */
 4980               	.LM496:
 4981 179e E091 0000 		lds r30,Timebase
 4982 17a2 F091 0000 		lds r31,(Timebase)+1
 4983 17a6 90E0      		ldi r25,lo8(0)
 4984               	.LVL315:
 4985 17a8 9C01      		movw r18,r24
 4986 17aa B4E0      		ldi r27,4
 4987 17ac 220F      	1:	lsl r18
 4988 17ae 331F      		rol r19
 4989 17b0 BA95      		dec r27
 4990 17b2 01F4      		brne 1b
 4991 17b4 280F      		add r18,r24
 4992 17b6 391F      		adc r19,r25
 4993 17b8 E20F      		add r30,r18
 4994 17ba F31F      		adc r31,r19
 4995 17bc ED5A      		subi r30,lo8(-(83))
 4996 17be FF4F      		sbci r31,hi8(-(83))
 4997 17c0 4083      		st Z,r20
 4998 17c2 5183      		std Z+1,r21
 4999 17c4 6283      		std Z+2,r22
 5000 17c6 7383      		std Z+3,r23
 5001               	/* epilogue start */
 5002               	.LM497:
 5003 17c8 0895      		ret
 5004               	.LFE97:
 5006               	.global	Timebase_DownCounter_SS_Get_PeriodValue
 5008               	Timebase_DownCounter_SS_Get_PeriodValue:
 5009               	.LFB98:
 5010               	.LM498:
 5011               	.LVL316:
 5012               	/* prologue: function */
 5013               	/* frame size = 0 */
 5014               	.LM499:
 5015 17ca E091 0000 		lds r30,Timebase
 5016 17ce F091 0000 		lds r31,(Timebase)+1
 5017 17d2 90E0      		ldi r25,lo8(0)
 5018               	.LVL317:
 5019 17d4 9C01      		movw r18,r24
 5020 17d6 44E0      		ldi r20,4
 5021 17d8 220F      	1:	lsl r18
 5022 17da 331F      		rol r19
 5023 17dc 4A95      		dec r20
 5024 17de 01F4      		brne 1b
 5025 17e0 280F      		add r18,r24
 5026 17e2 391F      		adc r19,r25
 5027 17e4 E20F      		add r30,r18
 5028 17e6 F31F      		adc r31,r19
 5029 17e8 E55A      		subi r30,lo8(-(91))
 5030 17ea FF4F      		sbci r31,hi8(-(91))
 5031 17ec 6081      		ld r22,Z
 5032 17ee 7181      		ldd r23,Z+1
 5033               	.LM500:
 5034 17f0 8281      		ldd r24,Z+2
 5035               	.LVL318:
 5036 17f2 9381      		ldd r25,Z+3
 5037               	.LVL319:
 5038               	/* epilogue start */
 5039 17f4 0895      		ret
 5040               	.LFE98:
 5042               	.global	Timebase_DownCounter_SS_Set_PeriodValue
 5044               	Timebase_DownCounter_SS_Set_PeriodValue:
 5045               	.LFB99:
 5046               	.LM501:
 5047               	.LVL320:
 5048               	/* prologue: function */
 5049               	/* frame size = 0 */
 5050 17f6 E091 0000 		lds r30,Timebase
 5051 17fa F091 0000 		lds r31,(Timebase)+1
 5052 17fe 282F      		mov r18,r24
 5053 1800 30E0      		ldi r19,lo8(0)
 5054               	.LVL321:
 5055               	.LM502:
 5056 1802 77FF      		sbrs r23,7
 5057 1804 00C0      		rjmp .L254
 5058               	.LVL322:
 5059               	.LM503:
 5060 1806 C901      		movw r24,r18
 5061 1808 B4E0      		ldi r27,4
 5062 180a 880F      	1:	lsl r24
 5063 180c 991F      		rol r25
 5064 180e BA95      		dec r27
 5065 1810 01F4      		brne 1b
 5066 1812 820F      		add r24,r18
 5067 1814 931F      		adc r25,r19
 5068 1816 E80F      		add r30,r24
 5069 1818 F91F      		adc r31,r25
 5070 181a E55A      		subi r30,lo8(-(91))
 5071 181c FF4F      		sbci r31,hi8(-(91))
 5072 181e 1082      		st Z,__zero_reg__
 5073 1820 1182      		std Z+1,__zero_reg__
 5074 1822 1282      		std Z+2,__zero_reg__
 5075 1824 1382      		std Z+3,__zero_reg__
 5076 1826 0895      		ret
 5077               	.LVL323:
 5078               	.L254:
 5079               	.LM504:
 5080 1828 C901      		movw r24,r18
 5081 182a A4E0      		ldi r26,4
 5082 182c 880F      	1:	lsl r24
 5083 182e 991F      		rol r25
 5084 1830 AA95      		dec r26
 5085 1832 01F4      		brne 1b
 5086 1834 820F      		add r24,r18
 5087 1836 931F      		adc r25,r19
 5088 1838 E80F      		add r30,r24
 5089 183a F91F      		adc r31,r25
 5090 183c E55A      		subi r30,lo8(-(91))
 5091 183e FF4F      		sbci r31,hi8(-(91))
 5092 1840 4083      		st Z,r20
 5093 1842 5183      		std Z+1,r21
 5094 1844 6283      		std Z+2,r22
 5095 1846 7383      		std Z+3,r23
 5096 1848 0895      		ret
 5097               	.LFE99:
 5099               	.global	Timebase_DownCounter_SS_Get_Period_Flag
 5101               	Timebase_DownCounter_SS_Get_Period_Flag:
 5102               	.LFB100:
 5103               	.LM505:
 5104               	.LVL324:
 5105               	/* prologue: function */
 5106               	/* frame size = 0 */
 5107               	.LM506:
 5108 184a E091 0000 		lds r30,Timebase
 5109 184e F091 0000 		lds r31,(Timebase)+1
 5110 1852 90E0      		ldi r25,lo8(0)
 5111               	.LVL325:
 5112 1854 9C01      		movw r18,r24
 5113 1856 44E0      		ldi r20,4
 5114 1858 220F      	1:	lsl r18
 5115 185a 331F      		rol r19
 5116 185c 4A95      		dec r20
 5117 185e 01F4      		brne 1b
 5118 1860 280F      		add r18,r24
 5119 1862 391F      		adc r19,r25
 5120 1864 E20F      		add r30,r18
 5121 1866 F31F      		adc r31,r19
 5122 1868 E25B      		subi r30,lo8(-(78))
 5123 186a FF4F      		sbci r31,hi8(-(78))
 5124 186c 8081      		ld r24,Z
 5125               	.LVL326:
 5126               	.LM507:
 5127 186e 8170      		andi r24,lo8(1)
 5128               	/* epilogue start */
 5129 1870 0895      		ret
 5130               	.LFE100:
 5132               	.global	Timebase_DownCounter_SS_Set_Period_Flag
 5134               	Timebase_DownCounter_SS_Set_Period_Flag:
 5135               	.LFB101:
 5136               	.LM508:
 5137               	.LVL327:
 5138               	/* prologue: function */
 5139               	/* frame size = 0 */
 5140               	.LM509:
 5141 1872 E091 0000 		lds r30,Timebase
 5142 1876 F091 0000 		lds r31,(Timebase)+1
 5143 187a 90E0      		ldi r25,lo8(0)
 5144               	.LVL328:
 5145 187c 9C01      		movw r18,r24
 5146 187e 54E0      		ldi r21,4
 5147 1880 220F      	1:	lsl r18
 5148 1882 331F      		rol r19
 5149 1884 5A95      		dec r21
 5150 1886 01F4      		brne 1b
 5151 1888 280F      		add r18,r24
 5152 188a 391F      		adc r19,r25
 5153 188c E20F      		add r30,r18
 5154 188e F31F      		adc r31,r19
 5155 1890 E25B      		subi r30,lo8(-(78))
 5156 1892 FF4F      		sbci r31,hi8(-(78))
 5157 1894 8081      		ld r24,Z
 5158               	.LVL329:
 5159 1896 8160      		ori r24,lo8(1)
 5160 1898 8083      		st Z,r24
 5161               	/* epilogue start */
 5162               	.LM510:
 5163 189a 0895      		ret
 5164               	.LFE101:
 5166               	.global	Timebase_DownCounter_SS_Clear_Period_Flag
 5168               	Timebase_DownCounter_SS_Clear_Period_Flag:
 5169               	.LFB102:
 5170               	.LM511:
 5171               	.LVL330:
 5172               	/* prologue: function */
 5173               	/* frame size = 0 */
 5174               	.LM512:
 5175 189c E091 0000 		lds r30,Timebase
 5176 18a0 F091 0000 		lds r31,(Timebase)+1
 5177 18a4 90E0      		ldi r25,lo8(0)
 5178               	.LVL331:
 5179 18a6 9C01      		movw r18,r24
 5180 18a8 64E0      		ldi r22,4
 5181 18aa 220F      	1:	lsl r18
 5182 18ac 331F      		rol r19
 5183 18ae 6A95      		dec r22
 5184 18b0 01F4      		brne 1b
 5185 18b2 280F      		add r18,r24
 5186 18b4 391F      		adc r19,r25
 5187 18b6 E20F      		add r30,r18
 5188 18b8 F31F      		adc r31,r19
 5189 18ba E25B      		subi r30,lo8(-(78))
 5190 18bc FF4F      		sbci r31,hi8(-(78))
 5191 18be 8081      		ld r24,Z
 5192               	.LVL332:
 5193 18c0 8E7F      		andi r24,lo8(-2)
 5194 18c2 8083      		st Z,r24
 5195               	/* epilogue start */
 5196               	.LM513:
 5197 18c4 0895      		ret
 5198               	.LFE102:
 5200               	.global	Timebase_DownCounter_SS_Reset
 5202               	Timebase_DownCounter_SS_Reset:
 5203               	.LFB103:
 5204               	.LM514:
 5205               	.LVL333:
 5206               	/* prologue: function */
 5207               	/* frame size = 0 */
 5208               	.LBB805:
 5209               	.LBB806:
 5210               	.LM515:
 5211 18c6 E091 0000 		lds r30,Timebase
 5212 18ca F091 0000 		lds r31,(Timebase)+1
 5213 18ce 90E0      		ldi r25,lo8(0)
 5214 18d0 9C01      		movw r18,r24
 5215               	.LVL334:
 5216 18d2 74E0      		ldi r23,4
 5217 18d4 220F      	1:	lsl r18
 5218 18d6 331F      		rol r19
 5219 18d8 7A95      		dec r23
 5220 18da 01F4      		brne 1b
 5221 18dc 280F      		add r18,r24
 5222 18de 391F      		adc r19,r25
 5223 18e0 E20F      		add r30,r18
 5224 18e2 F31F      		adc r31,r19
 5225 18e4 ED5A      		subi r30,lo8(-(83))
 5226 18e6 FF4F      		sbci r31,hi8(-(83))
 5227 18e8 1082      		st Z,__zero_reg__
 5228 18ea 1182      		std Z+1,__zero_reg__
 5229 18ec 1282      		std Z+2,__zero_reg__
 5230 18ee 1382      		std Z+3,__zero_reg__
 5231               	.LBE806:
 5232               	.LBE805:
 5233               	.LBB807:
 5234               	.LBB808:
 5235               	.LM516:
 5236 18f0 1292      		st -Z,__zero_reg__
 5237 18f2 1292      		st -Z,__zero_reg__
 5238 18f4 1292      		st -Z,__zero_reg__
 5239 18f6 1292      		st -Z,__zero_reg__
 5240               	.LBE808:
 5241               	.LBE807:
 5242               	.LBB809:
 5243               	.LBB810:
 5244               	.LM517:
 5245 18f8 3896      		adiw r30,8
 5246 18fa 1082      		st Z,__zero_reg__
 5247 18fc 1182      		std Z+1,__zero_reg__
 5248 18fe 1282      		std Z+2,__zero_reg__
 5249 1900 1382      		std Z+3,__zero_reg__
 5250               	.LBE810:
 5251               	.LBE809:
 5252               	.LBB811:
 5253               	.LBB812:
 5254               	.LM518:
 5255 1902 3997      		sbiw r30,9
 5256 1904 8081      		ld r24,Z
 5257               	.LBE812:
 5258               	.LBE811:
 5259               	.LBB813:
 5260               	.LBB814:
 5261               	.LM519:
 5262 1906 807E      		andi r24,lo8(-32)
 5263 1908 8083      		st Z,r24
 5264               	/* epilogue start */
 5265               	.LBE814:
 5266               	.LBE813:
 5267               	.LM520:
 5268 190a 0895      		ret
 5269               	.LFE103:
 5271               	.global	Timebase_DownCounter_SS_Clear_All_Flags
 5273               	Timebase_DownCounter_SS_Clear_All_Flags:
 5274               	.LFB104:
 5275               	.LM521:
 5276               	.LVL335:
 5277               	/* prologue: function */
 5278               	/* frame size = 0 */
 5279               	.LBB815:
 5280               	.LBB816:
 5281               	.LBB817:
 5282               	.LBB818:
 5283               	.LM522:
 5284 190c E091 0000 		lds r30,Timebase
 5285 1910 F091 0000 		lds r31,(Timebase)+1
 5286 1914 90E0      		ldi r25,lo8(0)
 5287 1916 9C01      		movw r18,r24
 5288               	.LVL336:
 5289 1918 A4E0      		ldi r26,4
 5290 191a 220F      	1:	lsl r18
 5291 191c 331F      		rol r19
 5292 191e AA95      		dec r26
 5293 1920 01F4      		brne 1b
 5294 1922 280F      		add r18,r24
 5295 1924 391F      		adc r19,r25
 5296 1926 E20F      		add r30,r18
 5297 1928 F31F      		adc r31,r19
 5298 192a ED5A      		subi r30,lo8(-(83))
 5299 192c FF4F      		sbci r31,hi8(-(83))
 5300 192e 1082      		st Z,__zero_reg__
 5301 1930 1182      		std Z+1,__zero_reg__
 5302 1932 1282      		std Z+2,__zero_reg__
 5303 1934 1382      		std Z+3,__zero_reg__
 5304               	.LBE818:
 5305               	.LBE817:
 5306               	.LBB819:
 5307               	.LBB820:
 5308               	.LM523:
 5309 1936 1292      		st -Z,__zero_reg__
 5310 1938 1292      		st -Z,__zero_reg__
 5311 193a 1292      		st -Z,__zero_reg__
 5312 193c 1292      		st -Z,__zero_reg__
 5313               	.LBE820:
 5314               	.LBE819:
 5315               	.LBB821:
 5316               	.LBB822:
 5317               	.LM524:
 5318 193e 3896      		adiw r30,8
 5319 1940 1082      		st Z,__zero_reg__
 5320 1942 1182      		std Z+1,__zero_reg__
 5321 1944 1282      		std Z+2,__zero_reg__
 5322 1946 1382      		std Z+3,__zero_reg__
 5323               	.LBE822:
 5324               	.LBE821:
 5325               	.LBB823:
 5326               	.LBB824:
 5327               	.LM525:
 5328 1948 3997      		sbiw r30,9
 5329 194a 8081      		ld r24,Z
 5330               	.LBE824:
 5331               	.LBE823:
 5332               	.LBB825:
 5333               	.LBB826:
 5334               	.LM526:
 5335 194c 807E      		andi r24,lo8(-32)
 5336 194e 8083      		st Z,r24
 5337               	/* epilogue start */
 5338               	.LBE826:
 5339               	.LBE825:
 5340               	.LBE816:
 5341               	.LBE815:
 5342               	.LM527:
 5343 1950 0895      		ret
 5344               	.LFE104:
 5346               	.global	Timebase_DownCounter_SS_Start
 5348               	Timebase_DownCounter_SS_Start:
 5349               	.LFB105:
 5350               	.LM528:
 5351               	.LVL337:
 5352               	/* prologue: function */
 5353               	/* frame size = 0 */
 5354               	.LBB827:
 5355               	.LBB828:
 5356               	.LM529:
 5357 1952 E091 0000 		lds r30,Timebase
 5358 1956 F091 0000 		lds r31,(Timebase)+1
 5359 195a 90E0      		ldi r25,lo8(0)
 5360               	.LBE828:
 5361               	.LBE827:
 5362               	.LM530:
 5363 195c 9C01      		movw r18,r24
 5364               	.LVL338:
 5365 195e B4E0      		ldi r27,4
 5366 1960 220F      	1:	lsl r18
 5367 1962 331F      		rol r19
 5368 1964 BA95      		dec r27
 5369 1966 01F4      		brne 1b
 5370 1968 280F      		add r18,r24
 5371 196a 391F      		adc r19,r25
 5372 196c E20F      		add r30,r18
 5373 196e F31F      		adc r31,r19
 5374 1970 E25B      		subi r30,lo8(-(78))
 5375 1972 FF4F      		sbci r31,hi8(-(78))
 5376 1974 9081      		ld r25,Z
 5377 1976 892F      		mov r24,r25
 5378 1978 8695      		lsr r24
 5379 197a 8F70      		andi r24,lo8(15)
 5380 197c 8130      		cpi r24,lo8(1)
 5381 197e 01F0      		breq .L269
 5382               	.LBB829:
 5383               	.LBB830:
 5384               	.LM531:
 5385 1980 917E      		andi r25,lo8(-31)
 5386 1982 9260      		ori r25,lo8(2)
 5387 1984 9083      		st Z,r25
 5388               	.L269:
 5389 1986 0895      		ret
 5390               	.LBE830:
 5391               	.LBE829:
 5392               	.LFE105:
 5394               	.global	Timebase_DownCounter_SS_Stop
 5396               	Timebase_DownCounter_SS_Stop:
 5397               	.LFB106:
 5398               	.LM532:
 5399               	.LVL339:
 5400               	/* prologue: function */
 5401               	/* frame size = 0 */
 5402               	.LBB831:
 5403               	.LBB832:
 5404               	.LM533:
 5405 1988 E091 0000 		lds r30,Timebase
 5406 198c F091 0000 		lds r31,(Timebase)+1
 5407 1990 90E0      		ldi r25,lo8(0)
 5408               	.LBE832:
 5409               	.LBE831:
 5410               	.LM534:
 5411 1992 9C01      		movw r18,r24
 5412               	.LVL340:
 5413 1994 44E0      		ldi r20,4
 5414 1996 220F      	1:	lsl r18
 5415 1998 331F      		rol r19
 5416 199a 4A95      		dec r20
 5417 199c 01F4      		brne 1b
 5418 199e 280F      		add r18,r24
 5419 19a0 391F      		adc r19,r25
 5420 19a2 E20F      		add r30,r18
 5421 19a4 F31F      		adc r31,r19
 5422 19a6 E25B      		subi r30,lo8(-(78))
 5423 19a8 FF4F      		sbci r31,hi8(-(78))
 5424 19aa 9081      		ld r25,Z
 5425 19ac 892F      		mov r24,r25
 5426 19ae 8695      		lsr r24
 5427 19b0 8F70      		andi r24,lo8(15)
 5428 19b2 8230      		cpi r24,lo8(2)
 5429 19b4 01F0      		breq .L272
 5430               	.LBB833:
 5431               	.LBB834:
 5432               	.LM535:
 5433 19b6 917E      		andi r25,lo8(-31)
 5434 19b8 9460      		ori r25,lo8(4)
 5435 19ba 9083      		st Z,r25
 5436               	.L272:
 5437 19bc 0895      		ret
 5438               	.LBE834:
 5439               	.LBE833:
 5440               	.LFE106:
 5442               	.global	Timebase_DownCounter_SS_Set_Securely
 5444               	Timebase_DownCounter_SS_Set_Securely:
 5445               	.LFB107:
 5446               	.LM536:
 5447               	.LVL341:
 5448 19be 2F92      		push r2
 5449 19c0 3F92      		push r3
 5450 19c2 4F92      		push r4
 5451 19c4 5F92      		push r5
 5452 19c6 6F92      		push r6
 5453 19c8 7F92      		push r7
 5454 19ca 8F92      		push r8
 5455 19cc 9F92      		push r9
 5456 19ce AF92      		push r10
 5457 19d0 BF92      		push r11
 5458 19d2 CF92      		push r12
 5459 19d4 DF92      		push r13
 5460 19d6 EF92      		push r14
 5461 19d8 FF92      		push r15
 5462 19da 0F93      		push r16
 5463 19dc 1F93      		push r17
 5464 19de DF93      		push r29
 5465 19e0 CF93      		push r28
 5466 19e2 00D0      		rcall .
 5467 19e4 00D0      		rcall .
 5468 19e6 CDB7      		in r28,__SP_L__
 5469 19e8 DEB7      		in r29,__SP_H__
 5470               	/* prologue: function */
 5471               	/* frame size = 4 */
 5472 19ea 4A01      		movw r8,r20
 5473 19ec 5B01      		movw r10,r22
 5474               	.LBB835:
 5475               	.LBB836:
 5476               	.LM537:
 5477 19ee 2091 0000 		lds r18,Timebase
 5478 19f2 3091 0000 		lds r19,(Timebase)+1
 5479 19f6 3C83      		std Y+4,r19
 5480 19f8 2B83      		std Y+3,r18
 5481 19fa A82F      		mov r26,r24
 5482 19fc B0E0      		ldi r27,lo8(0)
 5483 19fe BA83      		std Y+2,r27
 5484 1a00 A983      		std Y+1,r26
 5485               	.LBE836:
 5486               	.LBE835:
 5487               	.LM538:
 5488 1a02 FD01      		movw r30,r26
 5489 1a04 64E0      		ldi r22,4
 5490 1a06 EE0F      	1:	lsl r30
 5491 1a08 FF1F      		rol r31
 5492 1a0a 6A95      		dec r22
 5493 1a0c 01F4      		brne 1b
 5494 1a0e EA0F      		add r30,r26
 5495 1a10 FB1F      		adc r31,r27
 5496 1a12 E20F      		add r30,r18
 5497 1a14 F31F      		adc r31,r19
 5498 1a16 E25B      		subi r30,lo8(-(78))
 5499 1a18 FF4F      		sbci r31,hi8(-(78))
 5500 1a1a 8081      		ld r24,Z
 5501               	.LVL342:
 5502 1a1c EE54      		subi r30,lo8(-(-78))
 5503 1a1e F040      		sbci r31,hi8(-(-78))
 5504 1a20 8695      		lsr r24
 5505 1a22 8F70      		andi r24,lo8(15)
 5506 1a24 01F0      		breq .+2
 5507 1a26 00C0      		rjmp .L276
 5508               	.LVL343:
 5509               	.LBB837:
 5510               	.LBB838:
 5511               	.LBB839:
 5512               	.LM539:
 5513 1a28 E95A      		subi r30,lo8(-(87))
 5514 1a2a FF4F      		sbci r31,hi8(-(87))
 5515 1a2c 8082      		st Z,r8
 5516 1a2e 9182      		std Z+1,r9
 5517 1a30 A282      		std Z+2,r10
 5518 1a32 B382      		std Z+3,r11
 5519               	.LBE839:
 5520               	.LBE838:
 5521               	.LBB840:
 5522               	.LBB841:
 5523               	.LM540:
 5524 1a34 F901      		movw r30,r18
 5525 1a36 C084      		ldd r12,Z+8
 5526 1a38 D184      		ldd r13,Z+9
 5527               	.LBE841:
 5528               	.LBE840:
 5529               	.LBB842:
 5530               	.LBB843:
 5531               	.LM541:
 5532 1a3a 2284      		ldd r2,Z+10
 5533 1a3c 3384      		ldd r3,Z+11
 5534 1a3e 4484      		ldd r4,Z+12
 5535 1a40 5584      		ldd r5,Z+13
 5536               	.LVL344:
 5537               	.LBE843:
 5538               	.LBE842:
 5539               	.LM542:
 5540 1a42 2181      		ldd r18,Z+1
 5541 1a44 3281      		ldd r19,Z+2
 5542 1a46 40E0      		ldi r20,lo8(0)
 5543 1a48 50E0      		ldi r21,hi8(0)
 5544 1a4a C501      		movw r24,r10
 5545 1a4c B401      		movw r22,r8
 5546 1a4e 0E94 0000 		call __divmodsi4
 5547 1a52 7B01      		movw r14,r22
 5548 1a54 8C01      		movw r16,r24
 5549               	.LM543:
 5550 1a56 AB81      		ldd r26,Y+3
 5551 1a58 BC81      		ldd r27,Y+4
 5552 1a5a 1196      		adiw r26,1
 5553 1a5c 2D91      		ld r18,X+
 5554 1a5e 3C91      		ld r19,X
 5555 1a60 1297      		sbiw r26,1+1
 5556 1a62 40E0      		ldi r20,lo8(0)
 5557 1a64 50E0      		ldi r21,hi8(0)
 5558 1a66 C501      		movw r24,r10
 5559 1a68 B401      		movw r22,r8
 5560 1a6a 0E94 0000 		call __divmodsi4
 5561 1a6e C901      		movw r24,r18
 5562 1a70 DA01      		movw r26,r20
 5563 1a72 3C01      		movw r6,r24
 5564 1a74 4D01      		movw r8,r26
 5565               	.LVL345:
 5566               	.LM544:
 5567 1a76 5601      		movw r10,r12
 5568               	.LVL346:
 5569 1a78 CC24      		clr r12
 5570 1a7a DD24      		clr r13
 5571               	.LVL347:
 5572 1a7c AE0C      		add r10,r14
 5573 1a7e BF1C      		adc r11,r15
 5574 1a80 C01E      		adc r12,r16
 5575 1a82 D11E      		adc r13,r17
 5576               	.LVL348:
 5577               	.LM545:
 5578 1a84 EB81      		ldd r30,Y+3
 5579 1a86 FC81      		ldd r31,Y+4
 5580 1a88 8181      		ldd r24,Z+1
 5581 1a8a 9281      		ldd r25,Z+2
 5582               	.LVL349:
 5583 1a8c A0E0      		ldi r26,lo8(0)
 5584 1a8e B0E0      		ldi r27,hi8(0)
 5585 1a90 A816      		cp r10,r24
 5586 1a92 B906      		cpc r11,r25
 5587 1a94 CA06      		cpc r12,r26
 5588 1a96 DB06      		cpc r13,r27
 5589 1a98 04F0      		brlt .L275
 5590               	.LM546:
 5591 1a9a 0894      		sec
 5592 1a9c 611C      		adc r6,__zero_reg__
 5593 1a9e 711C      		adc r7,__zero_reg__
 5594 1aa0 811C      		adc r8,__zero_reg__
 5595 1aa2 911C      		adc r9,__zero_reg__
 5596               	.LM547:
 5597 1aa4 2181      		ldd r18,Z+1
 5598 1aa6 3281      		ldd r19,Z+2
 5599 1aa8 40E0      		ldi r20,lo8(0)
 5600 1aaa 50E0      		ldi r21,hi8(0)
 5601 1aac C601      		movw r24,r12
 5602 1aae B501      		movw r22,r10
 5603 1ab0 0E94 0000 		call __divmodsi4
 5604 1ab4 AC01      		movw r20,r24
 5605 1ab6 CB01      		movw r24,r22
 5606 1ab8 DA01      		movw r26,r20
 5607 1aba 5C01      		movw r10,r24
 5608 1abc 6D01      		movw r12,r26
 5609               	.L275:
 5610               	.LBB844:
 5611               	.LBB845:
 5612               	.LM548:
 5613 1abe E981      		ldd r30,Y+1
 5614 1ac0 FA81      		ldd r31,Y+2
 5615 1ac2 54E0      		ldi r21,4
 5616 1ac4 EE0F      	1:	lsl r30
 5617 1ac6 FF1F      		rol r31
 5618 1ac8 5A95      		dec r21
 5619 1aca 01F4      		brne 1b
 5620 1acc 2981      		ldd r18,Y+1
 5621 1ace 3A81      		ldd r19,Y+2
 5622 1ad0 E20F      		add r30,r18
 5623 1ad2 F31F      		adc r31,r19
 5624 1ad4 8B81      		ldd r24,Y+3
 5625 1ad6 9C81      		ldd r25,Y+4
 5626 1ad8 E80F      		add r30,r24
 5627 1ada F91F      		adc r31,r25
 5628 1adc E15B      		subi r30,lo8(-(79))
 5629 1ade FF4F      		sbci r31,hi8(-(79))
 5630 1ae0 260C      		add r2,r6
 5631 1ae2 371C      		adc r3,r7
 5632 1ae4 481C      		adc r4,r8
 5633 1ae6 591C      		adc r5,r9
 5634 1ae8 2192      		st Z+,r2
 5635 1aea 3192      		st Z+,r3
 5636 1aec 4192      		st Z+,r4
 5637 1aee 5192      		st Z+,r5
 5638               	.LBE845:
 5639               	.LBE844:
 5640               	.LBB846:
 5641               	.LBB847:
 5642               	.LM549:
 5643 1af0 A082      		st Z,r10
 5644 1af2 B182      		std Z+1,r11
 5645 1af4 C282      		std Z+2,r12
 5646 1af6 D382      		std Z+3,r13
 5647               	.LBE847:
 5648               	.LBE846:
 5649               	.LBB848:
 5650               	.LBB849:
 5651               	.LM550:
 5652 1af8 3597      		sbiw r30,5
 5653 1afa 9081      		ld r25,Z
 5654 1afc 892F      		mov r24,r25
 5655 1afe 8695      		lsr r24
 5656 1b00 8F70      		andi r24,lo8(15)
 5657 1b02 8130      		cpi r24,lo8(1)
 5658 1b04 01F0      		breq .L276
 5659               	.LBB850:
 5660               	.LBB851:
 5661               	.LM551:
 5662 1b06 917E      		andi r25,lo8(-31)
 5663 1b08 9260      		ori r25,lo8(2)
 5664 1b0a 9083      		st Z,r25
 5665               	.LVL350:
 5666               	.L276:
 5667               	/* epilogue start */
 5668               	.LBE851:
 5669               	.LBE850:
 5670               	.LBE849:
 5671               	.LBE848:
 5672               	.LBE837:
 5673               	.LM552:
 5674 1b0c 0F90      		pop __tmp_reg__
 5675 1b0e 0F90      		pop __tmp_reg__
 5676 1b10 0F90      		pop __tmp_reg__
 5677 1b12 0F90      		pop __tmp_reg__
 5678 1b14 CF91      		pop r28
 5679 1b16 DF91      		pop r29
 5680 1b18 1F91      		pop r17
 5681 1b1a 0F91      		pop r16
 5682 1b1c FF90      		pop r15
 5683 1b1e EF90      		pop r14
 5684 1b20 DF90      		pop r13
 5685 1b22 CF90      		pop r12
 5686               	.LVL351:
 5687 1b24 BF90      		pop r11
 5688 1b26 AF90      		pop r10
 5689               	.LVL352:
 5690 1b28 9F90      		pop r9
 5691 1b2a 8F90      		pop r8
 5692               	.LVL353:
 5693 1b2c 7F90      		pop r7
 5694 1b2e 6F90      		pop r6
 5695               	.LVL354:
 5696 1b30 5F90      		pop r5
 5697 1b32 4F90      		pop r4
 5698 1b34 3F90      		pop r3
 5699 1b36 2F90      		pop r2
 5700               	.LVL355:
 5701 1b38 0895      		ret
 5702               	.LFE107:
 5704               	.global	Timebase_DownCounter_SS_Set_Forcefully
 5706               	Timebase_DownCounter_SS_Set_Forcefully:
 5707               	.LFB108:
 5708               	.LM553:
 5709               	.LVL356:
 5710               	/* prologue: function */
 5711               	/* frame size = 0 */
 5712               	.LBB852:
 5713               	.LBB853:
 5714               	.LBB854:
 5715               	.LBB855:
 5716               	.LM554:
 5717 1b3a E091 0000 		lds r30,Timebase
 5718 1b3e F091 0000 		lds r31,(Timebase)+1
 5719 1b42 A82F      		mov r26,r24
 5720 1b44 B0E0      		ldi r27,lo8(0)
 5721 1b46 9D01      		movw r18,r26
 5722 1b48 94E0      		ldi r25,4
 5723 1b4a 220F      	1:	lsl r18
 5724 1b4c 331F      		rol r19
 5725 1b4e 9A95      		dec r25
 5726 1b50 01F4      		brne 1b
 5727 1b52 2A0F      		add r18,r26
 5728 1b54 3B1F      		adc r19,r27
 5729 1b56 E20F      		add r30,r18
 5730 1b58 F31F      		adc r31,r19
 5731 1b5a ED5A      		subi r30,lo8(-(83))
 5732 1b5c FF4F      		sbci r31,hi8(-(83))
 5733 1b5e 1082      		st Z,__zero_reg__
 5734 1b60 1182      		std Z+1,__zero_reg__
 5735 1b62 1282      		std Z+2,__zero_reg__
 5736 1b64 1382      		std Z+3,__zero_reg__
 5737               	.LBE855:
 5738               	.LBE854:
 5739               	.LBB856:
 5740               	.LBB857:
 5741               	.LM555:
 5742 1b66 1292      		st -Z,__zero_reg__
 5743 1b68 1292      		st -Z,__zero_reg__
 5744 1b6a 1292      		st -Z,__zero_reg__
 5745 1b6c 1292      		st -Z,__zero_reg__
 5746               	.LBE857:
 5747               	.LBE856:
 5748               	.LBB858:
 5749               	.LBB859:
 5750               	.LM556:
 5751 1b6e 3896      		adiw r30,8
 5752 1b70 1082      		st Z,__zero_reg__
 5753 1b72 1182      		std Z+1,__zero_reg__
 5754 1b74 1282      		std Z+2,__zero_reg__
 5755 1b76 1382      		std Z+3,__zero_reg__
 5756               	.LBE859:
 5757               	.LBE858:
 5758               	.LBB860:
 5759               	.LBB861:
 5760               	.LM557:
 5761 1b78 3997      		sbiw r30,9
 5762 1b7a 9081      		ld r25,Z
 5763               	.LBE861:
 5764               	.LBE860:
 5765               	.LBB862:
 5766               	.LBB863:
 5767               	.LM558:
 5768 1b7c 907E      		andi r25,lo8(-32)
 5769 1b7e 9083      		st Z,r25
 5770               	.LBE863:
 5771               	.LBE862:
 5772               	.LBE853:
 5773               	.LBE852:
 5774               	.LM559:
 5775 1b80 0E94 0000 		call Timebase_DownCounter_SS_Set_Securely
 5776               	.LVL357:
 5777               	/* epilogue start */
 5778               	.LM560:
 5779 1b84 0895      		ret
 5780               	.LFE108:
 5782               	.global	Timebase_DownCounter_SS_Update
 5784               	Timebase_DownCounter_SS_Update:
 5785               	.LFB109:
 5786               	.LM561:
 5787               	.LVL358:
 5788 1b86 2F92      		push r2
 5789 1b88 3F92      		push r3
 5790 1b8a 4F92      		push r4
 5791 1b8c 5F92      		push r5
 5792 1b8e 6F92      		push r6
 5793 1b90 7F92      		push r7
 5794 1b92 8F92      		push r8
 5795 1b94 9F92      		push r9
 5796 1b96 AF92      		push r10
 5797 1b98 BF92      		push r11
 5798 1b9a CF92      		push r12
 5799 1b9c DF92      		push r13
 5800 1b9e EF92      		push r14
 5801 1ba0 FF92      		push r15
 5802 1ba2 0F93      		push r16
 5803 1ba4 1F93      		push r17
 5804 1ba6 CF93      		push r28
 5805 1ba8 DF93      		push r29
 5806               	/* prologue: function */
 5807               	/* frame size = 0 */
 5808               	.LBB864:
 5809               	.LBB865:
 5810               	.LM562:
 5811 1baa C090 0000 		lds r12,Timebase
 5812 1bae D090 0000 		lds r13,(Timebase)+1
 5813 1bb2 082F      		mov r16,r24
 5814 1bb4 10E0      		ldi r17,lo8(0)
 5815 1bb6 E801      		movw r28,r16
 5816 1bb8 34E0      		ldi r19,4
 5817 1bba CC0F      	1:	lsl r28
 5818 1bbc DD1F      		rol r29
 5819 1bbe 3A95      		dec r19
 5820 1bc0 01F4      		brne 1b
 5821 1bc2 C00F      		add r28,r16
 5822 1bc4 D11F      		adc r29,r17
 5823 1bc6 CC0D      		add r28,r12
 5824 1bc8 DD1D      		adc r29,r13
 5825 1bca C25B      		subi r28,lo8(-(78))
 5826 1bcc DF4F      		sbci r29,hi8(-(78))
 5827 1bce 8881      		ld r24,Y
 5828               	.LVL359:
 5829 1bd0 CE54      		subi r28,lo8(-(-78))
 5830 1bd2 D040      		sbci r29,hi8(-(-78))
 5831 1bd4 8695      		lsr r24
 5832 1bd6 8F70      		andi r24,lo8(15)
 5833               	.LBE865:
 5834               	.LBE864:
 5835               	.LM563:
 5836 1bd8 8130      		cpi r24,lo8(1)
 5837 1bda 01F0      		breq .+2
 5838 1bdc 00C0      		rjmp .L280
 5839               	.LBB866:
 5840               	.LBB867:
 5841               	.LBB868:
 5842               	.LM564:
 5843 1bde F601      		movw r30,r12
 5844 1be0 8085      		ldd r24,Z+8
 5845 1be2 9185      		ldd r25,Z+9
 5846               	.LBE868:
 5847               	.LBE867:
 5848               	.LM565:
 5849 1be4 4C01      		movw r8,r24
 5850               	.LVL360:
 5851 1be6 AA24      		clr r10
 5852 1be8 BB24      		clr r11
 5853               	.LVL361:
 5854               	.LBB869:
 5855               	.LBB870:
 5856               	.LM566:
 5857 1bea 8285      		ldd r24,Z+10
 5858 1bec 9385      		ldd r25,Z+11
 5859 1bee A485      		ldd r26,Z+12
 5860 1bf0 B585      		ldd r27,Z+13
 5861               	.LVL362:
 5862               	.LBE870:
 5863               	.LBE869:
 5864               	.LM567:
 5865 1bf2 C15B      		subi r28,lo8(-(79))
 5866 1bf4 DF4F      		sbci r29,hi8(-(79))
 5867 1bf6 2880      		ld r2,Y
 5868 1bf8 3980      		ldd r3,Y+1
 5869 1bfa 4A80      		ldd r4,Y+2
 5870 1bfc 5B80      		ldd r5,Y+3
 5871               	.LVL363:
 5872 1bfe 281A      		sub r2,r24
 5873 1c00 390A      		sbc r3,r25
 5874 1c02 4A0A      		sbc r4,r26
 5875 1c04 5B0A      		sbc r5,r27
 5876 1c06 57FE      		sbrs r5,7
 5877 1c08 00C0      		rjmp .L281
 5878 1c0a 2224      		clr r2
 5879 1c0c 3324      		clr r3
 5880 1c0e 2101      		movw r4,r2
 5881               	.L281:
 5882               	.LM568:
 5883 1c10 F601      		movw r30,r12
 5884 1c12 2181      		ldd r18,Z+1
 5885 1c14 3281      		ldd r19,Z+2
 5886 1c16 40E0      		ldi r20,lo8(0)
 5887 1c18 50E0      		ldi r21,hi8(0)
 5888 1c1a C201      		movw r24,r4
 5889 1c1c B101      		movw r22,r2
 5890 1c1e 0E94 0000 		call __mulsi3
 5891               	.LM569:
 5892 1c22 F801      		movw r30,r16
 5893 1c24 24E0      		ldi r18,4
 5894 1c26 EE0F      	1:	lsl r30
 5895 1c28 FF1F      		rol r31
 5896 1c2a 2A95      		dec r18
 5897 1c2c 01F4      		brne 1b
 5898 1c2e E00F      		add r30,r16
 5899 1c30 F11F      		adc r31,r17
 5900 1c32 EC0D      		add r30,r12
 5901 1c34 FD1D      		adc r31,r13
 5902 1c36 EF01      		movw r28,r30
 5903 1c38 CD5A      		subi r28,lo8(-(83))
 5904 1c3a DF4F      		sbci r29,hi8(-(83))
 5905 1c3c 2881      		ld r18,Y
 5906 1c3e 3981      		ldd r19,Y+1
 5907 1c40 4A81      		ldd r20,Y+2
 5908 1c42 5B81      		ldd r21,Y+3
 5909               	.LVL364:
 5910 1c44 2819      		sub r18,r8
 5911 1c46 3909      		sbc r19,r9
 5912 1c48 4A09      		sbc r20,r10
 5913 1c4a 5B09      		sbc r21,r11
 5914 1c4c 260F      		add r18,r22
 5915 1c4e 371F      		adc r19,r23
 5916 1c50 481F      		adc r20,r24
 5917 1c52 591F      		adc r21,r25
 5918               	.LBB871:
 5919               	.LBB872:
 5920               	.LM570:
 5921 1c54 DF01      		movw r26,r30
 5922 1c56 A95A      		subi r26,lo8(-(87))
 5923 1c58 BF4F      		sbci r27,hi8(-(87))
 5924 1c5a 2D93      		st X+,r18
 5925 1c5c 3D93      		st X+,r19
 5926 1c5e 4D93      		st X+,r20
 5927 1c60 5C93      		st X,r21
 5928 1c62 1397      		sbiw r26,3
 5929               	.LBE872:
 5930               	.LBE871:
 5931               	.LM571:
 5932 1c64 1216      		cp __zero_reg__,r18
 5933 1c66 1306      		cpc __zero_reg__,r19
 5934 1c68 1406      		cpc __zero_reg__,r20
 5935 1c6a 1506      		cpc __zero_reg__,r21
 5936 1c6c 04F4      		brge .+2
 5937 1c6e 00C0      		rjmp .L283
 5938               	.LBB873:
 5939               	.LBB874:
 5940               	.LBB875:
 5941               	.LBB876:
 5942               	.LM572:
 5943 1c70 1882      		st Y,__zero_reg__
 5944 1c72 1982      		std Y+1,__zero_reg__
 5945 1c74 1A82      		std Y+2,__zero_reg__
 5946 1c76 1B82      		std Y+3,__zero_reg__
 5947               	.LBE876:
 5948               	.LBE875:
 5949               	.LBB877:
 5950               	.LBB878:
 5951               	.LM573:
 5952 1c78 E15B      		subi r30,lo8(-(79))
 5953 1c7a FF4F      		sbci r31,hi8(-(79))
 5954 1c7c 1082      		st Z,__zero_reg__
 5955 1c7e 1182      		std Z+1,__zero_reg__
 5956 1c80 1282      		std Z+2,__zero_reg__
 5957 1c82 1382      		std Z+3,__zero_reg__
 5958               	.LBE878:
 5959               	.LBE877:
 5960               	.LBB879:
 5961               	.LBB880:
 5962               	.LM574:
 5963 1c84 1D92      		st X+,__zero_reg__
 5964 1c86 1D92      		st X+,__zero_reg__
 5965 1c88 1D92      		st X+,__zero_reg__
 5966 1c8a 1C92      		st X,__zero_reg__
 5967 1c8c 1397      		sbiw r26,3
 5968               	.LBE880:
 5969               	.LBE879:
 5970               	.LBB881:
 5971               	.LBB882:
 5972               	.LM575:
 5973 1c8e 8291      		ld r24,-Z
 5974               	.LBE882:
 5975               	.LBE881:
 5976               	.LBE874:
 5977               	.LBE873:
 5978               	.LBB883:
 5979               	.LBB884:
 5980               	.LM576:
 5981 1c90 807E      		andi r24,lo8(-32)
 5982 1c92 8860      		ori r24,lo8(8)
 5983 1c94 8083      		st Z,r24
 5984 1c96 00C0      		rjmp .L283
 5985               	.LVL365:
 5986               	.L280:
 5987               	.LBE884:
 5988               	.LBE883:
 5989               	.LBE866:
 5990               	.LM577:
 5991 1c98 8230      		cpi r24,lo8(2)
 5992 1c9a 01F4      		brne .L283
 5993               	.LBB885:
 5994               	.LBB886:
 5995               	.LBB887:
 5996               	.LM578:
 5997 1c9c F601      		movw r30,r12
 5998 1c9e 6084      		ldd r6,Z+8
 5999 1ca0 7184      		ldd r7,Z+9
 6000               	.LBE887:
 6001               	.LBE886:
 6002               	.LBB888:
 6003               	.LBB889:
 6004               	.LM579:
 6005 1ca2 E284      		ldd r14,Z+10
 6006 1ca4 F384      		ldd r15,Z+11
 6007 1ca6 0485      		ldd r16,Z+12
 6008 1ca8 1585      		ldd r17,Z+13
 6009               	.LVL366:
 6010               	.LBE889:
 6011               	.LBE888:
 6012               	.LBB890:
 6013               	.LBB891:
 6014               	.LM580:
 6015 1caa C95A      		subi r28,lo8(-(87))
 6016 1cac DF4F      		sbci r29,hi8(-(87))
 6017 1cae 2880      		ld r2,Y
 6018 1cb0 3980      		ldd r3,Y+1
 6019 1cb2 4A80      		ldd r4,Y+2
 6020 1cb4 5B80      		ldd r5,Y+3
 6021               	.LVL367:
 6022               	.LBE891:
 6023               	.LBE890:
 6024               	.LM581:
 6025 1cb6 2181      		ldd r18,Z+1
 6026 1cb8 3281      		ldd r19,Z+2
 6027               	.LM582:
 6028 1cba A180      		ldd r10,Z+1
 6029 1cbc B280      		ldd r11,Z+2
 6030               	.LBB892:
 6031               	.LBB893:
 6032               	.LM583:
 6033 1cbe 2897      		sbiw r28,8
 6034 1cc0 40E0      		ldi r20,lo8(0)
 6035 1cc2 50E0      		ldi r21,hi8(0)
 6036 1cc4 C201      		movw r24,r4
 6037 1cc6 B101      		movw r22,r2
 6038 1cc8 0E94 0000 		call __divmodsi4
 6039 1ccc E20E      		add r14,r18
 6040 1cce F31E      		adc r15,r19
 6041 1cd0 041F      		adc r16,r20
 6042 1cd2 151F      		adc r17,r21
 6043 1cd4 E992      		st Y+,r14
 6044 1cd6 F992      		st Y+,r15
 6045 1cd8 0993      		st Y+,r16
 6046 1cda 1993      		st Y+,r17
 6047               	.LBE893:
 6048               	.LBE892:
 6049               	.LBB894:
 6050               	.LBB895:
 6051               	.LM584:
 6052 1cdc CC24      		clr r12
 6053 1cde DD24      		clr r13
 6054 1ce0 C201      		movw r24,r4
 6055 1ce2 B101      		movw r22,r2
 6056 1ce4 A601      		movw r20,r12
 6057 1ce6 9501      		movw r18,r10
 6058 1ce8 0E94 0000 		call __divmodsi4
 6059 1cec 8824      		clr r8
 6060 1cee 9924      		clr r9
 6061 1cf0 660E      		add r6,r22
 6062 1cf2 771E      		adc r7,r23
 6063 1cf4 881E      		adc r8,r24
 6064 1cf6 991E      		adc r9,r25
 6065 1cf8 6882      		st Y,r6
 6066 1cfa 7982      		std Y+1,r7
 6067 1cfc 8A82      		std Y+2,r8
 6068 1cfe 9B82      		std Y+3,r9
 6069               	.LVL368:
 6070               	.L283:
 6071               	/* epilogue start */
 6072               	.LBE895:
 6073               	.LBE894:
 6074               	.LBE885:
 6075               	.LM585:
 6076 1d00 DF91      		pop r29
 6077 1d02 CF91      		pop r28
 6078 1d04 1F91      		pop r17
 6079 1d06 0F91      		pop r16
 6080 1d08 FF90      		pop r15
 6081 1d0a EF90      		pop r14
 6082               	.LVL369:
 6083 1d0c DF90      		pop r13
 6084 1d0e CF90      		pop r12
 6085 1d10 BF90      		pop r11
 6086 1d12 AF90      		pop r10
 6087               	.LVL370:
 6088 1d14 9F90      		pop r9
 6089 1d16 8F90      		pop r8
 6090               	.LVL371:
 6091 1d18 7F90      		pop r7
 6092 1d1a 6F90      		pop r6
 6093 1d1c 5F90      		pop r5
 6094 1d1e 4F90      		pop r4
 6095 1d20 3F90      		pop r3
 6096 1d22 2F90      		pop r2
 6097               	.LVL372:
 6098 1d24 0895      		ret
 6099               	.LFE109:
 6101               	.global	Timebase_DownCounter_SS_Expired
 6103               	Timebase_DownCounter_SS_Expired:
 6104               	.LFB110:
 6105               	.LM586:
 6106               	.LVL373:
 6107               	/* prologue: function */
 6108               	/* frame size = 0 */
 6109               	.LM587:
 6110 1d26 40E0      		ldi r20,lo8(0)
 6111 1d28 E091 0000 		lds r30,Timebase
 6112 1d2c F091 0000 		lds r31,(Timebase)+1
 6113 1d30 90E0      		ldi r25,lo8(0)
 6114               	.LVL374:
 6115 1d32 9C01      		movw r18,r24
 6116 1d34 54E0      		ldi r21,4
 6117 1d36 220F      	1:	lsl r18
 6118 1d38 331F      		rol r19
 6119 1d3a 5A95      		dec r21
 6120 1d3c 01F4      		brne 1b
 6121 1d3e 280F      		add r18,r24
 6122 1d40 391F      		adc r19,r25
 6123 1d42 E20F      		add r30,r18
 6124 1d44 F31F      		adc r31,r19
 6125 1d46 E25B      		subi r30,lo8(-(78))
 6126 1d48 FF4F      		sbci r31,hi8(-(78))
 6127 1d4a 8081      		ld r24,Z
 6128               	.LVL375:
 6129 1d4c 8695      		lsr r24
 6130 1d4e 8F70      		andi r24,lo8(15)
 6131 1d50 8430      		cpi r24,lo8(4)
 6132 1d52 01F4      		brne .L285
 6133 1d54 41E0      		ldi r20,lo8(1)
 6134               	.L285:
 6135               	.LM588:
 6136 1d56 842F      		mov r24,r20
 6137               	/* epilogue start */
 6138 1d58 0895      		ret
 6139               	.LFE110:
 6141               	.global	Timebase_DownCounter_SS_Expired_Event
 6143               	Timebase_DownCounter_SS_Expired_Event:
 6144               	.LFB111:
 6145               	.LM589:
 6146               	.LVL376:
 6147               	/* prologue: function */
 6148               	/* frame size = 0 */
 6149               	.LBB896:
 6150               	.LBB897:
 6151               	.LM590:
 6152 1d5a E091 0000 		lds r30,Timebase
 6153 1d5e F091 0000 		lds r31,(Timebase)+1
 6154 1d62 90E0      		ldi r25,lo8(0)
 6155               	.LBE897:
 6156               	.LBE896:
 6157               	.LM591:
 6158 1d64 9C01      		movw r18,r24
 6159               	.LVL377:
 6160 1d66 64E0      		ldi r22,4
 6161 1d68 220F      	1:	lsl r18
 6162 1d6a 331F      		rol r19
 6163 1d6c 6A95      		dec r22
 6164 1d6e 01F4      		brne 1b
 6165 1d70 280F      		add r18,r24
 6166 1d72 391F      		adc r19,r25
 6167 1d74 E20F      		add r30,r18
 6168 1d76 F31F      		adc r31,r19
 6169 1d78 DF01      		movw r26,r30
 6170 1d7a A25B      		subi r26,lo8(-(78))
 6171 1d7c BF4F      		sbci r27,hi8(-(78))
 6172 1d7e 8C91      		ld r24,X
 6173 1d80 8695      		lsr r24
 6174 1d82 8F70      		andi r24,lo8(15)
 6175 1d84 8430      		cpi r24,lo8(4)
 6176 1d86 01F0      		breq .L288
 6177 1d88 80E0      		ldi r24,lo8(0)
 6178 1d8a 0895      		ret
 6179               	.L288:
 6180               	.LBB898:
 6181               	.LBB899:
 6182               	.LBB900:
 6183               	.LBB901:
 6184               	.LBB902:
 6185               	.LBB903:
 6186               	.LM592:
 6187 1d8c ED5A      		subi r30,lo8(-(83))
 6188 1d8e FF4F      		sbci r31,hi8(-(83))
 6189 1d90 1082      		st Z,__zero_reg__
 6190 1d92 1182      		std Z+1,__zero_reg__
 6191 1d94 1282      		std Z+2,__zero_reg__
 6192 1d96 1382      		std Z+3,__zero_reg__
 6193               	.LBE903:
 6194               	.LBE902:
 6195               	.LBB904:
 6196               	.LBB905:
 6197               	.LM593:
 6198 1d98 1292      		st -Z,__zero_reg__
 6199 1d9a 1292      		st -Z,__zero_reg__
 6200 1d9c 1292      		st -Z,__zero_reg__
 6201 1d9e 1292      		st -Z,__zero_reg__
 6202               	.LBE905:
 6203               	.LBE904:
 6204               	.LBB906:
 6205               	.LBB907:
 6206               	.LM594:
 6207 1da0 3896      		adiw r30,8
 6208 1da2 1082      		st Z,__zero_reg__
 6209 1da4 1182      		std Z+1,__zero_reg__
 6210 1da6 1282      		std Z+2,__zero_reg__
 6211 1da8 1382      		std Z+3,__zero_reg__
 6212               	.LBE907:
 6213               	.LBE906:
 6214               	.LBB908:
 6215               	.LBB909:
 6216               	.LM595:
 6217 1daa 8C91      		ld r24,X
 6218               	.LBE909:
 6219               	.LBE908:
 6220               	.LBB910:
 6221               	.LBB911:
 6222               	.LM596:
 6223 1dac 807E      		andi r24,lo8(-32)
 6224 1dae 8C93      		st X,r24
 6225 1db0 81E0      		ldi r24,lo8(1)
 6226               	.LBE911:
 6227               	.LBE910:
 6228               	.LBE901:
 6229               	.LBE900:
 6230               	.LBE899:
 6231               	.LBE898:
 6232               	.LM597:
 6233 1db2 0895      		ret
 6234               	.LFE111:
 6236               	.global	Timebase_DownCounter_SS_Set_Period_Value_Securely
 6238               	Timebase_DownCounter_SS_Set_Period_Value_Securely:
 6239               	.LFB112:
 6240               	.LM598:
 6241               	.LVL378:
 6242 1db4 CF93      		push r28
 6243 1db6 DF93      		push r29
 6244               	/* prologue: function */
 6245               	/* frame size = 0 */
 6246               	.LBB912:
 6247               	.LBB913:
 6248               	.LM599:
 6249 1db8 C091 0000 		lds r28,Timebase
 6250 1dbc D091 0000 		lds r29,(Timebase)+1
 6251 1dc0 282F      		mov r18,r24
 6252 1dc2 30E0      		ldi r19,lo8(0)
 6253               	.LBE913:
 6254               	.LBE912:
 6255               	.LM600:
 6256 1dc4 F901      		movw r30,r18
 6257 1dc6 A4E0      		ldi r26,4
 6258 1dc8 EE0F      	1:	lsl r30
 6259 1dca FF1F      		rol r31
 6260 1dcc AA95      		dec r26
 6261 1dce 01F4      		brne 1b
 6262 1dd0 E20F      		add r30,r18
 6263 1dd2 F31F      		adc r31,r19
 6264 1dd4 EC0F      		add r30,r28
 6265 1dd6 FD1F      		adc r31,r29
 6266 1dd8 E25B      		subi r30,lo8(-(78))
 6267 1dda FF4F      		sbci r31,hi8(-(78))
 6268 1ddc 8081      		ld r24,Z
 6269               	.LVL379:
 6270 1dde EE54      		subi r30,lo8(-(-78))
 6271 1de0 F040      		sbci r31,hi8(-(-78))
 6272 1de2 80FD      		sbrc r24,0
 6273 1de4 00C0      		rjmp .L295
 6274               	.LM601:
 6275 1de6 E95A      		subi r30,lo8(-(87))
 6276 1de8 FF4F      		sbci r31,hi8(-(87))
 6277 1dea 8191      		ld r24,Z+
 6278 1dec 9191      		ld r25,Z+
 6279 1dee A191      		ld r26,Z+
 6280 1df0 B191      		ld r27,Z+
 6281 1df2 841B      		sub r24,r20
 6282 1df4 950B      		sbc r25,r21
 6283 1df6 A60B      		sbc r26,r22
 6284 1df8 B70B      		sbc r27,r23
 6285               	.LBB914:
 6286               	.LBB915:
 6287               	.LM602:
 6288 1dfa B7FF      		sbrs r27,7
 6289 1dfc 00C0      		rjmp .L293
 6290               	.LM603:
 6291 1dfe 1082      		st Z,__zero_reg__
 6292 1e00 1182      		std Z+1,__zero_reg__
 6293 1e02 1282      		std Z+2,__zero_reg__
 6294 1e04 1382      		std Z+3,__zero_reg__
 6295 1e06 00C0      		rjmp .L294
 6296               	.L293:
 6297               	.LM604:
 6298 1e08 8083      		st Z,r24
 6299 1e0a 9183      		std Z+1,r25
 6300 1e0c A283      		std Z+2,r26
 6301 1e0e B383      		std Z+3,r27
 6302               	.L294:
 6303               	.LBE915:
 6304               	.LBE914:
 6305               	.LBB916:
 6306               	.LBB917:
 6307               	.LM605:
 6308 1e10 F901      		movw r30,r18
 6309 1e12 74E0      		ldi r23,4
 6310 1e14 EE0F      	1:	lsl r30
 6311 1e16 FF1F      		rol r31
 6312 1e18 7A95      		dec r23
 6313 1e1a 01F4      		brne 1b
 6314 1e1c E20F      		add r30,r18
 6315 1e1e F31F      		adc r31,r19
 6316 1e20 EC0F      		add r30,r28
 6317 1e22 FD1F      		adc r31,r29
 6318 1e24 E25B      		subi r30,lo8(-(78))
 6319 1e26 FF4F      		sbci r31,hi8(-(78))
 6320 1e28 8081      		ld r24,Z
 6321 1e2a 8160      		ori r24,lo8(1)
 6322 1e2c 8083      		st Z,r24
 6323               	.L295:
 6324               	/* epilogue start */
 6325               	.LBE917:
 6326               	.LBE916:
 6327               	.LM606:
 6328 1e2e DF91      		pop r29
 6329 1e30 CF91      		pop r28
 6330 1e32 0895      		ret
 6331               	.LFE112:
 6333               	.global	Timebase_DownCounter_SS_Get_Remaining_Period_Value
 6335               	Timebase_DownCounter_SS_Get_Remaining_Period_Value:
 6336               	.LFB113:
 6337               	.LM607:
 6338               	.LVL380:
 6339               	/* prologue: function */
 6340               	/* frame size = 0 */
 6341               	.LBB918:
 6342               	.LBB919:
 6343               	.LM608:
 6344 1e34 E091 0000 		lds r30,Timebase
 6345 1e38 F091 0000 		lds r31,(Timebase)+1
 6346 1e3c 90E0      		ldi r25,lo8(0)
 6347               	.LBE919:
 6348               	.LBE918:
 6349               	.LM609:
 6350 1e3e 9C01      		movw r18,r24
 6351               	.LVL381:
 6352 1e40 B4E0      		ldi r27,4
 6353 1e42 220F      	1:	lsl r18
 6354 1e44 331F      		rol r19
 6355 1e46 BA95      		dec r27
 6356 1e48 01F4      		brne 1b
 6357 1e4a 280F      		add r18,r24
 6358 1e4c 391F      		adc r19,r25
 6359 1e4e E20F      		add r30,r18
 6360 1e50 F31F      		adc r31,r19
 6361 1e52 DF01      		movw r26,r30
 6362 1e54 A55A      		subi r26,lo8(-(91))
 6363 1e56 BF4F      		sbci r27,hi8(-(91))
 6364 1e58 E95A      		subi r30,lo8(-(87))
 6365 1e5a FF4F      		sbci r31,hi8(-(87))
 6366 1e5c 2081      		ld r18,Z
 6367 1e5e 3181      		ldd r19,Z+1
 6368 1e60 4281      		ldd r20,Z+2
 6369 1e62 5381      		ldd r21,Z+3
 6370               	.LVL382:
 6371 1e64 8D91      		ld r24,X+
 6372 1e66 9D91      		ld r25,X+
 6373 1e68 0D90      		ld __tmp_reg__,X+
 6374 1e6a BC91      		ld r27,X
 6375 1e6c A02D      		mov r26,__tmp_reg__
 6376 1e6e 281B      		sub r18,r24
 6377 1e70 390B      		sbc r19,r25
 6378 1e72 4A0B      		sbc r20,r26
 6379 1e74 5B0B      		sbc r21,r27
 6380 1e76 57FF      		sbrs r21,7
 6381 1e78 00C0      		rjmp .L297
 6382 1e7a 20E0      		ldi r18,lo8(0)
 6383 1e7c 30E0      		ldi r19,hi8(0)
 6384 1e7e 40E0      		ldi r20,hlo8(0)
 6385 1e80 50E0      		ldi r21,hhi8(0)
 6386               	.L297:
 6387               	.LM610:
 6388 1e82 B901      		movw r22,r18
 6389               	.LVL383:
 6390 1e84 CA01      		movw r24,r20
 6391               	/* epilogue start */
 6392 1e86 0895      		ret
 6393               	.LFE113:
 6395               	.global	Timebase_DownCounter_SS_Period_Value_Expired
 6397               	Timebase_DownCounter_SS_Period_Value_Expired:
 6398               	.LFB114:
 6399               	.LM611:
 6400               	.LVL384:
 6401 1e88 CF93      		push r28
 6402 1e8a DF93      		push r29
 6403               	/* prologue: function */
 6404               	/* frame size = 0 */
 6405               	.LBB920:
 6406               	.LBB921:
 6407               	.LBB922:
 6408               	.LBB923:
 6409               	.LM612:
 6410 1e8c C091 0000 		lds r28,Timebase
 6411 1e90 D091 0000 		lds r29,(Timebase)+1
 6412 1e94 682F      		mov r22,r24
 6413 1e96 70E0      		ldi r23,lo8(0)
 6414               	.LBE923:
 6415               	.LBE922:
 6416               	.LM613:
 6417 1e98 FB01      		movw r30,r22
 6418 1e9a 44E0      		ldi r20,4
 6419 1e9c EE0F      	1:	lsl r30
 6420 1e9e FF1F      		rol r31
 6421 1ea0 4A95      		dec r20
 6422 1ea2 01F4      		brne 1b
 6423 1ea4 E60F      		add r30,r22
 6424 1ea6 F71F      		adc r31,r23
 6425 1ea8 EC0F      		add r30,r28
 6426 1eaa FD1F      		adc r31,r29
 6427 1eac DF01      		movw r26,r30
 6428 1eae A55A      		subi r26,lo8(-(91))
 6429 1eb0 BF4F      		sbci r27,hi8(-(91))
 6430 1eb2 E95A      		subi r30,lo8(-(87))
 6431 1eb4 FF4F      		sbci r31,hi8(-(87))
 6432 1eb6 2081      		ld r18,Z
 6433 1eb8 3181      		ldd r19,Z+1
 6434 1eba 4281      		ldd r20,Z+2
 6435 1ebc 5381      		ldd r21,Z+3
 6436               	.LVL385:
 6437 1ebe 8D91      		ld r24,X+
 6438 1ec0 9D91      		ld r25,X+
 6439 1ec2 0D90      		ld __tmp_reg__,X+
 6440 1ec4 BC91      		ld r27,X
 6441 1ec6 A02D      		mov r26,__tmp_reg__
 6442               	.LVL386:
 6443 1ec8 281B      		sub r18,r24
 6444 1eca 390B      		sbc r19,r25
 6445 1ecc 4A0B      		sbc r20,r26
 6446 1ece 5B0B      		sbc r21,r27
 6447               	.LM614:
 6448 1ed0 57FD      		sbrc r21,7
 6449 1ed2 00C0      		rjmp .L300
 6450               	.LBE921:
 6451               	.LBE920:
 6452               	.LM615:
 6453 1ed4 2115      		cp r18,__zero_reg__
 6454 1ed6 3105      		cpc r19,__zero_reg__
 6455 1ed8 4105      		cpc r20,__zero_reg__
 6456 1eda 5105      		cpc r21,__zero_reg__
 6457 1edc 01F0      		breq .L300
 6458 1ede 20E0      		ldi r18,lo8(0)
 6459               	.LVL387:
 6460 1ee0 00C0      		rjmp .L301
 6461               	.LVL388:
 6462               	.L300:
 6463 1ee2 20E0      		ldi r18,lo8(0)
 6464               	.LVL389:
 6465 1ee4 CB01      		movw r24,r22
 6466 1ee6 34E0      		ldi r19,4
 6467 1ee8 880F      	1:	lsl r24
 6468 1eea 991F      		rol r25
 6469 1eec 3A95      		dec r19
 6470 1eee 01F4      		brne 1b
 6471 1ef0 860F      		add r24,r22
 6472 1ef2 971F      		adc r25,r23
 6473 1ef4 C80F      		add r28,r24
 6474 1ef6 D91F      		adc r29,r25
 6475 1ef8 C25B      		subi r28,lo8(-(78))
 6476 1efa DF4F      		sbci r29,hi8(-(78))
 6477 1efc 8881      		ld r24,Y
 6478 1efe 80FF      		sbrs r24,0
 6479 1f00 21E0      		ldi r18,lo8(1)
 6480               	.L302:
 6481 1f02 81E0      		ldi r24,lo8(1)
 6482 1f04 2827      		eor r18,r24
 6483               	.L301:
 6484               	.LM616:
 6485 1f06 822F      		mov r24,r18
 6486               	/* epilogue start */
 6487 1f08 DF91      		pop r29
 6488 1f0a CF91      		pop r28
 6489 1f0c 0895      		ret
 6490               	.LFE114:
 6492               	.global	Timebase_DownCounter_SS_Period_Value_Expired_Event
 6494               	Timebase_DownCounter_SS_Period_Value_Expired_Event:
 6495               	.LFB115:
 6496               	.LM617:
 6497               	.LVL390:
 6498 1f0e 1F93      		push r17
 6499               	/* prologue: function */
 6500               	/* frame size = 0 */
 6501 1f10 182F      		mov r17,r24
 6502               	.LM618:
 6503 1f12 0E94 0000 		call Timebase_DownCounter_SS_Period_Value_Expired
 6504               	.LVL391:
 6505 1f16 8130      		cpi r24,lo8(1)
 6506 1f18 01F0      		breq .L305
 6507 1f1a 80E0      		ldi r24,lo8(0)
 6508 1f1c 00C0      		rjmp .L306
 6509               	.L305:
 6510               	.LBB924:
 6511               	.LBB925:
 6512               	.LM619:
 6513 1f1e E091 0000 		lds r30,Timebase
 6514 1f22 F091 0000 		lds r31,(Timebase)+1
 6515 1f26 212F      		mov r18,r17
 6516 1f28 30E0      		ldi r19,lo8(0)
 6517               	.LVL392:
 6518 1f2a C901      		movw r24,r18
 6519 1f2c 54E0      		ldi r21,4
 6520 1f2e 880F      	1:	lsl r24
 6521 1f30 991F      		rol r25
 6522 1f32 5A95      		dec r21
 6523 1f34 01F4      		brne 1b
 6524 1f36 820F      		add r24,r18
 6525 1f38 931F      		adc r25,r19
 6526 1f3a E80F      		add r30,r24
 6527 1f3c F91F      		adc r31,r25
 6528 1f3e E25B      		subi r30,lo8(-(78))
 6529 1f40 FF4F      		sbci r31,hi8(-(78))
 6530 1f42 8081      		ld r24,Z
 6531 1f44 8E7F      		andi r24,lo8(-2)
 6532 1f46 8083      		st Z,r24
 6533 1f48 81E0      		ldi r24,lo8(1)
 6534               	.L306:
 6535               	/* epilogue start */
 6536               	.LBE925:
 6537               	.LBE924:
 6538               	.LM620:
 6539 1f4a 1F91      		pop r17
 6540               	.LVL393:
 6541 1f4c 0895      		ret
 6542               	.LFE115:
 6544               	.global	Timebase_DownCounter_SS_Update_All
 6546               	Timebase_DownCounter_SS_Update_All:
 6547               	.LFB116:
 6548               	.LM621:
 6549               	/* prologue: function */
 6550               	/* frame size = 0 */
 6551               	.LBB926:
 6552               	.LM622:
 6553 1f4e 80E0      		ldi r24,lo8(0)
 6554 1f50 0E94 0000 		call Timebase_DownCounter_SS_Update
 6555               	/* epilogue start */
 6556               	.LBE926:
 6557               	.LM623:
 6558 1f54 0895      		ret
 6559               	.LFE116:
 6561               	.global	Timebase_DownCounter_SS_Reset_All
 6563               	Timebase_DownCounter_SS_Reset_All:
 6564               	.LFB117:
 6565               	.LM624:
 6566               	/* prologue: function */
 6567               	/* frame size = 0 */
 6568               	.LBB927:
 6569               	.LBB928:
 6570               	.LBB929:
 6571               	.LBB930:
 6572               	.LBB931:
 6573               	.LM625:
 6574 1f56 E091 0000 		lds r30,Timebase
 6575 1f5a F091 0000 		lds r31,(Timebase)+1
 6576 1f5e ED5A      		subi r30,lo8(-(83))
 6577 1f60 FF4F      		sbci r31,hi8(-(83))
 6578 1f62 1082      		st Z,__zero_reg__
 6579 1f64 1182      		std Z+1,__zero_reg__
 6580 1f66 1282      		std Z+2,__zero_reg__
 6581 1f68 1382      		std Z+3,__zero_reg__
 6582               	.LBE931:
 6583               	.LBE930:
 6584               	.LBB932:
 6585               	.LBB933:
 6586               	.LM626:
 6587 1f6a 1292      		st -Z,__zero_reg__
 6588 1f6c 1292      		st -Z,__zero_reg__
 6589 1f6e 1292      		st -Z,__zero_reg__
 6590 1f70 1292      		st -Z,__zero_reg__
 6591               	.LBE933:
 6592               	.LBE932:
 6593               	.LBB934:
 6594               	.LBB935:
 6595               	.LM627:
 6596 1f72 3896      		adiw r30,8
 6597 1f74 1082      		st Z,__zero_reg__
 6598 1f76 1182      		std Z+1,__zero_reg__
 6599 1f78 1282      		std Z+2,__zero_reg__
 6600 1f7a 1382      		std Z+3,__zero_reg__
 6601               	.LBE935:
 6602               	.LBE934:
 6603               	.LBB936:
 6604               	.LBB937:
 6605               	.LM628:
 6606 1f7c 3997      		sbiw r30,9
 6607 1f7e 8081      		ld r24,Z
 6608               	.LBE937:
 6609               	.LBE936:
 6610               	.LBB938:
 6611               	.LBB939:
 6612               	.LM629:
 6613 1f80 807E      		andi r24,lo8(-32)
 6614 1f82 8083      		st Z,r24
 6615               	/* epilogue start */
 6616               	.LBE939:
 6617               	.LBE938:
 6618               	.LBE929:
 6619               	.LBE928:
 6620               	.LBE927:
 6621               	.LM630:
 6622 1f84 0895      		ret
 6623               	.LFE117:
 6625               	.global	Timebase_DownCounter_Get_Status
 6627               	Timebase_DownCounter_Get_Status:
 6628               	.LFB118:
 6629               	.LM631:
 6630               	.LVL394:
 6631               	/* prologue: function */
 6632               	/* frame size = 0 */
 6633               	.LM632:
 6634 1f86 E091 0000 		lds r30,Timebase
 6635 1f8a F091 0000 		lds r31,(Timebase)+1
 6636 1f8e 90E0      		ldi r25,lo8(0)
 6637               	.LVL395:
 6638 1f90 2DE0      		ldi r18,lo8(13)
 6639 1f92 30E0      		ldi r19,hi8(13)
 6640 1f94 AC01      		movw r20,r24
 6641 1f96 429F      		mul r20,r18
 6642 1f98 C001      		movw r24,r0
 6643 1f9a 439F      		mul r20,r19
 6644 1f9c 900D      		add r25,r0
 6645 1f9e 529F      		mul r21,r18
 6646 1fa0 900D      		add r25,r0
 6647 1fa2 1124      		clr r1
 6648               	.LVL396:
 6649 1fa4 E80F      		add r30,r24
 6650 1fa6 F91F      		adc r31,r25
 6651 1fa8 E15A      		subi r30,lo8(-(95))
 6652 1faa FF4F      		sbci r31,hi8(-(95))
 6653 1fac 8081      		ld r24,Z
 6654 1fae 8695      		lsr r24
 6655               	.LM633:
 6656 1fb0 8F70      		andi r24,lo8(15)
 6657               	/* epilogue start */
 6658 1fb2 0895      		ret
 6659               	.LFE118:
 6661               	.global	Timebase_DownCounter_Set_Status
 6663               	Timebase_DownCounter_Set_Status:
 6664               	.LFB119:
 6665               	.LM634:
 6666               	.LVL397:
 6667               	/* prologue: function */
 6668               	/* frame size = 0 */
 6669               	.LM635:
 6670 1fb4 E091 0000 		lds r30,Timebase
 6671 1fb8 F091 0000 		lds r31,(Timebase)+1
 6672 1fbc 90E0      		ldi r25,lo8(0)
 6673               	.LVL398:
 6674 1fbe 2DE0      		ldi r18,lo8(13)
 6675 1fc0 30E0      		ldi r19,hi8(13)
 6676 1fc2 AC01      		movw r20,r24
 6677 1fc4 429F      		mul r20,r18
 6678 1fc6 C001      		movw r24,r0
 6679 1fc8 439F      		mul r20,r19
 6680 1fca 900D      		add r25,r0
 6681 1fcc 529F      		mul r21,r18
 6682 1fce 900D      		add r25,r0
 6683 1fd0 1124      		clr r1
 6684               	.LVL399:
 6685 1fd2 E80F      		add r30,r24
 6686 1fd4 F91F      		adc r31,r25
 6687 1fd6 E15A      		subi r30,lo8(-(95))
 6688 1fd8 FF4F      		sbci r31,hi8(-(95))
 6689 1fda 6F70      		andi r22,lo8(15)
 6690               	.LVL400:
 6691 1fdc 660F      		lsl r22
 6692 1fde 8081      		ld r24,Z
 6693 1fe0 817E      		andi r24,lo8(-31)
 6694 1fe2 862B      		or r24,r22
 6695 1fe4 8083      		st Z,r24
 6696               	/* epilogue start */
 6697               	.LM636:
 6698 1fe6 0895      		ret
 6699               	.LFE119:
 6701               	.global	Timebase_DownCounter_Get_Value
 6703               	Timebase_DownCounter_Get_Value:
 6704               	.LFB120:
 6705               	.LM637:
 6706               	.LVL401:
 6707               	/* prologue: function */
 6708               	/* frame size = 0 */
 6709               	.LM638:
 6710 1fe8 E091 0000 		lds r30,Timebase
 6711 1fec F091 0000 		lds r31,(Timebase)+1
 6712 1ff0 90E0      		ldi r25,lo8(0)
 6713               	.LVL402:
 6714 1ff2 2DE0      		ldi r18,lo8(13)
 6715 1ff4 30E0      		ldi r19,hi8(13)
 6716 1ff6 AC01      		movw r20,r24
 6717 1ff8 429F      		mul r20,r18
 6718 1ffa C001      		movw r24,r0
 6719 1ffc 439F      		mul r20,r19
 6720 1ffe 900D      		add r25,r0
 6721 2000 529F      		mul r21,r18
 6722 2002 900D      		add r25,r0
 6723 2004 1124      		clr r1
 6724               	.LVL403:
 6725 2006 E80F      		add r30,r24
 6726 2008 F91F      		adc r31,r25
 6727 200a EC59      		subi r30,lo8(-(100))
 6728 200c FF4F      		sbci r31,hi8(-(100))
 6729 200e 6081      		ld r22,Z
 6730 2010 7181      		ldd r23,Z+1
 6731               	.LM639:
 6732 2012 8281      		ldd r24,Z+2
 6733 2014 9381      		ldd r25,Z+3
 6734               	.LVL404:
 6735               	/* epilogue start */
 6736 2016 0895      		ret
 6737               	.LFE120:
 6739               	.global	Timebase_DownCounter_Set_Value
 6741               	Timebase_DownCounter_Set_Value:
 6742               	.LFB121:
 6743               	.LM640:
 6744               	.LVL405:
 6745               	/* prologue: function */
 6746               	/* frame size = 0 */
 6747               	.LM641:
 6748 2018 E091 0000 		lds r30,Timebase
 6749 201c F091 0000 		lds r31,(Timebase)+1
 6750 2020 90E0      		ldi r25,lo8(0)
 6751               	.LVL406:
 6752 2022 2DE0      		ldi r18,lo8(13)
 6753 2024 30E0      		ldi r19,hi8(13)
 6754 2026 DC01      		movw r26,r24
 6755 2028 A29F      		mul r26,r18
 6756 202a C001      		movw r24,r0
 6757 202c A39F      		mul r26,r19
 6758 202e 900D      		add r25,r0
 6759 2030 B29F      		mul r27,r18
 6760 2032 900D      		add r25,r0
 6761 2034 1124      		clr r1
 6762               	.LVL407:
 6763 2036 E80F      		add r30,r24
 6764 2038 F91F      		adc r31,r25
 6765 203a EC59      		subi r30,lo8(-(100))
 6766 203c FF4F      		sbci r31,hi8(-(100))
 6767 203e 4083      		st Z,r20
 6768 2040 5183      		std Z+1,r21
 6769 2042 6283      		std Z+2,r22
 6770 2044 7383      		std Z+3,r23
 6771               	/* epilogue start */
 6772               	.LM642:
 6773 2046 0895      		ret
 6774               	.LFE121:
 6776               	.global	Timebase_DownCounter_Get_EndValue
 6778               	Timebase_DownCounter_Get_EndValue:
 6779               	.LFB122:
 6780               	.LM643:
 6781               	.LVL408:
 6782               	/* prologue: function */
 6783               	/* frame size = 0 */
 6784               	.LM644:
 6785 2048 E091 0000 		lds r30,Timebase
 6786 204c F091 0000 		lds r31,(Timebase)+1
 6787 2050 90E0      		ldi r25,lo8(0)
 6788               	.LVL409:
 6789 2052 2DE0      		ldi r18,lo8(13)
 6790 2054 30E0      		ldi r19,hi8(13)
 6791 2056 AC01      		movw r20,r24
 6792 2058 429F      		mul r20,r18
 6793 205a C001      		movw r24,r0
 6794 205c 439F      		mul r20,r19
 6795 205e 900D      		add r25,r0
 6796 2060 529F      		mul r21,r18
 6797 2062 900D      		add r25,r0
 6798 2064 1124      		clr r1
 6799               	.LVL410:
 6800 2066 E80F      		add r30,r24
 6801 2068 F91F      		adc r31,r25
 6802 206a E05A      		subi r30,lo8(-(96))
 6803 206c FF4F      		sbci r31,hi8(-(96))
 6804 206e 6081      		ld r22,Z
 6805 2070 7181      		ldd r23,Z+1
 6806               	.LM645:
 6807 2072 8281      		ldd r24,Z+2
 6808 2074 9381      		ldd r25,Z+3
 6809               	.LVL411:
 6810               	/* epilogue start */
 6811 2076 0895      		ret
 6812               	.LFE122:
 6814               	.global	Timebase_DownCounter_Set_EndValue
 6816               	Timebase_DownCounter_Set_EndValue:
 6817               	.LFB123:
 6818               	.LM646:
 6819               	.LVL412:
 6820               	/* prologue: function */
 6821               	/* frame size = 0 */
 6822               	.LM647:
 6823 2078 E091 0000 		lds r30,Timebase
 6824 207c F091 0000 		lds r31,(Timebase)+1
 6825 2080 90E0      		ldi r25,lo8(0)
 6826               	.LVL413:
 6827 2082 2DE0      		ldi r18,lo8(13)
 6828 2084 30E0      		ldi r19,hi8(13)
 6829 2086 DC01      		movw r26,r24
 6830 2088 A29F      		mul r26,r18
 6831 208a C001      		movw r24,r0
 6832 208c A39F      		mul r26,r19
 6833 208e 900D      		add r25,r0
 6834 2090 B29F      		mul r27,r18
 6835 2092 900D      		add r25,r0
 6836 2094 1124      		clr r1
 6837               	.LVL414:
 6838 2096 E80F      		add r30,r24
 6839 2098 F91F      		adc r31,r25
 6840 209a E05A      		subi r30,lo8(-(96))
 6841 209c FF4F      		sbci r31,hi8(-(96))
 6842 209e 4083      		st Z,r20
 6843 20a0 5183      		std Z+1,r21
 6844 20a2 6283      		std Z+2,r22
 6845 20a4 7383      		std Z+3,r23
 6846               	/* epilogue start */
 6847               	.LM648:
 6848 20a6 0895      		ret
 6849               	.LFE123:
 6851               	.global	Timebase_DownCounter_Get_PeriodValue
 6853               	Timebase_DownCounter_Get_PeriodValue:
 6854               	.LFB124:
 6855               	.LM649:
 6856               	.LVL415:
 6857               	/* prologue: function */
 6858               	/* frame size = 0 */
 6859               	.LM650:
 6860 20a8 E091 0000 		lds r30,Timebase
 6861 20ac F091 0000 		lds r31,(Timebase)+1
 6862 20b0 90E0      		ldi r25,lo8(0)
 6863               	.LVL416:
 6864 20b2 2DE0      		ldi r18,lo8(13)
 6865 20b4 30E0      		ldi r19,hi8(13)
 6866 20b6 AC01      		movw r20,r24
 6867 20b8 429F      		mul r20,r18
 6868 20ba C001      		movw r24,r0
 6869 20bc 439F      		mul r20,r19
 6870 20be 900D      		add r25,r0
 6871 20c0 529F      		mul r21,r18
 6872 20c2 900D      		add r25,r0
 6873 20c4 1124      		clr r1
 6874               	.LVL417:
 6875 20c6 E80F      		add r30,r24
 6876 20c8 F91F      		adc r31,r25
 6877 20ca E859      		subi r30,lo8(-(104))
 6878 20cc FF4F      		sbci r31,hi8(-(104))
 6879 20ce 6081      		ld r22,Z
 6880 20d0 7181      		ldd r23,Z+1
 6881               	.LM651:
 6882 20d2 8281      		ldd r24,Z+2
 6883 20d4 9381      		ldd r25,Z+3
 6884               	.LVL418:
 6885               	/* epilogue start */
 6886 20d6 0895      		ret
 6887               	.LFE124:
 6889               	.global	Timebase_DownCounter_Set_PeriodValue
 6891               	Timebase_DownCounter_Set_PeriodValue:
 6892               	.LFB125:
 6893               	.LM652:
 6894               	.LVL419:
 6895               	/* prologue: function */
 6896               	/* frame size = 0 */
 6897 20d8 E091 0000 		lds r30,Timebase
 6898 20dc F091 0000 		lds r31,(Timebase)+1
 6899 20e0 282F      		mov r18,r24
 6900 20e2 30E0      		ldi r19,lo8(0)
 6901               	.LVL420:
 6902               	.LM653:
 6903 20e4 77FF      		sbrs r23,7
 6904 20e6 00C0      		rjmp .L327
 6905               	.LVL421:
 6906               	.LM654:
 6907 20e8 8DE0      		ldi r24,lo8(13)
 6908 20ea 90E0      		ldi r25,hi8(13)
 6909 20ec AC01      		movw r20,r24
 6910               	.LVL422:
 6911 20ee 249F      		mul r18,r20
 6912 20f0 C001      		movw r24,r0
 6913 20f2 259F      		mul r18,r21
 6914 20f4 900D      		add r25,r0
 6915 20f6 349F      		mul r19,r20
 6916 20f8 900D      		add r25,r0
 6917 20fa 1124      		clr r1
 6918 20fc E80F      		add r30,r24
 6919 20fe F91F      		adc r31,r25
 6920 2100 E859      		subi r30,lo8(-(104))
 6921 2102 FF4F      		sbci r31,hi8(-(104))
 6922 2104 1082      		st Z,__zero_reg__
 6923 2106 1182      		std Z+1,__zero_reg__
 6924 2108 1282      		std Z+2,__zero_reg__
 6925 210a 1382      		std Z+3,__zero_reg__
 6926 210c 0895      		ret
 6927               	.LVL423:
 6928               	.L327:
 6929               	.LM655:
 6930 210e 8DE0      		ldi r24,lo8(13)
 6931 2110 90E0      		ldi r25,hi8(13)
 6932 2112 DC01      		movw r26,r24
 6933 2114 2A9F      		mul r18,r26
 6934 2116 C001      		movw r24,r0
 6935 2118 2B9F      		mul r18,r27
 6936 211a 900D      		add r25,r0
 6937 211c 3A9F      		mul r19,r26
 6938 211e 900D      		add r25,r0
 6939 2120 1124      		clr r1
 6940 2122 E80F      		add r30,r24
 6941 2124 F91F      		adc r31,r25
 6942 2126 E859      		subi r30,lo8(-(104))
 6943 2128 FF4F      		sbci r31,hi8(-(104))
 6944 212a 4083      		st Z,r20
 6945 212c 5183      		std Z+1,r21
 6946 212e 6283      		std Z+2,r22
 6947 2130 7383      		std Z+3,r23
 6948 2132 0895      		ret
 6949               	.LFE125:
 6951               	.global	Timebase_DownCounter_Get_Period_Flag
 6953               	Timebase_DownCounter_Get_Period_Flag:
 6954               	.LFB126:
 6955               	.LM656:
 6956               	.LVL424:
 6957               	/* prologue: function */
 6958               	/* frame size = 0 */
 6959               	.LM657:
 6960 2134 E091 0000 		lds r30,Timebase
 6961 2138 F091 0000 		lds r31,(Timebase)+1
 6962 213c 90E0      		ldi r25,lo8(0)
 6963               	.LVL425:
 6964 213e 2DE0      		ldi r18,lo8(13)
 6965 2140 30E0      		ldi r19,hi8(13)
 6966 2142 AC01      		movw r20,r24
 6967 2144 429F      		mul r20,r18
 6968 2146 C001      		movw r24,r0
 6969 2148 439F      		mul r20,r19
 6970 214a 900D      		add r25,r0
 6971 214c 529F      		mul r21,r18
 6972 214e 900D      		add r25,r0
 6973 2150 1124      		clr r1
 6974               	.LVL426:
 6975 2152 E80F      		add r30,r24
 6976 2154 F91F      		adc r31,r25
 6977 2156 E15A      		subi r30,lo8(-(95))
 6978 2158 FF4F      		sbci r31,hi8(-(95))
 6979 215a 8081      		ld r24,Z
 6980               	.LM658:
 6981 215c 8170      		andi r24,lo8(1)
 6982               	/* epilogue start */
 6983 215e 0895      		ret
 6984               	.LFE126:
 6986               	.global	Timebase_DownCounter_Set_Period_Flag
 6988               	Timebase_DownCounter_Set_Period_Flag:
 6989               	.LFB127:
 6990               	.LM659:
 6991               	.LVL427:
 6992               	/* prologue: function */
 6993               	/* frame size = 0 */
 6994               	.LM660:
 6995 2160 E091 0000 		lds r30,Timebase
 6996 2164 F091 0000 		lds r31,(Timebase)+1
 6997 2168 90E0      		ldi r25,lo8(0)
 6998               	.LVL428:
 6999 216a 2DE0      		ldi r18,lo8(13)
 7000 216c 30E0      		ldi r19,hi8(13)
 7001 216e AC01      		movw r20,r24
 7002 2170 429F      		mul r20,r18
 7003 2172 C001      		movw r24,r0
 7004 2174 439F      		mul r20,r19
 7005 2176 900D      		add r25,r0
 7006 2178 529F      		mul r21,r18
 7007 217a 900D      		add r25,r0
 7008 217c 1124      		clr r1
 7009               	.LVL429:
 7010 217e E80F      		add r30,r24
 7011 2180 F91F      		adc r31,r25
 7012 2182 E15A      		subi r30,lo8(-(95))
 7013 2184 FF4F      		sbci r31,hi8(-(95))
 7014 2186 8081      		ld r24,Z
 7015 2188 8160      		ori r24,lo8(1)
 7016 218a 8083      		st Z,r24
 7017               	/* epilogue start */
 7018               	.LM661:
 7019 218c 0895      		ret
 7020               	.LFE127:
 7022               	.global	Timebase_DownCounter_Clear_Period_Flag
 7024               	Timebase_DownCounter_Clear_Period_Flag:
 7025               	.LFB128:
 7026               	.LM662:
 7027               	.LVL430:
 7028               	/* prologue: function */
 7029               	/* frame size = 0 */
 7030               	.LM663:
 7031 218e E091 0000 		lds r30,Timebase
 7032 2192 F091 0000 		lds r31,(Timebase)+1
 7033 2196 90E0      		ldi r25,lo8(0)
 7034               	.LVL431:
 7035 2198 2DE0      		ldi r18,lo8(13)
 7036 219a 30E0      		ldi r19,hi8(13)
 7037 219c AC01      		movw r20,r24
 7038 219e 429F      		mul r20,r18
 7039 21a0 C001      		movw r24,r0
 7040 21a2 439F      		mul r20,r19
 7041 21a4 900D      		add r25,r0
 7042 21a6 529F      		mul r21,r18
 7043 21a8 900D      		add r25,r0
 7044 21aa 1124      		clr r1
 7045               	.LVL432:
 7046 21ac E80F      		add r30,r24
 7047 21ae F91F      		adc r31,r25
 7048 21b0 E15A      		subi r30,lo8(-(95))
 7049 21b2 FF4F      		sbci r31,hi8(-(95))
 7050 21b4 8081      		ld r24,Z
 7051 21b6 8E7F      		andi r24,lo8(-2)
 7052 21b8 8083      		st Z,r24
 7053               	/* epilogue start */
 7054               	.LM664:
 7055 21ba 0895      		ret
 7056               	.LFE128:
 7058               	.global	Timebase_DownCounter_Reset
 7060               	Timebase_DownCounter_Reset:
 7061               	.LFB129:
 7062               	.LM665:
 7063               	.LVL433:
 7064               	/* prologue: function */
 7065               	/* frame size = 0 */
 7066               	.LBB940:
 7067               	.LBB941:
 7068               	.LM666:
 7069 21bc E091 0000 		lds r30,Timebase
 7070 21c0 F091 0000 		lds r31,(Timebase)+1
 7071 21c4 90E0      		ldi r25,lo8(0)
 7072 21c6 2DE0      		ldi r18,lo8(13)
 7073 21c8 30E0      		ldi r19,hi8(13)
 7074 21ca AC01      		movw r20,r24
 7075               	.LVL434:
 7076 21cc 429F      		mul r20,r18
 7077 21ce C001      		movw r24,r0
 7078 21d0 439F      		mul r20,r19
 7079 21d2 900D      		add r25,r0
 7080 21d4 529F      		mul r21,r18
 7081 21d6 900D      		add r25,r0
 7082 21d8 1124      		clr r1
 7083 21da E80F      		add r30,r24
 7084 21dc F91F      		adc r31,r25
 7085 21de E05A      		subi r30,lo8(-(96))
 7086 21e0 FF4F      		sbci r31,hi8(-(96))
 7087 21e2 1192      		st Z+,__zero_reg__
 7088 21e4 1192      		st Z+,__zero_reg__
 7089 21e6 1192      		st Z+,__zero_reg__
 7090 21e8 1192      		st Z+,__zero_reg__
 7091               	.LBE941:
 7092               	.LBE940:
 7093               	.LBB942:
 7094               	.LBB943:
 7095               	.LM667:
 7096 21ea 1082      		st Z,__zero_reg__
 7097 21ec 1182      		std Z+1,__zero_reg__
 7098 21ee 1282      		std Z+2,__zero_reg__
 7099 21f0 1382      		std Z+3,__zero_reg__
 7100               	.LBE943:
 7101               	.LBE942:
 7102               	.LBB944:
 7103               	.LBB945:
 7104               	.LM668:
 7105 21f2 3597      		sbiw r30,5
 7106 21f4 8081      		ld r24,Z
 7107               	.LBE945:
 7108               	.LBE944:
 7109               	.LBB946:
 7110               	.LBB947:
 7111               	.LM669:
 7112 21f6 807E      		andi r24,lo8(-32)
 7113 21f8 8083      		st Z,r24
 7114               	/* epilogue start */
 7115               	.LBE947:
 7116               	.LBE946:
 7117               	.LM670:
 7118 21fa 0895      		ret
 7119               	.LFE129:
 7121               	.global	Timebase_DownCounter_Clear_All_Flags
 7123               	Timebase_DownCounter_Clear_All_Flags:
 7124               	.LFB130:
 7125               	.LM671:
 7126               	.LVL435:
 7127               	/* prologue: function */
 7128               	/* frame size = 0 */
 7129               	.LBB948:
 7130               	.LBB949:
 7131               	.LBB950:
 7132               	.LBB951:
 7133               	.LM672:
 7134 21fc E091 0000 		lds r30,Timebase
 7135 2200 F091 0000 		lds r31,(Timebase)+1
 7136 2204 90E0      		ldi r25,lo8(0)
 7137 2206 2DE0      		ldi r18,lo8(13)
 7138 2208 30E0      		ldi r19,hi8(13)
 7139 220a AC01      		movw r20,r24
 7140               	.LVL436:
 7141 220c 429F      		mul r20,r18
 7142 220e C001      		movw r24,r0
 7143 2210 439F      		mul r20,r19
 7144 2212 900D      		add r25,r0
 7145 2214 529F      		mul r21,r18
 7146 2216 900D      		add r25,r0
 7147 2218 1124      		clr r1
 7148 221a E80F      		add r30,r24
 7149 221c F91F      		adc r31,r25
 7150 221e E05A      		subi r30,lo8(-(96))
 7151 2220 FF4F      		sbci r31,hi8(-(96))
 7152 2222 1192      		st Z+,__zero_reg__
 7153 2224 1192      		st Z+,__zero_reg__
 7154 2226 1192      		st Z+,__zero_reg__
 7155 2228 1192      		st Z+,__zero_reg__
 7156               	.LBE951:
 7157               	.LBE950:
 7158               	.LBB952:
 7159               	.LBB953:
 7160               	.LM673:
 7161 222a 1082      		st Z,__zero_reg__
 7162 222c 1182      		std Z+1,__zero_reg__
 7163 222e 1282      		std Z+2,__zero_reg__
 7164 2230 1382      		std Z+3,__zero_reg__
 7165               	.LBE953:
 7166               	.LBE952:
 7167               	.LBB954:
 7168               	.LBB955:
 7169               	.LM674:
 7170 2232 3597      		sbiw r30,5
 7171 2234 8081      		ld r24,Z
 7172               	.LBE955:
 7173               	.LBE954:
 7174               	.LBB956:
 7175               	.LBB957:
 7176               	.LM675:
 7177 2236 807E      		andi r24,lo8(-32)
 7178 2238 8083      		st Z,r24
 7179               	/* epilogue start */
 7180               	.LBE957:
 7181               	.LBE956:
 7182               	.LBE949:
 7183               	.LBE948:
 7184               	.LM676:
 7185 223a 0895      		ret
 7186               	.LFE130:
 7188               	.global	Timebase_DownCounter_Start
 7190               	Timebase_DownCounter_Start:
 7191               	.LFB131:
 7192               	.LM677:
 7193               	.LVL437:
 7194               	/* prologue: function */
 7195               	/* frame size = 0 */
 7196               	.LBB958:
 7197               	.LBB959:
 7198               	.LM678:
 7199 223c E091 0000 		lds r30,Timebase
 7200 2240 F091 0000 		lds r31,(Timebase)+1
 7201 2244 90E0      		ldi r25,lo8(0)
 7202               	.LBE959:
 7203               	.LBE958:
 7204               	.LM679:
 7205 2246 2DE0      		ldi r18,lo8(13)
 7206 2248 30E0      		ldi r19,hi8(13)
 7207 224a AC01      		movw r20,r24
 7208               	.LVL438:
 7209 224c 429F      		mul r20,r18
 7210 224e C001      		movw r24,r0
 7211 2250 439F      		mul r20,r19
 7212 2252 900D      		add r25,r0
 7213 2254 529F      		mul r21,r18
 7214 2256 900D      		add r25,r0
 7215 2258 1124      		clr r1
 7216 225a E80F      		add r30,r24
 7217 225c F91F      		adc r31,r25
 7218 225e E15A      		subi r30,lo8(-(95))
 7219 2260 FF4F      		sbci r31,hi8(-(95))
 7220 2262 9081      		ld r25,Z
 7221 2264 892F      		mov r24,r25
 7222 2266 8695      		lsr r24
 7223 2268 8F70      		andi r24,lo8(15)
 7224 226a 8130      		cpi r24,lo8(1)
 7225 226c 01F0      		breq .L342
 7226               	.LBB960:
 7227               	.LBB961:
 7228               	.LM680:
 7229 226e 917E      		andi r25,lo8(-31)
 7230 2270 9260      		ori r25,lo8(2)
 7231 2272 9083      		st Z,r25
 7232               	.L342:
 7233 2274 0895      		ret
 7234               	.LBE961:
 7235               	.LBE960:
 7236               	.LFE131:
 7238               	.global	Timebase_DownCounter_Stop
 7240               	Timebase_DownCounter_Stop:
 7241               	.LFB132:
 7242               	.LM681:
 7243               	.LVL439:
 7244               	/* prologue: function */
 7245               	/* frame size = 0 */
 7246               	.LBB962:
 7247               	.LBB963:
 7248               	.LM682:
 7249 2276 E091 0000 		lds r30,Timebase
 7250 227a F091 0000 		lds r31,(Timebase)+1
 7251 227e 90E0      		ldi r25,lo8(0)
 7252               	.LBE963:
 7253               	.LBE962:
 7254               	.LM683:
 7255 2280 2DE0      		ldi r18,lo8(13)
 7256 2282 30E0      		ldi r19,hi8(13)
 7257 2284 AC01      		movw r20,r24
 7258               	.LVL440:
 7259 2286 429F      		mul r20,r18
 7260 2288 C001      		movw r24,r0
 7261 228a 439F      		mul r20,r19
 7262 228c 900D      		add r25,r0
 7263 228e 529F      		mul r21,r18
 7264 2290 900D      		add r25,r0
 7265 2292 1124      		clr r1
 7266 2294 E80F      		add r30,r24
 7267 2296 F91F      		adc r31,r25
 7268 2298 E15A      		subi r30,lo8(-(95))
 7269 229a FF4F      		sbci r31,hi8(-(95))
 7270 229c 9081      		ld r25,Z
 7271 229e 892F      		mov r24,r25
 7272 22a0 8695      		lsr r24
 7273 22a2 8F70      		andi r24,lo8(15)
 7274 22a4 8230      		cpi r24,lo8(2)
 7275 22a6 01F0      		breq .L345
 7276               	.LBB964:
 7277               	.LBB965:
 7278               	.LM684:
 7279 22a8 917E      		andi r25,lo8(-31)
 7280 22aa 9460      		ori r25,lo8(4)
 7281 22ac 9083      		st Z,r25
 7282               	.L345:
 7283 22ae 0895      		ret
 7284               	.LBE965:
 7285               	.LBE964:
 7286               	.LFE132:
 7288               	.global	Timebase_DownCounter_Set_Securely
 7290               	Timebase_DownCounter_Set_Securely:
 7291               	.LFB133:
 7292               	.LM685:
 7293               	.LVL441:
 7294 22b0 CF93      		push r28
 7295 22b2 DF93      		push r29
 7296               	/* prologue: function */
 7297               	/* frame size = 0 */
 7298               	.LBB966:
 7299               	.LBB967:
 7300               	.LM686:
 7301 22b4 A091 0000 		lds r26,Timebase
 7302 22b8 B091 0000 		lds r27,(Timebase)+1
 7303 22bc 90E0      		ldi r25,lo8(0)
 7304               	.LBE967:
 7305               	.LBE966:
 7306               	.LM687:
 7307 22be 2DE0      		ldi r18,lo8(13)
 7308 22c0 30E0      		ldi r19,hi8(13)
 7309 22c2 829F      		mul r24,r18
 7310 22c4 F001      		movw r30,r0
 7311 22c6 839F      		mul r24,r19
 7312 22c8 F00D      		add r31,r0
 7313 22ca 929F      		mul r25,r18
 7314 22cc F00D      		add r31,r0
 7315 22ce 1124      		clr r1
 7316               	.LVL442:
 7317 22d0 EA0F      		add r30,r26
 7318 22d2 FB1F      		adc r31,r27
 7319 22d4 EF01      		movw r28,r30
 7320 22d6 C15A      		subi r28,lo8(-(95))
 7321 22d8 DF4F      		sbci r29,hi8(-(95))
 7322 22da 8881      		ld r24,Y
 7323 22dc 8695      		lsr r24
 7324 22de 8F70      		andi r24,lo8(15)
 7325 22e0 01F4      		brne .L348
 7326               	.LBB968:
 7327               	.LBB969:
 7328               	.LM688:
 7329 22e2 EC59      		subi r30,lo8(-(100))
 7330 22e4 FF4F      		sbci r31,hi8(-(100))
 7331 22e6 4083      		st Z,r20
 7332 22e8 5183      		std Z+1,r21
 7333 22ea 6283      		std Z+2,r22
 7334 22ec 7383      		std Z+3,r23
 7335               	.LBE969:
 7336               	.LBE968:
 7337               	.LBB970:
 7338               	.LBB971:
 7339               	.LM689:
 7340 22ee 1A96      		adiw r26,10
 7341 22f0 8D91      		ld r24,X+
 7342 22f2 9D91      		ld r25,X+
 7343 22f4 0D90      		ld __tmp_reg__,X+
 7344 22f6 BC91      		ld r27,X
 7345 22f8 A02D      		mov r26,__tmp_reg__
 7346               	.LBE971:
 7347               	.LBE970:
 7348               	.LBB972:
 7349               	.LBB973:
 7350               	.LM690:
 7351 22fa 840F      		add r24,r20
 7352 22fc 951F      		adc r25,r21
 7353 22fe A61F      		adc r26,r22
 7354 2300 B71F      		adc r27,r23
 7355 2302 B293      		st -Z,r27
 7356 2304 A293      		st -Z,r26
 7357 2306 9293      		st -Z,r25
 7358 2308 8293      		st -Z,r24
 7359               	.LBE973:
 7360               	.LBE972:
 7361               	.LBB974:
 7362               	.LBB975:
 7363               	.LM691:
 7364 230a 9881      		ld r25,Y
 7365 230c 892F      		mov r24,r25
 7366 230e 8695      		lsr r24
 7367 2310 8F70      		andi r24,lo8(15)
 7368 2312 8130      		cpi r24,lo8(1)
 7369 2314 01F0      		breq .L348
 7370               	.LBB976:
 7371               	.LBB977:
 7372               	.LM692:
 7373 2316 917E      		andi r25,lo8(-31)
 7374 2318 9260      		ori r25,lo8(2)
 7375 231a 9883      		st Y,r25
 7376               	.L348:
 7377               	/* epilogue start */
 7378               	.LBE977:
 7379               	.LBE976:
 7380               	.LBE975:
 7381               	.LBE974:
 7382               	.LM693:
 7383 231c DF91      		pop r29
 7384 231e CF91      		pop r28
 7385 2320 0895      		ret
 7386               	.LFE133:
 7388               	.global	Timebase_DownCounter_Set_Forcefully
 7390               	Timebase_DownCounter_Set_Forcefully:
 7391               	.LFB134:
 7392               	.LM694:
 7393               	.LVL443:
 7394 2322 CF93      		push r28
 7395 2324 DF93      		push r29
 7396               	/* prologue: function */
 7397               	/* frame size = 0 */
 7398               	.LBB978:
 7399               	.LBB979:
 7400               	.LBB980:
 7401               	.LBB981:
 7402               	.LM695:
 7403 2326 E091 0000 		lds r30,Timebase
 7404 232a F091 0000 		lds r31,(Timebase)+1
 7405 232e A82F      		mov r26,r24
 7406 2330 B0E0      		ldi r27,lo8(0)
 7407 2332 2DE0      		ldi r18,lo8(13)
 7408 2334 30E0      		ldi r19,hi8(13)
 7409 2336 E901      		movw r28,r18
 7410 2338 AC9F      		mul r26,r28
 7411 233a 9001      		movw r18,r0
 7412 233c AD9F      		mul r26,r29
 7413 233e 300D      		add r19,r0
 7414 2340 BC9F      		mul r27,r28
 7415 2342 300D      		add r19,r0
 7416 2344 1124      		clr r1
 7417 2346 E20F      		add r30,r18
 7418 2348 F31F      		adc r31,r19
 7419 234a E05A      		subi r30,lo8(-(96))
 7420 234c FF4F      		sbci r31,hi8(-(96))
 7421 234e 1192      		st Z+,__zero_reg__
 7422 2350 1192      		st Z+,__zero_reg__
 7423 2352 1192      		st Z+,__zero_reg__
 7424 2354 1192      		st Z+,__zero_reg__
 7425               	.LBE981:
 7426               	.LBE980:
 7427               	.LBB982:
 7428               	.LBB983:
 7429               	.LM696:
 7430 2356 1082      		st Z,__zero_reg__
 7431 2358 1182      		std Z+1,__zero_reg__
 7432 235a 1282      		std Z+2,__zero_reg__
 7433 235c 1382      		std Z+3,__zero_reg__
 7434               	.LBE983:
 7435               	.LBE982:
 7436               	.LBB984:
 7437               	.LBB985:
 7438               	.LM697:
 7439 235e 3597      		sbiw r30,5
 7440 2360 9081      		ld r25,Z
 7441               	.LBE985:
 7442               	.LBE984:
 7443               	.LBB986:
 7444               	.LBB987:
 7445               	.LM698:
 7446 2362 907E      		andi r25,lo8(-32)
 7447 2364 9083      		st Z,r25
 7448               	.LBE987:
 7449               	.LBE986:
 7450               	.LBE979:
 7451               	.LBE978:
 7452               	.LM699:
 7453 2366 0E94 0000 		call Timebase_DownCounter_Set_Securely
 7454               	.LVL444:
 7455               	/* epilogue start */
 7456               	.LM700:
 7457 236a DF91      		pop r29
 7458 236c CF91      		pop r28
 7459 236e 0895      		ret
 7460               	.LFE134:
 7462               	.global	Timebase_DownCounter_Update
 7464               	Timebase_DownCounter_Update:
 7465               	.LFB135:
 7466               	.LM701:
 7467               	.LVL445:
 7468 2370 0F93      		push r16
 7469 2372 1F93      		push r17
 7470 2374 CF93      		push r28
 7471 2376 DF93      		push r29
 7472               	/* prologue: function */
 7473               	/* frame size = 0 */
 7474               	.LBB988:
 7475               	.LBB989:
 7476               	.LM702:
 7477 2378 A091 0000 		lds r26,Timebase
 7478 237c B091 0000 		lds r27,(Timebase)+1
 7479 2380 90E0      		ldi r25,lo8(0)
 7480 2382 2DE0      		ldi r18,lo8(13)
 7481 2384 30E0      		ldi r19,hi8(13)
 7482 2386 829F      		mul r24,r18
 7483 2388 F001      		movw r30,r0
 7484 238a 839F      		mul r24,r19
 7485 238c F00D      		add r31,r0
 7486 238e 929F      		mul r25,r18
 7487 2390 F00D      		add r31,r0
 7488 2392 1124      		clr r1
 7489               	.LVL446:
 7490 2394 EA0F      		add r30,r26
 7491 2396 FB1F      		adc r31,r27
 7492 2398 8F01      		movw r16,r30
 7493 239a 015A      		subi r16,lo8(-(95))
 7494 239c 1F4F      		sbci r17,hi8(-(95))
 7495 239e E801      		movw r28,r16
 7496 23a0 8881      		ld r24,Y
 7497 23a2 8695      		lsr r24
 7498 23a4 8F70      		andi r24,lo8(15)
 7499               	.LBE989:
 7500               	.LBE988:
 7501               	.LM703:
 7502 23a6 8130      		cpi r24,lo8(1)
 7503 23a8 01F4      		brne .L352
 7504               	.LBB990:
 7505               	.LBB991:
 7506               	.LM704:
 7507 23aa 1A96      		adiw r26,10
 7508 23ac 2D91      		ld r18,X+
 7509 23ae 3D91      		ld r19,X+
 7510 23b0 4D91      		ld r20,X+
 7511 23b2 5C91      		ld r21,X
 7512 23b4 1D97      		sbiw r26,10+3
 7513               	.LBE991:
 7514               	.LBE990:
 7515               	.LM705:
 7516 23b6 BF01      		movw r22,r30
 7517 23b8 605A      		subi r22,lo8(-(96))
 7518 23ba 7F4F      		sbci r23,hi8(-(96))
 7519 23bc EB01      		movw r28,r22
 7520 23be 8881      		ld r24,Y
 7521 23c0 9981      		ldd r25,Y+1
 7522 23c2 AA81      		ldd r26,Y+2
 7523 23c4 BB81      		ldd r27,Y+3
 7524 23c6 821B      		sub r24,r18
 7525 23c8 930B      		sbc r25,r19
 7526 23ca A40B      		sbc r26,r20
 7527 23cc B50B      		sbc r27,r21
 7528               	.LBB992:
 7529               	.LBB993:
 7530               	.LM706:
 7531 23ce EC59      		subi r30,lo8(-(100))
 7532 23d0 FF4F      		sbci r31,hi8(-(100))
 7533 23d2 8083      		st Z,r24
 7534 23d4 9183      		std Z+1,r25
 7535 23d6 A283      		std Z+2,r26
 7536 23d8 B383      		std Z+3,r27
 7537               	.LBE993:
 7538               	.LBE992:
 7539               	.LM707:
 7540 23da 1816      		cp __zero_reg__,r24
 7541 23dc 1906      		cpc __zero_reg__,r25
 7542 23de 1A06      		cpc __zero_reg__,r26
 7543 23e0 1B06      		cpc __zero_reg__,r27
 7544 23e2 04F0      		brlt .L354
 7545               	.LBB994:
 7546               	.LBB995:
 7547               	.LBB996:
 7548               	.LBB997:
 7549               	.LM708:
 7550 23e4 DB01      		movw r26,r22
 7551 23e6 1D92      		st X+,__zero_reg__
 7552 23e8 1D92      		st X+,__zero_reg__
 7553 23ea 1D92      		st X+,__zero_reg__
 7554 23ec 1C92      		st X,__zero_reg__
 7555 23ee 1397      		sbiw r26,3
 7556               	.LBE997:
 7557               	.LBE996:
 7558               	.LBB998:
 7559               	.LBB999:
 7560               	.LM709:
 7561 23f0 1082      		st Z,__zero_reg__
 7562 23f2 1182      		std Z+1,__zero_reg__
 7563 23f4 1282      		std Z+2,__zero_reg__
 7564 23f6 1382      		std Z+3,__zero_reg__
 7565               	.LBE999:
 7566               	.LBE998:
 7567               	.LBB1000:
 7568               	.LBB1001:
 7569               	.LM710:
 7570 23f8 E801      		movw r28,r16
 7571 23fa 8881      		ld r24,Y
 7572               	.LBE1001:
 7573               	.LBE1000:
 7574               	.LBE995:
 7575               	.LBE994:
 7576               	.LBB1002:
 7577               	.LBB1003:
 7578               	.LM711:
 7579 23fc 807E      		andi r24,lo8(-32)
 7580 23fe 8860      		ori r24,lo8(8)
 7581 2400 8883      		st Y,r24
 7582 2402 00C0      		rjmp .L354
 7583               	.L352:
 7584               	.LBE1003:
 7585               	.LBE1002:
 7586               	.LM712:
 7587 2404 8230      		cpi r24,lo8(2)
 7588 2406 01F4      		brne .L354
 7589               	.LBB1004:
 7590               	.LBB1005:
 7591               	.LM713:
 7592 2408 1A96      		adiw r26,10
 7593 240a 8D91      		ld r24,X+
 7594 240c 9D91      		ld r25,X+
 7595 240e 0D90      		ld __tmp_reg__,X+
 7596 2410 BC91      		ld r27,X
 7597 2412 A02D      		mov r26,__tmp_reg__
 7598               	.LBE1005:
 7599               	.LBE1004:
 7600               	.LBB1006:
 7601               	.LBB1007:
 7602               	.LM714:
 7603 2414 EC59      		subi r30,lo8(-(100))
 7604 2416 FF4F      		sbci r31,hi8(-(100))
 7605 2418 2081      		ld r18,Z
 7606 241a 3181      		ldd r19,Z+1
 7607 241c 4281      		ldd r20,Z+2
 7608 241e 5381      		ldd r21,Z+3
 7609 2420 820F      		add r24,r18
 7610 2422 931F      		adc r25,r19
 7611 2424 A41F      		adc r26,r20
 7612 2426 B51F      		adc r27,r21
 7613 2428 B293      		st -Z,r27
 7614 242a A293      		st -Z,r26
 7615 242c 9293      		st -Z,r25
 7616 242e 8293      		st -Z,r24
 7617               	.L354:
 7618               	/* epilogue start */
 7619               	.LBE1007:
 7620               	.LBE1006:
 7621               	.LM715:
 7622 2430 DF91      		pop r29
 7623 2432 CF91      		pop r28
 7624 2434 1F91      		pop r17
 7625 2436 0F91      		pop r16
 7626 2438 0895      		ret
 7627               	.LFE135:
 7629               	.global	Timebase_DownCounter_Expired
 7631               	Timebase_DownCounter_Expired:
 7632               	.LFB136:
 7633               	.LM716:
 7634               	.LVL447:
 7635               	/* prologue: function */
 7636               	/* frame size = 0 */
 7637               	.LM717:
 7638 243a 40E0      		ldi r20,lo8(0)
 7639 243c E091 0000 		lds r30,Timebase
 7640 2440 F091 0000 		lds r31,(Timebase)+1
 7641 2444 90E0      		ldi r25,lo8(0)
 7642               	.LVL448:
 7643 2446 2DE0      		ldi r18,lo8(13)
 7644 2448 30E0      		ldi r19,hi8(13)
 7645 244a BC01      		movw r22,r24
 7646 244c 629F      		mul r22,r18
 7647 244e C001      		movw r24,r0
 7648 2450 639F      		mul r22,r19
 7649 2452 900D      		add r25,r0
 7650 2454 729F      		mul r23,r18
 7651 2456 900D      		add r25,r0
 7652 2458 1124      		clr r1
 7653               	.LVL449:
 7654 245a E80F      		add r30,r24
 7655 245c F91F      		adc r31,r25
 7656 245e E15A      		subi r30,lo8(-(95))
 7657 2460 FF4F      		sbci r31,hi8(-(95))
 7658 2462 8081      		ld r24,Z
 7659 2464 8695      		lsr r24
 7660 2466 8F70      		andi r24,lo8(15)
 7661 2468 8430      		cpi r24,lo8(4)
 7662 246a 01F4      		brne .L356
 7663 246c 41E0      		ldi r20,lo8(1)
 7664               	.L356:
 7665               	.LM718:
 7666 246e 842F      		mov r24,r20
 7667               	/* epilogue start */
 7668 2470 0895      		ret
 7669               	.LFE136:
 7671               	.global	Timebase_DownCounter_Expired_Event
 7673               	Timebase_DownCounter_Expired_Event:
 7674               	.LFB137:
 7675               	.LM719:
 7676               	.LVL450:
 7677               	/* prologue: function */
 7678               	/* frame size = 0 */
 7679               	.LBB1008:
 7680               	.LBB1009:
 7681               	.LM720:
 7682 2472 E091 0000 		lds r30,Timebase
 7683 2476 F091 0000 		lds r31,(Timebase)+1
 7684 247a 90E0      		ldi r25,lo8(0)
 7685               	.LBE1009:
 7686               	.LBE1008:
 7687               	.LM721:
 7688 247c 2DE0      		ldi r18,lo8(13)
 7689 247e 30E0      		ldi r19,hi8(13)
 7690 2480 AC01      		movw r20,r24
 7691               	.LVL451:
 7692 2482 429F      		mul r20,r18
 7693 2484 C001      		movw r24,r0
 7694 2486 439F      		mul r20,r19
 7695 2488 900D      		add r25,r0
 7696 248a 529F      		mul r21,r18
 7697 248c 900D      		add r25,r0
 7698 248e 1124      		clr r1
 7699 2490 E80F      		add r30,r24
 7700 2492 F91F      		adc r31,r25
 7701 2494 DF01      		movw r26,r30
 7702 2496 A15A      		subi r26,lo8(-(95))
 7703 2498 BF4F      		sbci r27,hi8(-(95))
 7704 249a 8C91      		ld r24,X
 7705 249c 8695      		lsr r24
 7706 249e 8F70      		andi r24,lo8(15)
 7707 24a0 8430      		cpi r24,lo8(4)
 7708 24a2 01F0      		breq .L359
 7709 24a4 80E0      		ldi r24,lo8(0)
 7710 24a6 0895      		ret
 7711               	.L359:
 7712               	.LBB1010:
 7713               	.LBB1011:
 7714               	.LBB1012:
 7715               	.LBB1013:
 7716               	.LBB1014:
 7717               	.LBB1015:
 7718               	.LM722:
 7719 24a8 E05A      		subi r30,lo8(-(96))
 7720 24aa FF4F      		sbci r31,hi8(-(96))
 7721 24ac 1192      		st Z+,__zero_reg__
 7722 24ae 1192      		st Z+,__zero_reg__
 7723 24b0 1192      		st Z+,__zero_reg__
 7724 24b2 1192      		st Z+,__zero_reg__
 7725               	.LBE1015:
 7726               	.LBE1014:
 7727               	.LBB1016:
 7728               	.LBB1017:
 7729               	.LM723:
 7730 24b4 1082      		st Z,__zero_reg__
 7731 24b6 1182      		std Z+1,__zero_reg__
 7732 24b8 1282      		std Z+2,__zero_reg__
 7733 24ba 1382      		std Z+3,__zero_reg__
 7734               	.LBE1017:
 7735               	.LBE1016:
 7736               	.LBB1018:
 7737               	.LBB1019:
 7738               	.LM724:
 7739 24bc 8C91      		ld r24,X
 7740               	.LBE1019:
 7741               	.LBE1018:
 7742               	.LBB1020:
 7743               	.LBB1021:
 7744               	.LM725:
 7745 24be 807E      		andi r24,lo8(-32)
 7746 24c0 8C93      		st X,r24
 7747 24c2 81E0      		ldi r24,lo8(1)
 7748               	.LBE1021:
 7749               	.LBE1020:
 7750               	.LBE1013:
 7751               	.LBE1012:
 7752               	.LBE1011:
 7753               	.LBE1010:
 7754               	.LM726:
 7755 24c4 0895      		ret
 7756               	.LFE137:
 7758               	.global	Timebase_DownCounter_Set_Period_Value_Securely
 7760               	Timebase_DownCounter_Set_Period_Value_Securely:
 7761               	.LFB138:
 7762               	.LM727:
 7763               	.LVL452:
 7764 24c6 CF93      		push r28
 7765 24c8 DF93      		push r29
 7766               	/* prologue: function */
 7767               	/* frame size = 0 */
 7768               	.LBB1022:
 7769               	.LBB1023:
 7770               	.LM728:
 7771 24ca C091 0000 		lds r28,Timebase
 7772 24ce D091 0000 		lds r29,(Timebase)+1
 7773 24d2 282F      		mov r18,r24
 7774 24d4 30E0      		ldi r19,lo8(0)
 7775               	.LBE1023:
 7776               	.LBE1022:
 7777               	.LM729:
 7778 24d6 8DE0      		ldi r24,lo8(13)
 7779 24d8 90E0      		ldi r25,hi8(13)
 7780               	.LVL453:
 7781 24da 289F      		mul r18,r24
 7782 24dc F001      		movw r30,r0
 7783 24de 299F      		mul r18,r25
 7784 24e0 F00D      		add r31,r0
 7785 24e2 389F      		mul r19,r24
 7786 24e4 F00D      		add r31,r0
 7787 24e6 1124      		clr r1
 7788 24e8 EC0F      		add r30,r28
 7789 24ea FD1F      		adc r31,r29
 7790 24ec E15A      		subi r30,lo8(-(95))
 7791 24ee FF4F      		sbci r31,hi8(-(95))
 7792 24f0 8081      		ld r24,Z
 7793 24f2 EF55      		subi r30,lo8(-(-95))
 7794 24f4 F040      		sbci r31,hi8(-(-95))
 7795 24f6 80FD      		sbrc r24,0
 7796 24f8 00C0      		rjmp .L366
 7797               	.LM730:
 7798 24fa EC59      		subi r30,lo8(-(100))
 7799 24fc FF4F      		sbci r31,hi8(-(100))
 7800 24fe 8191      		ld r24,Z+
 7801 2500 9191      		ld r25,Z+
 7802 2502 A191      		ld r26,Z+
 7803 2504 B191      		ld r27,Z+
 7804 2506 841B      		sub r24,r20
 7805 2508 950B      		sbc r25,r21
 7806 250a A60B      		sbc r26,r22
 7807 250c B70B      		sbc r27,r23
 7808               	.LBB1024:
 7809               	.LBB1025:
 7810               	.LM731:
 7811 250e B7FF      		sbrs r27,7
 7812 2510 00C0      		rjmp .L364
 7813               	.LM732:
 7814 2512 1082      		st Z,__zero_reg__
 7815 2514 1182      		std Z+1,__zero_reg__
 7816 2516 1282      		std Z+2,__zero_reg__
 7817 2518 1382      		std Z+3,__zero_reg__
 7818 251a 00C0      		rjmp .L365
 7819               	.L364:
 7820               	.LM733:
 7821 251c 8083      		st Z,r24
 7822 251e 9183      		std Z+1,r25
 7823 2520 A283      		std Z+2,r26
 7824 2522 B383      		std Z+3,r27
 7825               	.L365:
 7826               	.LBE1025:
 7827               	.LBE1024:
 7828               	.LBB1026:
 7829               	.LBB1027:
 7830               	.LM734:
 7831 2524 8DE0      		ldi r24,lo8(13)
 7832 2526 90E0      		ldi r25,hi8(13)
 7833 2528 289F      		mul r18,r24
 7834 252a F001      		movw r30,r0
 7835 252c 299F      		mul r18,r25
 7836 252e F00D      		add r31,r0
 7837 2530 389F      		mul r19,r24
 7838 2532 F00D      		add r31,r0
 7839 2534 1124      		clr r1
 7840 2536 EC0F      		add r30,r28
 7841 2538 FD1F      		adc r31,r29
 7842 253a E15A      		subi r30,lo8(-(95))
 7843 253c FF4F      		sbci r31,hi8(-(95))
 7844 253e 8081      		ld r24,Z
 7845 2540 8160      		ori r24,lo8(1)
 7846 2542 8083      		st Z,r24
 7847               	.L366:
 7848               	/* epilogue start */
 7849               	.LBE1027:
 7850               	.LBE1026:
 7851               	.LM735:
 7852 2544 DF91      		pop r29
 7853 2546 CF91      		pop r28
 7854 2548 0895      		ret
 7855               	.LFE138:
 7857               	.global	Timebase_DownCounter_Get_Remaining_Period_Value
 7859               	Timebase_DownCounter_Get_Remaining_Period_Value:
 7860               	.LFB139:
 7861               	.LM736:
 7862               	.LVL454:
 7863               	/* prologue: function */
 7864               	/* frame size = 0 */
 7865               	.LBB1028:
 7866               	.LBB1029:
 7867               	.LM737:
 7868 254a E091 0000 		lds r30,Timebase
 7869 254e F091 0000 		lds r31,(Timebase)+1
 7870 2552 90E0      		ldi r25,lo8(0)
 7871               	.LBE1029:
 7872               	.LBE1028:
 7873               	.LM738:
 7874 2554 2DE0      		ldi r18,lo8(13)
 7875 2556 30E0      		ldi r19,hi8(13)
 7876 2558 AC01      		movw r20,r24
 7877               	.LVL455:
 7878 255a 429F      		mul r20,r18
 7879 255c C001      		movw r24,r0
 7880 255e 439F      		mul r20,r19
 7881 2560 900D      		add r25,r0
 7882 2562 529F      		mul r21,r18
 7883 2564 900D      		add r25,r0
 7884 2566 1124      		clr r1
 7885 2568 E80F      		add r30,r24
 7886 256a F91F      		adc r31,r25
 7887 256c DF01      		movw r26,r30
 7888 256e A859      		subi r26,lo8(-(104))
 7889 2570 BF4F      		sbci r27,hi8(-(104))
 7890 2572 EC59      		subi r30,lo8(-(100))
 7891 2574 FF4F      		sbci r31,hi8(-(100))
 7892 2576 2081      		ld r18,Z
 7893 2578 3181      		ldd r19,Z+1
 7894 257a 4281      		ldd r20,Z+2
 7895 257c 5381      		ldd r21,Z+3
 7896               	.LVL456:
 7897 257e 8D91      		ld r24,X+
 7898 2580 9D91      		ld r25,X+
 7899 2582 0D90      		ld __tmp_reg__,X+
 7900 2584 BC91      		ld r27,X
 7901 2586 A02D      		mov r26,__tmp_reg__
 7902 2588 281B      		sub r18,r24
 7903 258a 390B      		sbc r19,r25
 7904 258c 4A0B      		sbc r20,r26
 7905 258e 5B0B      		sbc r21,r27
 7906 2590 57FF      		sbrs r21,7
 7907 2592 00C0      		rjmp .L368
 7908 2594 20E0      		ldi r18,lo8(0)
 7909 2596 30E0      		ldi r19,hi8(0)
 7910 2598 40E0      		ldi r20,hlo8(0)
 7911 259a 50E0      		ldi r21,hhi8(0)
 7912               	.L368:
 7913               	.LM739:
 7914 259c B901      		movw r22,r18
 7915               	.LVL457:
 7916 259e CA01      		movw r24,r20
 7917               	/* epilogue start */
 7918 25a0 0895      		ret
 7919               	.LFE139:
 7921               	.global	Timebase_DownCounter_Period_Value_Expired
 7923               	Timebase_DownCounter_Period_Value_Expired:
 7924               	.LFB140:
 7925               	.LM740:
 7926               	.LVL458:
 7927 25a2 CF93      		push r28
 7928 25a4 DF93      		push r29
 7929               	/* prologue: function */
 7930               	/* frame size = 0 */
 7931               	.LBB1030:
 7932               	.LBB1031:
 7933               	.LBB1032:
 7934               	.LBB1033:
 7935               	.LM741:
 7936 25a6 C091 0000 		lds r28,Timebase
 7937 25aa D091 0000 		lds r29,(Timebase)+1
 7938 25ae 682F      		mov r22,r24
 7939 25b0 70E0      		ldi r23,lo8(0)
 7940               	.LBE1033:
 7941               	.LBE1032:
 7942               	.LM742:
 7943 25b2 8DE0      		ldi r24,lo8(13)
 7944 25b4 90E0      		ldi r25,hi8(13)
 7945               	.LVL459:
 7946 25b6 689F      		mul r22,r24
 7947 25b8 F001      		movw r30,r0
 7948 25ba 699F      		mul r22,r25
 7949 25bc F00D      		add r31,r0
 7950 25be 789F      		mul r23,r24
 7951 25c0 F00D      		add r31,r0
 7952 25c2 1124      		clr r1
 7953 25c4 EC0F      		add r30,r28
 7954 25c6 FD1F      		adc r31,r29
 7955 25c8 DF01      		movw r26,r30
 7956 25ca A859      		subi r26,lo8(-(104))
 7957 25cc BF4F      		sbci r27,hi8(-(104))
 7958 25ce EC59      		subi r30,lo8(-(100))
 7959 25d0 FF4F      		sbci r31,hi8(-(100))
 7960 25d2 2081      		ld r18,Z
 7961 25d4 3181      		ldd r19,Z+1
 7962 25d6 4281      		ldd r20,Z+2
 7963 25d8 5381      		ldd r21,Z+3
 7964               	.LVL460:
 7965 25da 8D91      		ld r24,X+
 7966 25dc 9D91      		ld r25,X+
 7967 25de 0D90      		ld __tmp_reg__,X+
 7968 25e0 BC91      		ld r27,X
 7969 25e2 A02D      		mov r26,__tmp_reg__
 7970 25e4 281B      		sub r18,r24
 7971 25e6 390B      		sbc r19,r25
 7972 25e8 4A0B      		sbc r20,r26
 7973 25ea 5B0B      		sbc r21,r27
 7974               	.LM743:
 7975 25ec 57FD      		sbrc r21,7
 7976 25ee 00C0      		rjmp .L371
 7977               	.LBE1031:
 7978               	.LBE1030:
 7979               	.LM744:
 7980 25f0 2115      		cp r18,__zero_reg__
 7981 25f2 3105      		cpc r19,__zero_reg__
 7982 25f4 4105      		cpc r20,__zero_reg__
 7983 25f6 5105      		cpc r21,__zero_reg__
 7984 25f8 01F0      		breq .L371
 7985 25fa 20E0      		ldi r18,lo8(0)
 7986               	.LVL461:
 7987 25fc 00C0      		rjmp .L372
 7988               	.LVL462:
 7989               	.L371:
 7990 25fe 20E0      		ldi r18,lo8(0)
 7991               	.LVL463:
 7992 2600 8DE0      		ldi r24,lo8(13)
 7993 2602 90E0      		ldi r25,hi8(13)
 7994 2604 AC01      		movw r20,r24
 7995 2606 649F      		mul r22,r20
 7996 2608 C001      		movw r24,r0
 7997 260a 659F      		mul r22,r21
 7998 260c 900D      		add r25,r0
 7999 260e 749F      		mul r23,r20
 8000 2610 900D      		add r25,r0
 8001 2612 1124      		clr r1
 8002 2614 C80F      		add r28,r24
 8003 2616 D91F      		adc r29,r25
 8004 2618 C15A      		subi r28,lo8(-(95))
 8005 261a DF4F      		sbci r29,hi8(-(95))
 8006 261c 8881      		ld r24,Y
 8007 261e 80FF      		sbrs r24,0
 8008 2620 21E0      		ldi r18,lo8(1)
 8009               	.L373:
 8010 2622 81E0      		ldi r24,lo8(1)
 8011 2624 2827      		eor r18,r24
 8012               	.L372:
 8013               	.LM745:
 8014 2626 822F      		mov r24,r18
 8015               	/* epilogue start */
 8016 2628 DF91      		pop r29
 8017 262a CF91      		pop r28
 8018 262c 0895      		ret
 8019               	.LFE140:
 8021               	.global	Timebase_DownCounter_Period_Value_Expired_Event
 8023               	Timebase_DownCounter_Period_Value_Expired_Event:
 8024               	.LFB141:
 8025               	.LM746:
 8026               	.LVL464:
 8027 262e 1F93      		push r17
 8028               	/* prologue: function */
 8029               	/* frame size = 0 */
 8030 2630 182F      		mov r17,r24
 8031               	.LM747:
 8032 2632 0E94 0000 		call Timebase_DownCounter_Period_Value_Expired
 8033               	.LVL465:
 8034 2636 8130      		cpi r24,lo8(1)
 8035 2638 01F0      		breq .L376
 8036 263a 80E0      		ldi r24,lo8(0)
 8037 263c 00C0      		rjmp .L377
 8038               	.L376:
 8039               	.LBB1034:
 8040               	.LBB1035:
 8041               	.LM748:
 8042 263e E091 0000 		lds r30,Timebase
 8043 2642 F091 0000 		lds r31,(Timebase)+1
 8044 2646 212F      		mov r18,r17
 8045 2648 30E0      		ldi r19,lo8(0)
 8046               	.LVL466:
 8047 264a 8DE0      		ldi r24,lo8(13)
 8048 264c 90E0      		ldi r25,hi8(13)
 8049 264e AC01      		movw r20,r24
 8050 2650 249F      		mul r18,r20
 8051 2652 C001      		movw r24,r0
 8052 2654 259F      		mul r18,r21
 8053 2656 900D      		add r25,r0
 8054 2658 349F      		mul r19,r20
 8055 265a 900D      		add r25,r0
 8056 265c 1124      		clr r1
 8057 265e E80F      		add r30,r24
 8058 2660 F91F      		adc r31,r25
 8059 2662 E15A      		subi r30,lo8(-(95))
 8060 2664 FF4F      		sbci r31,hi8(-(95))
 8061 2666 8081      		ld r24,Z
 8062 2668 8E7F      		andi r24,lo8(-2)
 8063 266a 8083      		st Z,r24
 8064 266c 81E0      		ldi r24,lo8(1)
 8065               	.L377:
 8066               	/* epilogue start */
 8067               	.LBE1035:
 8068               	.LBE1034:
 8069               	.LM749:
 8070 266e 1F91      		pop r17
 8071               	.LVL467:
 8072 2670 0895      		ret
 8073               	.LFE141:
 8075               	.global	Timebase_DownCounter_Update_All
 8077               	Timebase_DownCounter_Update_All:
 8078               	.LFB142:
 8079               	.LM750:
 8080               	/* prologue: function */
 8081               	/* frame size = 0 */
 8082               	.LBB1036:
 8083               	.LM751:
 8084 2672 80E0      		ldi r24,lo8(0)
 8085 2674 0E94 0000 		call Timebase_DownCounter_Update
 8086               	/* epilogue start */
 8087               	.LBE1036:
 8088               	.LM752:
 8089 2678 0895      		ret
 8090               	.LFE142:
 8092               	.global	Timebase_DownCounter_Reset_All
 8094               	Timebase_DownCounter_Reset_All:
 8095               	.LFB143:
 8096               	.LM753:
 8097               	/* prologue: function */
 8098               	/* frame size = 0 */
 8099               	.LBB1037:
 8100               	.LBB1038:
 8101               	.LBB1039:
 8102               	.LBB1040:
 8103               	.LBB1041:
 8104               	.LM754:
 8105 267a E091 0000 		lds r30,Timebase
 8106 267e F091 0000 		lds r31,(Timebase)+1
 8107 2682 E05A      		subi r30,lo8(-(96))
 8108 2684 FF4F      		sbci r31,hi8(-(96))
 8109 2686 1192      		st Z+,__zero_reg__
 8110 2688 1192      		st Z+,__zero_reg__
 8111 268a 1192      		st Z+,__zero_reg__
 8112 268c 1192      		st Z+,__zero_reg__
 8113               	.LBE1041:
 8114               	.LBE1040:
 8115               	.LBB1042:
 8116               	.LBB1043:
 8117               	.LM755:
 8118 268e 1082      		st Z,__zero_reg__
 8119 2690 1182      		std Z+1,__zero_reg__
 8120 2692 1282      		std Z+2,__zero_reg__
 8121 2694 1382      		std Z+3,__zero_reg__
 8122               	.LBE1043:
 8123               	.LBE1042:
 8124               	.LBB1044:
 8125               	.LBB1045:
 8126               	.LM756:
 8127 2696 3597      		sbiw r30,5
 8128 2698 8081      		ld r24,Z
 8129               	.LBE1045:
 8130               	.LBE1044:
 8131               	.LBB1046:
 8132               	.LBB1047:
 8133               	.LM757:
 8134 269a 807E      		andi r24,lo8(-32)
 8135 269c 8083      		st Z,r24
 8136               	/* epilogue start */
 8137               	.LBE1047:
 8138               	.LBE1046:
 8139               	.LBE1039:
 8140               	.LBE1038:
 8141               	.LBE1037:
 8142               	.LM758:
 8143 269e 0895      		ret
 8144               	.LFE143:
 8146               	.global	Timebase_Reset
 8148               	Timebase_Reset:
 8149               	.LFB144:
 8150               	.LM759:
 8151               	/* prologue: function */
 8152               	/* frame size = 0 */
 8153               	.LM760:
 8154 26a0 0E94 0000 		call Timebase_UpCounter_Reset_All
 8155               	.LM761:
 8156 26a4 0E94 0000 		call Timebase_DownCounter_SS_Reset_All
 8157               	.LM762:
 8158 26a8 0E94 0000 		call Timebase_DownCounter_Reset_All
 8159               	/* epilogue start */
 8160               	.LM763:
 8161 26ac 0895      		ret
 8162               	.LFE144:
 8164               	.global	Timebase_Init
 8166               	Timebase_Init:
 8167               	.LFB145:
 8168               	.LM764:
 8169               	.LVL468:
 8170 26ae 0F93      		push r16
 8171 26b0 1F93      		push r17
 8172               	/* prologue: function */
 8173               	/* frame size = 0 */
 8174 26b2 8C01      		movw r16,r24
 8175               	.LM765:
 8176 26b4 0E94 0000 		call Timebase_Struct_Init
 8177               	.LVL469:
 8178               	.LM766:
 8179 26b8 C801      		movw r24,r16
 8180 26ba 0E94 0000 		call Timebase_Timer_Config
 8181               	.LM767:
 8182 26be 0E94 0000 		call Timebase_Reset
 8183               	/* epilogue start */
 8184               	.LM768:
 8185 26c2 1F91      		pop r17
 8186 26c4 0F91      		pop r16
 8187               	.LVL470:
 8188 26c6 0895      		ret
 8189               	.LFE145:
 8191               	.global	Timebase_Main_Loop_Executables
 8193               	Timebase_Main_Loop_Executables:
 8194               	.LFB146:
 8195               	.LM769:
 8196               	/* prologue: function */
 8197               	/* frame size = 0 */
 8198               	.LM770:
 8199 26c8 E091 0000 		lds r30,Timebase
 8200 26cc F091 0000 		lds r31,(Timebase)+1
 8201 26d0 868D      		ldd r24,Z+30
 8202 26d2 82FF      		sbrs r24,2
 8203 26d4 00C0      		rjmp .L388
 8204               	.LM771:
 8205 26d6 0E94 0000 		call Timebase_Timer_Sync_With_Shadow_Variables
 8206               	.LM772:
 8207 26da E091 0000 		lds r30,Timebase
 8208 26de F091 0000 		lds r31,(Timebase)+1
 8209 26e2 868D      		ldd r24,Z+30
 8210 26e4 8B7F      		andi r24,lo8(-5)
 8211 26e6 868F      		std Z+30,r24
 8212               	.L388:
 8213               	.LM773:
 8214 26e8 E091 0000 		lds r30,Timebase
 8215 26ec F091 0000 		lds r31,(Timebase)+1
 8216 26f0 868D      		ldd r24,Z+30
 8217 26f2 80FF      		sbrs r24,0
 8218 26f4 00C0      		rjmp .L389
 8219               	.LM774:
 8220 26f6 0E94 0000 		call Timebase_Timer_Sync_With_Shadow_Variables
 8221               	.LM775:
 8222 26fa 0E94 0000 		call Timebase_UpCounter_Update_All
 8223               	.LM776:
 8224 26fe E091 0000 		lds r30,Timebase
 8225 2702 F091 0000 		lds r31,(Timebase)+1
 8226 2706 868D      		ldd r24,Z+30
 8227 2708 8E7F      		andi r24,lo8(-2)
 8228 270a 868F      		std Z+30,r24
 8229               	.L389:
 8230               	.LM777:
 8231 270c E091 0000 		lds r30,Timebase
 8232 2710 F091 0000 		lds r31,(Timebase)+1
 8233 2714 868D      		ldd r24,Z+30
 8234 2716 83FF      		sbrs r24,3
 8235 2718 00C0      		rjmp .L390
 8236               	.LM778:
 8237 271a 0E94 0000 		call Timebase_Timer_Sync_With_Shadow_Variables
 8238               	.LM779:
 8239 271e 0E94 0000 		call Timebase_DownCounter_SS_Update_All
 8240               	.LM780:
 8241 2722 E091 0000 		lds r30,Timebase
 8242 2726 F091 0000 		lds r31,(Timebase)+1
 8243 272a 868D      		ldd r24,Z+30
 8244 272c 877F      		andi r24,lo8(-9)
 8245 272e 868F      		std Z+30,r24
 8246               	.L390:
 8247               	.LM781:
 8248 2730 E091 0000 		lds r30,Timebase
 8249 2734 F091 0000 		lds r31,(Timebase)+1
 8250 2738 868D      		ldd r24,Z+30
 8251 273a 81FF      		sbrs r24,1
 8252 273c 00C0      		rjmp .L391
 8253               	.LM782:
 8254 273e 0E94 0000 		call Timebase_Timer_Sync_With_Shadow_Variables
 8255               	.LM783:
 8256 2742 0E94 0000 		call Timebase_DownCounter_Update_All
 8257               	.LM784:
 8258 2746 E091 0000 		lds r30,Timebase
 8259 274a F091 0000 		lds r31,(Timebase)+1
 8260 274e 868D      		ldd r24,Z+30
 8261 2750 8D7F      		andi r24,lo8(-3)
 8262 2752 868F      		std Z+30,r24
 8263               	.L391:
 8264               	.LM785:
 8265 2754 E091 0000 		lds r30,Timebase
 8266 2758 F091 0000 		lds r31,(Timebase)+1
 8267 275c 148A      		std Z+20,__zero_reg__
 8268               	/* epilogue start */
 8269               	.LM786:
 8270 275e 0895      		ret
 8271               	.LFE146:
 8273               	.global	Timebase_ISR_Executables
 8275               	Timebase_ISR_Executables:
 8276               	.LFB147:
 8277               	.LM787:
 8278               	/* prologue: function */
 8279               	/* frame size = 0 */
 8280               	.LM788:
 8281 2760 E091 0000 		lds r30,Timebase
 8282 2764 F091 0000 		lds r31,(Timebase)+1
 8283 2768 8685      		ldd r24,Z+14
 8284 276a 9785      		ldd r25,Z+15
 8285 276c 0196      		adiw r24,1
 8286 276e 9787      		std Z+15,r25
 8287 2770 8687      		std Z+14,r24
 8288               	.LM789:
 8289 2772 868D      		ldd r24,Z+30
 8290 2774 8460      		ori r24,lo8(4)
 8291 2776 868F      		std Z+30,r24
 8292               	.LM790:
 8293 2778 868D      		ldd r24,Z+30
 8294 277a 8860      		ori r24,lo8(8)
 8295 277c 868F      		std Z+30,r24
 8296               	.LM791:
 8297 277e 2685      		ldd r18,Z+14
 8298 2780 3785      		ldd r19,Z+15
 8299 2782 8181      		ldd r24,Z+1
 8300 2784 9281      		ldd r25,Z+2
 8301 2786 2817      		cp r18,r24
 8302 2788 3907      		cpc r19,r25
 8303 278a 00F0      		brlo .L395
 8304               	.LM792:
 8305 278c 8089      		ldd r24,Z+16
 8306 278e 9189      		ldd r25,Z+17
 8307 2790 A289      		ldd r26,Z+18
 8308 2792 B389      		ldd r27,Z+19
 8309 2794 0196      		adiw r24,1
 8310 2796 A11D      		adc r26,__zero_reg__
 8311 2798 B11D      		adc r27,__zero_reg__
 8312 279a 808B      		std Z+16,r24
 8313 279c 918B      		std Z+17,r25
 8314 279e A28B      		std Z+18,r26
 8315 27a0 B38B      		std Z+19,r27
 8316               	.LM793:
 8317 27a2 1786      		std Z+15,__zero_reg__
 8318 27a4 1686      		std Z+14,__zero_reg__
 8319               	.LM794:
 8320 27a6 868D      		ldd r24,Z+30
 8321 27a8 8160      		ori r24,lo8(1)
 8322 27aa 868F      		std Z+30,r24
 8323               	.LM795:
 8324 27ac 868D      		ldd r24,Z+30
 8325 27ae 8260      		ori r24,lo8(2)
 8326 27b0 868F      		std Z+30,r24
 8327               	.L395:
 8328 27b2 0895      		ret
 8329               	.LFE147:
 8331               	.global	__vector_16
 8333               	__vector_16:
 8334               	.LFB148:
 8335               	.LM796:
 8336 27b4 1F92      		push __zero_reg__
 8337 27b6 0F92      		push r0
 8338 27b8 0FB6      		in r0,__SREG__
 8339 27ba 0F92      		push r0
 8340 27bc 1124      		clr __zero_reg__
 8341 27be 2F93      		push r18
 8342 27c0 3F93      		push r19
 8343 27c2 4F93      		push r20
 8344 27c4 5F93      		push r21
 8345 27c6 6F93      		push r22
 8346 27c8 7F93      		push r23
 8347 27ca 8F93      		push r24
 8348 27cc 9F93      		push r25
 8349 27ce AF93      		push r26
 8350 27d0 BF93      		push r27
 8351 27d2 EF93      		push r30
 8352 27d4 FF93      		push r31
 8353               	/* prologue: Signal */
 8354               	/* frame size = 0 */
 8355               	.LM797:
 8356 27d6 E091 0000 		lds r30,Timebase
 8357 27da F091 0000 		lds r31,(Timebase)+1
 8358 27de 8381      		ldd r24,Z+3
 8359 27e0 86BD      		out 70-32,r24
 8360               	.LM798:
 8361 27e2 0E94 0000 		call Timebase_ISR_Executables
 8362               	/* epilogue start */
 8363               	.LM799:
 8364 27e6 FF91      		pop r31
 8365 27e8 EF91      		pop r30
 8366 27ea BF91      		pop r27
 8367 27ec AF91      		pop r26
 8368 27ee 9F91      		pop r25
 8369 27f0 8F91      		pop r24
 8370 27f2 7F91      		pop r23
 8371 27f4 6F91      		pop r22
 8372 27f6 5F91      		pop r21
 8373 27f8 4F91      		pop r20
 8374 27fa 3F91      		pop r19
 8375 27fc 2F91      		pop r18
 8376 27fe 0F90      		pop r0
 8377 2800 0FBE      		out __SREG__,r0
 8378 2802 0F90      		pop r0
 8379 2804 1F90      		pop __zero_reg__
 8380 2806 1895      		reti
 8381               	.LFE148:
 8383               		.data
 8386               	C.2.1703:
 8387 0000 0100      		.word	1
 8388 0002 0800      		.word	8
 8389 0004 4000      		.word	64
 8390 0006 0001      		.word	256
 8391 0008 0004      		.word	1024
 8392               		.comm Timebase_type,108,1
 8393               		.comm Timebase,2,1
 9554               	.Letext0:
DEFINED SYMBOLS
                            *ABS*:00000000 timebase.c
C:\Users\WALTON\AppData\Local\Temp/ccHeKD2g.s:2      *ABS*:0000003f __SREG__
C:\Users\WALTON\AppData\Local\Temp/ccHeKD2g.s:3      *ABS*:0000003e __SP_H__
C:\Users\WALTON\AppData\Local\Temp/ccHeKD2g.s:4      *ABS*:0000003d __SP_L__
C:\Users\WALTON\AppData\Local\Temp/ccHeKD2g.s:5      *ABS*:00000034 __CCP__
C:\Users\WALTON\AppData\Local\Temp/ccHeKD2g.s:6      *ABS*:00000000 __tmp_reg__
C:\Users\WALTON\AppData\Local\Temp/ccHeKD2g.s:7      *ABS*:00000001 __zero_reg__
C:\Users\WALTON\AppData\Local\Temp/ccHeKD2g.s:18     .text:00000000 Timebase_Struct_Init
                            *COM*:0000006c Timebase_type
                            *COM*:00000002 Timebase
C:\Users\WALTON\AppData\Local\Temp/ccHeKD2g.s:197    .text:000001d6 Timebase_Timer_Config
C:\Users\WALTON\AppData\Local\Temp/ccHeKD2g.s:8386   .data:00000000 C.2.1703
C:\Users\WALTON\AppData\Local\Temp/ccHeKD2g.s:517    .text:00000370 Timebase_Atomic_Operation_Start
C:\Users\WALTON\AppData\Local\Temp/ccHeKD2g.s:535    .text:00000374 Timebase_Atomic_Operation_End
C:\Users\WALTON\AppData\Local\Temp/ccHeKD2g.s:553    .text:00000378 Timebase_Token_Executing
C:\Users\WALTON\AppData\Local\Temp/ccHeKD2g.s:569    .text:00000384 Timebase_Token_Add
C:\Users\WALTON\AppData\Local\Temp/ccHeKD2g.s:595    .text:0000039a Timebase_Token_Remove
C:\Users\WALTON\AppData\Local\Temp/ccHeKD2g.s:621    .text:000003b0 Timebase_Token_Remove_All
C:\Users\WALTON\AppData\Local\Temp/ccHeKD2g.s:637    .text:000003bc Timebase_Timer_Get_SubSecondsShadow
C:\Users\WALTON\AppData\Local\Temp/ccHeKD2g.s:655    .text:000003cc Timebase_Timer_Get_SecondsShadow
C:\Users\WALTON\AppData\Local\Temp/ccHeKD2g.s:676    .text:000003e2 Timebase_Timer_Get_SubSeconds
C:\Users\WALTON\AppData\Local\Temp/ccHeKD2g.s:694    .text:000003f2 Timebase_Timer_Get_Seconds
C:\Users\WALTON\AppData\Local\Temp/ccHeKD2g.s:715    .text:00000408 Timebase_Timer_Set_SubSeconds
C:\Users\WALTON\AppData\Local\Temp/ccHeKD2g.s:733    .text:00000416 Timebase_Timer_Set_Seconds
C:\Users\WALTON\AppData\Local\Temp/ccHeKD2g.s:753    .text:00000428 Timebase_Timer_Sync_With_Shadow_Variables
C:\Users\WALTON\AppData\Local\Temp/ccHeKD2g.s:807    .text:00000458 Timebase_Timer_Delay_SubSeconds
C:\Users\WALTON\AppData\Local\Temp/ccHeKD2g.s:984    .text:00000510 Timebase_Timer_Await_SubSeconds
C:\Users\WALTON\AppData\Local\Temp/ccHeKD2g.s:1146   .text:000005aa Timebase_Timer_Delay_Seconds
C:\Users\WALTON\AppData\Local\Temp/ccHeKD2g.s:1243   .text:000005ec Timebase_Window_Timer_Reset
C:\Users\WALTON\AppData\Local\Temp/ccHeKD2g.s:1269   .text:00000608 Timebase_Window_Timer_Start
C:\Users\WALTON\AppData\Local\Temp/ccHeKD2g.s:1337   .text:00000640 Timebase_Window_Timer_Get_Interval
C:\Users\WALTON\AppData\Local\Temp/ccHeKD2g.s:1453   .text:000006be Timebase_Window_Timer_Get_Interval_Reset
C:\Users\WALTON\AppData\Local\Temp/ccHeKD2g.s:1493   .text:000006e8 Timebase_UpCounter_SS_Get_Status
C:\Users\WALTON\AppData\Local\Temp/ccHeKD2g.s:1527   .text:00000712 Timebase_UpCounter_SS_Set_Status
C:\Users\WALTON\AppData\Local\Temp/ccHeKD2g.s:1565   .text:00000742 Timebase_UpCounter_SS_Get_Value
C:\Users\WALTON\AppData\Local\Temp/ccHeKD2g.s:1608   .text:0000077c Timebase_UpCounter_SS_Set_Value
C:\Users\WALTON\AppData\Local\Temp/ccHeKD2g.s:1643   .text:000007a8 Timebase_UpCounter_SS_Get_EndValueSec
C:\Users\WALTON\AppData\Local\Temp/ccHeKD2g.s:1686   .text:000007e2 Timebase_UpCounter_SS_Get_EndValueSubSec
C:\Users\WALTON\AppData\Local\Temp/ccHeKD2g.s:1729   .text:0000081c Timebase_UpCounter_SS_Set_EndValueSec
C:\Users\WALTON\AppData\Local\Temp/ccHeKD2g.s:1764   .text:00000848 Timebase_UpCounter_SS_Set_EndValueSubSec
C:\Users\WALTON\AppData\Local\Temp/ccHeKD2g.s:1799   .text:00000874 Timebase_UpCounter_SS_Get_TargetValue
C:\Users\WALTON\AppData\Local\Temp/ccHeKD2g.s:1842   .text:000008ae Timebase_UpCounter_SS_Set_TargetValue
C:\Users\WALTON\AppData\Local\Temp/ccHeKD2g.s:1877   .text:000008da Timebase_UpCounter_SS_Get_TemporaryValue
C:\Users\WALTON\AppData\Local\Temp/ccHeKD2g.s:1920   .text:00000914 Timebase_UpCounter_SS_Set_TemporaryValue
C:\Users\WALTON\AppData\Local\Temp/ccHeKD2g.s:1955   .text:00000940 Timebase_UpCounter_SS_Get_PeriodValue
C:\Users\WALTON\AppData\Local\Temp/ccHeKD2g.s:1998   .text:0000097a Timebase_UpCounter_SS_Set_PeriodValue
C:\Users\WALTON\AppData\Local\Temp/ccHeKD2g.s:2033   .text:000009a6 Timebase_UpCounter_SS_Get_Period_Flag
C:\Users\WALTON\AppData\Local\Temp/ccHeKD2g.s:2066   .text:000009ce Timebase_UpCounter_SS_Set_Period_Flag
C:\Users\WALTON\AppData\Local\Temp/ccHeKD2g.s:2100   .text:000009f8 Timebase_UpCounter_SS_Clear_Period_Flag
C:\Users\WALTON\AppData\Local\Temp/ccHeKD2g.s:2134   .text:00000a22 Timebase_UpCounter_SS_Reset
C:\Users\WALTON\AppData\Local\Temp/ccHeKD2g.s:2230   .text:00000a7c Timebase_UpCounter_SS_Clear_All_Flags
C:\Users\WALTON\AppData\Local\Temp/ccHeKD2g.s:2246   .text:00000a82 Timebase_UpCounter_SS_Start
C:\Users\WALTON\AppData\Local\Temp/ccHeKD2g.s:2294   .text:00000ab8 Timebase_UpCounter_SS_Stop
C:\Users\WALTON\AppData\Local\Temp/ccHeKD2g.s:2342   .text:00000aee Timebase_UpCounter_SS_Set_Securely
C:\Users\WALTON\AppData\Local\Temp/ccHeKD2g.s:2616   .text:00000c6a Timebase_UpCounter_SS_Set_Forcefully
C:\Users\WALTON\AppData\Local\Temp/ccHeKD2g.s:2652   .text:00000c94 Timebase_UpCounter_SS_Update
C:\Users\WALTON\AppData\Local\Temp/ccHeKD2g.s:2808   .text:00000d54 Timebase_UpCounter_SS_Expired
C:\Users\WALTON\AppData\Local\Temp/ccHeKD2g.s:2848   .text:00000d88 Timebase_UpCounter_SS_Expired_Event
C:\Users\WALTON\AppData\Local\Temp/ccHeKD2g.s:2897   .text:00000dc6 Timebase_UpCounter_SS_Set_Period_Value_Securely
C:\Users\WALTON\AppData\Local\Temp/ccHeKD2g.s:2959   .text:00000e0e Timebase_UpCounter_SS_Get_Remaining_Period_Value
C:\Users\WALTON\AppData\Local\Temp/ccHeKD2g.s:3017   .text:00000e5a Timebase_UpCounter_SS_Period_Value_Expired
C:\Users\WALTON\AppData\Local\Temp/ccHeKD2g.s:3109   .text:00000ed6 Timebase_UpCounter_SS_Period_Value_Expired_Event
C:\Users\WALTON\AppData\Local\Temp/ccHeKD2g.s:3161   .text:00000f16 Timebase_UpCounter_SS_Update_All
C:\Users\WALTON\AppData\Local\Temp/ccHeKD2g.s:3178   .text:00000f1e Timebase_UpCounter_SS_Reset_All
C:\Users\WALTON\AppData\Local\Temp/ccHeKD2g.s:3195   .text:00000f26 Timebase_UpCounter_Get_Status
C:\Users\WALTON\AppData\Local\Temp/ccHeKD2g.s:3229   .text:00000f50 Timebase_UpCounter_Set_Status
C:\Users\WALTON\AppData\Local\Temp/ccHeKD2g.s:3267   .text:00000f80 Timebase_UpCounter_Get_Value
C:\Users\WALTON\AppData\Local\Temp/ccHeKD2g.s:3305   .text:00000fb0 Timebase_UpCounter_Set_Value
C:\Users\WALTON\AppData\Local\Temp/ccHeKD2g.s:3342   .text:00000fe0 Timebase_UpCounter_Get_EndValue
C:\Users\WALTON\AppData\Local\Temp/ccHeKD2g.s:3385   .text:0000101a Timebase_UpCounter_Set_EndValue
C:\Users\WALTON\AppData\Local\Temp/ccHeKD2g.s:3420   .text:00001046 Timebase_UpCounter_Get_TargetValue
C:\Users\WALTON\AppData\Local\Temp/ccHeKD2g.s:3457   .text:00001074 Timebase_UpCounter_Set_TargetValue
C:\Users\WALTON\AppData\Local\Temp/ccHeKD2g.s:3493   .text:000010a2 Timebase_UpCounter_Get_TemporaryValue
C:\Users\WALTON\AppData\Local\Temp/ccHeKD2g.s:3531   .text:000010d2 Timebase_UpCounter_Set_TemporaryValue
C:\Users\WALTON\AppData\Local\Temp/ccHeKD2g.s:3568   .text:00001102 Timebase_UpCounter_Get_PeriodValue
C:\Users\WALTON\AppData\Local\Temp/ccHeKD2g.s:3606   .text:00001132 Timebase_UpCounter_Set_PeriodValue
C:\Users\WALTON\AppData\Local\Temp/ccHeKD2g.s:3643   .text:00001162 Timebase_UpCounter_Get_Period_Flag
C:\Users\WALTON\AppData\Local\Temp/ccHeKD2g.s:3676   .text:0000118a Timebase_UpCounter_Set_Period_Flag
C:\Users\WALTON\AppData\Local\Temp/ccHeKD2g.s:3710   .text:000011b4 Timebase_UpCounter_Clear_Period_Flag
C:\Users\WALTON\AppData\Local\Temp/ccHeKD2g.s:3744   .text:000011de Timebase_UpCounter_Reset
C:\Users\WALTON\AppData\Local\Temp/ccHeKD2g.s:3839   .text:00001240 Timebase_UpCounter_Clear_All_Flags
C:\Users\WALTON\AppData\Local\Temp/ccHeKD2g.s:3855   .text:00001246 Timebase_UpCounter_Start
C:\Users\WALTON\AppData\Local\Temp/ccHeKD2g.s:3903   .text:0000127c Timebase_UpCounter_Stop
C:\Users\WALTON\AppData\Local\Temp/ccHeKD2g.s:3951   .text:000012b2 Timebase_UpCounter_Set_Securely
C:\Users\WALTON\AppData\Local\Temp/ccHeKD2g.s:4063   .text:00001328 Timebase_UpCounter_Set_Forcefully
C:\Users\WALTON\AppData\Local\Temp/ccHeKD2g.s:4099   .text:00001352 Timebase_UpCounter_Update
C:\Users\WALTON\AppData\Local\Temp/ccHeKD2g.s:4314   .text:00001468 Timebase_UpCounter_Expired
C:\Users\WALTON\AppData\Local\Temp/ccHeKD2g.s:4354   .text:0000149c Timebase_UpCounter_Expired_Event
C:\Users\WALTON\AppData\Local\Temp/ccHeKD2g.s:4403   .text:000014da Timebase_UpCounter_Set_Period_Value_Securely
C:\Users\WALTON\AppData\Local\Temp/ccHeKD2g.s:4478   .text:00001538 Timebase_UpCounter_Get_Remaining_Period_Value
C:\Users\WALTON\AppData\Local\Temp/ccHeKD2g.s:4542   .text:00001590 Timebase_UpCounter_Period_Value_Expired
C:\Users\WALTON\AppData\Local\Temp/ccHeKD2g.s:4640   .text:00001618 Timebase_UpCounter_Period_Value_Expired_Event
C:\Users\WALTON\AppData\Local\Temp/ccHeKD2g.s:4692   .text:00001658 Timebase_UpCounter_Update_All
C:\Users\WALTON\AppData\Local\Temp/ccHeKD2g.s:4709   .text:00001660 Timebase_UpCounter_Reset_All
C:\Users\WALTON\AppData\Local\Temp/ccHeKD2g.s:4726   .text:00001668 Timebase_DownCounter_SS_Get_Status
C:\Users\WALTON\AppData\Local\Temp/ccHeKD2g.s:4760   .text:00001692 Timebase_DownCounter_SS_Set_Status
C:\Users\WALTON\AppData\Local\Temp/ccHeKD2g.s:4798   .text:000016c2 Timebase_DownCounter_SS_Get_Value
C:\Users\WALTON\AppData\Local\Temp/ccHeKD2g.s:4834   .text:000016ee Timebase_DownCounter_SS_Set_Value
C:\Users\WALTON\AppData\Local\Temp/ccHeKD2g.s:4868   .text:0000171a Timebase_DownCounter_SS_Get_EndValueSec
C:\Users\WALTON\AppData\Local\Temp/ccHeKD2g.s:4904   .text:00001746 Timebase_DownCounter_SS_Get_EndValueSubSec
C:\Users\WALTON\AppData\Local\Temp/ccHeKD2g.s:4940   .text:00001772 Timebase_DownCounter_SS_Set_EndValueSec
C:\Users\WALTON\AppData\Local\Temp/ccHeKD2g.s:4974   .text:0000179e Timebase_DownCounter_SS_Set_EndValueSubSec
C:\Users\WALTON\AppData\Local\Temp/ccHeKD2g.s:5008   .text:000017ca Timebase_DownCounter_SS_Get_PeriodValue
C:\Users\WALTON\AppData\Local\Temp/ccHeKD2g.s:5044   .text:000017f6 Timebase_DownCounter_SS_Set_PeriodValue
C:\Users\WALTON\AppData\Local\Temp/ccHeKD2g.s:5101   .text:0000184a Timebase_DownCounter_SS_Get_Period_Flag
C:\Users\WALTON\AppData\Local\Temp/ccHeKD2g.s:5134   .text:00001872 Timebase_DownCounter_SS_Set_Period_Flag
C:\Users\WALTON\AppData\Local\Temp/ccHeKD2g.s:5168   .text:0000189c Timebase_DownCounter_SS_Clear_Period_Flag
C:\Users\WALTON\AppData\Local\Temp/ccHeKD2g.s:5202   .text:000018c6 Timebase_DownCounter_SS_Reset
C:\Users\WALTON\AppData\Local\Temp/ccHeKD2g.s:5273   .text:0000190c Timebase_DownCounter_SS_Clear_All_Flags
C:\Users\WALTON\AppData\Local\Temp/ccHeKD2g.s:5348   .text:00001952 Timebase_DownCounter_SS_Start
C:\Users\WALTON\AppData\Local\Temp/ccHeKD2g.s:5396   .text:00001988 Timebase_DownCounter_SS_Stop
C:\Users\WALTON\AppData\Local\Temp/ccHeKD2g.s:5444   .text:000019be Timebase_DownCounter_SS_Set_Securely
C:\Users\WALTON\AppData\Local\Temp/ccHeKD2g.s:5706   .text:00001b3a Timebase_DownCounter_SS_Set_Forcefully
C:\Users\WALTON\AppData\Local\Temp/ccHeKD2g.s:5784   .text:00001b86 Timebase_DownCounter_SS_Update
C:\Users\WALTON\AppData\Local\Temp/ccHeKD2g.s:6103   .text:00001d26 Timebase_DownCounter_SS_Expired
C:\Users\WALTON\AppData\Local\Temp/ccHeKD2g.s:6143   .text:00001d5a Timebase_DownCounter_SS_Expired_Event
C:\Users\WALTON\AppData\Local\Temp/ccHeKD2g.s:6238   .text:00001db4 Timebase_DownCounter_SS_Set_Period_Value_Securely
C:\Users\WALTON\AppData\Local\Temp/ccHeKD2g.s:6335   .text:00001e34 Timebase_DownCounter_SS_Get_Remaining_Period_Value
C:\Users\WALTON\AppData\Local\Temp/ccHeKD2g.s:6397   .text:00001e88 Timebase_DownCounter_SS_Period_Value_Expired
C:\Users\WALTON\AppData\Local\Temp/ccHeKD2g.s:6494   .text:00001f0e Timebase_DownCounter_SS_Period_Value_Expired_Event
C:\Users\WALTON\AppData\Local\Temp/ccHeKD2g.s:6546   .text:00001f4e Timebase_DownCounter_SS_Update_All
C:\Users\WALTON\AppData\Local\Temp/ccHeKD2g.s:6563   .text:00001f56 Timebase_DownCounter_SS_Reset_All
C:\Users\WALTON\AppData\Local\Temp/ccHeKD2g.s:6627   .text:00001f86 Timebase_DownCounter_Get_Status
C:\Users\WALTON\AppData\Local\Temp/ccHeKD2g.s:6663   .text:00001fb4 Timebase_DownCounter_Set_Status
C:\Users\WALTON\AppData\Local\Temp/ccHeKD2g.s:6703   .text:00001fe8 Timebase_DownCounter_Get_Value
C:\Users\WALTON\AppData\Local\Temp/ccHeKD2g.s:6741   .text:00002018 Timebase_DownCounter_Set_Value
C:\Users\WALTON\AppData\Local\Temp/ccHeKD2g.s:6778   .text:00002048 Timebase_DownCounter_Get_EndValue
C:\Users\WALTON\AppData\Local\Temp/ccHeKD2g.s:6816   .text:00002078 Timebase_DownCounter_Set_EndValue
C:\Users\WALTON\AppData\Local\Temp/ccHeKD2g.s:6853   .text:000020a8 Timebase_DownCounter_Get_PeriodValue
C:\Users\WALTON\AppData\Local\Temp/ccHeKD2g.s:6891   .text:000020d8 Timebase_DownCounter_Set_PeriodValue
C:\Users\WALTON\AppData\Local\Temp/ccHeKD2g.s:6953   .text:00002134 Timebase_DownCounter_Get_Period_Flag
C:\Users\WALTON\AppData\Local\Temp/ccHeKD2g.s:6988   .text:00002160 Timebase_DownCounter_Set_Period_Flag
C:\Users\WALTON\AppData\Local\Temp/ccHeKD2g.s:7024   .text:0000218e Timebase_DownCounter_Clear_Period_Flag
C:\Users\WALTON\AppData\Local\Temp/ccHeKD2g.s:7060   .text:000021bc Timebase_DownCounter_Reset
C:\Users\WALTON\AppData\Local\Temp/ccHeKD2g.s:7123   .text:000021fc Timebase_DownCounter_Clear_All_Flags
C:\Users\WALTON\AppData\Local\Temp/ccHeKD2g.s:7190   .text:0000223c Timebase_DownCounter_Start
C:\Users\WALTON\AppData\Local\Temp/ccHeKD2g.s:7240   .text:00002276 Timebase_DownCounter_Stop
C:\Users\WALTON\AppData\Local\Temp/ccHeKD2g.s:7290   .text:000022b0 Timebase_DownCounter_Set_Securely
C:\Users\WALTON\AppData\Local\Temp/ccHeKD2g.s:7390   .text:00002322 Timebase_DownCounter_Set_Forcefully
C:\Users\WALTON\AppData\Local\Temp/ccHeKD2g.s:7464   .text:00002370 Timebase_DownCounter_Update
C:\Users\WALTON\AppData\Local\Temp/ccHeKD2g.s:7631   .text:0000243a Timebase_DownCounter_Expired
C:\Users\WALTON\AppData\Local\Temp/ccHeKD2g.s:7673   .text:00002472 Timebase_DownCounter_Expired_Event
C:\Users\WALTON\AppData\Local\Temp/ccHeKD2g.s:7760   .text:000024c6 Timebase_DownCounter_Set_Period_Value_Securely
C:\Users\WALTON\AppData\Local\Temp/ccHeKD2g.s:7859   .text:0000254a Timebase_DownCounter_Get_Remaining_Period_Value
C:\Users\WALTON\AppData\Local\Temp/ccHeKD2g.s:7923   .text:000025a2 Timebase_DownCounter_Period_Value_Expired
C:\Users\WALTON\AppData\Local\Temp/ccHeKD2g.s:8023   .text:0000262e Timebase_DownCounter_Period_Value_Expired_Event
C:\Users\WALTON\AppData\Local\Temp/ccHeKD2g.s:8077   .text:00002672 Timebase_DownCounter_Update_All
C:\Users\WALTON\AppData\Local\Temp/ccHeKD2g.s:8094   .text:0000267a Timebase_DownCounter_Reset_All
C:\Users\WALTON\AppData\Local\Temp/ccHeKD2g.s:8148   .text:000026a0 Timebase_Reset
C:\Users\WALTON\AppData\Local\Temp/ccHeKD2g.s:8166   .text:000026ae Timebase_Init
C:\Users\WALTON\AppData\Local\Temp/ccHeKD2g.s:8193   .text:000026c8 Timebase_Main_Loop_Executables
C:\Users\WALTON\AppData\Local\Temp/ccHeKD2g.s:8275   .text:00002760 Timebase_ISR_Executables
C:\Users\WALTON\AppData\Local\Temp/ccHeKD2g.s:8333   .text:000027b4 __vector_16

UNDEFINED SYMBOLS
__divmodsi4
__mulsi3
__do_copy_data
__do_clear_bss
