   1               		.file	"timebase.c"
   2               	__SREG__ = 0x3f
   3               	__SP_H__ = 0x3e
   4               	__SP_L__ = 0x3d
   5               	__CCP__  = 0x34
   6               	__tmp_reg__ = 0
   7               	__zero_reg__ = 1
  15               	.Ltext0:
  16               	.global	Timebase_Struct_Init
  18               	Timebase_Struct_Init:
  19               	.LFB6:
  20               	.LM1:
  21               	/* prologue: function */
  22               	/* frame size = 0 */
  23               	.LM2:
  24 0000 80E0      		ldi r24,lo8(Timebase_type)
  25 0002 90E0      		ldi r25,hi8(Timebase_type)
  26 0004 9093 0000 		sts (Timebase)+1,r25
  27 0008 8093 0000 		sts Timebase,r24
  28               	.LM3:
  29 000c 1092 0000 		sts Timebase_type,__zero_reg__
  30               	.LM4:
  31 0010 8091 0000 		lds r24,Timebase_type
  32 0014 8460      		ori r24,lo8(4)
  33 0016 8093 0000 		sts Timebase_type,r24
  34               	.LM5:
  35 001a 8091 0000 		lds r24,Timebase_type
  36 001e 8770      		andi r24,lo8(7)
  37 0020 8093 0000 		sts Timebase_type,r24
  38               	.LM6:
  39 0024 81E0      		ldi r24,lo8(1)
  40 0026 90E0      		ldi r25,hi8(1)
  41 0028 9093 0000 		sts (Timebase_type+1)+1,r25
  42 002c 8093 0000 		sts Timebase_type+1,r24
  43               	.LM7:
  44 0030 1092 0000 		sts Timebase_type+3,__zero_reg__
  45               	.LM8:
  46 0034 1092 0000 		sts (Timebase_type+8)+1,__zero_reg__
  47 0038 1092 0000 		sts Timebase_type+8,__zero_reg__
  48               	.LM9:
  49 003c 1092 0000 		sts Timebase_type+10,__zero_reg__
  50 0040 1092 0000 		sts (Timebase_type+10)+1,__zero_reg__
  51 0044 1092 0000 		sts (Timebase_type+10)+2,__zero_reg__
  52 0048 1092 0000 		sts (Timebase_type+10)+3,__zero_reg__
  53               	.LM10:
  54 004c 1092 0000 		sts Timebase_type+4,__zero_reg__
  55 0050 1092 0000 		sts (Timebase_type+4)+1,__zero_reg__
  56 0054 1092 0000 		sts (Timebase_type+4)+2,__zero_reg__
  57 0058 1092 0000 		sts (Timebase_type+4)+3,__zero_reg__
  58               	.LM11:
  59 005c 1092 0000 		sts Timebase_type+14,__zero_reg__
  60 0060 1092 0000 		sts (Timebase_type+14)+1,__zero_reg__
  61 0064 1092 0000 		sts (Timebase_type+14)+2,__zero_reg__
  62 0068 1092 0000 		sts (Timebase_type+14)+3,__zero_reg__
  63               	.LM12:
  64 006c 1092 0000 		sts Timebase_type+18,__zero_reg__
  65 0070 1092 0000 		sts (Timebase_type+18)+1,__zero_reg__
  66 0074 1092 0000 		sts (Timebase_type+18)+2,__zero_reg__
  67 0078 1092 0000 		sts (Timebase_type+18)+3,__zero_reg__
  68               	.LM13:
  69 007c 1092 0000 		sts Timebase_type+22,__zero_reg__
  70               	.LM14:
  71 0080 1092 0000 		sts Timebase_type+23,__zero_reg__
  72               	.LM15:
  73 0084 1092 0000 		sts Timebase_type+24,__zero_reg__
  74               	.LBB662:
  75               	.LM16:
  76 0088 1092 0000 		sts Timebase_type+50,__zero_reg__
  77               	.LM17:
  78 008c 1092 0000 		sts Timebase_type+51,__zero_reg__
  79 0090 1092 0000 		sts (Timebase_type+51)+1,__zero_reg__
  80 0094 1092 0000 		sts (Timebase_type+51)+2,__zero_reg__
  81 0098 1092 0000 		sts (Timebase_type+51)+3,__zero_reg__
  82               	.LM18:
  83 009c 1092 0000 		sts Timebase_type+55,__zero_reg__
  84 00a0 1092 0000 		sts (Timebase_type+55)+1,__zero_reg__
  85 00a4 1092 0000 		sts (Timebase_type+55)+2,__zero_reg__
  86 00a8 1092 0000 		sts (Timebase_type+55)+3,__zero_reg__
  87               	.LM19:
  88 00ac 1092 0000 		sts Timebase_type+59,__zero_reg__
  89 00b0 1092 0000 		sts (Timebase_type+59)+1,__zero_reg__
  90 00b4 1092 0000 		sts (Timebase_type+59)+2,__zero_reg__
  91 00b8 1092 0000 		sts (Timebase_type+59)+3,__zero_reg__
  92               	.LM20:
  93 00bc 1092 0000 		sts Timebase_type+63,__zero_reg__
  94 00c0 1092 0000 		sts (Timebase_type+63)+1,__zero_reg__
  95 00c4 1092 0000 		sts (Timebase_type+63)+2,__zero_reg__
  96 00c8 1092 0000 		sts (Timebase_type+63)+3,__zero_reg__
  97               	.LM21:
  98 00cc 1092 0000 		sts Timebase_type+67,__zero_reg__
  99 00d0 1092 0000 		sts (Timebase_type+67)+1,__zero_reg__
 100 00d4 1092 0000 		sts (Timebase_type+67)+2,__zero_reg__
 101 00d8 1092 0000 		sts (Timebase_type+67)+3,__zero_reg__
 102               	.LBE662:
 103               	.LBB663:
 104               	.LM22:
 105 00dc 1092 0000 		sts Timebase_type+25,__zero_reg__
 106               	.LM23:
 107 00e0 1092 0000 		sts Timebase_type+26,__zero_reg__
 108 00e4 1092 0000 		sts (Timebase_type+26)+1,__zero_reg__
 109 00e8 1092 0000 		sts (Timebase_type+26)+2,__zero_reg__
 110 00ec 1092 0000 		sts (Timebase_type+26)+3,__zero_reg__
 111               	.LM24:
 112 00f0 1092 0000 		sts Timebase_type+30,__zero_reg__
 113 00f4 1092 0000 		sts (Timebase_type+30)+1,__zero_reg__
 114 00f8 1092 0000 		sts (Timebase_type+30)+2,__zero_reg__
 115 00fc 1092 0000 		sts (Timebase_type+30)+3,__zero_reg__
 116               	.LM25:
 117 0100 1092 0000 		sts Timebase_type+34,__zero_reg__
 118 0104 1092 0000 		sts (Timebase_type+34)+1,__zero_reg__
 119 0108 1092 0000 		sts (Timebase_type+34)+2,__zero_reg__
 120 010c 1092 0000 		sts (Timebase_type+34)+3,__zero_reg__
 121               	.LM26:
 122 0110 1092 0000 		sts Timebase_type+38,__zero_reg__
 123 0114 1092 0000 		sts (Timebase_type+38)+1,__zero_reg__
 124 0118 1092 0000 		sts (Timebase_type+38)+2,__zero_reg__
 125 011c 1092 0000 		sts (Timebase_type+38)+3,__zero_reg__
 126               	.LM27:
 127 0120 1092 0000 		sts Timebase_type+42,__zero_reg__
 128 0124 1092 0000 		sts (Timebase_type+42)+1,__zero_reg__
 129 0128 1092 0000 		sts (Timebase_type+42)+2,__zero_reg__
 130 012c 1092 0000 		sts (Timebase_type+42)+3,__zero_reg__
 131               	.LM28:
 132 0130 1092 0000 		sts Timebase_type+46,__zero_reg__
 133 0134 1092 0000 		sts (Timebase_type+46)+1,__zero_reg__
 134 0138 1092 0000 		sts (Timebase_type+46)+2,__zero_reg__
 135 013c 1092 0000 		sts (Timebase_type+46)+3,__zero_reg__
 136               	.LBE663:
 137               	.LBB664:
 138               	.LM29:
 139 0140 1092 0000 		sts Timebase_type+88,__zero_reg__
 140               	.LM30:
 141 0144 1092 0000 		sts Timebase_type+89,__zero_reg__
 142 0148 1092 0000 		sts (Timebase_type+89)+1,__zero_reg__
 143 014c 1092 0000 		sts (Timebase_type+89)+2,__zero_reg__
 144 0150 1092 0000 		sts (Timebase_type+89)+3,__zero_reg__
 145               	.LM31:
 146 0154 1092 0000 		sts Timebase_type+93,__zero_reg__
 147 0158 1092 0000 		sts (Timebase_type+93)+1,__zero_reg__
 148 015c 1092 0000 		sts (Timebase_type+93)+2,__zero_reg__
 149 0160 1092 0000 		sts (Timebase_type+93)+3,__zero_reg__
 150               	.LM32:
 151 0164 1092 0000 		sts Timebase_type+97,__zero_reg__
 152 0168 1092 0000 		sts (Timebase_type+97)+1,__zero_reg__
 153 016c 1092 0000 		sts (Timebase_type+97)+2,__zero_reg__
 154 0170 1092 0000 		sts (Timebase_type+97)+3,__zero_reg__
 155               	.LBE664:
 156               	.LBB665:
 157               	.LM33:
 158 0174 1092 0000 		sts Timebase_type+71,__zero_reg__
 159               	.LM34:
 160 0178 1092 0000 		sts Timebase_type+72,__zero_reg__
 161 017c 1092 0000 		sts (Timebase_type+72)+1,__zero_reg__
 162 0180 1092 0000 		sts (Timebase_type+72)+2,__zero_reg__
 163 0184 1092 0000 		sts (Timebase_type+72)+3,__zero_reg__
 164               	.LM35:
 165 0188 1092 0000 		sts Timebase_type+76,__zero_reg__
 166 018c 1092 0000 		sts (Timebase_type+76)+1,__zero_reg__
 167 0190 1092 0000 		sts (Timebase_type+76)+2,__zero_reg__
 168 0194 1092 0000 		sts (Timebase_type+76)+3,__zero_reg__
 169               	.LM36:
 170 0198 1092 0000 		sts Timebase_type+80,__zero_reg__
 171 019c 1092 0000 		sts (Timebase_type+80)+1,__zero_reg__
 172 01a0 1092 0000 		sts (Timebase_type+80)+2,__zero_reg__
 173 01a4 1092 0000 		sts (Timebase_type+80)+3,__zero_reg__
 174               	.LM37:
 175 01a8 1092 0000 		sts Timebase_type+84,__zero_reg__
 176 01ac 1092 0000 		sts (Timebase_type+84)+1,__zero_reg__
 177 01b0 1092 0000 		sts (Timebase_type+84)+2,__zero_reg__
 178 01b4 1092 0000 		sts (Timebase_type+84)+3,__zero_reg__
 179               	/* epilogue start */
 180               	.LBE665:
 181               	.LM38:
 182 01b8 0895      		ret
 183               	.LFE6:
 185               	.global	Timebase_Timer_Config
 187               	Timebase_Timer_Config:
 188               	.LFB7:
 189               	.LM39:
 190               	.LVL0:
 191 01ba 7F92      		push r7
 192 01bc 8F92      		push r8
 193 01be 9F92      		push r9
 194 01c0 AF92      		push r10
 195 01c2 BF92      		push r11
 196 01c4 CF92      		push r12
 197 01c6 DF92      		push r13
 198 01c8 EF92      		push r14
 199 01ca FF92      		push r15
 200 01cc 0F93      		push r16
 201 01ce 1F93      		push r17
 202 01d0 DF93      		push r29
 203 01d2 CF93      		push r28
 204 01d4 CDB7      		in r28,__SP_L__
 205 01d6 DEB7      		in r29,__SP_H__
 206 01d8 2A97      		sbiw r28,10
 207 01da 0FB6      		in __tmp_reg__,__SREG__
 208 01dc F894      		cli
 209 01de DEBF      		out __SP_H__,r29
 210 01e0 0FBE      		out __SREG__,__tmp_reg__
 211 01e2 CDBF      		out __SP_L__,r28
 212               	/* prologue: function */
 213               	/* frame size = 10 */
 214 01e4 8C01      		movw r16,r24
 215               	.LM40:
 216 01e6 C090 0000 		lds r12,Timebase
 217 01ea D090 0000 		lds r13,(Timebase)+1
 218 01ee F601      		movw r30,r12
 219 01f0 8081      		ld r24,Z
 220               	.LVL1:
 221 01f2 80FF      		sbrs r24,0
 222 01f4 00C0      		rjmp .L4
 223               	.LBB666:
 224               	.LM41:
 225 01f6 0130      		cpi r16,1
 226 01f8 1105      		cpc r17,__zero_reg__
 227 01fa 01F4      		brne .L5
 228 01fc 96E0      		ldi r25,lo8(6)
 229               	.LVL2:
 230 01fe 00C0      		rjmp .L6
 231               	.LVL3:
 232               	.L5:
 233               	.LM42:
 234 0200 0230      		cpi r16,2
 235 0202 1105      		cpc r17,__zero_reg__
 236 0204 01F4      		brne .L7
 237 0206 95E0      		ldi r25,lo8(5)
 238               	.LVL4:
 239 0208 00C0      		rjmp .L6
 240               	.LVL5:
 241               	.L7:
 242               	.LM43:
 243 020a 0430      		cpi r16,4
 244 020c 1105      		cpc r17,__zero_reg__
 245 020e 01F4      		brne .L8
 246 0210 94E0      		ldi r25,lo8(4)
 247               	.LVL6:
 248 0212 00C0      		rjmp .L6
 249               	.LVL7:
 250               	.L8:
 251               	.LM44:
 252 0214 0830      		cpi r16,8
 253 0216 1105      		cpc r17,__zero_reg__
 254 0218 01F4      		brne .L9
 255 021a 93E0      		ldi r25,lo8(3)
 256               	.LVL8:
 257 021c 00C0      		rjmp .L6
 258               	.LVL9:
 259               	.L9:
 260               	.LM45:
 261 021e 0031      		cpi r16,16
 262 0220 1105      		cpc r17,__zero_reg__
 263 0222 01F4      		brne .L10
 264 0224 92E0      		ldi r25,lo8(2)
 265               	.LVL10:
 266 0226 00C0      		rjmp .L6
 267               	.LVL11:
 268               	.L10:
 269 0228 90E0      		ldi r25,lo8(0)
 270               	.LVL12:
 271 022a 0032      		cpi r16,32
 272 022c 1105      		cpc r17,__zero_reg__
 273 022e 01F4      		brne .L6
 274 0230 91E0      		ldi r25,lo8(1)
 275               	.L6:
 276               	.LM46:
 277               	/* #APP */
 278               	 ;  268 "timebase.c" 1
 279 0232 F894      		cli
 280               	 ;  0 "" 2
 281               	.LM47:
 282               	/* #NOAPP */
 283 0234 84B7      		in r24,84-32
 284 0236 877F      		andi r24,lo8(-9)
 285 0238 84BF      		out 84-32,r24
 286               	.LM48:
 287 023a 8091 6000 		lds r24,96
 288 023e 8068      		ori r24,lo8(-128)
 289 0240 8093 6000 		sts 96,r24
 290               	.LM49:
 291 0244 8091 6000 		lds r24,96
 292 0248 8861      		ori r24,lo8(24)
 293 024a 8093 6000 		sts 96,r24
 294               	.LM50:
 295 024e 9064      		ori r25,lo8(64)
 296 0250 9093 6000 		sts 96,r25
 297               	.LM51:
 298               	/* #APP */
 299               	 ;  273 "timebase.c" 1
 300 0254 7894      		sei
 301               	 ;  0 "" 2
 302               	/* #NOAPP */
 303 0256 00C0      		rjmp .L12
 304               	.LVL13:
 305               	.L4:
 306               	.LBE666:
 307               	.LM52:
 308 0258 81FD      		sbrc r24,1
 309 025a 00C0      		rjmp .L12
 310               	.LM53:
 311 025c 82FF      		sbrs r24,2
 312 025e 00C0      		rjmp .L12
 313               	.LBB667:
 314               	.LM54:
 315 0260 DE01      		movw r26,r28
 316 0262 1196      		adiw r26,1
 317 0264 E0E0      		ldi r30,lo8(C.2.1694)
 318 0266 F0E0      		ldi r31,hi8(C.2.1694)
 319 0268 8AE0      		ldi r24,lo8(10)
 320               	.L13:
 321 026a 0190      		ld r0,Z+
 322 026c 0D92      		st X+,r0
 323 026e 8150      		subi r24,lo8(-(-1))
 324 0270 01F4      		brne .L13
 325               	.LM55:
 326 0272 9801      		movw r18,r16
 327 0274 40E0      		ldi r20,lo8(0)
 328 0276 50E0      		ldi r21,hi8(0)
 329               	.LVL14:
 330 0278 60E0      		ldi r22,lo8(12000000)
 331 027a 7BE1      		ldi r23,hi8(12000000)
 332 027c 87EB      		ldi r24,hlo8(12000000)
 333 027e 90E0      		ldi r25,hhi8(12000000)
 334 0280 0E94 0000 		call __divmodsi4
 335 0284 722E      		mov r7,r18
 336 0286 832E      		mov r8,r19
 337 0288 942E      		mov r9,r20
 338               	.LVL15:
 339 028a E52E      		mov r14,r21
 340 028c 5E01      		movw r10,r28
 341 028e 0894      		sec
 342 0290 A11C      		adc r10,__zero_reg__
 343 0292 B11C      		adc r11,__zero_reg__
 344 0294 C901      		movw r24,r18
 345 0296 DA01      		movw r26,r20
 346 0298 9C01      		movw r18,r24
 347 029a AD01      		movw r20,r26
 348               	.LVL16:
 349 029c FF24      		clr r15
 350               	.LVL17:
 351 029e 00C0      		rjmp .L14
 352               	.LVL18:
 353               	.L16:
 354               	.LM56:
 355 02a0 F501      		movw r30,r10
 356 02a2 2191      		ld r18,Z+
 357 02a4 3191      		ld r19,Z+
 358               	.LVL19:
 359 02a6 5F01      		movw r10,r30
 360 02a8 40E0      		ldi r20,lo8(0)
 361 02aa 50E0      		ldi r21,hi8(0)
 362 02ac 672D      		mov r22,r7
 363 02ae 782D      		mov r23,r8
 364 02b0 892D      		mov r24,r9
 365               	.LVL20:
 366 02b2 9E2D      		mov r25,r14
 367 02b4 0E94 0000 		call __divmodsi4
 368 02b8 C901      		movw r24,r18
 369 02ba DA01      		movw r26,r20
 370 02bc 9C01      		movw r18,r24
 371 02be AD01      		movw r20,r26
 372               	.LVL21:
 373               	.LM57:
 374 02c0 F394      		inc r15
 375               	.LM58:
 376 02c2 F5E0      		ldi r31,lo8(5)
 377 02c4 FF16      		cp r15,r31
 378 02c6 01F0      		breq .L15
 379               	.LVL22:
 380               	.L14:
 381               	.LM59:
 382 02c8 2F3F      		cpi r18,lo8(255)
 383 02ca 3105      		cpc r19,__zero_reg__
 384 02cc 4105      		cpc r20,__zero_reg__
 385 02ce 5105      		cpc r21,__zero_reg__
 386 02d0 01F0      		breq .+2
 387 02d2 04F4      		brge .L16
 388               	.L15:
 389               	.LM60:
 390 02d4 8F2D      		mov r24,r15
 391 02d6 8150      		subi r24,lo8(-(-1))
 392               	.LVL23:
 393               	.LM61:
 394 02d8 14BC      		out 68-32,__zero_reg__
 395               	.LM62:
 396 02da 15BC      		out 69-32,__zero_reg__
 397               	.LM63:
 398 02dc 1092 6E00 		sts 110,__zero_reg__
 399               	.LM64:
 400 02e0 15BA      		out 53-32,__zero_reg__
 401               	.LM65:
 402 02e2 17BC      		out 71-32,__zero_reg__
 403               	.LM66:
 404 02e4 18BC      		out 72-32,__zero_reg__
 405               	.LM67:
 406 02e6 16BC      		out 70-32,__zero_reg__
 407               	.LM68:
 408 02e8 17BC      		out 71-32,__zero_reg__
 409               	.LM69:
 410 02ea 8823      		tst r24
 411 02ec 01F4      		brne .L17
 412               	.LM70:
 413 02ee 81E0      		ldi r24,lo8(1)
 414               	.LVL24:
 415 02f0 00C0      		rjmp .L24
 416               	.LVL25:
 417               	.L17:
 418               	.LM71:
 419 02f2 8130      		cpi r24,lo8(1)
 420 02f4 01F4      		brne .L19
 421               	.LM72:
 422 02f6 82E0      		ldi r24,lo8(2)
 423               	.LVL26:
 424 02f8 00C0      		rjmp .L24
 425               	.LVL27:
 426               	.L19:
 427               	.LM73:
 428 02fa 8230      		cpi r24,lo8(2)
 429 02fc 01F4      		brne .L20
 430               	.LM74:
 431 02fe 83E0      		ldi r24,lo8(3)
 432               	.LVL28:
 433 0300 00C0      		rjmp .L24
 434               	.LVL29:
 435               	.L20:
 436               	.LM75:
 437 0302 8330      		cpi r24,lo8(3)
 438 0304 01F4      		brne .L21
 439               	.LM76:
 440 0306 84E0      		ldi r24,lo8(4)
 441               	.LVL30:
 442 0308 00C0      		rjmp .L24
 443               	.LVL31:
 444               	.L21:
 445               	.LM77:
 446 030a 8430      		cpi r24,lo8(4)
 447 030c 01F4      		brne .L18
 448               	.LM78:
 449 030e 85E0      		ldi r24,lo8(5)
 450               	.LVL32:
 451               	.L24:
 452 0310 85BD      		out 69-32,r24
 453               	.LVL33:
 454               	.L18:
 455               	.LM79:
 456 0312 822F      		mov r24,r18
 457               	.LVL34:
 458 0314 8095      		com r24
 459 0316 F601      		movw r30,r12
 460 0318 8383      		std Z+3,r24
 461               	.LM80:
 462 031a 8381      		ldd r24,Z+3
 463 031c 86BD      		out 70-32,r24
 464               	.LM81:
 465 031e 81E0      		ldi r24,lo8(1)
 466 0320 8093 6E00 		sts 110,r24
 467               	.LM82:
 468               	/* #APP */
 469               	 ;  321 "timebase.c" 1
 470 0324 7894      		sei
 471               	 ;  0 "" 2
 472               	.LVL35:
 473               	/* #NOAPP */
 474               	.L12:
 475               	.LBE667:
 476               	.LM83:
 477 0326 F601      		movw r30,r12
 478 0328 1283      		std Z+2,r17
 479 032a 0183      		std Z+1,r16
 480               	/* epilogue start */
 481               	.LM84:
 482 032c 2A96      		adiw r28,10
 483 032e 0FB6      		in __tmp_reg__,__SREG__
 484 0330 F894      		cli
 485 0332 DEBF      		out __SP_H__,r29
 486 0334 0FBE      		out __SREG__,__tmp_reg__
 487 0336 CDBF      		out __SP_L__,r28
 488 0338 CF91      		pop r28
 489 033a DF91      		pop r29
 490 033c 1F91      		pop r17
 491 033e 0F91      		pop r16
 492               	.LVL36:
 493 0340 FF90      		pop r15
 494 0342 EF90      		pop r14
 495 0344 DF90      		pop r13
 496 0346 CF90      		pop r12
 497 0348 BF90      		pop r11
 498 034a AF90      		pop r10
 499 034c 9F90      		pop r9
 500 034e 8F90      		pop r8
 501 0350 7F90      		pop r7
 502 0352 0895      		ret
 503               	.LFE7:
 505               	.global	Timebase_Atomic_Operation_Start
 507               	Timebase_Atomic_Operation_Start:
 508               	.LFB8:
 509               	.LM85:
 510               	/* prologue: function */
 511               	/* frame size = 0 */
 512               	.LM86:
 513               	/* #APP */
 514               	 ;  341 "timebase.c" 1
 515 0354 F894      		cli
 516               	 ;  0 "" 2
 517               	/* epilogue start */
 518               	.LM87:
 519               	/* #NOAPP */
 520 0356 0895      		ret
 521               	.LFE8:
 523               	.global	Timebase_Atomic_Operation_End
 525               	Timebase_Atomic_Operation_End:
 526               	.LFB9:
 527               	.LM88:
 528               	/* prologue: function */
 529               	/* frame size = 0 */
 530               	.LM89:
 531               	/* #APP */
 532               	 ;  345 "timebase.c" 1
 533 0358 7894      		sei
 534               	 ;  0 "" 2
 535               	/* epilogue start */
 536               	.LM90:
 537               	/* #NOAPP */
 538 035a 0895      		ret
 539               	.LFE9:
 541               	.global	Timebase_Token_Executing
 543               	Timebase_Token_Executing:
 544               	.LFB10:
 545               	.LM91:
 546               	/* prologue: function */
 547               	/* frame size = 0 */
 548               	.LM92:
 549 035c E091 0000 		lds r30,Timebase
 550 0360 F091 0000 		lds r31,(Timebase)+1
 551 0364 808D      		ldd r24,Z+24
 552               	/* epilogue start */
 553               	.LM93:
 554 0366 0895      		ret
 555               	.LFE10:
 557               	.global	Timebase_Token_Add
 559               	Timebase_Token_Add:
 560               	.LFB11:
 561               	.LM94:
 562               	/* prologue: function */
 563               	/* frame size = 0 */
 564               	.LBB668:
 565               	.LBB669:
 566               	.LM95:
 567 0368 E091 0000 		lds r30,Timebase
 568 036c F091 0000 		lds r31,(Timebase)+1
 569 0370 808D      		ldd r24,Z+24
 570               	.LBE669:
 571               	.LBE668:
 572               	.LM96:
 573 0372 8F33      		cpi r24,lo8(63)
 574 0374 00F4      		brsh .L33
 575               	.LM97:
 576 0376 808D      		ldd r24,Z+24
 577 0378 8F5F      		subi r24,lo8(-(1))
 578 037a 808F      		std Z+24,r24
 579               	.L33:
 580 037c 0895      		ret
 581               	.LFE11:
 583               	.global	Timebase_Token_Remove
 585               	Timebase_Token_Remove:
 586               	.LFB12:
 587               	.LM98:
 588               	/* prologue: function */
 589               	/* frame size = 0 */
 590               	.LBB670:
 591               	.LBB671:
 592               	.LM99:
 593 037e E091 0000 		lds r30,Timebase
 594 0382 F091 0000 		lds r31,(Timebase)+1
 595 0386 808D      		ldd r24,Z+24
 596               	.LBE671:
 597               	.LBE670:
 598               	.LM100:
 599 0388 8823      		tst r24
 600 038a 01F0      		breq .L36
 601               	.LM101:
 602 038c 808D      		ldd r24,Z+24
 603 038e 8150      		subi r24,lo8(-(-1))
 604 0390 808F      		std Z+24,r24
 605               	.L36:
 606 0392 0895      		ret
 607               	.LFE12:
 609               	.global	Timebase_Token_Remove_All
 611               	Timebase_Token_Remove_All:
 612               	.LFB13:
 613               	.LM102:
 614               	/* prologue: function */
 615               	/* frame size = 0 */
 616               	.LM103:
 617 0394 E091 0000 		lds r30,Timebase
 618 0398 F091 0000 		lds r31,(Timebase)+1
 619 039c 108E      		std Z+24,__zero_reg__
 620               	/* epilogue start */
 621               	.LM104:
 622 039e 0895      		ret
 623               	.LFE13:
 625               	.global	Timebase_Timer_Get_SubSeconds
 627               	Timebase_Timer_Get_SubSeconds:
 628               	.LFB14:
 629               	.LM105:
 630               	/* prologue: function */
 631               	/* frame size = 0 */
 632               	.LBB672:
 633               	.LBB673:
 634               	.LM106:
 635               	/* #APP */
 636               	 ;  341 "timebase.c" 1
 637 03a0 F894      		cli
 638               	 ;  0 "" 2
 639               	/* #NOAPP */
 640               	.LBE673:
 641               	.LBE672:
 642               	.LM107:
 643 03a2 E091 0000 		lds r30,Timebase
 644 03a6 F091 0000 		lds r31,(Timebase)+1
 645 03aa 2085      		ldd r18,Z+8
 646 03ac 3185      		ldd r19,Z+9
 647               	.LVL37:
 648               	.LBB674:
 649               	.LBB675:
 650               	.LM108:
 651               	/* #APP */
 652               	 ;  345 "timebase.c" 1
 653 03ae 7894      		sei
 654               	 ;  0 "" 2
 655               	/* #NOAPP */
 656               	.LBE675:
 657               	.LBE674:
 658               	.LM109:
 659 03b0 C901      		movw r24,r18
 660               	.LVL38:
 661               	/* epilogue start */
 662 03b2 0895      		ret
 663               	.LFE14:
 665               	.global	Timebase_Timer_Get_Seconds
 667               	Timebase_Timer_Get_Seconds:
 668               	.LFB15:
 669               	.LM110:
 670               	/* prologue: function */
 671               	/* frame size = 0 */
 672               	.LBB676:
 673               	.LBB677:
 674               	.LM111:
 675               	/* #APP */
 676               	 ;  341 "timebase.c" 1
 677 03b4 F894      		cli
 678               	 ;  0 "" 2
 679               	/* #NOAPP */
 680               	.LBE677:
 681               	.LBE676:
 682               	.LM112:
 683 03b6 E091 0000 		lds r30,Timebase
 684 03ba F091 0000 		lds r31,(Timebase)+1
 685 03be 2285      		ldd r18,Z+10
 686 03c0 3385      		ldd r19,Z+11
 687 03c2 4485      		ldd r20,Z+12
 688 03c4 5585      		ldd r21,Z+13
 689               	.LVL39:
 690               	.LBB678:
 691               	.LBB679:
 692               	.LM113:
 693               	/* #APP */
 694               	 ;  345 "timebase.c" 1
 695 03c6 7894      		sei
 696               	 ;  0 "" 2
 697               	/* #NOAPP */
 698               	.LBE679:
 699               	.LBE678:
 700               	.LM114:
 701 03c8 B901      		movw r22,r18
 702               	.LVL40:
 703 03ca CA01      		movw r24,r20
 704               	/* epilogue start */
 705 03cc 0895      		ret
 706               	.LFE15:
 708               	.global	Timebase_Timer_Set_SubSeconds
 710               	Timebase_Timer_Set_SubSeconds:
 711               	.LFB16:
 712               	.LM115:
 713               	.LVL41:
 714               	/* prologue: function */
 715               	/* frame size = 0 */
 716               	.LBB680:
 717               	.LBB681:
 718               	.LM116:
 719               	/* #APP */
 720               	 ;  341 "timebase.c" 1
 721 03ce F894      		cli
 722               	 ;  0 "" 2
 723               	/* #NOAPP */
 724               	.LBE681:
 725               	.LBE680:
 726               	.LM117:
 727 03d0 E091 0000 		lds r30,Timebase
 728 03d4 F091 0000 		lds r31,(Timebase)+1
 729 03d8 9187      		std Z+9,r25
 730 03da 8087      		std Z+8,r24
 731               	.LBB682:
 732               	.LBB683:
 733               	.LM118:
 734               	/* #APP */
 735               	 ;  345 "timebase.c" 1
 736 03dc 7894      		sei
 737               	 ;  0 "" 2
 738               	/* epilogue start */
 739               	/* #NOAPP */
 740               	.LBE683:
 741               	.LBE682:
 742               	.LM119:
 743 03de 0895      		ret
 744               	.LFE16:
 746               	.global	Timebase_Timer_Set_Seconds
 748               	Timebase_Timer_Set_Seconds:
 749               	.LFB17:
 750               	.LM120:
 751               	.LVL42:
 752               	/* prologue: function */
 753               	/* frame size = 0 */
 754               	.LBB684:
 755               	.LBB685:
 756               	.LM121:
 757               	/* #APP */
 758               	 ;  341 "timebase.c" 1
 759 03e0 F894      		cli
 760               	 ;  0 "" 2
 761               	/* #NOAPP */
 762               	.LBE685:
 763               	.LBE684:
 764               	.LM122:
 765 03e2 E091 0000 		lds r30,Timebase
 766 03e6 F091 0000 		lds r31,(Timebase)+1
 767 03ea 6287      		std Z+10,r22
 768 03ec 7387      		std Z+11,r23
 769 03ee 8487      		std Z+12,r24
 770 03f0 9587      		std Z+13,r25
 771               	.LBB686:
 772               	.LBB687:
 773               	.LM123:
 774               	/* #APP */
 775               	 ;  345 "timebase.c" 1
 776 03f2 7894      		sei
 777               	 ;  0 "" 2
 778               	/* epilogue start */
 779               	/* #NOAPP */
 780               	.LBE687:
 781               	.LBE686:
 782               	.LM124:
 783 03f4 0895      		ret
 784               	.LFE17:
 786               	.global	Timebase_Timer_Delay_SubSeconds
 788               	Timebase_Timer_Delay_SubSeconds:
 789               	.LFB18:
 790               	.LM125:
 791               	.LVL43:
 792 03f6 6F92      		push r6
 793 03f8 7F92      		push r7
 794 03fa 8F92      		push r8
 795 03fc 9F92      		push r9
 796 03fe AF92      		push r10
 797 0400 BF92      		push r11
 798 0402 CF92      		push r12
 799 0404 DF92      		push r13
 800 0406 EF92      		push r14
 801 0408 FF92      		push r15
 802 040a 0F93      		push r16
 803 040c 1F93      		push r17
 804 040e CF93      		push r28
 805 0410 DF93      		push r29
 806               	/* prologue: function */
 807               	/* frame size = 0 */
 808 0412 5C01      		movw r10,r24
 809               	.LBB688:
 810               	.LBB689:
 811               	.LBB690:
 812               	.LBB691:
 813               	.LM126:
 814               	/* #APP */
 815               	 ;  341 "timebase.c" 1
 816 0414 F894      		cli
 817               	 ;  0 "" 2
 818               	/* #NOAPP */
 819               	.LBE691:
 820               	.LBE690:
 821               	.LM127:
 822 0416 C091 0000 		lds r28,Timebase
 823 041a D091 0000 		lds r29,(Timebase)+1
 824 041e E884      		ldd r14,Y+8
 825 0420 F984      		ldd r15,Y+9
 826               	.LVL44:
 827               	.LBB692:
 828               	.LBB693:
 829               	.LM128:
 830               	/* #APP */
 831               	 ;  345 "timebase.c" 1
 832 0422 7894      		sei
 833               	 ;  0 "" 2
 834               	/* #NOAPP */
 835               	.LBE693:
 836               	.LBE692:
 837               	.LBE689:
 838               	.LBE688:
 839               	.LBB694:
 840               	.LBB695:
 841               	.LBB696:
 842               	.LBB697:
 843               	.LM129:
 844               	/* #APP */
 845               	 ;  341 "timebase.c" 1
 846 0424 F894      		cli
 847               	 ;  0 "" 2
 848               	/* #NOAPP */
 849               	.LBE697:
 850               	.LBE696:
 851               	.LM130:
 852 0426 2A85      		ldd r18,Y+10
 853 0428 3B85      		ldd r19,Y+11
 854 042a 4C85      		ldd r20,Y+12
 855 042c 5D85      		ldd r21,Y+13
 856               	.LVL45:
 857               	.LBB698:
 858               	.LBB699:
 859               	.LM131:
 860               	/* #APP */
 861               	 ;  345 "timebase.c" 1
 862 042e 7894      		sei
 863               	 ;  0 "" 2
 864               	/* #NOAPP */
 865               	.LBE699:
 866               	.LBE698:
 867               	.LBE695:
 868               	.LBE694:
 869               	.LM132:
 870 0430 6981      		ldd r22,Y+1
 871 0432 7A81      		ldd r23,Y+2
 872 0434 80E0      		ldi r24,lo8(0)
 873 0436 90E0      		ldi r25,hi8(0)
 874               	.LVL46:
 875 0438 0E94 0000 		call __mulsi3
 876               	.LVL47:
 877 043c 3B01      		movw r6,r22
 878 043e 4C01      		movw r8,r24
 879               	.LVL48:
 880               	.LM133:
 881 0440 00E0      		ldi r16,lo8(0)
 882 0442 10E0      		ldi r17,hi8(0)
 883               	.LVL49:
 884 0444 6E0C      		add r6,r14
 885 0446 7F1C      		adc r7,r15
 886 0448 801E      		adc r8,r16
 887 044a 911E      		adc r9,r17
 888               	.LM134:
 889 044c CC24      		clr r12
 890 044e DD24      		clr r13
 891               	.LVL50:
 892 0450 6A0C      		add r6,r10
 893 0452 7B1C      		adc r7,r11
 894 0454 8C1C      		adc r8,r12
 895 0456 9D1C      		adc r9,r13
 896 0458 60E0      		ldi r22,lo8(0)
 897 045a 70E0      		ldi r23,hi8(0)
 898 045c 80E0      		ldi r24,hlo8(0)
 899 045e 90E0      		ldi r25,hhi8(0)
 900               	.LVL51:
 901 0460 00C0      		rjmp .L48
 902               	.LVL52:
 903               	.L49:
 904               	.LBB700:
 905               	.LBB701:
 906               	.LBB702:
 907               	.LBB703:
 908               	.LM135:
 909               	/* #APP */
 910               	 ;  341 "timebase.c" 1
 911 0462 F894      		cli
 912               	 ;  0 "" 2
 913               	/* #NOAPP */
 914               	.LBE703:
 915               	.LBE702:
 916               	.LM136:
 917 0464 E884      		ldd r14,Y+8
 918 0466 F984      		ldd r15,Y+9
 919               	.LVL53:
 920               	.LBB704:
 921               	.LBB705:
 922               	.LM137:
 923               	/* #APP */
 924               	 ;  345 "timebase.c" 1
 925 0468 7894      		sei
 926               	 ;  0 "" 2
 927               	/* #NOAPP */
 928               	.LBE705:
 929               	.LBE704:
 930               	.LBE701:
 931               	.LBE700:
 932               	.LBB706:
 933               	.LBB707:
 934               	.LBB708:
 935               	.LBB709:
 936               	.LM138:
 937               	/* #APP */
 938               	 ;  341 "timebase.c" 1
 939 046a F894      		cli
 940               	 ;  0 "" 2
 941               	/* #NOAPP */
 942               	.LBE709:
 943               	.LBE708:
 944               	.LM139:
 945 046c 2A85      		ldd r18,Y+10
 946 046e 3B85      		ldd r19,Y+11
 947 0470 4C85      		ldd r20,Y+12
 948 0472 5D85      		ldd r21,Y+13
 949               	.LVL54:
 950               	.LBB710:
 951               	.LBB711:
 952               	.LM140:
 953               	/* #APP */
 954               	 ;  345 "timebase.c" 1
 955 0474 7894      		sei
 956               	 ;  0 "" 2
 957               	/* #NOAPP */
 958               	.LBE711:
 959               	.LBE710:
 960               	.LBE707:
 961               	.LBE706:
 962               	.LM141:
 963 0476 6981      		ldd r22,Y+1
 964 0478 7A81      		ldd r23,Y+2
 965               	.LVL55:
 966 047a 80E0      		ldi r24,lo8(0)
 967 047c 90E0      		ldi r25,hi8(0)
 968 047e 0E94 0000 		call __mulsi3
 969               	.LVL56:
 970               	.LM142:
 971 0482 00E0      		ldi r16,lo8(0)
 972 0484 10E0      		ldi r17,hi8(0)
 973               	.LVL57:
 974 0486 6E0D      		add r22,r14
 975 0488 7F1D      		adc r23,r15
 976 048a 801F      		adc r24,r16
 977 048c 911F      		adc r25,r17
 978               	.LVL58:
 979               	.L48:
 980               	.LM143:
 981 048e 6615      		cp r22,r6
 982 0490 7705      		cpc r23,r7
 983 0492 8805      		cpc r24,r8
 984 0494 9905      		cpc r25,r9
 985 0496 04F0      		brlt .L49
 986               	/* epilogue start */
 987               	.LM144:
 988 0498 DF91      		pop r29
 989 049a CF91      		pop r28
 990 049c 1F91      		pop r17
 991 049e 0F91      		pop r16
 992               	.LVL59:
 993 04a0 FF90      		pop r15
 994 04a2 EF90      		pop r14
 995               	.LVL60:
 996 04a4 DF90      		pop r13
 997 04a6 CF90      		pop r12
 998               	.LVL61:
 999 04a8 BF90      		pop r11
 1000 04aa AF90      		pop r10
 1001               	.LVL62:
 1002 04ac 9F90      		pop r9
 1003 04ae 8F90      		pop r8
 1004 04b0 7F90      		pop r7
 1005 04b2 6F90      		pop r6
 1006               	.LVL63:
 1007 04b4 0895      		ret
 1008               	.LFE18:
 1010               	.global	Timebase_Timer_Await_SubSeconds
 1012               	Timebase_Timer_Await_SubSeconds:
 1013               	.LFB19:
 1014               	.LM145:
 1015               	.LVL64:
 1016               	/* prologue: function */
 1017               	/* frame size = 0 */
 1018 04b6 BC01      		movw r22,r24
 1019               	.LBB712:
 1020               	.LBB713:
 1021               	.LM146:
 1022 04b8 E091 0000 		lds r30,Timebase
 1023 04bc F091 0000 		lds r31,(Timebase)+1
 1024               	.LVL65:
 1025               	.L52:
 1026               	.LBB714:
 1027               	.LBB715:
 1028               	.LM147:
 1029               	/* #APP */
 1030               	 ;  341 "timebase.c" 1
 1031 04c0 F894      		cli
 1032               	 ;  0 "" 2
 1033               	/* #NOAPP */
 1034               	.LBE715:
 1035               	.LBE714:
 1036               	.LM148:
 1037 04c2 8085      		ldd r24,Z+8
 1038 04c4 9185      		ldd r25,Z+9
 1039               	.LVL66:
 1040               	.LBB716:
 1041               	.LBB717:
 1042               	.LM149:
 1043               	/* #APP */
 1044               	 ;  345 "timebase.c" 1
 1045 04c6 7894      		sei
 1046               	 ;  0 "" 2
 1047               	/* #NOAPP */
 1048               	.LBE717:
 1049               	.LBE716:
 1050               	.LBE713:
 1051               	.LBE712:
 1052               	.LM150:
 1053 04c8 2481      		ldd r18,Z+4
 1054 04ca 3581      		ldd r19,Z+5
 1055 04cc 4681      		ldd r20,Z+6
 1056 04ce 5781      		ldd r21,Z+7
 1057 04d0 A0E0      		ldi r26,lo8(0)
 1058 04d2 B0E0      		ldi r27,hi8(0)
 1059               	.LVL67:
 1060 04d4 8217      		cp r24,r18
 1061 04d6 9307      		cpc r25,r19
 1062 04d8 A407      		cpc r26,r20
 1063 04da B507      		cpc r27,r21
 1064 04dc 01F4      		brne .L52
 1065               	.LBB718:
 1066               	.LBB719:
 1067               	.LBB720:
 1068               	.LBB721:
 1069               	.LM151:
 1070               	/* #APP */
 1071               	 ;  341 "timebase.c" 1
 1072 04de F894      		cli
 1073               	 ;  0 "" 2
 1074               	/* #NOAPP */
 1075               	.LBE721:
 1076               	.LBE720:
 1077               	.LM152:
 1078 04e0 8085      		ldd r24,Z+8
 1079 04e2 9185      		ldd r25,Z+9
 1080               	.LVL68:
 1081               	.LBB722:
 1082               	.LBB723:
 1083               	.LM153:
 1084               	/* #APP */
 1085               	 ;  345 "timebase.c" 1
 1086 04e4 7894      		sei
 1087               	 ;  0 "" 2
 1088               	/* #NOAPP */
 1089               	.LBE723:
 1090               	.LBE722:
 1091               	.LBE719:
 1092               	.LBE718:
 1093               	.LM154:
 1094 04e6 860F      		add r24,r22
 1095 04e8 971F      		adc r25,r23
 1096 04ea A0E0      		ldi r26,lo8(0)
 1097 04ec B0E0      		ldi r27,hi8(0)
 1098               	.LVL69:
 1099 04ee 8483      		std Z+4,r24
 1100 04f0 9583      		std Z+5,r25
 1101 04f2 A683      		std Z+6,r26
 1102 04f4 B783      		std Z+7,r27
 1103               	.LVL70:
 1104               	.LM155:
 1105 04f6 2481      		ldd r18,Z+4
 1106 04f8 3581      		ldd r19,Z+5
 1107 04fa 4681      		ldd r20,Z+6
 1108 04fc 5781      		ldd r21,Z+7
 1109 04fe 8181      		ldd r24,Z+1
 1110 0500 9281      		ldd r25,Z+2
 1111 0502 A0E0      		ldi r26,lo8(0)
 1112 0504 B0E0      		ldi r27,hi8(0)
 1113 0506 2817      		cp r18,r24
 1114 0508 3907      		cpc r19,r25
 1115 050a 4A07      		cpc r20,r26
 1116 050c 5B07      		cpc r21,r27
 1117 050e 04F0      		brlt .L54
 1118               	.LM156:
 1119 0510 2481      		ldd r18,Z+4
 1120 0512 3581      		ldd r19,Z+5
 1121 0514 4681      		ldd r20,Z+6
 1122 0516 5781      		ldd r21,Z+7
 1123 0518 8181      		ldd r24,Z+1
 1124 051a 9281      		ldd r25,Z+2
 1125 051c A0E0      		ldi r26,lo8(0)
 1126 051e B0E0      		ldi r27,hi8(0)
 1127 0520 281B      		sub r18,r24
 1128 0522 390B      		sbc r19,r25
 1129 0524 4A0B      		sbc r20,r26
 1130 0526 5B0B      		sbc r21,r27
 1131 0528 2483      		std Z+4,r18
 1132 052a 3583      		std Z+5,r19
 1133 052c 4683      		std Z+6,r20
 1134 052e 5783      		std Z+7,r21
 1135               	.L54:
 1136 0530 0895      		ret
 1137               	.LFE19:
 1139               	.global	Timebase_Timer_Delay_Seconds
 1141               	Timebase_Timer_Delay_Seconds:
 1142               	.LFB20:
 1143               	.LM157:
 1144               	.LVL71:
 1145               	/* prologue: function */
 1146               	/* frame size = 0 */
 1147               	.LBB724:
 1148               	.LBB725:
 1149               	.LBB726:
 1150               	.LBB727:
 1151               	.LM158:
 1152               	/* #APP */
 1153               	 ;  341 "timebase.c" 1
 1154 0532 F894      		cli
 1155               	 ;  0 "" 2
 1156               	/* #NOAPP */
 1157               	.LBE727:
 1158               	.LBE726:
 1159               	.LM159:
 1160 0534 E091 0000 		lds r30,Timebase
 1161 0538 F091 0000 		lds r31,(Timebase)+1
 1162 053c 2285      		ldd r18,Z+10
 1163 053e 3385      		ldd r19,Z+11
 1164 0540 4485      		ldd r20,Z+12
 1165 0542 5585      		ldd r21,Z+13
 1166               	.LVL72:
 1167               	.LBB728:
 1168               	.LBB729:
 1169               	.LM160:
 1170               	/* #APP */
 1171               	 ;  345 "timebase.c" 1
 1172 0544 7894      		sei
 1173               	 ;  0 "" 2
 1174               	/* #NOAPP */
 1175               	.LBE729:
 1176               	.LBE728:
 1177               	.LBE725:
 1178               	.LBE724:
 1179               	.LM161:
 1180 0546 A0E0      		ldi r26,lo8(0)
 1181 0548 B0E0      		ldi r27,hi8(0)
 1182               	.LVL73:
 1183 054a 820F      		add r24,r18
 1184 054c 931F      		adc r25,r19
 1185 054e A41F      		adc r26,r20
 1186 0550 B51F      		adc r27,r21
 1187               	.LVL74:
 1188 0552 20E0      		ldi r18,lo8(0)
 1189 0554 30E0      		ldi r19,hi8(0)
 1190 0556 40E0      		ldi r20,hlo8(0)
 1191 0558 50E0      		ldi r21,hhi8(0)
 1192               	.LVL75:
 1193 055a 00C0      		rjmp .L57
 1194               	.L58:
 1195               	.LBB730:
 1196               	.LBB731:
 1197               	.LBB732:
 1198               	.LBB733:
 1199               	.LM162:
 1200               	/* #APP */
 1201               	 ;  341 "timebase.c" 1
 1202 055c F894      		cli
 1203               	 ;  0 "" 2
 1204               	/* #NOAPP */
 1205               	.LBE733:
 1206               	.LBE732:
 1207               	.LM163:
 1208 055e 2285      		ldd r18,Z+10
 1209 0560 3385      		ldd r19,Z+11
 1210 0562 4485      		ldd r20,Z+12
 1211 0564 5585      		ldd r21,Z+13
 1212               	.LBB734:
 1213               	.LBB735:
 1214               	.LM164:
 1215               	/* #APP */
 1216               	 ;  345 "timebase.c" 1
 1217 0566 7894      		sei
 1218               	 ;  0 "" 2
 1219               	/* #NOAPP */
 1220               	.L57:
 1221               	.LBE735:
 1222               	.LBE734:
 1223               	.LBE731:
 1224               	.LBE730:
 1225               	.LM165:
 1226 0568 2817      		cp r18,r24
 1227 056a 3907      		cpc r19,r25
 1228 056c 4A07      		cpc r20,r26
 1229 056e 5B07      		cpc r21,r27
 1230 0570 04F0      		brlt .L58
 1231               	/* epilogue start */
 1232               	.LM166:
 1233 0572 0895      		ret
 1234               	.LFE20:
 1236               	.global	Timebase_Window_Timer_Reset
 1238               	Timebase_Window_Timer_Reset:
 1239               	.LFB21:
 1240               	.LM167:
 1241               	/* prologue: function */
 1242               	/* frame size = 0 */
 1243               	.LM168:
 1244 0574 E091 0000 		lds r30,Timebase
 1245 0578 F091 0000 		lds r31,(Timebase)+1
 1246 057c 1686      		std Z+14,__zero_reg__
 1247 057e 1786      		std Z+15,__zero_reg__
 1248 0580 108A      		std Z+16,__zero_reg__
 1249 0582 118A      		std Z+17,__zero_reg__
 1250               	.LM169:
 1251 0584 128A      		std Z+18,__zero_reg__
 1252 0586 138A      		std Z+19,__zero_reg__
 1253 0588 148A      		std Z+20,__zero_reg__
 1254 058a 158A      		std Z+21,__zero_reg__
 1255               	.LM170:
 1256 058c 168A      		std Z+22,__zero_reg__
 1257               	/* epilogue start */
 1258               	.LM171:
 1259 058e 0895      		ret
 1260               	.LFE21:
 1262               	.global	Timebase_Window_Timer_Start
 1264               	Timebase_Window_Timer_Start:
 1265               	.LFB22:
 1266               	.LM172:
 1267               	/* prologue: function */
 1268               	/* frame size = 0 */
 1269               	.LM173:
 1270 0590 E091 0000 		lds r30,Timebase
 1271 0594 F091 0000 		lds r31,(Timebase)+1
 1272 0598 8689      		ldd r24,Z+22
 1273 059a 8823      		tst r24
 1274 059c 01F4      		brne .L64
 1275               	.LBB736:
 1276               	.LBB737:
 1277               	.LBB738:
 1278               	.LBB739:
 1279               	.LM174:
 1280               	/* #APP */
 1281               	 ;  341 "timebase.c" 1
 1282 059e F894      		cli
 1283               	 ;  0 "" 2
 1284               	/* #NOAPP */
 1285               	.LBE739:
 1286               	.LBE738:
 1287               	.LM175:
 1288 05a0 8285      		ldd r24,Z+10
 1289 05a2 9385      		ldd r25,Z+11
 1290 05a4 A485      		ldd r26,Z+12
 1291 05a6 B585      		ldd r27,Z+13
 1292               	.LVL76:
 1293               	.LBB740:
 1294               	.LBB741:
 1295               	.LM176:
 1296               	/* #APP */
 1297               	 ;  345 "timebase.c" 1
 1298 05a8 7894      		sei
 1299               	 ;  0 "" 2
 1300               	/* #NOAPP */
 1301               	.LBE741:
 1302               	.LBE740:
 1303               	.LBE737:
 1304               	.LBE736:
 1305               	.LM177:
 1306 05aa 8687      		std Z+14,r24
 1307 05ac 9787      		std Z+15,r25
 1308 05ae A08B      		std Z+16,r26
 1309 05b0 B18B      		std Z+17,r27
 1310               	.LBB742:
 1311               	.LBB743:
 1312               	.LBB744:
 1313               	.LBB745:
 1314               	.LM178:
 1315               	/* #APP */
 1316               	 ;  341 "timebase.c" 1
 1317 05b2 F894      		cli
 1318               	 ;  0 "" 2
 1319               	/* #NOAPP */
 1320               	.LBE745:
 1321               	.LBE744:
 1322               	.LM179:
 1323 05b4 8085      		ldd r24,Z+8
 1324 05b6 9185      		ldd r25,Z+9
 1325               	.LVL77:
 1326               	.LBB746:
 1327               	.LBB747:
 1328               	.LM180:
 1329               	/* #APP */
 1330               	 ;  345 "timebase.c" 1
 1331 05b8 7894      		sei
 1332               	 ;  0 "" 2
 1333               	/* #NOAPP */
 1334               	.LBE747:
 1335               	.LBE746:
 1336               	.LBE743:
 1337               	.LBE742:
 1338               	.LM181:
 1339 05ba A0E0      		ldi r26,lo8(0)
 1340 05bc B0E0      		ldi r27,hi8(0)
 1341               	.LVL78:
 1342 05be 828B      		std Z+18,r24
 1343 05c0 938B      		std Z+19,r25
 1344 05c2 A48B      		std Z+20,r26
 1345 05c4 B58B      		std Z+21,r27
 1346               	.LM182:
 1347 05c6 81E0      		ldi r24,lo8(1)
 1348               	.LVL79:
 1349 05c8 868B      		std Z+22,r24
 1350               	.L64:
 1351 05ca 0895      		ret
 1352               	.LFE22:
 1354               	.global	Timebase_Window_Timer_Get_Interval
 1356               	Timebase_Window_Timer_Get_Interval:
 1357               	.LFB23:
 1358               	.LM183:
 1359 05cc EF92      		push r14
 1360 05ce FF92      		push r15
 1361 05d0 0F93      		push r16
 1362 05d2 1F93      		push r17
 1363 05d4 CF93      		push r28
 1364 05d6 DF93      		push r29
 1365               	/* prologue: function */
 1366               	/* frame size = 0 */
 1367               	.LM184:
 1368 05d8 C091 0000 		lds r28,Timebase
 1369 05dc D091 0000 		lds r29,(Timebase)+1
 1370 05e0 8E89      		ldd r24,Y+22
 1371 05e2 8130      		cpi r24,lo8(1)
 1372 05e4 01F0      		breq .L66
 1373 05e6 EE24      		clr r14
 1374 05e8 FF24      		clr r15
 1375 05ea 8701      		movw r16,r14
 1376               	.LVL80:
 1377 05ec 00C0      		rjmp .L67
 1378               	.LVL81:
 1379               	.L66:
 1380               	.LBB748:
 1381               	.LBB749:
 1382               	.LBB750:
 1383               	.LBB751:
 1384               	.LM185:
 1385               	/* #APP */
 1386               	 ;  341 "timebase.c" 1
 1387 05ee F894      		cli
 1388               	 ;  0 "" 2
 1389               	/* #NOAPP */
 1390               	.LBE751:
 1391               	.LBE750:
 1392               	.LM186:
 1393 05f0 2A85      		ldd r18,Y+10
 1394 05f2 3B85      		ldd r19,Y+11
 1395 05f4 4C85      		ldd r20,Y+12
 1396 05f6 5D85      		ldd r21,Y+13
 1397               	.LVL82:
 1398               	.LBB752:
 1399               	.LBB753:
 1400               	.LM187:
 1401               	/* #APP */
 1402               	 ;  345 "timebase.c" 1
 1403 05f8 7894      		sei
 1404               	 ;  0 "" 2
 1405               	/* #NOAPP */
 1406               	.LBE753:
 1407               	.LBE752:
 1408               	.LBE749:
 1409               	.LBE748:
 1410               	.LBB754:
 1411               	.LBB755:
 1412               	.LBB756:
 1413               	.LBB757:
 1414               	.LM188:
 1415               	/* #APP */
 1416               	 ;  341 "timebase.c" 1
 1417 05fa F894      		cli
 1418               	 ;  0 "" 2
 1419               	/* #NOAPP */
 1420               	.LBE757:
 1421               	.LBE756:
 1422               	.LM189:
 1423 05fc 8885      		ldd r24,Y+8
 1424 05fe 9985      		ldd r25,Y+9
 1425               	.LVL83:
 1426               	.LBB758:
 1427               	.LBB759:
 1428               	.LM190:
 1429               	/* #APP */
 1430               	 ;  345 "timebase.c" 1
 1431 0600 7894      		sei
 1432               	 ;  0 "" 2
 1433               	/* #NOAPP */
 1434               	.LBE759:
 1435               	.LBE758:
 1436               	.LBE755:
 1437               	.LBE754:
 1438               	.LM191:
 1439 0602 7C01      		movw r14,r24
 1440               	.LVL84:
 1441 0604 00E0      		ldi r16,lo8(0)
 1442 0606 10E0      		ldi r17,hi8(0)
 1443               	.LVL85:
 1444               	.LM192:
 1445 0608 8E85      		ldd r24,Y+14
 1446 060a 9F85      		ldd r25,Y+15
 1447 060c A889      		ldd r26,Y+16
 1448 060e B989      		ldd r27,Y+17
 1449               	.LVL86:
 1450 0610 281B      		sub r18,r24
 1451 0612 390B      		sbc r19,r25
 1452 0614 4A0B      		sbc r20,r26
 1453 0616 5B0B      		sbc r21,r27
 1454               	.LVL87:
 1455               	.LM193:
 1456 0618 6981      		ldd r22,Y+1
 1457 061a 7A81      		ldd r23,Y+2
 1458 061c 80E0      		ldi r24,lo8(0)
 1459 061e 90E0      		ldi r25,hi8(0)
 1460 0620 0E94 0000 		call __mulsi3
 1461               	.LVL88:
 1462               	.LM194:
 1463 0624 2A89      		ldd r18,Y+18
 1464 0626 3B89      		ldd r19,Y+19
 1465 0628 4C89      		ldd r20,Y+20
 1466 062a 5D89      		ldd r21,Y+21
 1467 062c E21A      		sub r14,r18
 1468 062e F30A      		sbc r15,r19
 1469 0630 040B      		sbc r16,r20
 1470 0632 150B      		sbc r17,r21
 1471               	.LVL89:
 1472 0634 E60E      		add r14,r22
 1473 0636 F71E      		adc r15,r23
 1474 0638 081F      		adc r16,r24
 1475 063a 191F      		adc r17,r25
 1476               	.L67:
 1477               	.LM195:
 1478 063c B701      		movw r22,r14
 1479               	.LVL90:
 1480 063e C801      		movw r24,r16
 1481               	.LVL91:
 1482               	/* epilogue start */
 1483 0640 DF91      		pop r29
 1484 0642 CF91      		pop r28
 1485 0644 1F91      		pop r17
 1486 0646 0F91      		pop r16
 1487 0648 FF90      		pop r15
 1488 064a EF90      		pop r14
 1489 064c 0895      		ret
 1490               	.LFE23:
 1492               	.global	Timebase_Window_Timer_Get_Interval_Reset
 1494               	Timebase_Window_Timer_Get_Interval_Reset:
 1495               	.LFB24:
 1496               	.LM196:
 1497               	/* prologue: function */
 1498               	/* frame size = 0 */
 1499               	.LM197:
 1500 064e 0E94 0000 		call Timebase_Window_Timer_Get_Interval
 1501 0652 282F      		mov r18,r24
 1502               	.LVL92:
 1503               	.LM198:
 1504 0654 E091 0000 		lds r30,Timebase
 1505 0658 F091 0000 		lds r31,(Timebase)+1
 1506 065c 8689      		ldd r24,Z+22
 1507 065e 8130      		cpi r24,lo8(1)
 1508 0660 01F4      		brne .L70
 1509               	.LBB760:
 1510               	.LBB761:
 1511               	.LM199:
 1512 0662 1686      		std Z+14,__zero_reg__
 1513 0664 1786      		std Z+15,__zero_reg__
 1514 0666 108A      		std Z+16,__zero_reg__
 1515 0668 118A      		std Z+17,__zero_reg__
 1516               	.LM200:
 1517 066a 128A      		std Z+18,__zero_reg__
 1518 066c 138A      		std Z+19,__zero_reg__
 1519 066e 148A      		std Z+20,__zero_reg__
 1520 0670 158A      		std Z+21,__zero_reg__
 1521               	.LM201:
 1522 0672 168A      		std Z+22,__zero_reg__
 1523               	.L70:
 1524               	.LBE761:
 1525               	.LBE760:
 1526               	.LM202:
 1527 0674 822F      		mov r24,r18
 1528               	/* epilogue start */
 1529 0676 0895      		ret
 1530               	.LFE24:
 1532               	.global	Timebase_UpCounter_SS_Get_Status
 1534               	Timebase_UpCounter_SS_Get_Status:
 1535               	.LFB25:
 1536               	.LM203:
 1537               	.LVL93:
 1538               	/* prologue: function */
 1539               	/* frame size = 0 */
 1540               	.LM204:
 1541 0678 E091 0000 		lds r30,Timebase
 1542 067c F091 0000 		lds r31,(Timebase)+1
 1543 0680 90E0      		ldi r25,lo8(0)
 1544               	.LVL94:
 1545 0682 0196      		adiw r24,1
 1546               	.LVL95:
 1547 0684 29E1      		ldi r18,lo8(25)
 1548 0686 30E0      		ldi r19,hi8(25)
 1549 0688 AC01      		movw r20,r24
 1550 068a 429F      		mul r20,r18
 1551 068c C001      		movw r24,r0
 1552 068e 439F      		mul r20,r19
 1553 0690 900D      		add r25,r0
 1554 0692 529F      		mul r21,r18
 1555 0694 900D      		add r25,r0
 1556 0696 1124      		clr r1
 1557               	.LVL96:
 1558 0698 E80F      		add r30,r24
 1559 069a F91F      		adc r31,r25
 1560 069c 8081      		ld r24,Z
 1561 069e 8695      		lsr r24
 1562               	.LM205:
 1563 06a0 8F70      		andi r24,lo8(15)
 1564               	/* epilogue start */
 1565 06a2 0895      		ret
 1566               	.LFE25:
 1568               	.global	Timebase_UpCounter_SS_Set_Status
 1570               	Timebase_UpCounter_SS_Set_Status:
 1571               	.LFB26:
 1572               	.LM206:
 1573               	.LVL97:
 1574               	/* prologue: function */
 1575               	/* frame size = 0 */
 1576               	.LM207:
 1577 06a4 E091 0000 		lds r30,Timebase
 1578 06a8 F091 0000 		lds r31,(Timebase)+1
 1579 06ac 90E0      		ldi r25,lo8(0)
 1580               	.LVL98:
 1581 06ae 0196      		adiw r24,1
 1582               	.LVL99:
 1583 06b0 29E1      		ldi r18,lo8(25)
 1584 06b2 30E0      		ldi r19,hi8(25)
 1585 06b4 AC01      		movw r20,r24
 1586 06b6 429F      		mul r20,r18
 1587 06b8 C001      		movw r24,r0
 1588 06ba 439F      		mul r20,r19
 1589 06bc 900D      		add r25,r0
 1590 06be 529F      		mul r21,r18
 1591 06c0 900D      		add r25,r0
 1592 06c2 1124      		clr r1
 1593               	.LVL100:
 1594 06c4 E80F      		add r30,r24
 1595 06c6 F91F      		adc r31,r25
 1596 06c8 6F70      		andi r22,lo8(15)
 1597               	.LVL101:
 1598 06ca 660F      		lsl r22
 1599 06cc 8081      		ld r24,Z
 1600 06ce 817E      		andi r24,lo8(-31)
 1601 06d0 862B      		or r24,r22
 1602 06d2 8083      		st Z,r24
 1603               	/* epilogue start */
 1604               	.LM208:
 1605 06d4 0895      		ret
 1606               	.LFE26:
 1608               	.global	Timebase_UpCounter_SS_Get_Value
 1610               	Timebase_UpCounter_SS_Get_Value:
 1611               	.LFB27:
 1612               	.LM209:
 1613               	.LVL102:
 1614               	/* prologue: function */
 1615               	/* frame size = 0 */
 1616               	.LM210:
 1617 06d6 E091 0000 		lds r30,Timebase
 1618 06da F091 0000 		lds r31,(Timebase)+1
 1619 06de 90E0      		ldi r25,lo8(0)
 1620               	.LVL103:
 1621 06e0 29E1      		ldi r18,lo8(25)
 1622 06e2 30E0      		ldi r19,hi8(25)
 1623 06e4 AC01      		movw r20,r24
 1624 06e6 429F      		mul r20,r18
 1625 06e8 C001      		movw r24,r0
 1626 06ea 439F      		mul r20,r19
 1627 06ec 900D      		add r25,r0
 1628 06ee 529F      		mul r21,r18
 1629 06f0 900D      		add r25,r0
 1630 06f2 1124      		clr r1
 1631               	.LVL104:
 1632 06f4 E80F      		add r30,r24
 1633 06f6 F91F      		adc r31,r25
 1634 06f8 DF01      		movw r26,r30
 1635 06fa 9A96      		adiw r26,42
 1636 06fc 62A5      		ldd r22,Z+42
 1637 06fe 1196      		adiw r26,1
 1638 0700 7C91      		ld r23,X
 1639 0702 1197      		sbiw r26,1
 1640               	.LM211:
 1641 0704 1296      		adiw r26,2
 1642 0706 8C91      		ld r24,X
 1643 0708 1297      		sbiw r26,2
 1644 070a 1396      		adiw r26,3
 1645 070c 9C91      		ld r25,X
 1646               	.LVL105:
 1647               	/* epilogue start */
 1648 070e 0895      		ret
 1649               	.LFE27:
 1651               	.global	Timebase_UpCounter_SS_Set_Value
 1653               	Timebase_UpCounter_SS_Set_Value:
 1654               	.LFB28:
 1655               	.LM212:
 1656               	.LVL106:
 1657               	/* prologue: function */
 1658               	/* frame size = 0 */
 1659               	.LM213:
 1660 0710 E091 0000 		lds r30,Timebase
 1661 0714 F091 0000 		lds r31,(Timebase)+1
 1662 0718 90E0      		ldi r25,lo8(0)
 1663               	.LVL107:
 1664 071a 29E1      		ldi r18,lo8(25)
 1665 071c 30E0      		ldi r19,hi8(25)
 1666 071e DC01      		movw r26,r24
 1667 0720 A29F      		mul r26,r18
 1668 0722 C001      		movw r24,r0
 1669 0724 A39F      		mul r26,r19
 1670 0726 900D      		add r25,r0
 1671 0728 B29F      		mul r27,r18
 1672 072a 900D      		add r25,r0
 1673 072c 1124      		clr r1
 1674               	.LVL108:
 1675 072e E80F      		add r30,r24
 1676 0730 F91F      		adc r31,r25
 1677 0732 42A7      		std Z+42,r20
 1678 0734 53A7      		std Z+43,r21
 1679 0736 64A7      		std Z+44,r22
 1680 0738 75A7      		std Z+45,r23
 1681               	/* epilogue start */
 1682               	.LM214:
 1683 073a 0895      		ret
 1684               	.LFE28:
 1686               	.global	Timebase_UpCounter_SS_Get_EndValueSec
 1688               	Timebase_UpCounter_SS_Get_EndValueSec:
 1689               	.LFB29:
 1690               	.LM215:
 1691               	.LVL109:
 1692               	/* prologue: function */
 1693               	/* frame size = 0 */
 1694               	.LM216:
 1695 073c E091 0000 		lds r30,Timebase
 1696 0740 F091 0000 		lds r31,(Timebase)+1
 1697 0744 90E0      		ldi r25,lo8(0)
 1698               	.LVL110:
 1699 0746 29E1      		ldi r18,lo8(25)
 1700 0748 30E0      		ldi r19,hi8(25)
 1701 074a AC01      		movw r20,r24
 1702 074c 429F      		mul r20,r18
 1703 074e C001      		movw r24,r0
 1704 0750 439F      		mul r20,r19
 1705 0752 900D      		add r25,r0
 1706 0754 529F      		mul r21,r18
 1707 0756 900D      		add r25,r0
 1708 0758 1124      		clr r1
 1709               	.LVL111:
 1710 075a E80F      		add r30,r24
 1711 075c F91F      		adc r31,r25
 1712 075e DF01      		movw r26,r30
 1713 0760 5A96      		adiw r26,26
 1714 0762 628D      		ldd r22,Z+26
 1715 0764 1196      		adiw r26,1
 1716 0766 7C91      		ld r23,X
 1717 0768 1197      		sbiw r26,1
 1718               	.LM217:
 1719 076a 1296      		adiw r26,2
 1720 076c 8C91      		ld r24,X
 1721 076e 1297      		sbiw r26,2
 1722 0770 1396      		adiw r26,3
 1723 0772 9C91      		ld r25,X
 1724               	.LVL112:
 1725               	/* epilogue start */
 1726 0774 0895      		ret
 1727               	.LFE29:
 1729               	.global	Timebase_UpCounter_SS_Get_EndValueSubSec
 1731               	Timebase_UpCounter_SS_Get_EndValueSubSec:
 1732               	.LFB30:
 1733               	.LM218:
 1734               	.LVL113:
 1735               	/* prologue: function */
 1736               	/* frame size = 0 */
 1737               	.LM219:
 1738 0776 E091 0000 		lds r30,Timebase
 1739 077a F091 0000 		lds r31,(Timebase)+1
 1740 077e 90E0      		ldi r25,lo8(0)
 1741               	.LVL114:
 1742 0780 29E1      		ldi r18,lo8(25)
 1743 0782 30E0      		ldi r19,hi8(25)
 1744 0784 AC01      		movw r20,r24
 1745 0786 429F      		mul r20,r18
 1746 0788 C001      		movw r24,r0
 1747 078a 439F      		mul r20,r19
 1748 078c 900D      		add r25,r0
 1749 078e 529F      		mul r21,r18
 1750 0790 900D      		add r25,r0
 1751 0792 1124      		clr r1
 1752               	.LVL115:
 1753 0794 E80F      		add r30,r24
 1754 0796 F91F      		adc r31,r25
 1755 0798 DF01      		movw r26,r30
 1756 079a 5E96      		adiw r26,30
 1757 079c 668D      		ldd r22,Z+30
 1758 079e 1196      		adiw r26,1
 1759 07a0 7C91      		ld r23,X
 1760 07a2 1197      		sbiw r26,1
 1761               	.LM220:
 1762 07a4 1296      		adiw r26,2
 1763 07a6 8C91      		ld r24,X
 1764 07a8 1297      		sbiw r26,2
 1765 07aa 1396      		adiw r26,3
 1766 07ac 9C91      		ld r25,X
 1767               	.LVL116:
 1768               	/* epilogue start */
 1769 07ae 0895      		ret
 1770               	.LFE30:
 1772               	.global	Timebase_UpCounter_SS_Set_EndValueSec
 1774               	Timebase_UpCounter_SS_Set_EndValueSec:
 1775               	.LFB31:
 1776               	.LM221:
 1777               	.LVL117:
 1778               	/* prologue: function */
 1779               	/* frame size = 0 */
 1780               	.LM222:
 1781 07b0 E091 0000 		lds r30,Timebase
 1782 07b4 F091 0000 		lds r31,(Timebase)+1
 1783 07b8 90E0      		ldi r25,lo8(0)
 1784               	.LVL118:
 1785 07ba 29E1      		ldi r18,lo8(25)
 1786 07bc 30E0      		ldi r19,hi8(25)
 1787 07be DC01      		movw r26,r24
 1788 07c0 A29F      		mul r26,r18
 1789 07c2 C001      		movw r24,r0
 1790 07c4 A39F      		mul r26,r19
 1791 07c6 900D      		add r25,r0
 1792 07c8 B29F      		mul r27,r18
 1793 07ca 900D      		add r25,r0
 1794 07cc 1124      		clr r1
 1795               	.LVL119:
 1796 07ce E80F      		add r30,r24
 1797 07d0 F91F      		adc r31,r25
 1798 07d2 428F      		std Z+26,r20
 1799 07d4 538F      		std Z+27,r21
 1800 07d6 648F      		std Z+28,r22
 1801 07d8 758F      		std Z+29,r23
 1802               	/* epilogue start */
 1803               	.LM223:
 1804 07da 0895      		ret
 1805               	.LFE31:
 1807               	.global	Timebase_UpCounter_SS_Set_EndValueSubSec
 1809               	Timebase_UpCounter_SS_Set_EndValueSubSec:
 1810               	.LFB32:
 1811               	.LM224:
 1812               	.LVL120:
 1813               	/* prologue: function */
 1814               	/* frame size = 0 */
 1815               	.LM225:
 1816 07dc E091 0000 		lds r30,Timebase
 1817 07e0 F091 0000 		lds r31,(Timebase)+1
 1818 07e4 90E0      		ldi r25,lo8(0)
 1819               	.LVL121:
 1820 07e6 29E1      		ldi r18,lo8(25)
 1821 07e8 30E0      		ldi r19,hi8(25)
 1822 07ea DC01      		movw r26,r24
 1823 07ec A29F      		mul r26,r18
 1824 07ee C001      		movw r24,r0
 1825 07f0 A39F      		mul r26,r19
 1826 07f2 900D      		add r25,r0
 1827 07f4 B29F      		mul r27,r18
 1828 07f6 900D      		add r25,r0
 1829 07f8 1124      		clr r1
 1830               	.LVL122:
 1831 07fa E80F      		add r30,r24
 1832 07fc F91F      		adc r31,r25
 1833 07fe 468F      		std Z+30,r20
 1834 0800 578F      		std Z+31,r21
 1835 0802 60A3      		std Z+32,r22
 1836 0804 71A3      		std Z+33,r23
 1837               	/* epilogue start */
 1838               	.LM226:
 1839 0806 0895      		ret
 1840               	.LFE32:
 1842               	.global	Timebase_UpCounter_SS_Get_TargetValue
 1844               	Timebase_UpCounter_SS_Get_TargetValue:
 1845               	.LFB33:
 1846               	.LM227:
 1847               	.LVL123:
 1848               	/* prologue: function */
 1849               	/* frame size = 0 */
 1850               	.LM228:
 1851 0808 E091 0000 		lds r30,Timebase
 1852 080c F091 0000 		lds r31,(Timebase)+1
 1853 0810 90E0      		ldi r25,lo8(0)
 1854               	.LVL124:
 1855 0812 29E1      		ldi r18,lo8(25)
 1856 0814 30E0      		ldi r19,hi8(25)
 1857 0816 AC01      		movw r20,r24
 1858 0818 429F      		mul r20,r18
 1859 081a C001      		movw r24,r0
 1860 081c 439F      		mul r20,r19
 1861 081e 900D      		add r25,r0
 1862 0820 529F      		mul r21,r18
 1863 0822 900D      		add r25,r0
 1864 0824 1124      		clr r1
 1865               	.LVL125:
 1866 0826 E80F      		add r30,r24
 1867 0828 F91F      		adc r31,r25
 1868 082a DF01      		movw r26,r30
 1869 082c 9296      		adiw r26,34
 1870 082e 62A1      		ldd r22,Z+34
 1871 0830 1196      		adiw r26,1
 1872 0832 7C91      		ld r23,X
 1873 0834 1197      		sbiw r26,1
 1874               	.LM229:
 1875 0836 1296      		adiw r26,2
 1876 0838 8C91      		ld r24,X
 1877 083a 1297      		sbiw r26,2
 1878 083c 1396      		adiw r26,3
 1879 083e 9C91      		ld r25,X
 1880               	.LVL126:
 1881               	/* epilogue start */
 1882 0840 0895      		ret
 1883               	.LFE33:
 1885               	.global	Timebase_UpCounter_SS_Set_TargetValue
 1887               	Timebase_UpCounter_SS_Set_TargetValue:
 1888               	.LFB34:
 1889               	.LM230:
 1890               	.LVL127:
 1891               	/* prologue: function */
 1892               	/* frame size = 0 */
 1893               	.LM231:
 1894 0842 E091 0000 		lds r30,Timebase
 1895 0846 F091 0000 		lds r31,(Timebase)+1
 1896 084a 90E0      		ldi r25,lo8(0)
 1897               	.LVL128:
 1898 084c 29E1      		ldi r18,lo8(25)
 1899 084e 30E0      		ldi r19,hi8(25)
 1900 0850 DC01      		movw r26,r24
 1901 0852 A29F      		mul r26,r18
 1902 0854 C001      		movw r24,r0
 1903 0856 A39F      		mul r26,r19
 1904 0858 900D      		add r25,r0
 1905 085a B29F      		mul r27,r18
 1906 085c 900D      		add r25,r0
 1907 085e 1124      		clr r1
 1908               	.LVL129:
 1909 0860 E80F      		add r30,r24
 1910 0862 F91F      		adc r31,r25
 1911 0864 42A3      		std Z+34,r20
 1912 0866 53A3      		std Z+35,r21
 1913 0868 64A3      		std Z+36,r22
 1914 086a 75A3      		std Z+37,r23
 1915               	/* epilogue start */
 1916               	.LM232:
 1917 086c 0895      		ret
 1918               	.LFE34:
 1920               	.global	Timebase_UpCounter_SS_Get_TemporaryValue
 1922               	Timebase_UpCounter_SS_Get_TemporaryValue:
 1923               	.LFB35:
 1924               	.LM233:
 1925               	.LVL130:
 1926               	/* prologue: function */
 1927               	/* frame size = 0 */
 1928               	.LM234:
 1929 086e E091 0000 		lds r30,Timebase
 1930 0872 F091 0000 		lds r31,(Timebase)+1
 1931 0876 90E0      		ldi r25,lo8(0)
 1932               	.LVL131:
 1933 0878 29E1      		ldi r18,lo8(25)
 1934 087a 30E0      		ldi r19,hi8(25)
 1935 087c AC01      		movw r20,r24
 1936 087e 429F      		mul r20,r18
 1937 0880 C001      		movw r24,r0
 1938 0882 439F      		mul r20,r19
 1939 0884 900D      		add r25,r0
 1940 0886 529F      		mul r21,r18
 1941 0888 900D      		add r25,r0
 1942 088a 1124      		clr r1
 1943               	.LVL132:
 1944 088c E80F      		add r30,r24
 1945 088e F91F      		adc r31,r25
 1946 0890 DF01      		movw r26,r30
 1947 0892 9696      		adiw r26,38
 1948 0894 66A1      		ldd r22,Z+38
 1949 0896 1196      		adiw r26,1
 1950 0898 7C91      		ld r23,X
 1951 089a 1197      		sbiw r26,1
 1952               	.LM235:
 1953 089c 1296      		adiw r26,2
 1954 089e 8C91      		ld r24,X
 1955 08a0 1297      		sbiw r26,2
 1956 08a2 1396      		adiw r26,3
 1957 08a4 9C91      		ld r25,X
 1958               	.LVL133:
 1959               	/* epilogue start */
 1960 08a6 0895      		ret
 1961               	.LFE35:
 1963               	.global	Timebase_UpCounter_SS_Set_TemporaryValue
 1965               	Timebase_UpCounter_SS_Set_TemporaryValue:
 1966               	.LFB36:
 1967               	.LM236:
 1968               	.LVL134:
 1969               	/* prologue: function */
 1970               	/* frame size = 0 */
 1971               	.LM237:
 1972 08a8 E091 0000 		lds r30,Timebase
 1973 08ac F091 0000 		lds r31,(Timebase)+1
 1974 08b0 90E0      		ldi r25,lo8(0)
 1975               	.LVL135:
 1976 08b2 29E1      		ldi r18,lo8(25)
 1977 08b4 30E0      		ldi r19,hi8(25)
 1978 08b6 DC01      		movw r26,r24
 1979 08b8 A29F      		mul r26,r18
 1980 08ba C001      		movw r24,r0
 1981 08bc A39F      		mul r26,r19
 1982 08be 900D      		add r25,r0
 1983 08c0 B29F      		mul r27,r18
 1984 08c2 900D      		add r25,r0
 1985 08c4 1124      		clr r1
 1986               	.LVL136:
 1987 08c6 E80F      		add r30,r24
 1988 08c8 F91F      		adc r31,r25
 1989 08ca 46A3      		std Z+38,r20
 1990 08cc 57A3      		std Z+39,r21
 1991 08ce 60A7      		std Z+40,r22
 1992 08d0 71A7      		std Z+41,r23
 1993               	/* epilogue start */
 1994               	.LM238:
 1995 08d2 0895      		ret
 1996               	.LFE36:
 1998               	.global	Timebase_UpCounter_SS_Get_PeriodValue
 2000               	Timebase_UpCounter_SS_Get_PeriodValue:
 2001               	.LFB37:
 2002               	.LM239:
 2003               	.LVL137:
 2004               	/* prologue: function */
 2005               	/* frame size = 0 */
 2006               	.LM240:
 2007 08d4 E091 0000 		lds r30,Timebase
 2008 08d8 F091 0000 		lds r31,(Timebase)+1
 2009 08dc 90E0      		ldi r25,lo8(0)
 2010               	.LVL138:
 2011 08de 29E1      		ldi r18,lo8(25)
 2012 08e0 30E0      		ldi r19,hi8(25)
 2013 08e2 AC01      		movw r20,r24
 2014 08e4 429F      		mul r20,r18
 2015 08e6 C001      		movw r24,r0
 2016 08e8 439F      		mul r20,r19
 2017 08ea 900D      		add r25,r0
 2018 08ec 529F      		mul r21,r18
 2019 08ee 900D      		add r25,r0
 2020 08f0 1124      		clr r1
 2021               	.LVL139:
 2022 08f2 E80F      		add r30,r24
 2023 08f4 F91F      		adc r31,r25
 2024 08f6 DF01      		movw r26,r30
 2025 08f8 9E96      		adiw r26,46
 2026 08fa 66A5      		ldd r22,Z+46
 2027 08fc 1196      		adiw r26,1
 2028 08fe 7C91      		ld r23,X
 2029 0900 1197      		sbiw r26,1
 2030               	.LM241:
 2031 0902 1296      		adiw r26,2
 2032 0904 8C91      		ld r24,X
 2033 0906 1297      		sbiw r26,2
 2034 0908 1396      		adiw r26,3
 2035 090a 9C91      		ld r25,X
 2036               	.LVL140:
 2037               	/* epilogue start */
 2038 090c 0895      		ret
 2039               	.LFE37:
 2041               	.global	Timebase_UpCounter_SS_Set_PeriodValue
 2043               	Timebase_UpCounter_SS_Set_PeriodValue:
 2044               	.LFB38:
 2045               	.LM242:
 2046               	.LVL141:
 2047               	/* prologue: function */
 2048               	/* frame size = 0 */
 2049               	.LM243:
 2050 090e E091 0000 		lds r30,Timebase
 2051 0912 F091 0000 		lds r31,(Timebase)+1
 2052 0916 90E0      		ldi r25,lo8(0)
 2053               	.LVL142:
 2054 0918 29E1      		ldi r18,lo8(25)
 2055 091a 30E0      		ldi r19,hi8(25)
 2056 091c DC01      		movw r26,r24
 2057 091e A29F      		mul r26,r18
 2058 0920 C001      		movw r24,r0
 2059 0922 A39F      		mul r26,r19
 2060 0924 900D      		add r25,r0
 2061 0926 B29F      		mul r27,r18
 2062 0928 900D      		add r25,r0
 2063 092a 1124      		clr r1
 2064               	.LVL143:
 2065 092c E80F      		add r30,r24
 2066 092e F91F      		adc r31,r25
 2067 0930 46A7      		std Z+46,r20
 2068 0932 57A7      		std Z+47,r21
 2069 0934 60AB      		std Z+48,r22
 2070 0936 71AB      		std Z+49,r23
 2071               	/* epilogue start */
 2072               	.LM244:
 2073 0938 0895      		ret
 2074               	.LFE38:
 2076               	.global	Timebase_UpCounter_SS_Get_Period_Flag
 2078               	Timebase_UpCounter_SS_Get_Period_Flag:
 2079               	.LFB39:
 2080               	.LM245:
 2081               	.LVL144:
 2082               	/* prologue: function */
 2083               	/* frame size = 0 */
 2084               	.LM246:
 2085 093a E091 0000 		lds r30,Timebase
 2086 093e F091 0000 		lds r31,(Timebase)+1
 2087 0942 90E0      		ldi r25,lo8(0)
 2088               	.LVL145:
 2089 0944 0196      		adiw r24,1
 2090               	.LVL146:
 2091 0946 29E1      		ldi r18,lo8(25)
 2092 0948 30E0      		ldi r19,hi8(25)
 2093 094a AC01      		movw r20,r24
 2094 094c 429F      		mul r20,r18
 2095 094e C001      		movw r24,r0
 2096 0950 439F      		mul r20,r19
 2097 0952 900D      		add r25,r0
 2098 0954 529F      		mul r21,r18
 2099 0956 900D      		add r25,r0
 2100 0958 1124      		clr r1
 2101               	.LVL147:
 2102 095a E80F      		add r30,r24
 2103 095c F91F      		adc r31,r25
 2104 095e 8081      		ld r24,Z
 2105               	.LM247:
 2106 0960 8170      		andi r24,lo8(1)
 2107               	/* epilogue start */
 2108 0962 0895      		ret
 2109               	.LFE39:
 2111               	.global	Timebase_UpCounter_SS_Set_Period_Flag
 2113               	Timebase_UpCounter_SS_Set_Period_Flag:
 2114               	.LFB40:
 2115               	.LM248:
 2116               	.LVL148:
 2117               	/* prologue: function */
 2118               	/* frame size = 0 */
 2119               	.LM249:
 2120 0964 E091 0000 		lds r30,Timebase
 2121 0968 F091 0000 		lds r31,(Timebase)+1
 2122 096c 90E0      		ldi r25,lo8(0)
 2123               	.LVL149:
 2124 096e 0196      		adiw r24,1
 2125               	.LVL150:
 2126 0970 29E1      		ldi r18,lo8(25)
 2127 0972 30E0      		ldi r19,hi8(25)
 2128 0974 AC01      		movw r20,r24
 2129 0976 429F      		mul r20,r18
 2130 0978 C001      		movw r24,r0
 2131 097a 439F      		mul r20,r19
 2132 097c 900D      		add r25,r0
 2133 097e 529F      		mul r21,r18
 2134 0980 900D      		add r25,r0
 2135 0982 1124      		clr r1
 2136               	.LVL151:
 2137 0984 E80F      		add r30,r24
 2138 0986 F91F      		adc r31,r25
 2139 0988 8081      		ld r24,Z
 2140 098a 8160      		ori r24,lo8(1)
 2141 098c 8083      		st Z,r24
 2142               	/* epilogue start */
 2143               	.LM250:
 2144 098e 0895      		ret
 2145               	.LFE40:
 2147               	.global	Timebase_UpCounter_SS_Clear_Period_Flag
 2149               	Timebase_UpCounter_SS_Clear_Period_Flag:
 2150               	.LFB41:
 2151               	.LM251:
 2152               	.LVL152:
 2153               	/* prologue: function */
 2154               	/* frame size = 0 */
 2155               	.LM252:
 2156 0990 E091 0000 		lds r30,Timebase
 2157 0994 F091 0000 		lds r31,(Timebase)+1
 2158 0998 90E0      		ldi r25,lo8(0)
 2159               	.LVL153:
 2160 099a 0196      		adiw r24,1
 2161               	.LVL154:
 2162 099c 29E1      		ldi r18,lo8(25)
 2163 099e 30E0      		ldi r19,hi8(25)
 2164 09a0 AC01      		movw r20,r24
 2165 09a2 429F      		mul r20,r18
 2166 09a4 C001      		movw r24,r0
 2167 09a6 439F      		mul r20,r19
 2168 09a8 900D      		add r25,r0
 2169 09aa 529F      		mul r21,r18
 2170 09ac 900D      		add r25,r0
 2171 09ae 1124      		clr r1
 2172               	.LVL155:
 2173 09b0 E80F      		add r30,r24
 2174 09b2 F91F      		adc r31,r25
 2175 09b4 8081      		ld r24,Z
 2176 09b6 8E7F      		andi r24,lo8(-2)
 2177 09b8 8083      		st Z,r24
 2178               	/* epilogue start */
 2179               	.LM253:
 2180 09ba 0895      		ret
 2181               	.LFE41:
 2183               	.global	Timebase_UpCounter_SS_Reset
 2185               	Timebase_UpCounter_SS_Reset:
 2186               	.LFB42:
 2187               	.LM254:
 2188               	.LVL156:
 2189               	/* prologue: function */
 2190               	/* frame size = 0 */
 2191               	.LBB762:
 2192               	.LBB763:
 2193               	.LM255:
 2194 09bc 6091 0000 		lds r22,Timebase
 2195 09c0 7091 0000 		lds r23,(Timebase)+1
 2196 09c4 90E0      		ldi r25,lo8(0)
 2197 09c6 0196      		adiw r24,1
 2198               	.LVL157:
 2199 09c8 49E1      		ldi r20,lo8(25)
 2200 09ca 50E0      		ldi r21,hi8(25)
 2201 09cc 849F      		mul r24,r20
 2202 09ce D001      		movw r26,r0
 2203 09d0 859F      		mul r24,r21
 2204 09d2 B00D      		add r27,r0
 2205 09d4 949F      		mul r25,r20
 2206 09d6 B00D      		add r27,r0
 2207 09d8 1124      		clr r1
 2208 09da 0197      		sbiw r24,1
 2209 09dc A60F      		add r26,r22
 2210 09de B71F      		adc r27,r23
 2211 09e0 2C91      		ld r18,X
 2212 09e2 217E      		andi r18,lo8(-31)
 2213 09e4 2C93      		st X,r18
 2214               	.LBE763:
 2215               	.LBE762:
 2216               	.LBB764:
 2217               	.LBB765:
 2218               	.LM256:
 2219 09e6 849F      		mul r24,r20
 2220 09e8 F001      		movw r30,r0
 2221 09ea 859F      		mul r24,r21
 2222 09ec F00D      		add r31,r0
 2223 09ee 949F      		mul r25,r20
 2224 09f0 F00D      		add r31,r0
 2225 09f2 1124      		clr r1
 2226 09f4 E60F      		add r30,r22
 2227 09f6 F71F      		adc r31,r23
 2228 09f8 12A6      		std Z+42,__zero_reg__
 2229 09fa 13A6      		std Z+43,__zero_reg__
 2230 09fc 14A6      		std Z+44,__zero_reg__
 2231 09fe 15A6      		std Z+45,__zero_reg__
 2232               	.LBE765:
 2233               	.LBE764:
 2234               	.LBB766:
 2235               	.LBB767:
 2236               	.LM257:
 2237 0a00 128E      		std Z+26,__zero_reg__
 2238 0a02 138E      		std Z+27,__zero_reg__
 2239 0a04 148E      		std Z+28,__zero_reg__
 2240 0a06 158E      		std Z+29,__zero_reg__
 2241               	.LBE767:
 2242               	.LBE766:
 2243               	.LBB768:
 2244               	.LBB769:
 2245               	.LM258:
 2246 0a08 168E      		std Z+30,__zero_reg__
 2247 0a0a 178E      		std Z+31,__zero_reg__
 2248 0a0c 10A2      		std Z+32,__zero_reg__
 2249 0a0e 11A2      		std Z+33,__zero_reg__
 2250               	.LBE769:
 2251               	.LBE768:
 2252               	.LBB770:
 2253               	.LBB771:
 2254               	.LM259:
 2255 0a10 12A2      		std Z+34,__zero_reg__
 2256 0a12 13A2      		std Z+35,__zero_reg__
 2257 0a14 14A2      		std Z+36,__zero_reg__
 2258 0a16 15A2      		std Z+37,__zero_reg__
 2259               	.LBE771:
 2260               	.LBE770:
 2261               	.LBB772:
 2262               	.LBB773:
 2263               	.LM260:
 2264 0a18 16A2      		std Z+38,__zero_reg__
 2265 0a1a 17A2      		std Z+39,__zero_reg__
 2266 0a1c 10A6      		std Z+40,__zero_reg__
 2267 0a1e 11A6      		std Z+41,__zero_reg__
 2268               	.LBE773:
 2269               	.LBE772:
 2270               	.LBB774:
 2271               	.LBB775:
 2272               	.LM261:
 2273 0a20 16A6      		std Z+46,__zero_reg__
 2274 0a22 17A6      		std Z+47,__zero_reg__
 2275 0a24 10AA      		std Z+48,__zero_reg__
 2276 0a26 11AA      		std Z+49,__zero_reg__
 2277               	.LBE775:
 2278               	.LBE774:
 2279               	.LBB776:
 2280               	.LBB777:
 2281               	.LM262:
 2282 0a28 8C91      		ld r24,X
 2283 0a2a 8E7F      		andi r24,lo8(-2)
 2284 0a2c 8C93      		st X,r24
 2285               	/* epilogue start */
 2286               	.LBE777:
 2287               	.LBE776:
 2288               	.LM263:
 2289 0a2e 0895      		ret
 2290               	.LFE42:
 2292               	.global	Timebase_UpCounter_SS_Clear_All_Flags
 2294               	Timebase_UpCounter_SS_Clear_All_Flags:
 2295               	.LFB43:
 2296               	.LM264:
 2297               	.LVL158:
 2298               	/* prologue: function */
 2299               	/* frame size = 0 */
 2300               	.LM265:
 2301 0a30 0E94 0000 		call Timebase_UpCounter_SS_Reset
 2302               	.LVL159:
 2303               	/* epilogue start */
 2304               	.LM266:
 2305 0a34 0895      		ret
 2306               	.LFE43:
 2308               	.global	Timebase_UpCounter_SS_Start
 2310               	Timebase_UpCounter_SS_Start:
 2311               	.LFB44:
 2312               	.LM267:
 2313               	.LVL160:
 2314               	/* prologue: function */
 2315               	/* frame size = 0 */
 2316               	.LBB778:
 2317               	.LBB779:
 2318               	.LM268:
 2319 0a36 E091 0000 		lds r30,Timebase
 2320 0a3a F091 0000 		lds r31,(Timebase)+1
 2321 0a3e 90E0      		ldi r25,lo8(0)
 2322               	.LBE779:
 2323               	.LBE778:
 2324               	.LM269:
 2325 0a40 0196      		adiw r24,1
 2326               	.LVL161:
 2327 0a42 29E1      		ldi r18,lo8(25)
 2328 0a44 30E0      		ldi r19,hi8(25)
 2329 0a46 AC01      		movw r20,r24
 2330 0a48 429F      		mul r20,r18
 2331 0a4a C001      		movw r24,r0
 2332 0a4c 439F      		mul r20,r19
 2333 0a4e 900D      		add r25,r0
 2334 0a50 529F      		mul r21,r18
 2335 0a52 900D      		add r25,r0
 2336 0a54 1124      		clr r1
 2337 0a56 E80F      		add r30,r24
 2338 0a58 F91F      		adc r31,r25
 2339 0a5a 9081      		ld r25,Z
 2340 0a5c 892F      		mov r24,r25
 2341 0a5e 8695      		lsr r24
 2342 0a60 8F70      		andi r24,lo8(15)
 2343 0a62 8130      		cpi r24,lo8(1)
 2344 0a64 01F0      		breq .L112
 2345               	.LBB780:
 2346               	.LBB781:
 2347               	.LM270:
 2348 0a66 917E      		andi r25,lo8(-31)
 2349 0a68 9260      		ori r25,lo8(2)
 2350 0a6a 9083      		st Z,r25
 2351               	.L112:
 2352 0a6c 0895      		ret
 2353               	.LBE781:
 2354               	.LBE780:
 2355               	.LFE44:
 2357               	.global	Timebase_UpCounter_SS_Stop
 2359               	Timebase_UpCounter_SS_Stop:
 2360               	.LFB45:
 2361               	.LM271:
 2362               	.LVL162:
 2363               	/* prologue: function */
 2364               	/* frame size = 0 */
 2365               	.LBB782:
 2366               	.LBB783:
 2367               	.LM272:
 2368 0a6e E091 0000 		lds r30,Timebase
 2369 0a72 F091 0000 		lds r31,(Timebase)+1
 2370 0a76 90E0      		ldi r25,lo8(0)
 2371               	.LBE783:
 2372               	.LBE782:
 2373               	.LM273:
 2374 0a78 0196      		adiw r24,1
 2375               	.LVL163:
 2376 0a7a 29E1      		ldi r18,lo8(25)
 2377 0a7c 30E0      		ldi r19,hi8(25)
 2378 0a7e AC01      		movw r20,r24
 2379 0a80 429F      		mul r20,r18
 2380 0a82 C001      		movw r24,r0
 2381 0a84 439F      		mul r20,r19
 2382 0a86 900D      		add r25,r0
 2383 0a88 529F      		mul r21,r18
 2384 0a8a 900D      		add r25,r0
 2385 0a8c 1124      		clr r1
 2386 0a8e E80F      		add r30,r24
 2387 0a90 F91F      		adc r31,r25
 2388 0a92 9081      		ld r25,Z
 2389 0a94 892F      		mov r24,r25
 2390 0a96 8695      		lsr r24
 2391 0a98 8F70      		andi r24,lo8(15)
 2392 0a9a 8230      		cpi r24,lo8(2)
 2393 0a9c 01F0      		breq .L115
 2394               	.LBB784:
 2395               	.LBB785:
 2396               	.LM274:
 2397 0a9e 917E      		andi r25,lo8(-31)
 2398 0aa0 9460      		ori r25,lo8(4)
 2399 0aa2 9083      		st Z,r25
 2400               	.L115:
 2401 0aa4 0895      		ret
 2402               	.LBE785:
 2403               	.LBE784:
 2404               	.LFE45:
 2406               	.global	Timebase_UpCounter_SS_Set_Securely
 2408               	Timebase_UpCounter_SS_Set_Securely:
 2409               	.LFB46:
 2410               	.LM275:
 2411               	.LVL164:
 2412 0aa6 2F92      		push r2
 2413 0aa8 3F92      		push r3
 2414 0aaa 4F92      		push r4
 2415 0aac 5F92      		push r5
 2416 0aae 6F92      		push r6
 2417 0ab0 7F92      		push r7
 2418 0ab2 8F92      		push r8
 2419 0ab4 9F92      		push r9
 2420 0ab6 AF92      		push r10
 2421 0ab8 BF92      		push r11
 2422 0aba CF92      		push r12
 2423 0abc DF92      		push r13
 2424 0abe EF92      		push r14
 2425 0ac0 FF92      		push r15
 2426 0ac2 0F93      		push r16
 2427 0ac4 1F93      		push r17
 2428 0ac6 DF93      		push r29
 2429 0ac8 CF93      		push r28
 2430 0aca 00D0      		rcall .
 2431 0acc 00D0      		rcall .
 2432 0ace CDB7      		in r28,__SP_L__
 2433 0ad0 DEB7      		in r29,__SP_H__
 2434               	/* prologue: function */
 2435               	/* frame size = 4 */
 2436 0ad2 4A01      		movw r8,r20
 2437 0ad4 5B01      		movw r10,r22
 2438               	.LBB786:
 2439               	.LBB787:
 2440               	.LM276:
 2441 0ad6 2090 0000 		lds r2,Timebase
 2442 0ada 3090 0000 		lds r3,(Timebase)+1
 2443 0ade 482E      		mov r4,r24
 2444 0ae0 5524      		clr r5
 2445               	.LBE787:
 2446               	.LBE786:
 2447               	.LM277:
 2448 0ae2 0894      		sec
 2449 0ae4 411C      		adc r4,__zero_reg__
 2450 0ae6 511C      		adc r5,__zero_reg__
 2451 0ae8 29E1      		ldi r18,lo8(25)
 2452 0aea 30E0      		ldi r19,hi8(25)
 2453 0aec 429E      		mul r4,r18
 2454 0aee F001      		movw r30,r0
 2455 0af0 439E      		mul r4,r19
 2456 0af2 F00D      		add r31,r0
 2457 0af4 529E      		mul r5,r18
 2458 0af6 F00D      		add r31,r0
 2459 0af8 1124      		clr r1
 2460 0afa 0894      		sec
 2461 0afc 4108      		sbc r4,__zero_reg__
 2462 0afe 5108      		sbc r5,__zero_reg__
 2463 0b00 E20D      		add r30,r2
 2464 0b02 F31D      		adc r31,r3
 2465 0b04 8081      		ld r24,Z
 2466               	.LVL165:
 2467 0b06 8695      		lsr r24
 2468 0b08 8F70      		andi r24,lo8(15)
 2469 0b0a 01F0      		breq .+2
 2470 0b0c 00C0      		rjmp .L119
 2471               	.LVL166:
 2472               	.LBB788:
 2473               	.LBB789:
 2474               	.LBB790:
 2475               	.LM278:
 2476 0b0e 429E      		mul r4,r18
 2477 0b10 F001      		movw r30,r0
 2478 0b12 439E      		mul r4,r19
 2479 0b14 F00D      		add r31,r0
 2480 0b16 529E      		mul r5,r18
 2481 0b18 F00D      		add r31,r0
 2482 0b1a 1124      		clr r1
 2483 0b1c E20D      		add r30,r2
 2484 0b1e F31D      		adc r31,r3
 2485 0b20 12A6      		std Z+42,__zero_reg__
 2486 0b22 13A6      		std Z+43,__zero_reg__
 2487 0b24 14A6      		std Z+44,__zero_reg__
 2488 0b26 15A6      		std Z+45,__zero_reg__
 2489               	.LBE790:
 2490               	.LBE789:
 2491               	.LBB791:
 2492               	.LBB792:
 2493               	.LM279:
 2494 0b28 16A2      		std Z+38,__zero_reg__
 2495 0b2a 17A2      		std Z+39,__zero_reg__
 2496 0b2c 10A6      		std Z+40,__zero_reg__
 2497 0b2e 11A6      		std Z+41,__zero_reg__
 2498               	.LBE792:
 2499               	.LBE791:
 2500               	.LBB793:
 2501               	.LBB794:
 2502               	.LBB795:
 2503               	.LBB796:
 2504               	.LM280:
 2505               	/* #APP */
 2506               	 ;  341 "timebase.c" 1
 2507 0b30 F894      		cli
 2508               	 ;  0 "" 2
 2509               	/* #NOAPP */
 2510               	.LBE796:
 2511               	.LBE795:
 2512               	.LM281:
 2513 0b32 F101      		movw r30,r2
 2514 0b34 8285      		ldd r24,Z+10
 2515 0b36 9385      		ldd r25,Z+11
 2516 0b38 A485      		ldd r26,Z+12
 2517 0b3a B585      		ldd r27,Z+13
 2518               	.LVL167:
 2519               	.LBB797:
 2520               	.LBB798:
 2521               	.LM282:
 2522               	/* #APP */
 2523               	 ;  345 "timebase.c" 1
 2524 0b3c 7894      		sei
 2525               	 ;  0 "" 2
 2526               	/* #NOAPP */
 2527               	.LBE798:
 2528               	.LBE797:
 2529               	.LBE794:
 2530               	.LBE793:
 2531               	.LBB799:
 2532               	.LBB800:
 2533               	.LBB801:
 2534               	.LBB802:
 2535               	.LM283:
 2536               	/* #APP */
 2537               	 ;  341 "timebase.c" 1
 2538 0b3e F894      		cli
 2539               	 ;  0 "" 2
 2540               	/* #NOAPP */
 2541               	.LBE802:
 2542               	.LBE801:
 2543               	.LM284:
 2544 0b40 D101      		movw r26,r2
 2545 0b42 1896      		adiw r26,8
 2546 0b44 CD90      		ld r12,X+
 2547 0b46 DC90      		ld r13,X
 2548 0b48 1997      		sbiw r26,8+1
 2549               	.LVL168:
 2550               	.LBB803:
 2551               	.LBB804:
 2552               	.LM285:
 2553               	/* #APP */
 2554               	 ;  345 "timebase.c" 1
 2555 0b4a 7894      		sei
 2556               	 ;  0 "" 2
 2557               	/* #NOAPP */
 2558               	.LBE804:
 2559               	.LBE803:
 2560               	.LBE800:
 2561               	.LBE799:
 2562               	.LBB805:
 2563               	.LBB806:
 2564               	.LBB807:
 2565               	.LBB808:
 2566               	.LM286:
 2567               	/* #APP */
 2568               	 ;  341 "timebase.c" 1
 2569 0b4c F894      		cli
 2570               	 ;  0 "" 2
 2571               	/* #NOAPP */
 2572               	.LBE808:
 2573               	.LBE807:
 2574               	.LM287:
 2575 0b4e D101      		movw r26,r2
 2576 0b50 1A96      		adiw r26,10
 2577 0b52 2D91      		ld r18,X+
 2578 0b54 3D91      		ld r19,X+
 2579 0b56 4D91      		ld r20,X+
 2580 0b58 5C91      		ld r21,X
 2581 0b5a 1D97      		sbiw r26,10+3
 2582 0b5c 2983      		std Y+1,r18
 2583 0b5e 3A83      		std Y+2,r19
 2584 0b60 4B83      		std Y+3,r20
 2585 0b62 5C83      		std Y+4,r21
 2586               	.LVL169:
 2587               	.LBB809:
 2588               	.LBB810:
 2589               	.LM288:
 2590               	/* #APP */
 2591               	 ;  345 "timebase.c" 1
 2592 0b64 7894      		sei
 2593               	 ;  0 "" 2
 2594               	/* #NOAPP */
 2595               	.LBE810:
 2596               	.LBE809:
 2597               	.LBE806:
 2598               	.LBE805:
 2599               	.LM289:
 2600 0b66 F101      		movw r30,r2
 2601 0b68 2181      		ldd r18,Z+1
 2602 0b6a 3281      		ldd r19,Z+2
 2603 0b6c 40E0      		ldi r20,lo8(0)
 2604 0b6e 50E0      		ldi r21,hi8(0)
 2605 0b70 C501      		movw r24,r10
 2606 0b72 B401      		movw r22,r8
 2607 0b74 0E94 0000 		call __divmodsi4
 2608 0b78 7B01      		movw r14,r22
 2609 0b7a 8C01      		movw r16,r24
 2610               	.LVL170:
 2611               	.LM290:
 2612 0b7c D101      		movw r26,r2
 2613 0b7e 1196      		adiw r26,1
 2614 0b80 2D91      		ld r18,X+
 2615 0b82 3C91      		ld r19,X
 2616 0b84 1297      		sbiw r26,1+1
 2617 0b86 40E0      		ldi r20,lo8(0)
 2618 0b88 50E0      		ldi r21,hi8(0)
 2619 0b8a C501      		movw r24,r10
 2620 0b8c B401      		movw r22,r8
 2621 0b8e 0E94 0000 		call __divmodsi4
 2622 0b92 C901      		movw r24,r18
 2623 0b94 DA01      		movw r26,r20
 2624 0b96 3C01      		movw r6,r24
 2625 0b98 4D01      		movw r8,r26
 2626               	.LVL171:
 2627               	.LM291:
 2628 0b9a 5601      		movw r10,r12
 2629               	.LVL172:
 2630 0b9c CC24      		clr r12
 2631 0b9e DD24      		clr r13
 2632               	.LVL173:
 2633 0ba0 AE0C      		add r10,r14
 2634 0ba2 BF1C      		adc r11,r15
 2635 0ba4 C01E      		adc r12,r16
 2636 0ba6 D11E      		adc r13,r17
 2637               	.LVL174:
 2638               	.LM292:
 2639 0ba8 F101      		movw r30,r2
 2640 0baa 8181      		ldd r24,Z+1
 2641 0bac 9281      		ldd r25,Z+2
 2642               	.LVL175:
 2643 0bae A0E0      		ldi r26,lo8(0)
 2644 0bb0 B0E0      		ldi r27,hi8(0)
 2645 0bb2 A816      		cp r10,r24
 2646 0bb4 B906      		cpc r11,r25
 2647 0bb6 CA06      		cpc r12,r26
 2648 0bb8 DB06      		cpc r13,r27
 2649 0bba 04F0      		brlt .L118
 2650               	.LM293:
 2651 0bbc 0894      		sec
 2652 0bbe 611C      		adc r6,__zero_reg__
 2653 0bc0 711C      		adc r7,__zero_reg__
 2654 0bc2 811C      		adc r8,__zero_reg__
 2655 0bc4 911C      		adc r9,__zero_reg__
 2656               	.LM294:
 2657 0bc6 2181      		ldd r18,Z+1
 2658 0bc8 3281      		ldd r19,Z+2
 2659 0bca 40E0      		ldi r20,lo8(0)
 2660 0bcc 50E0      		ldi r21,hi8(0)
 2661 0bce C601      		movw r24,r12
 2662 0bd0 B501      		movw r22,r10
 2663 0bd2 0E94 0000 		call __divmodsi4
 2664 0bd6 AC01      		movw r20,r24
 2665 0bd8 CB01      		movw r24,r22
 2666 0bda DA01      		movw r26,r20
 2667 0bdc 5C01      		movw r10,r24
 2668 0bde 6D01      		movw r12,r26
 2669               	.L118:
 2670               	.LBB811:
 2671               	.LBB812:
 2672               	.LM295:
 2673 0be0 89E1      		ldi r24,lo8(25)
 2674 0be2 90E0      		ldi r25,hi8(25)
 2675 0be4 489E      		mul r4,r24
 2676 0be6 F001      		movw r30,r0
 2677 0be8 499E      		mul r4,r25
 2678 0bea F00D      		add r31,r0
 2679 0bec 589E      		mul r5,r24
 2680 0bee F00D      		add r31,r0
 2681 0bf0 1124      		clr r1
 2682 0bf2 E20D      		add r30,r2
 2683 0bf4 F31D      		adc r31,r3
 2684 0bf6 2981      		ldd r18,Y+1
 2685 0bf8 3A81      		ldd r19,Y+2
 2686 0bfa 4B81      		ldd r20,Y+3
 2687 0bfc 5C81      		ldd r21,Y+4
 2688 0bfe 260D      		add r18,r6
 2689 0c00 371D      		adc r19,r7
 2690 0c02 481D      		adc r20,r8
 2691 0c04 591D      		adc r21,r9
 2692 0c06 228F      		std Z+26,r18
 2693 0c08 338F      		std Z+27,r19
 2694 0c0a 448F      		std Z+28,r20
 2695 0c0c 558F      		std Z+29,r21
 2696               	.LBE812:
 2697               	.LBE811:
 2698               	.LBB813:
 2699               	.LBB814:
 2700               	.LM296:
 2701 0c0e A68E      		std Z+30,r10
 2702 0c10 B78E      		std Z+31,r11
 2703 0c12 C0A2      		std Z+32,r12
 2704 0c14 D1A2      		std Z+33,r13
 2705               	.LBE814:
 2706               	.LBE813:
 2707               	.LBB815:
 2708               	.LBB816:
 2709               	.LM297:
 2710 0c16 0894      		sec
 2711 0c18 411C      		adc r4,__zero_reg__
 2712 0c1a 511C      		adc r5,__zero_reg__
 2713 0c1c 489E      		mul r4,r24
 2714 0c1e F001      		movw r30,r0
 2715 0c20 499E      		mul r4,r25
 2716 0c22 F00D      		add r31,r0
 2717 0c24 589E      		mul r5,r24
 2718 0c26 F00D      		add r31,r0
 2719 0c28 1124      		clr r1
 2720 0c2a E20D      		add r30,r2
 2721 0c2c F31D      		adc r31,r3
 2722 0c2e 9081      		ld r25,Z
 2723 0c30 892F      		mov r24,r25
 2724 0c32 8695      		lsr r24
 2725 0c34 8F70      		andi r24,lo8(15)
 2726 0c36 8130      		cpi r24,lo8(1)
 2727 0c38 01F0      		breq .L119
 2728               	.LBB817:
 2729               	.LBB818:
 2730               	.LM298:
 2731 0c3a 917E      		andi r25,lo8(-31)
 2732 0c3c 9260      		ori r25,lo8(2)
 2733 0c3e 9083      		st Z,r25
 2734               	.LVL176:
 2735               	.L119:
 2736               	/* epilogue start */
 2737               	.LBE818:
 2738               	.LBE817:
 2739               	.LBE816:
 2740               	.LBE815:
 2741               	.LBE788:
 2742               	.LM299:
 2743 0c40 0F90      		pop __tmp_reg__
 2744 0c42 0F90      		pop __tmp_reg__
 2745 0c44 0F90      		pop __tmp_reg__
 2746 0c46 0F90      		pop __tmp_reg__
 2747 0c48 CF91      		pop r28
 2748 0c4a DF91      		pop r29
 2749 0c4c 1F91      		pop r17
 2750 0c4e 0F91      		pop r16
 2751 0c50 FF90      		pop r15
 2752 0c52 EF90      		pop r14
 2753 0c54 DF90      		pop r13
 2754 0c56 CF90      		pop r12
 2755               	.LVL177:
 2756 0c58 BF90      		pop r11
 2757 0c5a AF90      		pop r10
 2758               	.LVL178:
 2759 0c5c 9F90      		pop r9
 2760 0c5e 8F90      		pop r8
 2761               	.LVL179:
 2762 0c60 7F90      		pop r7
 2763 0c62 6F90      		pop r6
 2764               	.LVL180:
 2765 0c64 5F90      		pop r5
 2766 0c66 4F90      		pop r4
 2767 0c68 3F90      		pop r3
 2768 0c6a 2F90      		pop r2
 2769 0c6c 0895      		ret
 2770               	.LFE46:
 2772               	.global	Timebase_UpCounter_SS_Set_Forcefully
 2774               	Timebase_UpCounter_SS_Set_Forcefully:
 2775               	.LFB47:
 2776               	.LM300:
 2777               	.LVL181:
 2778 0c6e DF92      		push r13
 2779 0c70 EF92      		push r14
 2780 0c72 FF92      		push r15
 2781 0c74 0F93      		push r16
 2782 0c76 1F93      		push r17
 2783               	/* prologue: function */
 2784               	/* frame size = 0 */
 2785 0c78 D82E      		mov r13,r24
 2786 0c7a 7A01      		movw r14,r20
 2787 0c7c 8B01      		movw r16,r22
 2788               	.LM301:
 2789 0c7e 0E94 0000 		call Timebase_UpCounter_SS_Reset
 2790               	.LVL182:
 2791               	.LM302:
 2792 0c82 8D2D      		mov r24,r13
 2793 0c84 B801      		movw r22,r16
 2794 0c86 A701      		movw r20,r14
 2795 0c88 0E94 0000 		call Timebase_UpCounter_SS_Set_Securely
 2796               	/* epilogue start */
 2797               	.LM303:
 2798 0c8c 1F91      		pop r17
 2799 0c8e 0F91      		pop r16
 2800 0c90 FF90      		pop r15
 2801 0c92 EF90      		pop r14
 2802               	.LVL183:
 2803 0c94 DF90      		pop r13
 2804               	.LVL184:
 2805 0c96 0895      		ret
 2806               	.LFE47:
 2808               	.global	Timebase_UpCounter_SS_Update
 2810               	Timebase_UpCounter_SS_Update:
 2811               	.LFB48:
 2812               	.LM304:
 2813               	.LVL185:
 2814 0c98 CF92      		push r12
 2815 0c9a DF92      		push r13
 2816 0c9c EF92      		push r14
 2817 0c9e FF92      		push r15
 2818 0ca0 0F93      		push r16
 2819 0ca2 1F93      		push r17
 2820 0ca4 CF93      		push r28
 2821 0ca6 DF93      		push r29
 2822               	/* prologue: function */
 2823               	/* frame size = 0 */
 2824               	.LBB819:
 2825               	.LBB820:
 2826               	.LM305:
 2827 0ca8 C091 0000 		lds r28,Timebase
 2828 0cac D091 0000 		lds r29,(Timebase)+1
 2829 0cb0 682F      		mov r22,r24
 2830 0cb2 70E0      		ldi r23,lo8(0)
 2831 0cb4 6F5F      		subi r22,lo8(-(1))
 2832 0cb6 7F4F      		sbci r23,hi8(-(1))
 2833 0cb8 89E1      		ldi r24,lo8(25)
 2834 0cba 90E0      		ldi r25,hi8(25)
 2835               	.LVL186:
 2836 0cbc 689F      		mul r22,r24
 2837 0cbe F001      		movw r30,r0
 2838 0cc0 699F      		mul r22,r25
 2839 0cc2 F00D      		add r31,r0
 2840 0cc4 789F      		mul r23,r24
 2841 0cc6 F00D      		add r31,r0
 2842 0cc8 1124      		clr r1
 2843 0cca 6150      		subi r22,lo8(-(-1))
 2844 0ccc 7040      		sbci r23,hi8(-(-1))
 2845 0cce EC0F      		add r30,r28
 2846 0cd0 FD1F      		adc r31,r29
 2847 0cd2 E081      		ld r30,Z
 2848 0cd4 E695      		lsr r30
 2849 0cd6 EF70      		andi r30,lo8(15)
 2850               	.LBE820:
 2851               	.LBE819:
 2852               	.LM306:
 2853 0cd8 E130      		cpi r30,lo8(1)
 2854 0cda 01F0      		breq .+2
 2855 0cdc 00C0      		rjmp .L123
 2856               	.LBB821:
 2857               	.LBB822:
 2858               	.LBB823:
 2859               	.LBB824:
 2860               	.LM307:
 2861               	/* #APP */
 2862               	 ;  341 "timebase.c" 1
 2863 0cde F894      		cli
 2864               	 ;  0 "" 2
 2865               	/* #NOAPP */
 2866               	.LBE824:
 2867               	.LBE823:
 2868               	.LM308:
 2869 0ce0 8A85      		ldd r24,Y+10
 2870 0ce2 9B85      		ldd r25,Y+11
 2871 0ce4 AC85      		ldd r26,Y+12
 2872 0ce6 BD85      		ldd r27,Y+13
 2873               	.LVL187:
 2874               	.LBB825:
 2875               	.LBB826:
 2876               	.LM309:
 2877               	/* #APP */
 2878               	 ;  345 "timebase.c" 1
 2879 0ce8 7894      		sei
 2880               	 ;  0 "" 2
 2881               	/* #NOAPP */
 2882               	.LBE826:
 2883               	.LBE825:
 2884               	.LBE822:
 2885               	.LBE821:
 2886               	.LBB827:
 2887               	.LBB828:
 2888               	.LM310:
 2889 0cea 89E1      		ldi r24,lo8(25)
 2890 0cec C82E      		mov r12,r24
 2891 0cee D12C      		mov r13,__zero_reg__
 2892               	.LVL188:
 2893 0cf0 6C9D      		mul r22,r12
 2894 0cf2 F001      		movw r30,r0
 2895 0cf4 6D9D      		mul r22,r13
 2896 0cf6 F00D      		add r31,r0
 2897 0cf8 7C9D      		mul r23,r12
 2898 0cfa F00D      		add r31,r0
 2899 0cfc 1124      		clr r1
 2900 0cfe EC0F      		add r30,r28
 2901 0d00 FD1F      		adc r31,r29
 2902 0d02 E2A0      		ldd r14,Z+34
 2903 0d04 F3A0      		ldd r15,Z+35
 2904 0d06 04A1      		ldd r16,Z+36
 2905 0d08 15A1      		ldd r17,Z+37
 2906 0d0a 26A1      		ldd r18,Z+38
 2907 0d0c 37A1      		ldd r19,Z+39
 2908 0d0e 40A5      		ldd r20,Z+40
 2909 0d10 51A5      		ldd r21,Z+41
 2910 0d12 D801      		movw r26,r16
 2911 0d14 C701      		movw r24,r14
 2912 0d16 821B      		sub r24,r18
 2913 0d18 930B      		sbc r25,r19
 2914 0d1a A40B      		sbc r26,r20
 2915 0d1c B50B      		sbc r27,r21
 2916 0d1e 82A7      		std Z+42,r24
 2917 0d20 93A7      		std Z+43,r25
 2918 0d22 A4A7      		std Z+44,r26
 2919 0d24 B5A7      		std Z+45,r27
 2920               	.LBE828:
 2921               	.LBE827:
 2922               	.LM311:
 2923 0d26 1216      		cp __zero_reg__,r18
 2924 0d28 1306      		cpc __zero_reg__,r19
 2925 0d2a 1406      		cpc __zero_reg__,r20
 2926 0d2c 1506      		cpc __zero_reg__,r21
 2927 0d2e 04F0      		brlt .L125
 2928               	.LBB829:
 2929               	.LBB830:
 2930               	.LM312:
 2931 0d30 16A2      		std Z+38,__zero_reg__
 2932 0d32 17A2      		std Z+39,__zero_reg__
 2933 0d34 10A6      		std Z+40,__zero_reg__
 2934 0d36 11A6      		std Z+41,__zero_reg__
 2935               	.LBE830:
 2936               	.LBE829:
 2937               	.LBB831:
 2938               	.LBB832:
 2939               	.LM313:
 2940 0d38 E2A6      		std Z+42,r14
 2941 0d3a F3A6      		std Z+43,r15
 2942 0d3c 04A7      		std Z+44,r16
 2943 0d3e 15A7      		std Z+45,r17
 2944               	.LBE832:
 2945               	.LBE831:
 2946               	.LBB833:
 2947               	.LBB834:
 2948               	.LM314:
 2949 0d40 6F5F      		subi r22,lo8(-(1))
 2950 0d42 7F4F      		sbci r23,hi8(-(1))
 2951 0d44 6C9D      		mul r22,r12
 2952 0d46 F001      		movw r30,r0
 2953 0d48 6D9D      		mul r22,r13
 2954 0d4a F00D      		add r31,r0
 2955 0d4c 7C9D      		mul r23,r12
 2956 0d4e F00D      		add r31,r0
 2957 0d50 1124      		clr r1
 2958 0d52 EC0F      		add r30,r28
 2959 0d54 FD1F      		adc r31,r29
 2960 0d56 8081      		ld r24,Z
 2961 0d58 817E      		andi r24,lo8(-31)
 2962 0d5a 8860      		ori r24,lo8(8)
 2963 0d5c 8083      		st Z,r24
 2964 0d5e 00C0      		rjmp .L125
 2965               	.L123:
 2966               	.LBE834:
 2967               	.LBE833:
 2968               	.LM315:
 2969 0d60 E230      		cpi r30,lo8(2)
 2970 0d62 01F4      		brne .L125
 2971               	.LBB835:
 2972               	.LBB836:
 2973               	.LBB837:
 2974               	.LBB838:
 2975               	.LM316:
 2976               	/* #APP */
 2977               	 ;  341 "timebase.c" 1
 2978 0d64 F894      		cli
 2979               	 ;  0 "" 2
 2980               	/* #NOAPP */
 2981               	.LBE838:
 2982               	.LBE837:
 2983               	.LM317:
 2984 0d66 8A85      		ldd r24,Y+10
 2985 0d68 9B85      		ldd r25,Y+11
 2986 0d6a AC85      		ldd r26,Y+12
 2987 0d6c BD85      		ldd r27,Y+13
 2988               	.LVL189:
 2989               	.LBB839:
 2990               	.LBB840:
 2991               	.LM318:
 2992               	/* #APP */
 2993               	 ;  345 "timebase.c" 1
 2994 0d6e 7894      		sei
 2995               	 ;  0 "" 2
 2996               	/* #NOAPP */
 2997               	.LBE840:
 2998               	.LBE839:
 2999               	.LBE836:
 3000               	.LBE835:
 3001               	.LBB841:
 3002               	.LBB842:
 3003               	.LM319:
 3004 0d70 89E1      		ldi r24,lo8(25)
 3005 0d72 90E0      		ldi r25,hi8(25)
 3006               	.LVL190:
 3007 0d74 689F      		mul r22,r24
 3008 0d76 F001      		movw r30,r0
 3009 0d78 699F      		mul r22,r25
 3010 0d7a F00D      		add r31,r0
 3011 0d7c 789F      		mul r23,r24
 3012 0d7e F00D      		add r31,r0
 3013 0d80 1124      		clr r1
 3014 0d82 EC0F      		add r30,r28
 3015 0d84 FD1F      		adc r31,r29
 3016 0d86 82A1      		ldd r24,Z+34
 3017 0d88 93A1      		ldd r25,Z+35
 3018 0d8a A4A1      		ldd r26,Z+36
 3019 0d8c B5A1      		ldd r27,Z+37
 3020 0d8e 26A1      		ldd r18,Z+38
 3021 0d90 37A1      		ldd r19,Z+39
 3022 0d92 40A5      		ldd r20,Z+40
 3023 0d94 51A5      		ldd r21,Z+41
 3024 0d96 821B      		sub r24,r18
 3025 0d98 930B      		sbc r25,r19
 3026 0d9a A40B      		sbc r26,r20
 3027 0d9c B50B      		sbc r27,r21
 3028 0d9e 82A7      		std Z+42,r24
 3029 0da0 93A7      		std Z+43,r25
 3030 0da2 A4A7      		std Z+44,r26
 3031 0da4 B5A7      		std Z+45,r27
 3032               	.L125:
 3033               	/* epilogue start */
 3034               	.LBE842:
 3035               	.LBE841:
 3036               	.LM320:
 3037 0da6 DF91      		pop r29
 3038 0da8 CF91      		pop r28
 3039 0daa 1F91      		pop r17
 3040 0dac 0F91      		pop r16
 3041 0dae FF90      		pop r15
 3042 0db0 EF90      		pop r14
 3043 0db2 DF90      		pop r13
 3044 0db4 CF90      		pop r12
 3045 0db6 0895      		ret
 3046               	.LFE48:
 3048               	.global	Timebase_UpCounter_SS_Expired
 3050               	Timebase_UpCounter_SS_Expired:
 3051               	.LFB49:
 3052               	.LM321:
 3053               	.LVL191:
 3054               	/* prologue: function */
 3055               	/* frame size = 0 */
 3056               	.LM322:
 3057 0db8 40E0      		ldi r20,lo8(0)
 3058 0dba E091 0000 		lds r30,Timebase
 3059 0dbe F091 0000 		lds r31,(Timebase)+1
 3060 0dc2 90E0      		ldi r25,lo8(0)
 3061               	.LVL192:
 3062 0dc4 0196      		adiw r24,1
 3063               	.LVL193:
 3064 0dc6 29E1      		ldi r18,lo8(25)
 3065 0dc8 30E0      		ldi r19,hi8(25)
 3066 0dca BC01      		movw r22,r24
 3067 0dcc 629F      		mul r22,r18
 3068 0dce C001      		movw r24,r0
 3069 0dd0 639F      		mul r22,r19
 3070 0dd2 900D      		add r25,r0
 3071 0dd4 729F      		mul r23,r18
 3072 0dd6 900D      		add r25,r0
 3073 0dd8 1124      		clr r1
 3074               	.LVL194:
 3075 0dda E80F      		add r30,r24
 3076 0ddc F91F      		adc r31,r25
 3077 0dde 8081      		ld r24,Z
 3078 0de0 8695      		lsr r24
 3079 0de2 8F70      		andi r24,lo8(15)
 3080 0de4 8430      		cpi r24,lo8(4)
 3081 0de6 01F4      		brne .L127
 3082 0de8 41E0      		ldi r20,lo8(1)
 3083               	.L127:
 3084               	.LM323:
 3085 0dea 842F      		mov r24,r20
 3086               	/* epilogue start */
 3087 0dec 0895      		ret
 3088               	.LFE49:
 3090               	.global	Timebase_UpCounter_SS_Expired_Event
 3092               	Timebase_UpCounter_SS_Expired_Event:
 3093               	.LFB50:
 3094               	.LM324:
 3095               	.LVL195:
 3096               	/* prologue: function */
 3097               	/* frame size = 0 */
 3098 0dee 482F      		mov r20,r24
 3099               	.LM325:
 3100 0df0 E091 0000 		lds r30,Timebase
 3101 0df4 F091 0000 		lds r31,(Timebase)+1
 3102 0df8 90E0      		ldi r25,lo8(0)
 3103               	.LVL196:
 3104 0dfa 0196      		adiw r24,1
 3105               	.LVL197:
 3106 0dfc 29E1      		ldi r18,lo8(25)
 3107 0dfe 30E0      		ldi r19,hi8(25)
 3108 0e00 BC01      		movw r22,r24
 3109 0e02 629F      		mul r22,r18
 3110 0e04 C001      		movw r24,r0
 3111 0e06 639F      		mul r22,r19
 3112 0e08 900D      		add r25,r0
 3113 0e0a 729F      		mul r23,r18
 3114 0e0c 900D      		add r25,r0
 3115 0e0e 1124      		clr r1
 3116               	.LVL198:
 3117 0e10 E80F      		add r30,r24
 3118 0e12 F91F      		adc r31,r25
 3119 0e14 8081      		ld r24,Z
 3120 0e16 8695      		lsr r24
 3121 0e18 8F70      		andi r24,lo8(15)
 3122 0e1a 8430      		cpi r24,lo8(4)
 3123 0e1c 01F0      		breq .L130
 3124 0e1e 80E0      		ldi r24,lo8(0)
 3125 0e20 0895      		ret
 3126               	.L130:
 3127               	.LBB843:
 3128               	.LBB844:
 3129               	.LM326:
 3130 0e22 842F      		mov r24,r20
 3131               	.LVL199:
 3132 0e24 0E94 0000 		call Timebase_UpCounter_SS_Reset
 3133               	.LVL200:
 3134 0e28 81E0      		ldi r24,lo8(1)
 3135               	.LBE844:
 3136               	.LBE843:
 3137               	.LM327:
 3138 0e2a 0895      		ret
 3139               	.LFE50:
 3141               	.global	Timebase_UpCounter_SS_Set_Period_Value_Securely
 3143               	Timebase_UpCounter_SS_Set_Period_Value_Securely:
 3144               	.LFB51:
 3145               	.LM328:
 3146               	.LVL201:
 3147 0e2c 0F93      		push r16
 3148 0e2e 1F93      		push r17
 3149 0e30 CF93      		push r28
 3150 0e32 DF93      		push r29
 3151               	/* prologue: function */
 3152               	/* frame size = 0 */
 3153               	.LBB845:
 3154               	.LBB846:
 3155               	.LM329:
 3156 0e34 A091 0000 		lds r26,Timebase
 3157 0e38 B091 0000 		lds r27,(Timebase)+1
 3158 0e3c 282F      		mov r18,r24
 3159 0e3e 30E0      		ldi r19,lo8(0)
 3160               	.LBE846:
 3161               	.LBE845:
 3162               	.LM330:
 3163 0e40 2F5F      		subi r18,lo8(-(1))
 3164 0e42 3F4F      		sbci r19,hi8(-(1))
 3165 0e44 09E1      		ldi r16,lo8(25)
 3166 0e46 10E0      		ldi r17,hi8(25)
 3167 0e48 209F      		mul r18,r16
 3168 0e4a E001      		movw r28,r0
 3169 0e4c 219F      		mul r18,r17
 3170 0e4e D00D      		add r29,r0
 3171 0e50 309F      		mul r19,r16
 3172 0e52 D00D      		add r29,r0
 3173 0e54 1124      		clr r1
 3174 0e56 2150      		subi r18,lo8(-(-1))
 3175 0e58 3040      		sbci r19,hi8(-(-1))
 3176 0e5a CA0F      		add r28,r26
 3177 0e5c DB1F      		adc r29,r27
 3178 0e5e 8881      		ld r24,Y
 3179               	.LVL202:
 3180 0e60 80FD      		sbrc r24,0
 3181 0e62 00C0      		rjmp .L135
 3182               	.LBB847:
 3183               	.LBB848:
 3184               	.LM331:
 3185 0e64 209F      		mul r18,r16
 3186 0e66 F001      		movw r30,r0
 3187 0e68 219F      		mul r18,r17
 3188 0e6a F00D      		add r31,r0
 3189 0e6c 309F      		mul r19,r16
 3190 0e6e F00D      		add r31,r0
 3191 0e70 1124      		clr r1
 3192 0e72 EA0F      		add r30,r26
 3193 0e74 FB1F      		adc r31,r27
 3194 0e76 82A5      		ldd r24,Z+42
 3195 0e78 93A5      		ldd r25,Z+43
 3196 0e7a A4A5      		ldd r26,Z+44
 3197 0e7c B5A5      		ldd r27,Z+45
 3198 0e7e 840F      		add r24,r20
 3199 0e80 951F      		adc r25,r21
 3200 0e82 A61F      		adc r26,r22
 3201 0e84 B71F      		adc r27,r23
 3202 0e86 86A7      		std Z+46,r24
 3203 0e88 97A7      		std Z+47,r25
 3204 0e8a A0AB      		std Z+48,r26
 3205 0e8c B1AB      		std Z+49,r27
 3206               	.LBE848:
 3207               	.LBE847:
 3208               	.LBB849:
 3209               	.LBB850:
 3210               	.LM332:
 3211 0e8e 8881      		ld r24,Y
 3212 0e90 8160      		ori r24,lo8(1)
 3213 0e92 8883      		st Y,r24
 3214               	.L135:
 3215               	/* epilogue start */
 3216               	.LBE850:
 3217               	.LBE849:
 3218               	.LM333:
 3219 0e94 DF91      		pop r29
 3220 0e96 CF91      		pop r28
 3221 0e98 1F91      		pop r17
 3222 0e9a 0F91      		pop r16
 3223 0e9c 0895      		ret
 3224               	.LFE51:
 3226               	.global	Timebase_UpCounter_SS_Get_Remaining_Period_Value
 3228               	Timebase_UpCounter_SS_Get_Remaining_Period_Value:
 3229               	.LFB52:
 3230               	.LM334:
 3231               	.LVL203:
 3232               	/* prologue: function */
 3233               	/* frame size = 0 */
 3234               	.LBB851:
 3235               	.LBB852:
 3236               	.LM335:
 3237 0e9e E091 0000 		lds r30,Timebase
 3238 0ea2 F091 0000 		lds r31,(Timebase)+1
 3239 0ea6 90E0      		ldi r25,lo8(0)
 3240               	.LBE852:
 3241               	.LBE851:
 3242               	.LM336:
 3243 0ea8 29E1      		ldi r18,lo8(25)
 3244 0eaa 30E0      		ldi r19,hi8(25)
 3245 0eac AC01      		movw r20,r24
 3246               	.LVL204:
 3247 0eae 429F      		mul r20,r18
 3248 0eb0 C001      		movw r24,r0
 3249 0eb2 439F      		mul r20,r19
 3250 0eb4 900D      		add r25,r0
 3251 0eb6 529F      		mul r21,r18
 3252 0eb8 900D      		add r25,r0
 3253 0eba 1124      		clr r1
 3254 0ebc E80F      		add r30,r24
 3255 0ebe F91F      		adc r31,r25
 3256 0ec0 26A5      		ldd r18,Z+46
 3257 0ec2 37A5      		ldd r19,Z+47
 3258 0ec4 40A9      		ldd r20,Z+48
 3259 0ec6 51A9      		ldd r21,Z+49
 3260               	.LVL205:
 3261 0ec8 82A5      		ldd r24,Z+42
 3262 0eca 93A5      		ldd r25,Z+43
 3263 0ecc A4A5      		ldd r26,Z+44
 3264 0ece B5A5      		ldd r27,Z+45
 3265 0ed0 281B      		sub r18,r24
 3266 0ed2 390B      		sbc r19,r25
 3267 0ed4 4A0B      		sbc r20,r26
 3268 0ed6 5B0B      		sbc r21,r27
 3269 0ed8 57FF      		sbrs r21,7
 3270 0eda 00C0      		rjmp .L137
 3271 0edc 20E0      		ldi r18,lo8(0)
 3272 0ede 30E0      		ldi r19,hi8(0)
 3273 0ee0 40E0      		ldi r20,hlo8(0)
 3274 0ee2 50E0      		ldi r21,hhi8(0)
 3275               	.L137:
 3276               	.LM337:
 3277 0ee4 B901      		movw r22,r18
 3278               	.LVL206:
 3279 0ee6 CA01      		movw r24,r20
 3280               	/* epilogue start */
 3281 0ee8 0895      		ret
 3282               	.LFE52:
 3284               	.global	Timebase_UpCounter_SS_Period_Value_Expired
 3286               	Timebase_UpCounter_SS_Period_Value_Expired:
 3287               	.LFB53:
 3288               	.LM338:
 3289               	.LVL207:
 3290 0eea CF93      		push r28
 3291 0eec DF93      		push r29
 3292               	/* prologue: function */
 3293               	/* frame size = 0 */
 3294               	.LBB853:
 3295               	.LBB854:
 3296               	.LBB855:
 3297               	.LBB856:
 3298               	.LM339:
 3299 0eee C091 0000 		lds r28,Timebase
 3300 0ef2 D091 0000 		lds r29,(Timebase)+1
 3301 0ef6 682F      		mov r22,r24
 3302 0ef8 70E0      		ldi r23,lo8(0)
 3303               	.LBE856:
 3304               	.LBE855:
 3305               	.LM340:
 3306 0efa 89E1      		ldi r24,lo8(25)
 3307 0efc 90E0      		ldi r25,hi8(25)
 3308               	.LVL208:
 3309 0efe 689F      		mul r22,r24
 3310 0f00 F001      		movw r30,r0
 3311 0f02 699F      		mul r22,r25
 3312 0f04 F00D      		add r31,r0
 3313 0f06 789F      		mul r23,r24
 3314 0f08 F00D      		add r31,r0
 3315 0f0a 1124      		clr r1
 3316 0f0c EC0F      		add r30,r28
 3317 0f0e FD1F      		adc r31,r29
 3318 0f10 26A5      		ldd r18,Z+46
 3319 0f12 37A5      		ldd r19,Z+47
 3320 0f14 40A9      		ldd r20,Z+48
 3321 0f16 51A9      		ldd r21,Z+49
 3322               	.LVL209:
 3323 0f18 82A5      		ldd r24,Z+42
 3324 0f1a 93A5      		ldd r25,Z+43
 3325 0f1c A4A5      		ldd r26,Z+44
 3326 0f1e B5A5      		ldd r27,Z+45
 3327 0f20 281B      		sub r18,r24
 3328 0f22 390B      		sbc r19,r25
 3329 0f24 4A0B      		sbc r20,r26
 3330 0f26 5B0B      		sbc r21,r27
 3331               	.LM341:
 3332 0f28 57FD      		sbrc r21,7
 3333 0f2a 00C0      		rjmp .L140
 3334               	.LBE854:
 3335               	.LBE853:
 3336               	.LM342:
 3337 0f2c 2115      		cp r18,__zero_reg__
 3338 0f2e 3105      		cpc r19,__zero_reg__
 3339 0f30 4105      		cpc r20,__zero_reg__
 3340 0f32 5105      		cpc r21,__zero_reg__
 3341 0f34 01F0      		breq .L140
 3342 0f36 20E0      		ldi r18,lo8(0)
 3343               	.LVL210:
 3344 0f38 00C0      		rjmp .L141
 3345               	.LVL211:
 3346               	.L140:
 3347 0f3a 20E0      		ldi r18,lo8(0)
 3348               	.LVL212:
 3349 0f3c 6F5F      		subi r22,lo8(-(1))
 3350 0f3e 7F4F      		sbci r23,hi8(-(1))
 3351 0f40 89E1      		ldi r24,lo8(25)
 3352 0f42 90E0      		ldi r25,hi8(25)
 3353 0f44 AC01      		movw r20,r24
 3354 0f46 649F      		mul r22,r20
 3355 0f48 C001      		movw r24,r0
 3356 0f4a 659F      		mul r22,r21
 3357 0f4c 900D      		add r25,r0
 3358 0f4e 749F      		mul r23,r20
 3359 0f50 900D      		add r25,r0
 3360 0f52 1124      		clr r1
 3361 0f54 C80F      		add r28,r24
 3362 0f56 D91F      		adc r29,r25
 3363 0f58 8881      		ld r24,Y
 3364 0f5a 80FF      		sbrs r24,0
 3365 0f5c 21E0      		ldi r18,lo8(1)
 3366               	.L142:
 3367 0f5e 81E0      		ldi r24,lo8(1)
 3368 0f60 2827      		eor r18,r24
 3369               	.L141:
 3370               	.LM343:
 3371 0f62 822F      		mov r24,r18
 3372               	/* epilogue start */
 3373 0f64 DF91      		pop r29
 3374 0f66 CF91      		pop r28
 3375 0f68 0895      		ret
 3376               	.LFE53:
 3378               	.global	Timebase_UpCounter_SS_Period_Value_Expired_Event
 3380               	Timebase_UpCounter_SS_Period_Value_Expired_Event:
 3381               	.LFB54:
 3382               	.LM344:
 3383               	.LVL213:
 3384 0f6a 1F93      		push r17
 3385               	/* prologue: function */
 3386               	/* frame size = 0 */
 3387 0f6c 182F      		mov r17,r24
 3388               	.LM345:
 3389 0f6e 0E94 0000 		call Timebase_UpCounter_SS_Period_Value_Expired
 3390               	.LVL214:
 3391 0f72 8130      		cpi r24,lo8(1)
 3392 0f74 01F0      		breq .L145
 3393 0f76 80E0      		ldi r24,lo8(0)
 3394 0f78 00C0      		rjmp .L146
 3395               	.L145:
 3396               	.LBB857:
 3397               	.LBB858:
 3398               	.LM346:
 3399 0f7a E091 0000 		lds r30,Timebase
 3400 0f7e F091 0000 		lds r31,(Timebase)+1
 3401 0f82 812F      		mov r24,r17
 3402 0f84 90E0      		ldi r25,lo8(0)
 3403               	.LVL215:
 3404 0f86 0196      		adiw r24,1
 3405               	.LVL216:
 3406 0f88 29E1      		ldi r18,lo8(25)
 3407 0f8a 30E0      		ldi r19,hi8(25)
 3408 0f8c AC01      		movw r20,r24
 3409 0f8e 429F      		mul r20,r18
 3410 0f90 C001      		movw r24,r0
 3411 0f92 439F      		mul r20,r19
 3412 0f94 900D      		add r25,r0
 3413 0f96 529F      		mul r21,r18
 3414 0f98 900D      		add r25,r0
 3415 0f9a 1124      		clr r1
 3416               	.LVL217:
 3417 0f9c E80F      		add r30,r24
 3418 0f9e F91F      		adc r31,r25
 3419 0fa0 8081      		ld r24,Z
 3420 0fa2 8E7F      		andi r24,lo8(-2)
 3421 0fa4 8083      		st Z,r24
 3422 0fa6 81E0      		ldi r24,lo8(1)
 3423               	.LVL218:
 3424               	.L146:
 3425               	/* epilogue start */
 3426               	.LBE858:
 3427               	.LBE857:
 3428               	.LM347:
 3429 0fa8 1F91      		pop r17
 3430               	.LVL219:
 3431 0faa 0895      		ret
 3432               	.LFE54:
 3434               	.global	Timebase_UpCounter_SS_Update_All
 3436               	Timebase_UpCounter_SS_Update_All:
 3437               	.LFB55:
 3438               	.LM348:
 3439               	/* prologue: function */
 3440               	/* frame size = 0 */
 3441               	.LBB859:
 3442               	.LM349:
 3443 0fac 80E0      		ldi r24,lo8(0)
 3444 0fae 0E94 0000 		call Timebase_UpCounter_SS_Update
 3445               	/* epilogue start */
 3446               	.LBE859:
 3447               	.LM350:
 3448 0fb2 0895      		ret
 3449               	.LFE55:
 3451               	.global	Timebase_UpCounter_SS_Reset_All
 3453               	Timebase_UpCounter_SS_Reset_All:
 3454               	.LFB56:
 3455               	.LM351:
 3456               	/* prologue: function */
 3457               	/* frame size = 0 */
 3458               	.LBB860:
 3459               	.LM352:
 3460 0fb4 80E0      		ldi r24,lo8(0)
 3461 0fb6 0E94 0000 		call Timebase_UpCounter_SS_Reset
 3462               	/* epilogue start */
 3463               	.LBE860:
 3464               	.LM353:
 3465 0fba 0895      		ret
 3466               	.LFE56:
 3468               	.global	Timebase_UpCounter_Get_Status
 3470               	Timebase_UpCounter_Get_Status:
 3471               	.LFB57:
 3472               	.LM354:
 3473               	.LVL220:
 3474               	/* prologue: function */
 3475               	/* frame size = 0 */
 3476               	.LM355:
 3477 0fbc E091 0000 		lds r30,Timebase
 3478 0fc0 F091 0000 		lds r31,(Timebase)+1
 3479 0fc4 90E0      		ldi r25,lo8(0)
 3480               	.LVL221:
 3481 0fc6 25E1      		ldi r18,lo8(21)
 3482 0fc8 30E0      		ldi r19,hi8(21)
 3483 0fca AC01      		movw r20,r24
 3484 0fcc 429F      		mul r20,r18
 3485 0fce C001      		movw r24,r0
 3486 0fd0 439F      		mul r20,r19
 3487 0fd2 900D      		add r25,r0
 3488 0fd4 529F      		mul r21,r18
 3489 0fd6 900D      		add r25,r0
 3490 0fd8 1124      		clr r1
 3491               	.LVL222:
 3492 0fda E80F      		add r30,r24
 3493 0fdc F91F      		adc r31,r25
 3494 0fde 82A9      		ldd r24,Z+50
 3495 0fe0 8695      		lsr r24
 3496               	.LM356:
 3497 0fe2 8F70      		andi r24,lo8(15)
 3498               	/* epilogue start */
 3499 0fe4 0895      		ret
 3500               	.LFE57:
 3502               	.global	Timebase_UpCounter_Set_Status
 3504               	Timebase_UpCounter_Set_Status:
 3505               	.LFB58:
 3506               	.LM357:
 3507               	.LVL223:
 3508               	/* prologue: function */
 3509               	/* frame size = 0 */
 3510               	.LM358:
 3511 0fe6 E091 0000 		lds r30,Timebase
 3512 0fea F091 0000 		lds r31,(Timebase)+1
 3513 0fee 90E0      		ldi r25,lo8(0)
 3514               	.LVL224:
 3515 0ff0 25E1      		ldi r18,lo8(21)
 3516 0ff2 30E0      		ldi r19,hi8(21)
 3517 0ff4 AC01      		movw r20,r24
 3518 0ff6 429F      		mul r20,r18
 3519 0ff8 C001      		movw r24,r0
 3520 0ffa 439F      		mul r20,r19
 3521 0ffc 900D      		add r25,r0
 3522 0ffe 529F      		mul r21,r18
 3523 1000 900D      		add r25,r0
 3524 1002 1124      		clr r1
 3525               	.LVL225:
 3526 1004 E80F      		add r30,r24
 3527 1006 F91F      		adc r31,r25
 3528 1008 6F70      		andi r22,lo8(15)
 3529               	.LVL226:
 3530 100a 660F      		lsl r22
 3531 100c 82A9      		ldd r24,Z+50
 3532 100e 817E      		andi r24,lo8(-31)
 3533 1010 862B      		or r24,r22
 3534 1012 82AB      		std Z+50,r24
 3535               	/* epilogue start */
 3536               	.LM359:
 3537 1014 0895      		ret
 3538               	.LFE58:
 3540               	.global	Timebase_UpCounter_Get_Value
 3542               	Timebase_UpCounter_Get_Value:
 3543               	.LFB59:
 3544               	.LM360:
 3545               	.LVL227:
 3546               	/* prologue: function */
 3547               	/* frame size = 0 */
 3548               	.LM361:
 3549 1016 E091 0000 		lds r30,Timebase
 3550 101a F091 0000 		lds r31,(Timebase)+1
 3551 101e 90E0      		ldi r25,lo8(0)
 3552               	.LVL228:
 3553 1020 25E1      		ldi r18,lo8(21)
 3554 1022 30E0      		ldi r19,hi8(21)
 3555 1024 AC01      		movw r20,r24
 3556 1026 429F      		mul r20,r18
 3557 1028 C001      		movw r24,r0
 3558 102a 439F      		mul r20,r19
 3559 102c 900D      		add r25,r0
 3560 102e 529F      		mul r21,r18
 3561 1030 900D      		add r25,r0
 3562 1032 1124      		clr r1
 3563               	.LVL229:
 3564 1034 E80F      		add r30,r24
 3565 1036 F91F      		adc r31,r25
 3566 1038 FF96      		adiw r30,63
 3567 103a 6081      		ld r22,Z
 3568 103c 7181      		ldd r23,Z+1
 3569               	.LM362:
 3570 103e 8281      		ldd r24,Z+2
 3571 1040 9381      		ldd r25,Z+3
 3572               	.LVL230:
 3573               	/* epilogue start */
 3574 1042 0895      		ret
 3575               	.LFE59:
 3577               	.global	Timebase_UpCounter_Set_Value
 3579               	Timebase_UpCounter_Set_Value:
 3580               	.LFB60:
 3581               	.LM363:
 3582               	.LVL231:
 3583               	/* prologue: function */
 3584               	/* frame size = 0 */
 3585               	.LM364:
 3586 1044 E091 0000 		lds r30,Timebase
 3587 1048 F091 0000 		lds r31,(Timebase)+1
 3588 104c 90E0      		ldi r25,lo8(0)
 3589               	.LVL232:
 3590 104e 25E1      		ldi r18,lo8(21)
 3591 1050 30E0      		ldi r19,hi8(21)
 3592 1052 DC01      		movw r26,r24
 3593 1054 A29F      		mul r26,r18
 3594 1056 C001      		movw r24,r0
 3595 1058 A39F      		mul r26,r19
 3596 105a 900D      		add r25,r0
 3597 105c B29F      		mul r27,r18
 3598 105e 900D      		add r25,r0
 3599 1060 1124      		clr r1
 3600               	.LVL233:
 3601 1062 E80F      		add r30,r24
 3602 1064 F91F      		adc r31,r25
 3603 1066 FF96      		adiw r30,63
 3604 1068 4083      		st Z,r20
 3605 106a 5183      		std Z+1,r21
 3606 106c 6283      		std Z+2,r22
 3607 106e 7383      		std Z+3,r23
 3608               	/* epilogue start */
 3609               	.LM365:
 3610 1070 0895      		ret
 3611               	.LFE60:
 3613               	.global	Timebase_UpCounter_Get_EndValue
 3615               	Timebase_UpCounter_Get_EndValue:
 3616               	.LFB61:
 3617               	.LM366:
 3618               	.LVL234:
 3619               	/* prologue: function */
 3620               	/* frame size = 0 */
 3621               	.LM367:
 3622 1072 E091 0000 		lds r30,Timebase
 3623 1076 F091 0000 		lds r31,(Timebase)+1
 3624 107a 90E0      		ldi r25,lo8(0)
 3625               	.LVL235:
 3626 107c 25E1      		ldi r18,lo8(21)
 3627 107e 30E0      		ldi r19,hi8(21)
 3628 1080 AC01      		movw r20,r24
 3629 1082 429F      		mul r20,r18
 3630 1084 C001      		movw r24,r0
 3631 1086 439F      		mul r20,r19
 3632 1088 900D      		add r25,r0
 3633 108a 529F      		mul r21,r18
 3634 108c 900D      		add r25,r0
 3635 108e 1124      		clr r1
 3636               	.LVL236:
 3637 1090 E80F      		add r30,r24
 3638 1092 F91F      		adc r31,r25
 3639 1094 DF01      		movw r26,r30
 3640 1096 D396      		adiw r26,51
 3641 1098 63A9      		ldd r22,Z+51
 3642 109a 1196      		adiw r26,1
 3643 109c 7C91      		ld r23,X
 3644 109e 1197      		sbiw r26,1
 3645               	.LM368:
 3646 10a0 1296      		adiw r26,2
 3647 10a2 8C91      		ld r24,X
 3648 10a4 1297      		sbiw r26,2
 3649 10a6 1396      		adiw r26,3
 3650 10a8 9C91      		ld r25,X
 3651               	.LVL237:
 3652               	/* epilogue start */
 3653 10aa 0895      		ret
 3654               	.LFE61:
 3656               	.global	Timebase_UpCounter_Set_EndValue
 3658               	Timebase_UpCounter_Set_EndValue:
 3659               	.LFB62:
 3660               	.LM369:
 3661               	.LVL238:
 3662               	/* prologue: function */
 3663               	/* frame size = 0 */
 3664               	.LM370:
 3665 10ac E091 0000 		lds r30,Timebase
 3666 10b0 F091 0000 		lds r31,(Timebase)+1
 3667 10b4 90E0      		ldi r25,lo8(0)
 3668               	.LVL239:
 3669 10b6 25E1      		ldi r18,lo8(21)
 3670 10b8 30E0      		ldi r19,hi8(21)
 3671 10ba DC01      		movw r26,r24
 3672 10bc A29F      		mul r26,r18
 3673 10be C001      		movw r24,r0
 3674 10c0 A39F      		mul r26,r19
 3675 10c2 900D      		add r25,r0
 3676 10c4 B29F      		mul r27,r18
 3677 10c6 900D      		add r25,r0
 3678 10c8 1124      		clr r1
 3679               	.LVL240:
 3680 10ca E80F      		add r30,r24
 3681 10cc F91F      		adc r31,r25
 3682 10ce 43AB      		std Z+51,r20
 3683 10d0 54AB      		std Z+52,r21
 3684 10d2 65AB      		std Z+53,r22
 3685 10d4 76AB      		std Z+54,r23
 3686               	/* epilogue start */
 3687               	.LM371:
 3688 10d6 0895      		ret
 3689               	.LFE62:
 3691               	.global	Timebase_UpCounter_Get_TargetValue
 3693               	Timebase_UpCounter_Get_TargetValue:
 3694               	.LFB63:
 3695               	.LM372:
 3696               	.LVL241:
 3697               	/* prologue: function */
 3698               	/* frame size = 0 */
 3699               	.LM373:
 3700 10d8 E091 0000 		lds r30,Timebase
 3701 10dc F091 0000 		lds r31,(Timebase)+1
 3702 10e0 90E0      		ldi r25,lo8(0)
 3703               	.LVL242:
 3704 10e2 25E1      		ldi r18,lo8(21)
 3705 10e4 30E0      		ldi r19,hi8(21)
 3706 10e6 AC01      		movw r20,r24
 3707 10e8 429F      		mul r20,r18
 3708 10ea C001      		movw r24,r0
 3709 10ec 439F      		mul r20,r19
 3710 10ee 900D      		add r25,r0
 3711 10f0 529F      		mul r21,r18
 3712 10f2 900D      		add r25,r0
 3713 10f4 1124      		clr r1
 3714               	.LVL243:
 3715 10f6 E80F      		add r30,r24
 3716 10f8 F91F      		adc r31,r25
 3717 10fa DF01      		movw r26,r30
 3718 10fc D796      		adiw r26,55
 3719 10fe 67A9      		ldd r22,Z+55
 3720 1100 1196      		adiw r26,1
 3721 1102 7C91      		ld r23,X
 3722 1104 1197      		sbiw r26,1
 3723               	.LM374:
 3724 1106 1296      		adiw r26,2
 3725 1108 8C91      		ld r24,X
 3726 110a 1297      		sbiw r26,2
 3727 110c 1396      		adiw r26,3
 3728 110e 9C91      		ld r25,X
 3729               	.LVL244:
 3730               	/* epilogue start */
 3731 1110 0895      		ret
 3732               	.LFE63:
 3734               	.global	Timebase_UpCounter_Set_TargetValue
 3736               	Timebase_UpCounter_Set_TargetValue:
 3737               	.LFB64:
 3738               	.LM375:
 3739               	.LVL245:
 3740               	/* prologue: function */
 3741               	/* frame size = 0 */
 3742               	.LM376:
 3743 1112 E091 0000 		lds r30,Timebase
 3744 1116 F091 0000 		lds r31,(Timebase)+1
 3745 111a 90E0      		ldi r25,lo8(0)
 3746               	.LVL246:
 3747 111c 25E1      		ldi r18,lo8(21)
 3748 111e 30E0      		ldi r19,hi8(21)
 3749 1120 DC01      		movw r26,r24
 3750 1122 A29F      		mul r26,r18
 3751 1124 C001      		movw r24,r0
 3752 1126 A39F      		mul r26,r19
 3753 1128 900D      		add r25,r0
 3754 112a B29F      		mul r27,r18
 3755 112c 900D      		add r25,r0
 3756 112e 1124      		clr r1
 3757               	.LVL247:
 3758 1130 E80F      		add r30,r24
 3759 1132 F91F      		adc r31,r25
 3760 1134 47AB      		std Z+55,r20
 3761 1136 50AF      		std Z+56,r21
 3762 1138 61AF      		std Z+57,r22
 3763 113a 72AF      		std Z+58,r23
 3764               	/* epilogue start */
 3765               	.LM377:
 3766 113c 0895      		ret
 3767               	.LFE64:
 3769               	.global	Timebase_UpCounter_Get_TemporaryValue
 3771               	Timebase_UpCounter_Get_TemporaryValue:
 3772               	.LFB65:
 3773               	.LM378:
 3774               	.LVL248:
 3775               	/* prologue: function */
 3776               	/* frame size = 0 */
 3777               	.LM379:
 3778 113e E091 0000 		lds r30,Timebase
 3779 1142 F091 0000 		lds r31,(Timebase)+1
 3780 1146 90E0      		ldi r25,lo8(0)
 3781               	.LVL249:
 3782 1148 25E1      		ldi r18,lo8(21)
 3783 114a 30E0      		ldi r19,hi8(21)
 3784 114c AC01      		movw r20,r24
 3785 114e 429F      		mul r20,r18
 3786 1150 C001      		movw r24,r0
 3787 1152 439F      		mul r20,r19
 3788 1154 900D      		add r25,r0
 3789 1156 529F      		mul r21,r18
 3790 1158 900D      		add r25,r0
 3791 115a 1124      		clr r1
 3792               	.LVL250:
 3793 115c E80F      		add r30,r24
 3794 115e F91F      		adc r31,r25
 3795 1160 DF01      		movw r26,r30
 3796 1162 DB96      		adiw r26,59
 3797 1164 63AD      		ldd r22,Z+59
 3798 1166 1196      		adiw r26,1
 3799 1168 7C91      		ld r23,X
 3800 116a 1197      		sbiw r26,1
 3801               	.LM380:
 3802 116c 1296      		adiw r26,2
 3803 116e 8C91      		ld r24,X
 3804 1170 1297      		sbiw r26,2
 3805 1172 1396      		adiw r26,3
 3806 1174 9C91      		ld r25,X
 3807               	.LVL251:
 3808               	/* epilogue start */
 3809 1176 0895      		ret
 3810               	.LFE65:
 3812               	.global	Timebase_UpCounter_Set_TemporaryValue
 3814               	Timebase_UpCounter_Set_TemporaryValue:
 3815               	.LFB66:
 3816               	.LM381:
 3817               	.LVL252:
 3818               	/* prologue: function */
 3819               	/* frame size = 0 */
 3820               	.LM382:
 3821 1178 E091 0000 		lds r30,Timebase
 3822 117c F091 0000 		lds r31,(Timebase)+1
 3823 1180 90E0      		ldi r25,lo8(0)
 3824               	.LVL253:
 3825 1182 25E1      		ldi r18,lo8(21)
 3826 1184 30E0      		ldi r19,hi8(21)
 3827 1186 DC01      		movw r26,r24
 3828 1188 A29F      		mul r26,r18
 3829 118a C001      		movw r24,r0
 3830 118c A39F      		mul r26,r19
 3831 118e 900D      		add r25,r0
 3832 1190 B29F      		mul r27,r18
 3833 1192 900D      		add r25,r0
 3834 1194 1124      		clr r1
 3835               	.LVL254:
 3836 1196 E80F      		add r30,r24
 3837 1198 F91F      		adc r31,r25
 3838 119a 43AF      		std Z+59,r20
 3839 119c 54AF      		std Z+60,r21
 3840 119e 65AF      		std Z+61,r22
 3841 11a0 76AF      		std Z+62,r23
 3842               	/* epilogue start */
 3843               	.LM383:
 3844 11a2 0895      		ret
 3845               	.LFE66:
 3847               	.global	Timebase_UpCounter_Get_PeriodValue
 3849               	Timebase_UpCounter_Get_PeriodValue:
 3850               	.LFB67:
 3851               	.LM384:
 3852               	.LVL255:
 3853               	/* prologue: function */
 3854               	/* frame size = 0 */
 3855               	.LM385:
 3856 11a4 E091 0000 		lds r30,Timebase
 3857 11a8 F091 0000 		lds r31,(Timebase)+1
 3858 11ac 90E0      		ldi r25,lo8(0)
 3859               	.LVL256:
 3860 11ae 25E1      		ldi r18,lo8(21)
 3861 11b0 30E0      		ldi r19,hi8(21)
 3862 11b2 AC01      		movw r20,r24
 3863 11b4 429F      		mul r20,r18
 3864 11b6 C001      		movw r24,r0
 3865 11b8 439F      		mul r20,r19
 3866 11ba 900D      		add r25,r0
 3867 11bc 529F      		mul r21,r18
 3868 11be 900D      		add r25,r0
 3869 11c0 1124      		clr r1
 3870               	.LVL257:
 3871 11c2 E80F      		add r30,r24
 3872 11c4 F91F      		adc r31,r25
 3873 11c6 ED5B      		subi r30,lo8(-(67))
 3874 11c8 FF4F      		sbci r31,hi8(-(67))
 3875 11ca 6081      		ld r22,Z
 3876 11cc 7181      		ldd r23,Z+1
 3877               	.LM386:
 3878 11ce 8281      		ldd r24,Z+2
 3879 11d0 9381      		ldd r25,Z+3
 3880               	.LVL258:
 3881               	/* epilogue start */
 3882 11d2 0895      		ret
 3883               	.LFE67:
 3885               	.global	Timebase_UpCounter_Set_PeriodValue
 3887               	Timebase_UpCounter_Set_PeriodValue:
 3888               	.LFB68:
 3889               	.LM387:
 3890               	.LVL259:
 3891               	/* prologue: function */
 3892               	/* frame size = 0 */
 3893               	.LM388:
 3894 11d4 E091 0000 		lds r30,Timebase
 3895 11d8 F091 0000 		lds r31,(Timebase)+1
 3896 11dc 90E0      		ldi r25,lo8(0)
 3897               	.LVL260:
 3898 11de 25E1      		ldi r18,lo8(21)
 3899 11e0 30E0      		ldi r19,hi8(21)
 3900 11e2 DC01      		movw r26,r24
 3901 11e4 A29F      		mul r26,r18
 3902 11e6 C001      		movw r24,r0
 3903 11e8 A39F      		mul r26,r19
 3904 11ea 900D      		add r25,r0
 3905 11ec B29F      		mul r27,r18
 3906 11ee 900D      		add r25,r0
 3907 11f0 1124      		clr r1
 3908               	.LVL261:
 3909 11f2 E80F      		add r30,r24
 3910 11f4 F91F      		adc r31,r25
 3911 11f6 ED5B      		subi r30,lo8(-(67))
 3912 11f8 FF4F      		sbci r31,hi8(-(67))
 3913 11fa 4083      		st Z,r20
 3914 11fc 5183      		std Z+1,r21
 3915 11fe 6283      		std Z+2,r22
 3916 1200 7383      		std Z+3,r23
 3917               	/* epilogue start */
 3918               	.LM389:
 3919 1202 0895      		ret
 3920               	.LFE68:
 3922               	.global	Timebase_UpCounter_Get_Period_Flag
 3924               	Timebase_UpCounter_Get_Period_Flag:
 3925               	.LFB69:
 3926               	.LM390:
 3927               	.LVL262:
 3928               	/* prologue: function */
 3929               	/* frame size = 0 */
 3930               	.LM391:
 3931 1204 E091 0000 		lds r30,Timebase
 3932 1208 F091 0000 		lds r31,(Timebase)+1
 3933 120c 90E0      		ldi r25,lo8(0)
 3934               	.LVL263:
 3935 120e 25E1      		ldi r18,lo8(21)
 3936 1210 30E0      		ldi r19,hi8(21)
 3937 1212 AC01      		movw r20,r24
 3938 1214 429F      		mul r20,r18
 3939 1216 C001      		movw r24,r0
 3940 1218 439F      		mul r20,r19
 3941 121a 900D      		add r25,r0
 3942 121c 529F      		mul r21,r18
 3943 121e 900D      		add r25,r0
 3944 1220 1124      		clr r1
 3945               	.LVL264:
 3946 1222 E80F      		add r30,r24
 3947 1224 F91F      		adc r31,r25
 3948 1226 82A9      		ldd r24,Z+50
 3949               	.LM392:
 3950 1228 8170      		andi r24,lo8(1)
 3951               	/* epilogue start */
 3952 122a 0895      		ret
 3953               	.LFE69:
 3955               	.global	Timebase_UpCounter_Set_Period_Flag
 3957               	Timebase_UpCounter_Set_Period_Flag:
 3958               	.LFB70:
 3959               	.LM393:
 3960               	.LVL265:
 3961               	/* prologue: function */
 3962               	/* frame size = 0 */
 3963               	.LM394:
 3964 122c E091 0000 		lds r30,Timebase
 3965 1230 F091 0000 		lds r31,(Timebase)+1
 3966 1234 90E0      		ldi r25,lo8(0)
 3967               	.LVL266:
 3968 1236 25E1      		ldi r18,lo8(21)
 3969 1238 30E0      		ldi r19,hi8(21)
 3970 123a AC01      		movw r20,r24
 3971 123c 429F      		mul r20,r18
 3972 123e C001      		movw r24,r0
 3973 1240 439F      		mul r20,r19
 3974 1242 900D      		add r25,r0
 3975 1244 529F      		mul r21,r18
 3976 1246 900D      		add r25,r0
 3977 1248 1124      		clr r1
 3978               	.LVL267:
 3979 124a E80F      		add r30,r24
 3980 124c F91F      		adc r31,r25
 3981 124e 82A9      		ldd r24,Z+50
 3982 1250 8160      		ori r24,lo8(1)
 3983 1252 82AB      		std Z+50,r24
 3984               	/* epilogue start */
 3985               	.LM395:
 3986 1254 0895      		ret
 3987               	.LFE70:
 3989               	.global	Timebase_UpCounter_Clear_Period_Flag
 3991               	Timebase_UpCounter_Clear_Period_Flag:
 3992               	.LFB71:
 3993               	.LM396:
 3994               	.LVL268:
 3995               	/* prologue: function */
 3996               	/* frame size = 0 */
 3997               	.LM397:
 3998 1256 E091 0000 		lds r30,Timebase
 3999 125a F091 0000 		lds r31,(Timebase)+1
 4000 125e 90E0      		ldi r25,lo8(0)
 4001               	.LVL269:
 4002 1260 25E1      		ldi r18,lo8(21)
 4003 1262 30E0      		ldi r19,hi8(21)
 4004 1264 AC01      		movw r20,r24
 4005 1266 429F      		mul r20,r18
 4006 1268 C001      		movw r24,r0
 4007 126a 439F      		mul r20,r19
 4008 126c 900D      		add r25,r0
 4009 126e 529F      		mul r21,r18
 4010 1270 900D      		add r25,r0
 4011 1272 1124      		clr r1
 4012               	.LVL270:
 4013 1274 E80F      		add r30,r24
 4014 1276 F91F      		adc r31,r25
 4015 1278 82A9      		ldd r24,Z+50
 4016 127a 8E7F      		andi r24,lo8(-2)
 4017 127c 82AB      		std Z+50,r24
 4018               	/* epilogue start */
 4019               	.LM398:
 4020 127e 0895      		ret
 4021               	.LFE71:
 4023               	.global	Timebase_UpCounter_Reset
 4025               	Timebase_UpCounter_Reset:
 4026               	.LFB72:
 4027               	.LM399:
 4028               	.LVL271:
 4029               	/* prologue: function */
 4030               	/* frame size = 0 */
 4031               	.LBB861:
 4032               	.LBB862:
 4033               	.LM400:
 4034 1280 E091 0000 		lds r30,Timebase
 4035 1284 F091 0000 		lds r31,(Timebase)+1
 4036 1288 90E0      		ldi r25,lo8(0)
 4037 128a 25E1      		ldi r18,lo8(21)
 4038 128c 30E0      		ldi r19,hi8(21)
 4039 128e AC01      		movw r20,r24
 4040               	.LVL272:
 4041 1290 429F      		mul r20,r18
 4042 1292 C001      		movw r24,r0
 4043 1294 439F      		mul r20,r19
 4044 1296 900D      		add r25,r0
 4045 1298 529F      		mul r21,r18
 4046 129a 900D      		add r25,r0
 4047 129c 1124      		clr r1
 4048 129e E80F      		add r30,r24
 4049 12a0 F91F      		adc r31,r25
 4050 12a2 82A9      		ldd r24,Z+50
 4051               	.LBE862:
 4052               	.LBE861:
 4053               	.LBB863:
 4054               	.LBB864:
 4055               	.LM401:
 4056 12a4 FF96      		adiw r30,63
 4057 12a6 1082      		st Z,__zero_reg__
 4058 12a8 1182      		std Z+1,__zero_reg__
 4059 12aa 1282      		std Z+2,__zero_reg__
 4060 12ac 1382      		std Z+3,__zero_reg__
 4061 12ae FF97      		sbiw r30,63
 4062               	.LBE864:
 4063               	.LBE863:
 4064               	.LBB865:
 4065               	.LBB866:
 4066               	.LM402:
 4067 12b0 13AA      		std Z+51,__zero_reg__
 4068 12b2 14AA      		std Z+52,__zero_reg__
 4069 12b4 15AA      		std Z+53,__zero_reg__
 4070 12b6 16AA      		std Z+54,__zero_reg__
 4071               	.LBE866:
 4072               	.LBE865:
 4073               	.LBB867:
 4074               	.LBB868:
 4075               	.LM403:
 4076 12b8 17AA      		std Z+55,__zero_reg__
 4077 12ba 10AE      		std Z+56,__zero_reg__
 4078 12bc 11AE      		std Z+57,__zero_reg__
 4079 12be 12AE      		std Z+58,__zero_reg__
 4080               	.LBE868:
 4081               	.LBE867:
 4082               	.LBB869:
 4083               	.LBB870:
 4084               	.LM404:
 4085 12c0 13AE      		std Z+59,__zero_reg__
 4086 12c2 14AE      		std Z+60,__zero_reg__
 4087 12c4 15AE      		std Z+61,__zero_reg__
 4088 12c6 16AE      		std Z+62,__zero_reg__
 4089               	.LBE870:
 4090               	.LBE869:
 4091               	.LBB871:
 4092               	.LBB872:
 4093               	.LM405:
 4094 12c8 ED5B      		subi r30,lo8(-(67))
 4095 12ca FF4F      		sbci r31,hi8(-(67))
 4096 12cc 1082      		st Z,__zero_reg__
 4097 12ce 1182      		std Z+1,__zero_reg__
 4098 12d0 1282      		std Z+2,__zero_reg__
 4099 12d2 1382      		std Z+3,__zero_reg__
 4100 12d4 E354      		subi r30,lo8(-(-67))
 4101 12d6 F040      		sbci r31,hi8(-(-67))
 4102               	.LBE872:
 4103               	.LBE871:
 4104               	.LBB873:
 4105               	.LBB874:
 4106               	.LM406:
 4107 12d8 807E      		andi r24,lo8(-32)
 4108 12da 82AB      		std Z+50,r24
 4109               	/* epilogue start */
 4110               	.LBE874:
 4111               	.LBE873:
 4112               	.LM407:
 4113 12dc 0895      		ret
 4114               	.LFE72:
 4116               	.global	Timebase_UpCounter_Clear_All_Flags
 4118               	Timebase_UpCounter_Clear_All_Flags:
 4119               	.LFB73:
 4120               	.LM408:
 4121               	.LVL273:
 4122               	/* prologue: function */
 4123               	/* frame size = 0 */
 4124               	.LM409:
 4125 12de 0E94 0000 		call Timebase_UpCounter_Reset
 4126               	.LVL274:
 4127               	/* epilogue start */
 4128               	.LM410:
 4129 12e2 0895      		ret
 4130               	.LFE73:
 4132               	.global	Timebase_UpCounter_Start
 4134               	Timebase_UpCounter_Start:
 4135               	.LFB74:
 4136               	.LM411:
 4137               	.LVL275:
 4138               	/* prologue: function */
 4139               	/* frame size = 0 */
 4140               	.LBB875:
 4141               	.LBB876:
 4142               	.LM412:
 4143 12e4 E091 0000 		lds r30,Timebase
 4144 12e8 F091 0000 		lds r31,(Timebase)+1
 4145 12ec 90E0      		ldi r25,lo8(0)
 4146               	.LBE876:
 4147               	.LBE875:
 4148               	.LM413:
 4149 12ee 25E1      		ldi r18,lo8(21)
 4150 12f0 30E0      		ldi r19,hi8(21)
 4151 12f2 AC01      		movw r20,r24
 4152               	.LVL276:
 4153 12f4 429F      		mul r20,r18
 4154 12f6 C001      		movw r24,r0
 4155 12f8 439F      		mul r20,r19
 4156 12fa 900D      		add r25,r0
 4157 12fc 529F      		mul r21,r18
 4158 12fe 900D      		add r25,r0
 4159 1300 1124      		clr r1
 4160 1302 E80F      		add r30,r24
 4161 1304 F91F      		adc r31,r25
 4162 1306 92A9      		ldd r25,Z+50
 4163 1308 892F      		mov r24,r25
 4164 130a 8695      		lsr r24
 4165 130c 8F70      		andi r24,lo8(15)
 4166 130e 8130      		cpi r24,lo8(1)
 4167 1310 01F0      		breq .L188
 4168               	.LBB877:
 4169               	.LBB878:
 4170               	.LM414:
 4171 1312 917E      		andi r25,lo8(-31)
 4172 1314 9260      		ori r25,lo8(2)
 4173 1316 92AB      		std Z+50,r25
 4174               	.L188:
 4175 1318 0895      		ret
 4176               	.LBE878:
 4177               	.LBE877:
 4178               	.LFE74:
 4180               	.global	Timebase_UpCounter_Stop
 4182               	Timebase_UpCounter_Stop:
 4183               	.LFB75:
 4184               	.LM415:
 4185               	.LVL277:
 4186               	/* prologue: function */
 4187               	/* frame size = 0 */
 4188               	.LBB879:
 4189               	.LBB880:
 4190               	.LM416:
 4191 131a E091 0000 		lds r30,Timebase
 4192 131e F091 0000 		lds r31,(Timebase)+1
 4193 1322 90E0      		ldi r25,lo8(0)
 4194               	.LBE880:
 4195               	.LBE879:
 4196               	.LM417:
 4197 1324 25E1      		ldi r18,lo8(21)
 4198 1326 30E0      		ldi r19,hi8(21)
 4199 1328 AC01      		movw r20,r24
 4200               	.LVL278:
 4201 132a 429F      		mul r20,r18
 4202 132c C001      		movw r24,r0
 4203 132e 439F      		mul r20,r19
 4204 1330 900D      		add r25,r0
 4205 1332 529F      		mul r21,r18
 4206 1334 900D      		add r25,r0
 4207 1336 1124      		clr r1
 4208 1338 E80F      		add r30,r24
 4209 133a F91F      		adc r31,r25
 4210 133c 92A9      		ldd r25,Z+50
 4211 133e 892F      		mov r24,r25
 4212 1340 8695      		lsr r24
 4213 1342 8F70      		andi r24,lo8(15)
 4214 1344 8230      		cpi r24,lo8(2)
 4215 1346 01F0      		breq .L191
 4216               	.LBB881:
 4217               	.LBB882:
 4218               	.LM418:
 4219 1348 917E      		andi r25,lo8(-31)
 4220 134a 9460      		ori r25,lo8(4)
 4221 134c 92AB      		std Z+50,r25
 4222               	.L191:
 4223 134e 0895      		ret
 4224               	.LBE882:
 4225               	.LBE881:
 4226               	.LFE75:
 4228               	.global	Timebase_UpCounter_Set_Securely
 4230               	Timebase_UpCounter_Set_Securely:
 4231               	.LFB76:
 4232               	.LM419:
 4233               	.LVL279:
 4234 1350 0F93      		push r16
 4235 1352 1F93      		push r17
 4236 1354 CF93      		push r28
 4237 1356 DF93      		push r29
 4238               	/* prologue: function */
 4239               	/* frame size = 0 */
 4240               	.LBB883:
 4241               	.LBB884:
 4242               	.LM420:
 4243 1358 C091 0000 		lds r28,Timebase
 4244 135c D091 0000 		lds r29,(Timebase)+1
 4245 1360 082F      		mov r16,r24
 4246 1362 10E0      		ldi r17,lo8(0)
 4247               	.LBE884:
 4248               	.LBE883:
 4249               	.LM421:
 4250 1364 85E1      		ldi r24,lo8(21)
 4251 1366 90E0      		ldi r25,hi8(21)
 4252               	.LVL280:
 4253 1368 089F      		mul r16,r24
 4254 136a F001      		movw r30,r0
 4255 136c 099F      		mul r16,r25
 4256 136e F00D      		add r31,r0
 4257 1370 189F      		mul r17,r24
 4258 1372 F00D      		add r31,r0
 4259 1374 1124      		clr r1
 4260 1376 EC0F      		add r30,r28
 4261 1378 FD1F      		adc r31,r29
 4262 137a 82A9      		ldd r24,Z+50
 4263 137c 8695      		lsr r24
 4264 137e 8F70      		andi r24,lo8(15)
 4265 1380 01F4      		brne .L194
 4266               	.LBB885:
 4267               	.LBB886:
 4268               	.LM422:
 4269 1382 FF96      		adiw r30,63
 4270 1384 1082      		st Z,__zero_reg__
 4271 1386 1182      		std Z+1,__zero_reg__
 4272 1388 1282      		std Z+2,__zero_reg__
 4273 138a 1382      		std Z+3,__zero_reg__
 4274 138c FF97      		sbiw r30,63
 4275               	.LBE886:
 4276               	.LBE885:
 4277               	.LBB887:
 4278               	.LBB888:
 4279               	.LM423:
 4280 138e 13AE      		std Z+59,__zero_reg__
 4281 1390 14AE      		std Z+60,__zero_reg__
 4282 1392 15AE      		std Z+61,__zero_reg__
 4283 1394 16AE      		std Z+62,__zero_reg__
 4284               	.LBE888:
 4285               	.LBE887:
 4286               	.LBB889:
 4287               	.LBB890:
 4288               	.LM424:
 4289 1396 47AB      		std Z+55,r20
 4290 1398 50AF      		std Z+56,r21
 4291 139a 61AF      		std Z+57,r22
 4292 139c 72AF      		std Z+58,r23
 4293               	.LBE890:
 4294               	.LBE889:
 4295               	.LBB891:
 4296               	.LBB892:
 4297               	.LBB893:
 4298               	.LBB894:
 4299               	.LM425:
 4300               	/* #APP */
 4301               	 ;  341 "timebase.c" 1
 4302 139e F894      		cli
 4303               	 ;  0 "" 2
 4304               	/* #NOAPP */
 4305               	.LBE894:
 4306               	.LBE893:
 4307               	.LM426:
 4308 13a0 8A85      		ldd r24,Y+10
 4309 13a2 9B85      		ldd r25,Y+11
 4310 13a4 AC85      		ldd r26,Y+12
 4311 13a6 BD85      		ldd r27,Y+13
 4312               	.LVL281:
 4313               	.LBB895:
 4314               	.LBB896:
 4315               	.LM427:
 4316               	/* #APP */
 4317               	 ;  345 "timebase.c" 1
 4318 13a8 7894      		sei
 4319               	 ;  0 "" 2
 4320               	/* #NOAPP */
 4321               	.LBE896:
 4322               	.LBE895:
 4323               	.LBE892:
 4324               	.LBE891:
 4325               	.LBB897:
 4326               	.LBB898:
 4327               	.LM428:
 4328 13aa 25E1      		ldi r18,lo8(21)
 4329 13ac 30E0      		ldi r19,hi8(21)
 4330 13ae 029F      		mul r16,r18
 4331 13b0 F001      		movw r30,r0
 4332 13b2 039F      		mul r16,r19
 4333 13b4 F00D      		add r31,r0
 4334 13b6 129F      		mul r17,r18
 4335 13b8 F00D      		add r31,r0
 4336 13ba 1124      		clr r1
 4337 13bc EC0F      		add r30,r28
 4338 13be FD1F      		adc r31,r29
 4339 13c0 840F      		add r24,r20
 4340 13c2 951F      		adc r25,r21
 4341 13c4 A61F      		adc r26,r22
 4342 13c6 B71F      		adc r27,r23
 4343 13c8 83AB      		std Z+51,r24
 4344 13ca 94AB      		std Z+52,r25
 4345 13cc A5AB      		std Z+53,r26
 4346 13ce B6AB      		std Z+54,r27
 4347               	.LBE898:
 4348               	.LBE897:
 4349               	.LBB899:
 4350               	.LBB900:
 4351               	.LM429:
 4352 13d0 92A9      		ldd r25,Z+50
 4353 13d2 892F      		mov r24,r25
 4354               	.LVL282:
 4355 13d4 8695      		lsr r24
 4356 13d6 8F70      		andi r24,lo8(15)
 4357 13d8 8130      		cpi r24,lo8(1)
 4358 13da 01F0      		breq .L194
 4359               	.LBB901:
 4360               	.LBB902:
 4361               	.LM430:
 4362 13dc 917E      		andi r25,lo8(-31)
 4363 13de 9260      		ori r25,lo8(2)
 4364 13e0 92AB      		std Z+50,r25
 4365               	.L194:
 4366               	/* epilogue start */
 4367               	.LBE902:
 4368               	.LBE901:
 4369               	.LBE900:
 4370               	.LBE899:
 4371               	.LM431:
 4372 13e2 DF91      		pop r29
 4373 13e4 CF91      		pop r28
 4374 13e6 1F91      		pop r17
 4375 13e8 0F91      		pop r16
 4376 13ea 0895      		ret
 4377               	.LFE76:
 4379               	.global	Timebase_UpCounter_Set_Forcefully
 4381               	Timebase_UpCounter_Set_Forcefully:
 4382               	.LFB77:
 4383               	.LM432:
 4384               	.LVL283:
 4385 13ec DF92      		push r13
 4386 13ee EF92      		push r14
 4387 13f0 FF92      		push r15
 4388 13f2 0F93      		push r16
 4389 13f4 1F93      		push r17
 4390               	/* prologue: function */
 4391               	/* frame size = 0 */
 4392 13f6 D82E      		mov r13,r24
 4393 13f8 7A01      		movw r14,r20
 4394 13fa 8B01      		movw r16,r22
 4395               	.LM433:
 4396 13fc 0E94 0000 		call Timebase_UpCounter_Reset
 4397               	.LVL284:
 4398               	.LM434:
 4399 1400 8D2D      		mov r24,r13
 4400 1402 B801      		movw r22,r16
 4401 1404 A701      		movw r20,r14
 4402 1406 0E94 0000 		call Timebase_UpCounter_Set_Securely
 4403               	/* epilogue start */
 4404               	.LM435:
 4405 140a 1F91      		pop r17
 4406 140c 0F91      		pop r16
 4407 140e FF90      		pop r15
 4408 1410 EF90      		pop r14
 4409               	.LVL285:
 4410 1412 DF90      		pop r13
 4411               	.LVL286:
 4412 1414 0895      		ret
 4413               	.LFE77:
 4415               	.global	Timebase_UpCounter_Update
 4417               	Timebase_UpCounter_Update:
 4418               	.LFB78:
 4419               	.LM436:
 4420               	.LVL287:
 4421 1416 EF92      		push r14
 4422 1418 FF92      		push r15
 4423 141a 0F93      		push r16
 4424 141c 1F93      		push r17
 4425 141e CF93      		push r28
 4426 1420 DF93      		push r29
 4427               	/* prologue: function */
 4428               	/* frame size = 0 */
 4429               	.LBB903:
 4430               	.LBB904:
 4431               	.LM437:
 4432 1422 C091 0000 		lds r28,Timebase
 4433 1426 D091 0000 		lds r29,(Timebase)+1
 4434 142a 482F      		mov r20,r24
 4435 142c 50E0      		ldi r21,lo8(0)
 4436 142e 85E1      		ldi r24,lo8(21)
 4437 1430 90E0      		ldi r25,hi8(21)
 4438               	.LVL288:
 4439 1432 489F      		mul r20,r24
 4440 1434 F001      		movw r30,r0
 4441 1436 499F      		mul r20,r25
 4442 1438 F00D      		add r31,r0
 4443 143a 589F      		mul r21,r24
 4444 143c F00D      		add r31,r0
 4445 143e 1124      		clr r1
 4446 1440 EC0F      		add r30,r28
 4447 1442 FD1F      		adc r31,r29
 4448 1444 82A9      		ldd r24,Z+50
 4449 1446 8695      		lsr r24
 4450 1448 8F70      		andi r24,lo8(15)
 4451               	.LBE904:
 4452               	.LBE903:
 4453               	.LM438:
 4454 144a 8130      		cpi r24,lo8(1)
 4455 144c 01F0      		breq .+2
 4456 144e 00C0      		rjmp .L198
 4457               	.LBB905:
 4458               	.LBB906:
 4459               	.LBB907:
 4460               	.LBB908:
 4461               	.LM439:
 4462               	/* #APP */
 4463               	 ;  341 "timebase.c" 1
 4464 1450 F894      		cli
 4465               	 ;  0 "" 2
 4466               	/* #NOAPP */
 4467               	.LBE908:
 4468               	.LBE907:
 4469               	.LM440:
 4470 1452 EA84      		ldd r14,Y+10
 4471 1454 FB84      		ldd r15,Y+11
 4472 1456 0C85      		ldd r16,Y+12
 4473 1458 1D85      		ldd r17,Y+13
 4474               	.LVL289:
 4475               	.LBB909:
 4476               	.LBB910:
 4477               	.LM441:
 4478               	/* #APP */
 4479               	 ;  345 "timebase.c" 1
 4480 145a 7894      		sei
 4481               	 ;  0 "" 2
 4482               	/* #NOAPP */
 4483               	.LBE910:
 4484               	.LBE909:
 4485               	.LBE906:
 4486               	.LBE905:
 4487               	.LM442:
 4488 145c 85E1      		ldi r24,lo8(21)
 4489 145e 90E0      		ldi r25,hi8(21)
 4490 1460 489F      		mul r20,r24
 4491 1462 F001      		movw r30,r0
 4492 1464 499F      		mul r20,r25
 4493 1466 F00D      		add r31,r0
 4494 1468 589F      		mul r21,r24
 4495 146a F00D      		add r31,r0
 4496 146c 1124      		clr r1
 4497 146e EC0F      		add r30,r28
 4498 1470 FD1F      		adc r31,r29
 4499 1472 23A9      		ldd r18,Z+51
 4500 1474 34A9      		ldd r19,Z+52
 4501 1476 45A9      		ldd r20,Z+53
 4502 1478 56A9      		ldd r21,Z+54
 4503 147a 2E19      		sub r18,r14
 4504 147c 3F09      		sbc r19,r15
 4505 147e 400B      		sbc r20,r16
 4506 1480 510B      		sbc r21,r17
 4507               	.LBB911:
 4508               	.LBB912:
 4509               	.LM443:
 4510 1482 23AF      		std Z+59,r18
 4511 1484 34AF      		std Z+60,r19
 4512 1486 45AF      		std Z+61,r20
 4513 1488 56AF      		std Z+62,r21
 4514               	.LBE912:
 4515               	.LBE911:
 4516               	.LBB913:
 4517               	.LBB914:
 4518               	.LM444:
 4519 148a EF01      		movw r28,r30
 4520 148c EF96      		adiw r28,63
 4521 148e E7A8      		ldd r14,Z+55
 4522 1490 F0AC      		ldd r15,Z+56
 4523 1492 01AD      		ldd r16,Z+57
 4524 1494 12AD      		ldd r17,Z+58
 4525               	.LVL290:
 4526 1496 D801      		movw r26,r16
 4527 1498 C701      		movw r24,r14
 4528 149a 821B      		sub r24,r18
 4529 149c 930B      		sbc r25,r19
 4530 149e A40B      		sbc r26,r20
 4531 14a0 B50B      		sbc r27,r21
 4532 14a2 8883      		st Y,r24
 4533 14a4 9983      		std Y+1,r25
 4534 14a6 AA83      		std Y+2,r26
 4535 14a8 BB83      		std Y+3,r27
 4536               	.LBE914:
 4537               	.LBE913:
 4538               	.LM445:
 4539 14aa 1216      		cp __zero_reg__,r18
 4540 14ac 1306      		cpc __zero_reg__,r19
 4541 14ae 1406      		cpc __zero_reg__,r20
 4542 14b0 1506      		cpc __zero_reg__,r21
 4543 14b2 04F4      		brge .+2
 4544 14b4 00C0      		rjmp .L200
 4545               	.LBB915:
 4546               	.LBB916:
 4547               	.LM446:
 4548 14b6 13AA      		std Z+51,__zero_reg__
 4549 14b8 14AA      		std Z+52,__zero_reg__
 4550 14ba 15AA      		std Z+53,__zero_reg__
 4551 14bc 16AA      		std Z+54,__zero_reg__
 4552               	.LBE916:
 4553               	.LBE915:
 4554               	.LBB917:
 4555               	.LBB918:
 4556               	.LM447:
 4557 14be 13AE      		std Z+59,__zero_reg__
 4558 14c0 14AE      		std Z+60,__zero_reg__
 4559 14c2 15AE      		std Z+61,__zero_reg__
 4560 14c4 16AE      		std Z+62,__zero_reg__
 4561               	.LBE918:
 4562               	.LBE917:
 4563               	.LBB919:
 4564               	.LBB920:
 4565               	.LM448:
 4566 14c6 E882      		st Y,r14
 4567 14c8 F982      		std Y+1,r15
 4568 14ca 0A83      		std Y+2,r16
 4569 14cc 1B83      		std Y+3,r17
 4570               	.LBE920:
 4571               	.LBE919:
 4572               	.LBB921:
 4573               	.LBB922:
 4574               	.LM449:
 4575 14ce 82A9      		ldd r24,Z+50
 4576 14d0 817E      		andi r24,lo8(-31)
 4577 14d2 8860      		ori r24,lo8(8)
 4578 14d4 82AB      		std Z+50,r24
 4579 14d6 00C0      		rjmp .L200
 4580               	.L198:
 4581               	.LBE922:
 4582               	.LBE921:
 4583               	.LM450:
 4584 14d8 8230      		cpi r24,lo8(2)
 4585 14da 01F4      		brne .L200
 4586               	.LBB923:
 4587               	.LBB924:
 4588               	.LBB925:
 4589               	.LBB926:
 4590               	.LM451:
 4591               	/* #APP */
 4592               	 ;  341 "timebase.c" 1
 4593 14dc F894      		cli
 4594               	 ;  0 "" 2
 4595               	/* #NOAPP */
 4596               	.LBE926:
 4597               	.LBE925:
 4598               	.LM452:
 4599 14de 8A85      		ldd r24,Y+10
 4600 14e0 9B85      		ldd r25,Y+11
 4601 14e2 AC85      		ldd r26,Y+12
 4602 14e4 BD85      		ldd r27,Y+13
 4603               	.LVL291:
 4604               	.LBB927:
 4605               	.LBB928:
 4606               	.LM453:
 4607               	/* #APP */
 4608               	 ;  345 "timebase.c" 1
 4609 14e6 7894      		sei
 4610               	 ;  0 "" 2
 4611               	/* #NOAPP */
 4612               	.LBE928:
 4613               	.LBE927:
 4614               	.LBE924:
 4615               	.LBE923:
 4616               	.LBB929:
 4617               	.LBB930:
 4618               	.LM454:
 4619 14e8 25E1      		ldi r18,lo8(21)
 4620 14ea 30E0      		ldi r19,hi8(21)
 4621 14ec 429F      		mul r20,r18
 4622 14ee F001      		movw r30,r0
 4623 14f0 439F      		mul r20,r19
 4624 14f2 F00D      		add r31,r0
 4625 14f4 529F      		mul r21,r18
 4626 14f6 F00D      		add r31,r0
 4627 14f8 1124      		clr r1
 4628 14fa EC0F      		add r30,r28
 4629 14fc FD1F      		adc r31,r29
 4630 14fe 23AD      		ldd r18,Z+59
 4631 1500 34AD      		ldd r19,Z+60
 4632 1502 45AD      		ldd r20,Z+61
 4633 1504 56AD      		ldd r21,Z+62
 4634 1506 820F      		add r24,r18
 4635 1508 931F      		adc r25,r19
 4636 150a A41F      		adc r26,r20
 4637 150c B51F      		adc r27,r21
 4638 150e 83AB      		std Z+51,r24
 4639 1510 94AB      		std Z+52,r25
 4640 1512 A5AB      		std Z+53,r26
 4641 1514 B6AB      		std Z+54,r27
 4642               	.LBE930:
 4643               	.LBE929:
 4644               	.LBB931:
 4645               	.LBB932:
 4646               	.LM455:
 4647 1516 87A9      		ldd r24,Z+55
 4648 1518 90AD      		ldd r25,Z+56
 4649 151a A1AD      		ldd r26,Z+57
 4650 151c B2AD      		ldd r27,Z+58
 4651               	.LVL292:
 4652 151e 821B      		sub r24,r18
 4653 1520 930B      		sbc r25,r19
 4654 1522 A40B      		sbc r26,r20
 4655 1524 B50B      		sbc r27,r21
 4656 1526 FF96      		adiw r30,63
 4657 1528 8083      		st Z,r24
 4658 152a 9183      		std Z+1,r25
 4659 152c A283      		std Z+2,r26
 4660 152e B383      		std Z+3,r27
 4661               	.L200:
 4662               	/* epilogue start */
 4663               	.LBE932:
 4664               	.LBE931:
 4665               	.LM456:
 4666 1530 DF91      		pop r29
 4667 1532 CF91      		pop r28
 4668 1534 1F91      		pop r17
 4669 1536 0F91      		pop r16
 4670 1538 FF90      		pop r15
 4671 153a EF90      		pop r14
 4672 153c 0895      		ret
 4673               	.LFE78:
 4675               	.global	Timebase_UpCounter_Expired
 4677               	Timebase_UpCounter_Expired:
 4678               	.LFB79:
 4679               	.LM457:
 4680               	.LVL293:
 4681               	/* prologue: function */
 4682               	/* frame size = 0 */
 4683               	.LM458:
 4684 153e 40E0      		ldi r20,lo8(0)
 4685 1540 E091 0000 		lds r30,Timebase
 4686 1544 F091 0000 		lds r31,(Timebase)+1
 4687 1548 90E0      		ldi r25,lo8(0)
 4688               	.LVL294:
 4689 154a 25E1      		ldi r18,lo8(21)
 4690 154c 30E0      		ldi r19,hi8(21)
 4691 154e BC01      		movw r22,r24
 4692 1550 629F      		mul r22,r18
 4693 1552 C001      		movw r24,r0
 4694 1554 639F      		mul r22,r19
 4695 1556 900D      		add r25,r0
 4696 1558 729F      		mul r23,r18
 4697 155a 900D      		add r25,r0
 4698 155c 1124      		clr r1
 4699               	.LVL295:
 4700 155e E80F      		add r30,r24
 4701 1560 F91F      		adc r31,r25
 4702 1562 82A9      		ldd r24,Z+50
 4703 1564 8695      		lsr r24
 4704 1566 8F70      		andi r24,lo8(15)
 4705 1568 8430      		cpi r24,lo8(4)
 4706 156a 01F4      		brne .L202
 4707 156c 41E0      		ldi r20,lo8(1)
 4708               	.L202:
 4709               	.LM459:
 4710 156e 842F      		mov r24,r20
 4711               	/* epilogue start */
 4712 1570 0895      		ret
 4713               	.LFE79:
 4715               	.global	Timebase_UpCounter_Expired_Event
 4717               	Timebase_UpCounter_Expired_Event:
 4718               	.LFB80:
 4719               	.LM460:
 4720               	.LVL296:
 4721               	/* prologue: function */
 4722               	/* frame size = 0 */
 4723 1572 482F      		mov r20,r24
 4724               	.LM461:
 4725 1574 E091 0000 		lds r30,Timebase
 4726 1578 F091 0000 		lds r31,(Timebase)+1
 4727 157c 282F      		mov r18,r24
 4728 157e 30E0      		ldi r19,lo8(0)
 4729               	.LVL297:
 4730 1580 85E1      		ldi r24,lo8(21)
 4731 1582 90E0      		ldi r25,hi8(21)
 4732               	.LVL298:
 4733 1584 BC01      		movw r22,r24
 4734 1586 269F      		mul r18,r22
 4735 1588 C001      		movw r24,r0
 4736 158a 279F      		mul r18,r23
 4737 158c 900D      		add r25,r0
 4738 158e 369F      		mul r19,r22
 4739 1590 900D      		add r25,r0
 4740 1592 1124      		clr r1
 4741 1594 E80F      		add r30,r24
 4742 1596 F91F      		adc r31,r25
 4743 1598 82A9      		ldd r24,Z+50
 4744 159a 8695      		lsr r24
 4745 159c 8F70      		andi r24,lo8(15)
 4746 159e 8430      		cpi r24,lo8(4)
 4747 15a0 01F0      		breq .L205
 4748 15a2 80E0      		ldi r24,lo8(0)
 4749 15a4 0895      		ret
 4750               	.L205:
 4751               	.LBB933:
 4752               	.LBB934:
 4753               	.LM462:
 4754 15a6 842F      		mov r24,r20
 4755 15a8 0E94 0000 		call Timebase_UpCounter_Reset
 4756               	.LVL299:
 4757 15ac 81E0      		ldi r24,lo8(1)
 4758               	.LBE934:
 4759               	.LBE933:
 4760               	.LM463:
 4761 15ae 0895      		ret
 4762               	.LFE80:
 4764               	.global	Timebase_UpCounter_Set_Period_Value_Securely
 4766               	Timebase_UpCounter_Set_Period_Value_Securely:
 4767               	.LFB81:
 4768               	.LM464:
 4769               	.LVL300:
 4770 15b0 CF93      		push r28
 4771 15b2 DF93      		push r29
 4772               	/* prologue: function */
 4773               	/* frame size = 0 */
 4774               	.LBB935:
 4775               	.LBB936:
 4776               	.LM465:
 4777 15b4 C091 0000 		lds r28,Timebase
 4778 15b8 D091 0000 		lds r29,(Timebase)+1
 4779 15bc 90E0      		ldi r25,lo8(0)
 4780               	.LBE936:
 4781               	.LBE935:
 4782               	.LM466:
 4783 15be 25E1      		ldi r18,lo8(21)
 4784 15c0 30E0      		ldi r19,hi8(21)
 4785 15c2 FC01      		movw r30,r24
 4786               	.LVL301:
 4787 15c4 E29F      		mul r30,r18
 4788 15c6 C001      		movw r24,r0
 4789 15c8 E39F      		mul r30,r19
 4790 15ca 900D      		add r25,r0
 4791 15cc F29F      		mul r31,r18
 4792 15ce 900D      		add r25,r0
 4793 15d0 1124      		clr r1
 4794 15d2 C80F      		add r28,r24
 4795 15d4 D91F      		adc r29,r25
 4796 15d6 8AA9      		ldd r24,Y+50
 4797 15d8 80FD      		sbrc r24,0
 4798 15da 00C0      		rjmp .L210
 4799               	.LBB937:
 4800               	.LBB938:
 4801               	.LM467:
 4802 15dc FE01      		movw r30,r28
 4803 15de ED5B      		subi r30,lo8(-(67))
 4804 15e0 FF4F      		sbci r31,hi8(-(67))
 4805 15e2 EF96      		adiw r28,63
 4806 15e4 8881      		ld r24,Y
 4807 15e6 9981      		ldd r25,Y+1
 4808 15e8 AA81      		ldd r26,Y+2
 4809 15ea BB81      		ldd r27,Y+3
 4810 15ec EF97      		sbiw r28,63
 4811 15ee 840F      		add r24,r20
 4812 15f0 951F      		adc r25,r21
 4813 15f2 A61F      		adc r26,r22
 4814 15f4 B71F      		adc r27,r23
 4815 15f6 8083      		st Z,r24
 4816 15f8 9183      		std Z+1,r25
 4817 15fa A283      		std Z+2,r26
 4818 15fc B383      		std Z+3,r27
 4819               	.LBE938:
 4820               	.LBE937:
 4821               	.LBB939:
 4822               	.LBB940:
 4823               	.LM468:
 4824 15fe 8AA9      		ldd r24,Y+50
 4825 1600 8160      		ori r24,lo8(1)
 4826 1602 8AAB      		std Y+50,r24
 4827               	.L210:
 4828               	/* epilogue start */
 4829               	.LBE940:
 4830               	.LBE939:
 4831               	.LM469:
 4832 1604 DF91      		pop r29
 4833 1606 CF91      		pop r28
 4834 1608 0895      		ret
 4835               	.LFE81:
 4837               	.global	Timebase_UpCounter_Get_Remaining_Period_Value
 4839               	Timebase_UpCounter_Get_Remaining_Period_Value:
 4840               	.LFB82:
 4841               	.LM470:
 4842               	.LVL302:
 4843               	/* prologue: function */
 4844               	/* frame size = 0 */
 4845               	.LBB941:
 4846               	.LBB942:
 4847               	.LM471:
 4848 160a E091 0000 		lds r30,Timebase
 4849 160e F091 0000 		lds r31,(Timebase)+1
 4850 1612 90E0      		ldi r25,lo8(0)
 4851               	.LBE942:
 4852               	.LBE941:
 4853               	.LM472:
 4854 1614 25E1      		ldi r18,lo8(21)
 4855 1616 30E0      		ldi r19,hi8(21)
 4856 1618 AC01      		movw r20,r24
 4857               	.LVL303:
 4858 161a 429F      		mul r20,r18
 4859 161c C001      		movw r24,r0
 4860 161e 439F      		mul r20,r19
 4861 1620 900D      		add r25,r0
 4862 1622 529F      		mul r21,r18
 4863 1624 900D      		add r25,r0
 4864 1626 1124      		clr r1
 4865 1628 E80F      		add r30,r24
 4866 162a F91F      		adc r31,r25
 4867 162c DF01      		movw r26,r30
 4868 162e DF96      		adiw r26,63
 4869 1630 ED5B      		subi r30,lo8(-(67))
 4870 1632 FF4F      		sbci r31,hi8(-(67))
 4871 1634 2081      		ld r18,Z
 4872 1636 3181      		ldd r19,Z+1
 4873 1638 4281      		ldd r20,Z+2
 4874 163a 5381      		ldd r21,Z+3
 4875               	.LVL304:
 4876 163c 8D91      		ld r24,X+
 4877 163e 9D91      		ld r25,X+
 4878 1640 0D90      		ld __tmp_reg__,X+
 4879 1642 BC91      		ld r27,X
 4880 1644 A02D      		mov r26,__tmp_reg__
 4881 1646 281B      		sub r18,r24
 4882 1648 390B      		sbc r19,r25
 4883 164a 4A0B      		sbc r20,r26
 4884 164c 5B0B      		sbc r21,r27
 4885 164e 57FF      		sbrs r21,7
 4886 1650 00C0      		rjmp .L212
 4887 1652 20E0      		ldi r18,lo8(0)
 4888 1654 30E0      		ldi r19,hi8(0)
 4889 1656 40E0      		ldi r20,hlo8(0)
 4890 1658 50E0      		ldi r21,hhi8(0)
 4891               	.L212:
 4892               	.LM473:
 4893 165a B901      		movw r22,r18
 4894               	.LVL305:
 4895 165c CA01      		movw r24,r20
 4896               	/* epilogue start */
 4897 165e 0895      		ret
 4898               	.LFE82:
 4900               	.global	Timebase_UpCounter_Period_Value_Expired
 4902               	Timebase_UpCounter_Period_Value_Expired:
 4903               	.LFB83:
 4904               	.LM474:
 4905               	.LVL306:
 4906 1660 CF93      		push r28
 4907 1662 DF93      		push r29
 4908               	/* prologue: function */
 4909               	/* frame size = 0 */
 4910               	.LBB943:
 4911               	.LBB944:
 4912               	.LBB945:
 4913               	.LBB946:
 4914               	.LM475:
 4915 1664 C091 0000 		lds r28,Timebase
 4916 1668 D091 0000 		lds r29,(Timebase)+1
 4917 166c 682F      		mov r22,r24
 4918 166e 70E0      		ldi r23,lo8(0)
 4919               	.LBE946:
 4920               	.LBE945:
 4921               	.LM476:
 4922 1670 85E1      		ldi r24,lo8(21)
 4923 1672 90E0      		ldi r25,hi8(21)
 4924               	.LVL307:
 4925 1674 689F      		mul r22,r24
 4926 1676 F001      		movw r30,r0
 4927 1678 699F      		mul r22,r25
 4928 167a F00D      		add r31,r0
 4929 167c 789F      		mul r23,r24
 4930 167e F00D      		add r31,r0
 4931 1680 1124      		clr r1
 4932 1682 EC0F      		add r30,r28
 4933 1684 FD1F      		adc r31,r29
 4934 1686 DF01      		movw r26,r30
 4935 1688 DF96      		adiw r26,63
 4936 168a ED5B      		subi r30,lo8(-(67))
 4937 168c FF4F      		sbci r31,hi8(-(67))
 4938 168e 2081      		ld r18,Z
 4939 1690 3181      		ldd r19,Z+1
 4940 1692 4281      		ldd r20,Z+2
 4941 1694 5381      		ldd r21,Z+3
 4942               	.LVL308:
 4943 1696 8D91      		ld r24,X+
 4944 1698 9D91      		ld r25,X+
 4945 169a 0D90      		ld __tmp_reg__,X+
 4946 169c BC91      		ld r27,X
 4947 169e A02D      		mov r26,__tmp_reg__
 4948 16a0 281B      		sub r18,r24
 4949 16a2 390B      		sbc r19,r25
 4950 16a4 4A0B      		sbc r20,r26
 4951 16a6 5B0B      		sbc r21,r27
 4952               	.LM477:
 4953 16a8 57FD      		sbrc r21,7
 4954 16aa 00C0      		rjmp .L215
 4955               	.LBE944:
 4956               	.LBE943:
 4957               	.LM478:
 4958 16ac 2115      		cp r18,__zero_reg__
 4959 16ae 3105      		cpc r19,__zero_reg__
 4960 16b0 4105      		cpc r20,__zero_reg__
 4961 16b2 5105      		cpc r21,__zero_reg__
 4962 16b4 01F0      		breq .L215
 4963 16b6 20E0      		ldi r18,lo8(0)
 4964               	.LVL309:
 4965 16b8 00C0      		rjmp .L216
 4966               	.LVL310:
 4967               	.L215:
 4968 16ba 20E0      		ldi r18,lo8(0)
 4969               	.LVL311:
 4970 16bc 85E1      		ldi r24,lo8(21)
 4971 16be 90E0      		ldi r25,hi8(21)
 4972 16c0 AC01      		movw r20,r24
 4973 16c2 649F      		mul r22,r20
 4974 16c4 C001      		movw r24,r0
 4975 16c6 659F      		mul r22,r21
 4976 16c8 900D      		add r25,r0
 4977 16ca 749F      		mul r23,r20
 4978 16cc 900D      		add r25,r0
 4979 16ce 1124      		clr r1
 4980 16d0 C80F      		add r28,r24
 4981 16d2 D91F      		adc r29,r25
 4982 16d4 8AA9      		ldd r24,Y+50
 4983 16d6 80FF      		sbrs r24,0
 4984 16d8 21E0      		ldi r18,lo8(1)
 4985               	.L217:
 4986 16da 81E0      		ldi r24,lo8(1)
 4987 16dc 2827      		eor r18,r24
 4988               	.L216:
 4989               	.LM479:
 4990 16de 822F      		mov r24,r18
 4991               	/* epilogue start */
 4992 16e0 DF91      		pop r29
 4993 16e2 CF91      		pop r28
 4994 16e4 0895      		ret
 4995               	.LFE83:
 4997               	.global	Timebase_UpCounter_Period_Value_Expired_Event
 4999               	Timebase_UpCounter_Period_Value_Expired_Event:
 5000               	.LFB84:
 5001               	.LM480:
 5002               	.LVL312:
 5003 16e6 1F93      		push r17
 5004               	/* prologue: function */
 5005               	/* frame size = 0 */
 5006 16e8 182F      		mov r17,r24
 5007               	.LM481:
 5008 16ea 0E94 0000 		call Timebase_UpCounter_Period_Value_Expired
 5009               	.LVL313:
 5010 16ee 8130      		cpi r24,lo8(1)
 5011 16f0 01F0      		breq .L220
 5012 16f2 80E0      		ldi r24,lo8(0)
 5013 16f4 00C0      		rjmp .L221
 5014               	.L220:
 5015               	.LBB947:
 5016               	.LBB948:
 5017               	.LM482:
 5018 16f6 E091 0000 		lds r30,Timebase
 5019 16fa F091 0000 		lds r31,(Timebase)+1
 5020 16fe 212F      		mov r18,r17
 5021 1700 30E0      		ldi r19,lo8(0)
 5022               	.LVL314:
 5023 1702 85E1      		ldi r24,lo8(21)
 5024 1704 90E0      		ldi r25,hi8(21)
 5025 1706 AC01      		movw r20,r24
 5026 1708 249F      		mul r18,r20
 5027 170a C001      		movw r24,r0
 5028 170c 259F      		mul r18,r21
 5029 170e 900D      		add r25,r0
 5030 1710 349F      		mul r19,r20
 5031 1712 900D      		add r25,r0
 5032 1714 1124      		clr r1
 5033 1716 E80F      		add r30,r24
 5034 1718 F91F      		adc r31,r25
 5035 171a 82A9      		ldd r24,Z+50
 5036 171c 8E7F      		andi r24,lo8(-2)
 5037 171e 82AB      		std Z+50,r24
 5038 1720 81E0      		ldi r24,lo8(1)
 5039               	.L221:
 5040               	/* epilogue start */
 5041               	.LBE948:
 5042               	.LBE947:
 5043               	.LM483:
 5044 1722 1F91      		pop r17
 5045               	.LVL315:
 5046 1724 0895      		ret
 5047               	.LFE84:
 5049               	.global	Timebase_UpCounter_Update_All
 5051               	Timebase_UpCounter_Update_All:
 5052               	.LFB85:
 5053               	.LM484:
 5054               	/* prologue: function */
 5055               	/* frame size = 0 */
 5056               	.LBB949:
 5057               	.LM485:
 5058 1726 80E0      		ldi r24,lo8(0)
 5059 1728 0E94 0000 		call Timebase_UpCounter_Update
 5060               	/* epilogue start */
 5061               	.LBE949:
 5062               	.LM486:
 5063 172c 0895      		ret
 5064               	.LFE85:
 5066               	.global	Timebase_UpCounter_Reset_All
 5068               	Timebase_UpCounter_Reset_All:
 5069               	.LFB86:
 5070               	.LM487:
 5071               	/* prologue: function */
 5072               	/* frame size = 0 */
 5073               	.LBB950:
 5074               	.LM488:
 5075 172e 80E0      		ldi r24,lo8(0)
 5076 1730 0E94 0000 		call Timebase_UpCounter_Reset
 5077               	/* epilogue start */
 5078               	.LBE950:
 5079               	.LM489:
 5080 1734 0895      		ret
 5081               	.LFE86:
 5083               	.global	Timebase_DownCounter_SS_Get_Status
 5085               	Timebase_DownCounter_SS_Get_Status:
 5086               	.LFB87:
 5087               	.LM490:
 5088               	.LVL316:
 5089               	/* prologue: function */
 5090               	/* frame size = 0 */
 5091               	.LM491:
 5092 1736 E091 0000 		lds r30,Timebase
 5093 173a F091 0000 		lds r31,(Timebase)+1
 5094 173e 90E0      		ldi r25,lo8(0)
 5095               	.LVL317:
 5096 1740 9C01      		movw r18,r24
 5097 1742 44E0      		ldi r20,4
 5098 1744 220F      	1:	lsl r18
 5099 1746 331F      		rol r19
 5100 1748 4A95      		dec r20
 5101 174a 01F4      		brne 1b
 5102 174c 280F      		add r18,r24
 5103 174e 391F      		adc r19,r25
 5104 1750 E20F      		add r30,r18
 5105 1752 F31F      		adc r31,r19
 5106 1754 E95B      		subi r30,lo8(-(71))
 5107 1756 FF4F      		sbci r31,hi8(-(71))
 5108 1758 8081      		ld r24,Z
 5109               	.LVL318:
 5110 175a 8695      		lsr r24
 5111               	.LM492:
 5112 175c 8F70      		andi r24,lo8(15)
 5113               	/* epilogue start */
 5114 175e 0895      		ret
 5115               	.LFE87:
 5117               	.global	Timebase_DownCounter_SS_Set_Status
 5119               	Timebase_DownCounter_SS_Set_Status:
 5120               	.LFB88:
 5121               	.LM493:
 5122               	.LVL319:
 5123               	/* prologue: function */
 5124               	/* frame size = 0 */
 5125               	.LM494:
 5126 1760 E091 0000 		lds r30,Timebase
 5127 1764 F091 0000 		lds r31,(Timebase)+1
 5128 1768 90E0      		ldi r25,lo8(0)
 5129               	.LVL320:
 5130 176a 9C01      		movw r18,r24
 5131 176c 54E0      		ldi r21,4
 5132 176e 220F      	1:	lsl r18
 5133 1770 331F      		rol r19
 5134 1772 5A95      		dec r21
 5135 1774 01F4      		brne 1b
 5136 1776 280F      		add r18,r24
 5137 1778 391F      		adc r19,r25
 5138 177a E20F      		add r30,r18
 5139 177c F31F      		adc r31,r19
 5140 177e E95B      		subi r30,lo8(-(71))
 5141 1780 FF4F      		sbci r31,hi8(-(71))
 5142 1782 6F70      		andi r22,lo8(15)
 5143               	.LVL321:
 5144 1784 660F      		lsl r22
 5145 1786 8081      		ld r24,Z
 5146               	.LVL322:
 5147 1788 817E      		andi r24,lo8(-31)
 5148 178a 862B      		or r24,r22
 5149 178c 8083      		st Z,r24
 5150               	/* epilogue start */
 5151               	.LM495:
 5152 178e 0895      		ret
 5153               	.LFE88:
 5155               	.global	Timebase_DownCounter_SS_Get_Value
 5157               	Timebase_DownCounter_SS_Get_Value:
 5158               	.LFB89:
 5159               	.LM496:
 5160               	.LVL323:
 5161               	/* prologue: function */
 5162               	/* frame size = 0 */
 5163               	.LM497:
 5164 1790 E091 0000 		lds r30,Timebase
 5165 1794 F091 0000 		lds r31,(Timebase)+1
 5166 1798 90E0      		ldi r25,lo8(0)
 5167               	.LVL324:
 5168 179a 9C01      		movw r18,r24
 5169 179c 64E0      		ldi r22,4
 5170 179e 220F      	1:	lsl r18
 5171 17a0 331F      		rol r19
 5172 17a2 6A95      		dec r22
 5173 17a4 01F4      		brne 1b
 5174 17a6 280F      		add r18,r24
 5175 17a8 391F      		adc r19,r25
 5176 17aa E20F      		add r30,r18
 5177 17ac F31F      		adc r31,r19
 5178 17ae E05B      		subi r30,lo8(-(80))
 5179 17b0 FF4F      		sbci r31,hi8(-(80))
 5180 17b2 6081      		ld r22,Z
 5181 17b4 7181      		ldd r23,Z+1
 5182               	.LM498:
 5183 17b6 8281      		ldd r24,Z+2
 5184               	.LVL325:
 5185 17b8 9381      		ldd r25,Z+3
 5186               	.LVL326:
 5187               	/* epilogue start */
 5188 17ba 0895      		ret
 5189               	.LFE89:
 5191               	.global	Timebase_DownCounter_SS_Set_Value
 5193               	Timebase_DownCounter_SS_Set_Value:
 5194               	.LFB90:
 5195               	.LM499:
 5196               	.LVL327:
 5197               	/* prologue: function */
 5198               	/* frame size = 0 */
 5199               	.LM500:
 5200 17bc E091 0000 		lds r30,Timebase
 5201 17c0 F091 0000 		lds r31,(Timebase)+1
 5202 17c4 90E0      		ldi r25,lo8(0)
 5203               	.LVL328:
 5204 17c6 9C01      		movw r18,r24
 5205 17c8 A4E0      		ldi r26,4
 5206 17ca 220F      	1:	lsl r18
 5207 17cc 331F      		rol r19
 5208 17ce AA95      		dec r26
 5209 17d0 01F4      		brne 1b
 5210 17d2 280F      		add r18,r24
 5211 17d4 391F      		adc r19,r25
 5212 17d6 E20F      		add r30,r18
 5213 17d8 F31F      		adc r31,r19
 5214 17da E05B      		subi r30,lo8(-(80))
 5215 17dc FF4F      		sbci r31,hi8(-(80))
 5216 17de 4083      		st Z,r20
 5217 17e0 5183      		std Z+1,r21
 5218 17e2 6283      		std Z+2,r22
 5219 17e4 7383      		std Z+3,r23
 5220               	/* epilogue start */
 5221               	.LM501:
 5222 17e6 0895      		ret
 5223               	.LFE90:
 5225               	.global	Timebase_DownCounter_SS_Get_EndValueSec
 5227               	Timebase_DownCounter_SS_Get_EndValueSec:
 5228               	.LFB91:
 5229               	.LM502:
 5230               	.LVL329:
 5231               	/* prologue: function */
 5232               	/* frame size = 0 */
 5233               	.LM503:
 5234 17e8 E091 0000 		lds r30,Timebase
 5235 17ec F091 0000 		lds r31,(Timebase)+1
 5236 17f0 90E0      		ldi r25,lo8(0)
 5237               	.LVL330:
 5238 17f2 9C01      		movw r18,r24
 5239 17f4 B4E0      		ldi r27,4
 5240 17f6 220F      	1:	lsl r18
 5241 17f8 331F      		rol r19
 5242 17fa BA95      		dec r27
 5243 17fc 01F4      		brne 1b
 5244 17fe 280F      		add r18,r24
 5245 1800 391F      		adc r19,r25
 5246 1802 E20F      		add r30,r18
 5247 1804 F31F      		adc r31,r19
 5248 1806 E85B      		subi r30,lo8(-(72))
 5249 1808 FF4F      		sbci r31,hi8(-(72))
 5250 180a 6081      		ld r22,Z
 5251 180c 7181      		ldd r23,Z+1
 5252               	.LM504:
 5253 180e 8281      		ldd r24,Z+2
 5254               	.LVL331:
 5255 1810 9381      		ldd r25,Z+3
 5256               	.LVL332:
 5257               	/* epilogue start */
 5258 1812 0895      		ret
 5259               	.LFE91:
 5261               	.global	Timebase_DownCounter_SS_Get_EndValueSubSec
 5263               	Timebase_DownCounter_SS_Get_EndValueSubSec:
 5264               	.LFB92:
 5265               	.LM505:
 5266               	.LVL333:
 5267               	/* prologue: function */
 5268               	/* frame size = 0 */
 5269               	.LM506:
 5270 1814 E091 0000 		lds r30,Timebase
 5271 1818 F091 0000 		lds r31,(Timebase)+1
 5272 181c 90E0      		ldi r25,lo8(0)
 5273               	.LVL334:
 5274 181e 9C01      		movw r18,r24
 5275 1820 44E0      		ldi r20,4
 5276 1822 220F      	1:	lsl r18
 5277 1824 331F      		rol r19
 5278 1826 4A95      		dec r20
 5279 1828 01F4      		brne 1b
 5280 182a 280F      		add r18,r24
 5281 182c 391F      		adc r19,r25
 5282 182e E20F      		add r30,r18
 5283 1830 F31F      		adc r31,r19
 5284 1832 E45B      		subi r30,lo8(-(76))
 5285 1834 FF4F      		sbci r31,hi8(-(76))
 5286 1836 6081      		ld r22,Z
 5287 1838 7181      		ldd r23,Z+1
 5288               	.LM507:
 5289 183a 8281      		ldd r24,Z+2
 5290               	.LVL335:
 5291 183c 9381      		ldd r25,Z+3
 5292               	.LVL336:
 5293               	/* epilogue start */
 5294 183e 0895      		ret
 5295               	.LFE92:
 5297               	.global	Timebase_DownCounter_SS_Set_EndValueSec
 5299               	Timebase_DownCounter_SS_Set_EndValueSec:
 5300               	.LFB93:
 5301               	.LM508:
 5302               	.LVL337:
 5303               	/* prologue: function */
 5304               	/* frame size = 0 */
 5305               	.LM509:
 5306 1840 E091 0000 		lds r30,Timebase
 5307 1844 F091 0000 		lds r31,(Timebase)+1
 5308 1848 90E0      		ldi r25,lo8(0)
 5309               	.LVL338:
 5310 184a 9C01      		movw r18,r24
 5311 184c A4E0      		ldi r26,4
 5312 184e 220F      	1:	lsl r18
 5313 1850 331F      		rol r19
 5314 1852 AA95      		dec r26
 5315 1854 01F4      		brne 1b
 5316 1856 280F      		add r18,r24
 5317 1858 391F      		adc r19,r25
 5318 185a E20F      		add r30,r18
 5319 185c F31F      		adc r31,r19
 5320 185e E85B      		subi r30,lo8(-(72))
 5321 1860 FF4F      		sbci r31,hi8(-(72))
 5322 1862 4083      		st Z,r20
 5323 1864 5183      		std Z+1,r21
 5324 1866 6283      		std Z+2,r22
 5325 1868 7383      		std Z+3,r23
 5326               	/* epilogue start */
 5327               	.LM510:
 5328 186a 0895      		ret
 5329               	.LFE93:
 5331               	.global	Timebase_DownCounter_SS_Set_EndValueSubSec
 5333               	Timebase_DownCounter_SS_Set_EndValueSubSec:
 5334               	.LFB94:
 5335               	.LM511:
 5336               	.LVL339:
 5337               	/* prologue: function */
 5338               	/* frame size = 0 */
 5339               	.LM512:
 5340 186c E091 0000 		lds r30,Timebase
 5341 1870 F091 0000 		lds r31,(Timebase)+1
 5342 1874 90E0      		ldi r25,lo8(0)
 5343               	.LVL340:
 5344 1876 9C01      		movw r18,r24
 5345 1878 B4E0      		ldi r27,4
 5346 187a 220F      	1:	lsl r18
 5347 187c 331F      		rol r19
 5348 187e BA95      		dec r27
 5349 1880 01F4      		brne 1b
 5350 1882 280F      		add r18,r24
 5351 1884 391F      		adc r19,r25
 5352 1886 E20F      		add r30,r18
 5353 1888 F31F      		adc r31,r19
 5354 188a E45B      		subi r30,lo8(-(76))
 5355 188c FF4F      		sbci r31,hi8(-(76))
 5356 188e 4083      		st Z,r20
 5357 1890 5183      		std Z+1,r21
 5358 1892 6283      		std Z+2,r22
 5359 1894 7383      		std Z+3,r23
 5360               	/* epilogue start */
 5361               	.LM513:
 5362 1896 0895      		ret
 5363               	.LFE94:
 5365               	.global	Timebase_DownCounter_SS_Get_PeriodValue
 5367               	Timebase_DownCounter_SS_Get_PeriodValue:
 5368               	.LFB95:
 5369               	.LM514:
 5370               	.LVL341:
 5371               	/* prologue: function */
 5372               	/* frame size = 0 */
 5373               	.LM515:
 5374 1898 E091 0000 		lds r30,Timebase
 5375 189c F091 0000 		lds r31,(Timebase)+1
 5376 18a0 90E0      		ldi r25,lo8(0)
 5377               	.LVL342:
 5378 18a2 9C01      		movw r18,r24
 5379 18a4 44E0      		ldi r20,4
 5380 18a6 220F      	1:	lsl r18
 5381 18a8 331F      		rol r19
 5382 18aa 4A95      		dec r20
 5383 18ac 01F4      		brne 1b
 5384 18ae 280F      		add r18,r24
 5385 18b0 391F      		adc r19,r25
 5386 18b2 E20F      		add r30,r18
 5387 18b4 F31F      		adc r31,r19
 5388 18b6 EC5A      		subi r30,lo8(-(84))
 5389 18b8 FF4F      		sbci r31,hi8(-(84))
 5390 18ba 6081      		ld r22,Z
 5391 18bc 7181      		ldd r23,Z+1
 5392               	.LM516:
 5393 18be 8281      		ldd r24,Z+2
 5394               	.LVL343:
 5395 18c0 9381      		ldd r25,Z+3
 5396               	.LVL344:
 5397               	/* epilogue start */
 5398 18c2 0895      		ret
 5399               	.LFE95:
 5401               	.global	Timebase_DownCounter_SS_Set_PeriodValue
 5403               	Timebase_DownCounter_SS_Set_PeriodValue:
 5404               	.LFB96:
 5405               	.LM517:
 5406               	.LVL345:
 5407               	/* prologue: function */
 5408               	/* frame size = 0 */
 5409 18c4 E091 0000 		lds r30,Timebase
 5410 18c8 F091 0000 		lds r31,(Timebase)+1
 5411 18cc 282F      		mov r18,r24
 5412 18ce 30E0      		ldi r19,lo8(0)
 5413               	.LVL346:
 5414               	.LM518:
 5415 18d0 77FF      		sbrs r23,7
 5416 18d2 00C0      		rjmp .L246
 5417               	.LVL347:
 5418               	.LM519:
 5419 18d4 C901      		movw r24,r18
 5420 18d6 B4E0      		ldi r27,4
 5421 18d8 880F      	1:	lsl r24
 5422 18da 991F      		rol r25
 5423 18dc BA95      		dec r27
 5424 18de 01F4      		brne 1b
 5425 18e0 820F      		add r24,r18
 5426 18e2 931F      		adc r25,r19
 5427 18e4 E80F      		add r30,r24
 5428 18e6 F91F      		adc r31,r25
 5429 18e8 EC5A      		subi r30,lo8(-(84))
 5430 18ea FF4F      		sbci r31,hi8(-(84))
 5431 18ec 1082      		st Z,__zero_reg__
 5432 18ee 1182      		std Z+1,__zero_reg__
 5433 18f0 1282      		std Z+2,__zero_reg__
 5434 18f2 1382      		std Z+3,__zero_reg__
 5435 18f4 0895      		ret
 5436               	.LVL348:
 5437               	.L246:
 5438               	.LM520:
 5439 18f6 C901      		movw r24,r18
 5440 18f8 A4E0      		ldi r26,4
 5441 18fa 880F      	1:	lsl r24
 5442 18fc 991F      		rol r25
 5443 18fe AA95      		dec r26
 5444 1900 01F4      		brne 1b
 5445 1902 820F      		add r24,r18
 5446 1904 931F      		adc r25,r19
 5447 1906 E80F      		add r30,r24
 5448 1908 F91F      		adc r31,r25
 5449 190a EC5A      		subi r30,lo8(-(84))
 5450 190c FF4F      		sbci r31,hi8(-(84))
 5451 190e 4083      		st Z,r20
 5452 1910 5183      		std Z+1,r21
 5453 1912 6283      		std Z+2,r22
 5454 1914 7383      		std Z+3,r23
 5455 1916 0895      		ret
 5456               	.LFE96:
 5458               	.global	Timebase_DownCounter_SS_Get_Period_Flag
 5460               	Timebase_DownCounter_SS_Get_Period_Flag:
 5461               	.LFB97:
 5462               	.LM521:
 5463               	.LVL349:
 5464               	/* prologue: function */
 5465               	/* frame size = 0 */
 5466               	.LM522:
 5467 1918 E091 0000 		lds r30,Timebase
 5468 191c F091 0000 		lds r31,(Timebase)+1
 5469 1920 90E0      		ldi r25,lo8(0)
 5470               	.LVL350:
 5471 1922 9C01      		movw r18,r24
 5472 1924 44E0      		ldi r20,4
 5473 1926 220F      	1:	lsl r18
 5474 1928 331F      		rol r19
 5475 192a 4A95      		dec r20
 5476 192c 01F4      		brne 1b
 5477 192e 280F      		add r18,r24
 5478 1930 391F      		adc r19,r25
 5479 1932 E20F      		add r30,r18
 5480 1934 F31F      		adc r31,r19
 5481 1936 E95B      		subi r30,lo8(-(71))
 5482 1938 FF4F      		sbci r31,hi8(-(71))
 5483 193a 8081      		ld r24,Z
 5484               	.LVL351:
 5485               	.LM523:
 5486 193c 8170      		andi r24,lo8(1)
 5487               	/* epilogue start */
 5488 193e 0895      		ret
 5489               	.LFE97:
 5491               	.global	Timebase_DownCounter_SS_Set_Period_Flag
 5493               	Timebase_DownCounter_SS_Set_Period_Flag:
 5494               	.LFB98:
 5495               	.LM524:
 5496               	.LVL352:
 5497               	/* prologue: function */
 5498               	/* frame size = 0 */
 5499               	.LM525:
 5500 1940 E091 0000 		lds r30,Timebase
 5501 1944 F091 0000 		lds r31,(Timebase)+1
 5502 1948 90E0      		ldi r25,lo8(0)
 5503               	.LVL353:
 5504 194a 9C01      		movw r18,r24
 5505 194c 54E0      		ldi r21,4
 5506 194e 220F      	1:	lsl r18
 5507 1950 331F      		rol r19
 5508 1952 5A95      		dec r21
 5509 1954 01F4      		brne 1b
 5510 1956 280F      		add r18,r24
 5511 1958 391F      		adc r19,r25
 5512 195a E20F      		add r30,r18
 5513 195c F31F      		adc r31,r19
 5514 195e E95B      		subi r30,lo8(-(71))
 5515 1960 FF4F      		sbci r31,hi8(-(71))
 5516 1962 8081      		ld r24,Z
 5517               	.LVL354:
 5518 1964 8160      		ori r24,lo8(1)
 5519 1966 8083      		st Z,r24
 5520               	/* epilogue start */
 5521               	.LM526:
 5522 1968 0895      		ret
 5523               	.LFE98:
 5525               	.global	Timebase_DownCounter_SS_Clear_Period_Flag
 5527               	Timebase_DownCounter_SS_Clear_Period_Flag:
 5528               	.LFB99:
 5529               	.LM527:
 5530               	.LVL355:
 5531               	/* prologue: function */
 5532               	/* frame size = 0 */
 5533               	.LM528:
 5534 196a E091 0000 		lds r30,Timebase
 5535 196e F091 0000 		lds r31,(Timebase)+1
 5536 1972 90E0      		ldi r25,lo8(0)
 5537               	.LVL356:
 5538 1974 9C01      		movw r18,r24
 5539 1976 64E0      		ldi r22,4
 5540 1978 220F      	1:	lsl r18
 5541 197a 331F      		rol r19
 5542 197c 6A95      		dec r22
 5543 197e 01F4      		brne 1b
 5544 1980 280F      		add r18,r24
 5545 1982 391F      		adc r19,r25
 5546 1984 E20F      		add r30,r18
 5547 1986 F31F      		adc r31,r19
 5548 1988 E95B      		subi r30,lo8(-(71))
 5549 198a FF4F      		sbci r31,hi8(-(71))
 5550 198c 8081      		ld r24,Z
 5551               	.LVL357:
 5552 198e 8E7F      		andi r24,lo8(-2)
 5553 1990 8083      		st Z,r24
 5554               	/* epilogue start */
 5555               	.LM529:
 5556 1992 0895      		ret
 5557               	.LFE99:
 5559               	.global	Timebase_DownCounter_SS_Reset
 5561               	Timebase_DownCounter_SS_Reset:
 5562               	.LFB100:
 5563               	.LM530:
 5564               	.LVL358:
 5565               	/* prologue: function */
 5566               	/* frame size = 0 */
 5567               	.LBB951:
 5568               	.LBB952:
 5569               	.LM531:
 5570 1994 E091 0000 		lds r30,Timebase
 5571 1998 F091 0000 		lds r31,(Timebase)+1
 5572 199c 90E0      		ldi r25,lo8(0)
 5573 199e 9C01      		movw r18,r24
 5574               	.LVL359:
 5575 19a0 74E0      		ldi r23,4
 5576 19a2 220F      	1:	lsl r18
 5577 19a4 331F      		rol r19
 5578 19a6 7A95      		dec r23
 5579 19a8 01F4      		brne 1b
 5580 19aa 280F      		add r18,r24
 5581 19ac 391F      		adc r19,r25
 5582 19ae E20F      		add r30,r18
 5583 19b0 F31F      		adc r31,r19
 5584 19b2 E45B      		subi r30,lo8(-(76))
 5585 19b4 FF4F      		sbci r31,hi8(-(76))
 5586 19b6 1082      		st Z,__zero_reg__
 5587 19b8 1182      		std Z+1,__zero_reg__
 5588 19ba 1282      		std Z+2,__zero_reg__
 5589 19bc 1382      		std Z+3,__zero_reg__
 5590               	.LBE952:
 5591               	.LBE951:
 5592               	.LBB953:
 5593               	.LBB954:
 5594               	.LM532:
 5595 19be 1292      		st -Z,__zero_reg__
 5596 19c0 1292      		st -Z,__zero_reg__
 5597 19c2 1292      		st -Z,__zero_reg__
 5598 19c4 1292      		st -Z,__zero_reg__
 5599               	.LBE954:
 5600               	.LBE953:
 5601               	.LBB955:
 5602               	.LBB956:
 5603               	.LM533:
 5604 19c6 3896      		adiw r30,8
 5605 19c8 1082      		st Z,__zero_reg__
 5606 19ca 1182      		std Z+1,__zero_reg__
 5607 19cc 1282      		std Z+2,__zero_reg__
 5608 19ce 1382      		std Z+3,__zero_reg__
 5609               	.LBE956:
 5610               	.LBE955:
 5611               	.LBB957:
 5612               	.LBB958:
 5613               	.LM534:
 5614 19d0 3997      		sbiw r30,9
 5615 19d2 8081      		ld r24,Z
 5616               	.LBE958:
 5617               	.LBE957:
 5618               	.LBB959:
 5619               	.LBB960:
 5620               	.LM535:
 5621 19d4 807E      		andi r24,lo8(-32)
 5622 19d6 8083      		st Z,r24
 5623               	/* epilogue start */
 5624               	.LBE960:
 5625               	.LBE959:
 5626               	.LM536:
 5627 19d8 0895      		ret
 5628               	.LFE100:
 5630               	.global	Timebase_DownCounter_SS_Clear_All_Flags
 5632               	Timebase_DownCounter_SS_Clear_All_Flags:
 5633               	.LFB101:
 5634               	.LM537:
 5635               	.LVL360:
 5636               	/* prologue: function */
 5637               	/* frame size = 0 */
 5638               	.LBB961:
 5639               	.LBB962:
 5640               	.LBB963:
 5641               	.LBB964:
 5642               	.LM538:
 5643 19da E091 0000 		lds r30,Timebase
 5644 19de F091 0000 		lds r31,(Timebase)+1
 5645 19e2 90E0      		ldi r25,lo8(0)
 5646 19e4 9C01      		movw r18,r24
 5647               	.LVL361:
 5648 19e6 A4E0      		ldi r26,4
 5649 19e8 220F      	1:	lsl r18
 5650 19ea 331F      		rol r19
 5651 19ec AA95      		dec r26
 5652 19ee 01F4      		brne 1b
 5653 19f0 280F      		add r18,r24
 5654 19f2 391F      		adc r19,r25
 5655 19f4 E20F      		add r30,r18
 5656 19f6 F31F      		adc r31,r19
 5657 19f8 E45B      		subi r30,lo8(-(76))
 5658 19fa FF4F      		sbci r31,hi8(-(76))
 5659 19fc 1082      		st Z,__zero_reg__
 5660 19fe 1182      		std Z+1,__zero_reg__
 5661 1a00 1282      		std Z+2,__zero_reg__
 5662 1a02 1382      		std Z+3,__zero_reg__
 5663               	.LBE964:
 5664               	.LBE963:
 5665               	.LBB965:
 5666               	.LBB966:
 5667               	.LM539:
 5668 1a04 1292      		st -Z,__zero_reg__
 5669 1a06 1292      		st -Z,__zero_reg__
 5670 1a08 1292      		st -Z,__zero_reg__
 5671 1a0a 1292      		st -Z,__zero_reg__
 5672               	.LBE966:
 5673               	.LBE965:
 5674               	.LBB967:
 5675               	.LBB968:
 5676               	.LM540:
 5677 1a0c 3896      		adiw r30,8
 5678 1a0e 1082      		st Z,__zero_reg__
 5679 1a10 1182      		std Z+1,__zero_reg__
 5680 1a12 1282      		std Z+2,__zero_reg__
 5681 1a14 1382      		std Z+3,__zero_reg__
 5682               	.LBE968:
 5683               	.LBE967:
 5684               	.LBB969:
 5685               	.LBB970:
 5686               	.LM541:
 5687 1a16 3997      		sbiw r30,9
 5688 1a18 8081      		ld r24,Z
 5689               	.LBE970:
 5690               	.LBE969:
 5691               	.LBB971:
 5692               	.LBB972:
 5693               	.LM542:
 5694 1a1a 807E      		andi r24,lo8(-32)
 5695 1a1c 8083      		st Z,r24
 5696               	/* epilogue start */
 5697               	.LBE972:
 5698               	.LBE971:
 5699               	.LBE962:
 5700               	.LBE961:
 5701               	.LM543:
 5702 1a1e 0895      		ret
 5703               	.LFE101:
 5705               	.global	Timebase_DownCounter_SS_Start
 5707               	Timebase_DownCounter_SS_Start:
 5708               	.LFB102:
 5709               	.LM544:
 5710               	.LVL362:
 5711               	/* prologue: function */
 5712               	/* frame size = 0 */
 5713               	.LBB973:
 5714               	.LBB974:
 5715               	.LM545:
 5716 1a20 E091 0000 		lds r30,Timebase
 5717 1a24 F091 0000 		lds r31,(Timebase)+1
 5718 1a28 90E0      		ldi r25,lo8(0)
 5719               	.LBE974:
 5720               	.LBE973:
 5721               	.LM546:
 5722 1a2a 9C01      		movw r18,r24
 5723               	.LVL363:
 5724 1a2c B4E0      		ldi r27,4
 5725 1a2e 220F      	1:	lsl r18
 5726 1a30 331F      		rol r19
 5727 1a32 BA95      		dec r27
 5728 1a34 01F4      		brne 1b
 5729 1a36 280F      		add r18,r24
 5730 1a38 391F      		adc r19,r25
 5731 1a3a E20F      		add r30,r18
 5732 1a3c F31F      		adc r31,r19
 5733 1a3e E95B      		subi r30,lo8(-(71))
 5734 1a40 FF4F      		sbci r31,hi8(-(71))
 5735 1a42 9081      		ld r25,Z
 5736 1a44 892F      		mov r24,r25
 5737 1a46 8695      		lsr r24
 5738 1a48 8F70      		andi r24,lo8(15)
 5739 1a4a 8130      		cpi r24,lo8(1)
 5740 1a4c 01F0      		breq .L261
 5741               	.LBB975:
 5742               	.LBB976:
 5743               	.LM547:
 5744 1a4e 917E      		andi r25,lo8(-31)
 5745 1a50 9260      		ori r25,lo8(2)
 5746 1a52 9083      		st Z,r25
 5747               	.L261:
 5748 1a54 0895      		ret
 5749               	.LBE976:
 5750               	.LBE975:
 5751               	.LFE102:
 5753               	.global	Timebase_DownCounter_SS_Stop
 5755               	Timebase_DownCounter_SS_Stop:
 5756               	.LFB103:
 5757               	.LM548:
 5758               	.LVL364:
 5759               	/* prologue: function */
 5760               	/* frame size = 0 */
 5761               	.LBB977:
 5762               	.LBB978:
 5763               	.LM549:
 5764 1a56 E091 0000 		lds r30,Timebase
 5765 1a5a F091 0000 		lds r31,(Timebase)+1
 5766 1a5e 90E0      		ldi r25,lo8(0)
 5767               	.LBE978:
 5768               	.LBE977:
 5769               	.LM550:
 5770 1a60 9C01      		movw r18,r24
 5771               	.LVL365:
 5772 1a62 44E0      		ldi r20,4
 5773 1a64 220F      	1:	lsl r18
 5774 1a66 331F      		rol r19
 5775 1a68 4A95      		dec r20
 5776 1a6a 01F4      		brne 1b
 5777 1a6c 280F      		add r18,r24
 5778 1a6e 391F      		adc r19,r25
 5779 1a70 E20F      		add r30,r18
 5780 1a72 F31F      		adc r31,r19
 5781 1a74 E95B      		subi r30,lo8(-(71))
 5782 1a76 FF4F      		sbci r31,hi8(-(71))
 5783 1a78 9081      		ld r25,Z
 5784 1a7a 892F      		mov r24,r25
 5785 1a7c 8695      		lsr r24
 5786 1a7e 8F70      		andi r24,lo8(15)
 5787 1a80 8230      		cpi r24,lo8(2)
 5788 1a82 01F0      		breq .L264
 5789               	.LBB979:
 5790               	.LBB980:
 5791               	.LM551:
 5792 1a84 917E      		andi r25,lo8(-31)
 5793 1a86 9460      		ori r25,lo8(4)
 5794 1a88 9083      		st Z,r25
 5795               	.L264:
 5796 1a8a 0895      		ret
 5797               	.LBE980:
 5798               	.LBE979:
 5799               	.LFE103:
 5801               	.global	Timebase_DownCounter_SS_Set_Securely
 5803               	Timebase_DownCounter_SS_Set_Securely:
 5804               	.LFB104:
 5805               	.LM552:
 5806               	.LVL366:
 5807 1a8c 2F92      		push r2
 5808 1a8e 3F92      		push r3
 5809 1a90 4F92      		push r4
 5810 1a92 5F92      		push r5
 5811 1a94 6F92      		push r6
 5812 1a96 7F92      		push r7
 5813 1a98 8F92      		push r8
 5814 1a9a 9F92      		push r9
 5815 1a9c AF92      		push r10
 5816 1a9e BF92      		push r11
 5817 1aa0 CF92      		push r12
 5818 1aa2 DF92      		push r13
 5819 1aa4 EF92      		push r14
 5820 1aa6 FF92      		push r15
 5821 1aa8 0F93      		push r16
 5822 1aaa 1F93      		push r17
 5823 1aac DF93      		push r29
 5824 1aae CF93      		push r28
 5825 1ab0 00D0      		rcall .
 5826 1ab2 00D0      		rcall .
 5827 1ab4 CDB7      		in r28,__SP_L__
 5828 1ab6 DEB7      		in r29,__SP_H__
 5829               	/* prologue: function */
 5830               	/* frame size = 4 */
 5831 1ab8 4A01      		movw r8,r20
 5832 1aba 5B01      		movw r10,r22
 5833               	.LBB981:
 5834               	.LBB982:
 5835               	.LM553:
 5836 1abc 2091 0000 		lds r18,Timebase
 5837 1ac0 3091 0000 		lds r19,(Timebase)+1
 5838 1ac4 3C83      		std Y+4,r19
 5839 1ac6 2B83      		std Y+3,r18
 5840 1ac8 A82F      		mov r26,r24
 5841 1aca B0E0      		ldi r27,lo8(0)
 5842 1acc BA83      		std Y+2,r27
 5843 1ace A983      		std Y+1,r26
 5844               	.LBE982:
 5845               	.LBE981:
 5846               	.LM554:
 5847 1ad0 FD01      		movw r30,r26
 5848 1ad2 64E0      		ldi r22,4
 5849 1ad4 EE0F      	1:	lsl r30
 5850 1ad6 FF1F      		rol r31
 5851 1ad8 6A95      		dec r22
 5852 1ada 01F4      		brne 1b
 5853 1adc EA0F      		add r30,r26
 5854 1ade FB1F      		adc r31,r27
 5855 1ae0 E20F      		add r30,r18
 5856 1ae2 F31F      		adc r31,r19
 5857 1ae4 E95B      		subi r30,lo8(-(71))
 5858 1ae6 FF4F      		sbci r31,hi8(-(71))
 5859 1ae8 8081      		ld r24,Z
 5860               	.LVL367:
 5861 1aea E754      		subi r30,lo8(-(-71))
 5862 1aec F040      		sbci r31,hi8(-(-71))
 5863 1aee 8695      		lsr r24
 5864 1af0 8F70      		andi r24,lo8(15)
 5865 1af2 01F0      		breq .+2
 5866 1af4 00C0      		rjmp .L268
 5867               	.LVL368:
 5868               	.LBB983:
 5869               	.LBB984:
 5870               	.LBB985:
 5871               	.LM555:
 5872 1af6 E05B      		subi r30,lo8(-(80))
 5873 1af8 FF4F      		sbci r31,hi8(-(80))
 5874 1afa 8082      		st Z,r8
 5875 1afc 9182      		std Z+1,r9
 5876 1afe A282      		std Z+2,r10
 5877 1b00 B382      		std Z+3,r11
 5878               	.LBE985:
 5879               	.LBE984:
 5880               	.LBB986:
 5881               	.LBB987:
 5882               	.LBB988:
 5883               	.LBB989:
 5884               	.LM556:
 5885               	/* #APP */
 5886               	 ;  341 "timebase.c" 1
 5887 1b02 F894      		cli
 5888               	 ;  0 "" 2
 5889               	/* #NOAPP */
 5890               	.LBE989:
 5891               	.LBE988:
 5892               	.LM557:
 5893 1b04 F901      		movw r30,r18
 5894 1b06 C084      		ldd r12,Z+8
 5895 1b08 D184      		ldd r13,Z+9
 5896               	.LVL369:
 5897               	.LBB990:
 5898               	.LBB991:
 5899               	.LM558:
 5900               	/* #APP */
 5901               	 ;  345 "timebase.c" 1
 5902 1b0a 7894      		sei
 5903               	 ;  0 "" 2
 5904               	/* #NOAPP */
 5905               	.LBE991:
 5906               	.LBE990:
 5907               	.LBE987:
 5908               	.LBE986:
 5909               	.LBB992:
 5910               	.LBB993:
 5911               	.LBB994:
 5912               	.LBB995:
 5913               	.LM559:
 5914               	/* #APP */
 5915               	 ;  341 "timebase.c" 1
 5916 1b0c F894      		cli
 5917               	 ;  0 "" 2
 5918               	/* #NOAPP */
 5919               	.LBE995:
 5920               	.LBE994:
 5921               	.LM560:
 5922 1b0e 2284      		ldd r2,Z+10
 5923 1b10 3384      		ldd r3,Z+11
 5924 1b12 4484      		ldd r4,Z+12
 5925 1b14 5584      		ldd r5,Z+13
 5926               	.LVL370:
 5927               	.LBB996:
 5928               	.LBB997:
 5929               	.LM561:
 5930               	/* #APP */
 5931               	 ;  345 "timebase.c" 1
 5932 1b16 7894      		sei
 5933               	 ;  0 "" 2
 5934               	/* #NOAPP */
 5935               	.LBE997:
 5936               	.LBE996:
 5937               	.LBE993:
 5938               	.LBE992:
 5939               	.LM562:
 5940 1b18 2181      		ldd r18,Z+1
 5941 1b1a 3281      		ldd r19,Z+2
 5942 1b1c 40E0      		ldi r20,lo8(0)
 5943 1b1e 50E0      		ldi r21,hi8(0)
 5944 1b20 C501      		movw r24,r10
 5945 1b22 B401      		movw r22,r8
 5946 1b24 0E94 0000 		call __divmodsi4
 5947 1b28 7B01      		movw r14,r22
 5948 1b2a 8C01      		movw r16,r24
 5949               	.LM563:
 5950 1b2c AB81      		ldd r26,Y+3
 5951 1b2e BC81      		ldd r27,Y+4
 5952 1b30 1196      		adiw r26,1
 5953 1b32 2D91      		ld r18,X+
 5954 1b34 3C91      		ld r19,X
 5955 1b36 1297      		sbiw r26,1+1
 5956 1b38 40E0      		ldi r20,lo8(0)
 5957 1b3a 50E0      		ldi r21,hi8(0)
 5958 1b3c C501      		movw r24,r10
 5959 1b3e B401      		movw r22,r8
 5960 1b40 0E94 0000 		call __divmodsi4
 5961 1b44 C901      		movw r24,r18
 5962 1b46 DA01      		movw r26,r20
 5963 1b48 3C01      		movw r6,r24
 5964 1b4a 4D01      		movw r8,r26
 5965               	.LVL371:
 5966               	.LM564:
 5967 1b4c 5601      		movw r10,r12
 5968               	.LVL372:
 5969 1b4e CC24      		clr r12
 5970 1b50 DD24      		clr r13
 5971               	.LVL373:
 5972 1b52 AE0C      		add r10,r14
 5973 1b54 BF1C      		adc r11,r15
 5974 1b56 C01E      		adc r12,r16
 5975 1b58 D11E      		adc r13,r17
 5976               	.LVL374:
 5977               	.LM565:
 5978 1b5a EB81      		ldd r30,Y+3
 5979 1b5c FC81      		ldd r31,Y+4
 5980 1b5e 8181      		ldd r24,Z+1
 5981 1b60 9281      		ldd r25,Z+2
 5982               	.LVL375:
 5983 1b62 A0E0      		ldi r26,lo8(0)
 5984 1b64 B0E0      		ldi r27,hi8(0)
 5985 1b66 A816      		cp r10,r24
 5986 1b68 B906      		cpc r11,r25
 5987 1b6a CA06      		cpc r12,r26
 5988 1b6c DB06      		cpc r13,r27
 5989 1b6e 04F0      		brlt .L267
 5990               	.LM566:
 5991 1b70 0894      		sec
 5992 1b72 611C      		adc r6,__zero_reg__
 5993 1b74 711C      		adc r7,__zero_reg__
 5994 1b76 811C      		adc r8,__zero_reg__
 5995 1b78 911C      		adc r9,__zero_reg__
 5996               	.LM567:
 5997 1b7a 2181      		ldd r18,Z+1
 5998 1b7c 3281      		ldd r19,Z+2
 5999 1b7e 40E0      		ldi r20,lo8(0)
 6000 1b80 50E0      		ldi r21,hi8(0)
 6001 1b82 C601      		movw r24,r12
 6002 1b84 B501      		movw r22,r10
 6003 1b86 0E94 0000 		call __divmodsi4
 6004 1b8a AC01      		movw r20,r24
 6005 1b8c CB01      		movw r24,r22
 6006 1b8e DA01      		movw r26,r20
 6007 1b90 5C01      		movw r10,r24
 6008 1b92 6D01      		movw r12,r26
 6009               	.L267:
 6010               	.LBB998:
 6011               	.LBB999:
 6012               	.LM568:
 6013 1b94 E981      		ldd r30,Y+1
 6014 1b96 FA81      		ldd r31,Y+2
 6015 1b98 54E0      		ldi r21,4
 6016 1b9a EE0F      	1:	lsl r30
 6017 1b9c FF1F      		rol r31
 6018 1b9e 5A95      		dec r21
 6019 1ba0 01F4      		brne 1b
 6020 1ba2 2981      		ldd r18,Y+1
 6021 1ba4 3A81      		ldd r19,Y+2
 6022 1ba6 E20F      		add r30,r18
 6023 1ba8 F31F      		adc r31,r19
 6024 1baa 8B81      		ldd r24,Y+3
 6025 1bac 9C81      		ldd r25,Y+4
 6026 1bae E80F      		add r30,r24
 6027 1bb0 F91F      		adc r31,r25
 6028 1bb2 E85B      		subi r30,lo8(-(72))
 6029 1bb4 FF4F      		sbci r31,hi8(-(72))
 6030 1bb6 260C      		add r2,r6
 6031 1bb8 371C      		adc r3,r7
 6032 1bba 481C      		adc r4,r8
 6033 1bbc 591C      		adc r5,r9
 6034 1bbe 2192      		st Z+,r2
 6035 1bc0 3192      		st Z+,r3
 6036 1bc2 4192      		st Z+,r4
 6037 1bc4 5192      		st Z+,r5
 6038               	.LBE999:
 6039               	.LBE998:
 6040               	.LBB1000:
 6041               	.LBB1001:
 6042               	.LM569:
 6043 1bc6 A082      		st Z,r10
 6044 1bc8 B182      		std Z+1,r11
 6045 1bca C282      		std Z+2,r12
 6046 1bcc D382      		std Z+3,r13
 6047               	.LBE1001:
 6048               	.LBE1000:
 6049               	.LBB1002:
 6050               	.LBB1003:
 6051               	.LM570:
 6052 1bce 3597      		sbiw r30,5
 6053 1bd0 9081      		ld r25,Z
 6054 1bd2 892F      		mov r24,r25
 6055 1bd4 8695      		lsr r24
 6056 1bd6 8F70      		andi r24,lo8(15)
 6057 1bd8 8130      		cpi r24,lo8(1)
 6058 1bda 01F0      		breq .L268
 6059               	.LBB1004:
 6060               	.LBB1005:
 6061               	.LM571:
 6062 1bdc 917E      		andi r25,lo8(-31)
 6063 1bde 9260      		ori r25,lo8(2)
 6064 1be0 9083      		st Z,r25
 6065               	.LVL376:
 6066               	.L268:
 6067               	/* epilogue start */
 6068               	.LBE1005:
 6069               	.LBE1004:
 6070               	.LBE1003:
 6071               	.LBE1002:
 6072               	.LBE983:
 6073               	.LM572:
 6074 1be2 0F90      		pop __tmp_reg__
 6075 1be4 0F90      		pop __tmp_reg__
 6076 1be6 0F90      		pop __tmp_reg__
 6077 1be8 0F90      		pop __tmp_reg__
 6078 1bea CF91      		pop r28
 6079 1bec DF91      		pop r29
 6080 1bee 1F91      		pop r17
 6081 1bf0 0F91      		pop r16
 6082 1bf2 FF90      		pop r15
 6083 1bf4 EF90      		pop r14
 6084 1bf6 DF90      		pop r13
 6085 1bf8 CF90      		pop r12
 6086               	.LVL377:
 6087 1bfa BF90      		pop r11
 6088 1bfc AF90      		pop r10
 6089               	.LVL378:
 6090 1bfe 9F90      		pop r9
 6091 1c00 8F90      		pop r8
 6092               	.LVL379:
 6093 1c02 7F90      		pop r7
 6094 1c04 6F90      		pop r6
 6095               	.LVL380:
 6096 1c06 5F90      		pop r5
 6097 1c08 4F90      		pop r4
 6098 1c0a 3F90      		pop r3
 6099 1c0c 2F90      		pop r2
 6100               	.LVL381:
 6101 1c0e 0895      		ret
 6102               	.LFE104:
 6104               	.global	Timebase_DownCounter_SS_Set_Forcefully
 6106               	Timebase_DownCounter_SS_Set_Forcefully:
 6107               	.LFB105:
 6108               	.LM573:
 6109               	.LVL382:
 6110               	/* prologue: function */
 6111               	/* frame size = 0 */
 6112               	.LBB1006:
 6113               	.LBB1007:
 6114               	.LBB1008:
 6115               	.LBB1009:
 6116               	.LM574:
 6117 1c10 E091 0000 		lds r30,Timebase
 6118 1c14 F091 0000 		lds r31,(Timebase)+1
 6119 1c18 A82F      		mov r26,r24
 6120 1c1a B0E0      		ldi r27,lo8(0)
 6121 1c1c 9D01      		movw r18,r26
 6122 1c1e 94E0      		ldi r25,4
 6123 1c20 220F      	1:	lsl r18
 6124 1c22 331F      		rol r19
 6125 1c24 9A95      		dec r25
 6126 1c26 01F4      		brne 1b
 6127 1c28 2A0F      		add r18,r26
 6128 1c2a 3B1F      		adc r19,r27
 6129 1c2c E20F      		add r30,r18
 6130 1c2e F31F      		adc r31,r19
 6131 1c30 E45B      		subi r30,lo8(-(76))
 6132 1c32 FF4F      		sbci r31,hi8(-(76))
 6133 1c34 1082      		st Z,__zero_reg__
 6134 1c36 1182      		std Z+1,__zero_reg__
 6135 1c38 1282      		std Z+2,__zero_reg__
 6136 1c3a 1382      		std Z+3,__zero_reg__
 6137               	.LBE1009:
 6138               	.LBE1008:
 6139               	.LBB1010:
 6140               	.LBB1011:
 6141               	.LM575:
 6142 1c3c 1292      		st -Z,__zero_reg__
 6143 1c3e 1292      		st -Z,__zero_reg__
 6144 1c40 1292      		st -Z,__zero_reg__
 6145 1c42 1292      		st -Z,__zero_reg__
 6146               	.LBE1011:
 6147               	.LBE1010:
 6148               	.LBB1012:
 6149               	.LBB1013:
 6150               	.LM576:
 6151 1c44 3896      		adiw r30,8
 6152 1c46 1082      		st Z,__zero_reg__
 6153 1c48 1182      		std Z+1,__zero_reg__
 6154 1c4a 1282      		std Z+2,__zero_reg__
 6155 1c4c 1382      		std Z+3,__zero_reg__
 6156               	.LBE1013:
 6157               	.LBE1012:
 6158               	.LBB1014:
 6159               	.LBB1015:
 6160               	.LM577:
 6161 1c4e 3997      		sbiw r30,9
 6162 1c50 9081      		ld r25,Z
 6163               	.LBE1015:
 6164               	.LBE1014:
 6165               	.LBB1016:
 6166               	.LBB1017:
 6167               	.LM578:
 6168 1c52 907E      		andi r25,lo8(-32)
 6169 1c54 9083      		st Z,r25
 6170               	.LBE1017:
 6171               	.LBE1016:
 6172               	.LBE1007:
 6173               	.LBE1006:
 6174               	.LM579:
 6175 1c56 0E94 0000 		call Timebase_DownCounter_SS_Set_Securely
 6176               	.LVL383:
 6177               	/* epilogue start */
 6178               	.LM580:
 6179 1c5a 0895      		ret
 6180               	.LFE105:
 6182               	.global	Timebase_DownCounter_SS_Update
 6184               	Timebase_DownCounter_SS_Update:
 6185               	.LFB106:
 6186               	.LM581:
 6187               	.LVL384:
 6188 1c5c 4F92      		push r4
 6189 1c5e 5F92      		push r5
 6190 1c60 6F92      		push r6
 6191 1c62 7F92      		push r7
 6192 1c64 8F92      		push r8
 6193 1c66 9F92      		push r9
 6194 1c68 AF92      		push r10
 6195 1c6a BF92      		push r11
 6196 1c6c CF92      		push r12
 6197 1c6e DF92      		push r13
 6198 1c70 EF92      		push r14
 6199 1c72 FF92      		push r15
 6200 1c74 0F93      		push r16
 6201 1c76 1F93      		push r17
 6202 1c78 DF93      		push r29
 6203 1c7a CF93      		push r28
 6204 1c7c 00D0      		rcall .
 6205 1c7e 00D0      		rcall .
 6206 1c80 CDB7      		in r28,__SP_L__
 6207 1c82 DEB7      		in r29,__SP_H__
 6208               	/* prologue: function */
 6209               	/* frame size = 4 */
 6210               	.LBB1018:
 6211               	.LBB1019:
 6212               	.LM582:
 6213 1c84 6090 0000 		lds r6,Timebase
 6214 1c88 7090 0000 		lds r7,(Timebase)+1
 6215 1c8c C82E      		mov r12,r24
 6216 1c8e DD24      		clr r13
 6217 1c90 F601      		movw r30,r12
 6218 1c92 54E0      		ldi r21,4
 6219 1c94 EE0F      	1:	lsl r30
 6220 1c96 FF1F      		rol r31
 6221 1c98 5A95      		dec r21
 6222 1c9a 01F4      		brne 1b
 6223 1c9c EC0D      		add r30,r12
 6224 1c9e FD1D      		adc r31,r13
 6225 1ca0 E60D      		add r30,r6
 6226 1ca2 F71D      		adc r31,r7
 6227 1ca4 E95B      		subi r30,lo8(-(71))
 6228 1ca6 FF4F      		sbci r31,hi8(-(71))
 6229 1ca8 E081      		ld r30,Z
 6230 1caa E695      		lsr r30
 6231 1cac EF70      		andi r30,lo8(15)
 6232               	.LBE1019:
 6233               	.LBE1018:
 6234               	.LM583:
 6235 1cae E130      		cpi r30,lo8(1)
 6236 1cb0 01F0      		breq .+2
 6237 1cb2 00C0      		rjmp .L272
 6238               	.LBB1020:
 6239               	.LBB1021:
 6240               	.LBB1022:
 6241               	.LBB1023:
 6242               	.LBB1024:
 6243               	.LM584:
 6244               	/* #APP */
 6245               	 ;  341 "timebase.c" 1
 6246 1cb4 F894      		cli
 6247               	 ;  0 "" 2
 6248               	/* #NOAPP */
 6249               	.LBE1024:
 6250               	.LBE1023:
 6251               	.LM585:
 6252 1cb6 D301      		movw r26,r6
 6253 1cb8 1896      		adiw r26,8
 6254 1cba 8D91      		ld r24,X+
 6255 1cbc 9C91      		ld r25,X
 6256 1cbe 1997      		sbiw r26,8+1
 6257               	.LVL385:
 6258               	.LBB1025:
 6259               	.LBB1026:
 6260               	.LM586:
 6261               	/* #APP */
 6262               	 ;  345 "timebase.c" 1
 6263 1cc0 7894      		sei
 6264               	 ;  0 "" 2
 6265               	/* #NOAPP */
 6266               	.LBE1026:
 6267               	.LBE1025:
 6268               	.LBE1022:
 6269               	.LBE1021:
 6270               	.LM587:
 6271 1cc2 4C01      		movw r8,r24
 6272               	.LVL386:
 6273 1cc4 AA24      		clr r10
 6274 1cc6 BB24      		clr r11
 6275               	.LVL387:
 6276               	.LBB1027:
 6277               	.LBB1028:
 6278               	.LBB1029:
 6279               	.LBB1030:
 6280               	.LM588:
 6281               	/* #APP */
 6282               	 ;  341 "timebase.c" 1
 6283 1cc8 F894      		cli
 6284               	 ;  0 "" 2
 6285               	/* #NOAPP */
 6286               	.LBE1030:
 6287               	.LBE1029:
 6288               	.LM589:
 6289 1cca F301      		movw r30,r6
 6290 1ccc 8285      		ldd r24,Z+10
 6291 1cce 9385      		ldd r25,Z+11
 6292 1cd0 A485      		ldd r26,Z+12
 6293 1cd2 B585      		ldd r27,Z+13
 6294               	.LVL388:
 6295               	.LBB1031:
 6296               	.LBB1032:
 6297               	.LM590:
 6298               	/* #APP */
 6299               	 ;  345 "timebase.c" 1
 6300 1cd4 7894      		sei
 6301               	 ;  0 "" 2
 6302               	/* #NOAPP */
 6303               	.LBE1032:
 6304               	.LBE1031:
 6305               	.LBE1028:
 6306               	.LBE1027:
 6307               	.LM591:
 6308 1cd6 F601      		movw r30,r12
 6309 1cd8 44E0      		ldi r20,4
 6310 1cda EE0F      	1:	lsl r30
 6311 1cdc FF1F      		rol r31
 6312 1cde 4A95      		dec r20
 6313 1ce0 01F4      		brne 1b
 6314 1ce2 EC0D      		add r30,r12
 6315 1ce4 FD1D      		adc r31,r13
 6316 1ce6 E60D      		add r30,r6
 6317 1ce8 F71D      		adc r31,r7
 6318 1cea E85B      		subi r30,lo8(-(72))
 6319 1cec FF4F      		sbci r31,hi8(-(72))
 6320 1cee E080      		ld r14,Z
 6321 1cf0 F180      		ldd r15,Z+1
 6322 1cf2 0281      		ldd r16,Z+2
 6323 1cf4 1381      		ldd r17,Z+3
 6324               	.LVL389:
 6325 1cf6 E81A      		sub r14,r24
 6326 1cf8 F90A      		sbc r15,r25
 6327 1cfa 0A0B      		sbc r16,r26
 6328 1cfc 1B0B      		sbc r17,r27
 6329 1cfe 17FF      		sbrs r17,7
 6330 1d00 00C0      		rjmp .L273
 6331 1d02 EE24      		clr r14
 6332 1d04 FF24      		clr r15
 6333 1d06 8701      		movw r16,r14
 6334               	.L273:
 6335               	.LM592:
 6336 1d08 D301      		movw r26,r6
 6337 1d0a 1196      		adiw r26,1
 6338 1d0c 2D91      		ld r18,X+
 6339 1d0e 3C91      		ld r19,X
 6340 1d10 1297      		sbiw r26,1+1
 6341 1d12 40E0      		ldi r20,lo8(0)
 6342 1d14 50E0      		ldi r21,hi8(0)
 6343 1d16 C801      		movw r24,r16
 6344 1d18 B701      		movw r22,r14
 6345 1d1a 0E94 0000 		call __mulsi3
 6346               	.LM593:
 6347 1d1e F601      		movw r30,r12
 6348 1d20 34E0      		ldi r19,4
 6349 1d22 EE0F      	1:	lsl r30
 6350 1d24 FF1F      		rol r31
 6351 1d26 3A95      		dec r19
 6352 1d28 01F4      		brne 1b
 6353 1d2a EC0D      		add r30,r12
 6354 1d2c FD1D      		adc r31,r13
 6355 1d2e E60D      		add r30,r6
 6356 1d30 F71D      		adc r31,r7
 6357 1d32 8F01      		movw r16,r30
 6358 1d34 045B      		subi r16,lo8(-(76))
 6359 1d36 1F4F      		sbci r17,hi8(-(76))
 6360 1d38 D801      		movw r26,r16
 6361 1d3a 2D91      		ld r18,X+
 6362 1d3c 3D91      		ld r19,X+
 6363 1d3e 4D91      		ld r20,X+
 6364 1d40 5C91      		ld r21,X
 6365               	.LVL390:
 6366 1d42 2819      		sub r18,r8
 6367 1d44 3909      		sbc r19,r9
 6368 1d46 4A09      		sbc r20,r10
 6369 1d48 5B09      		sbc r21,r11
 6370 1d4a 260F      		add r18,r22
 6371 1d4c 371F      		adc r19,r23
 6372 1d4e 481F      		adc r20,r24
 6373 1d50 591F      		adc r21,r25
 6374               	.LBB1033:
 6375               	.LBB1034:
 6376               	.LM594:
 6377 1d52 CF01      		movw r24,r30
 6378 1d54 805B      		subi r24,lo8(-(80))
 6379 1d56 9F4F      		sbci r25,hi8(-(80))
 6380 1d58 DC01      		movw r26,r24
 6381 1d5a 2D93      		st X+,r18
 6382 1d5c 3D93      		st X+,r19
 6383 1d5e 4D93      		st X+,r20
 6384 1d60 5C93      		st X,r21
 6385 1d62 1397      		sbiw r26,3
 6386               	.LBE1034:
 6387               	.LBE1033:
 6388               	.LM595:
 6389 1d64 1216      		cp __zero_reg__,r18
 6390 1d66 1306      		cpc __zero_reg__,r19
 6391 1d68 1406      		cpc __zero_reg__,r20
 6392 1d6a 1506      		cpc __zero_reg__,r21
 6393 1d6c 04F4      		brge .+2
 6394 1d6e 00C0      		rjmp .L275
 6395               	.LBB1035:
 6396               	.LBB1036:
 6397               	.LBB1037:
 6398               	.LBB1038:
 6399               	.LM596:
 6400 1d70 D801      		movw r26,r16
 6401 1d72 1D92      		st X+,__zero_reg__
 6402 1d74 1D92      		st X+,__zero_reg__
 6403 1d76 1D92      		st X+,__zero_reg__
 6404 1d78 1C92      		st X,__zero_reg__
 6405 1d7a 1397      		sbiw r26,3
 6406               	.LBE1038:
 6407               	.LBE1037:
 6408               	.LBB1039:
 6409               	.LBB1040:
 6410               	.LM597:
 6411 1d7c E85B      		subi r30,lo8(-(72))
 6412 1d7e FF4F      		sbci r31,hi8(-(72))
 6413 1d80 1082      		st Z,__zero_reg__
 6414 1d82 1182      		std Z+1,__zero_reg__
 6415 1d84 1282      		std Z+2,__zero_reg__
 6416 1d86 1382      		std Z+3,__zero_reg__
 6417               	.LBE1040:
 6418               	.LBE1039:
 6419               	.LBB1041:
 6420               	.LBB1042:
 6421               	.LM598:
 6422 1d88 DC01      		movw r26,r24
 6423 1d8a 1D92      		st X+,__zero_reg__
 6424 1d8c 1D92      		st X+,__zero_reg__
 6425 1d8e 1D92      		st X+,__zero_reg__
 6426 1d90 1C92      		st X,__zero_reg__
 6427 1d92 1397      		sbiw r26,3
 6428               	.LBE1042:
 6429               	.LBE1041:
 6430               	.LBB1043:
 6431               	.LBB1044:
 6432               	.LM599:
 6433 1d94 8291      		ld r24,-Z
 6434               	.LBE1044:
 6435               	.LBE1043:
 6436               	.LBE1036:
 6437               	.LBE1035:
 6438               	.LBB1045:
 6439               	.LBB1046:
 6440               	.LM600:
 6441 1d96 807E      		andi r24,lo8(-32)
 6442 1d98 8860      		ori r24,lo8(8)
 6443 1d9a 8083      		st Z,r24
 6444 1d9c 00C0      		rjmp .L275
 6445               	.LVL391:
 6446               	.L272:
 6447               	.LBE1046:
 6448               	.LBE1045:
 6449               	.LBE1020:
 6450               	.LM601:
 6451 1d9e E230      		cpi r30,lo8(2)
 6452 1da0 01F0      		breq .+2
 6453 1da2 00C0      		rjmp .L275
 6454               	.LBB1047:
 6455               	.LBB1048:
 6456               	.LBB1049:
 6457               	.LBB1050:
 6458               	.LBB1051:
 6459               	.LM602:
 6460               	/* #APP */
 6461               	 ;  341 "timebase.c" 1
 6462 1da4 F894      		cli
 6463               	 ;  0 "" 2
 6464               	/* #NOAPP */
 6465               	.LBE1051:
 6466               	.LBE1050:
 6467               	.LM603:
 6468 1da6 F301      		movw r30,r6
 6469 1da8 4084      		ldd r4,Z+8
 6470 1daa 5184      		ldd r5,Z+9
 6471               	.LVL392:
 6472               	.LBB1052:
 6473               	.LBB1053:
 6474               	.LM604:
 6475               	/* #APP */
 6476               	 ;  345 "timebase.c" 1
 6477 1dac 7894      		sei
 6478               	 ;  0 "" 2
 6479               	/* #NOAPP */
 6480               	.LBE1053:
 6481               	.LBE1052:
 6482               	.LBE1049:
 6483               	.LBE1048:
 6484               	.LBB1054:
 6485               	.LBB1055:
 6486               	.LBB1056:
 6487               	.LBB1057:
 6488               	.LM605:
 6489               	/* #APP */
 6490               	 ;  341 "timebase.c" 1
 6491 1dae F894      		cli
 6492               	 ;  0 "" 2
 6493               	/* #NOAPP */
 6494               	.LBE1057:
 6495               	.LBE1056:
 6496               	.LM606:
 6497 1db0 D301      		movw r26,r6
 6498 1db2 1A96      		adiw r26,10
 6499 1db4 8D90      		ld r8,X+
 6500 1db6 9D90      		ld r9,X+
 6501 1db8 AD90      		ld r10,X+
 6502 1dba BC90      		ld r11,X
 6503 1dbc 1D97      		sbiw r26,10+3
 6504               	.LVL393:
 6505               	.LBB1058:
 6506               	.LBB1059:
 6507               	.LM607:
 6508               	/* #APP */
 6509               	 ;  345 "timebase.c" 1
 6510 1dbe 7894      		sei
 6511               	 ;  0 "" 2
 6512               	/* #NOAPP */
 6513               	.LBE1059:
 6514               	.LBE1058:
 6515               	.LBE1055:
 6516               	.LBE1054:
 6517               	.LBB1060:
 6518               	.LBB1061:
 6519               	.LM608:
 6520 1dc0 8601      		movw r16,r12
 6521 1dc2 24E0      		ldi r18,4
 6522 1dc4 000F      	1:	lsl r16
 6523 1dc6 111F      		rol r17
 6524 1dc8 2A95      		dec r18
 6525 1dca 01F4      		brne 1b
 6526 1dcc 0C0D      		add r16,r12
 6527 1dce 1D1D      		adc r17,r13
 6528 1dd0 060D      		add r16,r6
 6529 1dd2 171D      		adc r17,r7
 6530 1dd4 005B      		subi r16,lo8(-(80))
 6531 1dd6 1F4F      		sbci r17,hi8(-(80))
 6532 1dd8 D801      		movw r26,r16
 6533 1dda 8D91      		ld r24,X+
 6534 1ddc 9D91      		ld r25,X+
 6535 1dde 0D90      		ld __tmp_reg__,X+
 6536 1de0 BC91      		ld r27,X
 6537 1de2 A02D      		mov r26,__tmp_reg__
 6538               	.LVL394:
 6539 1de4 8983      		std Y+1,r24
 6540 1de6 9A83      		std Y+2,r25
 6541 1de8 AB83      		std Y+3,r26
 6542 1dea BC83      		std Y+4,r27
 6543               	.LVL395:
 6544               	.LBE1061:
 6545               	.LBE1060:
 6546               	.LM609:
 6547 1dec F301      		movw r30,r6
 6548 1dee 2181      		ldd r18,Z+1
 6549 1df0 3281      		ldd r19,Z+2
 6550               	.LM610:
 6551 1df2 C180      		ldd r12,Z+1
 6552 1df4 D280      		ldd r13,Z+2
 6553               	.LBB1062:
 6554               	.LBB1063:
 6555               	.LM611:
 6556 1df6 0850      		subi r16,lo8(-(-8))
 6557 1df8 1040      		sbci r17,hi8(-(-8))
 6558 1dfa 40E0      		ldi r20,lo8(0)
 6559 1dfc 50E0      		ldi r21,hi8(0)
 6560 1dfe BC01      		movw r22,r24
 6561 1e00 CD01      		movw r24,r26
 6562 1e02 0E94 0000 		call __divmodsi4
 6563 1e06 820E      		add r8,r18
 6564 1e08 931E      		adc r9,r19
 6565 1e0a A41E      		adc r10,r20
 6566 1e0c B51E      		adc r11,r21
 6567 1e0e D801      		movw r26,r16
 6568 1e10 8D92      		st X+,r8
 6569 1e12 9D92      		st X+,r9
 6570 1e14 AD92      		st X+,r10
 6571 1e16 BD92      		st X+,r11
 6572 1e18 8D01      		movw r16,r26
 6573               	.LBE1063:
 6574               	.LBE1062:
 6575               	.LBB1064:
 6576               	.LBB1065:
 6577               	.LM612:
 6578 1e1a EE24      		clr r14
 6579 1e1c FF24      		clr r15
 6580 1e1e 6981      		ldd r22,Y+1
 6581 1e20 7A81      		ldd r23,Y+2
 6582 1e22 8B81      		ldd r24,Y+3
 6583 1e24 9C81      		ldd r25,Y+4
 6584 1e26 A701      		movw r20,r14
 6585 1e28 9601      		movw r18,r12
 6586 1e2a 0E94 0000 		call __divmodsi4
 6587 1e2e 6624      		clr r6
 6588 1e30 7724      		clr r7
 6589               	.LVL396:
 6590 1e32 460E      		add r4,r22
 6591 1e34 571E      		adc r5,r23
 6592 1e36 681E      		adc r6,r24
 6593 1e38 791E      		adc r7,r25
 6594               	.LVL397:
 6595 1e3a F801      		movw r30,r16
 6596 1e3c 4082      		st Z,r4
 6597 1e3e 5182      		std Z+1,r5
 6598 1e40 6282      		std Z+2,r6
 6599 1e42 7382      		std Z+3,r7
 6600               	.LVL398:
 6601               	.L275:
 6602               	/* epilogue start */
 6603               	.LBE1065:
 6604               	.LBE1064:
 6605               	.LBE1047:
 6606               	.LM613:
 6607 1e44 0F90      		pop __tmp_reg__
 6608 1e46 0F90      		pop __tmp_reg__
 6609 1e48 0F90      		pop __tmp_reg__
 6610 1e4a 0F90      		pop __tmp_reg__
 6611 1e4c CF91      		pop r28
 6612 1e4e DF91      		pop r29
 6613 1e50 1F91      		pop r17
 6614 1e52 0F91      		pop r16
 6615 1e54 FF90      		pop r15
 6616 1e56 EF90      		pop r14
 6617 1e58 DF90      		pop r13
 6618 1e5a CF90      		pop r12
 6619 1e5c BF90      		pop r11
 6620 1e5e AF90      		pop r10
 6621               	.LVL399:
 6622 1e60 9F90      		pop r9
 6623 1e62 8F90      		pop r8
 6624               	.LVL400:
 6625 1e64 7F90      		pop r7
 6626 1e66 6F90      		pop r6
 6627               	.LVL401:
 6628 1e68 5F90      		pop r5
 6629 1e6a 4F90      		pop r4
 6630               	.LVL402:
 6631 1e6c 0895      		ret
 6632               	.LFE106:
 6634               	.global	Timebase_DownCounter_SS_Expired
 6636               	Timebase_DownCounter_SS_Expired:
 6637               	.LFB107:
 6638               	.LM614:
 6639               	.LVL403:
 6640               	/* prologue: function */
 6641               	/* frame size = 0 */
 6642               	.LM615:
 6643 1e6e 40E0      		ldi r20,lo8(0)
 6644 1e70 E091 0000 		lds r30,Timebase
 6645 1e74 F091 0000 		lds r31,(Timebase)+1
 6646 1e78 90E0      		ldi r25,lo8(0)
 6647               	.LVL404:
 6648 1e7a 9C01      		movw r18,r24
 6649 1e7c 64E0      		ldi r22,4
 6650 1e7e 220F      	1:	lsl r18
 6651 1e80 331F      		rol r19
 6652 1e82 6A95      		dec r22
 6653 1e84 01F4      		brne 1b
 6654 1e86 280F      		add r18,r24
 6655 1e88 391F      		adc r19,r25
 6656 1e8a E20F      		add r30,r18
 6657 1e8c F31F      		adc r31,r19
 6658 1e8e E95B      		subi r30,lo8(-(71))
 6659 1e90 FF4F      		sbci r31,hi8(-(71))
 6660 1e92 8081      		ld r24,Z
 6661               	.LVL405:
 6662 1e94 8695      		lsr r24
 6663 1e96 8F70      		andi r24,lo8(15)
 6664 1e98 8430      		cpi r24,lo8(4)
 6665 1e9a 01F4      		brne .L277
 6666 1e9c 41E0      		ldi r20,lo8(1)
 6667               	.L277:
 6668               	.LM616:
 6669 1e9e 842F      		mov r24,r20
 6670               	/* epilogue start */
 6671 1ea0 0895      		ret
 6672               	.LFE107:
 6674               	.global	Timebase_DownCounter_SS_Expired_Event
 6676               	Timebase_DownCounter_SS_Expired_Event:
 6677               	.LFB108:
 6678               	.LM617:
 6679               	.LVL406:
 6680               	/* prologue: function */
 6681               	/* frame size = 0 */
 6682               	.LBB1066:
 6683               	.LBB1067:
 6684               	.LM618:
 6685 1ea2 E091 0000 		lds r30,Timebase
 6686 1ea6 F091 0000 		lds r31,(Timebase)+1
 6687 1eaa 90E0      		ldi r25,lo8(0)
 6688               	.LBE1067:
 6689               	.LBE1066:
 6690               	.LM619:
 6691 1eac 9C01      		movw r18,r24
 6692               	.LVL407:
 6693 1eae 74E0      		ldi r23,4
 6694 1eb0 220F      	1:	lsl r18
 6695 1eb2 331F      		rol r19
 6696 1eb4 7A95      		dec r23
 6697 1eb6 01F4      		brne 1b
 6698 1eb8 280F      		add r18,r24
 6699 1eba 391F      		adc r19,r25
 6700 1ebc E20F      		add r30,r18
 6701 1ebe F31F      		adc r31,r19
 6702 1ec0 DF01      		movw r26,r30
 6703 1ec2 A95B      		subi r26,lo8(-(71))
 6704 1ec4 BF4F      		sbci r27,hi8(-(71))
 6705 1ec6 8C91      		ld r24,X
 6706 1ec8 8695      		lsr r24
 6707 1eca 8F70      		andi r24,lo8(15)
 6708 1ecc 8430      		cpi r24,lo8(4)
 6709 1ece 01F0      		breq .L280
 6710 1ed0 80E0      		ldi r24,lo8(0)
 6711 1ed2 0895      		ret
 6712               	.L280:
 6713               	.LBB1068:
 6714               	.LBB1069:
 6715               	.LBB1070:
 6716               	.LBB1071:
 6717               	.LBB1072:
 6718               	.LBB1073:
 6719               	.LM620:
 6720 1ed4 E45B      		subi r30,lo8(-(76))
 6721 1ed6 FF4F      		sbci r31,hi8(-(76))
 6722 1ed8 1082      		st Z,__zero_reg__
 6723 1eda 1182      		std Z+1,__zero_reg__
 6724 1edc 1282      		std Z+2,__zero_reg__
 6725 1ede 1382      		std Z+3,__zero_reg__
 6726               	.LBE1073:
 6727               	.LBE1072:
 6728               	.LBB1074:
 6729               	.LBB1075:
 6730               	.LM621:
 6731 1ee0 1292      		st -Z,__zero_reg__
 6732 1ee2 1292      		st -Z,__zero_reg__
 6733 1ee4 1292      		st -Z,__zero_reg__
 6734 1ee6 1292      		st -Z,__zero_reg__
 6735               	.LBE1075:
 6736               	.LBE1074:
 6737               	.LBB1076:
 6738               	.LBB1077:
 6739               	.LM622:
 6740 1ee8 3896      		adiw r30,8
 6741 1eea 1082      		st Z,__zero_reg__
 6742 1eec 1182      		std Z+1,__zero_reg__
 6743 1eee 1282      		std Z+2,__zero_reg__
 6744 1ef0 1382      		std Z+3,__zero_reg__
 6745               	.LBE1077:
 6746               	.LBE1076:
 6747               	.LBB1078:
 6748               	.LBB1079:
 6749               	.LM623:
 6750 1ef2 8C91      		ld r24,X
 6751               	.LBE1079:
 6752               	.LBE1078:
 6753               	.LBB1080:
 6754               	.LBB1081:
 6755               	.LM624:
 6756 1ef4 807E      		andi r24,lo8(-32)
 6757 1ef6 8C93      		st X,r24
 6758 1ef8 81E0      		ldi r24,lo8(1)
 6759               	.LBE1081:
 6760               	.LBE1080:
 6761               	.LBE1071:
 6762               	.LBE1070:
 6763               	.LBE1069:
 6764               	.LBE1068:
 6765               	.LM625:
 6766 1efa 0895      		ret
 6767               	.LFE108:
 6769               	.global	Timebase_DownCounter_SS_Set_Period_Value_Securely
 6771               	Timebase_DownCounter_SS_Set_Period_Value_Securely:
 6772               	.LFB109:
 6773               	.LM626:
 6774               	.LVL408:
 6775 1efc CF93      		push r28
 6776 1efe DF93      		push r29
 6777               	/* prologue: function */
 6778               	/* frame size = 0 */
 6779               	.LBB1082:
 6780               	.LBB1083:
 6781               	.LM627:
 6782 1f00 C091 0000 		lds r28,Timebase
 6783 1f04 D091 0000 		lds r29,(Timebase)+1
 6784 1f08 282F      		mov r18,r24
 6785 1f0a 30E0      		ldi r19,lo8(0)
 6786               	.LBE1083:
 6787               	.LBE1082:
 6788               	.LM628:
 6789 1f0c F901      		movw r30,r18
 6790 1f0e B4E0      		ldi r27,4
 6791 1f10 EE0F      	1:	lsl r30
 6792 1f12 FF1F      		rol r31
 6793 1f14 BA95      		dec r27
 6794 1f16 01F4      		brne 1b
 6795 1f18 E20F      		add r30,r18
 6796 1f1a F31F      		adc r31,r19
 6797 1f1c EC0F      		add r30,r28
 6798 1f1e FD1F      		adc r31,r29
 6799 1f20 E95B      		subi r30,lo8(-(71))
 6800 1f22 FF4F      		sbci r31,hi8(-(71))
 6801 1f24 8081      		ld r24,Z
 6802               	.LVL409:
 6803 1f26 E754      		subi r30,lo8(-(-71))
 6804 1f28 F040      		sbci r31,hi8(-(-71))
 6805 1f2a 80FD      		sbrc r24,0
 6806 1f2c 00C0      		rjmp .L287
 6807               	.LM629:
 6808 1f2e E05B      		subi r30,lo8(-(80))
 6809 1f30 FF4F      		sbci r31,hi8(-(80))
 6810 1f32 8191      		ld r24,Z+
 6811 1f34 9191      		ld r25,Z+
 6812 1f36 A191      		ld r26,Z+
 6813 1f38 B191      		ld r27,Z+
 6814 1f3a 841B      		sub r24,r20
 6815 1f3c 950B      		sbc r25,r21
 6816 1f3e A60B      		sbc r26,r22
 6817 1f40 B70B      		sbc r27,r23
 6818               	.LBB1084:
 6819               	.LBB1085:
 6820               	.LM630:
 6821 1f42 B7FF      		sbrs r27,7
 6822 1f44 00C0      		rjmp .L285
 6823               	.LM631:
 6824 1f46 1082      		st Z,__zero_reg__
 6825 1f48 1182      		std Z+1,__zero_reg__
 6826 1f4a 1282      		std Z+2,__zero_reg__
 6827 1f4c 1382      		std Z+3,__zero_reg__
 6828 1f4e 00C0      		rjmp .L286
 6829               	.L285:
 6830               	.LM632:
 6831 1f50 8083      		st Z,r24
 6832 1f52 9183      		std Z+1,r25
 6833 1f54 A283      		std Z+2,r26
 6834 1f56 B383      		std Z+3,r27
 6835               	.L286:
 6836               	.LBE1085:
 6837               	.LBE1084:
 6838               	.LBB1086:
 6839               	.LBB1087:
 6840               	.LM633:
 6841 1f58 F901      		movw r30,r18
 6842 1f5a A4E0      		ldi r26,4
 6843 1f5c EE0F      	1:	lsl r30
 6844 1f5e FF1F      		rol r31
 6845 1f60 AA95      		dec r26
 6846 1f62 01F4      		brne 1b
 6847 1f64 E20F      		add r30,r18
 6848 1f66 F31F      		adc r31,r19
 6849 1f68 EC0F      		add r30,r28
 6850 1f6a FD1F      		adc r31,r29
 6851 1f6c E95B      		subi r30,lo8(-(71))
 6852 1f6e FF4F      		sbci r31,hi8(-(71))
 6853 1f70 8081      		ld r24,Z
 6854 1f72 8160      		ori r24,lo8(1)
 6855 1f74 8083      		st Z,r24
 6856               	.L287:
 6857               	/* epilogue start */
 6858               	.LBE1087:
 6859               	.LBE1086:
 6860               	.LM634:
 6861 1f76 DF91      		pop r29
 6862 1f78 CF91      		pop r28
 6863 1f7a 0895      		ret
 6864               	.LFE109:
 6866               	.global	Timebase_DownCounter_SS_Get_Remaining_Period_Value
 6868               	Timebase_DownCounter_SS_Get_Remaining_Period_Value:
 6869               	.LFB110:
 6870               	.LM635:
 6871               	.LVL410:
 6872               	/* prologue: function */
 6873               	/* frame size = 0 */
 6874               	.LBB1088:
 6875               	.LBB1089:
 6876               	.LM636:
 6877 1f7c E091 0000 		lds r30,Timebase
 6878 1f80 F091 0000 		lds r31,(Timebase)+1
 6879 1f84 90E0      		ldi r25,lo8(0)
 6880               	.LBE1089:
 6881               	.LBE1088:
 6882               	.LM637:
 6883 1f86 9C01      		movw r18,r24
 6884               	.LVL411:
 6885 1f88 44E0      		ldi r20,4
 6886 1f8a 220F      	1:	lsl r18
 6887 1f8c 331F      		rol r19
 6888 1f8e 4A95      		dec r20
 6889 1f90 01F4      		brne 1b
 6890 1f92 280F      		add r18,r24
 6891 1f94 391F      		adc r19,r25
 6892 1f96 E20F      		add r30,r18
 6893 1f98 F31F      		adc r31,r19
 6894 1f9a DF01      		movw r26,r30
 6895 1f9c AC5A      		subi r26,lo8(-(84))
 6896 1f9e BF4F      		sbci r27,hi8(-(84))
 6897 1fa0 E05B      		subi r30,lo8(-(80))
 6898 1fa2 FF4F      		sbci r31,hi8(-(80))
 6899 1fa4 2081      		ld r18,Z
 6900 1fa6 3181      		ldd r19,Z+1
 6901 1fa8 4281      		ldd r20,Z+2
 6902 1faa 5381      		ldd r21,Z+3
 6903               	.LVL412:
 6904 1fac 8D91      		ld r24,X+
 6905 1fae 9D91      		ld r25,X+
 6906 1fb0 0D90      		ld __tmp_reg__,X+
 6907 1fb2 BC91      		ld r27,X
 6908 1fb4 A02D      		mov r26,__tmp_reg__
 6909 1fb6 281B      		sub r18,r24
 6910 1fb8 390B      		sbc r19,r25
 6911 1fba 4A0B      		sbc r20,r26
 6912 1fbc 5B0B      		sbc r21,r27
 6913 1fbe 57FF      		sbrs r21,7
 6914 1fc0 00C0      		rjmp .L289
 6915 1fc2 20E0      		ldi r18,lo8(0)
 6916 1fc4 30E0      		ldi r19,hi8(0)
 6917 1fc6 40E0      		ldi r20,hlo8(0)
 6918 1fc8 50E0      		ldi r21,hhi8(0)
 6919               	.L289:
 6920               	.LM638:
 6921 1fca B901      		movw r22,r18
 6922               	.LVL413:
 6923 1fcc CA01      		movw r24,r20
 6924               	/* epilogue start */
 6925 1fce 0895      		ret
 6926               	.LFE110:
 6928               	.global	Timebase_DownCounter_SS_Period_Value_Expired
 6930               	Timebase_DownCounter_SS_Period_Value_Expired:
 6931               	.LFB111:
 6932               	.LM639:
 6933               	.LVL414:
 6934 1fd0 CF93      		push r28
 6935 1fd2 DF93      		push r29
 6936               	/* prologue: function */
 6937               	/* frame size = 0 */
 6938               	.LBB1090:
 6939               	.LBB1091:
 6940               	.LBB1092:
 6941               	.LBB1093:
 6942               	.LM640:
 6943 1fd4 C091 0000 		lds r28,Timebase
 6944 1fd8 D091 0000 		lds r29,(Timebase)+1
 6945 1fdc 682F      		mov r22,r24
 6946 1fde 70E0      		ldi r23,lo8(0)
 6947               	.LBE1093:
 6948               	.LBE1092:
 6949               	.LM641:
 6950 1fe0 FB01      		movw r30,r22
 6951 1fe2 A4E0      		ldi r26,4
 6952 1fe4 EE0F      	1:	lsl r30
 6953 1fe6 FF1F      		rol r31
 6954 1fe8 AA95      		dec r26
 6955 1fea 01F4      		brne 1b
 6956 1fec E60F      		add r30,r22
 6957 1fee F71F      		adc r31,r23
 6958 1ff0 EC0F      		add r30,r28
 6959 1ff2 FD1F      		adc r31,r29
 6960 1ff4 DF01      		movw r26,r30
 6961 1ff6 AC5A      		subi r26,lo8(-(84))
 6962 1ff8 BF4F      		sbci r27,hi8(-(84))
 6963 1ffa E05B      		subi r30,lo8(-(80))
 6964 1ffc FF4F      		sbci r31,hi8(-(80))
 6965 1ffe 2081      		ld r18,Z
 6966 2000 3181      		ldd r19,Z+1
 6967 2002 4281      		ldd r20,Z+2
 6968 2004 5381      		ldd r21,Z+3
 6969               	.LVL415:
 6970 2006 8D91      		ld r24,X+
 6971 2008 9D91      		ld r25,X+
 6972 200a 0D90      		ld __tmp_reg__,X+
 6973 200c BC91      		ld r27,X
 6974 200e A02D      		mov r26,__tmp_reg__
 6975               	.LVL416:
 6976 2010 281B      		sub r18,r24
 6977 2012 390B      		sbc r19,r25
 6978 2014 4A0B      		sbc r20,r26
 6979 2016 5B0B      		sbc r21,r27
 6980               	.LM642:
 6981 2018 57FD      		sbrc r21,7
 6982 201a 00C0      		rjmp .L292
 6983               	.LBE1091:
 6984               	.LBE1090:
 6985               	.LM643:
 6986 201c 2115      		cp r18,__zero_reg__
 6987 201e 3105      		cpc r19,__zero_reg__
 6988 2020 4105      		cpc r20,__zero_reg__
 6989 2022 5105      		cpc r21,__zero_reg__
 6990 2024 01F0      		breq .L292
 6991 2026 20E0      		ldi r18,lo8(0)
 6992               	.LVL417:
 6993 2028 00C0      		rjmp .L293
 6994               	.LVL418:
 6995               	.L292:
 6996 202a 20E0      		ldi r18,lo8(0)
 6997               	.LVL419:
 6998 202c CB01      		movw r24,r22
 6999 202e 54E0      		ldi r21,4
 7000 2030 880F      	1:	lsl r24
 7001 2032 991F      		rol r25
 7002 2034 5A95      		dec r21
 7003 2036 01F4      		brne 1b
 7004 2038 860F      		add r24,r22
 7005 203a 971F      		adc r25,r23
 7006 203c C80F      		add r28,r24
 7007 203e D91F      		adc r29,r25
 7008 2040 C95B      		subi r28,lo8(-(71))
 7009 2042 DF4F      		sbci r29,hi8(-(71))
 7010 2044 8881      		ld r24,Y
 7011 2046 80FF      		sbrs r24,0
 7012 2048 21E0      		ldi r18,lo8(1)
 7013               	.L294:
 7014 204a 81E0      		ldi r24,lo8(1)
 7015 204c 2827      		eor r18,r24
 7016               	.L293:
 7017               	.LM644:
 7018 204e 822F      		mov r24,r18
 7019               	/* epilogue start */
 7020 2050 DF91      		pop r29
 7021 2052 CF91      		pop r28
 7022 2054 0895      		ret
 7023               	.LFE111:
 7025               	.global	Timebase_DownCounter_SS_Period_Value_Expired_Event
 7027               	Timebase_DownCounter_SS_Period_Value_Expired_Event:
 7028               	.LFB112:
 7029               	.LM645:
 7030               	.LVL420:
 7031 2056 1F93      		push r17
 7032               	/* prologue: function */
 7033               	/* frame size = 0 */
 7034 2058 182F      		mov r17,r24
 7035               	.LM646:
 7036 205a 0E94 0000 		call Timebase_DownCounter_SS_Period_Value_Expired
 7037               	.LVL421:
 7038 205e 8130      		cpi r24,lo8(1)
 7039 2060 01F0      		breq .L297
 7040 2062 80E0      		ldi r24,lo8(0)
 7041 2064 00C0      		rjmp .L298
 7042               	.L297:
 7043               	.LBB1094:
 7044               	.LBB1095:
 7045               	.LM647:
 7046 2066 E091 0000 		lds r30,Timebase
 7047 206a F091 0000 		lds r31,(Timebase)+1
 7048 206e 212F      		mov r18,r17
 7049 2070 30E0      		ldi r19,lo8(0)
 7050               	.LVL422:
 7051 2072 C901      		movw r24,r18
 7052 2074 B4E0      		ldi r27,4
 7053 2076 880F      	1:	lsl r24
 7054 2078 991F      		rol r25
 7055 207a BA95      		dec r27
 7056 207c 01F4      		brne 1b
 7057 207e 820F      		add r24,r18
 7058 2080 931F      		adc r25,r19
 7059 2082 E80F      		add r30,r24
 7060 2084 F91F      		adc r31,r25
 7061 2086 E95B      		subi r30,lo8(-(71))
 7062 2088 FF4F      		sbci r31,hi8(-(71))
 7063 208a 8081      		ld r24,Z
 7064 208c 8E7F      		andi r24,lo8(-2)
 7065 208e 8083      		st Z,r24
 7066 2090 81E0      		ldi r24,lo8(1)
 7067               	.L298:
 7068               	/* epilogue start */
 7069               	.LBE1095:
 7070               	.LBE1094:
 7071               	.LM648:
 7072 2092 1F91      		pop r17
 7073               	.LVL423:
 7074 2094 0895      		ret
 7075               	.LFE112:
 7077               	.global	Timebase_DownCounter_SS_Update_All
 7079               	Timebase_DownCounter_SS_Update_All:
 7080               	.LFB113:
 7081               	.LM649:
 7082               	/* prologue: function */
 7083               	/* frame size = 0 */
 7084               	.LBB1096:
 7085               	.LM650:
 7086 2096 80E0      		ldi r24,lo8(0)
 7087 2098 0E94 0000 		call Timebase_DownCounter_SS_Update
 7088               	/* epilogue start */
 7089               	.LBE1096:
 7090               	.LM651:
 7091 209c 0895      		ret
 7092               	.LFE113:
 7094               	.global	Timebase_DownCounter_SS_Reset_All
 7096               	Timebase_DownCounter_SS_Reset_All:
 7097               	.LFB114:
 7098               	.LM652:
 7099               	/* prologue: function */
 7100               	/* frame size = 0 */
 7101               	.LBB1097:
 7102               	.LBB1098:
 7103               	.LBB1099:
 7104               	.LBB1100:
 7105               	.LBB1101:
 7106               	.LM653:
 7107 209e E091 0000 		lds r30,Timebase
 7108 20a2 F091 0000 		lds r31,(Timebase)+1
 7109 20a6 E45B      		subi r30,lo8(-(76))
 7110 20a8 FF4F      		sbci r31,hi8(-(76))
 7111 20aa 1082      		st Z,__zero_reg__
 7112 20ac 1182      		std Z+1,__zero_reg__
 7113 20ae 1282      		std Z+2,__zero_reg__
 7114 20b0 1382      		std Z+3,__zero_reg__
 7115               	.LBE1101:
 7116               	.LBE1100:
 7117               	.LBB1102:
 7118               	.LBB1103:
 7119               	.LM654:
 7120 20b2 1292      		st -Z,__zero_reg__
 7121 20b4 1292      		st -Z,__zero_reg__
 7122 20b6 1292      		st -Z,__zero_reg__
 7123 20b8 1292      		st -Z,__zero_reg__
 7124               	.LBE1103:
 7125               	.LBE1102:
 7126               	.LBB1104:
 7127               	.LBB1105:
 7128               	.LM655:
 7129 20ba 3896      		adiw r30,8
 7130 20bc 1082      		st Z,__zero_reg__
 7131 20be 1182      		std Z+1,__zero_reg__
 7132 20c0 1282      		std Z+2,__zero_reg__
 7133 20c2 1382      		std Z+3,__zero_reg__
 7134               	.LBE1105:
 7135               	.LBE1104:
 7136               	.LBB1106:
 7137               	.LBB1107:
 7138               	.LM656:
 7139 20c4 3997      		sbiw r30,9
 7140 20c6 8081      		ld r24,Z
 7141               	.LBE1107:
 7142               	.LBE1106:
 7143               	.LBB1108:
 7144               	.LBB1109:
 7145               	.LM657:
 7146 20c8 807E      		andi r24,lo8(-32)
 7147 20ca 8083      		st Z,r24
 7148               	/* epilogue start */
 7149               	.LBE1109:
 7150               	.LBE1108:
 7151               	.LBE1099:
 7152               	.LBE1098:
 7153               	.LBE1097:
 7154               	.LM658:
 7155 20cc 0895      		ret
 7156               	.LFE114:
 7158               	.global	Timebase_DownCounter_Get_Status
 7160               	Timebase_DownCounter_Get_Status:
 7161               	.LFB115:
 7162               	.LM659:
 7163               	.LVL424:
 7164               	/* prologue: function */
 7165               	/* frame size = 0 */
 7166               	.LM660:
 7167 20ce E091 0000 		lds r30,Timebase
 7168 20d2 F091 0000 		lds r31,(Timebase)+1
 7169 20d6 90E0      		ldi r25,lo8(0)
 7170               	.LVL425:
 7171 20d8 2DE0      		ldi r18,lo8(13)
 7172 20da 30E0      		ldi r19,hi8(13)
 7173 20dc AC01      		movw r20,r24
 7174 20de 429F      		mul r20,r18
 7175 20e0 C001      		movw r24,r0
 7176 20e2 439F      		mul r20,r19
 7177 20e4 900D      		add r25,r0
 7178 20e6 529F      		mul r21,r18
 7179 20e8 900D      		add r25,r0
 7180 20ea 1124      		clr r1
 7181               	.LVL426:
 7182 20ec E80F      		add r30,r24
 7183 20ee F91F      		adc r31,r25
 7184 20f0 E85A      		subi r30,lo8(-(88))
 7185 20f2 FF4F      		sbci r31,hi8(-(88))
 7186 20f4 8081      		ld r24,Z
 7187 20f6 8695      		lsr r24
 7188               	.LM661:
 7189 20f8 8F70      		andi r24,lo8(15)
 7190               	/* epilogue start */
 7191 20fa 0895      		ret
 7192               	.LFE115:
 7194               	.global	Timebase_DownCounter_Set_Status
 7196               	Timebase_DownCounter_Set_Status:
 7197               	.LFB116:
 7198               	.LM662:
 7199               	.LVL427:
 7200               	/* prologue: function */
 7201               	/* frame size = 0 */
 7202               	.LM663:
 7203 20fc E091 0000 		lds r30,Timebase
 7204 2100 F091 0000 		lds r31,(Timebase)+1
 7205 2104 90E0      		ldi r25,lo8(0)
 7206               	.LVL428:
 7207 2106 2DE0      		ldi r18,lo8(13)
 7208 2108 30E0      		ldi r19,hi8(13)
 7209 210a AC01      		movw r20,r24
 7210 210c 429F      		mul r20,r18
 7211 210e C001      		movw r24,r0
 7212 2110 439F      		mul r20,r19
 7213 2112 900D      		add r25,r0
 7214 2114 529F      		mul r21,r18
 7215 2116 900D      		add r25,r0
 7216 2118 1124      		clr r1
 7217               	.LVL429:
 7218 211a E80F      		add r30,r24
 7219 211c F91F      		adc r31,r25
 7220 211e E85A      		subi r30,lo8(-(88))
 7221 2120 FF4F      		sbci r31,hi8(-(88))
 7222 2122 6F70      		andi r22,lo8(15)
 7223               	.LVL430:
 7224 2124 660F      		lsl r22
 7225 2126 8081      		ld r24,Z
 7226 2128 817E      		andi r24,lo8(-31)
 7227 212a 862B      		or r24,r22
 7228 212c 8083      		st Z,r24
 7229               	/* epilogue start */
 7230               	.LM664:
 7231 212e 0895      		ret
 7232               	.LFE116:
 7234               	.global	Timebase_DownCounter_Get_Value
 7236               	Timebase_DownCounter_Get_Value:
 7237               	.LFB117:
 7238               	.LM665:
 7239               	.LVL431:
 7240               	/* prologue: function */
 7241               	/* frame size = 0 */
 7242               	.LM666:
 7243 2130 E091 0000 		lds r30,Timebase
 7244 2134 F091 0000 		lds r31,(Timebase)+1
 7245 2138 90E0      		ldi r25,lo8(0)
 7246               	.LVL432:
 7247 213a 2DE0      		ldi r18,lo8(13)
 7248 213c 30E0      		ldi r19,hi8(13)
 7249 213e AC01      		movw r20,r24
 7250 2140 429F      		mul r20,r18
 7251 2142 C001      		movw r24,r0
 7252 2144 439F      		mul r20,r19
 7253 2146 900D      		add r25,r0
 7254 2148 529F      		mul r21,r18
 7255 214a 900D      		add r25,r0
 7256 214c 1124      		clr r1
 7257               	.LVL433:
 7258 214e E80F      		add r30,r24
 7259 2150 F91F      		adc r31,r25
 7260 2152 E35A      		subi r30,lo8(-(93))
 7261 2154 FF4F      		sbci r31,hi8(-(93))
 7262 2156 6081      		ld r22,Z
 7263 2158 7181      		ldd r23,Z+1
 7264               	.LM667:
 7265 215a 8281      		ldd r24,Z+2
 7266 215c 9381      		ldd r25,Z+3
 7267               	.LVL434:
 7268               	/* epilogue start */
 7269 215e 0895      		ret
 7270               	.LFE117:
 7272               	.global	Timebase_DownCounter_Set_Value
 7274               	Timebase_DownCounter_Set_Value:
 7275               	.LFB118:
 7276               	.LM668:
 7277               	.LVL435:
 7278               	/* prologue: function */
 7279               	/* frame size = 0 */
 7280               	.LM669:
 7281 2160 E091 0000 		lds r30,Timebase
 7282 2164 F091 0000 		lds r31,(Timebase)+1
 7283 2168 90E0      		ldi r25,lo8(0)
 7284               	.LVL436:
 7285 216a 2DE0      		ldi r18,lo8(13)
 7286 216c 30E0      		ldi r19,hi8(13)
 7287 216e DC01      		movw r26,r24
 7288 2170 A29F      		mul r26,r18
 7289 2172 C001      		movw r24,r0
 7290 2174 A39F      		mul r26,r19
 7291 2176 900D      		add r25,r0
 7292 2178 B29F      		mul r27,r18
 7293 217a 900D      		add r25,r0
 7294 217c 1124      		clr r1
 7295               	.LVL437:
 7296 217e E80F      		add r30,r24
 7297 2180 F91F      		adc r31,r25
 7298 2182 E35A      		subi r30,lo8(-(93))
 7299 2184 FF4F      		sbci r31,hi8(-(93))
 7300 2186 4083      		st Z,r20
 7301 2188 5183      		std Z+1,r21
 7302 218a 6283      		std Z+2,r22
 7303 218c 7383      		std Z+3,r23
 7304               	/* epilogue start */
 7305               	.LM670:
 7306 218e 0895      		ret
 7307               	.LFE118:
 7309               	.global	Timebase_DownCounter_Get_EndValue
 7311               	Timebase_DownCounter_Get_EndValue:
 7312               	.LFB119:
 7313               	.LM671:
 7314               	.LVL438:
 7315               	/* prologue: function */
 7316               	/* frame size = 0 */
 7317               	.LM672:
 7318 2190 E091 0000 		lds r30,Timebase
 7319 2194 F091 0000 		lds r31,(Timebase)+1
 7320 2198 90E0      		ldi r25,lo8(0)
 7321               	.LVL439:
 7322 219a 2DE0      		ldi r18,lo8(13)
 7323 219c 30E0      		ldi r19,hi8(13)
 7324 219e AC01      		movw r20,r24
 7325 21a0 429F      		mul r20,r18
 7326 21a2 C001      		movw r24,r0
 7327 21a4 439F      		mul r20,r19
 7328 21a6 900D      		add r25,r0
 7329 21a8 529F      		mul r21,r18
 7330 21aa 900D      		add r25,r0
 7331 21ac 1124      		clr r1
 7332               	.LVL440:
 7333 21ae E80F      		add r30,r24
 7334 21b0 F91F      		adc r31,r25
 7335 21b2 E75A      		subi r30,lo8(-(89))
 7336 21b4 FF4F      		sbci r31,hi8(-(89))
 7337 21b6 6081      		ld r22,Z
 7338 21b8 7181      		ldd r23,Z+1
 7339               	.LM673:
 7340 21ba 8281      		ldd r24,Z+2
 7341 21bc 9381      		ldd r25,Z+3
 7342               	.LVL441:
 7343               	/* epilogue start */
 7344 21be 0895      		ret
 7345               	.LFE119:
 7347               	.global	Timebase_DownCounter_Set_EndValue
 7349               	Timebase_DownCounter_Set_EndValue:
 7350               	.LFB120:
 7351               	.LM674:
 7352               	.LVL442:
 7353               	/* prologue: function */
 7354               	/* frame size = 0 */
 7355               	.LM675:
 7356 21c0 E091 0000 		lds r30,Timebase
 7357 21c4 F091 0000 		lds r31,(Timebase)+1
 7358 21c8 90E0      		ldi r25,lo8(0)
 7359               	.LVL443:
 7360 21ca 2DE0      		ldi r18,lo8(13)
 7361 21cc 30E0      		ldi r19,hi8(13)
 7362 21ce DC01      		movw r26,r24
 7363 21d0 A29F      		mul r26,r18
 7364 21d2 C001      		movw r24,r0
 7365 21d4 A39F      		mul r26,r19
 7366 21d6 900D      		add r25,r0
 7367 21d8 B29F      		mul r27,r18
 7368 21da 900D      		add r25,r0
 7369 21dc 1124      		clr r1
 7370               	.LVL444:
 7371 21de E80F      		add r30,r24
 7372 21e0 F91F      		adc r31,r25
 7373 21e2 E75A      		subi r30,lo8(-(89))
 7374 21e4 FF4F      		sbci r31,hi8(-(89))
 7375 21e6 4083      		st Z,r20
 7376 21e8 5183      		std Z+1,r21
 7377 21ea 6283      		std Z+2,r22
 7378 21ec 7383      		std Z+3,r23
 7379               	/* epilogue start */
 7380               	.LM676:
 7381 21ee 0895      		ret
 7382               	.LFE120:
 7384               	.global	Timebase_DownCounter_Get_PeriodValue
 7386               	Timebase_DownCounter_Get_PeriodValue:
 7387               	.LFB121:
 7388               	.LM677:
 7389               	.LVL445:
 7390               	/* prologue: function */
 7391               	/* frame size = 0 */
 7392               	.LM678:
 7393 21f0 E091 0000 		lds r30,Timebase
 7394 21f4 F091 0000 		lds r31,(Timebase)+1
 7395 21f8 90E0      		ldi r25,lo8(0)
 7396               	.LVL446:
 7397 21fa 2DE0      		ldi r18,lo8(13)
 7398 21fc 30E0      		ldi r19,hi8(13)
 7399 21fe AC01      		movw r20,r24
 7400 2200 429F      		mul r20,r18
 7401 2202 C001      		movw r24,r0
 7402 2204 439F      		mul r20,r19
 7403 2206 900D      		add r25,r0
 7404 2208 529F      		mul r21,r18
 7405 220a 900D      		add r25,r0
 7406 220c 1124      		clr r1
 7407               	.LVL447:
 7408 220e E80F      		add r30,r24
 7409 2210 F91F      		adc r31,r25
 7410 2212 EF59      		subi r30,lo8(-(97))
 7411 2214 FF4F      		sbci r31,hi8(-(97))
 7412 2216 6081      		ld r22,Z
 7413 2218 7181      		ldd r23,Z+1
 7414               	.LM679:
 7415 221a 8281      		ldd r24,Z+2
 7416 221c 9381      		ldd r25,Z+3
 7417               	.LVL448:
 7418               	/* epilogue start */
 7419 221e 0895      		ret
 7420               	.LFE121:
 7422               	.global	Timebase_DownCounter_Set_PeriodValue
 7424               	Timebase_DownCounter_Set_PeriodValue:
 7425               	.LFB122:
 7426               	.LM680:
 7427               	.LVL449:
 7428               	/* prologue: function */
 7429               	/* frame size = 0 */
 7430 2220 E091 0000 		lds r30,Timebase
 7431 2224 F091 0000 		lds r31,(Timebase)+1
 7432 2228 282F      		mov r18,r24
 7433 222a 30E0      		ldi r19,lo8(0)
 7434               	.LVL450:
 7435               	.LM681:
 7436 222c 77FF      		sbrs r23,7
 7437 222e 00C0      		rjmp .L319
 7438               	.LVL451:
 7439               	.LM682:
 7440 2230 8DE0      		ldi r24,lo8(13)
 7441 2232 90E0      		ldi r25,hi8(13)
 7442 2234 AC01      		movw r20,r24
 7443               	.LVL452:
 7444 2236 249F      		mul r18,r20
 7445 2238 C001      		movw r24,r0
 7446 223a 259F      		mul r18,r21
 7447 223c 900D      		add r25,r0
 7448 223e 349F      		mul r19,r20
 7449 2240 900D      		add r25,r0
 7450 2242 1124      		clr r1
 7451 2244 E80F      		add r30,r24
 7452 2246 F91F      		adc r31,r25
 7453 2248 EF59      		subi r30,lo8(-(97))
 7454 224a FF4F      		sbci r31,hi8(-(97))
 7455 224c 1082      		st Z,__zero_reg__
 7456 224e 1182      		std Z+1,__zero_reg__
 7457 2250 1282      		std Z+2,__zero_reg__
 7458 2252 1382      		std Z+3,__zero_reg__
 7459 2254 0895      		ret
 7460               	.LVL453:
 7461               	.L319:
 7462               	.LM683:
 7463 2256 8DE0      		ldi r24,lo8(13)
 7464 2258 90E0      		ldi r25,hi8(13)
 7465 225a DC01      		movw r26,r24
 7466 225c 2A9F      		mul r18,r26
 7467 225e C001      		movw r24,r0
 7468 2260 2B9F      		mul r18,r27
 7469 2262 900D      		add r25,r0
 7470 2264 3A9F      		mul r19,r26
 7471 2266 900D      		add r25,r0
 7472 2268 1124      		clr r1
 7473 226a E80F      		add r30,r24
 7474 226c F91F      		adc r31,r25
 7475 226e EF59      		subi r30,lo8(-(97))
 7476 2270 FF4F      		sbci r31,hi8(-(97))
 7477 2272 4083      		st Z,r20
 7478 2274 5183      		std Z+1,r21
 7479 2276 6283      		std Z+2,r22
 7480 2278 7383      		std Z+3,r23
 7481 227a 0895      		ret
 7482               	.LFE122:
 7484               	.global	Timebase_DownCounter_Get_Period_Flag
 7486               	Timebase_DownCounter_Get_Period_Flag:
 7487               	.LFB123:
 7488               	.LM684:
 7489               	.LVL454:
 7490               	/* prologue: function */
 7491               	/* frame size = 0 */
 7492               	.LM685:
 7493 227c E091 0000 		lds r30,Timebase
 7494 2280 F091 0000 		lds r31,(Timebase)+1
 7495 2284 90E0      		ldi r25,lo8(0)
 7496               	.LVL455:
 7497 2286 2DE0      		ldi r18,lo8(13)
 7498 2288 30E0      		ldi r19,hi8(13)
 7499 228a AC01      		movw r20,r24
 7500 228c 429F      		mul r20,r18
 7501 228e C001      		movw r24,r0
 7502 2290 439F      		mul r20,r19
 7503 2292 900D      		add r25,r0
 7504 2294 529F      		mul r21,r18
 7505 2296 900D      		add r25,r0
 7506 2298 1124      		clr r1
 7507               	.LVL456:
 7508 229a E80F      		add r30,r24
 7509 229c F91F      		adc r31,r25
 7510 229e E85A      		subi r30,lo8(-(88))
 7511 22a0 FF4F      		sbci r31,hi8(-(88))
 7512 22a2 8081      		ld r24,Z
 7513               	.LM686:
 7514 22a4 8170      		andi r24,lo8(1)
 7515               	/* epilogue start */
 7516 22a6 0895      		ret
 7517               	.LFE123:
 7519               	.global	Timebase_DownCounter_Set_Period_Flag
 7521               	Timebase_DownCounter_Set_Period_Flag:
 7522               	.LFB124:
 7523               	.LM687:
 7524               	.LVL457:
 7525               	/* prologue: function */
 7526               	/* frame size = 0 */
 7527               	.LM688:
 7528 22a8 E091 0000 		lds r30,Timebase
 7529 22ac F091 0000 		lds r31,(Timebase)+1
 7530 22b0 90E0      		ldi r25,lo8(0)
 7531               	.LVL458:
 7532 22b2 2DE0      		ldi r18,lo8(13)
 7533 22b4 30E0      		ldi r19,hi8(13)
 7534 22b6 AC01      		movw r20,r24
 7535 22b8 429F      		mul r20,r18
 7536 22ba C001      		movw r24,r0
 7537 22bc 439F      		mul r20,r19
 7538 22be 900D      		add r25,r0
 7539 22c0 529F      		mul r21,r18
 7540 22c2 900D      		add r25,r0
 7541 22c4 1124      		clr r1
 7542               	.LVL459:
 7543 22c6 E80F      		add r30,r24
 7544 22c8 F91F      		adc r31,r25
 7545 22ca E85A      		subi r30,lo8(-(88))
 7546 22cc FF4F      		sbci r31,hi8(-(88))
 7547 22ce 8081      		ld r24,Z
 7548 22d0 8160      		ori r24,lo8(1)
 7549 22d2 8083      		st Z,r24
 7550               	/* epilogue start */
 7551               	.LM689:
 7552 22d4 0895      		ret
 7553               	.LFE124:
 7555               	.global	Timebase_DownCounter_Clear_Period_Flag
 7557               	Timebase_DownCounter_Clear_Period_Flag:
 7558               	.LFB125:
 7559               	.LM690:
 7560               	.LVL460:
 7561               	/* prologue: function */
 7562               	/* frame size = 0 */
 7563               	.LM691:
 7564 22d6 E091 0000 		lds r30,Timebase
 7565 22da F091 0000 		lds r31,(Timebase)+1
 7566 22de 90E0      		ldi r25,lo8(0)
 7567               	.LVL461:
 7568 22e0 2DE0      		ldi r18,lo8(13)
 7569 22e2 30E0      		ldi r19,hi8(13)
 7570 22e4 AC01      		movw r20,r24
 7571 22e6 429F      		mul r20,r18
 7572 22e8 C001      		movw r24,r0
 7573 22ea 439F      		mul r20,r19
 7574 22ec 900D      		add r25,r0
 7575 22ee 529F      		mul r21,r18
 7576 22f0 900D      		add r25,r0
 7577 22f2 1124      		clr r1
 7578               	.LVL462:
 7579 22f4 E80F      		add r30,r24
 7580 22f6 F91F      		adc r31,r25
 7581 22f8 E85A      		subi r30,lo8(-(88))
 7582 22fa FF4F      		sbci r31,hi8(-(88))
 7583 22fc 8081      		ld r24,Z
 7584 22fe 8E7F      		andi r24,lo8(-2)
 7585 2300 8083      		st Z,r24
 7586               	/* epilogue start */
 7587               	.LM692:
 7588 2302 0895      		ret
 7589               	.LFE125:
 7591               	.global	Timebase_DownCounter_Reset
 7593               	Timebase_DownCounter_Reset:
 7594               	.LFB126:
 7595               	.LM693:
 7596               	.LVL463:
 7597               	/* prologue: function */
 7598               	/* frame size = 0 */
 7599               	.LBB1110:
 7600               	.LBB1111:
 7601               	.LM694:
 7602 2304 E091 0000 		lds r30,Timebase
 7603 2308 F091 0000 		lds r31,(Timebase)+1
 7604 230c 90E0      		ldi r25,lo8(0)
 7605 230e 2DE0      		ldi r18,lo8(13)
 7606 2310 30E0      		ldi r19,hi8(13)
 7607 2312 AC01      		movw r20,r24
 7608               	.LVL464:
 7609 2314 429F      		mul r20,r18
 7610 2316 C001      		movw r24,r0
 7611 2318 439F      		mul r20,r19
 7612 231a 900D      		add r25,r0
 7613 231c 529F      		mul r21,r18
 7614 231e 900D      		add r25,r0
 7615 2320 1124      		clr r1
 7616 2322 E80F      		add r30,r24
 7617 2324 F91F      		adc r31,r25
 7618 2326 E75A      		subi r30,lo8(-(89))
 7619 2328 FF4F      		sbci r31,hi8(-(89))
 7620 232a 1192      		st Z+,__zero_reg__
 7621 232c 1192      		st Z+,__zero_reg__
 7622 232e 1192      		st Z+,__zero_reg__
 7623 2330 1192      		st Z+,__zero_reg__
 7624               	.LBE1111:
 7625               	.LBE1110:
 7626               	.LBB1112:
 7627               	.LBB1113:
 7628               	.LM695:
 7629 2332 1082      		st Z,__zero_reg__
 7630 2334 1182      		std Z+1,__zero_reg__
 7631 2336 1282      		std Z+2,__zero_reg__
 7632 2338 1382      		std Z+3,__zero_reg__
 7633               	.LBE1113:
 7634               	.LBE1112:
 7635               	.LBB1114:
 7636               	.LBB1115:
 7637               	.LM696:
 7638 233a 3597      		sbiw r30,5
 7639 233c 8081      		ld r24,Z
 7640               	.LBE1115:
 7641               	.LBE1114:
 7642               	.LBB1116:
 7643               	.LBB1117:
 7644               	.LM697:
 7645 233e 807E      		andi r24,lo8(-32)
 7646 2340 8083      		st Z,r24
 7647               	/* epilogue start */
 7648               	.LBE1117:
 7649               	.LBE1116:
 7650               	.LM698:
 7651 2342 0895      		ret
 7652               	.LFE126:
 7654               	.global	Timebase_DownCounter_Clear_All_Flags
 7656               	Timebase_DownCounter_Clear_All_Flags:
 7657               	.LFB127:
 7658               	.LM699:
 7659               	.LVL465:
 7660               	/* prologue: function */
 7661               	/* frame size = 0 */
 7662               	.LBB1118:
 7663               	.LBB1119:
 7664               	.LBB1120:
 7665               	.LBB1121:
 7666               	.LM700:
 7667 2344 E091 0000 		lds r30,Timebase
 7668 2348 F091 0000 		lds r31,(Timebase)+1
 7669 234c 90E0      		ldi r25,lo8(0)
 7670 234e 2DE0      		ldi r18,lo8(13)
 7671 2350 30E0      		ldi r19,hi8(13)
 7672 2352 AC01      		movw r20,r24
 7673               	.LVL466:
 7674 2354 429F      		mul r20,r18
 7675 2356 C001      		movw r24,r0
 7676 2358 439F      		mul r20,r19
 7677 235a 900D      		add r25,r0
 7678 235c 529F      		mul r21,r18
 7679 235e 900D      		add r25,r0
 7680 2360 1124      		clr r1
 7681 2362 E80F      		add r30,r24
 7682 2364 F91F      		adc r31,r25
 7683 2366 E75A      		subi r30,lo8(-(89))
 7684 2368 FF4F      		sbci r31,hi8(-(89))
 7685 236a 1192      		st Z+,__zero_reg__
 7686 236c 1192      		st Z+,__zero_reg__
 7687 236e 1192      		st Z+,__zero_reg__
 7688 2370 1192      		st Z+,__zero_reg__
 7689               	.LBE1121:
 7690               	.LBE1120:
 7691               	.LBB1122:
 7692               	.LBB1123:
 7693               	.LM701:
 7694 2372 1082      		st Z,__zero_reg__
 7695 2374 1182      		std Z+1,__zero_reg__
 7696 2376 1282      		std Z+2,__zero_reg__
 7697 2378 1382      		std Z+3,__zero_reg__
 7698               	.LBE1123:
 7699               	.LBE1122:
 7700               	.LBB1124:
 7701               	.LBB1125:
 7702               	.LM702:
 7703 237a 3597      		sbiw r30,5
 7704 237c 8081      		ld r24,Z
 7705               	.LBE1125:
 7706               	.LBE1124:
 7707               	.LBB1126:
 7708               	.LBB1127:
 7709               	.LM703:
 7710 237e 807E      		andi r24,lo8(-32)
 7711 2380 8083      		st Z,r24
 7712               	/* epilogue start */
 7713               	.LBE1127:
 7714               	.LBE1126:
 7715               	.LBE1119:
 7716               	.LBE1118:
 7717               	.LM704:
 7718 2382 0895      		ret
 7719               	.LFE127:
 7721               	.global	Timebase_DownCounter_Start
 7723               	Timebase_DownCounter_Start:
 7724               	.LFB128:
 7725               	.LM705:
 7726               	.LVL467:
 7727               	/* prologue: function */
 7728               	/* frame size = 0 */
 7729               	.LBB1128:
 7730               	.LBB1129:
 7731               	.LM706:
 7732 2384 E091 0000 		lds r30,Timebase
 7733 2388 F091 0000 		lds r31,(Timebase)+1
 7734 238c 90E0      		ldi r25,lo8(0)
 7735               	.LBE1129:
 7736               	.LBE1128:
 7737               	.LM707:
 7738 238e 2DE0      		ldi r18,lo8(13)
 7739 2390 30E0      		ldi r19,hi8(13)
 7740 2392 AC01      		movw r20,r24
 7741               	.LVL468:
 7742 2394 429F      		mul r20,r18
 7743 2396 C001      		movw r24,r0
 7744 2398 439F      		mul r20,r19
 7745 239a 900D      		add r25,r0
 7746 239c 529F      		mul r21,r18
 7747 239e 900D      		add r25,r0
 7748 23a0 1124      		clr r1
 7749 23a2 E80F      		add r30,r24
 7750 23a4 F91F      		adc r31,r25
 7751 23a6 E85A      		subi r30,lo8(-(88))
 7752 23a8 FF4F      		sbci r31,hi8(-(88))
 7753 23aa 9081      		ld r25,Z
 7754 23ac 892F      		mov r24,r25
 7755 23ae 8695      		lsr r24
 7756 23b0 8F70      		andi r24,lo8(15)
 7757 23b2 8130      		cpi r24,lo8(1)
 7758 23b4 01F0      		breq .L334
 7759               	.LBB1130:
 7760               	.LBB1131:
 7761               	.LM708:
 7762 23b6 917E      		andi r25,lo8(-31)
 7763 23b8 9260      		ori r25,lo8(2)
 7764 23ba 9083      		st Z,r25
 7765               	.L334:
 7766 23bc 0895      		ret
 7767               	.LBE1131:
 7768               	.LBE1130:
 7769               	.LFE128:
 7771               	.global	Timebase_DownCounter_Stop
 7773               	Timebase_DownCounter_Stop:
 7774               	.LFB129:
 7775               	.LM709:
 7776               	.LVL469:
 7777               	/* prologue: function */
 7778               	/* frame size = 0 */
 7779               	.LBB1132:
 7780               	.LBB1133:
 7781               	.LM710:
 7782 23be E091 0000 		lds r30,Timebase
 7783 23c2 F091 0000 		lds r31,(Timebase)+1
 7784 23c6 90E0      		ldi r25,lo8(0)
 7785               	.LBE1133:
 7786               	.LBE1132:
 7787               	.LM711:
 7788 23c8 2DE0      		ldi r18,lo8(13)
 7789 23ca 30E0      		ldi r19,hi8(13)
 7790 23cc AC01      		movw r20,r24
 7791               	.LVL470:
 7792 23ce 429F      		mul r20,r18
 7793 23d0 C001      		movw r24,r0
 7794 23d2 439F      		mul r20,r19
 7795 23d4 900D      		add r25,r0
 7796 23d6 529F      		mul r21,r18
 7797 23d8 900D      		add r25,r0
 7798 23da 1124      		clr r1
 7799 23dc E80F      		add r30,r24
 7800 23de F91F      		adc r31,r25
 7801 23e0 E85A      		subi r30,lo8(-(88))
 7802 23e2 FF4F      		sbci r31,hi8(-(88))
 7803 23e4 9081      		ld r25,Z
 7804 23e6 892F      		mov r24,r25
 7805 23e8 8695      		lsr r24
 7806 23ea 8F70      		andi r24,lo8(15)
 7807 23ec 8230      		cpi r24,lo8(2)
 7808 23ee 01F0      		breq .L337
 7809               	.LBB1134:
 7810               	.LBB1135:
 7811               	.LM712:
 7812 23f0 917E      		andi r25,lo8(-31)
 7813 23f2 9460      		ori r25,lo8(4)
 7814 23f4 9083      		st Z,r25
 7815               	.L337:
 7816 23f6 0895      		ret
 7817               	.LBE1135:
 7818               	.LBE1134:
 7819               	.LFE129:
 7821               	.global	Timebase_DownCounter_Set_Securely
 7823               	Timebase_DownCounter_Set_Securely:
 7824               	.LFB130:
 7825               	.LM713:
 7826               	.LVL471:
 7827 23f8 0F93      		push r16
 7828 23fa 1F93      		push r17
 7829 23fc CF93      		push r28
 7830 23fe DF93      		push r29
 7831               	/* prologue: function */
 7832               	/* frame size = 0 */
 7833               	.LBB1136:
 7834               	.LBB1137:
 7835               	.LM714:
 7836 2400 C091 0000 		lds r28,Timebase
 7837 2404 D091 0000 		lds r29,(Timebase)+1
 7838 2408 082F      		mov r16,r24
 7839 240a 10E0      		ldi r17,lo8(0)
 7840               	.LBE1137:
 7841               	.LBE1136:
 7842               	.LM715:
 7843 240c 8DE0      		ldi r24,lo8(13)
 7844 240e 90E0      		ldi r25,hi8(13)
 7845               	.LVL472:
 7846 2410 089F      		mul r16,r24
 7847 2412 F001      		movw r30,r0
 7848 2414 099F      		mul r16,r25
 7849 2416 F00D      		add r31,r0
 7850 2418 189F      		mul r17,r24
 7851 241a F00D      		add r31,r0
 7852 241c 1124      		clr r1
 7853 241e EC0F      		add r30,r28
 7854 2420 FD1F      		adc r31,r29
 7855 2422 E85A      		subi r30,lo8(-(88))
 7856 2424 FF4F      		sbci r31,hi8(-(88))
 7857 2426 8081      		ld r24,Z
 7858 2428 E855      		subi r30,lo8(-(-88))
 7859 242a F040      		sbci r31,hi8(-(-88))
 7860 242c 8695      		lsr r24
 7861 242e 8F70      		andi r24,lo8(15)
 7862 2430 01F4      		brne .L340
 7863               	.LBB1138:
 7864               	.LBB1139:
 7865               	.LM716:
 7866 2432 E35A      		subi r30,lo8(-(93))
 7867 2434 FF4F      		sbci r31,hi8(-(93))
 7868 2436 4083      		st Z,r20
 7869 2438 5183      		std Z+1,r21
 7870 243a 6283      		std Z+2,r22
 7871 243c 7383      		std Z+3,r23
 7872               	.LBE1139:
 7873               	.LBE1138:
 7874               	.LBB1140:
 7875               	.LBB1141:
 7876               	.LBB1142:
 7877               	.LBB1143:
 7878               	.LM717:
 7879               	/* #APP */
 7880               	 ;  341 "timebase.c" 1
 7881 243e F894      		cli
 7882               	 ;  0 "" 2
 7883               	/* #NOAPP */
 7884               	.LBE1143:
 7885               	.LBE1142:
 7886               	.LM718:
 7887 2440 8A85      		ldd r24,Y+10
 7888 2442 9B85      		ldd r25,Y+11
 7889 2444 AC85      		ldd r26,Y+12
 7890 2446 BD85      		ldd r27,Y+13
 7891               	.LVL473:
 7892               	.LBB1144:
 7893               	.LBB1145:
 7894               	.LM719:
 7895               	/* #APP */
 7896               	 ;  345 "timebase.c" 1
 7897 2448 7894      		sei
 7898               	 ;  0 "" 2
 7899               	/* #NOAPP */
 7900               	.LBE1145:
 7901               	.LBE1144:
 7902               	.LBE1141:
 7903               	.LBE1140:
 7904               	.LBB1146:
 7905               	.LBB1147:
 7906               	.LM720:
 7907 244a 2DE0      		ldi r18,lo8(13)
 7908 244c 30E0      		ldi r19,hi8(13)
 7909 244e 029F      		mul r16,r18
 7910 2450 F001      		movw r30,r0
 7911 2452 039F      		mul r16,r19
 7912 2454 F00D      		add r31,r0
 7913 2456 129F      		mul r17,r18
 7914 2458 F00D      		add r31,r0
 7915 245a 1124      		clr r1
 7916 245c EC0F      		add r30,r28
 7917 245e FD1F      		adc r31,r29
 7918 2460 E75A      		subi r30,lo8(-(89))
 7919 2462 FF4F      		sbci r31,hi8(-(89))
 7920 2464 840F      		add r24,r20
 7921 2466 951F      		adc r25,r21
 7922 2468 A61F      		adc r26,r22
 7923 246a B71F      		adc r27,r23
 7924 246c 8083      		st Z,r24
 7925 246e 9183      		std Z+1,r25
 7926 2470 A283      		std Z+2,r26
 7927 2472 B383      		std Z+3,r27
 7928               	.LBE1147:
 7929               	.LBE1146:
 7930               	.LBB1148:
 7931               	.LBB1149:
 7932               	.LM721:
 7933 2474 9291      		ld r25,-Z
 7934 2476 892F      		mov r24,r25
 7935               	.LVL474:
 7936 2478 8695      		lsr r24
 7937 247a 8F70      		andi r24,lo8(15)
 7938 247c 8130      		cpi r24,lo8(1)
 7939 247e 01F0      		breq .L340
 7940               	.LBB1150:
 7941               	.LBB1151:
 7942               	.LM722:
 7943 2480 917E      		andi r25,lo8(-31)
 7944 2482 9260      		ori r25,lo8(2)
 7945 2484 9083      		st Z,r25
 7946               	.L340:
 7947               	/* epilogue start */
 7948               	.LBE1151:
 7949               	.LBE1150:
 7950               	.LBE1149:
 7951               	.LBE1148:
 7952               	.LM723:
 7953 2486 DF91      		pop r29
 7954 2488 CF91      		pop r28
 7955 248a 1F91      		pop r17
 7956 248c 0F91      		pop r16
 7957 248e 0895      		ret
 7958               	.LFE130:
 7960               	.global	Timebase_DownCounter_Set_Forcefully
 7962               	Timebase_DownCounter_Set_Forcefully:
 7963               	.LFB131:
 7964               	.LM724:
 7965               	.LVL475:
 7966 2490 CF93      		push r28
 7967 2492 DF93      		push r29
 7968               	/* prologue: function */
 7969               	/* frame size = 0 */
 7970               	.LBB1152:
 7971               	.LBB1153:
 7972               	.LBB1154:
 7973               	.LBB1155:
 7974               	.LM725:
 7975 2494 E091 0000 		lds r30,Timebase
 7976 2498 F091 0000 		lds r31,(Timebase)+1
 7977 249c A82F      		mov r26,r24
 7978 249e B0E0      		ldi r27,lo8(0)
 7979 24a0 2DE0      		ldi r18,lo8(13)
 7980 24a2 30E0      		ldi r19,hi8(13)
 7981 24a4 E901      		movw r28,r18
 7982 24a6 AC9F      		mul r26,r28
 7983 24a8 9001      		movw r18,r0
 7984 24aa AD9F      		mul r26,r29
 7985 24ac 300D      		add r19,r0
 7986 24ae BC9F      		mul r27,r28
 7987 24b0 300D      		add r19,r0
 7988 24b2 1124      		clr r1
 7989 24b4 E20F      		add r30,r18
 7990 24b6 F31F      		adc r31,r19
 7991 24b8 E75A      		subi r30,lo8(-(89))
 7992 24ba FF4F      		sbci r31,hi8(-(89))
 7993 24bc 1192      		st Z+,__zero_reg__
 7994 24be 1192      		st Z+,__zero_reg__
 7995 24c0 1192      		st Z+,__zero_reg__
 7996 24c2 1192      		st Z+,__zero_reg__
 7997               	.LBE1155:
 7998               	.LBE1154:
 7999               	.LBB1156:
 8000               	.LBB1157:
 8001               	.LM726:
 8002 24c4 1082      		st Z,__zero_reg__
 8003 24c6 1182      		std Z+1,__zero_reg__
 8004 24c8 1282      		std Z+2,__zero_reg__
 8005 24ca 1382      		std Z+3,__zero_reg__
 8006               	.LBE1157:
 8007               	.LBE1156:
 8008               	.LBB1158:
 8009               	.LBB1159:
 8010               	.LM727:
 8011 24cc 3597      		sbiw r30,5
 8012 24ce 9081      		ld r25,Z
 8013               	.LBE1159:
 8014               	.LBE1158:
 8015               	.LBB1160:
 8016               	.LBB1161:
 8017               	.LM728:
 8018 24d0 907E      		andi r25,lo8(-32)
 8019 24d2 9083      		st Z,r25
 8020               	.LBE1161:
 8021               	.LBE1160:
 8022               	.LBE1153:
 8023               	.LBE1152:
 8024               	.LM729:
 8025 24d4 0E94 0000 		call Timebase_DownCounter_Set_Securely
 8026               	.LVL476:
 8027               	/* epilogue start */
 8028               	.LM730:
 8029 24d8 DF91      		pop r29
 8030 24da CF91      		pop r28
 8031 24dc 0895      		ret
 8032               	.LFE131:
 8034               	.global	Timebase_DownCounter_Update
 8036               	Timebase_DownCounter_Update:
 8037               	.LFB132:
 8038               	.LM731:
 8039               	.LVL477:
 8040 24de CF93      		push r28
 8041 24e0 DF93      		push r29
 8042               	/* prologue: function */
 8043               	/* frame size = 0 */
 8044               	.LBB1162:
 8045               	.LBB1163:
 8046               	.LM732:
 8047 24e2 C091 0000 		lds r28,Timebase
 8048 24e6 D091 0000 		lds r29,(Timebase)+1
 8049 24ea 682F      		mov r22,r24
 8050 24ec 70E0      		ldi r23,lo8(0)
 8051 24ee 8DE0      		ldi r24,lo8(13)
 8052 24f0 90E0      		ldi r25,hi8(13)
 8053               	.LVL478:
 8054 24f2 689F      		mul r22,r24
 8055 24f4 F001      		movw r30,r0
 8056 24f6 699F      		mul r22,r25
 8057 24f8 F00D      		add r31,r0
 8058 24fa 789F      		mul r23,r24
 8059 24fc F00D      		add r31,r0
 8060 24fe 1124      		clr r1
 8061 2500 EC0F      		add r30,r28
 8062 2502 FD1F      		adc r31,r29
 8063 2504 E85A      		subi r30,lo8(-(88))
 8064 2506 FF4F      		sbci r31,hi8(-(88))
 8065 2508 E081      		ld r30,Z
 8066 250a E695      		lsr r30
 8067 250c EF70      		andi r30,lo8(15)
 8068               	.LBE1163:
 8069               	.LBE1162:
 8070               	.LM733:
 8071 250e E130      		cpi r30,lo8(1)
 8072 2510 01F4      		brne .L344
 8073               	.LBB1164:
 8074               	.LBB1165:
 8075               	.LBB1166:
 8076               	.LBB1167:
 8077               	.LM734:
 8078               	/* #APP */
 8079               	 ;  341 "timebase.c" 1
 8080 2512 F894      		cli
 8081               	 ;  0 "" 2
 8082               	/* #NOAPP */
 8083               	.LBE1167:
 8084               	.LBE1166:
 8085               	.LM735:
 8086 2514 2A85      		ldd r18,Y+10
 8087 2516 3B85      		ldd r19,Y+11
 8088 2518 4C85      		ldd r20,Y+12
 8089 251a 5D85      		ldd r21,Y+13
 8090               	.LVL479:
 8091               	.LBB1168:
 8092               	.LBB1169:
 8093               	.LM736:
 8094               	/* #APP */
 8095               	 ;  345 "timebase.c" 1
 8096 251c 7894      		sei
 8097               	 ;  0 "" 2
 8098               	/* #NOAPP */
 8099               	.LBE1169:
 8100               	.LBE1168:
 8101               	.LBE1165:
 8102               	.LBE1164:
 8103               	.LM737:
 8104 251e 8DE0      		ldi r24,lo8(13)
 8105 2520 90E0      		ldi r25,hi8(13)
 8106 2522 689F      		mul r22,r24
 8107 2524 F001      		movw r30,r0
 8108 2526 699F      		mul r22,r25
 8109 2528 F00D      		add r31,r0
 8110 252a 789F      		mul r23,r24
 8111 252c F00D      		add r31,r0
 8112 252e 1124      		clr r1
 8113 2530 EC0F      		add r30,r28
 8114 2532 FD1F      		adc r31,r29
 8115 2534 BF01      		movw r22,r30
 8116 2536 675A      		subi r22,lo8(-(89))
 8117 2538 7F4F      		sbci r23,hi8(-(89))
 8118 253a EB01      		movw r28,r22
 8119 253c 8881      		ld r24,Y
 8120 253e 9981      		ldd r25,Y+1
 8121 2540 AA81      		ldd r26,Y+2
 8122 2542 BB81      		ldd r27,Y+3
 8123 2544 821B      		sub r24,r18
 8124 2546 930B      		sbc r25,r19
 8125 2548 A40B      		sbc r26,r20
 8126 254a B50B      		sbc r27,r21
 8127               	.LBB1170:
 8128               	.LBB1171:
 8129               	.LM738:
 8130 254c EF01      		movw r28,r30
 8131 254e C35A      		subi r28,lo8(-(93))
 8132 2550 DF4F      		sbci r29,hi8(-(93))
 8133 2552 8883      		st Y,r24
 8134 2554 9983      		std Y+1,r25
 8135 2556 AA83      		std Y+2,r26
 8136 2558 BB83      		std Y+3,r27
 8137               	.LBE1171:
 8138               	.LBE1170:
 8139               	.LM739:
 8140 255a 1816      		cp __zero_reg__,r24
 8141 255c 1906      		cpc __zero_reg__,r25
 8142 255e 1A06      		cpc __zero_reg__,r26
 8143 2560 1B06      		cpc __zero_reg__,r27
 8144 2562 04F0      		brlt .L346
 8145               	.LBB1172:
 8146               	.LBB1173:
 8147               	.LBB1174:
 8148               	.LBB1175:
 8149               	.LM740:
 8150 2564 DB01      		movw r26,r22
 8151 2566 1D92      		st X+,__zero_reg__
 8152 2568 1D92      		st X+,__zero_reg__
 8153 256a 1D92      		st X+,__zero_reg__
 8154 256c 1C92      		st X,__zero_reg__
 8155 256e 1397      		sbiw r26,3
 8156               	.LBE1175:
 8157               	.LBE1174:
 8158               	.LBB1176:
 8159               	.LBB1177:
 8160               	.LM741:
 8161 2570 1882      		st Y,__zero_reg__
 8162 2572 1982      		std Y+1,__zero_reg__
 8163 2574 1A82      		std Y+2,__zero_reg__
 8164 2576 1B82      		std Y+3,__zero_reg__
 8165               	.LBE1177:
 8166               	.LBE1176:
 8167               	.LBB1178:
 8168               	.LBB1179:
 8169               	.LM742:
 8170 2578 E85A      		subi r30,lo8(-(88))
 8171 257a FF4F      		sbci r31,hi8(-(88))
 8172 257c 8081      		ld r24,Z
 8173               	.LBE1179:
 8174               	.LBE1178:
 8175               	.LBE1173:
 8176               	.LBE1172:
 8177               	.LBB1180:
 8178               	.LBB1181:
 8179               	.LM743:
 8180 257e 807E      		andi r24,lo8(-32)
 8181 2580 8860      		ori r24,lo8(8)
 8182 2582 8083      		st Z,r24
 8183 2584 00C0      		rjmp .L346
 8184               	.LVL480:
 8185               	.L344:
 8186               	.LBE1181:
 8187               	.LBE1180:
 8188               	.LM744:
 8189 2586 E230      		cpi r30,lo8(2)
 8190 2588 01F4      		brne .L346
 8191               	.LBB1182:
 8192               	.LBB1183:
 8193               	.LBB1184:
 8194               	.LBB1185:
 8195               	.LM745:
 8196               	/* #APP */
 8197               	 ;  341 "timebase.c" 1
 8198 258a F894      		cli
 8199               	 ;  0 "" 2
 8200               	/* #NOAPP */
 8201               	.LBE1185:
 8202               	.LBE1184:
 8203               	.LM746:
 8204 258c 8A85      		ldd r24,Y+10
 8205 258e 9B85      		ldd r25,Y+11
 8206 2590 AC85      		ldd r26,Y+12
 8207 2592 BD85      		ldd r27,Y+13
 8208               	.LVL481:
 8209               	.LBB1186:
 8210               	.LBB1187:
 8211               	.LM747:
 8212               	/* #APP */
 8213               	 ;  345 "timebase.c" 1
 8214 2594 7894      		sei
 8215               	 ;  0 "" 2
 8216               	/* #NOAPP */
 8217               	.LBE1187:
 8218               	.LBE1186:
 8219               	.LBE1183:
 8220               	.LBE1182:
 8221               	.LBB1188:
 8222               	.LBB1189:
 8223               	.LM748:
 8224 2596 2DE0      		ldi r18,lo8(13)
 8225 2598 30E0      		ldi r19,hi8(13)
 8226 259a 629F      		mul r22,r18
 8227 259c F001      		movw r30,r0
 8228 259e 639F      		mul r22,r19
 8229 25a0 F00D      		add r31,r0
 8230 25a2 729F      		mul r23,r18
 8231 25a4 F00D      		add r31,r0
 8232 25a6 1124      		clr r1
 8233 25a8 EC0F      		add r30,r28
 8234 25aa FD1F      		adc r31,r29
 8235 25ac E35A      		subi r30,lo8(-(93))
 8236 25ae FF4F      		sbci r31,hi8(-(93))
 8237 25b0 2081      		ld r18,Z
 8238 25b2 3181      		ldd r19,Z+1
 8239 25b4 4281      		ldd r20,Z+2
 8240 25b6 5381      		ldd r21,Z+3
 8241 25b8 820F      		add r24,r18
 8242 25ba 931F      		adc r25,r19
 8243 25bc A41F      		adc r26,r20
 8244 25be B51F      		adc r27,r21
 8245 25c0 B293      		st -Z,r27
 8246 25c2 A293      		st -Z,r26
 8247 25c4 9293      		st -Z,r25
 8248 25c6 8293      		st -Z,r24
 8249               	.LVL482:
 8250               	.L346:
 8251               	/* epilogue start */
 8252               	.LBE1189:
 8253               	.LBE1188:
 8254               	.LM749:
 8255 25c8 DF91      		pop r29
 8256 25ca CF91      		pop r28
 8257 25cc 0895      		ret
 8258               	.LFE132:
 8260               	.global	Timebase_DownCounter_Expired
 8262               	Timebase_DownCounter_Expired:
 8263               	.LFB133:
 8264               	.LM750:
 8265               	.LVL483:
 8266               	/* prologue: function */
 8267               	/* frame size = 0 */
 8268               	.LM751:
 8269 25ce 40E0      		ldi r20,lo8(0)
 8270 25d0 E091 0000 		lds r30,Timebase
 8271 25d4 F091 0000 		lds r31,(Timebase)+1
 8272 25d8 90E0      		ldi r25,lo8(0)
 8273               	.LVL484:
 8274 25da 2DE0      		ldi r18,lo8(13)
 8275 25dc 30E0      		ldi r19,hi8(13)
 8276 25de BC01      		movw r22,r24
 8277 25e0 629F      		mul r22,r18
 8278 25e2 C001      		movw r24,r0
 8279 25e4 639F      		mul r22,r19
 8280 25e6 900D      		add r25,r0
 8281 25e8 729F      		mul r23,r18
 8282 25ea 900D      		add r25,r0
 8283 25ec 1124      		clr r1
 8284               	.LVL485:
 8285 25ee E80F      		add r30,r24
 8286 25f0 F91F      		adc r31,r25
 8287 25f2 E85A      		subi r30,lo8(-(88))
 8288 25f4 FF4F      		sbci r31,hi8(-(88))
 8289 25f6 8081      		ld r24,Z
 8290 25f8 8695      		lsr r24
 8291 25fa 8F70      		andi r24,lo8(15)
 8292 25fc 8430      		cpi r24,lo8(4)
 8293 25fe 01F4      		brne .L348
 8294 2600 41E0      		ldi r20,lo8(1)
 8295               	.L348:
 8296               	.LM752:
 8297 2602 842F      		mov r24,r20
 8298               	/* epilogue start */
 8299 2604 0895      		ret
 8300               	.LFE133:
 8302               	.global	Timebase_DownCounter_Expired_Event
 8304               	Timebase_DownCounter_Expired_Event:
 8305               	.LFB134:
 8306               	.LM753:
 8307               	.LVL486:
 8308               	/* prologue: function */
 8309               	/* frame size = 0 */
 8310               	.LBB1190:
 8311               	.LBB1191:
 8312               	.LM754:
 8313 2606 E091 0000 		lds r30,Timebase
 8314 260a F091 0000 		lds r31,(Timebase)+1
 8315 260e 90E0      		ldi r25,lo8(0)
 8316               	.LBE1191:
 8317               	.LBE1190:
 8318               	.LM755:
 8319 2610 2DE0      		ldi r18,lo8(13)
 8320 2612 30E0      		ldi r19,hi8(13)
 8321 2614 AC01      		movw r20,r24
 8322               	.LVL487:
 8323 2616 429F      		mul r20,r18
 8324 2618 C001      		movw r24,r0
 8325 261a 439F      		mul r20,r19
 8326 261c 900D      		add r25,r0
 8327 261e 529F      		mul r21,r18
 8328 2620 900D      		add r25,r0
 8329 2622 1124      		clr r1
 8330 2624 E80F      		add r30,r24
 8331 2626 F91F      		adc r31,r25
 8332 2628 DF01      		movw r26,r30
 8333 262a A85A      		subi r26,lo8(-(88))
 8334 262c BF4F      		sbci r27,hi8(-(88))
 8335 262e 8C91      		ld r24,X
 8336 2630 8695      		lsr r24
 8337 2632 8F70      		andi r24,lo8(15)
 8338 2634 8430      		cpi r24,lo8(4)
 8339 2636 01F0      		breq .L351
 8340 2638 80E0      		ldi r24,lo8(0)
 8341 263a 0895      		ret
 8342               	.L351:
 8343               	.LBB1192:
 8344               	.LBB1193:
 8345               	.LBB1194:
 8346               	.LBB1195:
 8347               	.LBB1196:
 8348               	.LBB1197:
 8349               	.LM756:
 8350 263c E75A      		subi r30,lo8(-(89))
 8351 263e FF4F      		sbci r31,hi8(-(89))
 8352 2640 1192      		st Z+,__zero_reg__
 8353 2642 1192      		st Z+,__zero_reg__
 8354 2644 1192      		st Z+,__zero_reg__
 8355 2646 1192      		st Z+,__zero_reg__
 8356               	.LBE1197:
 8357               	.LBE1196:
 8358               	.LBB1198:
 8359               	.LBB1199:
 8360               	.LM757:
 8361 2648 1082      		st Z,__zero_reg__
 8362 264a 1182      		std Z+1,__zero_reg__
 8363 264c 1282      		std Z+2,__zero_reg__
 8364 264e 1382      		std Z+3,__zero_reg__
 8365               	.LBE1199:
 8366               	.LBE1198:
 8367               	.LBB1200:
 8368               	.LBB1201:
 8369               	.LM758:
 8370 2650 8C91      		ld r24,X
 8371               	.LBE1201:
 8372               	.LBE1200:
 8373               	.LBB1202:
 8374               	.LBB1203:
 8375               	.LM759:
 8376 2652 807E      		andi r24,lo8(-32)
 8377 2654 8C93      		st X,r24
 8378 2656 81E0      		ldi r24,lo8(1)
 8379               	.LBE1203:
 8380               	.LBE1202:
 8381               	.LBE1195:
 8382               	.LBE1194:
 8383               	.LBE1193:
 8384               	.LBE1192:
 8385               	.LM760:
 8386 2658 0895      		ret
 8387               	.LFE134:
 8389               	.global	Timebase_DownCounter_Set_Period_Value_Securely
 8391               	Timebase_DownCounter_Set_Period_Value_Securely:
 8392               	.LFB135:
 8393               	.LM761:
 8394               	.LVL488:
 8395 265a CF93      		push r28
 8396 265c DF93      		push r29
 8397               	/* prologue: function */
 8398               	/* frame size = 0 */
 8399               	.LBB1204:
 8400               	.LBB1205:
 8401               	.LM762:
 8402 265e C091 0000 		lds r28,Timebase
 8403 2662 D091 0000 		lds r29,(Timebase)+1
 8404 2666 282F      		mov r18,r24
 8405 2668 30E0      		ldi r19,lo8(0)
 8406               	.LBE1205:
 8407               	.LBE1204:
 8408               	.LM763:
 8409 266a 8DE0      		ldi r24,lo8(13)
 8410 266c 90E0      		ldi r25,hi8(13)
 8411               	.LVL489:
 8412 266e 289F      		mul r18,r24
 8413 2670 F001      		movw r30,r0
 8414 2672 299F      		mul r18,r25
 8415 2674 F00D      		add r31,r0
 8416 2676 389F      		mul r19,r24
 8417 2678 F00D      		add r31,r0
 8418 267a 1124      		clr r1
 8419 267c EC0F      		add r30,r28
 8420 267e FD1F      		adc r31,r29
 8421 2680 E85A      		subi r30,lo8(-(88))
 8422 2682 FF4F      		sbci r31,hi8(-(88))
 8423 2684 8081      		ld r24,Z
 8424 2686 E855      		subi r30,lo8(-(-88))
 8425 2688 F040      		sbci r31,hi8(-(-88))
 8426 268a 80FD      		sbrc r24,0
 8427 268c 00C0      		rjmp .L358
 8428               	.LM764:
 8429 268e E35A      		subi r30,lo8(-(93))
 8430 2690 FF4F      		sbci r31,hi8(-(93))
 8431 2692 8191      		ld r24,Z+
 8432 2694 9191      		ld r25,Z+
 8433 2696 A191      		ld r26,Z+
 8434 2698 B191      		ld r27,Z+
 8435 269a 841B      		sub r24,r20
 8436 269c 950B      		sbc r25,r21
 8437 269e A60B      		sbc r26,r22
 8438 26a0 B70B      		sbc r27,r23
 8439               	.LBB1206:
 8440               	.LBB1207:
 8441               	.LM765:
 8442 26a2 B7FF      		sbrs r27,7
 8443 26a4 00C0      		rjmp .L356
 8444               	.LM766:
 8445 26a6 1082      		st Z,__zero_reg__
 8446 26a8 1182      		std Z+1,__zero_reg__
 8447 26aa 1282      		std Z+2,__zero_reg__
 8448 26ac 1382      		std Z+3,__zero_reg__
 8449 26ae 00C0      		rjmp .L357
 8450               	.L356:
 8451               	.LM767:
 8452 26b0 8083      		st Z,r24
 8453 26b2 9183      		std Z+1,r25
 8454 26b4 A283      		std Z+2,r26
 8455 26b6 B383      		std Z+3,r27
 8456               	.L357:
 8457               	.LBE1207:
 8458               	.LBE1206:
 8459               	.LBB1208:
 8460               	.LBB1209:
 8461               	.LM768:
 8462 26b8 8DE0      		ldi r24,lo8(13)
 8463 26ba 90E0      		ldi r25,hi8(13)
 8464 26bc 289F      		mul r18,r24
 8465 26be F001      		movw r30,r0
 8466 26c0 299F      		mul r18,r25
 8467 26c2 F00D      		add r31,r0
 8468 26c4 389F      		mul r19,r24
 8469 26c6 F00D      		add r31,r0
 8470 26c8 1124      		clr r1
 8471 26ca EC0F      		add r30,r28
 8472 26cc FD1F      		adc r31,r29
 8473 26ce E85A      		subi r30,lo8(-(88))
 8474 26d0 FF4F      		sbci r31,hi8(-(88))
 8475 26d2 8081      		ld r24,Z
 8476 26d4 8160      		ori r24,lo8(1)
 8477 26d6 8083      		st Z,r24
 8478               	.L358:
 8479               	/* epilogue start */
 8480               	.LBE1209:
 8481               	.LBE1208:
 8482               	.LM769:
 8483 26d8 DF91      		pop r29
 8484 26da CF91      		pop r28
 8485 26dc 0895      		ret
 8486               	.LFE135:
 8488               	.global	Timebase_DownCounter_Get_Remaining_Period_Value
 8490               	Timebase_DownCounter_Get_Remaining_Period_Value:
 8491               	.LFB136:
 8492               	.LM770:
 8493               	.LVL490:
 8494               	/* prologue: function */
 8495               	/* frame size = 0 */
 8496               	.LBB1210:
 8497               	.LBB1211:
 8498               	.LM771:
 8499 26de E091 0000 		lds r30,Timebase
 8500 26e2 F091 0000 		lds r31,(Timebase)+1
 8501 26e6 90E0      		ldi r25,lo8(0)
 8502               	.LBE1211:
 8503               	.LBE1210:
 8504               	.LM772:
 8505 26e8 2DE0      		ldi r18,lo8(13)
 8506 26ea 30E0      		ldi r19,hi8(13)
 8507 26ec AC01      		movw r20,r24
 8508               	.LVL491:
 8509 26ee 429F      		mul r20,r18
 8510 26f0 C001      		movw r24,r0
 8511 26f2 439F      		mul r20,r19
 8512 26f4 900D      		add r25,r0
 8513 26f6 529F      		mul r21,r18
 8514 26f8 900D      		add r25,r0
 8515 26fa 1124      		clr r1
 8516 26fc E80F      		add r30,r24
 8517 26fe F91F      		adc r31,r25
 8518 2700 DF01      		movw r26,r30
 8519 2702 AF59      		subi r26,lo8(-(97))
 8520 2704 BF4F      		sbci r27,hi8(-(97))
 8521 2706 E35A      		subi r30,lo8(-(93))
 8522 2708 FF4F      		sbci r31,hi8(-(93))
 8523 270a 2081      		ld r18,Z
 8524 270c 3181      		ldd r19,Z+1
 8525 270e 4281      		ldd r20,Z+2
 8526 2710 5381      		ldd r21,Z+3
 8527               	.LVL492:
 8528 2712 8D91      		ld r24,X+
 8529 2714 9D91      		ld r25,X+
 8530 2716 0D90      		ld __tmp_reg__,X+
 8531 2718 BC91      		ld r27,X
 8532 271a A02D      		mov r26,__tmp_reg__
 8533 271c 281B      		sub r18,r24
 8534 271e 390B      		sbc r19,r25
 8535 2720 4A0B      		sbc r20,r26
 8536 2722 5B0B      		sbc r21,r27
 8537 2724 57FF      		sbrs r21,7
 8538 2726 00C0      		rjmp .L360
 8539 2728 20E0      		ldi r18,lo8(0)
 8540 272a 30E0      		ldi r19,hi8(0)
 8541 272c 40E0      		ldi r20,hlo8(0)
 8542 272e 50E0      		ldi r21,hhi8(0)
 8543               	.L360:
 8544               	.LM773:
 8545 2730 B901      		movw r22,r18
 8546               	.LVL493:
 8547 2732 CA01      		movw r24,r20
 8548               	/* epilogue start */
 8549 2734 0895      		ret
 8550               	.LFE136:
 8552               	.global	Timebase_DownCounter_Period_Value_Expired
 8554               	Timebase_DownCounter_Period_Value_Expired:
 8555               	.LFB137:
 8556               	.LM774:
 8557               	.LVL494:
 8558 2736 CF93      		push r28
 8559 2738 DF93      		push r29
 8560               	/* prologue: function */
 8561               	/* frame size = 0 */
 8562               	.LBB1212:
 8563               	.LBB1213:
 8564               	.LBB1214:
 8565               	.LBB1215:
 8566               	.LM775:
 8567 273a C091 0000 		lds r28,Timebase
 8568 273e D091 0000 		lds r29,(Timebase)+1
 8569 2742 682F      		mov r22,r24
 8570 2744 70E0      		ldi r23,lo8(0)
 8571               	.LBE1215:
 8572               	.LBE1214:
 8573               	.LM776:
 8574 2746 8DE0      		ldi r24,lo8(13)
 8575 2748 90E0      		ldi r25,hi8(13)
 8576               	.LVL495:
 8577 274a 689F      		mul r22,r24
 8578 274c F001      		movw r30,r0
 8579 274e 699F      		mul r22,r25
 8580 2750 F00D      		add r31,r0
 8581 2752 789F      		mul r23,r24
 8582 2754 F00D      		add r31,r0
 8583 2756 1124      		clr r1
 8584 2758 EC0F      		add r30,r28
 8585 275a FD1F      		adc r31,r29
 8586 275c DF01      		movw r26,r30
 8587 275e AF59      		subi r26,lo8(-(97))
 8588 2760 BF4F      		sbci r27,hi8(-(97))
 8589 2762 E35A      		subi r30,lo8(-(93))
 8590 2764 FF4F      		sbci r31,hi8(-(93))
 8591 2766 2081      		ld r18,Z
 8592 2768 3181      		ldd r19,Z+1
 8593 276a 4281      		ldd r20,Z+2
 8594 276c 5381      		ldd r21,Z+3
 8595               	.LVL496:
 8596 276e 8D91      		ld r24,X+
 8597 2770 9D91      		ld r25,X+
 8598 2772 0D90      		ld __tmp_reg__,X+
 8599 2774 BC91      		ld r27,X
 8600 2776 A02D      		mov r26,__tmp_reg__
 8601 2778 281B      		sub r18,r24
 8602 277a 390B      		sbc r19,r25
 8603 277c 4A0B      		sbc r20,r26
 8604 277e 5B0B      		sbc r21,r27
 8605               	.LM777:
 8606 2780 57FD      		sbrc r21,7
 8607 2782 00C0      		rjmp .L363
 8608               	.LBE1213:
 8609               	.LBE1212:
 8610               	.LM778:
 8611 2784 2115      		cp r18,__zero_reg__
 8612 2786 3105      		cpc r19,__zero_reg__
 8613 2788 4105      		cpc r20,__zero_reg__
 8614 278a 5105      		cpc r21,__zero_reg__
 8615 278c 01F0      		breq .L363
 8616 278e 20E0      		ldi r18,lo8(0)
 8617               	.LVL497:
 8618 2790 00C0      		rjmp .L364
 8619               	.LVL498:
 8620               	.L363:
 8621 2792 20E0      		ldi r18,lo8(0)
 8622               	.LVL499:
 8623 2794 8DE0      		ldi r24,lo8(13)
 8624 2796 90E0      		ldi r25,hi8(13)
 8625 2798 AC01      		movw r20,r24
 8626 279a 649F      		mul r22,r20
 8627 279c C001      		movw r24,r0
 8628 279e 659F      		mul r22,r21
 8629 27a0 900D      		add r25,r0
 8630 27a2 749F      		mul r23,r20
 8631 27a4 900D      		add r25,r0
 8632 27a6 1124      		clr r1
 8633 27a8 C80F      		add r28,r24
 8634 27aa D91F      		adc r29,r25
 8635 27ac C85A      		subi r28,lo8(-(88))
 8636 27ae DF4F      		sbci r29,hi8(-(88))
 8637 27b0 8881      		ld r24,Y
 8638 27b2 80FF      		sbrs r24,0
 8639 27b4 21E0      		ldi r18,lo8(1)
 8640               	.L365:
 8641 27b6 81E0      		ldi r24,lo8(1)
 8642 27b8 2827      		eor r18,r24
 8643               	.L364:
 8644               	.LM779:
 8645 27ba 822F      		mov r24,r18
 8646               	/* epilogue start */
 8647 27bc DF91      		pop r29
 8648 27be CF91      		pop r28
 8649 27c0 0895      		ret
 8650               	.LFE137:
 8652               	.global	Timebase_DownCounter_Period_Value_Expired_Event
 8654               	Timebase_DownCounter_Period_Value_Expired_Event:
 8655               	.LFB138:
 8656               	.LM780:
 8657               	.LVL500:
 8658 27c2 1F93      		push r17
 8659               	/* prologue: function */
 8660               	/* frame size = 0 */
 8661 27c4 182F      		mov r17,r24
 8662               	.LM781:
 8663 27c6 0E94 0000 		call Timebase_DownCounter_Period_Value_Expired
 8664               	.LVL501:
 8665 27ca 8130      		cpi r24,lo8(1)
 8666 27cc 01F0      		breq .L368
 8667 27ce 80E0      		ldi r24,lo8(0)
 8668 27d0 00C0      		rjmp .L369
 8669               	.L368:
 8670               	.LBB1216:
 8671               	.LBB1217:
 8672               	.LM782:
 8673 27d2 E091 0000 		lds r30,Timebase
 8674 27d6 F091 0000 		lds r31,(Timebase)+1
 8675 27da 212F      		mov r18,r17
 8676 27dc 30E0      		ldi r19,lo8(0)
 8677               	.LVL502:
 8678 27de 8DE0      		ldi r24,lo8(13)
 8679 27e0 90E0      		ldi r25,hi8(13)
 8680 27e2 AC01      		movw r20,r24
 8681 27e4 249F      		mul r18,r20
 8682 27e6 C001      		movw r24,r0
 8683 27e8 259F      		mul r18,r21
 8684 27ea 900D      		add r25,r0
 8685 27ec 349F      		mul r19,r20
 8686 27ee 900D      		add r25,r0
 8687 27f0 1124      		clr r1
 8688 27f2 E80F      		add r30,r24
 8689 27f4 F91F      		adc r31,r25
 8690 27f6 E85A      		subi r30,lo8(-(88))
 8691 27f8 FF4F      		sbci r31,hi8(-(88))
 8692 27fa 8081      		ld r24,Z
 8693 27fc 8E7F      		andi r24,lo8(-2)
 8694 27fe 8083      		st Z,r24
 8695 2800 81E0      		ldi r24,lo8(1)
 8696               	.L369:
 8697               	/* epilogue start */
 8698               	.LBE1217:
 8699               	.LBE1216:
 8700               	.LM783:
 8701 2802 1F91      		pop r17
 8702               	.LVL503:
 8703 2804 0895      		ret
 8704               	.LFE138:
 8706               	.global	Timebase_DownCounter_Update_All
 8708               	Timebase_DownCounter_Update_All:
 8709               	.LFB139:
 8710               	.LM784:
 8711               	/* prologue: function */
 8712               	/* frame size = 0 */
 8713               	.LBB1218:
 8714               	.LM785:
 8715 2806 80E0      		ldi r24,lo8(0)
 8716 2808 0E94 0000 		call Timebase_DownCounter_Update
 8717               	/* epilogue start */
 8718               	.LBE1218:
 8719               	.LM786:
 8720 280c 0895      		ret
 8721               	.LFE139:
 8723               	.global	Timebase_DownCounter_Reset_All
 8725               	Timebase_DownCounter_Reset_All:
 8726               	.LFB140:
 8727               	.LM787:
 8728               	/* prologue: function */
 8729               	/* frame size = 0 */
 8730               	.LBB1219:
 8731               	.LBB1220:
 8732               	.LBB1221:
 8733               	.LBB1222:
 8734               	.LBB1223:
 8735               	.LM788:
 8736 280e E091 0000 		lds r30,Timebase
 8737 2812 F091 0000 		lds r31,(Timebase)+1
 8738 2816 E75A      		subi r30,lo8(-(89))
 8739 2818 FF4F      		sbci r31,hi8(-(89))
 8740 281a 1192      		st Z+,__zero_reg__
 8741 281c 1192      		st Z+,__zero_reg__
 8742 281e 1192      		st Z+,__zero_reg__
 8743 2820 1192      		st Z+,__zero_reg__
 8744               	.LBE1223:
 8745               	.LBE1222:
 8746               	.LBB1224:
 8747               	.LBB1225:
 8748               	.LM789:
 8749 2822 1082      		st Z,__zero_reg__
 8750 2824 1182      		std Z+1,__zero_reg__
 8751 2826 1282      		std Z+2,__zero_reg__
 8752 2828 1382      		std Z+3,__zero_reg__
 8753               	.LBE1225:
 8754               	.LBE1224:
 8755               	.LBB1226:
 8756               	.LBB1227:
 8757               	.LM790:
 8758 282a 3597      		sbiw r30,5
 8759 282c 8081      		ld r24,Z
 8760               	.LBE1227:
 8761               	.LBE1226:
 8762               	.LBB1228:
 8763               	.LBB1229:
 8764               	.LM791:
 8765 282e 807E      		andi r24,lo8(-32)
 8766 2830 8083      		st Z,r24
 8767               	/* epilogue start */
 8768               	.LBE1229:
 8769               	.LBE1228:
 8770               	.LBE1221:
 8771               	.LBE1220:
 8772               	.LBE1219:
 8773               	.LM792:
 8774 2832 0895      		ret
 8775               	.LFE140:
 8777               	.global	Timebase_Reset
 8779               	Timebase_Reset:
 8780               	.LFB141:
 8781               	.LM793:
 8782               	/* prologue: function */
 8783               	/* frame size = 0 */
 8784               	.LM794:
 8785 2834 0E94 0000 		call Timebase_UpCounter_Reset_All
 8786               	.LM795:
 8787 2838 0E94 0000 		call Timebase_DownCounter_SS_Reset_All
 8788               	.LM796:
 8789 283c 0E94 0000 		call Timebase_DownCounter_Reset_All
 8790               	/* epilogue start */
 8791               	.LM797:
 8792 2840 0895      		ret
 8793               	.LFE141:
 8795               	.global	Timebase_Init
 8797               	Timebase_Init:
 8798               	.LFB142:
 8799               	.LM798:
 8800               	.LVL504:
 8801 2842 0F93      		push r16
 8802 2844 1F93      		push r17
 8803               	/* prologue: function */
 8804               	/* frame size = 0 */
 8805 2846 8C01      		movw r16,r24
 8806               	.LM799:
 8807 2848 0E94 0000 		call Timebase_Struct_Init
 8808               	.LVL505:
 8809               	.LM800:
 8810 284c C801      		movw r24,r16
 8811 284e 0E94 0000 		call Timebase_Timer_Config
 8812               	.LM801:
 8813 2852 0E94 0000 		call Timebase_Reset
 8814               	/* epilogue start */
 8815               	.LM802:
 8816 2856 1F91      		pop r17
 8817 2858 0F91      		pop r16
 8818               	.LVL506:
 8819 285a 0895      		ret
 8820               	.LFE142:
 8822               	.global	Timebase_Main_Loop_Executables
 8824               	Timebase_Main_Loop_Executables:
 8825               	.LFB143:
 8826               	.LM803:
 8827               	/* prologue: function */
 8828               	/* frame size = 0 */
 8829               	.LM804:
 8830 285c E091 0000 		lds r30,Timebase
 8831 2860 F091 0000 		lds r31,(Timebase)+1
 8832 2864 8789      		ldd r24,Z+23
 8833 2866 82FF      		sbrs r24,2
 8834 2868 00C0      		rjmp .L380
 8835               	.LM805:
 8836 286a 8789      		ldd r24,Z+23
 8837 286c 8B7F      		andi r24,lo8(-5)
 8838 286e 878B      		std Z+23,r24
 8839               	.L380:
 8840               	.LM806:
 8841 2870 8789      		ldd r24,Z+23
 8842 2872 80FF      		sbrs r24,0
 8843 2874 00C0      		rjmp .L381
 8844               	.LM807:
 8845 2876 0E94 0000 		call Timebase_UpCounter_Update_All
 8846               	.LM808:
 8847 287a E091 0000 		lds r30,Timebase
 8848 287e F091 0000 		lds r31,(Timebase)+1
 8849 2882 8789      		ldd r24,Z+23
 8850 2884 8E7F      		andi r24,lo8(-2)
 8851 2886 878B      		std Z+23,r24
 8852               	.L381:
 8853               	.LM809:
 8854 2888 E091 0000 		lds r30,Timebase
 8855 288c F091 0000 		lds r31,(Timebase)+1
 8856 2890 8789      		ldd r24,Z+23
 8857 2892 83FF      		sbrs r24,3
 8858 2894 00C0      		rjmp .L382
 8859               	.LM810:
 8860 2896 0E94 0000 		call Timebase_DownCounter_SS_Update_All
 8861               	.LM811:
 8862 289a E091 0000 		lds r30,Timebase
 8863 289e F091 0000 		lds r31,(Timebase)+1
 8864 28a2 8789      		ldd r24,Z+23
 8865 28a4 877F      		andi r24,lo8(-9)
 8866 28a6 878B      		std Z+23,r24
 8867               	.L382:
 8868               	.LM812:
 8869 28a8 E091 0000 		lds r30,Timebase
 8870 28ac F091 0000 		lds r31,(Timebase)+1
 8871 28b0 8789      		ldd r24,Z+23
 8872 28b2 81FF      		sbrs r24,1
 8873 28b4 00C0      		rjmp .L384
 8874               	.LM813:
 8875 28b6 0E94 0000 		call Timebase_DownCounter_Update_All
 8876               	.LM814:
 8877 28ba E091 0000 		lds r30,Timebase
 8878 28be F091 0000 		lds r31,(Timebase)+1
 8879 28c2 8789      		ldd r24,Z+23
 8880 28c4 8D7F      		andi r24,lo8(-3)
 8881 28c6 878B      		std Z+23,r24
 8882               	.L384:
 8883 28c8 0895      		ret
 8884               	.LFE143:
 8886               	.global	Timebase_ISR_Executables
 8888               	Timebase_ISR_Executables:
 8889               	.LFB144:
 8890               	.LM815:
 8891               	/* prologue: function */
 8892               	/* frame size = 0 */
 8893               	.LM816:
 8894 28ca E091 0000 		lds r30,Timebase
 8895 28ce F091 0000 		lds r31,(Timebase)+1
 8896 28d2 8085      		ldd r24,Z+8
 8897 28d4 9185      		ldd r25,Z+9
 8898 28d6 0196      		adiw r24,1
 8899 28d8 9187      		std Z+9,r25
 8900 28da 8087      		std Z+8,r24
 8901               	.LM817:
 8902 28dc 8789      		ldd r24,Z+23
 8903 28de 8460      		ori r24,lo8(4)
 8904 28e0 878B      		std Z+23,r24
 8905               	.LM818:
 8906 28e2 8789      		ldd r24,Z+23
 8907 28e4 8860      		ori r24,lo8(8)
 8908 28e6 878B      		std Z+23,r24
 8909               	.LM819:
 8910 28e8 8085      		ldd r24,Z+8
 8911 28ea 9185      		ldd r25,Z+9
 8912 28ec 6181      		ldd r22,Z+1
 8913 28ee 7281      		ldd r23,Z+2
 8914 28f0 0E94 0000 		call __udivmodhi4
 8915 28f4 892B      		or r24,r25
 8916 28f6 01F4      		brne .L387
 8917               	.LM820:
 8918 28f8 8285      		ldd r24,Z+10
 8919 28fa 9385      		ldd r25,Z+11
 8920 28fc A485      		ldd r26,Z+12
 8921 28fe B585      		ldd r27,Z+13
 8922 2900 0196      		adiw r24,1
 8923 2902 A11D      		adc r26,__zero_reg__
 8924 2904 B11D      		adc r27,__zero_reg__
 8925 2906 8287      		std Z+10,r24
 8926 2908 9387      		std Z+11,r25
 8927 290a A487      		std Z+12,r26
 8928 290c B587      		std Z+13,r27
 8929               	.LM821:
 8930 290e 1186      		std Z+9,__zero_reg__
 8931 2910 1086      		std Z+8,__zero_reg__
 8932               	.LM822:
 8933 2912 8789      		ldd r24,Z+23
 8934 2914 8160      		ori r24,lo8(1)
 8935 2916 878B      		std Z+23,r24
 8936               	.LM823:
 8937 2918 8789      		ldd r24,Z+23
 8938 291a 8260      		ori r24,lo8(2)
 8939 291c 878B      		std Z+23,r24
 8940               	.L387:
 8941 291e 0895      		ret
 8942               	.LFE144:
 8944               	.global	__vector_16
 8946               	__vector_16:
 8947               	.LFB145:
 8948               	.LM824:
 8949 2920 1F92      		push __zero_reg__
 8950 2922 0F92      		push r0
 8951 2924 0FB6      		in r0,__SREG__
 8952 2926 0F92      		push r0
 8953 2928 1124      		clr __zero_reg__
 8954 292a 2F93      		push r18
 8955 292c 3F93      		push r19
 8956 292e 4F93      		push r20
 8957 2930 5F93      		push r21
 8958 2932 6F93      		push r22
 8959 2934 7F93      		push r23
 8960 2936 8F93      		push r24
 8961 2938 9F93      		push r25
 8962 293a AF93      		push r26
 8963 293c BF93      		push r27
 8964 293e EF93      		push r30
 8965 2940 FF93      		push r31
 8966               	/* prologue: Signal */
 8967               	/* frame size = 0 */
 8968               	.LM825:
 8969 2942 E091 0000 		lds r30,Timebase
 8970 2946 F091 0000 		lds r31,(Timebase)+1
 8971 294a 8381      		ldd r24,Z+3
 8972 294c 86BD      		out 70-32,r24
 8973               	.LM826:
 8974 294e 0E94 0000 		call Timebase_ISR_Executables
 8975               	/* epilogue start */
 8976               	.LM827:
 8977 2952 FF91      		pop r31
 8978 2954 EF91      		pop r30
 8979 2956 BF91      		pop r27
 8980 2958 AF91      		pop r26
 8981 295a 9F91      		pop r25
 8982 295c 8F91      		pop r24
 8983 295e 7F91      		pop r23
 8984 2960 6F91      		pop r22
 8985 2962 5F91      		pop r21
 8986 2964 4F91      		pop r20
 8987 2966 3F91      		pop r19
 8988 2968 2F91      		pop r18
 8989 296a 0F90      		pop r0
 8990 296c 0FBE      		out __SREG__,r0
 8991 296e 0F90      		pop r0
 8992 2970 1F90      		pop __zero_reg__
 8993 2972 1895      		reti
 8994               	.LFE145:
 8996               		.data
 8999               	C.2.1694:
 9000 0000 0100      		.word	1
 9001 0002 0800      		.word	8
 9002 0004 4000      		.word	64
 9003 0006 0001      		.word	256
 9004 0008 0004      		.word	1024
 9005               		.comm Timebase_type,101,1
 9006               		.comm Timebase,2,1
 10143               	.Letext0:
DEFINED SYMBOLS
                            *ABS*:00000000 timebase.c
C:\Users\farid\AppData\Local\Temp/ccyH714d.s:2      *ABS*:0000003f __SREG__
C:\Users\farid\AppData\Local\Temp/ccyH714d.s:3      *ABS*:0000003e __SP_H__
C:\Users\farid\AppData\Local\Temp/ccyH714d.s:4      *ABS*:0000003d __SP_L__
C:\Users\farid\AppData\Local\Temp/ccyH714d.s:5      *ABS*:00000034 __CCP__
C:\Users\farid\AppData\Local\Temp/ccyH714d.s:6      *ABS*:00000000 __tmp_reg__
C:\Users\farid\AppData\Local\Temp/ccyH714d.s:7      *ABS*:00000001 __zero_reg__
C:\Users\farid\AppData\Local\Temp/ccyH714d.s:18     .text:00000000 Timebase_Struct_Init
                            *COM*:00000065 Timebase_type
                            *COM*:00000002 Timebase
C:\Users\farid\AppData\Local\Temp/ccyH714d.s:187    .text:000001ba Timebase_Timer_Config
C:\Users\farid\AppData\Local\Temp/ccyH714d.s:8999   .data:00000000 C.2.1694
C:\Users\farid\AppData\Local\Temp/ccyH714d.s:507    .text:00000354 Timebase_Atomic_Operation_Start
C:\Users\farid\AppData\Local\Temp/ccyH714d.s:525    .text:00000358 Timebase_Atomic_Operation_End
C:\Users\farid\AppData\Local\Temp/ccyH714d.s:543    .text:0000035c Timebase_Token_Executing
C:\Users\farid\AppData\Local\Temp/ccyH714d.s:559    .text:00000368 Timebase_Token_Add
C:\Users\farid\AppData\Local\Temp/ccyH714d.s:585    .text:0000037e Timebase_Token_Remove
C:\Users\farid\AppData\Local\Temp/ccyH714d.s:611    .text:00000394 Timebase_Token_Remove_All
C:\Users\farid\AppData\Local\Temp/ccyH714d.s:627    .text:000003a0 Timebase_Timer_Get_SubSeconds
C:\Users\farid\AppData\Local\Temp/ccyH714d.s:667    .text:000003b4 Timebase_Timer_Get_Seconds
C:\Users\farid\AppData\Local\Temp/ccyH714d.s:710    .text:000003ce Timebase_Timer_Set_SubSeconds
C:\Users\farid\AppData\Local\Temp/ccyH714d.s:748    .text:000003e0 Timebase_Timer_Set_Seconds
C:\Users\farid\AppData\Local\Temp/ccyH714d.s:788    .text:000003f6 Timebase_Timer_Delay_SubSeconds
C:\Users\farid\AppData\Local\Temp/ccyH714d.s:1012   .text:000004b6 Timebase_Timer_Await_SubSeconds
C:\Users\farid\AppData\Local\Temp/ccyH714d.s:1141   .text:00000532 Timebase_Timer_Delay_Seconds
C:\Users\farid\AppData\Local\Temp/ccyH714d.s:1238   .text:00000574 Timebase_Window_Timer_Reset
C:\Users\farid\AppData\Local\Temp/ccyH714d.s:1264   .text:00000590 Timebase_Window_Timer_Start
C:\Users\farid\AppData\Local\Temp/ccyH714d.s:1356   .text:000005cc Timebase_Window_Timer_Get_Interval
C:\Users\farid\AppData\Local\Temp/ccyH714d.s:1494   .text:0000064e Timebase_Window_Timer_Get_Interval_Reset
C:\Users\farid\AppData\Local\Temp/ccyH714d.s:1534   .text:00000678 Timebase_UpCounter_SS_Get_Status
C:\Users\farid\AppData\Local\Temp/ccyH714d.s:1570   .text:000006a4 Timebase_UpCounter_SS_Set_Status
C:\Users\farid\AppData\Local\Temp/ccyH714d.s:1610   .text:000006d6 Timebase_UpCounter_SS_Get_Value
C:\Users\farid\AppData\Local\Temp/ccyH714d.s:1653   .text:00000710 Timebase_UpCounter_SS_Set_Value
C:\Users\farid\AppData\Local\Temp/ccyH714d.s:1688   .text:0000073c Timebase_UpCounter_SS_Get_EndValueSec
C:\Users\farid\AppData\Local\Temp/ccyH714d.s:1731   .text:00000776 Timebase_UpCounter_SS_Get_EndValueSubSec
C:\Users\farid\AppData\Local\Temp/ccyH714d.s:1774   .text:000007b0 Timebase_UpCounter_SS_Set_EndValueSec
C:\Users\farid\AppData\Local\Temp/ccyH714d.s:1809   .text:000007dc Timebase_UpCounter_SS_Set_EndValueSubSec
C:\Users\farid\AppData\Local\Temp/ccyH714d.s:1844   .text:00000808 Timebase_UpCounter_SS_Get_TargetValue
C:\Users\farid\AppData\Local\Temp/ccyH714d.s:1887   .text:00000842 Timebase_UpCounter_SS_Set_TargetValue
C:\Users\farid\AppData\Local\Temp/ccyH714d.s:1922   .text:0000086e Timebase_UpCounter_SS_Get_TemporaryValue
C:\Users\farid\AppData\Local\Temp/ccyH714d.s:1965   .text:000008a8 Timebase_UpCounter_SS_Set_TemporaryValue
C:\Users\farid\AppData\Local\Temp/ccyH714d.s:2000   .text:000008d4 Timebase_UpCounter_SS_Get_PeriodValue
C:\Users\farid\AppData\Local\Temp/ccyH714d.s:2043   .text:0000090e Timebase_UpCounter_SS_Set_PeriodValue
C:\Users\farid\AppData\Local\Temp/ccyH714d.s:2078   .text:0000093a Timebase_UpCounter_SS_Get_Period_Flag
C:\Users\farid\AppData\Local\Temp/ccyH714d.s:2113   .text:00000964 Timebase_UpCounter_SS_Set_Period_Flag
C:\Users\farid\AppData\Local\Temp/ccyH714d.s:2149   .text:00000990 Timebase_UpCounter_SS_Clear_Period_Flag
C:\Users\farid\AppData\Local\Temp/ccyH714d.s:2185   .text:000009bc Timebase_UpCounter_SS_Reset
C:\Users\farid\AppData\Local\Temp/ccyH714d.s:2294   .text:00000a30 Timebase_UpCounter_SS_Clear_All_Flags
C:\Users\farid\AppData\Local\Temp/ccyH714d.s:2310   .text:00000a36 Timebase_UpCounter_SS_Start
C:\Users\farid\AppData\Local\Temp/ccyH714d.s:2359   .text:00000a6e Timebase_UpCounter_SS_Stop
C:\Users\farid\AppData\Local\Temp/ccyH714d.s:2408   .text:00000aa6 Timebase_UpCounter_SS_Set_Securely
C:\Users\farid\AppData\Local\Temp/ccyH714d.s:2774   .text:00000c6e Timebase_UpCounter_SS_Set_Forcefully
C:\Users\farid\AppData\Local\Temp/ccyH714d.s:2810   .text:00000c98 Timebase_UpCounter_SS_Update
C:\Users\farid\AppData\Local\Temp/ccyH714d.s:3050   .text:00000db8 Timebase_UpCounter_SS_Expired
C:\Users\farid\AppData\Local\Temp/ccyH714d.s:3092   .text:00000dee Timebase_UpCounter_SS_Expired_Event
C:\Users\farid\AppData\Local\Temp/ccyH714d.s:3143   .text:00000e2c Timebase_UpCounter_SS_Set_Period_Value_Securely
C:\Users\farid\AppData\Local\Temp/ccyH714d.s:3228   .text:00000e9e Timebase_UpCounter_SS_Get_Remaining_Period_Value
C:\Users\farid\AppData\Local\Temp/ccyH714d.s:3286   .text:00000eea Timebase_UpCounter_SS_Period_Value_Expired
C:\Users\farid\AppData\Local\Temp/ccyH714d.s:3380   .text:00000f6a Timebase_UpCounter_SS_Period_Value_Expired_Event
C:\Users\farid\AppData\Local\Temp/ccyH714d.s:3436   .text:00000fac Timebase_UpCounter_SS_Update_All
C:\Users\farid\AppData\Local\Temp/ccyH714d.s:3453   .text:00000fb4 Timebase_UpCounter_SS_Reset_All
C:\Users\farid\AppData\Local\Temp/ccyH714d.s:3470   .text:00000fbc Timebase_UpCounter_Get_Status
C:\Users\farid\AppData\Local\Temp/ccyH714d.s:3504   .text:00000fe6 Timebase_UpCounter_Set_Status
C:\Users\farid\AppData\Local\Temp/ccyH714d.s:3542   .text:00001016 Timebase_UpCounter_Get_Value
C:\Users\farid\AppData\Local\Temp/ccyH714d.s:3579   .text:00001044 Timebase_UpCounter_Set_Value
C:\Users\farid\AppData\Local\Temp/ccyH714d.s:3615   .text:00001072 Timebase_UpCounter_Get_EndValue
C:\Users\farid\AppData\Local\Temp/ccyH714d.s:3658   .text:000010ac Timebase_UpCounter_Set_EndValue
C:\Users\farid\AppData\Local\Temp/ccyH714d.s:3693   .text:000010d8 Timebase_UpCounter_Get_TargetValue
C:\Users\farid\AppData\Local\Temp/ccyH714d.s:3736   .text:00001112 Timebase_UpCounter_Set_TargetValue
C:\Users\farid\AppData\Local\Temp/ccyH714d.s:3771   .text:0000113e Timebase_UpCounter_Get_TemporaryValue
C:\Users\farid\AppData\Local\Temp/ccyH714d.s:3814   .text:00001178 Timebase_UpCounter_Set_TemporaryValue
C:\Users\farid\AppData\Local\Temp/ccyH714d.s:3849   .text:000011a4 Timebase_UpCounter_Get_PeriodValue
C:\Users\farid\AppData\Local\Temp/ccyH714d.s:3887   .text:000011d4 Timebase_UpCounter_Set_PeriodValue
C:\Users\farid\AppData\Local\Temp/ccyH714d.s:3924   .text:00001204 Timebase_UpCounter_Get_Period_Flag
C:\Users\farid\AppData\Local\Temp/ccyH714d.s:3957   .text:0000122c Timebase_UpCounter_Set_Period_Flag
C:\Users\farid\AppData\Local\Temp/ccyH714d.s:3991   .text:00001256 Timebase_UpCounter_Clear_Period_Flag
C:\Users\farid\AppData\Local\Temp/ccyH714d.s:4025   .text:00001280 Timebase_UpCounter_Reset
C:\Users\farid\AppData\Local\Temp/ccyH714d.s:4118   .text:000012de Timebase_UpCounter_Clear_All_Flags
C:\Users\farid\AppData\Local\Temp/ccyH714d.s:4134   .text:000012e4 Timebase_UpCounter_Start
C:\Users\farid\AppData\Local\Temp/ccyH714d.s:4182   .text:0000131a Timebase_UpCounter_Stop
C:\Users\farid\AppData\Local\Temp/ccyH714d.s:4230   .text:00001350 Timebase_UpCounter_Set_Securely
C:\Users\farid\AppData\Local\Temp/ccyH714d.s:4381   .text:000013ec Timebase_UpCounter_Set_Forcefully
C:\Users\farid\AppData\Local\Temp/ccyH714d.s:4417   .text:00001416 Timebase_UpCounter_Update
C:\Users\farid\AppData\Local\Temp/ccyH714d.s:4677   .text:0000153e Timebase_UpCounter_Expired
C:\Users\farid\AppData\Local\Temp/ccyH714d.s:4717   .text:00001572 Timebase_UpCounter_Expired_Event
C:\Users\farid\AppData\Local\Temp/ccyH714d.s:4766   .text:000015b0 Timebase_UpCounter_Set_Period_Value_Securely
C:\Users\farid\AppData\Local\Temp/ccyH714d.s:4839   .text:0000160a Timebase_UpCounter_Get_Remaining_Period_Value
C:\Users\farid\AppData\Local\Temp/ccyH714d.s:4902   .text:00001660 Timebase_UpCounter_Period_Value_Expired
C:\Users\farid\AppData\Local\Temp/ccyH714d.s:4999   .text:000016e6 Timebase_UpCounter_Period_Value_Expired_Event
C:\Users\farid\AppData\Local\Temp/ccyH714d.s:5051   .text:00001726 Timebase_UpCounter_Update_All
C:\Users\farid\AppData\Local\Temp/ccyH714d.s:5068   .text:0000172e Timebase_UpCounter_Reset_All
C:\Users\farid\AppData\Local\Temp/ccyH714d.s:5085   .text:00001736 Timebase_DownCounter_SS_Get_Status
C:\Users\farid\AppData\Local\Temp/ccyH714d.s:5119   .text:00001760 Timebase_DownCounter_SS_Set_Status
C:\Users\farid\AppData\Local\Temp/ccyH714d.s:5157   .text:00001790 Timebase_DownCounter_SS_Get_Value
C:\Users\farid\AppData\Local\Temp/ccyH714d.s:5193   .text:000017bc Timebase_DownCounter_SS_Set_Value
C:\Users\farid\AppData\Local\Temp/ccyH714d.s:5227   .text:000017e8 Timebase_DownCounter_SS_Get_EndValueSec
C:\Users\farid\AppData\Local\Temp/ccyH714d.s:5263   .text:00001814 Timebase_DownCounter_SS_Get_EndValueSubSec
C:\Users\farid\AppData\Local\Temp/ccyH714d.s:5299   .text:00001840 Timebase_DownCounter_SS_Set_EndValueSec
C:\Users\farid\AppData\Local\Temp/ccyH714d.s:5333   .text:0000186c Timebase_DownCounter_SS_Set_EndValueSubSec
C:\Users\farid\AppData\Local\Temp/ccyH714d.s:5367   .text:00001898 Timebase_DownCounter_SS_Get_PeriodValue
C:\Users\farid\AppData\Local\Temp/ccyH714d.s:5403   .text:000018c4 Timebase_DownCounter_SS_Set_PeriodValue
C:\Users\farid\AppData\Local\Temp/ccyH714d.s:5460   .text:00001918 Timebase_DownCounter_SS_Get_Period_Flag
C:\Users\farid\AppData\Local\Temp/ccyH714d.s:5493   .text:00001940 Timebase_DownCounter_SS_Set_Period_Flag
C:\Users\farid\AppData\Local\Temp/ccyH714d.s:5527   .text:0000196a Timebase_DownCounter_SS_Clear_Period_Flag
C:\Users\farid\AppData\Local\Temp/ccyH714d.s:5561   .text:00001994 Timebase_DownCounter_SS_Reset
C:\Users\farid\AppData\Local\Temp/ccyH714d.s:5632   .text:000019da Timebase_DownCounter_SS_Clear_All_Flags
C:\Users\farid\AppData\Local\Temp/ccyH714d.s:5707   .text:00001a20 Timebase_DownCounter_SS_Start
C:\Users\farid\AppData\Local\Temp/ccyH714d.s:5755   .text:00001a56 Timebase_DownCounter_SS_Stop
C:\Users\farid\AppData\Local\Temp/ccyH714d.s:5803   .text:00001a8c Timebase_DownCounter_SS_Set_Securely
C:\Users\farid\AppData\Local\Temp/ccyH714d.s:6106   .text:00001c10 Timebase_DownCounter_SS_Set_Forcefully
C:\Users\farid\AppData\Local\Temp/ccyH714d.s:6184   .text:00001c5c Timebase_DownCounter_SS_Update
C:\Users\farid\AppData\Local\Temp/ccyH714d.s:6636   .text:00001e6e Timebase_DownCounter_SS_Expired
C:\Users\farid\AppData\Local\Temp/ccyH714d.s:6676   .text:00001ea2 Timebase_DownCounter_SS_Expired_Event
C:\Users\farid\AppData\Local\Temp/ccyH714d.s:6771   .text:00001efc Timebase_DownCounter_SS_Set_Period_Value_Securely
C:\Users\farid\AppData\Local\Temp/ccyH714d.s:6868   .text:00001f7c Timebase_DownCounter_SS_Get_Remaining_Period_Value
C:\Users\farid\AppData\Local\Temp/ccyH714d.s:6930   .text:00001fd0 Timebase_DownCounter_SS_Period_Value_Expired
C:\Users\farid\AppData\Local\Temp/ccyH714d.s:7027   .text:00002056 Timebase_DownCounter_SS_Period_Value_Expired_Event
C:\Users\farid\AppData\Local\Temp/ccyH714d.s:7079   .text:00002096 Timebase_DownCounter_SS_Update_All
C:\Users\farid\AppData\Local\Temp/ccyH714d.s:7096   .text:0000209e Timebase_DownCounter_SS_Reset_All
C:\Users\farid\AppData\Local\Temp/ccyH714d.s:7160   .text:000020ce Timebase_DownCounter_Get_Status
C:\Users\farid\AppData\Local\Temp/ccyH714d.s:7196   .text:000020fc Timebase_DownCounter_Set_Status
C:\Users\farid\AppData\Local\Temp/ccyH714d.s:7236   .text:00002130 Timebase_DownCounter_Get_Value
C:\Users\farid\AppData\Local\Temp/ccyH714d.s:7274   .text:00002160 Timebase_DownCounter_Set_Value
C:\Users\farid\AppData\Local\Temp/ccyH714d.s:7311   .text:00002190 Timebase_DownCounter_Get_EndValue
C:\Users\farid\AppData\Local\Temp/ccyH714d.s:7349   .text:000021c0 Timebase_DownCounter_Set_EndValue
C:\Users\farid\AppData\Local\Temp/ccyH714d.s:7386   .text:000021f0 Timebase_DownCounter_Get_PeriodValue
C:\Users\farid\AppData\Local\Temp/ccyH714d.s:7424   .text:00002220 Timebase_DownCounter_Set_PeriodValue
C:\Users\farid\AppData\Local\Temp/ccyH714d.s:7486   .text:0000227c Timebase_DownCounter_Get_Period_Flag
C:\Users\farid\AppData\Local\Temp/ccyH714d.s:7521   .text:000022a8 Timebase_DownCounter_Set_Period_Flag
C:\Users\farid\AppData\Local\Temp/ccyH714d.s:7557   .text:000022d6 Timebase_DownCounter_Clear_Period_Flag
C:\Users\farid\AppData\Local\Temp/ccyH714d.s:7593   .text:00002304 Timebase_DownCounter_Reset
C:\Users\farid\AppData\Local\Temp/ccyH714d.s:7656   .text:00002344 Timebase_DownCounter_Clear_All_Flags
C:\Users\farid\AppData\Local\Temp/ccyH714d.s:7723   .text:00002384 Timebase_DownCounter_Start
C:\Users\farid\AppData\Local\Temp/ccyH714d.s:7773   .text:000023be Timebase_DownCounter_Stop
C:\Users\farid\AppData\Local\Temp/ccyH714d.s:7823   .text:000023f8 Timebase_DownCounter_Set_Securely
C:\Users\farid\AppData\Local\Temp/ccyH714d.s:7962   .text:00002490 Timebase_DownCounter_Set_Forcefully
C:\Users\farid\AppData\Local\Temp/ccyH714d.s:8036   .text:000024de Timebase_DownCounter_Update
C:\Users\farid\AppData\Local\Temp/ccyH714d.s:8262   .text:000025ce Timebase_DownCounter_Expired
C:\Users\farid\AppData\Local\Temp/ccyH714d.s:8304   .text:00002606 Timebase_DownCounter_Expired_Event
C:\Users\farid\AppData\Local\Temp/ccyH714d.s:8391   .text:0000265a Timebase_DownCounter_Set_Period_Value_Securely
C:\Users\farid\AppData\Local\Temp/ccyH714d.s:8490   .text:000026de Timebase_DownCounter_Get_Remaining_Period_Value
C:\Users\farid\AppData\Local\Temp/ccyH714d.s:8554   .text:00002736 Timebase_DownCounter_Period_Value_Expired
C:\Users\farid\AppData\Local\Temp/ccyH714d.s:8654   .text:000027c2 Timebase_DownCounter_Period_Value_Expired_Event
C:\Users\farid\AppData\Local\Temp/ccyH714d.s:8708   .text:00002806 Timebase_DownCounter_Update_All
C:\Users\farid\AppData\Local\Temp/ccyH714d.s:8725   .text:0000280e Timebase_DownCounter_Reset_All
C:\Users\farid\AppData\Local\Temp/ccyH714d.s:8779   .text:00002834 Timebase_Reset
C:\Users\farid\AppData\Local\Temp/ccyH714d.s:8797   .text:00002842 Timebase_Init
C:\Users\farid\AppData\Local\Temp/ccyH714d.s:8824   .text:0000285c Timebase_Main_Loop_Executables
C:\Users\farid\AppData\Local\Temp/ccyH714d.s:8888   .text:000028ca Timebase_ISR_Executables
C:\Users\farid\AppData\Local\Temp/ccyH714d.s:8946   .text:00002920 __vector_16

UNDEFINED SYMBOLS
__divmodsi4
__mulsi3
__udivmodhi4
__do_copy_data
__do_clear_bss
