   1               		.file	"timebase.c"
   2               	__SREG__ = 0x3f
   3               	__SP_H__ = 0x3e
   4               	__SP_L__ = 0x3d
   5               	__CCP__  = 0x34
   6               	__tmp_reg__ = 0
   7               	__zero_reg__ = 1
  15               	.Ltext0:
  16               	.global	Timebase_Struct_Init
  18               	Timebase_Struct_Init:
  19               	.LFB6:
  20               	.LM1:
  21               	/* prologue: function */
  22               	/* frame size = 0 */
  23               	.LM2:
  24 0000 80E0      		ldi r24,lo8(Timebase_type)
  25 0002 90E0      		ldi r25,hi8(Timebase_type)
  26 0004 9093 0000 		sts (Timebase)+1,r25
  27 0008 8093 0000 		sts Timebase,r24
  28               	.LM3:
  29 000c 81E0      		ldi r24,lo8(1)
  30 000e 90E0      		ldi r25,hi8(1)
  31 0010 9093 0000 		sts (Timebase_type)+1,r25
  32 0014 8093 0000 		sts Timebase_type,r24
  33               	.LM4:
  34 0018 1092 0000 		sts Timebase_type+4,__zero_reg__
  35               	.LM5:
  36 001c 1092 0000 		sts (Timebase_type+15)+1,__zero_reg__
  37 0020 1092 0000 		sts Timebase_type+15,__zero_reg__
  38               	.LM6:
  39 0024 1092 0000 		sts Timebase_type+17,__zero_reg__
  40 0028 1092 0000 		sts (Timebase_type+17)+1,__zero_reg__
  41 002c 1092 0000 		sts (Timebase_type+17)+2,__zero_reg__
  42 0030 1092 0000 		sts (Timebase_type+17)+3,__zero_reg__
  43               	.LM7:
  44 0034 1092 0000 		sts (Timebase_type+9)+1,__zero_reg__
  45 0038 1092 0000 		sts Timebase_type+9,__zero_reg__
  46               	.LM8:
  47 003c 1092 0000 		sts Timebase_type+11,__zero_reg__
  48 0040 1092 0000 		sts (Timebase_type+11)+1,__zero_reg__
  49 0044 1092 0000 		sts (Timebase_type+11)+2,__zero_reg__
  50 0048 1092 0000 		sts (Timebase_type+11)+3,__zero_reg__
  51               	.LM9:
  52 004c 1092 0000 		sts Timebase_type+21,__zero_reg__
  53               	.LM10:
  54 0050 1092 0000 		sts Timebase_type+5,__zero_reg__
  55 0054 1092 0000 		sts (Timebase_type+5)+1,__zero_reg__
  56 0058 1092 0000 		sts (Timebase_type+5)+2,__zero_reg__
  57 005c 1092 0000 		sts (Timebase_type+5)+3,__zero_reg__
  58               	.LM11:
  59 0060 1092 0000 		sts (Timebase_type+22)+1,__zero_reg__
  60 0064 1092 0000 		sts Timebase_type+22,__zero_reg__
  61               	.LM12:
  62 0068 1092 0000 		sts Timebase_type+24,__zero_reg__
  63 006c 1092 0000 		sts (Timebase_type+24)+1,__zero_reg__
  64 0070 1092 0000 		sts (Timebase_type+24)+2,__zero_reg__
  65 0074 1092 0000 		sts (Timebase_type+24)+3,__zero_reg__
  66               	.LM13:
  67 0078 9093 0000 		sts (Timebase_type+2)+1,r25
  68 007c 8093 0000 		sts Timebase_type+2,r24
  69               	.LM14:
  70 0080 1092 0000 		sts Timebase_type+28,__zero_reg__
  71               	.LBB711:
  72               	.LM15:
  73 0084 1092 0000 		sts Timebase_type+54,__zero_reg__
  74               	.LM16:
  75 0088 1092 0000 		sts Timebase_type+55,__zero_reg__
  76 008c 1092 0000 		sts (Timebase_type+55)+1,__zero_reg__
  77 0090 1092 0000 		sts (Timebase_type+55)+2,__zero_reg__
  78 0094 1092 0000 		sts (Timebase_type+55)+3,__zero_reg__
  79               	.LM17:
  80 0098 1092 0000 		sts Timebase_type+59,__zero_reg__
  81 009c 1092 0000 		sts (Timebase_type+59)+1,__zero_reg__
  82 00a0 1092 0000 		sts (Timebase_type+59)+2,__zero_reg__
  83 00a4 1092 0000 		sts (Timebase_type+59)+3,__zero_reg__
  84               	.LM18:
  85 00a8 1092 0000 		sts Timebase_type+63,__zero_reg__
  86 00ac 1092 0000 		sts (Timebase_type+63)+1,__zero_reg__
  87 00b0 1092 0000 		sts (Timebase_type+63)+2,__zero_reg__
  88 00b4 1092 0000 		sts (Timebase_type+63)+3,__zero_reg__
  89               	.LM19:
  90 00b8 1092 0000 		sts Timebase_type+67,__zero_reg__
  91 00bc 1092 0000 		sts (Timebase_type+67)+1,__zero_reg__
  92 00c0 1092 0000 		sts (Timebase_type+67)+2,__zero_reg__
  93 00c4 1092 0000 		sts (Timebase_type+67)+3,__zero_reg__
  94               	.LM20:
  95 00c8 1092 0000 		sts Timebase_type+71,__zero_reg__
  96 00cc 1092 0000 		sts (Timebase_type+71)+1,__zero_reg__
  97 00d0 1092 0000 		sts (Timebase_type+71)+2,__zero_reg__
  98 00d4 1092 0000 		sts (Timebase_type+71)+3,__zero_reg__
  99               	.LBE711:
 100               	.LBB712:
 101               	.LM21:
 102 00d8 1092 0000 		sts Timebase_type+29,__zero_reg__
 103               	.LM22:
 104 00dc 1092 0000 		sts Timebase_type+30,__zero_reg__
 105 00e0 1092 0000 		sts (Timebase_type+30)+1,__zero_reg__
 106 00e4 1092 0000 		sts (Timebase_type+30)+2,__zero_reg__
 107 00e8 1092 0000 		sts (Timebase_type+30)+3,__zero_reg__
 108               	.LM23:
 109 00ec 1092 0000 		sts Timebase_type+34,__zero_reg__
 110 00f0 1092 0000 		sts (Timebase_type+34)+1,__zero_reg__
 111 00f4 1092 0000 		sts (Timebase_type+34)+2,__zero_reg__
 112 00f8 1092 0000 		sts (Timebase_type+34)+3,__zero_reg__
 113               	.LM24:
 114 00fc 1092 0000 		sts Timebase_type+38,__zero_reg__
 115 0100 1092 0000 		sts (Timebase_type+38)+1,__zero_reg__
 116 0104 1092 0000 		sts (Timebase_type+38)+2,__zero_reg__
 117 0108 1092 0000 		sts (Timebase_type+38)+3,__zero_reg__
 118               	.LM25:
 119 010c 1092 0000 		sts Timebase_type+42,__zero_reg__
 120 0110 1092 0000 		sts (Timebase_type+42)+1,__zero_reg__
 121 0114 1092 0000 		sts (Timebase_type+42)+2,__zero_reg__
 122 0118 1092 0000 		sts (Timebase_type+42)+3,__zero_reg__
 123               	.LM26:
 124 011c 1092 0000 		sts Timebase_type+46,__zero_reg__
 125 0120 1092 0000 		sts (Timebase_type+46)+1,__zero_reg__
 126 0124 1092 0000 		sts (Timebase_type+46)+2,__zero_reg__
 127 0128 1092 0000 		sts (Timebase_type+46)+3,__zero_reg__
 128               	.LM27:
 129 012c 1092 0000 		sts Timebase_type+50,__zero_reg__
 130 0130 1092 0000 		sts (Timebase_type+50)+1,__zero_reg__
 131 0134 1092 0000 		sts (Timebase_type+50)+2,__zero_reg__
 132 0138 1092 0000 		sts (Timebase_type+50)+3,__zero_reg__
 133               	.LBE712:
 134               	.LBB713:
 135               	.LM28:
 136 013c 1092 0000 		sts Timebase_type+92,__zero_reg__
 137               	.LM29:
 138 0140 1092 0000 		sts Timebase_type+93,__zero_reg__
 139 0144 1092 0000 		sts (Timebase_type+93)+1,__zero_reg__
 140 0148 1092 0000 		sts (Timebase_type+93)+2,__zero_reg__
 141 014c 1092 0000 		sts (Timebase_type+93)+3,__zero_reg__
 142               	.LM30:
 143 0150 1092 0000 		sts Timebase_type+97,__zero_reg__
 144 0154 1092 0000 		sts (Timebase_type+97)+1,__zero_reg__
 145 0158 1092 0000 		sts (Timebase_type+97)+2,__zero_reg__
 146 015c 1092 0000 		sts (Timebase_type+97)+3,__zero_reg__
 147               	.LM31:
 148 0160 1092 0000 		sts Timebase_type+101,__zero_reg__
 149 0164 1092 0000 		sts (Timebase_type+101)+1,__zero_reg__
 150 0168 1092 0000 		sts (Timebase_type+101)+2,__zero_reg__
 151 016c 1092 0000 		sts (Timebase_type+101)+3,__zero_reg__
 152               	.LBE713:
 153               	.LBB714:
 154               	.LM32:
 155 0170 1092 0000 		sts Timebase_type+75,__zero_reg__
 156               	.LM33:
 157 0174 1092 0000 		sts Timebase_type+76,__zero_reg__
 158 0178 1092 0000 		sts (Timebase_type+76)+1,__zero_reg__
 159 017c 1092 0000 		sts (Timebase_type+76)+2,__zero_reg__
 160 0180 1092 0000 		sts (Timebase_type+76)+3,__zero_reg__
 161               	.LM34:
 162 0184 1092 0000 		sts Timebase_type+80,__zero_reg__
 163 0188 1092 0000 		sts (Timebase_type+80)+1,__zero_reg__
 164 018c 1092 0000 		sts (Timebase_type+80)+2,__zero_reg__
 165 0190 1092 0000 		sts (Timebase_type+80)+3,__zero_reg__
 166               	.LM35:
 167 0194 1092 0000 		sts Timebase_type+84,__zero_reg__
 168 0198 1092 0000 		sts (Timebase_type+84)+1,__zero_reg__
 169 019c 1092 0000 		sts (Timebase_type+84)+2,__zero_reg__
 170 01a0 1092 0000 		sts (Timebase_type+84)+3,__zero_reg__
 171               	.LM36:
 172 01a4 1092 0000 		sts Timebase_type+88,__zero_reg__
 173 01a8 1092 0000 		sts (Timebase_type+88)+1,__zero_reg__
 174 01ac 1092 0000 		sts (Timebase_type+88)+2,__zero_reg__
 175 01b0 1092 0000 		sts (Timebase_type+88)+3,__zero_reg__
 176               	.LBE714:
 177               	.LBB715:
 178               	.LM37:
 179 01b4 1092 0000 		sts Timebase_type+105,__zero_reg__
 180               	.LM38:
 181 01b8 1092 0000 		sts Timebase_type+106,__zero_reg__
 182 01bc 1092 0000 		sts (Timebase_type+106)+1,__zero_reg__
 183 01c0 1092 0000 		sts (Timebase_type+106)+2,__zero_reg__
 184 01c4 1092 0000 		sts (Timebase_type+106)+3,__zero_reg__
 185               	.LM39:
 186 01c8 1092 0000 		sts Timebase_type+110,__zero_reg__
 187 01cc 1092 0000 		sts (Timebase_type+110)+1,__zero_reg__
 188 01d0 1092 0000 		sts (Timebase_type+110)+2,__zero_reg__
 189 01d4 1092 0000 		sts (Timebase_type+110)+3,__zero_reg__
 190               	.LM40:
 191 01d8 1092 0000 		sts Timebase_type+114,__zero_reg__
 192 01dc 1092 0000 		sts (Timebase_type+114)+1,__zero_reg__
 193 01e0 1092 0000 		sts (Timebase_type+114)+2,__zero_reg__
 194 01e4 1092 0000 		sts (Timebase_type+114)+3,__zero_reg__
 195               	/* epilogue start */
 196               	.LBE715:
 197               	.LM41:
 198 01e8 0895      		ret
 199               	.LFE6:
 201               	.global	Timebase_Timer_Config
 203               	Timebase_Timer_Config:
 204               	.LFB7:
 205               	.LM42:
 206               	.LVL0:
 207 01ea 8F92      		push r8
 208 01ec 9F92      		push r9
 209 01ee BF92      		push r11
 210 01f0 CF92      		push r12
 211 01f2 DF92      		push r13
 212 01f4 EF92      		push r14
 213 01f6 FF92      		push r15
 214 01f8 0F93      		push r16
 215 01fa 1F93      		push r17
 216 01fc DF93      		push r29
 217 01fe CF93      		push r28
 218 0200 CDB7      		in r28,__SP_L__
 219 0202 DEB7      		in r29,__SP_H__
 220 0204 2A97      		sbiw r28,10
 221 0206 0FB6      		in __tmp_reg__,__SREG__
 222 0208 F894      		cli
 223 020a DEBF      		out __SP_H__,r29
 224 020c 0FBE      		out __SREG__,__tmp_reg__
 225 020e CDBF      		out __SP_L__,r28
 226               	/* prologue: function */
 227               	/* frame size = 10 */
 228 0210 4C01      		movw r8,r24
 229               	.LM43:
 230 0212 DE01      		movw r26,r28
 231 0214 1196      		adiw r26,1
 232 0216 E0E0      		ldi r30,lo8(C.1.1765)
 233 0218 F0E0      		ldi r31,hi8(C.1.1765)
 234 021a 8AE0      		ldi r24,lo8(10)
 235               	.LVL1:
 236               	.L4:
 237 021c 0190      		ld r0,Z+
 238 021e 0D92      		st X+,r0
 239 0220 8150      		subi r24,lo8(-(-1))
 240 0222 01F4      		brne .L4
 241               	.LM44:
 242 0224 9401      		movw r18,r8
 243 0226 40E0      		ldi r20,lo8(0)
 244 0228 50E0      		ldi r21,hi8(0)
 245               	.LVL2:
 246 022a 60E0      		ldi r22,lo8(12000000)
 247 022c 7BE1      		ldi r23,hi8(12000000)
 248 022e 87EB      		ldi r24,hlo8(12000000)
 249 0230 90E0      		ldi r25,hhi8(12000000)
 250 0232 0E94 0000 		call __divmodsi4
 251 0236 B22E      		mov r11,r18
 252 0238 C32E      		mov r12,r19
 253 023a D42E      		mov r13,r20
 254               	.LVL3:
 255 023c 052F      		mov r16,r21
 256 023e 7E01      		movw r14,r28
 257 0240 0894      		sec
 258 0242 E11C      		adc r14,__zero_reg__
 259 0244 F11C      		adc r15,__zero_reg__
 260 0246 C901      		movw r24,r18
 261 0248 DA01      		movw r26,r20
 262 024a 9C01      		movw r18,r24
 263 024c AD01      		movw r20,r26
 264               	.LVL4:
 265 024e 10E0      		ldi r17,lo8(0)
 266               	.LVL5:
 267 0250 00C0      		rjmp .L5
 268               	.LVL6:
 269               	.L7:
 270               	.LM45:
 271 0252 F701      		movw r30,r14
 272 0254 2191      		ld r18,Z+
 273 0256 3191      		ld r19,Z+
 274               	.LVL7:
 275 0258 7F01      		movw r14,r30
 276 025a 40E0      		ldi r20,lo8(0)
 277 025c 50E0      		ldi r21,hi8(0)
 278 025e 6B2D      		mov r22,r11
 279 0260 7C2D      		mov r23,r12
 280 0262 8D2D      		mov r24,r13
 281               	.LVL8:
 282 0264 902F      		mov r25,r16
 283 0266 0E94 0000 		call __divmodsi4
 284 026a C901      		movw r24,r18
 285 026c DA01      		movw r26,r20
 286 026e 9C01      		movw r18,r24
 287 0270 AD01      		movw r20,r26
 288               	.LVL9:
 289               	.LM46:
 290 0272 1F5F      		subi r17,lo8(-(1))
 291               	.LM47:
 292 0274 1530      		cpi r17,lo8(5)
 293 0276 01F0      		breq .L6
 294               	.LVL10:
 295               	.L5:
 296               	.LM48:
 297 0278 2F3F      		cpi r18,lo8(255)
 298 027a 3105      		cpc r19,__zero_reg__
 299 027c 4105      		cpc r20,__zero_reg__
 300 027e 5105      		cpc r21,__zero_reg__
 301 0280 01F0      		breq .+2
 302 0282 04F4      		brge .L7
 303               	.L6:
 304               	.LM49:
 305 0284 812F      		mov r24,r17
 306 0286 8150      		subi r24,lo8(-(-1))
 307               	.LVL11:
 308               	.LM50:
 309 0288 14BC      		out 68-32,__zero_reg__
 310               	.LM51:
 311 028a 15BC      		out 69-32,__zero_reg__
 312               	.LM52:
 313 028c 1092 6E00 		sts 110,__zero_reg__
 314               	.LM53:
 315 0290 15BA      		out 53-32,__zero_reg__
 316               	.LM54:
 317 0292 17BC      		out 71-32,__zero_reg__
 318               	.LM55:
 319 0294 18BC      		out 72-32,__zero_reg__
 320               	.LM56:
 321 0296 16BC      		out 70-32,__zero_reg__
 322               	.LM57:
 323 0298 17BC      		out 71-32,__zero_reg__
 324               	.LM58:
 325 029a 8823      		tst r24
 326 029c 01F4      		brne .L8
 327               	.LM59:
 328 029e 81E0      		ldi r24,lo8(1)
 329               	.LVL12:
 330 02a0 00C0      		rjmp .L15
 331               	.LVL13:
 332               	.L8:
 333               	.LM60:
 334 02a2 8130      		cpi r24,lo8(1)
 335 02a4 01F4      		brne .L10
 336               	.LM61:
 337 02a6 82E0      		ldi r24,lo8(2)
 338               	.LVL14:
 339 02a8 00C0      		rjmp .L15
 340               	.LVL15:
 341               	.L10:
 342               	.LM62:
 343 02aa 8230      		cpi r24,lo8(2)
 344 02ac 01F4      		brne .L11
 345               	.LM63:
 346 02ae 83E0      		ldi r24,lo8(3)
 347               	.LVL16:
 348 02b0 00C0      		rjmp .L15
 349               	.LVL17:
 350               	.L11:
 351               	.LM64:
 352 02b2 8330      		cpi r24,lo8(3)
 353 02b4 01F4      		brne .L12
 354               	.LM65:
 355 02b6 84E0      		ldi r24,lo8(4)
 356               	.LVL18:
 357 02b8 00C0      		rjmp .L15
 358               	.LVL19:
 359               	.L12:
 360               	.LM66:
 361 02ba 8430      		cpi r24,lo8(4)
 362 02bc 01F4      		brne .L9
 363               	.LM67:
 364 02be 85E0      		ldi r24,lo8(5)
 365               	.LVL20:
 366               	.L15:
 367 02c0 85BD      		out 69-32,r24
 368               	.LVL21:
 369               	.L9:
 370               	.LM68:
 371 02c2 E091 0000 		lds r30,Timebase
 372 02c6 F091 0000 		lds r31,(Timebase)+1
 373 02ca 822F      		mov r24,r18
 374               	.LVL22:
 375 02cc 8095      		com r24
 376 02ce 8483      		std Z+4,r24
 377               	.LM69:
 378 02d0 8481      		ldd r24,Z+4
 379 02d2 86BD      		out 70-32,r24
 380               	.LM70:
 381 02d4 81E0      		ldi r24,lo8(1)
 382 02d6 8093 6E00 		sts 110,r24
 383               	.LM71:
 384               	/* #APP */
 385               	 ;  323 "timebase.c" 1
 386 02da 7894      		sei
 387               	 ;  0 "" 2
 388               	.LM72:
 389               	/* #NOAPP */
 390 02dc 9182      		std Z+1,r9
 391 02de 8082      		st Z,r8
 392               	/* epilogue start */
 393               	.LM73:
 394 02e0 2A96      		adiw r28,10
 395 02e2 0FB6      		in __tmp_reg__,__SREG__
 396 02e4 F894      		cli
 397 02e6 DEBF      		out __SP_H__,r29
 398 02e8 0FBE      		out __SREG__,__tmp_reg__
 399 02ea CDBF      		out __SP_L__,r28
 400 02ec CF91      		pop r28
 401 02ee DF91      		pop r29
 402 02f0 1F91      		pop r17
 403 02f2 0F91      		pop r16
 404 02f4 FF90      		pop r15
 405 02f6 EF90      		pop r14
 406 02f8 DF90      		pop r13
 407 02fa CF90      		pop r12
 408 02fc BF90      		pop r11
 409 02fe 9F90      		pop r9
 410 0300 8F90      		pop r8
 411               	.LVL23:
 412 0302 0895      		ret
 413               	.LFE7:
 415               	.global	Timebase_LPTimer_Config
 417               	Timebase_LPTimer_Config:
 418               	.LFB8:
 419               	.LM74:
 420               	.LVL24:
 421               	/* prologue: function */
 422               	/* frame size = 0 */
 423 0304 9C01      		movw r18,r24
 424               	.LM75:
 425 0306 8130      		cpi r24,1
 426 0308 9105      		cpc r25,__zero_reg__
 427 030a 01F4      		brne .L17
 428 030c 96E0      		ldi r25,lo8(6)
 429               	.LVL25:
 430 030e 00C0      		rjmp .L18
 431               	.LVL26:
 432               	.L17:
 433               	.LM76:
 434 0310 8230      		cpi r24,2
 435 0312 9105      		cpc r25,__zero_reg__
 436 0314 01F4      		brne .L19
 437 0316 95E0      		ldi r25,lo8(5)
 438               	.LVL27:
 439 0318 00C0      		rjmp .L18
 440               	.LVL28:
 441               	.L19:
 442               	.LM77:
 443 031a 8430      		cpi r24,4
 444 031c 9105      		cpc r25,__zero_reg__
 445 031e 01F4      		brne .L20
 446 0320 94E0      		ldi r25,lo8(4)
 447               	.LVL29:
 448 0322 00C0      		rjmp .L18
 449               	.LVL30:
 450               	.L20:
 451               	.LM78:
 452 0324 8830      		cpi r24,8
 453 0326 9105      		cpc r25,__zero_reg__
 454 0328 01F4      		brne .L21
 455 032a 93E0      		ldi r25,lo8(3)
 456               	.LVL31:
 457 032c 00C0      		rjmp .L18
 458               	.LVL32:
 459               	.L21:
 460               	.LM79:
 461 032e 8031      		cpi r24,16
 462 0330 9105      		cpc r25,__zero_reg__
 463 0332 01F4      		brne .L22
 464 0334 92E0      		ldi r25,lo8(2)
 465               	.LVL33:
 466 0336 00C0      		rjmp .L18
 467               	.LVL34:
 468               	.L22:
 469 0338 90E0      		ldi r25,lo8(0)
 470               	.LVL35:
 471 033a 2032      		cpi r18,32
 472 033c 3105      		cpc r19,__zero_reg__
 473 033e 01F4      		brne .L18
 474               	.LVL36:
 475 0340 91E0      		ldi r25,lo8(1)
 476               	.L18:
 477               	.LM80:
 478               	/* #APP */
 479               	 ;  351 "timebase.c" 1
 480 0342 F894      		cli
 481               	 ;  0 "" 2
 482               	.LM81:
 483               	/* #NOAPP */
 484 0344 84B7      		in r24,84-32
 485 0346 877F      		andi r24,lo8(-9)
 486 0348 84BF      		out 84-32,r24
 487               	.LM82:
 488 034a 8091 6000 		lds r24,96
 489 034e 8068      		ori r24,lo8(-128)
 490 0350 8093 6000 		sts 96,r24
 491               	.LM83:
 492 0354 8091 6000 		lds r24,96
 493 0358 8861      		ori r24,lo8(24)
 494 035a 8093 6000 		sts 96,r24
 495               	.LM84:
 496 035e 9064      		ori r25,lo8(64)
 497 0360 9093 6000 		sts 96,r25
 498               	.LM85:
 499               	/* #APP */
 500               	 ;  356 "timebase.c" 1
 501 0364 7894      		sei
 502               	 ;  0 "" 2
 503               	.LM86:
 504               	/* #NOAPP */
 505 0366 E091 0000 		lds r30,Timebase
 506 036a F091 0000 		lds r31,(Timebase)+1
 507 036e 3383      		std Z+3,r19
 508 0370 2283      		std Z+2,r18
 509               	/* epilogue start */
 510               	.LM87:
 511 0372 0895      		ret
 512               	.LFE8:
 514               	.global	Timebase_Atomic_Operation_Start
 516               	Timebase_Atomic_Operation_Start:
 517               	.LFB9:
 518               	.LM88:
 519               	/* prologue: function */
 520               	/* frame size = 0 */
 521               	.LM89:
 522               	/* #APP */
 523               	 ;  376 "timebase.c" 1
 524 0374 F894      		cli
 525               	 ;  0 "" 2
 526               	/* epilogue start */
 527               	.LM90:
 528               	/* #NOAPP */
 529 0376 0895      		ret
 530               	.LFE9:
 532               	.global	Timebase_Atomic_Operation_End
 534               	Timebase_Atomic_Operation_End:
 535               	.LFB10:
 536               	.LM91:
 537               	/* prologue: function */
 538               	/* frame size = 0 */
 539               	.LM92:
 540               	/* #APP */
 541               	 ;  381 "timebase.c" 1
 542 0378 7894      		sei
 543               	 ;  0 "" 2
 544               	/* epilogue start */
 545               	.LM93:
 546               	/* #NOAPP */
 547 037a 0895      		ret
 548               	.LFE10:
 550               	.global	Timebase_Timer_Get_SubSecondsShadow
 552               	Timebase_Timer_Get_SubSecondsShadow:
 553               	.LFB13:
 554               	.LM94:
 555               	/* prologue: function */
 556               	/* frame size = 0 */
 557               	.LM95:
 558 037c E091 0000 		lds r30,Timebase
 559 0380 F091 0000 		lds r31,(Timebase)+1
 560 0384 2785      		ldd r18,Z+15
 561 0386 3089      		ldd r19,Z+16
 562               	.LM96:
 563 0388 C901      		movw r24,r18
 564               	/* epilogue start */
 565 038a 0895      		ret
 566               	.LFE13:
 568               	.global	Timebase_Timer_Get_SecondsShadow
 570               	Timebase_Timer_Get_SecondsShadow:
 571               	.LFB14:
 572               	.LM97:
 573               	/* prologue: function */
 574               	/* frame size = 0 */
 575               	.LM98:
 576 038c E091 0000 		lds r30,Timebase
 577 0390 F091 0000 		lds r31,(Timebase)+1
 578 0394 2189      		ldd r18,Z+17
 579 0396 3289      		ldd r19,Z+18
 580 0398 4389      		ldd r20,Z+19
 581 039a 5489      		ldd r21,Z+20
 582               	.LM99:
 583 039c B901      		movw r22,r18
 584 039e CA01      		movw r24,r20
 585               	/* epilogue start */
 586 03a0 0895      		ret
 587               	.LFE14:
 589               	.global	Timebase_Timer_Get_SubSeconds
 591               	Timebase_Timer_Get_SubSeconds:
 592               	.LFB15:
 593               	.LM100:
 594               	/* prologue: function */
 595               	/* frame size = 0 */
 596               	.LM101:
 597 03a2 E091 0000 		lds r30,Timebase
 598 03a6 F091 0000 		lds r31,(Timebase)+1
 599 03aa 2185      		ldd r18,Z+9
 600 03ac 3285      		ldd r19,Z+10
 601               	.LM102:
 602 03ae C901      		movw r24,r18
 603               	/* epilogue start */
 604 03b0 0895      		ret
 605               	.LFE15:
 607               	.global	Timebase_Timer_Get_Seconds
 609               	Timebase_Timer_Get_Seconds:
 610               	.LFB16:
 611               	.LM103:
 612               	/* prologue: function */
 613               	/* frame size = 0 */
 614               	.LM104:
 615 03b2 E091 0000 		lds r30,Timebase
 616 03b6 F091 0000 		lds r31,(Timebase)+1
 617 03ba 2385      		ldd r18,Z+11
 618 03bc 3485      		ldd r19,Z+12
 619 03be 4585      		ldd r20,Z+13
 620 03c0 5685      		ldd r21,Z+14
 621               	.LM105:
 622 03c2 B901      		movw r22,r18
 623 03c4 CA01      		movw r24,r20
 624               	/* epilogue start */
 625 03c6 0895      		ret
 626               	.LFE16:
 628               	.global	Timebase_Timer_Set_SubSeconds
 630               	Timebase_Timer_Set_SubSeconds:
 631               	.LFB17:
 632               	.LM106:
 633               	.LVL37:
 634               	/* prologue: function */
 635               	/* frame size = 0 */
 636               	.LM107:
 637 03c8 E091 0000 		lds r30,Timebase
 638 03cc F091 0000 		lds r31,(Timebase)+1
 639 03d0 9287      		std Z+10,r25
 640 03d2 8187      		std Z+9,r24
 641               	/* epilogue start */
 642               	.LM108:
 643 03d4 0895      		ret
 644               	.LFE17:
 646               	.global	Timebase_Timer_Set_Seconds
 648               	Timebase_Timer_Set_Seconds:
 649               	.LFB18:
 650               	.LM109:
 651               	.LVL38:
 652               	/* prologue: function */
 653               	/* frame size = 0 */
 654               	.LM110:
 655 03d6 E091 0000 		lds r30,Timebase
 656 03da F091 0000 		lds r31,(Timebase)+1
 657 03de 6387      		std Z+11,r22
 658 03e0 7487      		std Z+12,r23
 659 03e2 8587      		std Z+13,r24
 660 03e4 9687      		std Z+14,r25
 661               	/* epilogue start */
 662               	.LM111:
 663 03e6 0895      		ret
 664               	.LFE18:
 666               	.global	Timebase_Timer_Sync_With_Shadow_Variables
 668               	Timebase_Timer_Sync_With_Shadow_Variables:
 669               	.LFB19:
 670               	.LM112:
 671               	/* prologue: function */
 672               	/* frame size = 0 */
 673               	.LM113:
 674 03e8 E091 0000 		lds r30,Timebase
 675 03ec F091 0000 		lds r31,(Timebase)+1
 676 03f0 8589      		ldd r24,Z+21
 677 03f2 8823      		tst r24
 678 03f4 01F4      		brne .L43
 679               	.LBB716:
 680               	.LBB717:
 681               	.LM114:
 682               	/* #APP */
 683               	 ;  376 "timebase.c" 1
 684 03f6 F894      		cli
 685               	 ;  0 "" 2
 686               	/* #NOAPP */
 687               	.LBE717:
 688               	.LBE716:
 689               	.LM115:
 690 03f8 8785      		ldd r24,Z+15
 691 03fa 9089      		ldd r25,Z+16
 692 03fc 9287      		std Z+10,r25
 693 03fe 8187      		std Z+9,r24
 694               	.LM116:
 695 0400 8189      		ldd r24,Z+17
 696 0402 9289      		ldd r25,Z+18
 697 0404 A389      		ldd r26,Z+19
 698 0406 B489      		ldd r27,Z+20
 699 0408 8387      		std Z+11,r24
 700 040a 9487      		std Z+12,r25
 701 040c A587      		std Z+13,r26
 702 040e B687      		std Z+14,r27
 703               	.LBB718:
 704               	.LBB719:
 705               	.LM117:
 706               	/* #APP */
 707               	 ;  381 "timebase.c" 1
 708 0410 7894      		sei
 709               	 ;  0 "" 2
 710               	/* #NOAPP */
 711               	.LBE719:
 712               	.LBE718:
 713               	.LM118:
 714 0412 81E0      		ldi r24,lo8(1)
 715 0414 858B      		std Z+21,r24
 716               	.L43:
 717 0416 0895      		ret
 718               	.LFE19:
 720               	.global	Timebase_Timer_Delay_SubSeconds
 722               	Timebase_Timer_Delay_SubSeconds:
 723               	.LFB20:
 724               	.LM119:
 725               	.LVL39:
 726 0418 6F92      		push r6
 727 041a 7F92      		push r7
 728 041c 8F92      		push r8
 729 041e 9F92      		push r9
 730 0420 AF92      		push r10
 731 0422 BF92      		push r11
 732 0424 CF92      		push r12
 733 0426 DF92      		push r13
 734 0428 EF92      		push r14
 735 042a FF92      		push r15
 736 042c 0F93      		push r16
 737 042e 1F93      		push r17
 738 0430 CF93      		push r28
 739 0432 DF93      		push r29
 740               	/* prologue: function */
 741               	/* frame size = 0 */
 742 0434 5C01      		movw r10,r24
 743               	.LBB720:
 744               	.LBB721:
 745               	.LM120:
 746               	/* #APP */
 747               	 ;  376 "timebase.c" 1
 748 0436 F894      		cli
 749               	 ;  0 "" 2
 750               	/* #NOAPP */
 751               	.LBE721:
 752               	.LBE720:
 753               	.LBB722:
 754               	.LBB723:
 755               	.LM121:
 756 0438 C091 0000 		lds r28,Timebase
 757 043c D091 0000 		lds r29,(Timebase)+1
 758 0440 EF84      		ldd r14,Y+15
 759 0442 F888      		ldd r15,Y+16
 760               	.LBE723:
 761               	.LBE722:
 762               	.LBB724:
 763               	.LBB725:
 764               	.LM122:
 765 0444 2989      		ldd r18,Y+17
 766 0446 3A89      		ldd r19,Y+18
 767 0448 4B89      		ldd r20,Y+19
 768 044a 5C89      		ldd r21,Y+20
 769               	.LVL40:
 770               	.LBE725:
 771               	.LBE724:
 772               	.LBB726:
 773               	.LBB727:
 774               	.LM123:
 775               	/* #APP */
 776               	 ;  381 "timebase.c" 1
 777 044c 7894      		sei
 778               	 ;  0 "" 2
 779               	/* #NOAPP */
 780               	.LBE727:
 781               	.LBE726:
 782               	.LM124:
 783 044e 6881      		ld r22,Y
 784 0450 7981      		ldd r23,Y+1
 785 0452 80E0      		ldi r24,lo8(0)
 786 0454 90E0      		ldi r25,hi8(0)
 787               	.LVL41:
 788 0456 0E94 0000 		call __mulsi3
 789               	.LVL42:
 790 045a 3B01      		movw r6,r22
 791 045c 4C01      		movw r8,r24
 792               	.LVL43:
 793               	.LM125:
 794 045e 00E0      		ldi r16,lo8(0)
 795 0460 10E0      		ldi r17,hi8(0)
 796 0462 6E0C      		add r6,r14
 797 0464 7F1C      		adc r7,r15
 798 0466 801E      		adc r8,r16
 799 0468 911E      		adc r9,r17
 800               	.LM126:
 801 046a CC24      		clr r12
 802 046c DD24      		clr r13
 803               	.LVL44:
 804 046e 6A0C      		add r6,r10
 805 0470 7B1C      		adc r7,r11
 806 0472 8C1C      		adc r8,r12
 807 0474 9D1C      		adc r9,r13
 808 0476 60E0      		ldi r22,lo8(0)
 809 0478 70E0      		ldi r23,hi8(0)
 810 047a 80E0      		ldi r24,hlo8(0)
 811 047c 90E0      		ldi r25,hhi8(0)
 812               	.LVL45:
 813 047e 00C0      		rjmp .L45
 814               	.L46:
 815               	.LBB728:
 816               	.LBB729:
 817               	.LM127:
 818               	/* #APP */
 819               	 ;  376 "timebase.c" 1
 820 0480 F894      		cli
 821               	 ;  0 "" 2
 822               	/* #NOAPP */
 823               	.LBE729:
 824               	.LBE728:
 825               	.LBB730:
 826               	.LBB731:
 827               	.LM128:
 828 0482 EF84      		ldd r14,Y+15
 829 0484 F888      		ldd r15,Y+16
 830               	.LBE731:
 831               	.LBE730:
 832               	.LBB732:
 833               	.LBB733:
 834               	.LM129:
 835 0486 2989      		ldd r18,Y+17
 836 0488 3A89      		ldd r19,Y+18
 837 048a 4B89      		ldd r20,Y+19
 838 048c 5C89      		ldd r21,Y+20
 839               	.LVL46:
 840               	.LBE733:
 841               	.LBE732:
 842               	.LBB734:
 843               	.LBB735:
 844               	.LM130:
 845               	/* #APP */
 846               	 ;  381 "timebase.c" 1
 847 048e 7894      		sei
 848               	 ;  0 "" 2
 849               	/* #NOAPP */
 850               	.LBE735:
 851               	.LBE734:
 852               	.LM131:
 853 0490 6881      		ld r22,Y
 854 0492 7981      		ldd r23,Y+1
 855               	.LVL47:
 856 0494 80E0      		ldi r24,lo8(0)
 857 0496 90E0      		ldi r25,hi8(0)
 858 0498 0E94 0000 		call __mulsi3
 859               	.LVL48:
 860               	.LM132:
 861 049c 00E0      		ldi r16,lo8(0)
 862 049e 10E0      		ldi r17,hi8(0)
 863 04a0 6E0D      		add r22,r14
 864 04a2 7F1D      		adc r23,r15
 865 04a4 801F      		adc r24,r16
 866 04a6 911F      		adc r25,r17
 867               	.LVL49:
 868               	.L45:
 869               	.LM133:
 870 04a8 6615      		cp r22,r6
 871 04aa 7705      		cpc r23,r7
 872 04ac 8805      		cpc r24,r8
 873 04ae 9905      		cpc r25,r9
 874 04b0 04F0      		brlt .L46
 875               	/* epilogue start */
 876               	.LM134:
 877 04b2 DF91      		pop r29
 878 04b4 CF91      		pop r28
 879 04b6 1F91      		pop r17
 880 04b8 0F91      		pop r16
 881 04ba FF90      		pop r15
 882 04bc EF90      		pop r14
 883 04be DF90      		pop r13
 884 04c0 CF90      		pop r12
 885               	.LVL50:
 886 04c2 BF90      		pop r11
 887 04c4 AF90      		pop r10
 888               	.LVL51:
 889 04c6 9F90      		pop r9
 890 04c8 8F90      		pop r8
 891 04ca 7F90      		pop r7
 892 04cc 6F90      		pop r6
 893               	.LVL52:
 894 04ce 0895      		ret
 895               	.LFE20:
 897               	.global	Timebase_Timer_Await_SubSeconds
 899               	Timebase_Timer_Await_SubSeconds:
 900               	.LFB21:
 901               	.LM135:
 902               	.LVL53:
 903               	/* prologue: function */
 904               	/* frame size = 0 */
 905 04d0 BC01      		movw r22,r24
 906               	.LBB736:
 907               	.LBB737:
 908               	.LM136:
 909               	/* #APP */
 910               	 ;  376 "timebase.c" 1
 911 04d2 F894      		cli
 912               	 ;  0 "" 2
 913               	/* #NOAPP */
 914               	.LBE737:
 915               	.LBE736:
 916               	.LBB738:
 917               	.LBB739:
 918               	.LM137:
 919 04d4 E091 0000 		lds r30,Timebase
 920 04d8 F091 0000 		lds r31,(Timebase)+1
 921 04dc 00C0      		rjmp .L53
 922               	.LVL54:
 923               	.L50:
 924               	.LBE739:
 925               	.LBE738:
 926               	.LBB740:
 927               	.LBB741:
 928               	.LM138:
 929               	/* #APP */
 930               	 ;  376 "timebase.c" 1
 931 04de F894      		cli
 932               	 ;  0 "" 2
 933               	.LVL55:
 934               	/* #NOAPP */
 935               	.L53:
 936               	.LBE741:
 937               	.LBE740:
 938               	.LBB742:
 939               	.LBB743:
 940               	.LM139:
 941 04e0 8785      		ldd r24,Z+15
 942 04e2 9089      		ldd r25,Z+16
 943               	.LBE743:
 944               	.LBE742:
 945               	.LBB744:
 946               	.LBB745:
 947               	.LM140:
 948               	/* #APP */
 949               	 ;  381 "timebase.c" 1
 950 04e4 7894      		sei
 951               	 ;  0 "" 2
 952               	/* #NOAPP */
 953               	.LBE745:
 954               	.LBE744:
 955               	.LM141:
 956 04e6 2581      		ldd r18,Z+5
 957 04e8 3681      		ldd r19,Z+6
 958 04ea 4781      		ldd r20,Z+7
 959 04ec 5085      		ldd r21,Z+8
 960 04ee A0E0      		ldi r26,lo8(0)
 961 04f0 B0E0      		ldi r27,hi8(0)
 962 04f2 8217      		cp r24,r18
 963 04f4 9307      		cpc r25,r19
 964 04f6 A407      		cpc r26,r20
 965 04f8 B507      		cpc r27,r21
 966 04fa 01F4      		brne .L50
 967               	.LBB746:
 968               	.LBB747:
 969               	.LM142:
 970               	/* #APP */
 971               	 ;  376 "timebase.c" 1
 972 04fc F894      		cli
 973               	 ;  0 "" 2
 974               	/* #NOAPP */
 975               	.LBE747:
 976               	.LBE746:
 977               	.LBB748:
 978               	.LBB749:
 979               	.LM143:
 980 04fe 8785      		ldd r24,Z+15
 981 0500 9089      		ldd r25,Z+16
 982               	.LVL56:
 983               	.LBE749:
 984               	.LBE748:
 985               	.LBB750:
 986               	.LBB751:
 987               	.LM144:
 988               	/* #APP */
 989               	 ;  381 "timebase.c" 1
 990 0502 7894      		sei
 991               	 ;  0 "" 2
 992               	/* #NOAPP */
 993               	.LBE751:
 994               	.LBE750:
 995               	.LM145:
 996 0504 A0E0      		ldi r26,lo8(0)
 997 0506 B0E0      		ldi r27,hi8(0)
 998               	.LVL57:
 999 0508 8583      		std Z+5,r24
 1000 050a 9683      		std Z+6,r25
 1001 050c A783      		std Z+7,r26
 1002 050e B087      		std Z+8,r27
 1003               	.LVL58:
 1004               	.LM146:
 1005 0510 2581      		ldd r18,Z+5
 1006 0512 3681      		ldd r19,Z+6
 1007 0514 4781      		ldd r20,Z+7
 1008 0516 5085      		ldd r21,Z+8
 1009 0518 CB01      		movw r24,r22
 1010 051a A0E0      		ldi r26,lo8(0)
 1011 051c B0E0      		ldi r27,hi8(0)
 1012               	.LVL59:
 1013 051e 820F      		add r24,r18
 1014 0520 931F      		adc r25,r19
 1015 0522 A41F      		adc r26,r20
 1016 0524 B51F      		adc r27,r21
 1017               	.LVL60:
 1018 0526 8583      		std Z+5,r24
 1019 0528 9683      		std Z+6,r25
 1020 052a A783      		std Z+7,r26
 1021 052c B087      		std Z+8,r27
 1022               	.LM147:
 1023 052e 2581      		ldd r18,Z+5
 1024 0530 3681      		ldd r19,Z+6
 1025 0532 4781      		ldd r20,Z+7
 1026 0534 5085      		ldd r21,Z+8
 1027 0536 8081      		ld r24,Z
 1028 0538 9181      		ldd r25,Z+1
 1029               	.LVL61:
 1030 053a A0E0      		ldi r26,lo8(0)
 1031 053c B0E0      		ldi r27,hi8(0)
 1032               	.LVL62:
 1033 053e 2817      		cp r18,r24
 1034 0540 3907      		cpc r19,r25
 1035 0542 4A07      		cpc r20,r26
 1036 0544 5B07      		cpc r21,r27
 1037 0546 04F0      		brlt .L52
 1038               	.LM148:
 1039 0548 2581      		ldd r18,Z+5
 1040 054a 3681      		ldd r19,Z+6
 1041 054c 4781      		ldd r20,Z+7
 1042 054e 5085      		ldd r21,Z+8
 1043 0550 8081      		ld r24,Z
 1044 0552 9181      		ldd r25,Z+1
 1045 0554 A0E0      		ldi r26,lo8(0)
 1046 0556 B0E0      		ldi r27,hi8(0)
 1047 0558 281B      		sub r18,r24
 1048 055a 390B      		sbc r19,r25
 1049 055c 4A0B      		sbc r20,r26
 1050 055e 5B0B      		sbc r21,r27
 1051 0560 2583      		std Z+5,r18
 1052 0562 3683      		std Z+6,r19
 1053 0564 4783      		std Z+7,r20
 1054 0566 5087      		std Z+8,r21
 1055               	.L52:
 1056 0568 0895      		ret
 1057               	.LFE21:
 1059               	.global	Timebase_Timer_Delay_Seconds
 1061               	Timebase_Timer_Delay_Seconds:
 1062               	.LFB22:
 1063               	.LM149:
 1064               	.LVL63:
 1065               	/* prologue: function */
 1066               	/* frame size = 0 */
 1067               	.LBB752:
 1068               	.LBB753:
 1069               	.LM150:
 1070               	/* #APP */
 1071               	 ;  376 "timebase.c" 1
 1072 056a F894      		cli
 1073               	 ;  0 "" 2
 1074               	/* #NOAPP */
 1075               	.LBE753:
 1076               	.LBE752:
 1077               	.LBB754:
 1078               	.LBB755:
 1079               	.LM151:
 1080 056c E091 0000 		lds r30,Timebase
 1081 0570 F091 0000 		lds r31,(Timebase)+1
 1082 0574 2189      		ldd r18,Z+17
 1083 0576 3289      		ldd r19,Z+18
 1084 0578 4389      		ldd r20,Z+19
 1085 057a 5489      		ldd r21,Z+20
 1086               	.LVL64:
 1087               	.LBE755:
 1088               	.LBE754:
 1089               	.LBB756:
 1090               	.LBB757:
 1091               	.LM152:
 1092               	/* #APP */
 1093               	 ;  381 "timebase.c" 1
 1094 057c 7894      		sei
 1095               	 ;  0 "" 2
 1096               	/* #NOAPP */
 1097               	.LBE757:
 1098               	.LBE756:
 1099               	.LM153:
 1100 057e A0E0      		ldi r26,lo8(0)
 1101 0580 B0E0      		ldi r27,hi8(0)
 1102               	.LVL65:
 1103 0582 820F      		add r24,r18
 1104 0584 931F      		adc r25,r19
 1105 0586 A41F      		adc r26,r20
 1106 0588 B51F      		adc r27,r21
 1107               	.LVL66:
 1108 058a 20E0      		ldi r18,lo8(0)
 1109 058c 30E0      		ldi r19,hi8(0)
 1110 058e 40E0      		ldi r20,hlo8(0)
 1111 0590 50E0      		ldi r21,hhi8(0)
 1112               	.LVL67:
 1113 0592 00C0      		rjmp .L55
 1114               	.L56:
 1115               	.LBB758:
 1116               	.LBB759:
 1117               	.LM154:
 1118               	/* #APP */
 1119               	 ;  376 "timebase.c" 1
 1120 0594 F894      		cli
 1121               	 ;  0 "" 2
 1122               	/* #NOAPP */
 1123               	.LBE759:
 1124               	.LBE758:
 1125               	.LBB760:
 1126               	.LBB761:
 1127               	.LM155:
 1128 0596 2189      		ldd r18,Z+17
 1129 0598 3289      		ldd r19,Z+18
 1130 059a 4389      		ldd r20,Z+19
 1131 059c 5489      		ldd r21,Z+20
 1132               	.LBE761:
 1133               	.LBE760:
 1134               	.LBB762:
 1135               	.LBB763:
 1136               	.LM156:
 1137               	/* #APP */
 1138               	 ;  381 "timebase.c" 1
 1139 059e 7894      		sei
 1140               	 ;  0 "" 2
 1141               	/* #NOAPP */
 1142               	.L55:
 1143               	.LBE763:
 1144               	.LBE762:
 1145               	.LM157:
 1146 05a0 2817      		cp r18,r24
 1147 05a2 3907      		cpc r19,r25
 1148 05a4 4A07      		cpc r20,r26
 1149 05a6 5B07      		cpc r21,r27
 1150 05a8 04F0      		brlt .L56
 1151               	/* epilogue start */
 1152               	.LM158:
 1153 05aa 0895      		ret
 1154               	.LFE22:
 1156               	.global	Timebase_LPTimer_Get_SubSeconds
 1158               	Timebase_LPTimer_Get_SubSeconds:
 1159               	.LFB23:
 1160               	.LM159:
 1161               	/* prologue: function */
 1162               	/* frame size = 0 */
 1163               	.LM160:
 1164 05ac E091 0000 		lds r30,Timebase
 1165 05b0 F091 0000 		lds r31,(Timebase)+1
 1166               	.L59:
 1167 05b4 2689      		ldd r18,Z+22
 1168 05b6 3789      		ldd r19,Z+23
 1169               	.LVL68:
 1170               	.LM161:
 1171 05b8 8689      		ldd r24,Z+22
 1172 05ba 9789      		ldd r25,Z+23
 1173               	.LVL69:
 1174               	.LM162:
 1175 05bc 2817      		cp r18,r24
 1176 05be 3907      		cpc r19,r25
 1177 05c0 01F4      		brne .L59
 1178               	.LM163:
 1179 05c2 C901      		movw r24,r18
 1180               	.LVL70:
 1181               	/* epilogue start */
 1182 05c4 0895      		ret
 1183               	.LFE23:
 1185               	.global	Timebase_LPTimer_Get_Seconds
 1187               	Timebase_LPTimer_Get_Seconds:
 1188               	.LFB24:
 1189               	.LM164:
 1190               	/* prologue: function */
 1191               	/* frame size = 0 */
 1192               	.LM165:
 1193 05c6 E091 0000 		lds r30,Timebase
 1194 05ca F091 0000 		lds r31,(Timebase)+1
 1195               	.L63:
 1196 05ce 208D      		ldd r18,Z+24
 1197 05d0 318D      		ldd r19,Z+25
 1198 05d2 428D      		ldd r20,Z+26
 1199 05d4 538D      		ldd r21,Z+27
 1200               	.LVL71:
 1201               	.LM166:
 1202 05d6 808D      		ldd r24,Z+24
 1203 05d8 918D      		ldd r25,Z+25
 1204 05da A28D      		ldd r26,Z+26
 1205 05dc B38D      		ldd r27,Z+27
 1206               	.LVL72:
 1207               	.LM167:
 1208 05de 2817      		cp r18,r24
 1209 05e0 3907      		cpc r19,r25
 1210 05e2 4A07      		cpc r20,r26
 1211 05e4 5B07      		cpc r21,r27
 1212 05e6 01F4      		brne .L63
 1213               	.LM168:
 1214 05e8 B901      		movw r22,r18
 1215               	.LVL73:
 1216 05ea CA01      		movw r24,r20
 1217               	.LVL74:
 1218               	/* epilogue start */
 1219 05ec 0895      		ret
 1220               	.LFE24:
 1222               	.global	Timebase_LPTimer_Set_SubSeconds
 1224               	Timebase_LPTimer_Set_SubSeconds:
 1225               	.LFB25:
 1226               	.LM169:
 1227               	.LVL75:
 1228               	/* prologue: function */
 1229               	/* frame size = 0 */
 1230               	.LM170:
 1231 05ee E091 0000 		lds r30,Timebase
 1232 05f2 F091 0000 		lds r31,(Timebase)+1
 1233 05f6 978B      		std Z+23,r25
 1234 05f8 868B      		std Z+22,r24
 1235               	/* epilogue start */
 1236               	.LM171:
 1237 05fa 0895      		ret
 1238               	.LFE25:
 1240               	.global	Timebase_LPTimer_Set_Seconds
 1242               	Timebase_LPTimer_Set_Seconds:
 1243               	.LFB26:
 1244               	.LM172:
 1245               	.LVL76:
 1246               	/* prologue: function */
 1247               	/* frame size = 0 */
 1248               	.LM173:
 1249 05fc E091 0000 		lds r30,Timebase
 1250 0600 F091 0000 		lds r31,(Timebase)+1
 1251 0604 608F      		std Z+24,r22
 1252 0606 718F      		std Z+25,r23
 1253 0608 828F      		std Z+26,r24
 1254 060a 938F      		std Z+27,r25
 1255               	/* epilogue start */
 1256               	.LM174:
 1257 060c 0895      		ret
 1258               	.LFE26:
 1260               	.global	Timebase_LPTimer_Delay_Seconds
 1262               	Timebase_LPTimer_Delay_Seconds:
 1263               	.LFB27:
 1264               	.LM175:
 1265               	.LVL77:
 1266 060e EF92      		push r14
 1267 0610 FF92      		push r15
 1268 0612 0F93      		push r16
 1269 0614 1F93      		push r17
 1270               	/* prologue: function */
 1271               	/* frame size = 0 */
 1272 0616 BC01      		movw r22,r24
 1273               	.LBB764:
 1274               	.LBB765:
 1275               	.LM176:
 1276               	/* #APP */
 1277               	 ;  376 "timebase.c" 1
 1278 0618 F894      		cli
 1279               	 ;  0 "" 2
 1280               	/* #NOAPP */
 1281               	.LBE765:
 1282               	.LBE764:
 1283               	.LBB766:
 1284               	.LBB767:
 1285               	.LM177:
 1286 061a E091 0000 		lds r30,Timebase
 1287 061e F091 0000 		lds r31,(Timebase)+1
 1288               	.LVL78:
 1289               	.L71:
 1290 0622 208D      		ldd r18,Z+24
 1291 0624 318D      		ldd r19,Z+25
 1292 0626 428D      		ldd r20,Z+26
 1293 0628 538D      		ldd r21,Z+27
 1294               	.LVL79:
 1295               	.LM178:
 1296 062a 808D      		ldd r24,Z+24
 1297 062c 918D      		ldd r25,Z+25
 1298 062e A28D      		ldd r26,Z+26
 1299 0630 B38D      		ldd r27,Z+27
 1300               	.LVL80:
 1301               	.LM179:
 1302 0632 2817      		cp r18,r24
 1303 0634 3907      		cpc r19,r25
 1304 0636 4A07      		cpc r20,r26
 1305 0638 5B07      		cpc r21,r27
 1306 063a 01F4      		brne .L71
 1307               	.LBE767:
 1308               	.LBE766:
 1309               	.LBB768:
 1310               	.LBB769:
 1311               	.LM180:
 1312               	/* #APP */
 1313               	 ;  381 "timebase.c" 1
 1314 063c 7894      		sei
 1315               	 ;  0 "" 2
 1316               	/* #NOAPP */
 1317               	.LBE769:
 1318               	.LBE768:
 1319               	.LM181:
 1320 063e 7B01      		movw r14,r22
 1321               	.LVL81:
 1322 0640 00E0      		ldi r16,lo8(0)
 1323 0642 10E0      		ldi r17,hi8(0)
 1324               	.LVL82:
 1325 0644 E20E      		add r14,r18
 1326 0646 F31E      		adc r15,r19
 1327 0648 041F      		adc r16,r20
 1328 064a 151F      		adc r17,r21
 1329               	.LVL83:
 1330 064c 20E0      		ldi r18,lo8(0)
 1331 064e 30E0      		ldi r19,hi8(0)
 1332 0650 40E0      		ldi r20,hlo8(0)
 1333 0652 50E0      		ldi r21,hhi8(0)
 1334               	.LVL84:
 1335 0654 00C0      		rjmp .L72
 1336               	.LVL85:
 1337               	.L74:
 1338               	.LBB770:
 1339               	.LBB771:
 1340               	.LM182:
 1341               	/* #APP */
 1342               	 ;  376 "timebase.c" 1
 1343 0656 F894      		cli
 1344               	 ;  0 "" 2
 1345               	/* #NOAPP */
 1346               	.L73:
 1347               	.LBE771:
 1348               	.LBE770:
 1349               	.LBB772:
 1350               	.LBB773:
 1351               	.LM183:
 1352 0658 208D      		ldd r18,Z+24
 1353 065a 318D      		ldd r19,Z+25
 1354 065c 428D      		ldd r20,Z+26
 1355 065e 538D      		ldd r21,Z+27
 1356               	.LM184:
 1357 0660 808D      		ldd r24,Z+24
 1358 0662 918D      		ldd r25,Z+25
 1359 0664 A28D      		ldd r26,Z+26
 1360 0666 B38D      		ldd r27,Z+27
 1361               	.LVL86:
 1362               	.LM185:
 1363 0668 2817      		cp r18,r24
 1364 066a 3907      		cpc r19,r25
 1365 066c 4A07      		cpc r20,r26
 1366 066e 5B07      		cpc r21,r27
 1367 0670 01F4      		brne .L73
 1368               	.LBE773:
 1369               	.LBE772:
 1370               	.LBB774:
 1371               	.LBB775:
 1372               	.LM186:
 1373               	/* #APP */
 1374               	 ;  381 "timebase.c" 1
 1375 0672 7894      		sei
 1376               	 ;  0 "" 2
 1377               	.LVL87:
 1378               	/* #NOAPP */
 1379               	.L72:
 1380               	.LBE775:
 1381               	.LBE774:
 1382               	.LM187:
 1383 0674 2E15      		cp r18,r14
 1384 0676 3F05      		cpc r19,r15
 1385 0678 4007      		cpc r20,r16
 1386 067a 5107      		cpc r21,r17
 1387 067c 04F0      		brlt .L74
 1388               	/* epilogue start */
 1389               	.LM188:
 1390 067e 1F91      		pop r17
 1391 0680 0F91      		pop r16
 1392               	.LVL88:
 1393 0682 FF90      		pop r15
 1394 0684 EF90      		pop r14
 1395               	.LVL89:
 1396 0686 0895      		ret
 1397               	.LFE27:
 1399               	.global	Timebase_UpCounter_SS_Get_Status
 1401               	Timebase_UpCounter_SS_Get_Status:
 1402               	.LFB28:
 1403               	.LM189:
 1404               	.LVL90:
 1405               	/* prologue: function */
 1406               	/* frame size = 0 */
 1407               	.LM190:
 1408 0688 E091 0000 		lds r30,Timebase
 1409 068c F091 0000 		lds r31,(Timebase)+1
 1410 0690 90E0      		ldi r25,lo8(0)
 1411               	.LVL91:
 1412 0692 29E1      		ldi r18,lo8(25)
 1413 0694 30E0      		ldi r19,hi8(25)
 1414 0696 AC01      		movw r20,r24
 1415 0698 429F      		mul r20,r18
 1416 069a C001      		movw r24,r0
 1417 069c 439F      		mul r20,r19
 1418 069e 900D      		add r25,r0
 1419 06a0 529F      		mul r21,r18
 1420 06a2 900D      		add r25,r0
 1421 06a4 1124      		clr r1
 1422               	.LVL92:
 1423 06a6 E80F      		add r30,r24
 1424 06a8 F91F      		adc r31,r25
 1425 06aa 858D      		ldd r24,Z+29
 1426 06ac 8695      		lsr r24
 1427               	.LM191:
 1428 06ae 8F70      		andi r24,lo8(15)
 1429               	/* epilogue start */
 1430 06b0 0895      		ret
 1431               	.LFE28:
 1433               	.global	Timebase_UpCounter_SS_Set_Status
 1435               	Timebase_UpCounter_SS_Set_Status:
 1436               	.LFB29:
 1437               	.LM192:
 1438               	.LVL93:
 1439               	/* prologue: function */
 1440               	/* frame size = 0 */
 1441               	.LM193:
 1442 06b2 E091 0000 		lds r30,Timebase
 1443 06b6 F091 0000 		lds r31,(Timebase)+1
 1444 06ba 90E0      		ldi r25,lo8(0)
 1445               	.LVL94:
 1446 06bc 29E1      		ldi r18,lo8(25)
 1447 06be 30E0      		ldi r19,hi8(25)
 1448 06c0 AC01      		movw r20,r24
 1449 06c2 429F      		mul r20,r18
 1450 06c4 C001      		movw r24,r0
 1451 06c6 439F      		mul r20,r19
 1452 06c8 900D      		add r25,r0
 1453 06ca 529F      		mul r21,r18
 1454 06cc 900D      		add r25,r0
 1455 06ce 1124      		clr r1
 1456               	.LVL95:
 1457 06d0 E80F      		add r30,r24
 1458 06d2 F91F      		adc r31,r25
 1459 06d4 6F70      		andi r22,lo8(15)
 1460               	.LVL96:
 1461 06d6 660F      		lsl r22
 1462 06d8 858D      		ldd r24,Z+29
 1463 06da 817E      		andi r24,lo8(-31)
 1464 06dc 862B      		or r24,r22
 1465 06de 858F      		std Z+29,r24
 1466               	/* epilogue start */
 1467               	.LM194:
 1468 06e0 0895      		ret
 1469               	.LFE29:
 1471               	.global	Timebase_UpCounter_SS_Get_Value
 1473               	Timebase_UpCounter_SS_Get_Value:
 1474               	.LFB30:
 1475               	.LM195:
 1476               	.LVL97:
 1477               	/* prologue: function */
 1478               	/* frame size = 0 */
 1479               	.LM196:
 1480 06e2 E091 0000 		lds r30,Timebase
 1481 06e6 F091 0000 		lds r31,(Timebase)+1
 1482 06ea 90E0      		ldi r25,lo8(0)
 1483               	.LVL98:
 1484 06ec 29E1      		ldi r18,lo8(25)
 1485 06ee 30E0      		ldi r19,hi8(25)
 1486 06f0 AC01      		movw r20,r24
 1487 06f2 429F      		mul r20,r18
 1488 06f4 C001      		movw r24,r0
 1489 06f6 439F      		mul r20,r19
 1490 06f8 900D      		add r25,r0
 1491 06fa 529F      		mul r21,r18
 1492 06fc 900D      		add r25,r0
 1493 06fe 1124      		clr r1
 1494               	.LVL99:
 1495 0700 E80F      		add r30,r24
 1496 0702 F91F      		adc r31,r25
 1497 0704 DF01      		movw r26,r30
 1498 0706 9E96      		adiw r26,46
 1499 0708 66A5      		ldd r22,Z+46
 1500 070a 1196      		adiw r26,1
 1501 070c 7C91      		ld r23,X
 1502 070e 1197      		sbiw r26,1
 1503               	.LM197:
 1504 0710 1296      		adiw r26,2
 1505 0712 8C91      		ld r24,X
 1506 0714 1297      		sbiw r26,2
 1507 0716 1396      		adiw r26,3
 1508 0718 9C91      		ld r25,X
 1509               	.LVL100:
 1510               	/* epilogue start */
 1511 071a 0895      		ret
 1512               	.LFE30:
 1514               	.global	Timebase_UpCounter_SS_Set_Value
 1516               	Timebase_UpCounter_SS_Set_Value:
 1517               	.LFB31:
 1518               	.LM198:
 1519               	.LVL101:
 1520 071c CF93      		push r28
 1521 071e DF93      		push r29
 1522               	/* prologue: function */
 1523               	/* frame size = 0 */
 1524               	.LM199:
 1525 0720 C091 0000 		lds r28,Timebase
 1526 0724 D091 0000 		lds r29,(Timebase)+1
 1527 0728 90E0      		ldi r25,lo8(0)
 1528               	.LVL102:
 1529 072a 29E1      		ldi r18,lo8(25)
 1530 072c 30E0      		ldi r19,hi8(25)
 1531 072e FC01      		movw r30,r24
 1532 0730 E29F      		mul r30,r18
 1533 0732 C001      		movw r24,r0
 1534 0734 E39F      		mul r30,r19
 1535 0736 900D      		add r25,r0
 1536 0738 F29F      		mul r31,r18
 1537 073a 900D      		add r25,r0
 1538 073c 1124      		clr r1
 1539               	.LVL103:
 1540 073e C80F      		add r28,r24
 1541 0740 D91F      		adc r29,r25
 1542 0742 CA01      		movw r24,r20
 1543               	.LVL104:
 1544 0744 DB01      		movw r26,r22
 1545 0746 B7FF      		sbrs r27,7
 1546 0748 00C0      		rjmp .L85
 1547               	.LVL105:
 1548 074a 80E0      		ldi r24,lo8(0)
 1549 074c 90E0      		ldi r25,hi8(0)
 1550 074e A0E0      		ldi r26,hlo8(0)
 1551 0750 B0E0      		ldi r27,hhi8(0)
 1552               	.L85:
 1553 0752 8EA7      		std Y+46,r24
 1554 0754 9FA7      		std Y+47,r25
 1555 0756 A8AB      		std Y+48,r26
 1556 0758 B9AB      		std Y+49,r27
 1557               	/* epilogue start */
 1558               	.LM200:
 1559 075a DF91      		pop r29
 1560 075c CF91      		pop r28
 1561 075e 0895      		ret
 1562               	.LFE31:
 1564               	.global	Timebase_UpCounter_SS_Get_EndValueSec
 1566               	Timebase_UpCounter_SS_Get_EndValueSec:
 1567               	.LFB32:
 1568               	.LM201:
 1569               	.LVL106:
 1570               	/* prologue: function */
 1571               	/* frame size = 0 */
 1572               	.LM202:
 1573 0760 E091 0000 		lds r30,Timebase
 1574 0764 F091 0000 		lds r31,(Timebase)+1
 1575 0768 90E0      		ldi r25,lo8(0)
 1576               	.LVL107:
 1577 076a 29E1      		ldi r18,lo8(25)
 1578 076c 30E0      		ldi r19,hi8(25)
 1579 076e AC01      		movw r20,r24
 1580 0770 429F      		mul r20,r18
 1581 0772 C001      		movw r24,r0
 1582 0774 439F      		mul r20,r19
 1583 0776 900D      		add r25,r0
 1584 0778 529F      		mul r21,r18
 1585 077a 900D      		add r25,r0
 1586 077c 1124      		clr r1
 1587               	.LVL108:
 1588 077e E80F      		add r30,r24
 1589 0780 F91F      		adc r31,r25
 1590 0782 DF01      		movw r26,r30
 1591 0784 5E96      		adiw r26,30
 1592 0786 668D      		ldd r22,Z+30
 1593 0788 1196      		adiw r26,1
 1594 078a 7C91      		ld r23,X
 1595 078c 1197      		sbiw r26,1
 1596               	.LM203:
 1597 078e 1296      		adiw r26,2
 1598 0790 8C91      		ld r24,X
 1599 0792 1297      		sbiw r26,2
 1600 0794 1396      		adiw r26,3
 1601 0796 9C91      		ld r25,X
 1602               	.LVL109:
 1603               	/* epilogue start */
 1604 0798 0895      		ret
 1605               	.LFE32:
 1607               	.global	Timebase_UpCounter_SS_Get_EndValueSubSec
 1609               	Timebase_UpCounter_SS_Get_EndValueSubSec:
 1610               	.LFB33:
 1611               	.LM204:
 1612               	.LVL110:
 1613               	/* prologue: function */
 1614               	/* frame size = 0 */
 1615               	.LM205:
 1616 079a E091 0000 		lds r30,Timebase
 1617 079e F091 0000 		lds r31,(Timebase)+1
 1618 07a2 90E0      		ldi r25,lo8(0)
 1619               	.LVL111:
 1620 07a4 29E1      		ldi r18,lo8(25)
 1621 07a6 30E0      		ldi r19,hi8(25)
 1622 07a8 AC01      		movw r20,r24
 1623 07aa 429F      		mul r20,r18
 1624 07ac C001      		movw r24,r0
 1625 07ae 439F      		mul r20,r19
 1626 07b0 900D      		add r25,r0
 1627 07b2 529F      		mul r21,r18
 1628 07b4 900D      		add r25,r0
 1629 07b6 1124      		clr r1
 1630               	.LVL112:
 1631 07b8 E80F      		add r30,r24
 1632 07ba F91F      		adc r31,r25
 1633 07bc DF01      		movw r26,r30
 1634 07be 9296      		adiw r26,34
 1635 07c0 62A1      		ldd r22,Z+34
 1636 07c2 1196      		adiw r26,1
 1637 07c4 7C91      		ld r23,X
 1638 07c6 1197      		sbiw r26,1
 1639               	.LM206:
 1640 07c8 1296      		adiw r26,2
 1641 07ca 8C91      		ld r24,X
 1642 07cc 1297      		sbiw r26,2
 1643 07ce 1396      		adiw r26,3
 1644 07d0 9C91      		ld r25,X
 1645               	.LVL113:
 1646               	/* epilogue start */
 1647 07d2 0895      		ret
 1648               	.LFE33:
 1650               	.global	Timebase_UpCounter_SS_Set_EndValueSec
 1652               	Timebase_UpCounter_SS_Set_EndValueSec:
 1653               	.LFB34:
 1654               	.LM207:
 1655               	.LVL114:
 1656               	/* prologue: function */
 1657               	/* frame size = 0 */
 1658               	.LM208:
 1659 07d4 E091 0000 		lds r30,Timebase
 1660 07d8 F091 0000 		lds r31,(Timebase)+1
 1661 07dc 90E0      		ldi r25,lo8(0)
 1662               	.LVL115:
 1663 07de 29E1      		ldi r18,lo8(25)
 1664 07e0 30E0      		ldi r19,hi8(25)
 1665 07e2 DC01      		movw r26,r24
 1666 07e4 A29F      		mul r26,r18
 1667 07e6 C001      		movw r24,r0
 1668 07e8 A39F      		mul r26,r19
 1669 07ea 900D      		add r25,r0
 1670 07ec B29F      		mul r27,r18
 1671 07ee 900D      		add r25,r0
 1672 07f0 1124      		clr r1
 1673               	.LVL116:
 1674 07f2 E80F      		add r30,r24
 1675 07f4 F91F      		adc r31,r25
 1676 07f6 468F      		std Z+30,r20
 1677 07f8 578F      		std Z+31,r21
 1678 07fa 60A3      		std Z+32,r22
 1679 07fc 71A3      		std Z+33,r23
 1680               	/* epilogue start */
 1681               	.LM209:
 1682 07fe 0895      		ret
 1683               	.LFE34:
 1685               	.global	Timebase_UpCounter_SS_Set_EndValueSubSec
 1687               	Timebase_UpCounter_SS_Set_EndValueSubSec:
 1688               	.LFB35:
 1689               	.LM210:
 1690               	.LVL117:
 1691               	/* prologue: function */
 1692               	/* frame size = 0 */
 1693               	.LM211:
 1694 0800 E091 0000 		lds r30,Timebase
 1695 0804 F091 0000 		lds r31,(Timebase)+1
 1696 0808 90E0      		ldi r25,lo8(0)
 1697               	.LVL118:
 1698 080a 29E1      		ldi r18,lo8(25)
 1699 080c 30E0      		ldi r19,hi8(25)
 1700 080e DC01      		movw r26,r24
 1701 0810 A29F      		mul r26,r18
 1702 0812 C001      		movw r24,r0
 1703 0814 A39F      		mul r26,r19
 1704 0816 900D      		add r25,r0
 1705 0818 B29F      		mul r27,r18
 1706 081a 900D      		add r25,r0
 1707 081c 1124      		clr r1
 1708               	.LVL119:
 1709 081e E80F      		add r30,r24
 1710 0820 F91F      		adc r31,r25
 1711 0822 42A3      		std Z+34,r20
 1712 0824 53A3      		std Z+35,r21
 1713 0826 64A3      		std Z+36,r22
 1714 0828 75A3      		std Z+37,r23
 1715               	/* epilogue start */
 1716               	.LM212:
 1717 082a 0895      		ret
 1718               	.LFE35:
 1720               	.global	Timebase_UpCounter_SS_Get_TargetValue
 1722               	Timebase_UpCounter_SS_Get_TargetValue:
 1723               	.LFB36:
 1724               	.LM213:
 1725               	.LVL120:
 1726               	/* prologue: function */
 1727               	/* frame size = 0 */
 1728               	.LM214:
 1729 082c E091 0000 		lds r30,Timebase
 1730 0830 F091 0000 		lds r31,(Timebase)+1
 1731 0834 90E0      		ldi r25,lo8(0)
 1732               	.LVL121:
 1733 0836 29E1      		ldi r18,lo8(25)
 1734 0838 30E0      		ldi r19,hi8(25)
 1735 083a AC01      		movw r20,r24
 1736 083c 429F      		mul r20,r18
 1737 083e C001      		movw r24,r0
 1738 0840 439F      		mul r20,r19
 1739 0842 900D      		add r25,r0
 1740 0844 529F      		mul r21,r18
 1741 0846 900D      		add r25,r0
 1742 0848 1124      		clr r1
 1743               	.LVL122:
 1744 084a E80F      		add r30,r24
 1745 084c F91F      		adc r31,r25
 1746 084e DF01      		movw r26,r30
 1747 0850 9696      		adiw r26,38
 1748 0852 66A1      		ldd r22,Z+38
 1749 0854 1196      		adiw r26,1
 1750 0856 7C91      		ld r23,X
 1751 0858 1197      		sbiw r26,1
 1752               	.LM215:
 1753 085a 1296      		adiw r26,2
 1754 085c 8C91      		ld r24,X
 1755 085e 1297      		sbiw r26,2
 1756 0860 1396      		adiw r26,3
 1757 0862 9C91      		ld r25,X
 1758               	.LVL123:
 1759               	/* epilogue start */
 1760 0864 0895      		ret
 1761               	.LFE36:
 1763               	.global	Timebase_UpCounter_SS_Set_TargetValue
 1765               	Timebase_UpCounter_SS_Set_TargetValue:
 1766               	.LFB37:
 1767               	.LM216:
 1768               	.LVL124:
 1769               	/* prologue: function */
 1770               	/* frame size = 0 */
 1771               	.LM217:
 1772 0866 E091 0000 		lds r30,Timebase
 1773 086a F091 0000 		lds r31,(Timebase)+1
 1774 086e 90E0      		ldi r25,lo8(0)
 1775               	.LVL125:
 1776 0870 29E1      		ldi r18,lo8(25)
 1777 0872 30E0      		ldi r19,hi8(25)
 1778 0874 DC01      		movw r26,r24
 1779 0876 A29F      		mul r26,r18
 1780 0878 C001      		movw r24,r0
 1781 087a A39F      		mul r26,r19
 1782 087c 900D      		add r25,r0
 1783 087e B29F      		mul r27,r18
 1784 0880 900D      		add r25,r0
 1785 0882 1124      		clr r1
 1786               	.LVL126:
 1787 0884 E80F      		add r30,r24
 1788 0886 F91F      		adc r31,r25
 1789 0888 46A3      		std Z+38,r20
 1790 088a 57A3      		std Z+39,r21
 1791 088c 60A7      		std Z+40,r22
 1792 088e 71A7      		std Z+41,r23
 1793               	/* epilogue start */
 1794               	.LM218:
 1795 0890 0895      		ret
 1796               	.LFE37:
 1798               	.global	Timebase_UpCounter_SS_Get_TemporaryValue
 1800               	Timebase_UpCounter_SS_Get_TemporaryValue:
 1801               	.LFB38:
 1802               	.LM219:
 1803               	.LVL127:
 1804               	/* prologue: function */
 1805               	/* frame size = 0 */
 1806               	.LM220:
 1807 0892 E091 0000 		lds r30,Timebase
 1808 0896 F091 0000 		lds r31,(Timebase)+1
 1809 089a 90E0      		ldi r25,lo8(0)
 1810               	.LVL128:
 1811 089c 29E1      		ldi r18,lo8(25)
 1812 089e 30E0      		ldi r19,hi8(25)
 1813 08a0 AC01      		movw r20,r24
 1814 08a2 429F      		mul r20,r18
 1815 08a4 C001      		movw r24,r0
 1816 08a6 439F      		mul r20,r19
 1817 08a8 900D      		add r25,r0
 1818 08aa 529F      		mul r21,r18
 1819 08ac 900D      		add r25,r0
 1820 08ae 1124      		clr r1
 1821               	.LVL129:
 1822 08b0 E80F      		add r30,r24
 1823 08b2 F91F      		adc r31,r25
 1824 08b4 DF01      		movw r26,r30
 1825 08b6 9A96      		adiw r26,42
 1826 08b8 62A5      		ldd r22,Z+42
 1827 08ba 1196      		adiw r26,1
 1828 08bc 7C91      		ld r23,X
 1829 08be 1197      		sbiw r26,1
 1830               	.LM221:
 1831 08c0 1296      		adiw r26,2
 1832 08c2 8C91      		ld r24,X
 1833 08c4 1297      		sbiw r26,2
 1834 08c6 1396      		adiw r26,3
 1835 08c8 9C91      		ld r25,X
 1836               	.LVL130:
 1837               	/* epilogue start */
 1838 08ca 0895      		ret
 1839               	.LFE38:
 1841               	.global	Timebase_UpCounter_SS_Set_TemporaryValue
 1843               	Timebase_UpCounter_SS_Set_TemporaryValue:
 1844               	.LFB39:
 1845               	.LM222:
 1846               	.LVL131:
 1847 08cc CF93      		push r28
 1848 08ce DF93      		push r29
 1849               	/* prologue: function */
 1850               	/* frame size = 0 */
 1851               	.LM223:
 1852 08d0 C091 0000 		lds r28,Timebase
 1853 08d4 D091 0000 		lds r29,(Timebase)+1
 1854 08d8 90E0      		ldi r25,lo8(0)
 1855               	.LVL132:
 1856 08da 29E1      		ldi r18,lo8(25)
 1857 08dc 30E0      		ldi r19,hi8(25)
 1858 08de FC01      		movw r30,r24
 1859 08e0 E29F      		mul r30,r18
 1860 08e2 C001      		movw r24,r0
 1861 08e4 E39F      		mul r30,r19
 1862 08e6 900D      		add r25,r0
 1863 08e8 F29F      		mul r31,r18
 1864 08ea 900D      		add r25,r0
 1865 08ec 1124      		clr r1
 1866               	.LVL133:
 1867 08ee C80F      		add r28,r24
 1868 08f0 D91F      		adc r29,r25
 1869 08f2 CA01      		movw r24,r20
 1870               	.LVL134:
 1871 08f4 DB01      		movw r26,r22
 1872 08f6 B7FF      		sbrs r27,7
 1873 08f8 00C0      		rjmp .L102
 1874               	.LVL135:
 1875 08fa 80E0      		ldi r24,lo8(0)
 1876 08fc 90E0      		ldi r25,hi8(0)
 1877 08fe A0E0      		ldi r26,hlo8(0)
 1878 0900 B0E0      		ldi r27,hhi8(0)
 1879               	.L102:
 1880 0902 8AA7      		std Y+42,r24
 1881 0904 9BA7      		std Y+43,r25
 1882 0906 ACA7      		std Y+44,r26
 1883 0908 BDA7      		std Y+45,r27
 1884               	/* epilogue start */
 1885               	.LM224:
 1886 090a DF91      		pop r29
 1887 090c CF91      		pop r28
 1888 090e 0895      		ret
 1889               	.LFE39:
 1891               	.global	Timebase_UpCounter_SS_Get_PeriodValue
 1893               	Timebase_UpCounter_SS_Get_PeriodValue:
 1894               	.LFB40:
 1895               	.LM225:
 1896               	.LVL136:
 1897               	/* prologue: function */
 1898               	/* frame size = 0 */
 1899               	.LM226:
 1900 0910 E091 0000 		lds r30,Timebase
 1901 0914 F091 0000 		lds r31,(Timebase)+1
 1902 0918 90E0      		ldi r25,lo8(0)
 1903               	.LVL137:
 1904 091a 29E1      		ldi r18,lo8(25)
 1905 091c 30E0      		ldi r19,hi8(25)
 1906 091e AC01      		movw r20,r24
 1907 0920 429F      		mul r20,r18
 1908 0922 C001      		movw r24,r0
 1909 0924 439F      		mul r20,r19
 1910 0926 900D      		add r25,r0
 1911 0928 529F      		mul r21,r18
 1912 092a 900D      		add r25,r0
 1913 092c 1124      		clr r1
 1914               	.LVL138:
 1915 092e E80F      		add r30,r24
 1916 0930 F91F      		adc r31,r25
 1917 0932 DF01      		movw r26,r30
 1918 0934 D296      		adiw r26,50
 1919 0936 62A9      		ldd r22,Z+50
 1920 0938 1196      		adiw r26,1
 1921 093a 7C91      		ld r23,X
 1922 093c 1197      		sbiw r26,1
 1923               	.LM227:
 1924 093e 1296      		adiw r26,2
 1925 0940 8C91      		ld r24,X
 1926 0942 1297      		sbiw r26,2
 1927 0944 1396      		adiw r26,3
 1928 0946 9C91      		ld r25,X
 1929               	.LVL139:
 1930               	/* epilogue start */
 1931 0948 0895      		ret
 1932               	.LFE40:
 1934               	.global	Timebase_UpCounter_SS_Set_PeriodValue
 1936               	Timebase_UpCounter_SS_Set_PeriodValue:
 1937               	.LFB41:
 1938               	.LM228:
 1939               	.LVL140:
 1940               	/* prologue: function */
 1941               	/* frame size = 0 */
 1942               	.LM229:
 1943 094a E091 0000 		lds r30,Timebase
 1944 094e F091 0000 		lds r31,(Timebase)+1
 1945 0952 90E0      		ldi r25,lo8(0)
 1946               	.LVL141:
 1947 0954 29E1      		ldi r18,lo8(25)
 1948 0956 30E0      		ldi r19,hi8(25)
 1949 0958 DC01      		movw r26,r24
 1950 095a A29F      		mul r26,r18
 1951 095c C001      		movw r24,r0
 1952 095e A39F      		mul r26,r19
 1953 0960 900D      		add r25,r0
 1954 0962 B29F      		mul r27,r18
 1955 0964 900D      		add r25,r0
 1956 0966 1124      		clr r1
 1957               	.LVL142:
 1958 0968 E80F      		add r30,r24
 1959 096a F91F      		adc r31,r25
 1960 096c 42AB      		std Z+50,r20
 1961 096e 53AB      		std Z+51,r21
 1962 0970 64AB      		std Z+52,r22
 1963 0972 75AB      		std Z+53,r23
 1964               	/* epilogue start */
 1965               	.LM230:
 1966 0974 0895      		ret
 1967               	.LFE41:
 1969               	.global	Timebase_UpCounter_SS_Get_Period_Flag
 1971               	Timebase_UpCounter_SS_Get_Period_Flag:
 1972               	.LFB42:
 1973               	.LM231:
 1974               	.LVL143:
 1975               	/* prologue: function */
 1976               	/* frame size = 0 */
 1977               	.LM232:
 1978 0976 E091 0000 		lds r30,Timebase
 1979 097a F091 0000 		lds r31,(Timebase)+1
 1980 097e 90E0      		ldi r25,lo8(0)
 1981               	.LVL144:
 1982 0980 29E1      		ldi r18,lo8(25)
 1983 0982 30E0      		ldi r19,hi8(25)
 1984 0984 AC01      		movw r20,r24
 1985 0986 429F      		mul r20,r18
 1986 0988 C001      		movw r24,r0
 1987 098a 439F      		mul r20,r19
 1988 098c 900D      		add r25,r0
 1989 098e 529F      		mul r21,r18
 1990 0990 900D      		add r25,r0
 1991 0992 1124      		clr r1
 1992               	.LVL145:
 1993 0994 E80F      		add r30,r24
 1994 0996 F91F      		adc r31,r25
 1995 0998 858D      		ldd r24,Z+29
 1996               	.LM233:
 1997 099a 8170      		andi r24,lo8(1)
 1998               	/* epilogue start */
 1999 099c 0895      		ret
 2000               	.LFE42:
 2002               	.global	Timebase_UpCounter_SS_Set_Period_Flag
 2004               	Timebase_UpCounter_SS_Set_Period_Flag:
 2005               	.LFB43:
 2006               	.LM234:
 2007               	.LVL146:
 2008               	/* prologue: function */
 2009               	/* frame size = 0 */
 2010               	.LM235:
 2011 099e E091 0000 		lds r30,Timebase
 2012 09a2 F091 0000 		lds r31,(Timebase)+1
 2013 09a6 90E0      		ldi r25,lo8(0)
 2014               	.LVL147:
 2015 09a8 29E1      		ldi r18,lo8(25)
 2016 09aa 30E0      		ldi r19,hi8(25)
 2017 09ac AC01      		movw r20,r24
 2018 09ae 429F      		mul r20,r18
 2019 09b0 C001      		movw r24,r0
 2020 09b2 439F      		mul r20,r19
 2021 09b4 900D      		add r25,r0
 2022 09b6 529F      		mul r21,r18
 2023 09b8 900D      		add r25,r0
 2024 09ba 1124      		clr r1
 2025               	.LVL148:
 2026 09bc E80F      		add r30,r24
 2027 09be F91F      		adc r31,r25
 2028 09c0 858D      		ldd r24,Z+29
 2029 09c2 8160      		ori r24,lo8(1)
 2030 09c4 858F      		std Z+29,r24
 2031               	/* epilogue start */
 2032               	.LM236:
 2033 09c6 0895      		ret
 2034               	.LFE43:
 2036               	.global	Timebase_UpCounter_SS_Clear_Period_Flag
 2038               	Timebase_UpCounter_SS_Clear_Period_Flag:
 2039               	.LFB44:
 2040               	.LM237:
 2041               	.LVL149:
 2042               	/* prologue: function */
 2043               	/* frame size = 0 */
 2044               	.LM238:
 2045 09c8 E091 0000 		lds r30,Timebase
 2046 09cc F091 0000 		lds r31,(Timebase)+1
 2047 09d0 90E0      		ldi r25,lo8(0)
 2048               	.LVL150:
 2049 09d2 29E1      		ldi r18,lo8(25)
 2050 09d4 30E0      		ldi r19,hi8(25)
 2051 09d6 AC01      		movw r20,r24
 2052 09d8 429F      		mul r20,r18
 2053 09da C001      		movw r24,r0
 2054 09dc 439F      		mul r20,r19
 2055 09de 900D      		add r25,r0
 2056 09e0 529F      		mul r21,r18
 2057 09e2 900D      		add r25,r0
 2058 09e4 1124      		clr r1
 2059               	.LVL151:
 2060 09e6 E80F      		add r30,r24
 2061 09e8 F91F      		adc r31,r25
 2062 09ea 858D      		ldd r24,Z+29
 2063 09ec 8E7F      		andi r24,lo8(-2)
 2064 09ee 858F      		std Z+29,r24
 2065               	/* epilogue start */
 2066               	.LM239:
 2067 09f0 0895      		ret
 2068               	.LFE44:
 2070               	.global	Timebase_UpCounter_SS_Reset
 2072               	Timebase_UpCounter_SS_Reset:
 2073               	.LFB45:
 2074               	.LM240:
 2075               	.LVL152:
 2076               	/* prologue: function */
 2077               	/* frame size = 0 */
 2078               	.LBB776:
 2079               	.LBB777:
 2080               	.LM241:
 2081 09f2 E091 0000 		lds r30,Timebase
 2082 09f6 F091 0000 		lds r31,(Timebase)+1
 2083 09fa 90E0      		ldi r25,lo8(0)
 2084 09fc 29E1      		ldi r18,lo8(25)
 2085 09fe 30E0      		ldi r19,hi8(25)
 2086 0a00 AC01      		movw r20,r24
 2087               	.LVL153:
 2088 0a02 429F      		mul r20,r18
 2089 0a04 C001      		movw r24,r0
 2090 0a06 439F      		mul r20,r19
 2091 0a08 900D      		add r25,r0
 2092 0a0a 529F      		mul r21,r18
 2093 0a0c 900D      		add r25,r0
 2094 0a0e 1124      		clr r1
 2095 0a10 E80F      		add r30,r24
 2096 0a12 F91F      		adc r31,r25
 2097 0a14 858D      		ldd r24,Z+29
 2098               	.LBE777:
 2099               	.LBE776:
 2100               	.LBB778:
 2101               	.LBB779:
 2102               	.LM242:
 2103 0a16 16A6      		std Z+46,__zero_reg__
 2104 0a18 17A6      		std Z+47,__zero_reg__
 2105 0a1a 10AA      		std Z+48,__zero_reg__
 2106 0a1c 11AA      		std Z+49,__zero_reg__
 2107               	.LBE779:
 2108               	.LBE778:
 2109               	.LBB780:
 2110               	.LBB781:
 2111               	.LM243:
 2112 0a1e 168E      		std Z+30,__zero_reg__
 2113 0a20 178E      		std Z+31,__zero_reg__
 2114 0a22 10A2      		std Z+32,__zero_reg__
 2115 0a24 11A2      		std Z+33,__zero_reg__
 2116               	.LBE781:
 2117               	.LBE780:
 2118               	.LBB782:
 2119               	.LBB783:
 2120               	.LM244:
 2121 0a26 12A2      		std Z+34,__zero_reg__
 2122 0a28 13A2      		std Z+35,__zero_reg__
 2123 0a2a 14A2      		std Z+36,__zero_reg__
 2124 0a2c 15A2      		std Z+37,__zero_reg__
 2125               	.LBE783:
 2126               	.LBE782:
 2127               	.LBB784:
 2128               	.LBB785:
 2129               	.LM245:
 2130 0a2e 16A2      		std Z+38,__zero_reg__
 2131 0a30 17A2      		std Z+39,__zero_reg__
 2132 0a32 10A6      		std Z+40,__zero_reg__
 2133 0a34 11A6      		std Z+41,__zero_reg__
 2134               	.LBE785:
 2135               	.LBE784:
 2136               	.LBB786:
 2137               	.LBB787:
 2138               	.LM246:
 2139 0a36 12A6      		std Z+42,__zero_reg__
 2140 0a38 13A6      		std Z+43,__zero_reg__
 2141 0a3a 14A6      		std Z+44,__zero_reg__
 2142 0a3c 15A6      		std Z+45,__zero_reg__
 2143               	.LBE787:
 2144               	.LBE786:
 2145               	.LBB788:
 2146               	.LBB789:
 2147               	.LM247:
 2148 0a3e 12AA      		std Z+50,__zero_reg__
 2149 0a40 13AA      		std Z+51,__zero_reg__
 2150 0a42 14AA      		std Z+52,__zero_reg__
 2151 0a44 15AA      		std Z+53,__zero_reg__
 2152               	.LBE789:
 2153               	.LBE788:
 2154               	.LBB790:
 2155               	.LBB791:
 2156               	.LM248:
 2157 0a46 807E      		andi r24,lo8(-32)
 2158 0a48 858F      		std Z+29,r24
 2159               	/* epilogue start */
 2160               	.LBE791:
 2161               	.LBE790:
 2162               	.LM249:
 2163 0a4a 0895      		ret
 2164               	.LFE45:
 2166               	.global	Timebase_UpCounter_SS_Clear_All_Flags
 2168               	Timebase_UpCounter_SS_Clear_All_Flags:
 2169               	.LFB46:
 2170               	.LM250:
 2171               	.LVL154:
 2172               	/* prologue: function */
 2173               	/* frame size = 0 */
 2174               	.LM251:
 2175 0a4c 0E94 0000 		call Timebase_UpCounter_SS_Reset
 2176               	.LVL155:
 2177               	/* epilogue start */
 2178               	.LM252:
 2179 0a50 0895      		ret
 2180               	.LFE46:
 2182               	.global	Timebase_UpCounter_SS_Start
 2184               	Timebase_UpCounter_SS_Start:
 2185               	.LFB47:
 2186               	.LM253:
 2187               	.LVL156:
 2188               	/* prologue: function */
 2189               	/* frame size = 0 */
 2190               	.LBB792:
 2191               	.LBB793:
 2192               	.LM254:
 2193 0a52 E091 0000 		lds r30,Timebase
 2194 0a56 F091 0000 		lds r31,(Timebase)+1
 2195 0a5a 90E0      		ldi r25,lo8(0)
 2196               	.LBE793:
 2197               	.LBE792:
 2198               	.LM255:
 2199 0a5c 29E1      		ldi r18,lo8(25)
 2200 0a5e 30E0      		ldi r19,hi8(25)
 2201 0a60 AC01      		movw r20,r24
 2202               	.LVL157:
 2203 0a62 429F      		mul r20,r18
 2204 0a64 C001      		movw r24,r0
 2205 0a66 439F      		mul r20,r19
 2206 0a68 900D      		add r25,r0
 2207 0a6a 529F      		mul r21,r18
 2208 0a6c 900D      		add r25,r0
 2209 0a6e 1124      		clr r1
 2210 0a70 E80F      		add r30,r24
 2211 0a72 F91F      		adc r31,r25
 2212 0a74 958D      		ldd r25,Z+29
 2213 0a76 892F      		mov r24,r25
 2214 0a78 8695      		lsr r24
 2215 0a7a 8F70      		andi r24,lo8(15)
 2216 0a7c 8130      		cpi r24,lo8(1)
 2217 0a7e 01F0      		breq .L120
 2218               	.LBB794:
 2219               	.LBB795:
 2220               	.LM256:
 2221 0a80 917E      		andi r25,lo8(-31)
 2222 0a82 9260      		ori r25,lo8(2)
 2223 0a84 958F      		std Z+29,r25
 2224               	.L120:
 2225 0a86 0895      		ret
 2226               	.LBE795:
 2227               	.LBE794:
 2228               	.LFE47:
 2230               	.global	Timebase_UpCounter_SS_Stop
 2232               	Timebase_UpCounter_SS_Stop:
 2233               	.LFB48:
 2234               	.LM257:
 2235               	.LVL158:
 2236               	/* prologue: function */
 2237               	/* frame size = 0 */
 2238               	.LBB796:
 2239               	.LBB797:
 2240               	.LM258:
 2241 0a88 E091 0000 		lds r30,Timebase
 2242 0a8c F091 0000 		lds r31,(Timebase)+1
 2243 0a90 90E0      		ldi r25,lo8(0)
 2244               	.LBE797:
 2245               	.LBE796:
 2246               	.LM259:
 2247 0a92 29E1      		ldi r18,lo8(25)
 2248 0a94 30E0      		ldi r19,hi8(25)
 2249 0a96 AC01      		movw r20,r24
 2250               	.LVL159:
 2251 0a98 429F      		mul r20,r18
 2252 0a9a C001      		movw r24,r0
 2253 0a9c 439F      		mul r20,r19
 2254 0a9e 900D      		add r25,r0
 2255 0aa0 529F      		mul r21,r18
 2256 0aa2 900D      		add r25,r0
 2257 0aa4 1124      		clr r1
 2258 0aa6 E80F      		add r30,r24
 2259 0aa8 F91F      		adc r31,r25
 2260 0aaa 958D      		ldd r25,Z+29
 2261 0aac 892F      		mov r24,r25
 2262 0aae 8695      		lsr r24
 2263 0ab0 8F70      		andi r24,lo8(15)
 2264 0ab2 8230      		cpi r24,lo8(2)
 2265 0ab4 01F0      		breq .L123
 2266               	.LBB798:
 2267               	.LBB799:
 2268               	.LM260:
 2269 0ab6 917E      		andi r25,lo8(-31)
 2270 0ab8 9460      		ori r25,lo8(4)
 2271 0aba 958F      		std Z+29,r25
 2272               	.L123:
 2273 0abc 0895      		ret
 2274               	.LBE799:
 2275               	.LBE798:
 2276               	.LFE48:
 2278               	.global	Timebase_UpCounter_SS_Set_Securely
 2280               	Timebase_UpCounter_SS_Set_Securely:
 2281               	.LFB49:
 2282               	.LM261:
 2283               	.LVL160:
 2284 0abe 2F92      		push r2
 2285 0ac0 3F92      		push r3
 2286 0ac2 4F92      		push r4
 2287 0ac4 5F92      		push r5
 2288 0ac6 6F92      		push r6
 2289 0ac8 7F92      		push r7
 2290 0aca 8F92      		push r8
 2291 0acc 9F92      		push r9
 2292 0ace AF92      		push r10
 2293 0ad0 BF92      		push r11
 2294 0ad2 CF92      		push r12
 2295 0ad4 DF92      		push r13
 2296 0ad6 EF92      		push r14
 2297 0ad8 FF92      		push r15
 2298 0ada 0F93      		push r16
 2299 0adc 1F93      		push r17
 2300 0ade DF93      		push r29
 2301 0ae0 CF93      		push r28
 2302 0ae2 00D0      		rcall .
 2303 0ae4 00D0      		rcall .
 2304 0ae6 CDB7      		in r28,__SP_L__
 2305 0ae8 DEB7      		in r29,__SP_H__
 2306               	/* prologue: function */
 2307               	/* frame size = 4 */
 2308 0aea 4A01      		movw r8,r20
 2309 0aec 5B01      		movw r10,r22
 2310               	.LBB800:
 2311               	.LBB801:
 2312               	.LM262:
 2313 0aee 2091 0000 		lds r18,Timebase
 2314 0af2 3091 0000 		lds r19,(Timebase)+1
 2315 0af6 3C83      		std Y+4,r19
 2316 0af8 2B83      		std Y+3,r18
 2317 0afa A82F      		mov r26,r24
 2318 0afc B0E0      		ldi r27,lo8(0)
 2319 0afe BA83      		std Y+2,r27
 2320 0b00 A983      		std Y+1,r26
 2321               	.LBE801:
 2322               	.LBE800:
 2323               	.LM263:
 2324 0b02 89E1      		ldi r24,lo8(25)
 2325 0b04 90E0      		ldi r25,hi8(25)
 2326               	.LVL161:
 2327 0b06 A89F      		mul r26,r24
 2328 0b08 F001      		movw r30,r0
 2329 0b0a A99F      		mul r26,r25
 2330 0b0c F00D      		add r31,r0
 2331 0b0e B89F      		mul r27,r24
 2332 0b10 F00D      		add r31,r0
 2333 0b12 1124      		clr r1
 2334 0b14 E20F      		add r30,r18
 2335 0b16 F31F      		adc r31,r19
 2336 0b18 858D      		ldd r24,Z+29
 2337 0b1a 8695      		lsr r24
 2338 0b1c 8F70      		andi r24,lo8(15)
 2339 0b1e 01F0      		breq .+2
 2340 0b20 00C0      		rjmp .L127
 2341               	.LVL162:
 2342               	.LBB802:
 2343               	.LBB803:
 2344               	.LM264:
 2345 0b22 16A6      		std Z+46,__zero_reg__
 2346 0b24 17A6      		std Z+47,__zero_reg__
 2347 0b26 10AA      		std Z+48,__zero_reg__
 2348 0b28 11AA      		std Z+49,__zero_reg__
 2349               	.LBE803:
 2350               	.LBE802:
 2351               	.LBB804:
 2352               	.LBB805:
 2353               	.LM265:
 2354 0b2a 12A6      		std Z+42,__zero_reg__
 2355 0b2c 13A6      		std Z+43,__zero_reg__
 2356 0b2e 14A6      		std Z+44,__zero_reg__
 2357 0b30 15A6      		std Z+45,__zero_reg__
 2358               	.LBE805:
 2359               	.LBE804:
 2360               	.LBB806:
 2361               	.LBB807:
 2362               	.LM266:
 2363 0b32 46A3      		std Z+38,r20
 2364 0b34 57A3      		std Z+39,r21
 2365 0b36 60A7      		std Z+40,r22
 2366 0b38 71A7      		std Z+41,r23
 2367               	.LBE807:
 2368               	.LBE806:
 2369               	.LBB808:
 2370               	.LBB809:
 2371               	.LM267:
 2372 0b3a F901      		movw r30,r18
 2373 0b3c C184      		ldd r12,Z+9
 2374 0b3e D284      		ldd r13,Z+10
 2375               	.LBE809:
 2376               	.LBE808:
 2377               	.LBB810:
 2378               	.LBB811:
 2379               	.LM268:
 2380 0b40 2384      		ldd r2,Z+11
 2381 0b42 3484      		ldd r3,Z+12
 2382 0b44 4584      		ldd r4,Z+13
 2383 0b46 5684      		ldd r5,Z+14
 2384               	.LVL163:
 2385               	.LBE811:
 2386               	.LBE810:
 2387               	.LM269:
 2388 0b48 2081      		ld r18,Z
 2389 0b4a 3181      		ldd r19,Z+1
 2390 0b4c 40E0      		ldi r20,lo8(0)
 2391 0b4e 50E0      		ldi r21,hi8(0)
 2392 0b50 C501      		movw r24,r10
 2393 0b52 B401      		movw r22,r8
 2394 0b54 0E94 0000 		call __divmodsi4
 2395 0b58 7B01      		movw r14,r22
 2396 0b5a 8C01      		movw r16,r24
 2397               	.LM270:
 2398 0b5c AB81      		ldd r26,Y+3
 2399 0b5e BC81      		ldd r27,Y+4
 2400 0b60 2D91      		ld r18,X+
 2401 0b62 3C91      		ld r19,X
 2402 0b64 40E0      		ldi r20,lo8(0)
 2403 0b66 50E0      		ldi r21,hi8(0)
 2404 0b68 C501      		movw r24,r10
 2405 0b6a B401      		movw r22,r8
 2406 0b6c 0E94 0000 		call __divmodsi4
 2407 0b70 C901      		movw r24,r18
 2408 0b72 DA01      		movw r26,r20
 2409 0b74 3C01      		movw r6,r24
 2410 0b76 4D01      		movw r8,r26
 2411               	.LVL164:
 2412               	.LM271:
 2413 0b78 5601      		movw r10,r12
 2414               	.LVL165:
 2415 0b7a CC24      		clr r12
 2416 0b7c DD24      		clr r13
 2417               	.LVL166:
 2418 0b7e AE0C      		add r10,r14
 2419 0b80 BF1C      		adc r11,r15
 2420 0b82 C01E      		adc r12,r16
 2421 0b84 D11E      		adc r13,r17
 2422               	.LVL167:
 2423               	.LM272:
 2424 0b86 EB81      		ldd r30,Y+3
 2425 0b88 FC81      		ldd r31,Y+4
 2426 0b8a 8081      		ld r24,Z
 2427 0b8c 9181      		ldd r25,Z+1
 2428               	.LVL168:
 2429 0b8e A0E0      		ldi r26,lo8(0)
 2430 0b90 B0E0      		ldi r27,hi8(0)
 2431 0b92 A816      		cp r10,r24
 2432 0b94 B906      		cpc r11,r25
 2433 0b96 CA06      		cpc r12,r26
 2434 0b98 DB06      		cpc r13,r27
 2435 0b9a 04F0      		brlt .L126
 2436               	.LM273:
 2437 0b9c 0894      		sec
 2438 0b9e 611C      		adc r6,__zero_reg__
 2439 0ba0 711C      		adc r7,__zero_reg__
 2440 0ba2 811C      		adc r8,__zero_reg__
 2441 0ba4 911C      		adc r9,__zero_reg__
 2442               	.LM274:
 2443 0ba6 2081      		ld r18,Z
 2444 0ba8 3181      		ldd r19,Z+1
 2445 0baa 40E0      		ldi r20,lo8(0)
 2446 0bac 50E0      		ldi r21,hi8(0)
 2447 0bae C601      		movw r24,r12
 2448 0bb0 B501      		movw r22,r10
 2449 0bb2 0E94 0000 		call __divmodsi4
 2450 0bb6 AC01      		movw r20,r24
 2451 0bb8 CB01      		movw r24,r22
 2452 0bba DA01      		movw r26,r20
 2453 0bbc 5C01      		movw r10,r24
 2454 0bbe 6D01      		movw r12,r26
 2455               	.L126:
 2456               	.LBB812:
 2457               	.LBB813:
 2458               	.LM275:
 2459 0bc0 89E1      		ldi r24,lo8(25)
 2460 0bc2 90E0      		ldi r25,hi8(25)
 2461 0bc4 2981      		ldd r18,Y+1
 2462 0bc6 3A81      		ldd r19,Y+2
 2463 0bc8 289F      		mul r18,r24
 2464 0bca F001      		movw r30,r0
 2465 0bcc 299F      		mul r18,r25
 2466 0bce F00D      		add r31,r0
 2467 0bd0 389F      		mul r19,r24
 2468 0bd2 F00D      		add r31,r0
 2469 0bd4 1124      		clr r1
 2470 0bd6 8B81      		ldd r24,Y+3
 2471 0bd8 9C81      		ldd r25,Y+4
 2472 0bda E80F      		add r30,r24
 2473 0bdc F91F      		adc r31,r25
 2474 0bde 260C      		add r2,r6
 2475 0be0 371C      		adc r3,r7
 2476 0be2 481C      		adc r4,r8
 2477 0be4 591C      		adc r5,r9
 2478 0be6 268E      		std Z+30,r2
 2479 0be8 378E      		std Z+31,r3
 2480 0bea 40A2      		std Z+32,r4
 2481 0bec 51A2      		std Z+33,r5
 2482               	.LBE813:
 2483               	.LBE812:
 2484               	.LBB814:
 2485               	.LBB815:
 2486               	.LM276:
 2487 0bee A2A2      		std Z+34,r10
 2488 0bf0 B3A2      		std Z+35,r11
 2489 0bf2 C4A2      		std Z+36,r12
 2490 0bf4 D5A2      		std Z+37,r13
 2491               	.LBE815:
 2492               	.LBE814:
 2493               	.LBB816:
 2494               	.LBB817:
 2495               	.LM277:
 2496 0bf6 958D      		ldd r25,Z+29
 2497 0bf8 892F      		mov r24,r25
 2498 0bfa 8695      		lsr r24
 2499 0bfc 8F70      		andi r24,lo8(15)
 2500 0bfe 8130      		cpi r24,lo8(1)
 2501 0c00 01F0      		breq .L127
 2502               	.LBB818:
 2503               	.LBB819:
 2504               	.LM278:
 2505 0c02 917E      		andi r25,lo8(-31)
 2506 0c04 9260      		ori r25,lo8(2)
 2507 0c06 958F      		std Z+29,r25
 2508               	.LVL169:
 2509               	.L127:
 2510               	/* epilogue start */
 2511               	.LBE819:
 2512               	.LBE818:
 2513               	.LBE817:
 2514               	.LBE816:
 2515               	.LM279:
 2516 0c08 0F90      		pop __tmp_reg__
 2517 0c0a 0F90      		pop __tmp_reg__
 2518 0c0c 0F90      		pop __tmp_reg__
 2519 0c0e 0F90      		pop __tmp_reg__
 2520 0c10 CF91      		pop r28
 2521 0c12 DF91      		pop r29
 2522 0c14 1F91      		pop r17
 2523 0c16 0F91      		pop r16
 2524 0c18 FF90      		pop r15
 2525 0c1a EF90      		pop r14
 2526 0c1c DF90      		pop r13
 2527 0c1e CF90      		pop r12
 2528               	.LVL170:
 2529 0c20 BF90      		pop r11
 2530 0c22 AF90      		pop r10
 2531               	.LVL171:
 2532 0c24 9F90      		pop r9
 2533 0c26 8F90      		pop r8
 2534               	.LVL172:
 2535 0c28 7F90      		pop r7
 2536 0c2a 6F90      		pop r6
 2537               	.LVL173:
 2538 0c2c 5F90      		pop r5
 2539 0c2e 4F90      		pop r4
 2540 0c30 3F90      		pop r3
 2541 0c32 2F90      		pop r2
 2542               	.LVL174:
 2543 0c34 0895      		ret
 2544               	.LFE49:
 2546               	.global	Timebase_UpCounter_SS_Set_Forcefully
 2548               	Timebase_UpCounter_SS_Set_Forcefully:
 2549               	.LFB50:
 2550               	.LM280:
 2551               	.LVL175:
 2552 0c36 DF92      		push r13
 2553 0c38 EF92      		push r14
 2554 0c3a FF92      		push r15
 2555 0c3c 0F93      		push r16
 2556 0c3e 1F93      		push r17
 2557               	/* prologue: function */
 2558               	/* frame size = 0 */
 2559 0c40 D82E      		mov r13,r24
 2560 0c42 7A01      		movw r14,r20
 2561 0c44 8B01      		movw r16,r22
 2562               	.LM281:
 2563 0c46 0E94 0000 		call Timebase_UpCounter_SS_Reset
 2564               	.LVL176:
 2565               	.LM282:
 2566 0c4a 8D2D      		mov r24,r13
 2567 0c4c B801      		movw r22,r16
 2568 0c4e A701      		movw r20,r14
 2569 0c50 0E94 0000 		call Timebase_UpCounter_SS_Set_Securely
 2570               	/* epilogue start */
 2571               	.LM283:
 2572 0c54 1F91      		pop r17
 2573 0c56 0F91      		pop r16
 2574 0c58 FF90      		pop r15
 2575 0c5a EF90      		pop r14
 2576               	.LVL177:
 2577 0c5c DF90      		pop r13
 2578               	.LVL178:
 2579 0c5e 0895      		ret
 2580               	.LFE50:
 2582               	.global	Timebase_UpCounter_SS_Update
 2584               	Timebase_UpCounter_SS_Update:
 2585               	.LFB51:
 2586               	.LM284:
 2587               	.LVL179:
 2588 0c60 2F92      		push r2
 2589 0c62 3F92      		push r3
 2590 0c64 4F92      		push r4
 2591 0c66 5F92      		push r5
 2592 0c68 6F92      		push r6
 2593 0c6a 7F92      		push r7
 2594 0c6c 8F92      		push r8
 2595 0c6e 9F92      		push r9
 2596 0c70 AF92      		push r10
 2597 0c72 BF92      		push r11
 2598 0c74 CF92      		push r12
 2599 0c76 DF92      		push r13
 2600 0c78 EF92      		push r14
 2601 0c7a FF92      		push r15
 2602 0c7c 0F93      		push r16
 2603 0c7e 1F93      		push r17
 2604 0c80 DF93      		push r29
 2605 0c82 CF93      		push r28
 2606 0c84 00D0      		rcall .
 2607 0c86 00D0      		rcall .
 2608 0c88 00D0      		rcall .
 2609 0c8a CDB7      		in r28,__SP_L__
 2610 0c8c DEB7      		in r29,__SP_H__
 2611               	/* prologue: function */
 2612               	/* frame size = 6 */
 2613               	.LBB820:
 2614               	.LBB821:
 2615               	.LM285:
 2616 0c8e 2090 0000 		lds r2,Timebase
 2617 0c92 3090 0000 		lds r3,(Timebase)+1
 2618 0c96 282F      		mov r18,r24
 2619 0c98 30E0      		ldi r19,lo8(0)
 2620 0c9a 3E83      		std Y+6,r19
 2621 0c9c 2D83      		std Y+5,r18
 2622 0c9e 89E1      		ldi r24,lo8(25)
 2623 0ca0 90E0      		ldi r25,hi8(25)
 2624               	.LVL180:
 2625 0ca2 289F      		mul r18,r24
 2626 0ca4 5001      		movw r10,r0
 2627 0ca6 299F      		mul r18,r25
 2628 0ca8 B00C      		add r11,r0
 2629 0caa 389F      		mul r19,r24
 2630 0cac B00C      		add r11,r0
 2631 0cae 1124      		clr r1
 2632 0cb0 A20C      		add r10,r2
 2633 0cb2 B31C      		adc r11,r3
 2634 0cb4 D501      		movw r26,r10
 2635 0cb6 5D96      		adiw r26,29
 2636 0cb8 8C91      		ld r24,X
 2637 0cba 8695      		lsr r24
 2638 0cbc 8F70      		andi r24,lo8(15)
 2639               	.LBE821:
 2640               	.LBE820:
 2641               	.LM286:
 2642 0cbe 8130      		cpi r24,lo8(1)
 2643 0cc0 01F0      		breq .+2
 2644 0cc2 00C0      		rjmp .L131
 2645               	.LBB822:
 2646               	.LBB823:
 2647               	.LM287:
 2648 0cc4 F101      		movw r30,r2
 2649 0cc6 8385      		ldd r24,Z+11
 2650 0cc8 9485      		ldd r25,Z+12
 2651 0cca A585      		ldd r26,Z+13
 2652 0ccc B685      		ldd r27,Z+14
 2653               	.LVL181:
 2654               	.LBE823:
 2655               	.LBE822:
 2656               	.LBB824:
 2657               	.LBB825:
 2658               	.LM288:
 2659 0cce E184      		ldd r14,Z+9
 2660 0cd0 F284      		ldd r15,Z+10
 2661               	.LBE825:
 2662               	.LBE824:
 2663               	.LM289:
 2664 0cd2 00E0      		ldi r16,lo8(0)
 2665 0cd4 10E0      		ldi r17,hi8(0)
 2666               	.LVL182:
 2667               	.LM290:
 2668 0cd6 F501      		movw r30,r10
 2669 0cd8 268D      		ldd r18,Z+30
 2670 0cda 378D      		ldd r19,Z+31
 2671 0cdc 40A1      		ldd r20,Z+32
 2672 0cde 51A1      		ldd r21,Z+33
 2673 0ce0 281B      		sub r18,r24
 2674 0ce2 390B      		sbc r19,r25
 2675 0ce4 4A0B      		sbc r20,r26
 2676 0ce6 5B0B      		sbc r21,r27
 2677               	.LM291:
 2678 0ce8 D101      		movw r26,r2
 2679 0cea 6D91      		ld r22,X+
 2680 0cec 7C91      		ld r23,X
 2681               	.LM292:
 2682 0cee 80E0      		ldi r24,lo8(0)
 2683 0cf0 90E0      		ldi r25,hi8(0)
 2684               	.LVL183:
 2685 0cf2 0E94 0000 		call __mulsi3
 2686 0cf6 9B01      		movw r18,r22
 2687 0cf8 AC01      		movw r20,r24
 2688               	.LVL184:
 2689 0cfa 2E19      		sub r18,r14
 2690 0cfc 3F09      		sbc r19,r15
 2691 0cfe 400B      		sbc r20,r16
 2692 0d00 510B      		sbc r21,r17
 2693               	.LM293:
 2694 0d02 F501      		movw r30,r10
 2695 0d04 82A1      		ldd r24,Z+34
 2696 0d06 93A1      		ldd r25,Z+35
 2697 0d08 A4A1      		ldd r26,Z+36
 2698 0d0a B5A1      		ldd r27,Z+37
 2699 0d0c 280F      		add r18,r24
 2700 0d0e 391F      		adc r19,r25
 2701 0d10 4A1F      		adc r20,r26
 2702 0d12 5B1F      		adc r21,r27
 2703 0d14 57FF      		sbrs r21,7
 2704 0d16 00C0      		rjmp .L132
 2705 0d18 20E0      		ldi r18,lo8(0)
 2706 0d1a 30E0      		ldi r19,hi8(0)
 2707 0d1c 40E0      		ldi r20,hlo8(0)
 2708 0d1e 50E0      		ldi r21,hhi8(0)
 2709               	.L132:
 2710               	.LBB826:
 2711               	.LBB827:
 2712               	.LM294:
 2713 0d20 89E1      		ldi r24,lo8(25)
 2714 0d22 90E0      		ldi r25,hi8(25)
 2715 0d24 6D81      		ldd r22,Y+5
 2716 0d26 7E81      		ldd r23,Y+6
 2717 0d28 689F      		mul r22,r24
 2718 0d2a F001      		movw r30,r0
 2719 0d2c 699F      		mul r22,r25
 2720 0d2e F00D      		add r31,r0
 2721 0d30 789F      		mul r23,r24
 2722 0d32 F00D      		add r31,r0
 2723 0d34 1124      		clr r1
 2724 0d36 E20D      		add r30,r2
 2725 0d38 F31D      		adc r31,r3
 2726 0d3a 22A7      		std Z+42,r18
 2727 0d3c 33A7      		std Z+43,r19
 2728 0d3e 44A7      		std Z+44,r20
 2729 0d40 55A7      		std Z+45,r21
 2730               	.LBE827:
 2731               	.LBE826:
 2732               	.LM295:
 2733 0d42 86A1      		ldd r24,Z+38
 2734 0d44 97A1      		ldd r25,Z+39
 2735 0d46 A0A5      		ldd r26,Z+40
 2736 0d48 B1A5      		ldd r27,Z+41
 2737               	.LVL185:
 2738               	.LBB828:
 2739               	.LBB829:
 2740               	.LM296:
 2741 0d4a 821B      		sub r24,r18
 2742 0d4c 930B      		sbc r25,r19
 2743 0d4e A40B      		sbc r26,r20
 2744 0d50 B50B      		sbc r27,r21
 2745 0d52 B7FF      		sbrs r27,7
 2746 0d54 00C0      		rjmp .L133
 2747 0d56 80E0      		ldi r24,lo8(0)
 2748 0d58 90E0      		ldi r25,hi8(0)
 2749 0d5a A0E0      		ldi r26,hlo8(0)
 2750 0d5c B0E0      		ldi r27,hhi8(0)
 2751               	.L133:
 2752 0d5e 86A7      		std Z+46,r24
 2753 0d60 97A7      		std Z+47,r25
 2754 0d62 A0AB      		std Z+48,r26
 2755 0d64 B1AB      		std Z+49,r27
 2756               	.LBE829:
 2757               	.LBE828:
 2758               	.LM297:
 2759 0d66 89E1      		ldi r24,lo8(25)
 2760 0d68 90E0      		ldi r25,hi8(25)
 2761               	.LVL186:
 2762 0d6a AD81      		ldd r26,Y+5
 2763 0d6c BE81      		ldd r27,Y+6
 2764 0d6e A89F      		mul r26,r24
 2765 0d70 B001      		movw r22,r0
 2766 0d72 A99F      		mul r26,r25
 2767 0d74 700D      		add r23,r0
 2768 0d76 B89F      		mul r27,r24
 2769 0d78 700D      		add r23,r0
 2770 0d7a 1124      		clr r1
 2771 0d7c 620D      		add r22,r2
 2772 0d7e 731D      		adc r23,r3
 2773 0d80 FB01      		movw r30,r22
 2774 0d82 82A5      		ldd r24,Z+42
 2775 0d84 93A5      		ldd r25,Z+43
 2776 0d86 A4A5      		ldd r26,Z+44
 2777 0d88 B5A5      		ldd r27,Z+45
 2778 0d8a 1816      		cp __zero_reg__,r24
 2779 0d8c 1906      		cpc __zero_reg__,r25
 2780 0d8e 1A06      		cpc __zero_reg__,r26
 2781 0d90 1B06      		cpc __zero_reg__,r27
 2782 0d92 04F4      		brge .+2
 2783 0d94 00C0      		rjmp .L138
 2784               	.LBB830:
 2785               	.LBB831:
 2786               	.LM298:
 2787 0d96 DB01      		movw r26,r22
 2788 0d98 5E96      		adiw r26,30
 2789 0d9a 1D92      		st X+,__zero_reg__
 2790 0d9c 1D92      		st X+,__zero_reg__
 2791 0d9e 1D92      		st X+,__zero_reg__
 2792 0da0 1C92      		st X,__zero_reg__
 2793 0da2 9197      		sbiw r26,30+3
 2794               	.LBE831:
 2795               	.LBE830:
 2796               	.LBB832:
 2797               	.LBB833:
 2798               	.LM299:
 2799 0da4 12A2      		std Z+34,__zero_reg__
 2800 0da6 13A2      		std Z+35,__zero_reg__
 2801 0da8 14A2      		std Z+36,__zero_reg__
 2802 0daa 15A2      		std Z+37,__zero_reg__
 2803               	.LBE833:
 2804               	.LBE832:
 2805               	.LBB834:
 2806               	.LBB835:
 2807               	.LM300:
 2808 0dac 9A96      		adiw r26,42
 2809 0dae 1D92      		st X+,__zero_reg__
 2810 0db0 1D92      		st X+,__zero_reg__
 2811 0db2 1D92      		st X+,__zero_reg__
 2812 0db4 1C92      		st X,__zero_reg__
 2813 0db6 9D97      		sbiw r26,42+3
 2814               	.LBE835:
 2815               	.LBE834:
 2816               	.LBB836:
 2817               	.LBB837:
 2818               	.LM301:
 2819 0db8 B696      		adiw r30,38
 2820               	.LBE837:
 2821               	.LBE836:
 2822               	.LBB838:
 2823               	.LBB839:
 2824               	.LM302:
 2825 0dba 9696      		adiw r26,38
 2826 0dbc 2C91      		ld r18,X
 2827               	.LVL187:
 2828 0dbe 3181      		ldd r19,Z+1
 2829               	.LVL188:
 2830 0dc0 4281      		ldd r20,Z+2
 2831               	.LVL189:
 2832 0dc2 5381      		ldd r21,Z+3
 2833               	.LVL190:
 2834 0dc4 C901      		movw r24,r18
 2835               	.LVL191:
 2836 0dc6 DA01      		movw r26,r20
 2837               	.LVL192:
 2838 0dc8 B7FF      		sbrs r27,7
 2839 0dca 00C0      		rjmp .L135
 2840               	.LVL193:
 2841 0dcc 80E0      		ldi r24,lo8(0)
 2842 0dce 90E0      		ldi r25,hi8(0)
 2843 0dd0 A0E0      		ldi r26,hlo8(0)
 2844 0dd2 B0E0      		ldi r27,hhi8(0)
 2845               	.L135:
 2846 0dd4 FB01      		movw r30,r22
 2847 0dd6 86A7      		std Z+46,r24
 2848 0dd8 97A7      		std Z+47,r25
 2849 0dda A0AB      		std Z+48,r26
 2850 0ddc B1AB      		std Z+49,r27
 2851               	.LBE839:
 2852               	.LBE838:
 2853               	.LBB840:
 2854               	.LBB841:
 2855               	.LM303:
 2856 0dde 89E1      		ldi r24,lo8(25)
 2857 0de0 90E0      		ldi r25,hi8(25)
 2858               	.LVL194:
 2859 0de2 2D81      		ldd r18,Y+5
 2860 0de4 3E81      		ldd r19,Y+6
 2861 0de6 289F      		mul r18,r24
 2862 0de8 F001      		movw r30,r0
 2863 0dea 299F      		mul r18,r25
 2864 0dec F00D      		add r31,r0
 2865 0dee 389F      		mul r19,r24
 2866 0df0 F00D      		add r31,r0
 2867 0df2 1124      		clr r1
 2868 0df4 E20D      		add r30,r2
 2869 0df6 F31D      		adc r31,r3
 2870 0df8 858D      		ldd r24,Z+29
 2871 0dfa 817E      		andi r24,lo8(-31)
 2872 0dfc 8860      		ori r24,lo8(8)
 2873 0dfe 858F      		std Z+29,r24
 2874 0e00 00C0      		rjmp .L138
 2875               	.LVL195:
 2876               	.L131:
 2877               	.LBE841:
 2878               	.LBE840:
 2879               	.LM304:
 2880 0e02 8230      		cpi r24,lo8(2)
 2881 0e04 01F0      		breq .+2
 2882 0e06 00C0      		rjmp .L138
 2883               	.LBB842:
 2884               	.LBB843:
 2885               	.LM305:
 2886 0e08 D101      		movw r26,r2
 2887 0e0a 1B96      		adiw r26,11
 2888 0e0c 6D91      		ld r22,X+
 2889 0e0e 7D91      		ld r23,X+
 2890 0e10 8D91      		ld r24,X+
 2891 0e12 9C91      		ld r25,X
 2892 0e14 1E97      		sbiw r26,11+3
 2893 0e16 6983      		std Y+1,r22
 2894 0e18 7A83      		std Y+2,r23
 2895 0e1a 8B83      		std Y+3,r24
 2896 0e1c 9C83      		std Y+4,r25
 2897               	.LVL196:
 2898               	.LBE843:
 2899               	.LBE842:
 2900               	.LBB844:
 2901               	.LBB845:
 2902               	.LM306:
 2903 0e1e 1996      		adiw r26,9
 2904 0e20 8D90      		ld r8,X+
 2905 0e22 9C90      		ld r9,X
 2906 0e24 1A97      		sbiw r26,9+1
 2907               	.LBE845:
 2908               	.LBE844:
 2909               	.LBB846:
 2910               	.LBB847:
 2911               	.LM307:
 2912 0e26 F501      		movw r30,r10
 2913 0e28 A2A4      		ldd r10,Z+42
 2914 0e2a B3A4      		ldd r11,Z+43
 2915 0e2c C4A4      		ldd r12,Z+44
 2916 0e2e D5A4      		ldd r13,Z+45
 2917               	.LVL197:
 2918               	.LBE847:
 2919               	.LBE846:
 2920               	.LM308:
 2921 0e30 2D91      		ld r18,X+
 2922 0e32 3C91      		ld r19,X
 2923 0e34 40E0      		ldi r20,lo8(0)
 2924 0e36 50E0      		ldi r21,hi8(0)
 2925 0e38 C601      		movw r24,r12
 2926 0e3a B501      		movw r22,r10
 2927 0e3c 0E94 0000 		call __divmodsi4
 2928 0e40 7B01      		movw r14,r22
 2929 0e42 8C01      		movw r16,r24
 2930               	.LM309:
 2931 0e44 D101      		movw r26,r2
 2932 0e46 2D91      		ld r18,X+
 2933 0e48 3C91      		ld r19,X
 2934 0e4a 40E0      		ldi r20,lo8(0)
 2935 0e4c 50E0      		ldi r21,hi8(0)
 2936 0e4e C601      		movw r24,r12
 2937 0e50 B501      		movw r22,r10
 2938 0e52 0E94 0000 		call __divmodsi4
 2939 0e56 C901      		movw r24,r18
 2940 0e58 DA01      		movw r26,r20
 2941 0e5a 2C01      		movw r4,r24
 2942 0e5c 3D01      		movw r6,r26
 2943               	.LVL198:
 2944               	.LM310:
 2945 0e5e AA24      		clr r10
 2946 0e60 BB24      		clr r11
 2947               	.LVL199:
 2948 0e62 8E0C      		add r8,r14
 2949 0e64 9F1C      		adc r9,r15
 2950 0e66 A01E      		adc r10,r16
 2951 0e68 B11E      		adc r11,r17
 2952               	.LVL200:
 2953               	.LM311:
 2954 0e6a F101      		movw r30,r2
 2955 0e6c 8081      		ld r24,Z
 2956 0e6e 9181      		ldd r25,Z+1
 2957               	.LVL201:
 2958 0e70 A0E0      		ldi r26,lo8(0)
 2959 0e72 B0E0      		ldi r27,hi8(0)
 2960 0e74 8816      		cp r8,r24
 2961 0e76 9906      		cpc r9,r25
 2962 0e78 AA06      		cpc r10,r26
 2963 0e7a BB06      		cpc r11,r27
 2964 0e7c 04F0      		brlt .L136
 2965               	.LM312:
 2966 0e7e 0894      		sec
 2967 0e80 411C      		adc r4,__zero_reg__
 2968 0e82 511C      		adc r5,__zero_reg__
 2969 0e84 611C      		adc r6,__zero_reg__
 2970 0e86 711C      		adc r7,__zero_reg__
 2971               	.LM313:
 2972 0e88 2081      		ld r18,Z
 2973 0e8a 3181      		ldd r19,Z+1
 2974 0e8c 40E0      		ldi r20,lo8(0)
 2975 0e8e 50E0      		ldi r21,hi8(0)
 2976 0e90 C501      		movw r24,r10
 2977 0e92 B401      		movw r22,r8
 2978 0e94 0E94 0000 		call __divmodsi4
 2979 0e98 AC01      		movw r20,r24
 2980 0e9a CB01      		movw r24,r22
 2981 0e9c DA01      		movw r26,r20
 2982 0e9e 4C01      		movw r8,r24
 2983 0ea0 5D01      		movw r10,r26
 2984               	.L136:
 2985               	.LBB848:
 2986               	.LBB849:
 2987               	.LM314:
 2988 0ea2 89E1      		ldi r24,lo8(25)
 2989 0ea4 90E0      		ldi r25,hi8(25)
 2990 0ea6 2D81      		ldd r18,Y+5
 2991 0ea8 3E81      		ldd r19,Y+6
 2992 0eaa 289F      		mul r18,r24
 2993 0eac B001      		movw r22,r0
 2994 0eae 299F      		mul r18,r25
 2995 0eb0 700D      		add r23,r0
 2996 0eb2 389F      		mul r19,r24
 2997 0eb4 700D      		add r23,r0
 2998 0eb6 1124      		clr r1
 2999 0eb8 620D      		add r22,r2
 3000 0eba 731D      		adc r23,r3
 3001 0ebc 8981      		ldd r24,Y+1
 3002 0ebe 9A81      		ldd r25,Y+2
 3003 0ec0 AB81      		ldd r26,Y+3
 3004 0ec2 BC81      		ldd r27,Y+4
 3005 0ec4 840D      		add r24,r4
 3006 0ec6 951D      		adc r25,r5
 3007 0ec8 A61D      		adc r26,r6
 3008 0eca B71D      		adc r27,r7
 3009 0ecc FB01      		movw r30,r22
 3010 0ece 868F      		std Z+30,r24
 3011 0ed0 978F      		std Z+31,r25
 3012 0ed2 A0A3      		std Z+32,r26
 3013 0ed4 B1A3      		std Z+33,r27
 3014               	.LBE849:
 3015               	.LBE848:
 3016               	.LBB850:
 3017               	.LBB851:
 3018               	.LM315:
 3019 0ed6 DB01      		movw r26,r22
 3020 0ed8 9296      		adiw r26,34
 3021 0eda 8D92      		st X+,r8
 3022 0edc 9D92      		st X+,r9
 3023 0ede AD92      		st X+,r10
 3024 0ee0 BC92      		st X,r11
 3025 0ee2 9597      		sbiw r26,34+3
 3026               	.LBE851:
 3027               	.LBE850:
 3028               	.LM316:
 3029 0ee4 9696      		adiw r26,38
 3030 0ee6 2D91      		ld r18,X+
 3031 0ee8 3D91      		ld r19,X+
 3032 0eea 4D91      		ld r20,X+
 3033 0eec 5C91      		ld r21,X
 3034 0eee 9997      		sbiw r26,38+3
 3035               	.LVL202:
 3036 0ef0 9A96      		adiw r26,42
 3037 0ef2 8D91      		ld r24,X+
 3038 0ef4 9D91      		ld r25,X+
 3039 0ef6 0D90      		ld __tmp_reg__,X+
 3040 0ef8 BC91      		ld r27,X
 3041 0efa A02D      		mov r26,__tmp_reg__
 3042               	.LBB852:
 3043               	.LBB853:
 3044               	.LM317:
 3045 0efc 281B      		sub r18,r24
 3046 0efe 390B      		sbc r19,r25
 3047 0f00 4A0B      		sbc r20,r26
 3048 0f02 5B0B      		sbc r21,r27
 3049 0f04 57FF      		sbrs r21,7
 3050 0f06 00C0      		rjmp .L137
 3051 0f08 20E0      		ldi r18,lo8(0)
 3052 0f0a 30E0      		ldi r19,hi8(0)
 3053 0f0c 40E0      		ldi r20,hlo8(0)
 3054 0f0e 50E0      		ldi r21,hhi8(0)
 3055               	.L137:
 3056 0f10 FB01      		movw r30,r22
 3057 0f12 26A7      		std Z+46,r18
 3058 0f14 37A7      		std Z+47,r19
 3059 0f16 40AB      		std Z+48,r20
 3060 0f18 51AB      		std Z+49,r21
 3061               	.LVL203:
 3062               	.L138:
 3063               	/* epilogue start */
 3064               	.LBE853:
 3065               	.LBE852:
 3066               	.LM318:
 3067 0f1a 2696      		adiw r28,6
 3068 0f1c 0FB6      		in __tmp_reg__,__SREG__
 3069 0f1e F894      		cli
 3070 0f20 DEBF      		out __SP_H__,r29
 3071 0f22 0FBE      		out __SREG__,__tmp_reg__
 3072 0f24 CDBF      		out __SP_L__,r28
 3073 0f26 CF91      		pop r28
 3074 0f28 DF91      		pop r29
 3075 0f2a 1F91      		pop r17
 3076 0f2c 0F91      		pop r16
 3077               	.LVL204:
 3078 0f2e FF90      		pop r15
 3079 0f30 EF90      		pop r14
 3080 0f32 DF90      		pop r13
 3081 0f34 CF90      		pop r12
 3082 0f36 BF90      		pop r11
 3083 0f38 AF90      		pop r10
 3084               	.LVL205:
 3085 0f3a 9F90      		pop r9
 3086 0f3c 8F90      		pop r8
 3087               	.LVL206:
 3088 0f3e 7F90      		pop r7
 3089 0f40 6F90      		pop r6
 3090 0f42 5F90      		pop r5
 3091 0f44 4F90      		pop r4
 3092               	.LVL207:
 3093 0f46 3F90      		pop r3
 3094 0f48 2F90      		pop r2
 3095 0f4a 0895      		ret
 3096               	.LFE51:
 3098               	.global	Timebase_UpCounter_SS_Expired
 3100               	Timebase_UpCounter_SS_Expired:
 3101               	.LFB52:
 3102               	.LM319:
 3103               	.LVL208:
 3104               	/* prologue: function */
 3105               	/* frame size = 0 */
 3106               	.LM320:
 3107 0f4c 40E0      		ldi r20,lo8(0)
 3108 0f4e E091 0000 		lds r30,Timebase
 3109 0f52 F091 0000 		lds r31,(Timebase)+1
 3110 0f56 90E0      		ldi r25,lo8(0)
 3111               	.LVL209:
 3112 0f58 29E1      		ldi r18,lo8(25)
 3113 0f5a 30E0      		ldi r19,hi8(25)
 3114 0f5c BC01      		movw r22,r24
 3115 0f5e 629F      		mul r22,r18
 3116 0f60 C001      		movw r24,r0
 3117 0f62 639F      		mul r22,r19
 3118 0f64 900D      		add r25,r0
 3119 0f66 729F      		mul r23,r18
 3120 0f68 900D      		add r25,r0
 3121 0f6a 1124      		clr r1
 3122               	.LVL210:
 3123 0f6c E80F      		add r30,r24
 3124 0f6e F91F      		adc r31,r25
 3125 0f70 858D      		ldd r24,Z+29
 3126 0f72 8695      		lsr r24
 3127 0f74 8F70      		andi r24,lo8(15)
 3128 0f76 8430      		cpi r24,lo8(4)
 3129 0f78 01F4      		brne .L140
 3130 0f7a 41E0      		ldi r20,lo8(1)
 3131               	.L140:
 3132               	.LM321:
 3133 0f7c 842F      		mov r24,r20
 3134               	/* epilogue start */
 3135 0f7e 0895      		ret
 3136               	.LFE52:
 3138               	.global	Timebase_UpCounter_SS_Expired_Event
 3140               	Timebase_UpCounter_SS_Expired_Event:
 3141               	.LFB53:
 3142               	.LM322:
 3143               	.LVL211:
 3144               	/* prologue: function */
 3145               	/* frame size = 0 */
 3146 0f80 482F      		mov r20,r24
 3147               	.LM323:
 3148 0f82 E091 0000 		lds r30,Timebase
 3149 0f86 F091 0000 		lds r31,(Timebase)+1
 3150 0f8a 282F      		mov r18,r24
 3151 0f8c 30E0      		ldi r19,lo8(0)
 3152               	.LVL212:
 3153 0f8e 89E1      		ldi r24,lo8(25)
 3154 0f90 90E0      		ldi r25,hi8(25)
 3155               	.LVL213:
 3156 0f92 BC01      		movw r22,r24
 3157 0f94 269F      		mul r18,r22
 3158 0f96 C001      		movw r24,r0
 3159 0f98 279F      		mul r18,r23
 3160 0f9a 900D      		add r25,r0
 3161 0f9c 369F      		mul r19,r22
 3162 0f9e 900D      		add r25,r0
 3163 0fa0 1124      		clr r1
 3164 0fa2 E80F      		add r30,r24
 3165 0fa4 F91F      		adc r31,r25
 3166 0fa6 858D      		ldd r24,Z+29
 3167 0fa8 8695      		lsr r24
 3168 0faa 8F70      		andi r24,lo8(15)
 3169 0fac 8430      		cpi r24,lo8(4)
 3170 0fae 01F0      		breq .L143
 3171 0fb0 80E0      		ldi r24,lo8(0)
 3172 0fb2 0895      		ret
 3173               	.L143:
 3174               	.LBB854:
 3175               	.LBB855:
 3176               	.LM324:
 3177 0fb4 842F      		mov r24,r20
 3178 0fb6 0E94 0000 		call Timebase_UpCounter_SS_Reset
 3179               	.LVL214:
 3180 0fba 81E0      		ldi r24,lo8(1)
 3181               	.LBE855:
 3182               	.LBE854:
 3183               	.LM325:
 3184 0fbc 0895      		ret
 3185               	.LFE53:
 3187               	.global	Timebase_UpCounter_SS_Set_Period_Value_Securely
 3189               	Timebase_UpCounter_SS_Set_Period_Value_Securely:
 3190               	.LFB54:
 3191               	.LM326:
 3192               	.LVL215:
 3193               	/* prologue: function */
 3194               	/* frame size = 0 */
 3195               	.LBB856:
 3196               	.LBB857:
 3197               	.LM327:
 3198 0fbe E091 0000 		lds r30,Timebase
 3199 0fc2 F091 0000 		lds r31,(Timebase)+1
 3200 0fc6 90E0      		ldi r25,lo8(0)
 3201               	.LBE857:
 3202               	.LBE856:
 3203               	.LM328:
 3204 0fc8 29E1      		ldi r18,lo8(25)
 3205 0fca 30E0      		ldi r19,hi8(25)
 3206 0fcc DC01      		movw r26,r24
 3207               	.LVL216:
 3208 0fce A29F      		mul r26,r18
 3209 0fd0 C001      		movw r24,r0
 3210 0fd2 A39F      		mul r26,r19
 3211 0fd4 900D      		add r25,r0
 3212 0fd6 B29F      		mul r27,r18
 3213 0fd8 900D      		add r25,r0
 3214 0fda 1124      		clr r1
 3215 0fdc E80F      		add r30,r24
 3216 0fde F91F      		adc r31,r25
 3217 0fe0 858D      		ldd r24,Z+29
 3218 0fe2 80FD      		sbrc r24,0
 3219 0fe4 00C0      		rjmp .L148
 3220               	.LBB858:
 3221               	.LBB859:
 3222               	.LM329:
 3223 0fe6 86A5      		ldd r24,Z+46
 3224 0fe8 97A5      		ldd r25,Z+47
 3225 0fea A0A9      		ldd r26,Z+48
 3226 0fec B1A9      		ldd r27,Z+49
 3227 0fee 840F      		add r24,r20
 3228 0ff0 951F      		adc r25,r21
 3229 0ff2 A61F      		adc r26,r22
 3230 0ff4 B71F      		adc r27,r23
 3231 0ff6 82AB      		std Z+50,r24
 3232 0ff8 93AB      		std Z+51,r25
 3233 0ffa A4AB      		std Z+52,r26
 3234 0ffc B5AB      		std Z+53,r27
 3235               	.LBE859:
 3236               	.LBE858:
 3237               	.LBB860:
 3238               	.LBB861:
 3239               	.LM330:
 3240 0ffe 858D      		ldd r24,Z+29
 3241 1000 8160      		ori r24,lo8(1)
 3242 1002 858F      		std Z+29,r24
 3243               	.L148:
 3244 1004 0895      		ret
 3245               	.LBE861:
 3246               	.LBE860:
 3247               	.LFE54:
 3249               	.global	Timebase_UpCounter_SS_Get_Remaining_Period_Value
 3251               	Timebase_UpCounter_SS_Get_Remaining_Period_Value:
 3252               	.LFB55:
 3253               	.LM331:
 3254               	.LVL217:
 3255               	/* prologue: function */
 3256               	/* frame size = 0 */
 3257               	.LBB862:
 3258               	.LBB863:
 3259               	.LM332:
 3260 1006 E091 0000 		lds r30,Timebase
 3261 100a F091 0000 		lds r31,(Timebase)+1
 3262 100e 90E0      		ldi r25,lo8(0)
 3263 1010 29E1      		ldi r18,lo8(25)
 3264 1012 30E0      		ldi r19,hi8(25)
 3265 1014 AC01      		movw r20,r24
 3266               	.LVL218:
 3267 1016 429F      		mul r20,r18
 3268 1018 C001      		movw r24,r0
 3269 101a 439F      		mul r20,r19
 3270 101c 900D      		add r25,r0
 3271 101e 529F      		mul r21,r18
 3272 1020 900D      		add r25,r0
 3273 1022 1124      		clr r1
 3274 1024 E80F      		add r30,r24
 3275 1026 F91F      		adc r31,r25
 3276 1028 22A9      		ldd r18,Z+50
 3277 102a 33A9      		ldd r19,Z+51
 3278 102c 44A9      		ldd r20,Z+52
 3279 102e 55A9      		ldd r21,Z+53
 3280               	.LVL219:
 3281               	.LBE863:
 3282               	.LBE862:
 3283               	.LM333:
 3284 1030 86A5      		ldd r24,Z+46
 3285 1032 97A5      		ldd r25,Z+47
 3286 1034 A0A9      		ldd r26,Z+48
 3287 1036 B1A9      		ldd r27,Z+49
 3288 1038 281B      		sub r18,r24
 3289 103a 390B      		sbc r19,r25
 3290 103c 4A0B      		sbc r20,r26
 3291 103e 5B0B      		sbc r21,r27
 3292 1040 57FF      		sbrs r21,7
 3293 1042 00C0      		rjmp .L150
 3294 1044 20E0      		ldi r18,lo8(0)
 3295 1046 30E0      		ldi r19,hi8(0)
 3296 1048 40E0      		ldi r20,hlo8(0)
 3297 104a 50E0      		ldi r21,hhi8(0)
 3298               	.L150:
 3299               	.LM334:
 3300 104c B901      		movw r22,r18
 3301               	.LVL220:
 3302 104e CA01      		movw r24,r20
 3303               	/* epilogue start */
 3304 1050 0895      		ret
 3305               	.LFE55:
 3307               	.global	Timebase_UpCounter_SS_Period_Value_Expired
 3309               	Timebase_UpCounter_SS_Period_Value_Expired:
 3310               	.LFB56:
 3311               	.LM335:
 3312               	.LVL221:
 3313 1052 CF93      		push r28
 3314 1054 DF93      		push r29
 3315               	/* prologue: function */
 3316               	/* frame size = 0 */
 3317               	.LBB864:
 3318               	.LBB865:
 3319               	.LBB866:
 3320               	.LBB867:
 3321               	.LM336:
 3322 1056 C091 0000 		lds r28,Timebase
 3323 105a D091 0000 		lds r29,(Timebase)+1
 3324 105e 682F      		mov r22,r24
 3325 1060 70E0      		ldi r23,lo8(0)
 3326 1062 89E1      		ldi r24,lo8(25)
 3327 1064 90E0      		ldi r25,hi8(25)
 3328               	.LVL222:
 3329 1066 689F      		mul r22,r24
 3330 1068 F001      		movw r30,r0
 3331 106a 699F      		mul r22,r25
 3332 106c F00D      		add r31,r0
 3333 106e 789F      		mul r23,r24
 3334 1070 F00D      		add r31,r0
 3335 1072 1124      		clr r1
 3336 1074 EC0F      		add r30,r28
 3337 1076 FD1F      		adc r31,r29
 3338 1078 22A9      		ldd r18,Z+50
 3339 107a 33A9      		ldd r19,Z+51
 3340 107c 44A9      		ldd r20,Z+52
 3341 107e 55A9      		ldd r21,Z+53
 3342               	.LVL223:
 3343               	.LBE867:
 3344               	.LBE866:
 3345               	.LM337:
 3346 1080 86A5      		ldd r24,Z+46
 3347 1082 97A5      		ldd r25,Z+47
 3348 1084 A0A9      		ldd r26,Z+48
 3349 1086 B1A9      		ldd r27,Z+49
 3350 1088 281B      		sub r18,r24
 3351 108a 390B      		sbc r19,r25
 3352 108c 4A0B      		sbc r20,r26
 3353 108e 5B0B      		sbc r21,r27
 3354               	.LM338:
 3355 1090 57FD      		sbrc r21,7
 3356 1092 00C0      		rjmp .L153
 3357               	.LBE865:
 3358               	.LBE864:
 3359               	.LM339:
 3360 1094 2115      		cp r18,__zero_reg__
 3361 1096 3105      		cpc r19,__zero_reg__
 3362 1098 4105      		cpc r20,__zero_reg__
 3363 109a 5105      		cpc r21,__zero_reg__
 3364 109c 01F0      		breq .L153
 3365 109e 20E0      		ldi r18,lo8(0)
 3366               	.LVL224:
 3367 10a0 00C0      		rjmp .L154
 3368               	.LVL225:
 3369               	.L153:
 3370 10a2 20E0      		ldi r18,lo8(0)
 3371               	.LVL226:
 3372 10a4 89E1      		ldi r24,lo8(25)
 3373 10a6 90E0      		ldi r25,hi8(25)
 3374 10a8 AC01      		movw r20,r24
 3375 10aa 649F      		mul r22,r20
 3376 10ac C001      		movw r24,r0
 3377 10ae 659F      		mul r22,r21
 3378 10b0 900D      		add r25,r0
 3379 10b2 749F      		mul r23,r20
 3380 10b4 900D      		add r25,r0
 3381 10b6 1124      		clr r1
 3382 10b8 C80F      		add r28,r24
 3383 10ba D91F      		adc r29,r25
 3384 10bc 8D8D      		ldd r24,Y+29
 3385 10be 80FF      		sbrs r24,0
 3386 10c0 21E0      		ldi r18,lo8(1)
 3387               	.L155:
 3388 10c2 81E0      		ldi r24,lo8(1)
 3389 10c4 2827      		eor r18,r24
 3390               	.L154:
 3391               	.LM340:
 3392 10c6 822F      		mov r24,r18
 3393               	/* epilogue start */
 3394 10c8 DF91      		pop r29
 3395 10ca CF91      		pop r28
 3396 10cc 0895      		ret
 3397               	.LFE56:
 3399               	.global	Timebase_UpCounter_SS_Period_Value_Expired_Event
 3401               	Timebase_UpCounter_SS_Period_Value_Expired_Event:
 3402               	.LFB57:
 3403               	.LM341:
 3404               	.LVL227:
 3405 10ce 1F93      		push r17
 3406               	/* prologue: function */
 3407               	/* frame size = 0 */
 3408 10d0 182F      		mov r17,r24
 3409               	.LM342:
 3410 10d2 0E94 0000 		call Timebase_UpCounter_SS_Period_Value_Expired
 3411               	.LVL228:
 3412 10d6 8130      		cpi r24,lo8(1)
 3413 10d8 01F0      		breq .L158
 3414 10da 80E0      		ldi r24,lo8(0)
 3415 10dc 00C0      		rjmp .L159
 3416               	.L158:
 3417               	.LBB868:
 3418               	.LBB869:
 3419               	.LM343:
 3420 10de E091 0000 		lds r30,Timebase
 3421 10e2 F091 0000 		lds r31,(Timebase)+1
 3422 10e6 212F      		mov r18,r17
 3423 10e8 30E0      		ldi r19,lo8(0)
 3424               	.LVL229:
 3425 10ea 89E1      		ldi r24,lo8(25)
 3426 10ec 90E0      		ldi r25,hi8(25)
 3427 10ee AC01      		movw r20,r24
 3428 10f0 249F      		mul r18,r20
 3429 10f2 C001      		movw r24,r0
 3430 10f4 259F      		mul r18,r21
 3431 10f6 900D      		add r25,r0
 3432 10f8 349F      		mul r19,r20
 3433 10fa 900D      		add r25,r0
 3434 10fc 1124      		clr r1
 3435 10fe E80F      		add r30,r24
 3436 1100 F91F      		adc r31,r25
 3437 1102 858D      		ldd r24,Z+29
 3438 1104 8E7F      		andi r24,lo8(-2)
 3439 1106 858F      		std Z+29,r24
 3440 1108 81E0      		ldi r24,lo8(1)
 3441               	.L159:
 3442               	/* epilogue start */
 3443               	.LBE869:
 3444               	.LBE868:
 3445               	.LM344:
 3446 110a 1F91      		pop r17
 3447               	.LVL230:
 3448 110c 0895      		ret
 3449               	.LFE57:
 3451               	.global	Timebase_UpCounter_SS_Update_All
 3453               	Timebase_UpCounter_SS_Update_All:
 3454               	.LFB58:
 3455               	.LM345:
 3456               	/* prologue: function */
 3457               	/* frame size = 0 */
 3458               	.LBB870:
 3459               	.LM346:
 3460 110e 80E0      		ldi r24,lo8(0)
 3461 1110 0E94 0000 		call Timebase_UpCounter_SS_Update
 3462               	/* epilogue start */
 3463               	.LBE870:
 3464               	.LM347:
 3465 1114 0895      		ret
 3466               	.LFE58:
 3468               	.global	Timebase_UpCounter_SS_Reset_All
 3470               	Timebase_UpCounter_SS_Reset_All:
 3471               	.LFB59:
 3472               	.LM348:
 3473               	/* prologue: function */
 3474               	/* frame size = 0 */
 3475               	.LBB871:
 3476               	.LM349:
 3477 1116 80E0      		ldi r24,lo8(0)
 3478 1118 0E94 0000 		call Timebase_UpCounter_SS_Reset
 3479               	/* epilogue start */
 3480               	.LBE871:
 3481               	.LM350:
 3482 111c 0895      		ret
 3483               	.LFE59:
 3485               	.global	Timebase_UpCounter_Get_Status
 3487               	Timebase_UpCounter_Get_Status:
 3488               	.LFB60:
 3489               	.LM351:
 3490               	.LVL231:
 3491               	/* prologue: function */
 3492               	/* frame size = 0 */
 3493               	.LM352:
 3494 111e E091 0000 		lds r30,Timebase
 3495 1122 F091 0000 		lds r31,(Timebase)+1
 3496 1126 90E0      		ldi r25,lo8(0)
 3497               	.LVL232:
 3498 1128 25E1      		ldi r18,lo8(21)
 3499 112a 30E0      		ldi r19,hi8(21)
 3500 112c AC01      		movw r20,r24
 3501 112e 429F      		mul r20,r18
 3502 1130 C001      		movw r24,r0
 3503 1132 439F      		mul r20,r19
 3504 1134 900D      		add r25,r0
 3505 1136 529F      		mul r21,r18
 3506 1138 900D      		add r25,r0
 3507 113a 1124      		clr r1
 3508               	.LVL233:
 3509 113c E80F      		add r30,r24
 3510 113e F91F      		adc r31,r25
 3511 1140 86A9      		ldd r24,Z+54
 3512 1142 8695      		lsr r24
 3513               	.LM353:
 3514 1144 8F70      		andi r24,lo8(15)
 3515               	/* epilogue start */
 3516 1146 0895      		ret
 3517               	.LFE60:
 3519               	.global	Timebase_UpCounter_Set_Status
 3521               	Timebase_UpCounter_Set_Status:
 3522               	.LFB61:
 3523               	.LM354:
 3524               	.LVL234:
 3525               	/* prologue: function */
 3526               	/* frame size = 0 */
 3527               	.LM355:
 3528 1148 E091 0000 		lds r30,Timebase
 3529 114c F091 0000 		lds r31,(Timebase)+1
 3530 1150 90E0      		ldi r25,lo8(0)
 3531               	.LVL235:
 3532 1152 25E1      		ldi r18,lo8(21)
 3533 1154 30E0      		ldi r19,hi8(21)
 3534 1156 AC01      		movw r20,r24
 3535 1158 429F      		mul r20,r18
 3536 115a C001      		movw r24,r0
 3537 115c 439F      		mul r20,r19
 3538 115e 900D      		add r25,r0
 3539 1160 529F      		mul r21,r18
 3540 1162 900D      		add r25,r0
 3541 1164 1124      		clr r1
 3542               	.LVL236:
 3543 1166 E80F      		add r30,r24
 3544 1168 F91F      		adc r31,r25
 3545 116a 6F70      		andi r22,lo8(15)
 3546               	.LVL237:
 3547 116c 660F      		lsl r22
 3548 116e 86A9      		ldd r24,Z+54
 3549 1170 817E      		andi r24,lo8(-31)
 3550 1172 862B      		or r24,r22
 3551 1174 86AB      		std Z+54,r24
 3552               	/* epilogue start */
 3553               	.LM356:
 3554 1176 0895      		ret
 3555               	.LFE61:
 3557               	.global	Timebase_UpCounter_Get_Value
 3559               	Timebase_UpCounter_Get_Value:
 3560               	.LFB62:
 3561               	.LM357:
 3562               	.LVL238:
 3563               	/* prologue: function */
 3564               	/* frame size = 0 */
 3565               	.LM358:
 3566 1178 E091 0000 		lds r30,Timebase
 3567 117c F091 0000 		lds r31,(Timebase)+1
 3568 1180 90E0      		ldi r25,lo8(0)
 3569               	.LVL239:
 3570 1182 25E1      		ldi r18,lo8(21)
 3571 1184 30E0      		ldi r19,hi8(21)
 3572 1186 AC01      		movw r20,r24
 3573 1188 429F      		mul r20,r18
 3574 118a C001      		movw r24,r0
 3575 118c 439F      		mul r20,r19
 3576 118e 900D      		add r25,r0
 3577 1190 529F      		mul r21,r18
 3578 1192 900D      		add r25,r0
 3579 1194 1124      		clr r1
 3580               	.LVL240:
 3581 1196 E80F      		add r30,r24
 3582 1198 F91F      		adc r31,r25
 3583 119a ED5B      		subi r30,lo8(-(67))
 3584 119c FF4F      		sbci r31,hi8(-(67))
 3585 119e 6081      		ld r22,Z
 3586 11a0 7181      		ldd r23,Z+1
 3587               	.LM359:
 3588 11a2 8281      		ldd r24,Z+2
 3589 11a4 9381      		ldd r25,Z+3
 3590               	.LVL241:
 3591               	/* epilogue start */
 3592 11a6 0895      		ret
 3593               	.LFE62:
 3595               	.global	Timebase_UpCounter_Set_Value
 3597               	Timebase_UpCounter_Set_Value:
 3598               	.LFB63:
 3599               	.LM360:
 3600               	.LVL242:
 3601 11a8 CF93      		push r28
 3602 11aa DF93      		push r29
 3603               	/* prologue: function */
 3604               	/* frame size = 0 */
 3605               	.LM361:
 3606 11ac C091 0000 		lds r28,Timebase
 3607 11b0 D091 0000 		lds r29,(Timebase)+1
 3608 11b4 90E0      		ldi r25,lo8(0)
 3609               	.LVL243:
 3610 11b6 25E1      		ldi r18,lo8(21)
 3611 11b8 30E0      		ldi r19,hi8(21)
 3612 11ba FC01      		movw r30,r24
 3613 11bc E29F      		mul r30,r18
 3614 11be C001      		movw r24,r0
 3615 11c0 E39F      		mul r30,r19
 3616 11c2 900D      		add r25,r0
 3617 11c4 F29F      		mul r31,r18
 3618 11c6 900D      		add r25,r0
 3619 11c8 1124      		clr r1
 3620               	.LVL244:
 3621 11ca C80F      		add r28,r24
 3622 11cc D91F      		adc r29,r25
 3623 11ce CD5B      		subi r28,lo8(-(67))
 3624 11d0 DF4F      		sbci r29,hi8(-(67))
 3625 11d2 CA01      		movw r24,r20
 3626               	.LVL245:
 3627 11d4 DB01      		movw r26,r22
 3628 11d6 B7FF      		sbrs r27,7
 3629 11d8 00C0      		rjmp .L172
 3630               	.LVL246:
 3631 11da 80E0      		ldi r24,lo8(0)
 3632 11dc 90E0      		ldi r25,hi8(0)
 3633 11de A0E0      		ldi r26,hlo8(0)
 3634 11e0 B0E0      		ldi r27,hhi8(0)
 3635               	.L172:
 3636 11e2 8883      		st Y,r24
 3637 11e4 9983      		std Y+1,r25
 3638 11e6 AA83      		std Y+2,r26
 3639 11e8 BB83      		std Y+3,r27
 3640               	/* epilogue start */
 3641               	.LM362:
 3642 11ea DF91      		pop r29
 3643 11ec CF91      		pop r28
 3644 11ee 0895      		ret
 3645               	.LFE63:
 3647               	.global	Timebase_UpCounter_Get_EndValueSec
 3649               	Timebase_UpCounter_Get_EndValueSec:
 3650               	.LFB64:
 3651               	.LM363:
 3652               	.LVL247:
 3653               	/* prologue: function */
 3654               	/* frame size = 0 */
 3655               	.LM364:
 3656 11f0 E091 0000 		lds r30,Timebase
 3657 11f4 F091 0000 		lds r31,(Timebase)+1
 3658 11f8 90E0      		ldi r25,lo8(0)
 3659               	.LVL248:
 3660 11fa 25E1      		ldi r18,lo8(21)
 3661 11fc 30E0      		ldi r19,hi8(21)
 3662 11fe AC01      		movw r20,r24
 3663 1200 429F      		mul r20,r18
 3664 1202 C001      		movw r24,r0
 3665 1204 439F      		mul r20,r19
 3666 1206 900D      		add r25,r0
 3667 1208 529F      		mul r21,r18
 3668 120a 900D      		add r25,r0
 3669 120c 1124      		clr r1
 3670               	.LVL249:
 3671 120e E80F      		add r30,r24
 3672 1210 F91F      		adc r31,r25
 3673 1212 DF01      		movw r26,r30
 3674 1214 D796      		adiw r26,55
 3675 1216 67A9      		ldd r22,Z+55
 3676 1218 1196      		adiw r26,1
 3677 121a 7C91      		ld r23,X
 3678 121c 1197      		sbiw r26,1
 3679               	.LM365:
 3680 121e 1296      		adiw r26,2
 3681 1220 8C91      		ld r24,X
 3682 1222 1297      		sbiw r26,2
 3683 1224 1396      		adiw r26,3
 3684 1226 9C91      		ld r25,X
 3685               	.LVL250:
 3686               	/* epilogue start */
 3687 1228 0895      		ret
 3688               	.LFE64:
 3690               	.global	Timebase_UpCounter_Get_EndValueSubSec
 3692               	Timebase_UpCounter_Get_EndValueSubSec:
 3693               	.LFB65:
 3694               	.LM366:
 3695               	.LVL251:
 3696               	/* prologue: function */
 3697               	/* frame size = 0 */
 3698               	.LM367:
 3699 122a E091 0000 		lds r30,Timebase
 3700 122e F091 0000 		lds r31,(Timebase)+1
 3701 1232 90E0      		ldi r25,lo8(0)
 3702               	.LVL252:
 3703 1234 25E1      		ldi r18,lo8(21)
 3704 1236 30E0      		ldi r19,hi8(21)
 3705 1238 AC01      		movw r20,r24
 3706 123a 429F      		mul r20,r18
 3707 123c C001      		movw r24,r0
 3708 123e 439F      		mul r20,r19
 3709 1240 900D      		add r25,r0
 3710 1242 529F      		mul r21,r18
 3711 1244 900D      		add r25,r0
 3712 1246 1124      		clr r1
 3713               	.LVL253:
 3714 1248 E80F      		add r30,r24
 3715 124a F91F      		adc r31,r25
 3716 124c DF01      		movw r26,r30
 3717 124e D796      		adiw r26,55
 3718 1250 67A9      		ldd r22,Z+55
 3719 1252 1196      		adiw r26,1
 3720 1254 7C91      		ld r23,X
 3721 1256 1197      		sbiw r26,1
 3722               	.LM368:
 3723 1258 1296      		adiw r26,2
 3724 125a 8C91      		ld r24,X
 3725 125c 1297      		sbiw r26,2
 3726 125e 1396      		adiw r26,3
 3727 1260 9C91      		ld r25,X
 3728               	.LVL254:
 3729               	/* epilogue start */
 3730 1262 0895      		ret
 3731               	.LFE65:
 3733               	.global	Timebase_UpCounter_Set_EndValueSec
 3735               	Timebase_UpCounter_Set_EndValueSec:
 3736               	.LFB66:
 3737               	.LM369:
 3738               	.LVL255:
 3739               	/* prologue: function */
 3740               	/* frame size = 0 */
 3741               	.LM370:
 3742 1264 E091 0000 		lds r30,Timebase
 3743 1268 F091 0000 		lds r31,(Timebase)+1
 3744 126c 90E0      		ldi r25,lo8(0)
 3745               	.LVL256:
 3746 126e 25E1      		ldi r18,lo8(21)
 3747 1270 30E0      		ldi r19,hi8(21)
 3748 1272 DC01      		movw r26,r24
 3749 1274 A29F      		mul r26,r18
 3750 1276 C001      		movw r24,r0
 3751 1278 A39F      		mul r26,r19
 3752 127a 900D      		add r25,r0
 3753 127c B29F      		mul r27,r18
 3754 127e 900D      		add r25,r0
 3755 1280 1124      		clr r1
 3756               	.LVL257:
 3757 1282 E80F      		add r30,r24
 3758 1284 F91F      		adc r31,r25
 3759 1286 47AB      		std Z+55,r20
 3760 1288 50AF      		std Z+56,r21
 3761 128a 61AF      		std Z+57,r22
 3762 128c 72AF      		std Z+58,r23
 3763               	/* epilogue start */
 3764               	.LM371:
 3765 128e 0895      		ret
 3766               	.LFE66:
 3768               	.global	Timebase_UpCounter_Set_EndValueSubSec
 3770               	Timebase_UpCounter_Set_EndValueSubSec:
 3771               	.LFB67:
 3772               	.LM372:
 3773               	.LVL258:
 3774               	/* prologue: function */
 3775               	/* frame size = 0 */
 3776               	.LM373:
 3777 1290 E091 0000 		lds r30,Timebase
 3778 1294 F091 0000 		lds r31,(Timebase)+1
 3779 1298 90E0      		ldi r25,lo8(0)
 3780               	.LVL259:
 3781 129a 25E1      		ldi r18,lo8(21)
 3782 129c 30E0      		ldi r19,hi8(21)
 3783 129e DC01      		movw r26,r24
 3784 12a0 A29F      		mul r26,r18
 3785 12a2 C001      		movw r24,r0
 3786 12a4 A39F      		mul r26,r19
 3787 12a6 900D      		add r25,r0
 3788 12a8 B29F      		mul r27,r18
 3789 12aa 900D      		add r25,r0
 3790 12ac 1124      		clr r1
 3791               	.LVL260:
 3792 12ae E80F      		add r30,r24
 3793 12b0 F91F      		adc r31,r25
 3794 12b2 47AB      		std Z+55,r20
 3795 12b4 50AF      		std Z+56,r21
 3796 12b6 61AF      		std Z+57,r22
 3797 12b8 72AF      		std Z+58,r23
 3798               	/* epilogue start */
 3799               	.LM374:
 3800 12ba 0895      		ret
 3801               	.LFE67:
 3803               	.global	Timebase_UpCounter_Get_TargetValue
 3805               	Timebase_UpCounter_Get_TargetValue:
 3806               	.LFB68:
 3807               	.LM375:
 3808               	.LVL261:
 3809               	/* prologue: function */
 3810               	/* frame size = 0 */
 3811               	.LM376:
 3812 12bc E091 0000 		lds r30,Timebase
 3813 12c0 F091 0000 		lds r31,(Timebase)+1
 3814 12c4 90E0      		ldi r25,lo8(0)
 3815               	.LVL262:
 3816 12c6 25E1      		ldi r18,lo8(21)
 3817 12c8 30E0      		ldi r19,hi8(21)
 3818 12ca AC01      		movw r20,r24
 3819 12cc 429F      		mul r20,r18
 3820 12ce C001      		movw r24,r0
 3821 12d0 439F      		mul r20,r19
 3822 12d2 900D      		add r25,r0
 3823 12d4 529F      		mul r21,r18
 3824 12d6 900D      		add r25,r0
 3825 12d8 1124      		clr r1
 3826               	.LVL263:
 3827 12da E80F      		add r30,r24
 3828 12dc F91F      		adc r31,r25
 3829 12de DF01      		movw r26,r30
 3830 12e0 DB96      		adiw r26,59
 3831 12e2 63AD      		ldd r22,Z+59
 3832 12e4 1196      		adiw r26,1
 3833 12e6 7C91      		ld r23,X
 3834 12e8 1197      		sbiw r26,1
 3835               	.LM377:
 3836 12ea 1296      		adiw r26,2
 3837 12ec 8C91      		ld r24,X
 3838 12ee 1297      		sbiw r26,2
 3839 12f0 1396      		adiw r26,3
 3840 12f2 9C91      		ld r25,X
 3841               	.LVL264:
 3842               	/* epilogue start */
 3843 12f4 0895      		ret
 3844               	.LFE68:
 3846               	.global	Timebase_UpCounter_Set_TargetValue
 3848               	Timebase_UpCounter_Set_TargetValue:
 3849               	.LFB69:
 3850               	.LM378:
 3851               	.LVL265:
 3852               	/* prologue: function */
 3853               	/* frame size = 0 */
 3854               	.LM379:
 3855 12f6 E091 0000 		lds r30,Timebase
 3856 12fa F091 0000 		lds r31,(Timebase)+1
 3857 12fe 90E0      		ldi r25,lo8(0)
 3858               	.LVL266:
 3859 1300 25E1      		ldi r18,lo8(21)
 3860 1302 30E0      		ldi r19,hi8(21)
 3861 1304 DC01      		movw r26,r24
 3862 1306 A29F      		mul r26,r18
 3863 1308 C001      		movw r24,r0
 3864 130a A39F      		mul r26,r19
 3865 130c 900D      		add r25,r0
 3866 130e B29F      		mul r27,r18
 3867 1310 900D      		add r25,r0
 3868 1312 1124      		clr r1
 3869               	.LVL267:
 3870 1314 E80F      		add r30,r24
 3871 1316 F91F      		adc r31,r25
 3872 1318 43AF      		std Z+59,r20
 3873 131a 54AF      		std Z+60,r21
 3874 131c 65AF      		std Z+61,r22
 3875 131e 76AF      		std Z+62,r23
 3876               	/* epilogue start */
 3877               	.LM380:
 3878 1320 0895      		ret
 3879               	.LFE69:
 3881               	.global	Timebase_UpCounter_Get_TemporaryValue
 3883               	Timebase_UpCounter_Get_TemporaryValue:
 3884               	.LFB70:
 3885               	.LM381:
 3886               	.LVL268:
 3887               	/* prologue: function */
 3888               	/* frame size = 0 */
 3889               	.LM382:
 3890 1322 E091 0000 		lds r30,Timebase
 3891 1326 F091 0000 		lds r31,(Timebase)+1
 3892 132a 90E0      		ldi r25,lo8(0)
 3893               	.LVL269:
 3894 132c 25E1      		ldi r18,lo8(21)
 3895 132e 30E0      		ldi r19,hi8(21)
 3896 1330 AC01      		movw r20,r24
 3897 1332 429F      		mul r20,r18
 3898 1334 C001      		movw r24,r0
 3899 1336 439F      		mul r20,r19
 3900 1338 900D      		add r25,r0
 3901 133a 529F      		mul r21,r18
 3902 133c 900D      		add r25,r0
 3903 133e 1124      		clr r1
 3904               	.LVL270:
 3905 1340 E80F      		add r30,r24
 3906 1342 F91F      		adc r31,r25
 3907 1344 FF96      		adiw r30,63
 3908 1346 6081      		ld r22,Z
 3909 1348 7181      		ldd r23,Z+1
 3910               	.LM383:
 3911 134a 8281      		ldd r24,Z+2
 3912 134c 9381      		ldd r25,Z+3
 3913               	.LVL271:
 3914               	/* epilogue start */
 3915 134e 0895      		ret
 3916               	.LFE70:
 3918               	.global	Timebase_UpCounter_Set_TemporaryValue
 3920               	Timebase_UpCounter_Set_TemporaryValue:
 3921               	.LFB71:
 3922               	.LM384:
 3923               	.LVL272:
 3924 1350 CF93      		push r28
 3925 1352 DF93      		push r29
 3926               	/* prologue: function */
 3927               	/* frame size = 0 */
 3928               	.LM385:
 3929 1354 C091 0000 		lds r28,Timebase
 3930 1358 D091 0000 		lds r29,(Timebase)+1
 3931 135c 90E0      		ldi r25,lo8(0)
 3932               	.LVL273:
 3933 135e 25E1      		ldi r18,lo8(21)
 3934 1360 30E0      		ldi r19,hi8(21)
 3935 1362 FC01      		movw r30,r24
 3936 1364 E29F      		mul r30,r18
 3937 1366 C001      		movw r24,r0
 3938 1368 E39F      		mul r30,r19
 3939 136a 900D      		add r25,r0
 3940 136c F29F      		mul r31,r18
 3941 136e 900D      		add r25,r0
 3942 1370 1124      		clr r1
 3943               	.LVL274:
 3944 1372 C80F      		add r28,r24
 3945 1374 D91F      		adc r29,r25
 3946 1376 EF96      		adiw r28,63
 3947 1378 CA01      		movw r24,r20
 3948               	.LVL275:
 3949 137a DB01      		movw r26,r22
 3950 137c B7FF      		sbrs r27,7
 3951 137e 00C0      		rjmp .L189
 3952               	.LVL276:
 3953 1380 80E0      		ldi r24,lo8(0)
 3954 1382 90E0      		ldi r25,hi8(0)
 3955 1384 A0E0      		ldi r26,hlo8(0)
 3956 1386 B0E0      		ldi r27,hhi8(0)
 3957               	.L189:
 3958 1388 8883      		st Y,r24
 3959 138a 9983      		std Y+1,r25
 3960 138c AA83      		std Y+2,r26
 3961 138e BB83      		std Y+3,r27
 3962               	/* epilogue start */
 3963               	.LM386:
 3964 1390 DF91      		pop r29
 3965 1392 CF91      		pop r28
 3966 1394 0895      		ret
 3967               	.LFE71:
 3969               	.global	Timebase_UpCounter_Get_PeriodValue
 3971               	Timebase_UpCounter_Get_PeriodValue:
 3972               	.LFB72:
 3973               	.LM387:
 3974               	.LVL277:
 3975               	/* prologue: function */
 3976               	/* frame size = 0 */
 3977               	.LM388:
 3978 1396 E091 0000 		lds r30,Timebase
 3979 139a F091 0000 		lds r31,(Timebase)+1
 3980 139e 90E0      		ldi r25,lo8(0)
 3981               	.LVL278:
 3982 13a0 25E1      		ldi r18,lo8(21)
 3983 13a2 30E0      		ldi r19,hi8(21)
 3984 13a4 AC01      		movw r20,r24
 3985 13a6 429F      		mul r20,r18
 3986 13a8 C001      		movw r24,r0
 3987 13aa 439F      		mul r20,r19
 3988 13ac 900D      		add r25,r0
 3989 13ae 529F      		mul r21,r18
 3990 13b0 900D      		add r25,r0
 3991 13b2 1124      		clr r1
 3992               	.LVL279:
 3993 13b4 E80F      		add r30,r24
 3994 13b6 F91F      		adc r31,r25
 3995 13b8 E95B      		subi r30,lo8(-(71))
 3996 13ba FF4F      		sbci r31,hi8(-(71))
 3997 13bc 6081      		ld r22,Z
 3998 13be 7181      		ldd r23,Z+1
 3999               	.LM389:
 4000 13c0 8281      		ldd r24,Z+2
 4001 13c2 9381      		ldd r25,Z+3
 4002               	.LVL280:
 4003               	/* epilogue start */
 4004 13c4 0895      		ret
 4005               	.LFE72:
 4007               	.global	Timebase_UpCounter_Set_PeriodValue
 4009               	Timebase_UpCounter_Set_PeriodValue:
 4010               	.LFB73:
 4011               	.LM390:
 4012               	.LVL281:
 4013               	/* prologue: function */
 4014               	/* frame size = 0 */
 4015               	.LM391:
 4016 13c6 E091 0000 		lds r30,Timebase
 4017 13ca F091 0000 		lds r31,(Timebase)+1
 4018 13ce 90E0      		ldi r25,lo8(0)
 4019               	.LVL282:
 4020 13d0 25E1      		ldi r18,lo8(21)
 4021 13d2 30E0      		ldi r19,hi8(21)
 4022 13d4 DC01      		movw r26,r24
 4023 13d6 A29F      		mul r26,r18
 4024 13d8 C001      		movw r24,r0
 4025 13da A39F      		mul r26,r19
 4026 13dc 900D      		add r25,r0
 4027 13de B29F      		mul r27,r18
 4028 13e0 900D      		add r25,r0
 4029 13e2 1124      		clr r1
 4030               	.LVL283:
 4031 13e4 E80F      		add r30,r24
 4032 13e6 F91F      		adc r31,r25
 4033 13e8 E95B      		subi r30,lo8(-(71))
 4034 13ea FF4F      		sbci r31,hi8(-(71))
 4035 13ec 4083      		st Z,r20
 4036 13ee 5183      		std Z+1,r21
 4037 13f0 6283      		std Z+2,r22
 4038 13f2 7383      		std Z+3,r23
 4039               	/* epilogue start */
 4040               	.LM392:
 4041 13f4 0895      		ret
 4042               	.LFE73:
 4044               	.global	Timebase_UpCounter_Get_Period_Flag
 4046               	Timebase_UpCounter_Get_Period_Flag:
 4047               	.LFB74:
 4048               	.LM393:
 4049               	.LVL284:
 4050               	/* prologue: function */
 4051               	/* frame size = 0 */
 4052               	.LM394:
 4053 13f6 E091 0000 		lds r30,Timebase
 4054 13fa F091 0000 		lds r31,(Timebase)+1
 4055 13fe 90E0      		ldi r25,lo8(0)
 4056               	.LVL285:
 4057 1400 25E1      		ldi r18,lo8(21)
 4058 1402 30E0      		ldi r19,hi8(21)
 4059 1404 AC01      		movw r20,r24
 4060 1406 429F      		mul r20,r18
 4061 1408 C001      		movw r24,r0
 4062 140a 439F      		mul r20,r19
 4063 140c 900D      		add r25,r0
 4064 140e 529F      		mul r21,r18
 4065 1410 900D      		add r25,r0
 4066 1412 1124      		clr r1
 4067               	.LVL286:
 4068 1414 E80F      		add r30,r24
 4069 1416 F91F      		adc r31,r25
 4070 1418 86A9      		ldd r24,Z+54
 4071               	.LM395:
 4072 141a 8170      		andi r24,lo8(1)
 4073               	/* epilogue start */
 4074 141c 0895      		ret
 4075               	.LFE74:
 4077               	.global	Timebase_UpCounter_Set_Period_Flag
 4079               	Timebase_UpCounter_Set_Period_Flag:
 4080               	.LFB75:
 4081               	.LM396:
 4082               	.LVL287:
 4083               	/* prologue: function */
 4084               	/* frame size = 0 */
 4085               	.LM397:
 4086 141e E091 0000 		lds r30,Timebase
 4087 1422 F091 0000 		lds r31,(Timebase)+1
 4088 1426 90E0      		ldi r25,lo8(0)
 4089               	.LVL288:
 4090 1428 25E1      		ldi r18,lo8(21)
 4091 142a 30E0      		ldi r19,hi8(21)
 4092 142c AC01      		movw r20,r24
 4093 142e 429F      		mul r20,r18
 4094 1430 C001      		movw r24,r0
 4095 1432 439F      		mul r20,r19
 4096 1434 900D      		add r25,r0
 4097 1436 529F      		mul r21,r18
 4098 1438 900D      		add r25,r0
 4099 143a 1124      		clr r1
 4100               	.LVL289:
 4101 143c E80F      		add r30,r24
 4102 143e F91F      		adc r31,r25
 4103 1440 86A9      		ldd r24,Z+54
 4104 1442 8160      		ori r24,lo8(1)
 4105 1444 86AB      		std Z+54,r24
 4106               	/* epilogue start */
 4107               	.LM398:
 4108 1446 0895      		ret
 4109               	.LFE75:
 4111               	.global	Timebase_UpCounter_Clear_Period_Flag
 4113               	Timebase_UpCounter_Clear_Period_Flag:
 4114               	.LFB76:
 4115               	.LM399:
 4116               	.LVL290:
 4117               	/* prologue: function */
 4118               	/* frame size = 0 */
 4119               	.LM400:
 4120 1448 E091 0000 		lds r30,Timebase
 4121 144c F091 0000 		lds r31,(Timebase)+1
 4122 1450 90E0      		ldi r25,lo8(0)
 4123               	.LVL291:
 4124 1452 25E1      		ldi r18,lo8(21)
 4125 1454 30E0      		ldi r19,hi8(21)
 4126 1456 AC01      		movw r20,r24
 4127 1458 429F      		mul r20,r18
 4128 145a C001      		movw r24,r0
 4129 145c 439F      		mul r20,r19
 4130 145e 900D      		add r25,r0
 4131 1460 529F      		mul r21,r18
 4132 1462 900D      		add r25,r0
 4133 1464 1124      		clr r1
 4134               	.LVL292:
 4135 1466 E80F      		add r30,r24
 4136 1468 F91F      		adc r31,r25
 4137 146a 86A9      		ldd r24,Z+54
 4138 146c 8E7F      		andi r24,lo8(-2)
 4139 146e 86AB      		std Z+54,r24
 4140               	/* epilogue start */
 4141               	.LM401:
 4142 1470 0895      		ret
 4143               	.LFE76:
 4145               	.global	Timebase_UpCounter_Reset
 4147               	Timebase_UpCounter_Reset:
 4148               	.LFB77:
 4149               	.LM402:
 4150               	.LVL293:
 4151               	/* prologue: function */
 4152               	/* frame size = 0 */
 4153               	.LBB872:
 4154               	.LBB873:
 4155               	.LM403:
 4156 1472 E091 0000 		lds r30,Timebase
 4157 1476 F091 0000 		lds r31,(Timebase)+1
 4158 147a 90E0      		ldi r25,lo8(0)
 4159 147c 25E1      		ldi r18,lo8(21)
 4160 147e 30E0      		ldi r19,hi8(21)
 4161 1480 AC01      		movw r20,r24
 4162               	.LVL294:
 4163 1482 429F      		mul r20,r18
 4164 1484 C001      		movw r24,r0
 4165 1486 439F      		mul r20,r19
 4166 1488 900D      		add r25,r0
 4167 148a 529F      		mul r21,r18
 4168 148c 900D      		add r25,r0
 4169 148e 1124      		clr r1
 4170 1490 E80F      		add r30,r24
 4171 1492 F91F      		adc r31,r25
 4172 1494 86A9      		ldd r24,Z+54
 4173               	.LBE873:
 4174               	.LBE872:
 4175               	.LBB874:
 4176               	.LBB875:
 4177               	.LM404:
 4178 1496 ED5B      		subi r30,lo8(-(67))
 4179 1498 FF4F      		sbci r31,hi8(-(67))
 4180 149a 1082      		st Z,__zero_reg__
 4181 149c 1182      		std Z+1,__zero_reg__
 4182 149e 1282      		std Z+2,__zero_reg__
 4183 14a0 1382      		std Z+3,__zero_reg__
 4184 14a2 E354      		subi r30,lo8(-(-67))
 4185 14a4 F040      		sbci r31,hi8(-(-67))
 4186               	.LBE875:
 4187               	.LBE874:
 4188               	.LBB876:
 4189               	.LBB877:
 4190               	.LM405:
 4191 14a6 17AA      		std Z+55,__zero_reg__
 4192 14a8 10AE      		std Z+56,__zero_reg__
 4193 14aa 11AE      		std Z+57,__zero_reg__
 4194 14ac 12AE      		std Z+58,__zero_reg__
 4195               	.LBE877:
 4196               	.LBE876:
 4197               	.LBB878:
 4198               	.LBB879:
 4199               	.LM406:
 4200 14ae 13AE      		std Z+59,__zero_reg__
 4201 14b0 14AE      		std Z+60,__zero_reg__
 4202 14b2 15AE      		std Z+61,__zero_reg__
 4203 14b4 16AE      		std Z+62,__zero_reg__
 4204               	.LBE879:
 4205               	.LBE878:
 4206               	.LBB880:
 4207               	.LBB881:
 4208               	.LM407:
 4209 14b6 FF96      		adiw r30,63
 4210 14b8 1082      		st Z,__zero_reg__
 4211 14ba 1182      		std Z+1,__zero_reg__
 4212 14bc 1282      		std Z+2,__zero_reg__
 4213 14be 1382      		std Z+3,__zero_reg__
 4214               	.LBE881:
 4215               	.LBE880:
 4216               	.LBB882:
 4217               	.LBB883:
 4218               	.LM408:
 4219 14c0 3896      		adiw r30,8
 4220 14c2 1082      		st Z,__zero_reg__
 4221 14c4 1182      		std Z+1,__zero_reg__
 4222 14c6 1282      		std Z+2,__zero_reg__
 4223 14c8 1382      		std Z+3,__zero_reg__
 4224 14ca E754      		subi r30,lo8(-(-71))
 4225 14cc F040      		sbci r31,hi8(-(-71))
 4226               	.LBE883:
 4227               	.LBE882:
 4228               	.LBB884:
 4229               	.LBB885:
 4230               	.LM409:
 4231 14ce 807E      		andi r24,lo8(-32)
 4232 14d0 86AB      		std Z+54,r24
 4233               	/* epilogue start */
 4234               	.LBE885:
 4235               	.LBE884:
 4236               	.LM410:
 4237 14d2 0895      		ret
 4238               	.LFE77:
 4240               	.global	Timebase_UpCounter_Clear_All_Flags
 4242               	Timebase_UpCounter_Clear_All_Flags:
 4243               	.LFB78:
 4244               	.LM411:
 4245               	.LVL295:
 4246               	/* prologue: function */
 4247               	/* frame size = 0 */
 4248               	.LM412:
 4249 14d4 0E94 0000 		call Timebase_UpCounter_Reset
 4250               	.LVL296:
 4251               	/* epilogue start */
 4252               	.LM413:
 4253 14d8 0895      		ret
 4254               	.LFE78:
 4256               	.global	Timebase_UpCounter_Start
 4258               	Timebase_UpCounter_Start:
 4259               	.LFB79:
 4260               	.LM414:
 4261               	.LVL297:
 4262               	/* prologue: function */
 4263               	/* frame size = 0 */
 4264               	.LBB886:
 4265               	.LBB887:
 4266               	.LM415:
 4267 14da E091 0000 		lds r30,Timebase
 4268 14de F091 0000 		lds r31,(Timebase)+1
 4269 14e2 90E0      		ldi r25,lo8(0)
 4270               	.LBE887:
 4271               	.LBE886:
 4272               	.LM416:
 4273 14e4 25E1      		ldi r18,lo8(21)
 4274 14e6 30E0      		ldi r19,hi8(21)
 4275 14e8 AC01      		movw r20,r24
 4276               	.LVL298:
 4277 14ea 429F      		mul r20,r18
 4278 14ec C001      		movw r24,r0
 4279 14ee 439F      		mul r20,r19
 4280 14f0 900D      		add r25,r0
 4281 14f2 529F      		mul r21,r18
 4282 14f4 900D      		add r25,r0
 4283 14f6 1124      		clr r1
 4284 14f8 E80F      		add r30,r24
 4285 14fa F91F      		adc r31,r25
 4286 14fc 96A9      		ldd r25,Z+54
 4287 14fe 892F      		mov r24,r25
 4288 1500 8695      		lsr r24
 4289 1502 8F70      		andi r24,lo8(15)
 4290 1504 8130      		cpi r24,lo8(1)
 4291 1506 01F0      		breq .L207
 4292               	.LBB888:
 4293               	.LBB889:
 4294               	.LM417:
 4295 1508 917E      		andi r25,lo8(-31)
 4296 150a 9260      		ori r25,lo8(2)
 4297 150c 96AB      		std Z+54,r25
 4298               	.L207:
 4299 150e 0895      		ret
 4300               	.LBE889:
 4301               	.LBE888:
 4302               	.LFE79:
 4304               	.global	Timebase_UpCounter_Stop
 4306               	Timebase_UpCounter_Stop:
 4307               	.LFB80:
 4308               	.LM418:
 4309               	.LVL299:
 4310               	/* prologue: function */
 4311               	/* frame size = 0 */
 4312               	.LBB890:
 4313               	.LBB891:
 4314               	.LM419:
 4315 1510 E091 0000 		lds r30,Timebase
 4316 1514 F091 0000 		lds r31,(Timebase)+1
 4317 1518 90E0      		ldi r25,lo8(0)
 4318               	.LBE891:
 4319               	.LBE890:
 4320               	.LM420:
 4321 151a 25E1      		ldi r18,lo8(21)
 4322 151c 30E0      		ldi r19,hi8(21)
 4323 151e AC01      		movw r20,r24
 4324               	.LVL300:
 4325 1520 429F      		mul r20,r18
 4326 1522 C001      		movw r24,r0
 4327 1524 439F      		mul r20,r19
 4328 1526 900D      		add r25,r0
 4329 1528 529F      		mul r21,r18
 4330 152a 900D      		add r25,r0
 4331 152c 1124      		clr r1
 4332 152e E80F      		add r30,r24
 4333 1530 F91F      		adc r31,r25
 4334 1532 96A9      		ldd r25,Z+54
 4335 1534 892F      		mov r24,r25
 4336 1536 8695      		lsr r24
 4337 1538 8F70      		andi r24,lo8(15)
 4338 153a 8230      		cpi r24,lo8(2)
 4339 153c 01F0      		breq .L210
 4340               	.LBB892:
 4341               	.LBB893:
 4342               	.LM421:
 4343 153e 917E      		andi r25,lo8(-31)
 4344 1540 9460      		ori r25,lo8(4)
 4345 1542 96AB      		std Z+54,r25
 4346               	.L210:
 4347 1544 0895      		ret
 4348               	.LBE893:
 4349               	.LBE892:
 4350               	.LFE80:
 4352               	.global	Timebase_UpCounter_Set_Securely
 4354               	Timebase_UpCounter_Set_Securely:
 4355               	.LFB81:
 4356               	.LM422:
 4357               	.LVL301:
 4358               	/* prologue: function */
 4359               	/* frame size = 0 */
 4360               	.LBB894:
 4361               	.LBB895:
 4362               	.LM423:
 4363 1546 A091 0000 		lds r26,Timebase
 4364 154a B091 0000 		lds r27,(Timebase)+1
 4365 154e 90E0      		ldi r25,lo8(0)
 4366               	.LBE895:
 4367               	.LBE894:
 4368               	.LM424:
 4369 1550 25E1      		ldi r18,lo8(21)
 4370 1552 30E0      		ldi r19,hi8(21)
 4371 1554 829F      		mul r24,r18
 4372 1556 F001      		movw r30,r0
 4373 1558 839F      		mul r24,r19
 4374 155a F00D      		add r31,r0
 4375 155c 929F      		mul r25,r18
 4376 155e F00D      		add r31,r0
 4377 1560 1124      		clr r1
 4378               	.LVL302:
 4379 1562 EA0F      		add r30,r26
 4380 1564 FB1F      		adc r31,r27
 4381 1566 86A9      		ldd r24,Z+54
 4382 1568 8695      		lsr r24
 4383 156a 8F70      		andi r24,lo8(15)
 4384 156c 01F4      		brne .L213
 4385               	.LBB896:
 4386               	.LBB897:
 4387               	.LM425:
 4388 156e ED5B      		subi r30,lo8(-(67))
 4389 1570 FF4F      		sbci r31,hi8(-(67))
 4390 1572 1082      		st Z,__zero_reg__
 4391 1574 1182      		std Z+1,__zero_reg__
 4392 1576 1282      		std Z+2,__zero_reg__
 4393 1578 1382      		std Z+3,__zero_reg__
 4394               	.LBE897:
 4395               	.LBE896:
 4396               	.LBB898:
 4397               	.LBB899:
 4398               	.LM426:
 4399 157a 1292      		st -Z,__zero_reg__
 4400 157c 1292      		st -Z,__zero_reg__
 4401 157e 1292      		st -Z,__zero_reg__
 4402 1580 1292      		st -Z,__zero_reg__
 4403 1582 FF97      		sbiw r30,63
 4404               	.LBE899:
 4405               	.LBE898:
 4406               	.LBB900:
 4407               	.LBB901:
 4408               	.LM427:
 4409 1584 43AF      		std Z+59,r20
 4410 1586 54AF      		std Z+60,r21
 4411 1588 65AF      		std Z+61,r22
 4412 158a 76AF      		std Z+62,r23
 4413               	.LBE901:
 4414               	.LBE900:
 4415               	.LBB902:
 4416               	.LBB903:
 4417               	.LM428:
 4418 158c 1B96      		adiw r26,11
 4419 158e 8D91      		ld r24,X+
 4420 1590 9D91      		ld r25,X+
 4421 1592 0D90      		ld __tmp_reg__,X+
 4422 1594 BC91      		ld r27,X
 4423 1596 A02D      		mov r26,__tmp_reg__
 4424               	.LVL303:
 4425               	.LBE903:
 4426               	.LBE902:
 4427               	.LBB904:
 4428               	.LBB905:
 4429               	.LM429:
 4430 1598 840F      		add r24,r20
 4431 159a 951F      		adc r25,r21
 4432 159c A61F      		adc r26,r22
 4433 159e B71F      		adc r27,r23
 4434 15a0 87AB      		std Z+55,r24
 4435 15a2 90AF      		std Z+56,r25
 4436 15a4 A1AF      		std Z+57,r26
 4437 15a6 B2AF      		std Z+58,r27
 4438               	.LBE905:
 4439               	.LBE904:
 4440               	.LBB906:
 4441               	.LBB907:
 4442               	.LM430:
 4443 15a8 96A9      		ldd r25,Z+54
 4444 15aa 892F      		mov r24,r25
 4445               	.LVL304:
 4446 15ac 8695      		lsr r24
 4447 15ae 8F70      		andi r24,lo8(15)
 4448 15b0 8130      		cpi r24,lo8(1)
 4449 15b2 01F0      		breq .L213
 4450               	.LBB908:
 4451               	.LBB909:
 4452               	.LM431:
 4453 15b4 917E      		andi r25,lo8(-31)
 4454 15b6 9260      		ori r25,lo8(2)
 4455 15b8 96AB      		std Z+54,r25
 4456               	.L213:
 4457 15ba 0895      		ret
 4458               	.LBE909:
 4459               	.LBE908:
 4460               	.LBE907:
 4461               	.LBE906:
 4462               	.LFE81:
 4464               	.global	Timebase_UpCounter_Set_Forcefully
 4466               	Timebase_UpCounter_Set_Forcefully:
 4467               	.LFB82:
 4468               	.LM432:
 4469               	.LVL305:
 4470 15bc DF92      		push r13
 4471 15be EF92      		push r14
 4472 15c0 FF92      		push r15
 4473 15c2 0F93      		push r16
 4474 15c4 1F93      		push r17
 4475               	/* prologue: function */
 4476               	/* frame size = 0 */
 4477 15c6 D82E      		mov r13,r24
 4478 15c8 7A01      		movw r14,r20
 4479 15ca 8B01      		movw r16,r22
 4480               	.LM433:
 4481 15cc 0E94 0000 		call Timebase_UpCounter_Reset
 4482               	.LVL306:
 4483               	.LM434:
 4484 15d0 8D2D      		mov r24,r13
 4485 15d2 B801      		movw r22,r16
 4486 15d4 A701      		movw r20,r14
 4487 15d6 0E94 0000 		call Timebase_UpCounter_Set_Securely
 4488               	/* epilogue start */
 4489               	.LM435:
 4490 15da 1F91      		pop r17
 4491 15dc 0F91      		pop r16
 4492 15de FF90      		pop r15
 4493 15e0 EF90      		pop r14
 4494               	.LVL307:
 4495 15e2 DF90      		pop r13
 4496               	.LVL308:
 4497 15e4 0895      		ret
 4498               	.LFE82:
 4500               	.global	Timebase_UpCounter_Update
 4502               	Timebase_UpCounter_Update:
 4503               	.LFB83:
 4504               	.LM436:
 4505               	.LVL309:
 4506 15e6 EF92      		push r14
 4507 15e8 FF92      		push r15
 4508 15ea 0F93      		push r16
 4509 15ec 1F93      		push r17
 4510 15ee CF93      		push r28
 4511 15f0 DF93      		push r29
 4512               	/* prologue: function */
 4513               	/* frame size = 0 */
 4514               	.LBB910:
 4515               	.LBB911:
 4516               	.LM437:
 4517 15f2 6091 0000 		lds r22,Timebase
 4518 15f6 7091 0000 		lds r23,(Timebase)+1
 4519 15fa 082F      		mov r16,r24
 4520 15fc 10E0      		ldi r17,lo8(0)
 4521 15fe 85E1      		ldi r24,lo8(21)
 4522 1600 90E0      		ldi r25,hi8(21)
 4523               	.LVL310:
 4524 1602 089F      		mul r16,r24
 4525 1604 F001      		movw r30,r0
 4526 1606 099F      		mul r16,r25
 4527 1608 F00D      		add r31,r0
 4528 160a 189F      		mul r17,r24
 4529 160c F00D      		add r31,r0
 4530 160e 1124      		clr r1
 4531 1610 E60F      		add r30,r22
 4532 1612 F71F      		adc r31,r23
 4533 1614 86A9      		ldd r24,Z+54
 4534 1616 8695      		lsr r24
 4535 1618 8F70      		andi r24,lo8(15)
 4536               	.LBE911:
 4537               	.LBE910:
 4538               	.LM438:
 4539 161a 8130      		cpi r24,lo8(1)
 4540 161c 01F0      		breq .+2
 4541 161e 00C0      		rjmp .L217
 4542               	.LBB912:
 4543               	.LBB913:
 4544               	.LM439:
 4545 1620 EB01      		movw r28,r22
 4546 1622 8B85      		ldd r24,Y+11
 4547 1624 9C85      		ldd r25,Y+12
 4548 1626 AD85      		ldd r26,Y+13
 4549 1628 BE85      		ldd r27,Y+14
 4550               	.LVL311:
 4551               	.LBE913:
 4552               	.LBE912:
 4553               	.LM440:
 4554 162a 27A9      		ldd r18,Z+55
 4555 162c 30AD      		ldd r19,Z+56
 4556 162e 41AD      		ldd r20,Z+57
 4557 1630 52AD      		ldd r21,Z+58
 4558               	.LVL312:
 4559 1632 281B      		sub r18,r24
 4560 1634 390B      		sbc r19,r25
 4561 1636 4A0B      		sbc r20,r26
 4562 1638 5B0B      		sbc r21,r27
 4563 163a 57FF      		sbrs r21,7
 4564 163c 00C0      		rjmp .L218
 4565 163e 20E0      		ldi r18,lo8(0)
 4566 1640 30E0      		ldi r19,hi8(0)
 4567 1642 40E0      		ldi r20,hlo8(0)
 4568 1644 50E0      		ldi r21,hhi8(0)
 4569               	.L218:
 4570               	.LBB914:
 4571               	.LBB915:
 4572               	.LM441:
 4573 1646 85E1      		ldi r24,lo8(21)
 4574 1648 90E0      		ldi r25,hi8(21)
 4575               	.LVL313:
 4576 164a 089F      		mul r16,r24
 4577 164c F001      		movw r30,r0
 4578 164e 099F      		mul r16,r25
 4579 1650 F00D      		add r31,r0
 4580 1652 189F      		mul r17,r24
 4581 1654 F00D      		add r31,r0
 4582 1656 1124      		clr r1
 4583 1658 E60F      		add r30,r22
 4584 165a F71F      		adc r31,r23
 4585 165c FF96      		adiw r30,63
 4586 165e 2083      		st Z,r18
 4587 1660 3183      		std Z+1,r19
 4588 1662 4283      		std Z+2,r20
 4589 1664 5383      		std Z+3,r21
 4590 1666 FF97      		sbiw r30,63
 4591               	.LBE915:
 4592               	.LBE914:
 4593               	.LM442:
 4594 1668 83AD      		ldd r24,Z+59
 4595 166a 94AD      		ldd r25,Z+60
 4596 166c A5AD      		ldd r26,Z+61
 4597 166e B6AD      		ldd r27,Z+62
 4598               	.LVL314:
 4599               	.LBB916:
 4600               	.LBB917:
 4601               	.LM443:
 4602 1670 ED5B      		subi r30,lo8(-(67))
 4603 1672 FF4F      		sbci r31,hi8(-(67))
 4604 1674 821B      		sub r24,r18
 4605 1676 930B      		sbc r25,r19
 4606 1678 A40B      		sbc r26,r20
 4607 167a B50B      		sbc r27,r21
 4608 167c B7FF      		sbrs r27,7
 4609 167e 00C0      		rjmp .L219
 4610 1680 80E0      		ldi r24,lo8(0)
 4611 1682 90E0      		ldi r25,hi8(0)
 4612 1684 A0E0      		ldi r26,hlo8(0)
 4613 1686 B0E0      		ldi r27,hhi8(0)
 4614               	.L219:
 4615 1688 8083      		st Z,r24
 4616 168a 9183      		std Z+1,r25
 4617 168c A283      		std Z+2,r26
 4618 168e B383      		std Z+3,r27
 4619               	.LBE917:
 4620               	.LBE916:
 4621               	.LM444:
 4622 1690 85E1      		ldi r24,lo8(21)
 4623 1692 90E0      		ldi r25,hi8(21)
 4624               	.LVL315:
 4625 1694 089F      		mul r16,r24
 4626 1696 E001      		movw r28,r0
 4627 1698 099F      		mul r16,r25
 4628 169a D00D      		add r29,r0
 4629 169c 189F      		mul r17,r24
 4630 169e D00D      		add r29,r0
 4631 16a0 1124      		clr r1
 4632 16a2 C60F      		add r28,r22
 4633 16a4 D71F      		adc r29,r23
 4634 16a6 FE01      		movw r30,r28
 4635 16a8 FF96      		adiw r30,63
 4636 16aa 8081      		ld r24,Z
 4637 16ac 9181      		ldd r25,Z+1
 4638 16ae A281      		ldd r26,Z+2
 4639 16b0 B381      		ldd r27,Z+3
 4640 16b2 1816      		cp __zero_reg__,r24
 4641 16b4 1906      		cpc __zero_reg__,r25
 4642 16b6 1A06      		cpc __zero_reg__,r26
 4643 16b8 1B06      		cpc __zero_reg__,r27
 4644 16ba 04F4      		brge .+2
 4645 16bc 00C0      		rjmp .L223
 4646               	.LBB918:
 4647               	.LBB919:
 4648               	.LM445:
 4649 16be 1FAA      		std Y+55,__zero_reg__
 4650 16c0 18AE      		std Y+56,__zero_reg__
 4651 16c2 19AE      		std Y+57,__zero_reg__
 4652 16c4 1AAE      		std Y+58,__zero_reg__
 4653               	.LBE919:
 4654               	.LBE918:
 4655               	.LBB920:
 4656               	.LBB921:
 4657               	.LM446:
 4658 16c6 1082      		st Z,__zero_reg__
 4659 16c8 1182      		std Z+1,__zero_reg__
 4660 16ca 1282      		std Z+2,__zero_reg__
 4661 16cc 1382      		std Z+3,__zero_reg__
 4662               	.LBE921:
 4663               	.LBE920:
 4664               	.LBB922:
 4665               	.LBB923:
 4666               	.LM447:
 4667 16ce FE01      		movw r30,r28
 4668 16d0 FB96      		adiw r30,59
 4669               	.LBE923:
 4670               	.LBE922:
 4671               	.LBB924:
 4672               	.LBB925:
 4673               	.LM448:
 4674 16d2 83E4      		ldi r24,lo8(67)
 4675 16d4 E82E      		mov r14,r24
 4676 16d6 F12C      		mov r15,__zero_reg__
 4677 16d8 EC0E      		add r14,r28
 4678 16da FD1E      		adc r15,r29
 4679 16dc 2BAD      		ldd r18,Y+59
 4680               	.LVL316:
 4681 16de 3181      		ldd r19,Z+1
 4682               	.LVL317:
 4683 16e0 4281      		ldd r20,Z+2
 4684               	.LVL318:
 4685 16e2 5381      		ldd r21,Z+3
 4686               	.LVL319:
 4687 16e4 C901      		movw r24,r18
 4688               	.LVL320:
 4689 16e6 DA01      		movw r26,r20
 4690               	.LVL321:
 4691 16e8 B7FF      		sbrs r27,7
 4692 16ea 00C0      		rjmp .L221
 4693               	.LVL322:
 4694 16ec 80E0      		ldi r24,lo8(0)
 4695 16ee 90E0      		ldi r25,hi8(0)
 4696 16f0 A0E0      		ldi r26,hlo8(0)
 4697 16f2 B0E0      		ldi r27,hhi8(0)
 4698               	.L221:
 4699 16f4 F701      		movw r30,r14
 4700 16f6 8083      		st Z,r24
 4701 16f8 9183      		std Z+1,r25
 4702 16fa A283      		std Z+2,r26
 4703 16fc B383      		std Z+3,r27
 4704               	.LBE925:
 4705               	.LBE924:
 4706               	.LBB926:
 4707               	.LBB927:
 4708               	.LM449:
 4709 16fe 85E1      		ldi r24,lo8(21)
 4710 1700 90E0      		ldi r25,hi8(21)
 4711               	.LVL323:
 4712 1702 089F      		mul r16,r24
 4713 1704 F001      		movw r30,r0
 4714 1706 099F      		mul r16,r25
 4715 1708 F00D      		add r31,r0
 4716 170a 189F      		mul r17,r24
 4717 170c F00D      		add r31,r0
 4718 170e 1124      		clr r1
 4719 1710 E60F      		add r30,r22
 4720 1712 F71F      		adc r31,r23
 4721 1714 86A9      		ldd r24,Z+54
 4722 1716 817E      		andi r24,lo8(-31)
 4723 1718 8860      		ori r24,lo8(8)
 4724 171a 86AB      		std Z+54,r24
 4725 171c 00C0      		rjmp .L223
 4726               	.LVL324:
 4727               	.L217:
 4728               	.LBE927:
 4729               	.LBE926:
 4730               	.LM450:
 4731 171e 8230      		cpi r24,lo8(2)
 4732 1720 01F4      		brne .L223
 4733               	.LBB928:
 4734               	.LBB929:
 4735               	.LM451:
 4736 1722 EB01      		movw r28,r22
 4737 1724 8B85      		ldd r24,Y+11
 4738 1726 9C85      		ldd r25,Y+12
 4739 1728 AD85      		ldd r26,Y+13
 4740 172a BE85      		ldd r27,Y+14
 4741               	.LVL325:
 4742               	.LBE929:
 4743               	.LBE928:
 4744               	.LBB930:
 4745               	.LBB931:
 4746               	.LM452:
 4747 172c FF96      		adiw r30,63
 4748 172e 2081      		ld r18,Z
 4749 1730 3181      		ldd r19,Z+1
 4750 1732 4281      		ldd r20,Z+2
 4751 1734 5381      		ldd r21,Z+3
 4752 1736 FF97      		sbiw r30,63
 4753 1738 820F      		add r24,r18
 4754 173a 931F      		adc r25,r19
 4755 173c A41F      		adc r26,r20
 4756 173e B51F      		adc r27,r21
 4757 1740 87AB      		std Z+55,r24
 4758 1742 90AF      		std Z+56,r25
 4759 1744 A1AF      		std Z+57,r26
 4760 1746 B2AF      		std Z+58,r27
 4761               	.LBE931:
 4762               	.LBE930:
 4763               	.LM453:
 4764 1748 83AD      		ldd r24,Z+59
 4765 174a 94AD      		ldd r25,Z+60
 4766 174c A5AD      		ldd r26,Z+61
 4767 174e B6AD      		ldd r27,Z+62
 4768               	.LVL326:
 4769               	.LBB932:
 4770               	.LBB933:
 4771               	.LM454:
 4772 1750 ED5B      		subi r30,lo8(-(67))
 4773 1752 FF4F      		sbci r31,hi8(-(67))
 4774 1754 821B      		sub r24,r18
 4775 1756 930B      		sbc r25,r19
 4776 1758 A40B      		sbc r26,r20
 4777 175a B50B      		sbc r27,r21
 4778 175c B7FF      		sbrs r27,7
 4779 175e 00C0      		rjmp .L222
 4780 1760 80E0      		ldi r24,lo8(0)
 4781 1762 90E0      		ldi r25,hi8(0)
 4782 1764 A0E0      		ldi r26,hlo8(0)
 4783 1766 B0E0      		ldi r27,hhi8(0)
 4784               	.L222:
 4785 1768 8083      		st Z,r24
 4786 176a 9183      		std Z+1,r25
 4787 176c A283      		std Z+2,r26
 4788 176e B383      		std Z+3,r27
 4789               	.LVL327:
 4790               	.L223:
 4791               	/* epilogue start */
 4792               	.LBE933:
 4793               	.LBE932:
 4794               	.LM455:
 4795 1770 DF91      		pop r29
 4796 1772 CF91      		pop r28
 4797 1774 1F91      		pop r17
 4798 1776 0F91      		pop r16
 4799 1778 FF90      		pop r15
 4800 177a EF90      		pop r14
 4801 177c 0895      		ret
 4802               	.LFE83:
 4804               	.global	Timebase_UpCounter_Expired
 4806               	Timebase_UpCounter_Expired:
 4807               	.LFB84:
 4808               	.LM456:
 4809               	.LVL328:
 4810               	/* prologue: function */
 4811               	/* frame size = 0 */
 4812               	.LM457:
 4813 177e 40E0      		ldi r20,lo8(0)
 4814 1780 E091 0000 		lds r30,Timebase
 4815 1784 F091 0000 		lds r31,(Timebase)+1
 4816 1788 90E0      		ldi r25,lo8(0)
 4817               	.LVL329:
 4818 178a 25E1      		ldi r18,lo8(21)
 4819 178c 30E0      		ldi r19,hi8(21)
 4820 178e BC01      		movw r22,r24
 4821 1790 629F      		mul r22,r18
 4822 1792 C001      		movw r24,r0
 4823 1794 639F      		mul r22,r19
 4824 1796 900D      		add r25,r0
 4825 1798 729F      		mul r23,r18
 4826 179a 900D      		add r25,r0
 4827 179c 1124      		clr r1
 4828               	.LVL330:
 4829 179e E80F      		add r30,r24
 4830 17a0 F91F      		adc r31,r25
 4831 17a2 86A9      		ldd r24,Z+54
 4832 17a4 8695      		lsr r24
 4833 17a6 8F70      		andi r24,lo8(15)
 4834 17a8 8430      		cpi r24,lo8(4)
 4835 17aa 01F4      		brne .L225
 4836 17ac 41E0      		ldi r20,lo8(1)
 4837               	.L225:
 4838               	.LM458:
 4839 17ae 842F      		mov r24,r20
 4840               	/* epilogue start */
 4841 17b0 0895      		ret
 4842               	.LFE84:
 4844               	.global	Timebase_UpCounter_Expired_Event
 4846               	Timebase_UpCounter_Expired_Event:
 4847               	.LFB85:
 4848               	.LM459:
 4849               	.LVL331:
 4850               	/* prologue: function */
 4851               	/* frame size = 0 */
 4852 17b2 482F      		mov r20,r24
 4853               	.LM460:
 4854 17b4 E091 0000 		lds r30,Timebase
 4855 17b8 F091 0000 		lds r31,(Timebase)+1
 4856 17bc 282F      		mov r18,r24
 4857 17be 30E0      		ldi r19,lo8(0)
 4858               	.LVL332:
 4859 17c0 85E1      		ldi r24,lo8(21)
 4860 17c2 90E0      		ldi r25,hi8(21)
 4861               	.LVL333:
 4862 17c4 BC01      		movw r22,r24
 4863 17c6 269F      		mul r18,r22
 4864 17c8 C001      		movw r24,r0
 4865 17ca 279F      		mul r18,r23
 4866 17cc 900D      		add r25,r0
 4867 17ce 369F      		mul r19,r22
 4868 17d0 900D      		add r25,r0
 4869 17d2 1124      		clr r1
 4870 17d4 E80F      		add r30,r24
 4871 17d6 F91F      		adc r31,r25
 4872 17d8 86A9      		ldd r24,Z+54
 4873 17da 8695      		lsr r24
 4874 17dc 8F70      		andi r24,lo8(15)
 4875 17de 8430      		cpi r24,lo8(4)
 4876 17e0 01F0      		breq .L228
 4877 17e2 80E0      		ldi r24,lo8(0)
 4878 17e4 0895      		ret
 4879               	.L228:
 4880               	.LBB934:
 4881               	.LBB935:
 4882               	.LM461:
 4883 17e6 842F      		mov r24,r20
 4884 17e8 0E94 0000 		call Timebase_UpCounter_Reset
 4885               	.LVL334:
 4886 17ec 81E0      		ldi r24,lo8(1)
 4887               	.LBE935:
 4888               	.LBE934:
 4889               	.LM462:
 4890 17ee 0895      		ret
 4891               	.LFE85:
 4893               	.global	Timebase_UpCounter_Set_Period_Value_Securely
 4895               	Timebase_UpCounter_Set_Period_Value_Securely:
 4896               	.LFB86:
 4897               	.LM463:
 4898               	.LVL335:
 4899 17f0 CF93      		push r28
 4900 17f2 DF93      		push r29
 4901               	/* prologue: function */
 4902               	/* frame size = 0 */
 4903               	.LBB936:
 4904               	.LBB937:
 4905               	.LM464:
 4906 17f4 C091 0000 		lds r28,Timebase
 4907 17f8 D091 0000 		lds r29,(Timebase)+1
 4908 17fc 90E0      		ldi r25,lo8(0)
 4909               	.LBE937:
 4910               	.LBE936:
 4911               	.LM465:
 4912 17fe 25E1      		ldi r18,lo8(21)
 4913 1800 30E0      		ldi r19,hi8(21)
 4914 1802 FC01      		movw r30,r24
 4915               	.LVL336:
 4916 1804 E29F      		mul r30,r18
 4917 1806 C001      		movw r24,r0
 4918 1808 E39F      		mul r30,r19
 4919 180a 900D      		add r25,r0
 4920 180c F29F      		mul r31,r18
 4921 180e 900D      		add r25,r0
 4922 1810 1124      		clr r1
 4923 1812 C80F      		add r28,r24
 4924 1814 D91F      		adc r29,r25
 4925 1816 8EA9      		ldd r24,Y+54
 4926 1818 80FD      		sbrc r24,0
 4927 181a 00C0      		rjmp .L233
 4928               	.LBB938:
 4929               	.LBB939:
 4930               	.LM466:
 4931 181c FE01      		movw r30,r28
 4932 181e E95B      		subi r30,lo8(-(71))
 4933 1820 FF4F      		sbci r31,hi8(-(71))
 4934 1822 CD5B      		subi r28,lo8(-(67))
 4935 1824 DF4F      		sbci r29,hi8(-(67))
 4936 1826 8881      		ld r24,Y
 4937 1828 9981      		ldd r25,Y+1
 4938 182a AA81      		ldd r26,Y+2
 4939 182c BB81      		ldd r27,Y+3
 4940 182e C354      		subi r28,lo8(-(-67))
 4941 1830 D040      		sbci r29,hi8(-(-67))
 4942 1832 840F      		add r24,r20
 4943 1834 951F      		adc r25,r21
 4944 1836 A61F      		adc r26,r22
 4945 1838 B71F      		adc r27,r23
 4946 183a 8083      		st Z,r24
 4947 183c 9183      		std Z+1,r25
 4948 183e A283      		std Z+2,r26
 4949 1840 B383      		std Z+3,r27
 4950               	.LBE939:
 4951               	.LBE938:
 4952               	.LBB940:
 4953               	.LBB941:
 4954               	.LM467:
 4955 1842 8EA9      		ldd r24,Y+54
 4956 1844 8160      		ori r24,lo8(1)
 4957 1846 8EAB      		std Y+54,r24
 4958               	.L233:
 4959               	/* epilogue start */
 4960               	.LBE941:
 4961               	.LBE940:
 4962               	.LM468:
 4963 1848 DF91      		pop r29
 4964 184a CF91      		pop r28
 4965 184c 0895      		ret
 4966               	.LFE86:
 4968               	.global	Timebase_UpCounter_Get_Remaining_Period_Value
 4970               	Timebase_UpCounter_Get_Remaining_Period_Value:
 4971               	.LFB87:
 4972               	.LM469:
 4973               	.LVL337:
 4974               	/* prologue: function */
 4975               	/* frame size = 0 */
 4976               	.LBB942:
 4977               	.LBB943:
 4978               	.LM470:
 4979 184e E091 0000 		lds r30,Timebase
 4980 1852 F091 0000 		lds r31,(Timebase)+1
 4981 1856 90E0      		ldi r25,lo8(0)
 4982               	.LBE943:
 4983               	.LBE942:
 4984               	.LM471:
 4985 1858 25E1      		ldi r18,lo8(21)
 4986 185a 30E0      		ldi r19,hi8(21)
 4987 185c AC01      		movw r20,r24
 4988               	.LVL338:
 4989 185e 429F      		mul r20,r18
 4990 1860 C001      		movw r24,r0
 4991 1862 439F      		mul r20,r19
 4992 1864 900D      		add r25,r0
 4993 1866 529F      		mul r21,r18
 4994 1868 900D      		add r25,r0
 4995 186a 1124      		clr r1
 4996 186c E80F      		add r30,r24
 4997 186e F91F      		adc r31,r25
 4998 1870 DF01      		movw r26,r30
 4999 1872 AD5B      		subi r26,lo8(-(67))
 5000 1874 BF4F      		sbci r27,hi8(-(67))
 5001 1876 E95B      		subi r30,lo8(-(71))
 5002 1878 FF4F      		sbci r31,hi8(-(71))
 5003 187a 2081      		ld r18,Z
 5004 187c 3181      		ldd r19,Z+1
 5005 187e 4281      		ldd r20,Z+2
 5006 1880 5381      		ldd r21,Z+3
 5007               	.LVL339:
 5008 1882 8D91      		ld r24,X+
 5009 1884 9D91      		ld r25,X+
 5010 1886 0D90      		ld __tmp_reg__,X+
 5011 1888 BC91      		ld r27,X
 5012 188a A02D      		mov r26,__tmp_reg__
 5013 188c 281B      		sub r18,r24
 5014 188e 390B      		sbc r19,r25
 5015 1890 4A0B      		sbc r20,r26
 5016 1892 5B0B      		sbc r21,r27
 5017 1894 57FF      		sbrs r21,7
 5018 1896 00C0      		rjmp .L235
 5019 1898 20E0      		ldi r18,lo8(0)
 5020 189a 30E0      		ldi r19,hi8(0)
 5021 189c 40E0      		ldi r20,hlo8(0)
 5022 189e 50E0      		ldi r21,hhi8(0)
 5023               	.L235:
 5024               	.LM472:
 5025 18a0 B901      		movw r22,r18
 5026               	.LVL340:
 5027 18a2 CA01      		movw r24,r20
 5028               	/* epilogue start */
 5029 18a4 0895      		ret
 5030               	.LFE87:
 5032               	.global	Timebase_UpCounter_Period_Value_Expired
 5034               	Timebase_UpCounter_Period_Value_Expired:
 5035               	.LFB88:
 5036               	.LM473:
 5037               	.LVL341:
 5038 18a6 CF93      		push r28
 5039 18a8 DF93      		push r29
 5040               	/* prologue: function */
 5041               	/* frame size = 0 */
 5042               	.LBB944:
 5043               	.LBB945:
 5044               	.LBB946:
 5045               	.LBB947:
 5046               	.LM474:
 5047 18aa C091 0000 		lds r28,Timebase
 5048 18ae D091 0000 		lds r29,(Timebase)+1
 5049 18b2 682F      		mov r22,r24
 5050 18b4 70E0      		ldi r23,lo8(0)
 5051               	.LBE947:
 5052               	.LBE946:
 5053               	.LM475:
 5054 18b6 85E1      		ldi r24,lo8(21)
 5055 18b8 90E0      		ldi r25,hi8(21)
 5056               	.LVL342:
 5057 18ba 689F      		mul r22,r24
 5058 18bc F001      		movw r30,r0
 5059 18be 699F      		mul r22,r25
 5060 18c0 F00D      		add r31,r0
 5061 18c2 789F      		mul r23,r24
 5062 18c4 F00D      		add r31,r0
 5063 18c6 1124      		clr r1
 5064 18c8 EC0F      		add r30,r28
 5065 18ca FD1F      		adc r31,r29
 5066 18cc DF01      		movw r26,r30
 5067 18ce AD5B      		subi r26,lo8(-(67))
 5068 18d0 BF4F      		sbci r27,hi8(-(67))
 5069 18d2 E95B      		subi r30,lo8(-(71))
 5070 18d4 FF4F      		sbci r31,hi8(-(71))
 5071 18d6 2081      		ld r18,Z
 5072 18d8 3181      		ldd r19,Z+1
 5073 18da 4281      		ldd r20,Z+2
 5074 18dc 5381      		ldd r21,Z+3
 5075               	.LVL343:
 5076 18de 8D91      		ld r24,X+
 5077 18e0 9D91      		ld r25,X+
 5078 18e2 0D90      		ld __tmp_reg__,X+
 5079 18e4 BC91      		ld r27,X
 5080 18e6 A02D      		mov r26,__tmp_reg__
 5081 18e8 281B      		sub r18,r24
 5082 18ea 390B      		sbc r19,r25
 5083 18ec 4A0B      		sbc r20,r26
 5084 18ee 5B0B      		sbc r21,r27
 5085               	.LM476:
 5086 18f0 57FD      		sbrc r21,7
 5087 18f2 00C0      		rjmp .L238
 5088               	.LBE945:
 5089               	.LBE944:
 5090               	.LM477:
 5091 18f4 2115      		cp r18,__zero_reg__
 5092 18f6 3105      		cpc r19,__zero_reg__
 5093 18f8 4105      		cpc r20,__zero_reg__
 5094 18fa 5105      		cpc r21,__zero_reg__
 5095 18fc 01F0      		breq .L238
 5096 18fe 20E0      		ldi r18,lo8(0)
 5097               	.LVL344:
 5098 1900 00C0      		rjmp .L239
 5099               	.LVL345:
 5100               	.L238:
 5101 1902 20E0      		ldi r18,lo8(0)
 5102               	.LVL346:
 5103 1904 85E1      		ldi r24,lo8(21)
 5104 1906 90E0      		ldi r25,hi8(21)
 5105 1908 AC01      		movw r20,r24
 5106 190a 649F      		mul r22,r20
 5107 190c C001      		movw r24,r0
 5108 190e 659F      		mul r22,r21
 5109 1910 900D      		add r25,r0
 5110 1912 749F      		mul r23,r20
 5111 1914 900D      		add r25,r0
 5112 1916 1124      		clr r1
 5113 1918 C80F      		add r28,r24
 5114 191a D91F      		adc r29,r25
 5115 191c 8EA9      		ldd r24,Y+54
 5116 191e 80FF      		sbrs r24,0
 5117 1920 21E0      		ldi r18,lo8(1)
 5118               	.L240:
 5119 1922 81E0      		ldi r24,lo8(1)
 5120 1924 2827      		eor r18,r24
 5121               	.L239:
 5122               	.LM478:
 5123 1926 822F      		mov r24,r18
 5124               	/* epilogue start */
 5125 1928 DF91      		pop r29
 5126 192a CF91      		pop r28
 5127 192c 0895      		ret
 5128               	.LFE88:
 5130               	.global	Timebase_UpCounter_Period_Value_Expired_Event
 5132               	Timebase_UpCounter_Period_Value_Expired_Event:
 5133               	.LFB89:
 5134               	.LM479:
 5135               	.LVL347:
 5136 192e 1F93      		push r17
 5137               	/* prologue: function */
 5138               	/* frame size = 0 */
 5139 1930 182F      		mov r17,r24
 5140               	.LM480:
 5141 1932 0E94 0000 		call Timebase_UpCounter_Period_Value_Expired
 5142               	.LVL348:
 5143 1936 8130      		cpi r24,lo8(1)
 5144 1938 01F0      		breq .L243
 5145 193a 80E0      		ldi r24,lo8(0)
 5146 193c 00C0      		rjmp .L244
 5147               	.L243:
 5148               	.LBB948:
 5149               	.LBB949:
 5150               	.LM481:
 5151 193e E091 0000 		lds r30,Timebase
 5152 1942 F091 0000 		lds r31,(Timebase)+1
 5153 1946 212F      		mov r18,r17
 5154 1948 30E0      		ldi r19,lo8(0)
 5155               	.LVL349:
 5156 194a 85E1      		ldi r24,lo8(21)
 5157 194c 90E0      		ldi r25,hi8(21)
 5158 194e AC01      		movw r20,r24
 5159 1950 249F      		mul r18,r20
 5160 1952 C001      		movw r24,r0
 5161 1954 259F      		mul r18,r21
 5162 1956 900D      		add r25,r0
 5163 1958 349F      		mul r19,r20
 5164 195a 900D      		add r25,r0
 5165 195c 1124      		clr r1
 5166 195e E80F      		add r30,r24
 5167 1960 F91F      		adc r31,r25
 5168 1962 86A9      		ldd r24,Z+54
 5169 1964 8E7F      		andi r24,lo8(-2)
 5170 1966 86AB      		std Z+54,r24
 5171 1968 81E0      		ldi r24,lo8(1)
 5172               	.L244:
 5173               	/* epilogue start */
 5174               	.LBE949:
 5175               	.LBE948:
 5176               	.LM482:
 5177 196a 1F91      		pop r17
 5178               	.LVL350:
 5179 196c 0895      		ret
 5180               	.LFE89:
 5182               	.global	Timebase_UpCounter_Update_All
 5184               	Timebase_UpCounter_Update_All:
 5185               	.LFB90:
 5186               	.LM483:
 5187               	/* prologue: function */
 5188               	/* frame size = 0 */
 5189               	.LBB950:
 5190               	.LM484:
 5191 196e 80E0      		ldi r24,lo8(0)
 5192 1970 0E94 0000 		call Timebase_UpCounter_Update
 5193               	/* epilogue start */
 5194               	.LBE950:
 5195               	.LM485:
 5196 1974 0895      		ret
 5197               	.LFE90:
 5199               	.global	Timebase_UpCounter_Reset_All
 5201               	Timebase_UpCounter_Reset_All:
 5202               	.LFB91:
 5203               	.LM486:
 5204               	/* prologue: function */
 5205               	/* frame size = 0 */
 5206               	.LBB951:
 5207               	.LM487:
 5208 1976 80E0      		ldi r24,lo8(0)
 5209 1978 0E94 0000 		call Timebase_UpCounter_Reset
 5210               	/* epilogue start */
 5211               	.LBE951:
 5212               	.LM488:
 5213 197c 0895      		ret
 5214               	.LFE91:
 5216               	.global	Timebase_DownCounter_SS_Get_Status
 5218               	Timebase_DownCounter_SS_Get_Status:
 5219               	.LFB92:
 5220               	.LM489:
 5221               	.LVL351:
 5222               	/* prologue: function */
 5223               	/* frame size = 0 */
 5224               	.LM490:
 5225 197e E091 0000 		lds r30,Timebase
 5226 1982 F091 0000 		lds r31,(Timebase)+1
 5227 1986 90E0      		ldi r25,lo8(0)
 5228               	.LVL352:
 5229 1988 9C01      		movw r18,r24
 5230 198a 44E0      		ldi r20,4
 5231 198c 220F      	1:	lsl r18
 5232 198e 331F      		rol r19
 5233 1990 4A95      		dec r20
 5234 1992 01F4      		brne 1b
 5235 1994 280F      		add r18,r24
 5236 1996 391F      		adc r19,r25
 5237 1998 E20F      		add r30,r18
 5238 199a F31F      		adc r31,r19
 5239 199c E55B      		subi r30,lo8(-(75))
 5240 199e FF4F      		sbci r31,hi8(-(75))
 5241 19a0 8081      		ld r24,Z
 5242               	.LVL353:
 5243 19a2 8695      		lsr r24
 5244               	.LM491:
 5245 19a4 8F70      		andi r24,lo8(15)
 5246               	/* epilogue start */
 5247 19a6 0895      		ret
 5248               	.LFE92:
 5250               	.global	Timebase_DownCounter_SS_Set_Status
 5252               	Timebase_DownCounter_SS_Set_Status:
 5253               	.LFB93:
 5254               	.LM492:
 5255               	.LVL354:
 5256               	/* prologue: function */
 5257               	/* frame size = 0 */
 5258               	.LM493:
 5259 19a8 E091 0000 		lds r30,Timebase
 5260 19ac F091 0000 		lds r31,(Timebase)+1
 5261 19b0 90E0      		ldi r25,lo8(0)
 5262               	.LVL355:
 5263 19b2 9C01      		movw r18,r24
 5264 19b4 54E0      		ldi r21,4
 5265 19b6 220F      	1:	lsl r18
 5266 19b8 331F      		rol r19
 5267 19ba 5A95      		dec r21
 5268 19bc 01F4      		brne 1b
 5269 19be 280F      		add r18,r24
 5270 19c0 391F      		adc r19,r25
 5271 19c2 E20F      		add r30,r18
 5272 19c4 F31F      		adc r31,r19
 5273 19c6 E55B      		subi r30,lo8(-(75))
 5274 19c8 FF4F      		sbci r31,hi8(-(75))
 5275 19ca 6F70      		andi r22,lo8(15)
 5276               	.LVL356:
 5277 19cc 660F      		lsl r22
 5278 19ce 8081      		ld r24,Z
 5279               	.LVL357:
 5280 19d0 817E      		andi r24,lo8(-31)
 5281 19d2 862B      		or r24,r22
 5282 19d4 8083      		st Z,r24
 5283               	/* epilogue start */
 5284               	.LM494:
 5285 19d6 0895      		ret
 5286               	.LFE93:
 5288               	.global	Timebase_DownCounter_SS_Get_Value
 5290               	Timebase_DownCounter_SS_Get_Value:
 5291               	.LFB94:
 5292               	.LM495:
 5293               	.LVL358:
 5294               	/* prologue: function */
 5295               	/* frame size = 0 */
 5296               	.LM496:
 5297 19d8 E091 0000 		lds r30,Timebase
 5298 19dc F091 0000 		lds r31,(Timebase)+1
 5299 19e0 90E0      		ldi r25,lo8(0)
 5300               	.LVL359:
 5301 19e2 9C01      		movw r18,r24
 5302 19e4 64E0      		ldi r22,4
 5303 19e6 220F      	1:	lsl r18
 5304 19e8 331F      		rol r19
 5305 19ea 6A95      		dec r22
 5306 19ec 01F4      		brne 1b
 5307 19ee 280F      		add r18,r24
 5308 19f0 391F      		adc r19,r25
 5309 19f2 E20F      		add r30,r18
 5310 19f4 F31F      		adc r31,r19
 5311 19f6 EC5A      		subi r30,lo8(-(84))
 5312 19f8 FF4F      		sbci r31,hi8(-(84))
 5313 19fa 6081      		ld r22,Z
 5314 19fc 7181      		ldd r23,Z+1
 5315               	.LM497:
 5316 19fe 8281      		ldd r24,Z+2
 5317               	.LVL360:
 5318 1a00 9381      		ldd r25,Z+3
 5319               	.LVL361:
 5320               	/* epilogue start */
 5321 1a02 0895      		ret
 5322               	.LFE94:
 5324               	.global	Timebase_DownCounter_SS_Set_Value
 5326               	Timebase_DownCounter_SS_Set_Value:
 5327               	.LFB95:
 5328               	.LM498:
 5329               	.LVL362:
 5330               	/* prologue: function */
 5331               	/* frame size = 0 */
 5332               	.LM499:
 5333 1a04 E091 0000 		lds r30,Timebase
 5334 1a08 F091 0000 		lds r31,(Timebase)+1
 5335 1a0c 90E0      		ldi r25,lo8(0)
 5336               	.LVL363:
 5337 1a0e 9C01      		movw r18,r24
 5338 1a10 A4E0      		ldi r26,4
 5339 1a12 220F      	1:	lsl r18
 5340 1a14 331F      		rol r19
 5341 1a16 AA95      		dec r26
 5342 1a18 01F4      		brne 1b
 5343 1a1a 280F      		add r18,r24
 5344 1a1c 391F      		adc r19,r25
 5345 1a1e E20F      		add r30,r18
 5346 1a20 F31F      		adc r31,r19
 5347 1a22 EC5A      		subi r30,lo8(-(84))
 5348 1a24 FF4F      		sbci r31,hi8(-(84))
 5349 1a26 4083      		st Z,r20
 5350 1a28 5183      		std Z+1,r21
 5351 1a2a 6283      		std Z+2,r22
 5352 1a2c 7383      		std Z+3,r23
 5353               	/* epilogue start */
 5354               	.LM500:
 5355 1a2e 0895      		ret
 5356               	.LFE95:
 5358               	.global	Timebase_DownCounter_SS_Get_EndValueSec
 5360               	Timebase_DownCounter_SS_Get_EndValueSec:
 5361               	.LFB96:
 5362               	.LM501:
 5363               	.LVL364:
 5364               	/* prologue: function */
 5365               	/* frame size = 0 */
 5366               	.LM502:
 5367 1a30 E091 0000 		lds r30,Timebase
 5368 1a34 F091 0000 		lds r31,(Timebase)+1
 5369 1a38 90E0      		ldi r25,lo8(0)
 5370               	.LVL365:
 5371 1a3a 9C01      		movw r18,r24
 5372 1a3c B4E0      		ldi r27,4
 5373 1a3e 220F      	1:	lsl r18
 5374 1a40 331F      		rol r19
 5375 1a42 BA95      		dec r27
 5376 1a44 01F4      		brne 1b
 5377 1a46 280F      		add r18,r24
 5378 1a48 391F      		adc r19,r25
 5379 1a4a E20F      		add r30,r18
 5380 1a4c F31F      		adc r31,r19
 5381 1a4e E45B      		subi r30,lo8(-(76))
 5382 1a50 FF4F      		sbci r31,hi8(-(76))
 5383 1a52 6081      		ld r22,Z
 5384 1a54 7181      		ldd r23,Z+1
 5385               	.LM503:
 5386 1a56 8281      		ldd r24,Z+2
 5387               	.LVL366:
 5388 1a58 9381      		ldd r25,Z+3
 5389               	.LVL367:
 5390               	/* epilogue start */
 5391 1a5a 0895      		ret
 5392               	.LFE96:
 5394               	.global	Timebase_DownCounter_SS_Get_EndValueSubSec
 5396               	Timebase_DownCounter_SS_Get_EndValueSubSec:
 5397               	.LFB97:
 5398               	.LM504:
 5399               	.LVL368:
 5400               	/* prologue: function */
 5401               	/* frame size = 0 */
 5402               	.LM505:
 5403 1a5c E091 0000 		lds r30,Timebase
 5404 1a60 F091 0000 		lds r31,(Timebase)+1
 5405 1a64 90E0      		ldi r25,lo8(0)
 5406               	.LVL369:
 5407 1a66 9C01      		movw r18,r24
 5408 1a68 44E0      		ldi r20,4
 5409 1a6a 220F      	1:	lsl r18
 5410 1a6c 331F      		rol r19
 5411 1a6e 4A95      		dec r20
 5412 1a70 01F4      		brne 1b
 5413 1a72 280F      		add r18,r24
 5414 1a74 391F      		adc r19,r25
 5415 1a76 E20F      		add r30,r18
 5416 1a78 F31F      		adc r31,r19
 5417 1a7a E05B      		subi r30,lo8(-(80))
 5418 1a7c FF4F      		sbci r31,hi8(-(80))
 5419 1a7e 6081      		ld r22,Z
 5420 1a80 7181      		ldd r23,Z+1
 5421               	.LM506:
 5422 1a82 8281      		ldd r24,Z+2
 5423               	.LVL370:
 5424 1a84 9381      		ldd r25,Z+3
 5425               	.LVL371:
 5426               	/* epilogue start */
 5427 1a86 0895      		ret
 5428               	.LFE97:
 5430               	.global	Timebase_DownCounter_SS_Set_EndValueSec
 5432               	Timebase_DownCounter_SS_Set_EndValueSec:
 5433               	.LFB98:
 5434               	.LM507:
 5435               	.LVL372:
 5436               	/* prologue: function */
 5437               	/* frame size = 0 */
 5438               	.LM508:
 5439 1a88 E091 0000 		lds r30,Timebase
 5440 1a8c F091 0000 		lds r31,(Timebase)+1
 5441 1a90 90E0      		ldi r25,lo8(0)
 5442               	.LVL373:
 5443 1a92 9C01      		movw r18,r24
 5444 1a94 A4E0      		ldi r26,4
 5445 1a96 220F      	1:	lsl r18
 5446 1a98 331F      		rol r19
 5447 1a9a AA95      		dec r26
 5448 1a9c 01F4      		brne 1b
 5449 1a9e 280F      		add r18,r24
 5450 1aa0 391F      		adc r19,r25
 5451 1aa2 E20F      		add r30,r18
 5452 1aa4 F31F      		adc r31,r19
 5453 1aa6 E45B      		subi r30,lo8(-(76))
 5454 1aa8 FF4F      		sbci r31,hi8(-(76))
 5455 1aaa 4083      		st Z,r20
 5456 1aac 5183      		std Z+1,r21
 5457 1aae 6283      		std Z+2,r22
 5458 1ab0 7383      		std Z+3,r23
 5459               	/* epilogue start */
 5460               	.LM509:
 5461 1ab2 0895      		ret
 5462               	.LFE98:
 5464               	.global	Timebase_DownCounter_SS_Set_EndValueSubSec
 5466               	Timebase_DownCounter_SS_Set_EndValueSubSec:
 5467               	.LFB99:
 5468               	.LM510:
 5469               	.LVL374:
 5470               	/* prologue: function */
 5471               	/* frame size = 0 */
 5472               	.LM511:
 5473 1ab4 E091 0000 		lds r30,Timebase
 5474 1ab8 F091 0000 		lds r31,(Timebase)+1
 5475 1abc 90E0      		ldi r25,lo8(0)
 5476               	.LVL375:
 5477 1abe 9C01      		movw r18,r24
 5478 1ac0 B4E0      		ldi r27,4
 5479 1ac2 220F      	1:	lsl r18
 5480 1ac4 331F      		rol r19
 5481 1ac6 BA95      		dec r27
 5482 1ac8 01F4      		brne 1b
 5483 1aca 280F      		add r18,r24
 5484 1acc 391F      		adc r19,r25
 5485 1ace E20F      		add r30,r18
 5486 1ad0 F31F      		adc r31,r19
 5487 1ad2 E05B      		subi r30,lo8(-(80))
 5488 1ad4 FF4F      		sbci r31,hi8(-(80))
 5489 1ad6 4083      		st Z,r20
 5490 1ad8 5183      		std Z+1,r21
 5491 1ada 6283      		std Z+2,r22
 5492 1adc 7383      		std Z+3,r23
 5493               	/* epilogue start */
 5494               	.LM512:
 5495 1ade 0895      		ret
 5496               	.LFE99:
 5498               	.global	Timebase_DownCounter_SS_Get_PeriodValue
 5500               	Timebase_DownCounter_SS_Get_PeriodValue:
 5501               	.LFB100:
 5502               	.LM513:
 5503               	.LVL376:
 5504               	/* prologue: function */
 5505               	/* frame size = 0 */
 5506               	.LM514:
 5507 1ae0 E091 0000 		lds r30,Timebase
 5508 1ae4 F091 0000 		lds r31,(Timebase)+1
 5509 1ae8 90E0      		ldi r25,lo8(0)
 5510               	.LVL377:
 5511 1aea 9C01      		movw r18,r24
 5512 1aec 44E0      		ldi r20,4
 5513 1aee 220F      	1:	lsl r18
 5514 1af0 331F      		rol r19
 5515 1af2 4A95      		dec r20
 5516 1af4 01F4      		brne 1b
 5517 1af6 280F      		add r18,r24
 5518 1af8 391F      		adc r19,r25
 5519 1afa E20F      		add r30,r18
 5520 1afc F31F      		adc r31,r19
 5521 1afe E85A      		subi r30,lo8(-(88))
 5522 1b00 FF4F      		sbci r31,hi8(-(88))
 5523 1b02 6081      		ld r22,Z
 5524 1b04 7181      		ldd r23,Z+1
 5525               	.LM515:
 5526 1b06 8281      		ldd r24,Z+2
 5527               	.LVL378:
 5528 1b08 9381      		ldd r25,Z+3
 5529               	.LVL379:
 5530               	/* epilogue start */
 5531 1b0a 0895      		ret
 5532               	.LFE100:
 5534               	.global	Timebase_DownCounter_SS_Set_PeriodValue
 5536               	Timebase_DownCounter_SS_Set_PeriodValue:
 5537               	.LFB101:
 5538               	.LM516:
 5539               	.LVL380:
 5540               	/* prologue: function */
 5541               	/* frame size = 0 */
 5542 1b0c E091 0000 		lds r30,Timebase
 5543 1b10 F091 0000 		lds r31,(Timebase)+1
 5544 1b14 282F      		mov r18,r24
 5545 1b16 30E0      		ldi r19,lo8(0)
 5546               	.LVL381:
 5547               	.LM517:
 5548 1b18 77FF      		sbrs r23,7
 5549 1b1a 00C0      		rjmp .L269
 5550               	.LVL382:
 5551               	.LM518:
 5552 1b1c C901      		movw r24,r18
 5553 1b1e B4E0      		ldi r27,4
 5554 1b20 880F      	1:	lsl r24
 5555 1b22 991F      		rol r25
 5556 1b24 BA95      		dec r27
 5557 1b26 01F4      		brne 1b
 5558 1b28 820F      		add r24,r18
 5559 1b2a 931F      		adc r25,r19
 5560 1b2c E80F      		add r30,r24
 5561 1b2e F91F      		adc r31,r25
 5562 1b30 E85A      		subi r30,lo8(-(88))
 5563 1b32 FF4F      		sbci r31,hi8(-(88))
 5564 1b34 1082      		st Z,__zero_reg__
 5565 1b36 1182      		std Z+1,__zero_reg__
 5566 1b38 1282      		std Z+2,__zero_reg__
 5567 1b3a 1382      		std Z+3,__zero_reg__
 5568 1b3c 0895      		ret
 5569               	.LVL383:
 5570               	.L269:
 5571               	.LM519:
 5572 1b3e C901      		movw r24,r18
 5573 1b40 A4E0      		ldi r26,4
 5574 1b42 880F      	1:	lsl r24
 5575 1b44 991F      		rol r25
 5576 1b46 AA95      		dec r26
 5577 1b48 01F4      		brne 1b
 5578 1b4a 820F      		add r24,r18
 5579 1b4c 931F      		adc r25,r19
 5580 1b4e E80F      		add r30,r24
 5581 1b50 F91F      		adc r31,r25
 5582 1b52 E85A      		subi r30,lo8(-(88))
 5583 1b54 FF4F      		sbci r31,hi8(-(88))
 5584 1b56 4083      		st Z,r20
 5585 1b58 5183      		std Z+1,r21
 5586 1b5a 6283      		std Z+2,r22
 5587 1b5c 7383      		std Z+3,r23
 5588 1b5e 0895      		ret
 5589               	.LFE101:
 5591               	.global	Timebase_DownCounter_SS_Get_Period_Flag
 5593               	Timebase_DownCounter_SS_Get_Period_Flag:
 5594               	.LFB102:
 5595               	.LM520:
 5596               	.LVL384:
 5597               	/* prologue: function */
 5598               	/* frame size = 0 */
 5599               	.LM521:
 5600 1b60 E091 0000 		lds r30,Timebase
 5601 1b64 F091 0000 		lds r31,(Timebase)+1
 5602 1b68 90E0      		ldi r25,lo8(0)
 5603               	.LVL385:
 5604 1b6a 9C01      		movw r18,r24
 5605 1b6c 44E0      		ldi r20,4
 5606 1b6e 220F      	1:	lsl r18
 5607 1b70 331F      		rol r19
 5608 1b72 4A95      		dec r20
 5609 1b74 01F4      		brne 1b
 5610 1b76 280F      		add r18,r24
 5611 1b78 391F      		adc r19,r25
 5612 1b7a E20F      		add r30,r18
 5613 1b7c F31F      		adc r31,r19
 5614 1b7e E55B      		subi r30,lo8(-(75))
 5615 1b80 FF4F      		sbci r31,hi8(-(75))
 5616 1b82 8081      		ld r24,Z
 5617               	.LVL386:
 5618               	.LM522:
 5619 1b84 8170      		andi r24,lo8(1)
 5620               	/* epilogue start */
 5621 1b86 0895      		ret
 5622               	.LFE102:
 5624               	.global	Timebase_DownCounter_SS_Set_Period_Flag
 5626               	Timebase_DownCounter_SS_Set_Period_Flag:
 5627               	.LFB103:
 5628               	.LM523:
 5629               	.LVL387:
 5630               	/* prologue: function */
 5631               	/* frame size = 0 */
 5632               	.LM524:
 5633 1b88 E091 0000 		lds r30,Timebase
 5634 1b8c F091 0000 		lds r31,(Timebase)+1
 5635 1b90 90E0      		ldi r25,lo8(0)
 5636               	.LVL388:
 5637 1b92 9C01      		movw r18,r24
 5638 1b94 54E0      		ldi r21,4
 5639 1b96 220F      	1:	lsl r18
 5640 1b98 331F      		rol r19
 5641 1b9a 5A95      		dec r21
 5642 1b9c 01F4      		brne 1b
 5643 1b9e 280F      		add r18,r24
 5644 1ba0 391F      		adc r19,r25
 5645 1ba2 E20F      		add r30,r18
 5646 1ba4 F31F      		adc r31,r19
 5647 1ba6 E55B      		subi r30,lo8(-(75))
 5648 1ba8 FF4F      		sbci r31,hi8(-(75))
 5649 1baa 8081      		ld r24,Z
 5650               	.LVL389:
 5651 1bac 8160      		ori r24,lo8(1)
 5652 1bae 8083      		st Z,r24
 5653               	/* epilogue start */
 5654               	.LM525:
 5655 1bb0 0895      		ret
 5656               	.LFE103:
 5658               	.global	Timebase_DownCounter_SS_Clear_Period_Flag
 5660               	Timebase_DownCounter_SS_Clear_Period_Flag:
 5661               	.LFB104:
 5662               	.LM526:
 5663               	.LVL390:
 5664               	/* prologue: function */
 5665               	/* frame size = 0 */
 5666               	.LM527:
 5667 1bb2 E091 0000 		lds r30,Timebase
 5668 1bb6 F091 0000 		lds r31,(Timebase)+1
 5669 1bba 90E0      		ldi r25,lo8(0)
 5670               	.LVL391:
 5671 1bbc 9C01      		movw r18,r24
 5672 1bbe 64E0      		ldi r22,4
 5673 1bc0 220F      	1:	lsl r18
 5674 1bc2 331F      		rol r19
 5675 1bc4 6A95      		dec r22
 5676 1bc6 01F4      		brne 1b
 5677 1bc8 280F      		add r18,r24
 5678 1bca 391F      		adc r19,r25
 5679 1bcc E20F      		add r30,r18
 5680 1bce F31F      		adc r31,r19
 5681 1bd0 E55B      		subi r30,lo8(-(75))
 5682 1bd2 FF4F      		sbci r31,hi8(-(75))
 5683 1bd4 8081      		ld r24,Z
 5684               	.LVL392:
 5685 1bd6 8E7F      		andi r24,lo8(-2)
 5686 1bd8 8083      		st Z,r24
 5687               	/* epilogue start */
 5688               	.LM528:
 5689 1bda 0895      		ret
 5690               	.LFE104:
 5692               	.global	Timebase_DownCounter_SS_Reset
 5694               	Timebase_DownCounter_SS_Reset:
 5695               	.LFB105:
 5696               	.LM529:
 5697               	.LVL393:
 5698               	/* prologue: function */
 5699               	/* frame size = 0 */
 5700               	.LBB952:
 5701               	.LBB953:
 5702               	.LM530:
 5703 1bdc E091 0000 		lds r30,Timebase
 5704 1be0 F091 0000 		lds r31,(Timebase)+1
 5705 1be4 90E0      		ldi r25,lo8(0)
 5706 1be6 9C01      		movw r18,r24
 5707               	.LVL394:
 5708 1be8 74E0      		ldi r23,4
 5709 1bea 220F      	1:	lsl r18
 5710 1bec 331F      		rol r19
 5711 1bee 7A95      		dec r23
 5712 1bf0 01F4      		brne 1b
 5713 1bf2 280F      		add r18,r24
 5714 1bf4 391F      		adc r19,r25
 5715 1bf6 E20F      		add r30,r18
 5716 1bf8 F31F      		adc r31,r19
 5717 1bfa E05B      		subi r30,lo8(-(80))
 5718 1bfc FF4F      		sbci r31,hi8(-(80))
 5719 1bfe 1082      		st Z,__zero_reg__
 5720 1c00 1182      		std Z+1,__zero_reg__
 5721 1c02 1282      		std Z+2,__zero_reg__
 5722 1c04 1382      		std Z+3,__zero_reg__
 5723               	.LBE953:
 5724               	.LBE952:
 5725               	.LBB954:
 5726               	.LBB955:
 5727               	.LM531:
 5728 1c06 1292      		st -Z,__zero_reg__
 5729 1c08 1292      		st -Z,__zero_reg__
 5730 1c0a 1292      		st -Z,__zero_reg__
 5731 1c0c 1292      		st -Z,__zero_reg__
 5732               	.LBE955:
 5733               	.LBE954:
 5734               	.LBB956:
 5735               	.LBB957:
 5736               	.LM532:
 5737 1c0e 3896      		adiw r30,8
 5738 1c10 1082      		st Z,__zero_reg__
 5739 1c12 1182      		std Z+1,__zero_reg__
 5740 1c14 1282      		std Z+2,__zero_reg__
 5741 1c16 1382      		std Z+3,__zero_reg__
 5742               	.LBE957:
 5743               	.LBE956:
 5744               	.LBB958:
 5745               	.LBB959:
 5746               	.LM533:
 5747 1c18 3997      		sbiw r30,9
 5748 1c1a 8081      		ld r24,Z
 5749               	.LBE959:
 5750               	.LBE958:
 5751               	.LBB960:
 5752               	.LBB961:
 5753               	.LM534:
 5754 1c1c 807E      		andi r24,lo8(-32)
 5755 1c1e 8083      		st Z,r24
 5756               	/* epilogue start */
 5757               	.LBE961:
 5758               	.LBE960:
 5759               	.LM535:
 5760 1c20 0895      		ret
 5761               	.LFE105:
 5763               	.global	Timebase_DownCounter_SS_Clear_All_Flags
 5765               	Timebase_DownCounter_SS_Clear_All_Flags:
 5766               	.LFB106:
 5767               	.LM536:
 5768               	.LVL395:
 5769               	/* prologue: function */
 5770               	/* frame size = 0 */
 5771               	.LBB962:
 5772               	.LBB963:
 5773               	.LBB964:
 5774               	.LBB965:
 5775               	.LM537:
 5776 1c22 E091 0000 		lds r30,Timebase
 5777 1c26 F091 0000 		lds r31,(Timebase)+1
 5778 1c2a 90E0      		ldi r25,lo8(0)
 5779 1c2c 9C01      		movw r18,r24
 5780               	.LVL396:
 5781 1c2e A4E0      		ldi r26,4
 5782 1c30 220F      	1:	lsl r18
 5783 1c32 331F      		rol r19
 5784 1c34 AA95      		dec r26
 5785 1c36 01F4      		brne 1b
 5786 1c38 280F      		add r18,r24
 5787 1c3a 391F      		adc r19,r25
 5788 1c3c E20F      		add r30,r18
 5789 1c3e F31F      		adc r31,r19
 5790 1c40 E05B      		subi r30,lo8(-(80))
 5791 1c42 FF4F      		sbci r31,hi8(-(80))
 5792 1c44 1082      		st Z,__zero_reg__
 5793 1c46 1182      		std Z+1,__zero_reg__
 5794 1c48 1282      		std Z+2,__zero_reg__
 5795 1c4a 1382      		std Z+3,__zero_reg__
 5796               	.LBE965:
 5797               	.LBE964:
 5798               	.LBB966:
 5799               	.LBB967:
 5800               	.LM538:
 5801 1c4c 1292      		st -Z,__zero_reg__
 5802 1c4e 1292      		st -Z,__zero_reg__
 5803 1c50 1292      		st -Z,__zero_reg__
 5804 1c52 1292      		st -Z,__zero_reg__
 5805               	.LBE967:
 5806               	.LBE966:
 5807               	.LBB968:
 5808               	.LBB969:
 5809               	.LM539:
 5810 1c54 3896      		adiw r30,8
 5811 1c56 1082      		st Z,__zero_reg__
 5812 1c58 1182      		std Z+1,__zero_reg__
 5813 1c5a 1282      		std Z+2,__zero_reg__
 5814 1c5c 1382      		std Z+3,__zero_reg__
 5815               	.LBE969:
 5816               	.LBE968:
 5817               	.LBB970:
 5818               	.LBB971:
 5819               	.LM540:
 5820 1c5e 3997      		sbiw r30,9
 5821 1c60 8081      		ld r24,Z
 5822               	.LBE971:
 5823               	.LBE970:
 5824               	.LBB972:
 5825               	.LBB973:
 5826               	.LM541:
 5827 1c62 807E      		andi r24,lo8(-32)
 5828 1c64 8083      		st Z,r24
 5829               	/* epilogue start */
 5830               	.LBE973:
 5831               	.LBE972:
 5832               	.LBE963:
 5833               	.LBE962:
 5834               	.LM542:
 5835 1c66 0895      		ret
 5836               	.LFE106:
 5838               	.global	Timebase_DownCounter_SS_Start
 5840               	Timebase_DownCounter_SS_Start:
 5841               	.LFB107:
 5842               	.LM543:
 5843               	.LVL397:
 5844               	/* prologue: function */
 5845               	/* frame size = 0 */
 5846               	.LBB974:
 5847               	.LBB975:
 5848               	.LM544:
 5849 1c68 E091 0000 		lds r30,Timebase
 5850 1c6c F091 0000 		lds r31,(Timebase)+1
 5851 1c70 90E0      		ldi r25,lo8(0)
 5852               	.LBE975:
 5853               	.LBE974:
 5854               	.LM545:
 5855 1c72 9C01      		movw r18,r24
 5856               	.LVL398:
 5857 1c74 B4E0      		ldi r27,4
 5858 1c76 220F      	1:	lsl r18
 5859 1c78 331F      		rol r19
 5860 1c7a BA95      		dec r27
 5861 1c7c 01F4      		brne 1b
 5862 1c7e 280F      		add r18,r24
 5863 1c80 391F      		adc r19,r25
 5864 1c82 E20F      		add r30,r18
 5865 1c84 F31F      		adc r31,r19
 5866 1c86 E55B      		subi r30,lo8(-(75))
 5867 1c88 FF4F      		sbci r31,hi8(-(75))
 5868 1c8a 9081      		ld r25,Z
 5869 1c8c 892F      		mov r24,r25
 5870 1c8e 8695      		lsr r24
 5871 1c90 8F70      		andi r24,lo8(15)
 5872 1c92 8130      		cpi r24,lo8(1)
 5873 1c94 01F0      		breq .L284
 5874               	.LBB976:
 5875               	.LBB977:
 5876               	.LM546:
 5877 1c96 917E      		andi r25,lo8(-31)
 5878 1c98 9260      		ori r25,lo8(2)
 5879 1c9a 9083      		st Z,r25
 5880               	.L284:
 5881 1c9c 0895      		ret
 5882               	.LBE977:
 5883               	.LBE976:
 5884               	.LFE107:
 5886               	.global	Timebase_DownCounter_SS_Stop
 5888               	Timebase_DownCounter_SS_Stop:
 5889               	.LFB108:
 5890               	.LM547:
 5891               	.LVL399:
 5892               	/* prologue: function */
 5893               	/* frame size = 0 */
 5894               	.LBB978:
 5895               	.LBB979:
 5896               	.LM548:
 5897 1c9e E091 0000 		lds r30,Timebase
 5898 1ca2 F091 0000 		lds r31,(Timebase)+1
 5899 1ca6 90E0      		ldi r25,lo8(0)
 5900               	.LBE979:
 5901               	.LBE978:
 5902               	.LM549:
 5903 1ca8 9C01      		movw r18,r24
 5904               	.LVL400:
 5905 1caa 44E0      		ldi r20,4
 5906 1cac 220F      	1:	lsl r18
 5907 1cae 331F      		rol r19
 5908 1cb0 4A95      		dec r20
 5909 1cb2 01F4      		brne 1b
 5910 1cb4 280F      		add r18,r24
 5911 1cb6 391F      		adc r19,r25
 5912 1cb8 E20F      		add r30,r18
 5913 1cba F31F      		adc r31,r19
 5914 1cbc E55B      		subi r30,lo8(-(75))
 5915 1cbe FF4F      		sbci r31,hi8(-(75))
 5916 1cc0 9081      		ld r25,Z
 5917 1cc2 892F      		mov r24,r25
 5918 1cc4 8695      		lsr r24
 5919 1cc6 8F70      		andi r24,lo8(15)
 5920 1cc8 8230      		cpi r24,lo8(2)
 5921 1cca 01F0      		breq .L287
 5922               	.LBB980:
 5923               	.LBB981:
 5924               	.LM550:
 5925 1ccc 917E      		andi r25,lo8(-31)
 5926 1cce 9460      		ori r25,lo8(4)
 5927 1cd0 9083      		st Z,r25
 5928               	.L287:
 5929 1cd2 0895      		ret
 5930               	.LBE981:
 5931               	.LBE980:
 5932               	.LFE108:
 5934               	.global	Timebase_DownCounter_SS_Set_Securely
 5936               	Timebase_DownCounter_SS_Set_Securely:
 5937               	.LFB109:
 5938               	.LM551:
 5939               	.LVL401:
 5940 1cd4 2F92      		push r2
 5941 1cd6 3F92      		push r3
 5942 1cd8 4F92      		push r4
 5943 1cda 5F92      		push r5
 5944 1cdc 6F92      		push r6
 5945 1cde 7F92      		push r7
 5946 1ce0 8F92      		push r8
 5947 1ce2 9F92      		push r9
 5948 1ce4 AF92      		push r10
 5949 1ce6 BF92      		push r11
 5950 1ce8 CF92      		push r12
 5951 1cea DF92      		push r13
 5952 1cec EF92      		push r14
 5953 1cee FF92      		push r15
 5954 1cf0 0F93      		push r16
 5955 1cf2 1F93      		push r17
 5956 1cf4 DF93      		push r29
 5957 1cf6 CF93      		push r28
 5958 1cf8 00D0      		rcall .
 5959 1cfa 00D0      		rcall .
 5960 1cfc CDB7      		in r28,__SP_L__
 5961 1cfe DEB7      		in r29,__SP_H__
 5962               	/* prologue: function */
 5963               	/* frame size = 4 */
 5964 1d00 4A01      		movw r8,r20
 5965 1d02 5B01      		movw r10,r22
 5966               	.LBB982:
 5967               	.LBB983:
 5968               	.LM552:
 5969 1d04 2091 0000 		lds r18,Timebase
 5970 1d08 3091 0000 		lds r19,(Timebase)+1
 5971 1d0c 3C83      		std Y+4,r19
 5972 1d0e 2B83      		std Y+3,r18
 5973 1d10 A82F      		mov r26,r24
 5974 1d12 B0E0      		ldi r27,lo8(0)
 5975 1d14 BA83      		std Y+2,r27
 5976 1d16 A983      		std Y+1,r26
 5977               	.LBE983:
 5978               	.LBE982:
 5979               	.LM553:
 5980 1d18 FD01      		movw r30,r26
 5981 1d1a 64E0      		ldi r22,4
 5982 1d1c EE0F      	1:	lsl r30
 5983 1d1e FF1F      		rol r31
 5984 1d20 6A95      		dec r22
 5985 1d22 01F4      		brne 1b
 5986 1d24 EA0F      		add r30,r26
 5987 1d26 FB1F      		adc r31,r27
 5988 1d28 E20F      		add r30,r18
 5989 1d2a F31F      		adc r31,r19
 5990 1d2c E55B      		subi r30,lo8(-(75))
 5991 1d2e FF4F      		sbci r31,hi8(-(75))
 5992 1d30 8081      		ld r24,Z
 5993               	.LVL402:
 5994 1d32 EB54      		subi r30,lo8(-(-75))
 5995 1d34 F040      		sbci r31,hi8(-(-75))
 5996 1d36 8695      		lsr r24
 5997 1d38 8F70      		andi r24,lo8(15)
 5998 1d3a 01F0      		breq .+2
 5999 1d3c 00C0      		rjmp .L291
 6000               	.LVL403:
 6001               	.LBB984:
 6002               	.LBB985:
 6003               	.LM554:
 6004 1d3e EC5A      		subi r30,lo8(-(84))
 6005 1d40 FF4F      		sbci r31,hi8(-(84))
 6006 1d42 8082      		st Z,r8
 6007 1d44 9182      		std Z+1,r9
 6008 1d46 A282      		std Z+2,r10
 6009 1d48 B382      		std Z+3,r11
 6010               	.LBE985:
 6011               	.LBE984:
 6012               	.LBB986:
 6013               	.LBB987:
 6014               	.LM555:
 6015 1d4a F901      		movw r30,r18
 6016 1d4c C184      		ldd r12,Z+9
 6017 1d4e D284      		ldd r13,Z+10
 6018               	.LBE987:
 6019               	.LBE986:
 6020               	.LBB988:
 6021               	.LBB989:
 6022               	.LM556:
 6023 1d50 2384      		ldd r2,Z+11
 6024 1d52 3484      		ldd r3,Z+12
 6025 1d54 4584      		ldd r4,Z+13
 6026 1d56 5684      		ldd r5,Z+14
 6027               	.LVL404:
 6028               	.LBE989:
 6029               	.LBE988:
 6030               	.LM557:
 6031 1d58 2081      		ld r18,Z
 6032 1d5a 3181      		ldd r19,Z+1
 6033 1d5c 40E0      		ldi r20,lo8(0)
 6034 1d5e 50E0      		ldi r21,hi8(0)
 6035 1d60 C501      		movw r24,r10
 6036 1d62 B401      		movw r22,r8
 6037 1d64 0E94 0000 		call __divmodsi4
 6038 1d68 7B01      		movw r14,r22
 6039 1d6a 8C01      		movw r16,r24
 6040               	.LM558:
 6041 1d6c AB81      		ldd r26,Y+3
 6042 1d6e BC81      		ldd r27,Y+4
 6043 1d70 2D91      		ld r18,X+
 6044 1d72 3C91      		ld r19,X
 6045 1d74 40E0      		ldi r20,lo8(0)
 6046 1d76 50E0      		ldi r21,hi8(0)
 6047 1d78 C501      		movw r24,r10
 6048 1d7a B401      		movw r22,r8
 6049 1d7c 0E94 0000 		call __divmodsi4
 6050 1d80 C901      		movw r24,r18
 6051 1d82 DA01      		movw r26,r20
 6052 1d84 3C01      		movw r6,r24
 6053 1d86 4D01      		movw r8,r26
 6054               	.LVL405:
 6055               	.LM559:
 6056 1d88 5601      		movw r10,r12
 6057               	.LVL406:
 6058 1d8a CC24      		clr r12
 6059 1d8c DD24      		clr r13
 6060               	.LVL407:
 6061 1d8e AE0C      		add r10,r14
 6062 1d90 BF1C      		adc r11,r15
 6063 1d92 C01E      		adc r12,r16
 6064 1d94 D11E      		adc r13,r17
 6065               	.LVL408:
 6066               	.LM560:
 6067 1d96 EB81      		ldd r30,Y+3
 6068 1d98 FC81      		ldd r31,Y+4
 6069 1d9a 8081      		ld r24,Z
 6070 1d9c 9181      		ldd r25,Z+1
 6071               	.LVL409:
 6072 1d9e A0E0      		ldi r26,lo8(0)
 6073 1da0 B0E0      		ldi r27,hi8(0)
 6074 1da2 A816      		cp r10,r24
 6075 1da4 B906      		cpc r11,r25
 6076 1da6 CA06      		cpc r12,r26
 6077 1da8 DB06      		cpc r13,r27
 6078 1daa 04F0      		brlt .L290
 6079               	.LM561:
 6080 1dac 0894      		sec
 6081 1dae 611C      		adc r6,__zero_reg__
 6082 1db0 711C      		adc r7,__zero_reg__
 6083 1db2 811C      		adc r8,__zero_reg__
 6084 1db4 911C      		adc r9,__zero_reg__
 6085               	.LM562:
 6086 1db6 2081      		ld r18,Z
 6087 1db8 3181      		ldd r19,Z+1
 6088 1dba 40E0      		ldi r20,lo8(0)
 6089 1dbc 50E0      		ldi r21,hi8(0)
 6090 1dbe C601      		movw r24,r12
 6091 1dc0 B501      		movw r22,r10
 6092 1dc2 0E94 0000 		call __divmodsi4
 6093 1dc6 AC01      		movw r20,r24
 6094 1dc8 CB01      		movw r24,r22
 6095 1dca DA01      		movw r26,r20
 6096 1dcc 5C01      		movw r10,r24
 6097 1dce 6D01      		movw r12,r26
 6098               	.L290:
 6099               	.LBB990:
 6100               	.LBB991:
 6101               	.LM563:
 6102 1dd0 E981      		ldd r30,Y+1
 6103 1dd2 FA81      		ldd r31,Y+2
 6104 1dd4 54E0      		ldi r21,4
 6105 1dd6 EE0F      	1:	lsl r30
 6106 1dd8 FF1F      		rol r31
 6107 1dda 5A95      		dec r21
 6108 1ddc 01F4      		brne 1b
 6109 1dde 2981      		ldd r18,Y+1
 6110 1de0 3A81      		ldd r19,Y+2
 6111 1de2 E20F      		add r30,r18
 6112 1de4 F31F      		adc r31,r19
 6113 1de6 8B81      		ldd r24,Y+3
 6114 1de8 9C81      		ldd r25,Y+4
 6115 1dea E80F      		add r30,r24
 6116 1dec F91F      		adc r31,r25
 6117 1dee E45B      		subi r30,lo8(-(76))
 6118 1df0 FF4F      		sbci r31,hi8(-(76))
 6119 1df2 260C      		add r2,r6
 6120 1df4 371C      		adc r3,r7
 6121 1df6 481C      		adc r4,r8
 6122 1df8 591C      		adc r5,r9
 6123 1dfa 2192      		st Z+,r2
 6124 1dfc 3192      		st Z+,r3
 6125 1dfe 4192      		st Z+,r4
 6126 1e00 5192      		st Z+,r5
 6127               	.LBE991:
 6128               	.LBE990:
 6129               	.LBB992:
 6130               	.LBB993:
 6131               	.LM564:
 6132 1e02 A082      		st Z,r10
 6133 1e04 B182      		std Z+1,r11
 6134 1e06 C282      		std Z+2,r12
 6135 1e08 D382      		std Z+3,r13
 6136               	.LBE993:
 6137               	.LBE992:
 6138               	.LBB994:
 6139               	.LBB995:
 6140               	.LM565:
 6141 1e0a 3597      		sbiw r30,5
 6142 1e0c 9081      		ld r25,Z
 6143 1e0e 892F      		mov r24,r25
 6144 1e10 8695      		lsr r24
 6145 1e12 8F70      		andi r24,lo8(15)
 6146 1e14 8130      		cpi r24,lo8(1)
 6147 1e16 01F0      		breq .L291
 6148               	.LBB996:
 6149               	.LBB997:
 6150               	.LM566:
 6151 1e18 917E      		andi r25,lo8(-31)
 6152 1e1a 9260      		ori r25,lo8(2)
 6153 1e1c 9083      		st Z,r25
 6154               	.LVL410:
 6155               	.L291:
 6156               	/* epilogue start */
 6157               	.LBE997:
 6158               	.LBE996:
 6159               	.LBE995:
 6160               	.LBE994:
 6161               	.LM567:
 6162 1e1e 0F90      		pop __tmp_reg__
 6163 1e20 0F90      		pop __tmp_reg__
 6164 1e22 0F90      		pop __tmp_reg__
 6165 1e24 0F90      		pop __tmp_reg__
 6166 1e26 CF91      		pop r28
 6167 1e28 DF91      		pop r29
 6168 1e2a 1F91      		pop r17
 6169 1e2c 0F91      		pop r16
 6170 1e2e FF90      		pop r15
 6171 1e30 EF90      		pop r14
 6172 1e32 DF90      		pop r13
 6173 1e34 CF90      		pop r12
 6174               	.LVL411:
 6175 1e36 BF90      		pop r11
 6176 1e38 AF90      		pop r10
 6177               	.LVL412:
 6178 1e3a 9F90      		pop r9
 6179 1e3c 8F90      		pop r8
 6180               	.LVL413:
 6181 1e3e 7F90      		pop r7
 6182 1e40 6F90      		pop r6
 6183               	.LVL414:
 6184 1e42 5F90      		pop r5
 6185 1e44 4F90      		pop r4
 6186 1e46 3F90      		pop r3
 6187 1e48 2F90      		pop r2
 6188               	.LVL415:
 6189 1e4a 0895      		ret
 6190               	.LFE109:
 6192               	.global	Timebase_DownCounter_SS_Set_Forcefully
 6194               	Timebase_DownCounter_SS_Set_Forcefully:
 6195               	.LFB110:
 6196               	.LM568:
 6197               	.LVL416:
 6198               	/* prologue: function */
 6199               	/* frame size = 0 */
 6200               	.LBB998:
 6201               	.LBB999:
 6202               	.LBB1000:
 6203               	.LBB1001:
 6204               	.LM569:
 6205 1e4c E091 0000 		lds r30,Timebase
 6206 1e50 F091 0000 		lds r31,(Timebase)+1
 6207 1e54 A82F      		mov r26,r24
 6208 1e56 B0E0      		ldi r27,lo8(0)
 6209 1e58 9D01      		movw r18,r26
 6210 1e5a 94E0      		ldi r25,4
 6211 1e5c 220F      	1:	lsl r18
 6212 1e5e 331F      		rol r19
 6213 1e60 9A95      		dec r25
 6214 1e62 01F4      		brne 1b
 6215 1e64 2A0F      		add r18,r26
 6216 1e66 3B1F      		adc r19,r27
 6217 1e68 E20F      		add r30,r18
 6218 1e6a F31F      		adc r31,r19
 6219 1e6c E05B      		subi r30,lo8(-(80))
 6220 1e6e FF4F      		sbci r31,hi8(-(80))
 6221 1e70 1082      		st Z,__zero_reg__
 6222 1e72 1182      		std Z+1,__zero_reg__
 6223 1e74 1282      		std Z+2,__zero_reg__
 6224 1e76 1382      		std Z+3,__zero_reg__
 6225               	.LBE1001:
 6226               	.LBE1000:
 6227               	.LBB1002:
 6228               	.LBB1003:
 6229               	.LM570:
 6230 1e78 1292      		st -Z,__zero_reg__
 6231 1e7a 1292      		st -Z,__zero_reg__
 6232 1e7c 1292      		st -Z,__zero_reg__
 6233 1e7e 1292      		st -Z,__zero_reg__
 6234               	.LBE1003:
 6235               	.LBE1002:
 6236               	.LBB1004:
 6237               	.LBB1005:
 6238               	.LM571:
 6239 1e80 3896      		adiw r30,8
 6240 1e82 1082      		st Z,__zero_reg__
 6241 1e84 1182      		std Z+1,__zero_reg__
 6242 1e86 1282      		std Z+2,__zero_reg__
 6243 1e88 1382      		std Z+3,__zero_reg__
 6244               	.LBE1005:
 6245               	.LBE1004:
 6246               	.LBB1006:
 6247               	.LBB1007:
 6248               	.LM572:
 6249 1e8a 3997      		sbiw r30,9
 6250 1e8c 9081      		ld r25,Z
 6251               	.LBE1007:
 6252               	.LBE1006:
 6253               	.LBB1008:
 6254               	.LBB1009:
 6255               	.LM573:
 6256 1e8e 907E      		andi r25,lo8(-32)
 6257 1e90 9083      		st Z,r25
 6258               	.LBE1009:
 6259               	.LBE1008:
 6260               	.LBE999:
 6261               	.LBE998:
 6262               	.LM574:
 6263 1e92 0E94 0000 		call Timebase_DownCounter_SS_Set_Securely
 6264               	.LVL417:
 6265               	/* epilogue start */
 6266               	.LM575:
 6267 1e96 0895      		ret
 6268               	.LFE110:
 6270               	.global	Timebase_DownCounter_SS_Update
 6272               	Timebase_DownCounter_SS_Update:
 6273               	.LFB111:
 6274               	.LM576:
 6275               	.LVL418:
 6276 1e98 2F92      		push r2
 6277 1e9a 3F92      		push r3
 6278 1e9c 4F92      		push r4
 6279 1e9e 5F92      		push r5
 6280 1ea0 6F92      		push r6
 6281 1ea2 7F92      		push r7
 6282 1ea4 8F92      		push r8
 6283 1ea6 9F92      		push r9
 6284 1ea8 AF92      		push r10
 6285 1eaa BF92      		push r11
 6286 1eac CF92      		push r12
 6287 1eae DF92      		push r13
 6288 1eb0 EF92      		push r14
 6289 1eb2 FF92      		push r15
 6290 1eb4 0F93      		push r16
 6291 1eb6 1F93      		push r17
 6292 1eb8 CF93      		push r28
 6293 1eba DF93      		push r29
 6294               	/* prologue: function */
 6295               	/* frame size = 0 */
 6296               	.LBB1010:
 6297               	.LBB1011:
 6298               	.LM577:
 6299 1ebc E091 0000 		lds r30,Timebase
 6300 1ec0 F091 0000 		lds r31,(Timebase)+1
 6301 1ec4 90E0      		ldi r25,lo8(0)
 6302 1ec6 EC01      		movw r28,r24
 6303               	.LVL419:
 6304 1ec8 44E0      		ldi r20,4
 6305 1eca CC0F      	1:	lsl r28
 6306 1ecc DD1F      		rol r29
 6307 1ece 4A95      		dec r20
 6308 1ed0 01F4      		brne 1b
 6309 1ed2 C80F      		add r28,r24
 6310 1ed4 D91F      		adc r29,r25
 6311 1ed6 CE0F      		add r28,r30
 6312 1ed8 DF1F      		adc r29,r31
 6313 1eda 3BE4      		ldi r19,lo8(75)
 6314 1edc C32E      		mov r12,r19
 6315 1ede D12C      		mov r13,__zero_reg__
 6316 1ee0 CC0E      		add r12,r28
 6317 1ee2 DD1E      		adc r13,r29
 6318 1ee4 D601      		movw r26,r12
 6319 1ee6 8C91      		ld r24,X
 6320 1ee8 8695      		lsr r24
 6321 1eea 8F70      		andi r24,lo8(15)
 6322               	.LBE1011:
 6323               	.LBE1010:
 6324               	.LM578:
 6325 1eec 8130      		cpi r24,lo8(1)
 6326 1eee 01F0      		breq .+2
 6327 1ef0 00C0      		rjmp .L295
 6328               	.LBB1012:
 6329               	.LBB1013:
 6330               	.LM579:
 6331 1ef2 E184      		ldd r14,Z+9
 6332 1ef4 F284      		ldd r15,Z+10
 6333               	.LBE1013:
 6334               	.LBE1012:
 6335               	.LM580:
 6336 1ef6 00E0      		ldi r16,lo8(0)
 6337 1ef8 10E0      		ldi r17,hi8(0)
 6338               	.LVL420:
 6339               	.LBB1014:
 6340               	.LBB1015:
 6341               	.LM581:
 6342 1efa 6384      		ldd r6,Z+11
 6343 1efc 7484      		ldd r7,Z+12
 6344 1efe 8584      		ldd r8,Z+13
 6345 1f00 9684      		ldd r9,Z+14
 6346               	.LVL421:
 6347               	.LBE1015:
 6348               	.LBE1014:
 6349               	.LM582:
 6350 1f02 2CE4      		ldi r18,lo8(76)
 6351 1f04 A22E      		mov r10,r18
 6352 1f06 B12C      		mov r11,__zero_reg__
 6353 1f08 AC0E      		add r10,r28
 6354 1f0a BD1E      		adc r11,r29
 6355 1f0c D501      		movw r26,r10
 6356 1f0e 2D91      		ld r18,X+
 6357 1f10 3D91      		ld r19,X+
 6358 1f12 4D91      		ld r20,X+
 6359 1f14 5C91      		ld r21,X
 6360 1f16 2619      		sub r18,r6
 6361 1f18 3709      		sbc r19,r7
 6362 1f1a 4809      		sbc r20,r8
 6363 1f1c 5909      		sbc r21,r9
 6364               	.LM583:
 6365 1f1e 6081      		ld r22,Z
 6366 1f20 7181      		ldd r23,Z+1
 6367               	.LM584:
 6368 1f22 80E0      		ldi r24,lo8(0)
 6369 1f24 90E0      		ldi r25,hi8(0)
 6370 1f26 0E94 0000 		call __mulsi3
 6371 1f2a 6E19      		sub r22,r14
 6372 1f2c 7F09      		sbc r23,r15
 6373 1f2e 800B      		sbc r24,r16
 6374 1f30 910B      		sbc r25,r17
 6375               	.LVL422:
 6376               	.LM585:
 6377 1f32 DE01      		movw r26,r28
 6378 1f34 A05B      		subi r26,lo8(-(80))
 6379 1f36 BF4F      		sbci r27,hi8(-(80))
 6380 1f38 2D91      		ld r18,X+
 6381 1f3a 3D91      		ld r19,X+
 6382 1f3c 4D91      		ld r20,X+
 6383 1f3e 5C91      		ld r21,X
 6384 1f40 1397      		sbiw r26,3
 6385 1f42 620F      		add r22,r18
 6386 1f44 731F      		adc r23,r19
 6387 1f46 841F      		adc r24,r20
 6388 1f48 951F      		adc r25,r21
 6389               	.LBB1016:
 6390               	.LBB1017:
 6391               	.LM586:
 6392 1f4a FE01      		movw r30,r28
 6393 1f4c EC5A      		subi r30,lo8(-(84))
 6394 1f4e FF4F      		sbci r31,hi8(-(84))
 6395 1f50 6083      		st Z,r22
 6396 1f52 7183      		std Z+1,r23
 6397 1f54 8283      		std Z+2,r24
 6398 1f56 9383      		std Z+3,r25
 6399               	.LBE1017:
 6400               	.LBE1016:
 6401               	.LM587:
 6402 1f58 1616      		cp __zero_reg__,r22
 6403 1f5a 1706      		cpc __zero_reg__,r23
 6404 1f5c 1806      		cpc __zero_reg__,r24
 6405 1f5e 1906      		cpc __zero_reg__,r25
 6406 1f60 04F4      		brge .+2
 6407 1f62 00C0      		rjmp .L297
 6408               	.LBB1018:
 6409               	.LBB1019:
 6410               	.LBB1020:
 6411               	.LBB1021:
 6412               	.LM588:
 6413 1f64 1D92      		st X+,__zero_reg__
 6414 1f66 1D92      		st X+,__zero_reg__
 6415 1f68 1D92      		st X+,__zero_reg__
 6416 1f6a 1C92      		st X,__zero_reg__
 6417 1f6c 1397      		sbiw r26,3
 6418               	.LBE1021:
 6419               	.LBE1020:
 6420               	.LBB1022:
 6421               	.LBB1023:
 6422               	.LM589:
 6423 1f6e D501      		movw r26,r10
 6424 1f70 1D92      		st X+,__zero_reg__
 6425 1f72 1D92      		st X+,__zero_reg__
 6426 1f74 1D92      		st X+,__zero_reg__
 6427 1f76 1C92      		st X,__zero_reg__
 6428 1f78 1397      		sbiw r26,3
 6429               	.LBE1023:
 6430               	.LBE1022:
 6431               	.LBB1024:
 6432               	.LBB1025:
 6433               	.LM590:
 6434 1f7a 1082      		st Z,__zero_reg__
 6435 1f7c 1182      		std Z+1,__zero_reg__
 6436 1f7e 1282      		std Z+2,__zero_reg__
 6437 1f80 1382      		std Z+3,__zero_reg__
 6438               	.LBE1025:
 6439               	.LBE1024:
 6440               	.LBB1026:
 6441               	.LBB1027:
 6442               	.LM591:
 6443 1f82 F601      		movw r30,r12
 6444 1f84 8081      		ld r24,Z
 6445               	.LBE1027:
 6446               	.LBE1026:
 6447               	.LBE1019:
 6448               	.LBE1018:
 6449               	.LBB1028:
 6450               	.LBB1029:
 6451               	.LM592:
 6452 1f86 807E      		andi r24,lo8(-32)
 6453 1f88 8860      		ori r24,lo8(8)
 6454 1f8a 8083      		st Z,r24
 6455 1f8c 00C0      		rjmp .L297
 6456               	.LVL423:
 6457               	.L295:
 6458               	.LBE1029:
 6459               	.LBE1028:
 6460               	.LM593:
 6461 1f8e 8230      		cpi r24,lo8(2)
 6462 1f90 01F4      		brne .L297
 6463               	.LBB1030:
 6464               	.LBB1031:
 6465               	.LM594:
 6466 1f92 6184      		ldd r6,Z+9
 6467 1f94 7284      		ldd r7,Z+10
 6468               	.LBE1031:
 6469               	.LBE1030:
 6470               	.LBB1032:
 6471               	.LBB1033:
 6472               	.LM595:
 6473 1f96 E384      		ldd r14,Z+11
 6474 1f98 F484      		ldd r15,Z+12
 6475 1f9a 0585      		ldd r16,Z+13
 6476 1f9c 1685      		ldd r17,Z+14
 6477               	.LVL424:
 6478               	.LBE1033:
 6479               	.LBE1032:
 6480               	.LBB1034:
 6481               	.LBB1035:
 6482               	.LM596:
 6483 1f9e CC5A      		subi r28,lo8(-(84))
 6484 1fa0 DF4F      		sbci r29,hi8(-(84))
 6485 1fa2 2880      		ld r2,Y
 6486 1fa4 3980      		ldd r3,Y+1
 6487 1fa6 4A80      		ldd r4,Y+2
 6488 1fa8 5B80      		ldd r5,Y+3
 6489               	.LVL425:
 6490               	.LBE1035:
 6491               	.LBE1034:
 6492               	.LM597:
 6493 1faa 2081      		ld r18,Z
 6494 1fac 3181      		ldd r19,Z+1
 6495               	.LM598:
 6496 1fae A080      		ld r10,Z
 6497 1fb0 B180      		ldd r11,Z+1
 6498               	.LBB1036:
 6499               	.LBB1037:
 6500               	.LM599:
 6501 1fb2 2897      		sbiw r28,8
 6502 1fb4 40E0      		ldi r20,lo8(0)
 6503 1fb6 50E0      		ldi r21,hi8(0)
 6504 1fb8 C201      		movw r24,r4
 6505 1fba B101      		movw r22,r2
 6506 1fbc 0E94 0000 		call __divmodsi4
 6507 1fc0 E20E      		add r14,r18
 6508 1fc2 F31E      		adc r15,r19
 6509 1fc4 041F      		adc r16,r20
 6510 1fc6 151F      		adc r17,r21
 6511 1fc8 E992      		st Y+,r14
 6512 1fca F992      		st Y+,r15
 6513 1fcc 0993      		st Y+,r16
 6514 1fce 1993      		st Y+,r17
 6515               	.LBE1037:
 6516               	.LBE1036:
 6517               	.LBB1038:
 6518               	.LBB1039:
 6519               	.LM600:
 6520 1fd0 CC24      		clr r12
 6521 1fd2 DD24      		clr r13
 6522 1fd4 C201      		movw r24,r4
 6523 1fd6 B101      		movw r22,r2
 6524 1fd8 A601      		movw r20,r12
 6525 1fda 9501      		movw r18,r10
 6526 1fdc 0E94 0000 		call __divmodsi4
 6527 1fe0 8824      		clr r8
 6528 1fe2 9924      		clr r9
 6529 1fe4 660E      		add r6,r22
 6530 1fe6 771E      		adc r7,r23
 6531 1fe8 881E      		adc r8,r24
 6532 1fea 991E      		adc r9,r25
 6533 1fec 6882      		st Y,r6
 6534 1fee 7982      		std Y+1,r7
 6535 1ff0 8A82      		std Y+2,r8
 6536 1ff2 9B82      		std Y+3,r9
 6537               	.LVL426:
 6538               	.L297:
 6539               	/* epilogue start */
 6540               	.LBE1039:
 6541               	.LBE1038:
 6542               	.LM601:
 6543 1ff4 DF91      		pop r29
 6544 1ff6 CF91      		pop r28
 6545 1ff8 1F91      		pop r17
 6546 1ffa 0F91      		pop r16
 6547               	.LVL427:
 6548 1ffc FF90      		pop r15
 6549 1ffe EF90      		pop r14
 6550               	.LVL428:
 6551 2000 DF90      		pop r13
 6552 2002 CF90      		pop r12
 6553 2004 BF90      		pop r11
 6554 2006 AF90      		pop r10
 6555 2008 9F90      		pop r9
 6556 200a 8F90      		pop r8
 6557 200c 7F90      		pop r7
 6558 200e 6F90      		pop r6
 6559 2010 5F90      		pop r5
 6560 2012 4F90      		pop r4
 6561 2014 3F90      		pop r3
 6562 2016 2F90      		pop r2
 6563               	.LVL429:
 6564 2018 0895      		ret
 6565               	.LFE111:
 6567               	.global	Timebase_DownCounter_SS_Expired
 6569               	Timebase_DownCounter_SS_Expired:
 6570               	.LFB112:
 6571               	.LM602:
 6572               	.LVL430:
 6573               	/* prologue: function */
 6574               	/* frame size = 0 */
 6575               	.LM603:
 6576 201a 40E0      		ldi r20,lo8(0)
 6577 201c E091 0000 		lds r30,Timebase
 6578 2020 F091 0000 		lds r31,(Timebase)+1
 6579 2024 90E0      		ldi r25,lo8(0)
 6580               	.LVL431:
 6581 2026 9C01      		movw r18,r24
 6582 2028 54E0      		ldi r21,4
 6583 202a 220F      	1:	lsl r18
 6584 202c 331F      		rol r19
 6585 202e 5A95      		dec r21
 6586 2030 01F4      		brne 1b
 6587 2032 280F      		add r18,r24
 6588 2034 391F      		adc r19,r25
 6589 2036 E20F      		add r30,r18
 6590 2038 F31F      		adc r31,r19
 6591 203a E55B      		subi r30,lo8(-(75))
 6592 203c FF4F      		sbci r31,hi8(-(75))
 6593 203e 8081      		ld r24,Z
 6594               	.LVL432:
 6595 2040 8695      		lsr r24
 6596 2042 8F70      		andi r24,lo8(15)
 6597 2044 8430      		cpi r24,lo8(4)
 6598 2046 01F4      		brne .L299
 6599 2048 41E0      		ldi r20,lo8(1)
 6600               	.L299:
 6601               	.LM604:
 6602 204a 842F      		mov r24,r20
 6603               	/* epilogue start */
 6604 204c 0895      		ret
 6605               	.LFE112:
 6607               	.global	Timebase_DownCounter_SS_Expired_Event
 6609               	Timebase_DownCounter_SS_Expired_Event:
 6610               	.LFB113:
 6611               	.LM605:
 6612               	.LVL433:
 6613               	/* prologue: function */
 6614               	/* frame size = 0 */
 6615               	.LBB1040:
 6616               	.LBB1041:
 6617               	.LM606:
 6618 204e E091 0000 		lds r30,Timebase
 6619 2052 F091 0000 		lds r31,(Timebase)+1
 6620 2056 90E0      		ldi r25,lo8(0)
 6621               	.LBE1041:
 6622               	.LBE1040:
 6623               	.LM607:
 6624 2058 9C01      		movw r18,r24
 6625               	.LVL434:
 6626 205a 64E0      		ldi r22,4
 6627 205c 220F      	1:	lsl r18
 6628 205e 331F      		rol r19
 6629 2060 6A95      		dec r22
 6630 2062 01F4      		brne 1b
 6631 2064 280F      		add r18,r24
 6632 2066 391F      		adc r19,r25
 6633 2068 E20F      		add r30,r18
 6634 206a F31F      		adc r31,r19
 6635 206c DF01      		movw r26,r30
 6636 206e A55B      		subi r26,lo8(-(75))
 6637 2070 BF4F      		sbci r27,hi8(-(75))
 6638 2072 8C91      		ld r24,X
 6639 2074 8695      		lsr r24
 6640 2076 8F70      		andi r24,lo8(15)
 6641 2078 8430      		cpi r24,lo8(4)
 6642 207a 01F0      		breq .L302
 6643 207c 80E0      		ldi r24,lo8(0)
 6644 207e 0895      		ret
 6645               	.L302:
 6646               	.LBB1042:
 6647               	.LBB1043:
 6648               	.LBB1044:
 6649               	.LBB1045:
 6650               	.LBB1046:
 6651               	.LBB1047:
 6652               	.LM608:
 6653 2080 E05B      		subi r30,lo8(-(80))
 6654 2082 FF4F      		sbci r31,hi8(-(80))
 6655 2084 1082      		st Z,__zero_reg__
 6656 2086 1182      		std Z+1,__zero_reg__
 6657 2088 1282      		std Z+2,__zero_reg__
 6658 208a 1382      		std Z+3,__zero_reg__
 6659               	.LBE1047:
 6660               	.LBE1046:
 6661               	.LBB1048:
 6662               	.LBB1049:
 6663               	.LM609:
 6664 208c 1292      		st -Z,__zero_reg__
 6665 208e 1292      		st -Z,__zero_reg__
 6666 2090 1292      		st -Z,__zero_reg__
 6667 2092 1292      		st -Z,__zero_reg__
 6668               	.LBE1049:
 6669               	.LBE1048:
 6670               	.LBB1050:
 6671               	.LBB1051:
 6672               	.LM610:
 6673 2094 3896      		adiw r30,8
 6674 2096 1082      		st Z,__zero_reg__
 6675 2098 1182      		std Z+1,__zero_reg__
 6676 209a 1282      		std Z+2,__zero_reg__
 6677 209c 1382      		std Z+3,__zero_reg__
 6678               	.LBE1051:
 6679               	.LBE1050:
 6680               	.LBB1052:
 6681               	.LBB1053:
 6682               	.LM611:
 6683 209e 8C91      		ld r24,X
 6684               	.LBE1053:
 6685               	.LBE1052:
 6686               	.LBB1054:
 6687               	.LBB1055:
 6688               	.LM612:
 6689 20a0 807E      		andi r24,lo8(-32)
 6690 20a2 8C93      		st X,r24
 6691 20a4 81E0      		ldi r24,lo8(1)
 6692               	.LBE1055:
 6693               	.LBE1054:
 6694               	.LBE1045:
 6695               	.LBE1044:
 6696               	.LBE1043:
 6697               	.LBE1042:
 6698               	.LM613:
 6699 20a6 0895      		ret
 6700               	.LFE113:
 6702               	.global	Timebase_DownCounter_SS_Set_Period_Value_Securely
 6704               	Timebase_DownCounter_SS_Set_Period_Value_Securely:
 6705               	.LFB114:
 6706               	.LM614:
 6707               	.LVL435:
 6708 20a8 CF93      		push r28
 6709 20aa DF93      		push r29
 6710               	/* prologue: function */
 6711               	/* frame size = 0 */
 6712               	.LBB1056:
 6713               	.LBB1057:
 6714               	.LM615:
 6715 20ac C091 0000 		lds r28,Timebase
 6716 20b0 D091 0000 		lds r29,(Timebase)+1
 6717 20b4 282F      		mov r18,r24
 6718 20b6 30E0      		ldi r19,lo8(0)
 6719               	.LBE1057:
 6720               	.LBE1056:
 6721               	.LM616:
 6722 20b8 F901      		movw r30,r18
 6723 20ba A4E0      		ldi r26,4
 6724 20bc EE0F      	1:	lsl r30
 6725 20be FF1F      		rol r31
 6726 20c0 AA95      		dec r26
 6727 20c2 01F4      		brne 1b
 6728 20c4 E20F      		add r30,r18
 6729 20c6 F31F      		adc r31,r19
 6730 20c8 EC0F      		add r30,r28
 6731 20ca FD1F      		adc r31,r29
 6732 20cc E55B      		subi r30,lo8(-(75))
 6733 20ce FF4F      		sbci r31,hi8(-(75))
 6734 20d0 8081      		ld r24,Z
 6735               	.LVL436:
 6736 20d2 EB54      		subi r30,lo8(-(-75))
 6737 20d4 F040      		sbci r31,hi8(-(-75))
 6738 20d6 80FD      		sbrc r24,0
 6739 20d8 00C0      		rjmp .L309
 6740               	.LM617:
 6741 20da EC5A      		subi r30,lo8(-(84))
 6742 20dc FF4F      		sbci r31,hi8(-(84))
 6743 20de 8191      		ld r24,Z+
 6744 20e0 9191      		ld r25,Z+
 6745 20e2 A191      		ld r26,Z+
 6746 20e4 B191      		ld r27,Z+
 6747 20e6 841B      		sub r24,r20
 6748 20e8 950B      		sbc r25,r21
 6749 20ea A60B      		sbc r26,r22
 6750 20ec B70B      		sbc r27,r23
 6751               	.LBB1058:
 6752               	.LBB1059:
 6753               	.LM618:
 6754 20ee B7FF      		sbrs r27,7
 6755 20f0 00C0      		rjmp .L307
 6756               	.LM619:
 6757 20f2 1082      		st Z,__zero_reg__
 6758 20f4 1182      		std Z+1,__zero_reg__
 6759 20f6 1282      		std Z+2,__zero_reg__
 6760 20f8 1382      		std Z+3,__zero_reg__
 6761 20fa 00C0      		rjmp .L308
 6762               	.L307:
 6763               	.LM620:
 6764 20fc 8083      		st Z,r24
 6765 20fe 9183      		std Z+1,r25
 6766 2100 A283      		std Z+2,r26
 6767 2102 B383      		std Z+3,r27
 6768               	.L308:
 6769               	.LBE1059:
 6770               	.LBE1058:
 6771               	.LBB1060:
 6772               	.LBB1061:
 6773               	.LM621:
 6774 2104 F901      		movw r30,r18
 6775 2106 74E0      		ldi r23,4
 6776 2108 EE0F      	1:	lsl r30
 6777 210a FF1F      		rol r31
 6778 210c 7A95      		dec r23
 6779 210e 01F4      		brne 1b
 6780 2110 E20F      		add r30,r18
 6781 2112 F31F      		adc r31,r19
 6782 2114 EC0F      		add r30,r28
 6783 2116 FD1F      		adc r31,r29
 6784 2118 E55B      		subi r30,lo8(-(75))
 6785 211a FF4F      		sbci r31,hi8(-(75))
 6786 211c 8081      		ld r24,Z
 6787 211e 8160      		ori r24,lo8(1)
 6788 2120 8083      		st Z,r24
 6789               	.L309:
 6790               	/* epilogue start */
 6791               	.LBE1061:
 6792               	.LBE1060:
 6793               	.LM622:
 6794 2122 DF91      		pop r29
 6795 2124 CF91      		pop r28
 6796 2126 0895      		ret
 6797               	.LFE114:
 6799               	.global	Timebase_DownCounter_SS_Get_Remaining_Period_Value
 6801               	Timebase_DownCounter_SS_Get_Remaining_Period_Value:
 6802               	.LFB115:
 6803               	.LM623:
 6804               	.LVL437:
 6805               	/* prologue: function */
 6806               	/* frame size = 0 */
 6807               	.LBB1062:
 6808               	.LBB1063:
 6809               	.LM624:
 6810 2128 E091 0000 		lds r30,Timebase
 6811 212c F091 0000 		lds r31,(Timebase)+1
 6812 2130 90E0      		ldi r25,lo8(0)
 6813               	.LBE1063:
 6814               	.LBE1062:
 6815               	.LM625:
 6816 2132 9C01      		movw r18,r24
 6817               	.LVL438:
 6818 2134 B4E0      		ldi r27,4
 6819 2136 220F      	1:	lsl r18
 6820 2138 331F      		rol r19
 6821 213a BA95      		dec r27
 6822 213c 01F4      		brne 1b
 6823 213e 280F      		add r18,r24
 6824 2140 391F      		adc r19,r25
 6825 2142 E20F      		add r30,r18
 6826 2144 F31F      		adc r31,r19
 6827 2146 DF01      		movw r26,r30
 6828 2148 A85A      		subi r26,lo8(-(88))
 6829 214a BF4F      		sbci r27,hi8(-(88))
 6830 214c EC5A      		subi r30,lo8(-(84))
 6831 214e FF4F      		sbci r31,hi8(-(84))
 6832 2150 2081      		ld r18,Z
 6833 2152 3181      		ldd r19,Z+1
 6834 2154 4281      		ldd r20,Z+2
 6835 2156 5381      		ldd r21,Z+3
 6836               	.LVL439:
 6837 2158 8D91      		ld r24,X+
 6838 215a 9D91      		ld r25,X+
 6839 215c 0D90      		ld __tmp_reg__,X+
 6840 215e BC91      		ld r27,X
 6841 2160 A02D      		mov r26,__tmp_reg__
 6842 2162 281B      		sub r18,r24
 6843 2164 390B      		sbc r19,r25
 6844 2166 4A0B      		sbc r20,r26
 6845 2168 5B0B      		sbc r21,r27
 6846 216a 57FF      		sbrs r21,7
 6847 216c 00C0      		rjmp .L311
 6848 216e 20E0      		ldi r18,lo8(0)
 6849 2170 30E0      		ldi r19,hi8(0)
 6850 2172 40E0      		ldi r20,hlo8(0)
 6851 2174 50E0      		ldi r21,hhi8(0)
 6852               	.L311:
 6853               	.LM626:
 6854 2176 B901      		movw r22,r18
 6855               	.LVL440:
 6856 2178 CA01      		movw r24,r20
 6857               	/* epilogue start */
 6858 217a 0895      		ret
 6859               	.LFE115:
 6861               	.global	Timebase_DownCounter_SS_Period_Value_Expired
 6863               	Timebase_DownCounter_SS_Period_Value_Expired:
 6864               	.LFB116:
 6865               	.LM627:
 6866               	.LVL441:
 6867 217c CF93      		push r28
 6868 217e DF93      		push r29
 6869               	/* prologue: function */
 6870               	/* frame size = 0 */
 6871               	.LBB1064:
 6872               	.LBB1065:
 6873               	.LBB1066:
 6874               	.LBB1067:
 6875               	.LM628:
 6876 2180 C091 0000 		lds r28,Timebase
 6877 2184 D091 0000 		lds r29,(Timebase)+1
 6878 2188 682F      		mov r22,r24
 6879 218a 70E0      		ldi r23,lo8(0)
 6880               	.LBE1067:
 6881               	.LBE1066:
 6882               	.LM629:
 6883 218c FB01      		movw r30,r22
 6884 218e 44E0      		ldi r20,4
 6885 2190 EE0F      	1:	lsl r30
 6886 2192 FF1F      		rol r31
 6887 2194 4A95      		dec r20
 6888 2196 01F4      		brne 1b
 6889 2198 E60F      		add r30,r22
 6890 219a F71F      		adc r31,r23
 6891 219c EC0F      		add r30,r28
 6892 219e FD1F      		adc r31,r29
 6893 21a0 DF01      		movw r26,r30
 6894 21a2 A85A      		subi r26,lo8(-(88))
 6895 21a4 BF4F      		sbci r27,hi8(-(88))
 6896 21a6 EC5A      		subi r30,lo8(-(84))
 6897 21a8 FF4F      		sbci r31,hi8(-(84))
 6898 21aa 2081      		ld r18,Z
 6899 21ac 3181      		ldd r19,Z+1
 6900 21ae 4281      		ldd r20,Z+2
 6901 21b0 5381      		ldd r21,Z+3
 6902               	.LVL442:
 6903 21b2 8D91      		ld r24,X+
 6904 21b4 9D91      		ld r25,X+
 6905 21b6 0D90      		ld __tmp_reg__,X+
 6906 21b8 BC91      		ld r27,X
 6907 21ba A02D      		mov r26,__tmp_reg__
 6908               	.LVL443:
 6909 21bc 281B      		sub r18,r24
 6910 21be 390B      		sbc r19,r25
 6911 21c0 4A0B      		sbc r20,r26
 6912 21c2 5B0B      		sbc r21,r27
 6913               	.LM630:
 6914 21c4 57FD      		sbrc r21,7
 6915 21c6 00C0      		rjmp .L314
 6916               	.LBE1065:
 6917               	.LBE1064:
 6918               	.LM631:
 6919 21c8 2115      		cp r18,__zero_reg__
 6920 21ca 3105      		cpc r19,__zero_reg__
 6921 21cc 4105      		cpc r20,__zero_reg__
 6922 21ce 5105      		cpc r21,__zero_reg__
 6923 21d0 01F0      		breq .L314
 6924 21d2 20E0      		ldi r18,lo8(0)
 6925               	.LVL444:
 6926 21d4 00C0      		rjmp .L315
 6927               	.LVL445:
 6928               	.L314:
 6929 21d6 20E0      		ldi r18,lo8(0)
 6930               	.LVL446:
 6931 21d8 CB01      		movw r24,r22
 6932 21da 34E0      		ldi r19,4
 6933 21dc 880F      	1:	lsl r24
 6934 21de 991F      		rol r25
 6935 21e0 3A95      		dec r19
 6936 21e2 01F4      		brne 1b
 6937 21e4 860F      		add r24,r22
 6938 21e6 971F      		adc r25,r23
 6939 21e8 C80F      		add r28,r24
 6940 21ea D91F      		adc r29,r25
 6941 21ec C55B      		subi r28,lo8(-(75))
 6942 21ee DF4F      		sbci r29,hi8(-(75))
 6943 21f0 8881      		ld r24,Y
 6944 21f2 80FF      		sbrs r24,0
 6945 21f4 21E0      		ldi r18,lo8(1)
 6946               	.L316:
 6947 21f6 81E0      		ldi r24,lo8(1)
 6948 21f8 2827      		eor r18,r24
 6949               	.L315:
 6950               	.LM632:
 6951 21fa 822F      		mov r24,r18
 6952               	/* epilogue start */
 6953 21fc DF91      		pop r29
 6954 21fe CF91      		pop r28
 6955 2200 0895      		ret
 6956               	.LFE116:
 6958               	.global	Timebase_DownCounter_SS_Period_Value_Expired_Event
 6960               	Timebase_DownCounter_SS_Period_Value_Expired_Event:
 6961               	.LFB117:
 6962               	.LM633:
 6963               	.LVL447:
 6964 2202 1F93      		push r17
 6965               	/* prologue: function */
 6966               	/* frame size = 0 */
 6967 2204 182F      		mov r17,r24
 6968               	.LM634:
 6969 2206 0E94 0000 		call Timebase_DownCounter_SS_Period_Value_Expired
 6970               	.LVL448:
 6971 220a 8130      		cpi r24,lo8(1)
 6972 220c 01F0      		breq .L319
 6973 220e 80E0      		ldi r24,lo8(0)
 6974 2210 00C0      		rjmp .L320
 6975               	.L319:
 6976               	.LBB1068:
 6977               	.LBB1069:
 6978               	.LM635:
 6979 2212 E091 0000 		lds r30,Timebase
 6980 2216 F091 0000 		lds r31,(Timebase)+1
 6981 221a 212F      		mov r18,r17
 6982 221c 30E0      		ldi r19,lo8(0)
 6983               	.LVL449:
 6984 221e C901      		movw r24,r18
 6985 2220 54E0      		ldi r21,4
 6986 2222 880F      	1:	lsl r24
 6987 2224 991F      		rol r25
 6988 2226 5A95      		dec r21
 6989 2228 01F4      		brne 1b
 6990 222a 820F      		add r24,r18
 6991 222c 931F      		adc r25,r19
 6992 222e E80F      		add r30,r24
 6993 2230 F91F      		adc r31,r25
 6994 2232 E55B      		subi r30,lo8(-(75))
 6995 2234 FF4F      		sbci r31,hi8(-(75))
 6996 2236 8081      		ld r24,Z
 6997 2238 8E7F      		andi r24,lo8(-2)
 6998 223a 8083      		st Z,r24
 6999 223c 81E0      		ldi r24,lo8(1)
 7000               	.L320:
 7001               	/* epilogue start */
 7002               	.LBE1069:
 7003               	.LBE1068:
 7004               	.LM636:
 7005 223e 1F91      		pop r17
 7006               	.LVL450:
 7007 2240 0895      		ret
 7008               	.LFE117:
 7010               	.global	Timebase_DownCounter_SS_Update_All
 7012               	Timebase_DownCounter_SS_Update_All:
 7013               	.LFB118:
 7014               	.LM637:
 7015               	/* prologue: function */
 7016               	/* frame size = 0 */
 7017               	.LBB1070:
 7018               	.LM638:
 7019 2242 80E0      		ldi r24,lo8(0)
 7020 2244 0E94 0000 		call Timebase_DownCounter_SS_Update
 7021               	/* epilogue start */
 7022               	.LBE1070:
 7023               	.LM639:
 7024 2248 0895      		ret
 7025               	.LFE118:
 7027               	.global	Timebase_DownCounter_SS_Reset_All
 7029               	Timebase_DownCounter_SS_Reset_All:
 7030               	.LFB119:
 7031               	.LM640:
 7032               	/* prologue: function */
 7033               	/* frame size = 0 */
 7034               	.LBB1071:
 7035               	.LBB1072:
 7036               	.LBB1073:
 7037               	.LBB1074:
 7038               	.LBB1075:
 7039               	.LM641:
 7040 224a E091 0000 		lds r30,Timebase
 7041 224e F091 0000 		lds r31,(Timebase)+1
 7042 2252 E05B      		subi r30,lo8(-(80))
 7043 2254 FF4F      		sbci r31,hi8(-(80))
 7044 2256 1082      		st Z,__zero_reg__
 7045 2258 1182      		std Z+1,__zero_reg__
 7046 225a 1282      		std Z+2,__zero_reg__
 7047 225c 1382      		std Z+3,__zero_reg__
 7048               	.LBE1075:
 7049               	.LBE1074:
 7050               	.LBB1076:
 7051               	.LBB1077:
 7052               	.LM642:
 7053 225e 1292      		st -Z,__zero_reg__
 7054 2260 1292      		st -Z,__zero_reg__
 7055 2262 1292      		st -Z,__zero_reg__
 7056 2264 1292      		st -Z,__zero_reg__
 7057               	.LBE1077:
 7058               	.LBE1076:
 7059               	.LBB1078:
 7060               	.LBB1079:
 7061               	.LM643:
 7062 2266 3896      		adiw r30,8
 7063 2268 1082      		st Z,__zero_reg__
 7064 226a 1182      		std Z+1,__zero_reg__
 7065 226c 1282      		std Z+2,__zero_reg__
 7066 226e 1382      		std Z+3,__zero_reg__
 7067               	.LBE1079:
 7068               	.LBE1078:
 7069               	.LBB1080:
 7070               	.LBB1081:
 7071               	.LM644:
 7072 2270 3997      		sbiw r30,9
 7073 2272 8081      		ld r24,Z
 7074               	.LBE1081:
 7075               	.LBE1080:
 7076               	.LBB1082:
 7077               	.LBB1083:
 7078               	.LM645:
 7079 2274 807E      		andi r24,lo8(-32)
 7080 2276 8083      		st Z,r24
 7081               	/* epilogue start */
 7082               	.LBE1083:
 7083               	.LBE1082:
 7084               	.LBE1073:
 7085               	.LBE1072:
 7086               	.LBE1071:
 7087               	.LM646:
 7088 2278 0895      		ret
 7089               	.LFE119:
 7091               	.global	Timebase_DownCounter_Get_Status
 7093               	Timebase_DownCounter_Get_Status:
 7094               	.LFB120:
 7095               	.LM647:
 7096               	.LVL451:
 7097               	/* prologue: function */
 7098               	/* frame size = 0 */
 7099               	.LM648:
 7100 227a E091 0000 		lds r30,Timebase
 7101 227e F091 0000 		lds r31,(Timebase)+1
 7102 2282 90E0      		ldi r25,lo8(0)
 7103               	.LVL452:
 7104 2284 2DE0      		ldi r18,lo8(13)
 7105 2286 30E0      		ldi r19,hi8(13)
 7106 2288 AC01      		movw r20,r24
 7107 228a 429F      		mul r20,r18
 7108 228c C001      		movw r24,r0
 7109 228e 439F      		mul r20,r19
 7110 2290 900D      		add r25,r0
 7111 2292 529F      		mul r21,r18
 7112 2294 900D      		add r25,r0
 7113 2296 1124      		clr r1
 7114               	.LVL453:
 7115 2298 E80F      		add r30,r24
 7116 229a F91F      		adc r31,r25
 7117 229c E45A      		subi r30,lo8(-(92))
 7118 229e FF4F      		sbci r31,hi8(-(92))
 7119 22a0 8081      		ld r24,Z
 7120 22a2 8695      		lsr r24
 7121               	.LM649:
 7122 22a4 8F70      		andi r24,lo8(15)
 7123               	/* epilogue start */
 7124 22a6 0895      		ret
 7125               	.LFE120:
 7127               	.global	Timebase_DownCounter_Set_Status
 7129               	Timebase_DownCounter_Set_Status:
 7130               	.LFB121:
 7131               	.LM650:
 7132               	.LVL454:
 7133               	/* prologue: function */
 7134               	/* frame size = 0 */
 7135               	.LM651:
 7136 22a8 E091 0000 		lds r30,Timebase
 7137 22ac F091 0000 		lds r31,(Timebase)+1
 7138 22b0 90E0      		ldi r25,lo8(0)
 7139               	.LVL455:
 7140 22b2 2DE0      		ldi r18,lo8(13)
 7141 22b4 30E0      		ldi r19,hi8(13)
 7142 22b6 AC01      		movw r20,r24
 7143 22b8 429F      		mul r20,r18
 7144 22ba C001      		movw r24,r0
 7145 22bc 439F      		mul r20,r19
 7146 22be 900D      		add r25,r0
 7147 22c0 529F      		mul r21,r18
 7148 22c2 900D      		add r25,r0
 7149 22c4 1124      		clr r1
 7150               	.LVL456:
 7151 22c6 E80F      		add r30,r24
 7152 22c8 F91F      		adc r31,r25
 7153 22ca E45A      		subi r30,lo8(-(92))
 7154 22cc FF4F      		sbci r31,hi8(-(92))
 7155 22ce 6F70      		andi r22,lo8(15)
 7156               	.LVL457:
 7157 22d0 660F      		lsl r22
 7158 22d2 8081      		ld r24,Z
 7159 22d4 817E      		andi r24,lo8(-31)
 7160 22d6 862B      		or r24,r22
 7161 22d8 8083      		st Z,r24
 7162               	/* epilogue start */
 7163               	.LM652:
 7164 22da 0895      		ret
 7165               	.LFE121:
 7167               	.global	Timebase_DownCounter_Get_Value
 7169               	Timebase_DownCounter_Get_Value:
 7170               	.LFB122:
 7171               	.LM653:
 7172               	.LVL458:
 7173               	/* prologue: function */
 7174               	/* frame size = 0 */
 7175               	.LM654:
 7176 22dc E091 0000 		lds r30,Timebase
 7177 22e0 F091 0000 		lds r31,(Timebase)+1
 7178 22e4 90E0      		ldi r25,lo8(0)
 7179               	.LVL459:
 7180 22e6 2DE0      		ldi r18,lo8(13)
 7181 22e8 30E0      		ldi r19,hi8(13)
 7182 22ea AC01      		movw r20,r24
 7183 22ec 429F      		mul r20,r18
 7184 22ee C001      		movw r24,r0
 7185 22f0 439F      		mul r20,r19
 7186 22f2 900D      		add r25,r0
 7187 22f4 529F      		mul r21,r18
 7188 22f6 900D      		add r25,r0
 7189 22f8 1124      		clr r1
 7190               	.LVL460:
 7191 22fa E80F      		add r30,r24
 7192 22fc F91F      		adc r31,r25
 7193 22fe EF59      		subi r30,lo8(-(97))
 7194 2300 FF4F      		sbci r31,hi8(-(97))
 7195 2302 6081      		ld r22,Z
 7196 2304 7181      		ldd r23,Z+1
 7197               	.LM655:
 7198 2306 8281      		ldd r24,Z+2
 7199 2308 9381      		ldd r25,Z+3
 7200               	.LVL461:
 7201               	/* epilogue start */
 7202 230a 0895      		ret
 7203               	.LFE122:
 7205               	.global	Timebase_DownCounter_Set_Value
 7207               	Timebase_DownCounter_Set_Value:
 7208               	.LFB123:
 7209               	.LM656:
 7210               	.LVL462:
 7211               	/* prologue: function */
 7212               	/* frame size = 0 */
 7213               	.LM657:
 7214 230c E091 0000 		lds r30,Timebase
 7215 2310 F091 0000 		lds r31,(Timebase)+1
 7216 2314 90E0      		ldi r25,lo8(0)
 7217               	.LVL463:
 7218 2316 2DE0      		ldi r18,lo8(13)
 7219 2318 30E0      		ldi r19,hi8(13)
 7220 231a DC01      		movw r26,r24
 7221 231c A29F      		mul r26,r18
 7222 231e C001      		movw r24,r0
 7223 2320 A39F      		mul r26,r19
 7224 2322 900D      		add r25,r0
 7225 2324 B29F      		mul r27,r18
 7226 2326 900D      		add r25,r0
 7227 2328 1124      		clr r1
 7228               	.LVL464:
 7229 232a E80F      		add r30,r24
 7230 232c F91F      		adc r31,r25
 7231 232e EF59      		subi r30,lo8(-(97))
 7232 2330 FF4F      		sbci r31,hi8(-(97))
 7233 2332 4083      		st Z,r20
 7234 2334 5183      		std Z+1,r21
 7235 2336 6283      		std Z+2,r22
 7236 2338 7383      		std Z+3,r23
 7237               	/* epilogue start */
 7238               	.LM658:
 7239 233a 0895      		ret
 7240               	.LFE123:
 7242               	.global	Timebase_DownCounter_Get_EndValue
 7244               	Timebase_DownCounter_Get_EndValue:
 7245               	.LFB124:
 7246               	.LM659:
 7247               	.LVL465:
 7248               	/* prologue: function */
 7249               	/* frame size = 0 */
 7250               	.LM660:
 7251 233c E091 0000 		lds r30,Timebase
 7252 2340 F091 0000 		lds r31,(Timebase)+1
 7253 2344 90E0      		ldi r25,lo8(0)
 7254               	.LVL466:
 7255 2346 2DE0      		ldi r18,lo8(13)
 7256 2348 30E0      		ldi r19,hi8(13)
 7257 234a AC01      		movw r20,r24
 7258 234c 429F      		mul r20,r18
 7259 234e C001      		movw r24,r0
 7260 2350 439F      		mul r20,r19
 7261 2352 900D      		add r25,r0
 7262 2354 529F      		mul r21,r18
 7263 2356 900D      		add r25,r0
 7264 2358 1124      		clr r1
 7265               	.LVL467:
 7266 235a E80F      		add r30,r24
 7267 235c F91F      		adc r31,r25
 7268 235e E35A      		subi r30,lo8(-(93))
 7269 2360 FF4F      		sbci r31,hi8(-(93))
 7270 2362 6081      		ld r22,Z
 7271 2364 7181      		ldd r23,Z+1
 7272               	.LM661:
 7273 2366 8281      		ldd r24,Z+2
 7274 2368 9381      		ldd r25,Z+3
 7275               	.LVL468:
 7276               	/* epilogue start */
 7277 236a 0895      		ret
 7278               	.LFE124:
 7280               	.global	Timebase_DownCounter_Set_EndValue
 7282               	Timebase_DownCounter_Set_EndValue:
 7283               	.LFB125:
 7284               	.LM662:
 7285               	.LVL469:
 7286               	/* prologue: function */
 7287               	/* frame size = 0 */
 7288               	.LM663:
 7289 236c E091 0000 		lds r30,Timebase
 7290 2370 F091 0000 		lds r31,(Timebase)+1
 7291 2374 90E0      		ldi r25,lo8(0)
 7292               	.LVL470:
 7293 2376 2DE0      		ldi r18,lo8(13)
 7294 2378 30E0      		ldi r19,hi8(13)
 7295 237a DC01      		movw r26,r24
 7296 237c A29F      		mul r26,r18
 7297 237e C001      		movw r24,r0
 7298 2380 A39F      		mul r26,r19
 7299 2382 900D      		add r25,r0
 7300 2384 B29F      		mul r27,r18
 7301 2386 900D      		add r25,r0
 7302 2388 1124      		clr r1
 7303               	.LVL471:
 7304 238a E80F      		add r30,r24
 7305 238c F91F      		adc r31,r25
 7306 238e E35A      		subi r30,lo8(-(93))
 7307 2390 FF4F      		sbci r31,hi8(-(93))
 7308 2392 4083      		st Z,r20
 7309 2394 5183      		std Z+1,r21
 7310 2396 6283      		std Z+2,r22
 7311 2398 7383      		std Z+3,r23
 7312               	/* epilogue start */
 7313               	.LM664:
 7314 239a 0895      		ret
 7315               	.LFE125:
 7317               	.global	Timebase_DownCounter_Get_PeriodValue
 7319               	Timebase_DownCounter_Get_PeriodValue:
 7320               	.LFB126:
 7321               	.LM665:
 7322               	.LVL472:
 7323               	/* prologue: function */
 7324               	/* frame size = 0 */
 7325               	.LM666:
 7326 239c E091 0000 		lds r30,Timebase
 7327 23a0 F091 0000 		lds r31,(Timebase)+1
 7328 23a4 90E0      		ldi r25,lo8(0)
 7329               	.LVL473:
 7330 23a6 2DE0      		ldi r18,lo8(13)
 7331 23a8 30E0      		ldi r19,hi8(13)
 7332 23aa AC01      		movw r20,r24
 7333 23ac 429F      		mul r20,r18
 7334 23ae C001      		movw r24,r0
 7335 23b0 439F      		mul r20,r19
 7336 23b2 900D      		add r25,r0
 7337 23b4 529F      		mul r21,r18
 7338 23b6 900D      		add r25,r0
 7339 23b8 1124      		clr r1
 7340               	.LVL474:
 7341 23ba E80F      		add r30,r24
 7342 23bc F91F      		adc r31,r25
 7343 23be EB59      		subi r30,lo8(-(101))
 7344 23c0 FF4F      		sbci r31,hi8(-(101))
 7345 23c2 6081      		ld r22,Z
 7346 23c4 7181      		ldd r23,Z+1
 7347               	.LM667:
 7348 23c6 8281      		ldd r24,Z+2
 7349 23c8 9381      		ldd r25,Z+3
 7350               	.LVL475:
 7351               	/* epilogue start */
 7352 23ca 0895      		ret
 7353               	.LFE126:
 7355               	.global	Timebase_DownCounter_Set_PeriodValue
 7357               	Timebase_DownCounter_Set_PeriodValue:
 7358               	.LFB127:
 7359               	.LM668:
 7360               	.LVL476:
 7361               	/* prologue: function */
 7362               	/* frame size = 0 */
 7363 23cc E091 0000 		lds r30,Timebase
 7364 23d0 F091 0000 		lds r31,(Timebase)+1
 7365 23d4 282F      		mov r18,r24
 7366 23d6 30E0      		ldi r19,lo8(0)
 7367               	.LVL477:
 7368               	.LM669:
 7369 23d8 77FF      		sbrs r23,7
 7370 23da 00C0      		rjmp .L341
 7371               	.LVL478:
 7372               	.LM670:
 7373 23dc 8DE0      		ldi r24,lo8(13)
 7374 23de 90E0      		ldi r25,hi8(13)
 7375 23e0 AC01      		movw r20,r24
 7376               	.LVL479:
 7377 23e2 249F      		mul r18,r20
 7378 23e4 C001      		movw r24,r0
 7379 23e6 259F      		mul r18,r21
 7380 23e8 900D      		add r25,r0
 7381 23ea 349F      		mul r19,r20
 7382 23ec 900D      		add r25,r0
 7383 23ee 1124      		clr r1
 7384 23f0 E80F      		add r30,r24
 7385 23f2 F91F      		adc r31,r25
 7386 23f4 EB59      		subi r30,lo8(-(101))
 7387 23f6 FF4F      		sbci r31,hi8(-(101))
 7388 23f8 1082      		st Z,__zero_reg__
 7389 23fa 1182      		std Z+1,__zero_reg__
 7390 23fc 1282      		std Z+2,__zero_reg__
 7391 23fe 1382      		std Z+3,__zero_reg__
 7392 2400 0895      		ret
 7393               	.LVL480:
 7394               	.L341:
 7395               	.LM671:
 7396 2402 8DE0      		ldi r24,lo8(13)
 7397 2404 90E0      		ldi r25,hi8(13)
 7398 2406 DC01      		movw r26,r24
 7399 2408 2A9F      		mul r18,r26
 7400 240a C001      		movw r24,r0
 7401 240c 2B9F      		mul r18,r27
 7402 240e 900D      		add r25,r0
 7403 2410 3A9F      		mul r19,r26
 7404 2412 900D      		add r25,r0
 7405 2414 1124      		clr r1
 7406 2416 E80F      		add r30,r24
 7407 2418 F91F      		adc r31,r25
 7408 241a EB59      		subi r30,lo8(-(101))
 7409 241c FF4F      		sbci r31,hi8(-(101))
 7410 241e 4083      		st Z,r20
 7411 2420 5183      		std Z+1,r21
 7412 2422 6283      		std Z+2,r22
 7413 2424 7383      		std Z+3,r23
 7414 2426 0895      		ret
 7415               	.LFE127:
 7417               	.global	Timebase_DownCounter_Get_Period_Flag
 7419               	Timebase_DownCounter_Get_Period_Flag:
 7420               	.LFB128:
 7421               	.LM672:
 7422               	.LVL481:
 7423               	/* prologue: function */
 7424               	/* frame size = 0 */
 7425               	.LM673:
 7426 2428 E091 0000 		lds r30,Timebase
 7427 242c F091 0000 		lds r31,(Timebase)+1
 7428 2430 90E0      		ldi r25,lo8(0)
 7429               	.LVL482:
 7430 2432 2DE0      		ldi r18,lo8(13)
 7431 2434 30E0      		ldi r19,hi8(13)
 7432 2436 AC01      		movw r20,r24
 7433 2438 429F      		mul r20,r18
 7434 243a C001      		movw r24,r0
 7435 243c 439F      		mul r20,r19
 7436 243e 900D      		add r25,r0
 7437 2440 529F      		mul r21,r18
 7438 2442 900D      		add r25,r0
 7439 2444 1124      		clr r1
 7440               	.LVL483:
 7441 2446 E80F      		add r30,r24
 7442 2448 F91F      		adc r31,r25
 7443 244a E45A      		subi r30,lo8(-(92))
 7444 244c FF4F      		sbci r31,hi8(-(92))
 7445 244e 8081      		ld r24,Z
 7446               	.LM674:
 7447 2450 8170      		andi r24,lo8(1)
 7448               	/* epilogue start */
 7449 2452 0895      		ret
 7450               	.LFE128:
 7452               	.global	Timebase_DownCounter_Set_Period_Flag
 7454               	Timebase_DownCounter_Set_Period_Flag:
 7455               	.LFB129:
 7456               	.LM675:
 7457               	.LVL484:
 7458               	/* prologue: function */
 7459               	/* frame size = 0 */
 7460               	.LM676:
 7461 2454 E091 0000 		lds r30,Timebase
 7462 2458 F091 0000 		lds r31,(Timebase)+1
 7463 245c 90E0      		ldi r25,lo8(0)
 7464               	.LVL485:
 7465 245e 2DE0      		ldi r18,lo8(13)
 7466 2460 30E0      		ldi r19,hi8(13)
 7467 2462 AC01      		movw r20,r24
 7468 2464 429F      		mul r20,r18
 7469 2466 C001      		movw r24,r0
 7470 2468 439F      		mul r20,r19
 7471 246a 900D      		add r25,r0
 7472 246c 529F      		mul r21,r18
 7473 246e 900D      		add r25,r0
 7474 2470 1124      		clr r1
 7475               	.LVL486:
 7476 2472 E80F      		add r30,r24
 7477 2474 F91F      		adc r31,r25
 7478 2476 E45A      		subi r30,lo8(-(92))
 7479 2478 FF4F      		sbci r31,hi8(-(92))
 7480 247a 8081      		ld r24,Z
 7481 247c 8160      		ori r24,lo8(1)
 7482 247e 8083      		st Z,r24
 7483               	/* epilogue start */
 7484               	.LM677:
 7485 2480 0895      		ret
 7486               	.LFE129:
 7488               	.global	Timebase_DownCounter_Clear_Period_Flag
 7490               	Timebase_DownCounter_Clear_Period_Flag:
 7491               	.LFB130:
 7492               	.LM678:
 7493               	.LVL487:
 7494               	/* prologue: function */
 7495               	/* frame size = 0 */
 7496               	.LM679:
 7497 2482 E091 0000 		lds r30,Timebase
 7498 2486 F091 0000 		lds r31,(Timebase)+1
 7499 248a 90E0      		ldi r25,lo8(0)
 7500               	.LVL488:
 7501 248c 2DE0      		ldi r18,lo8(13)
 7502 248e 30E0      		ldi r19,hi8(13)
 7503 2490 AC01      		movw r20,r24
 7504 2492 429F      		mul r20,r18
 7505 2494 C001      		movw r24,r0
 7506 2496 439F      		mul r20,r19
 7507 2498 900D      		add r25,r0
 7508 249a 529F      		mul r21,r18
 7509 249c 900D      		add r25,r0
 7510 249e 1124      		clr r1
 7511               	.LVL489:
 7512 24a0 E80F      		add r30,r24
 7513 24a2 F91F      		adc r31,r25
 7514 24a4 E45A      		subi r30,lo8(-(92))
 7515 24a6 FF4F      		sbci r31,hi8(-(92))
 7516 24a8 8081      		ld r24,Z
 7517 24aa 8E7F      		andi r24,lo8(-2)
 7518 24ac 8083      		st Z,r24
 7519               	/* epilogue start */
 7520               	.LM680:
 7521 24ae 0895      		ret
 7522               	.LFE130:
 7524               	.global	Timebase_DownCounter_Reset
 7526               	Timebase_DownCounter_Reset:
 7527               	.LFB131:
 7528               	.LM681:
 7529               	.LVL490:
 7530               	/* prologue: function */
 7531               	/* frame size = 0 */
 7532               	.LBB1084:
 7533               	.LBB1085:
 7534               	.LM682:
 7535 24b0 E091 0000 		lds r30,Timebase
 7536 24b4 F091 0000 		lds r31,(Timebase)+1
 7537 24b8 90E0      		ldi r25,lo8(0)
 7538 24ba 2DE0      		ldi r18,lo8(13)
 7539 24bc 30E0      		ldi r19,hi8(13)
 7540 24be AC01      		movw r20,r24
 7541               	.LVL491:
 7542 24c0 429F      		mul r20,r18
 7543 24c2 C001      		movw r24,r0
 7544 24c4 439F      		mul r20,r19
 7545 24c6 900D      		add r25,r0
 7546 24c8 529F      		mul r21,r18
 7547 24ca 900D      		add r25,r0
 7548 24cc 1124      		clr r1
 7549 24ce E80F      		add r30,r24
 7550 24d0 F91F      		adc r31,r25
 7551 24d2 E35A      		subi r30,lo8(-(93))
 7552 24d4 FF4F      		sbci r31,hi8(-(93))
 7553 24d6 1192      		st Z+,__zero_reg__
 7554 24d8 1192      		st Z+,__zero_reg__
 7555 24da 1192      		st Z+,__zero_reg__
 7556 24dc 1192      		st Z+,__zero_reg__
 7557               	.LBE1085:
 7558               	.LBE1084:
 7559               	.LBB1086:
 7560               	.LBB1087:
 7561               	.LM683:
 7562 24de 1082      		st Z,__zero_reg__
 7563 24e0 1182      		std Z+1,__zero_reg__
 7564 24e2 1282      		std Z+2,__zero_reg__
 7565 24e4 1382      		std Z+3,__zero_reg__
 7566               	.LBE1087:
 7567               	.LBE1086:
 7568               	.LBB1088:
 7569               	.LBB1089:
 7570               	.LM684:
 7571 24e6 3597      		sbiw r30,5
 7572 24e8 8081      		ld r24,Z
 7573               	.LBE1089:
 7574               	.LBE1088:
 7575               	.LBB1090:
 7576               	.LBB1091:
 7577               	.LM685:
 7578 24ea 807E      		andi r24,lo8(-32)
 7579 24ec 8083      		st Z,r24
 7580               	/* epilogue start */
 7581               	.LBE1091:
 7582               	.LBE1090:
 7583               	.LM686:
 7584 24ee 0895      		ret
 7585               	.LFE131:
 7587               	.global	Timebase_DownCounter_Clear_All_Flags
 7589               	Timebase_DownCounter_Clear_All_Flags:
 7590               	.LFB132:
 7591               	.LM687:
 7592               	.LVL492:
 7593               	/* prologue: function */
 7594               	/* frame size = 0 */
 7595               	.LBB1092:
 7596               	.LBB1093:
 7597               	.LBB1094:
 7598               	.LBB1095:
 7599               	.LM688:
 7600 24f0 E091 0000 		lds r30,Timebase
 7601 24f4 F091 0000 		lds r31,(Timebase)+1
 7602 24f8 90E0      		ldi r25,lo8(0)
 7603 24fa 2DE0      		ldi r18,lo8(13)
 7604 24fc 30E0      		ldi r19,hi8(13)
 7605 24fe AC01      		movw r20,r24
 7606               	.LVL493:
 7607 2500 429F      		mul r20,r18
 7608 2502 C001      		movw r24,r0
 7609 2504 439F      		mul r20,r19
 7610 2506 900D      		add r25,r0
 7611 2508 529F      		mul r21,r18
 7612 250a 900D      		add r25,r0
 7613 250c 1124      		clr r1
 7614 250e E80F      		add r30,r24
 7615 2510 F91F      		adc r31,r25
 7616 2512 E35A      		subi r30,lo8(-(93))
 7617 2514 FF4F      		sbci r31,hi8(-(93))
 7618 2516 1192      		st Z+,__zero_reg__
 7619 2518 1192      		st Z+,__zero_reg__
 7620 251a 1192      		st Z+,__zero_reg__
 7621 251c 1192      		st Z+,__zero_reg__
 7622               	.LBE1095:
 7623               	.LBE1094:
 7624               	.LBB1096:
 7625               	.LBB1097:
 7626               	.LM689:
 7627 251e 1082      		st Z,__zero_reg__
 7628 2520 1182      		std Z+1,__zero_reg__
 7629 2522 1282      		std Z+2,__zero_reg__
 7630 2524 1382      		std Z+3,__zero_reg__
 7631               	.LBE1097:
 7632               	.LBE1096:
 7633               	.LBB1098:
 7634               	.LBB1099:
 7635               	.LM690:
 7636 2526 3597      		sbiw r30,5
 7637 2528 8081      		ld r24,Z
 7638               	.LBE1099:
 7639               	.LBE1098:
 7640               	.LBB1100:
 7641               	.LBB1101:
 7642               	.LM691:
 7643 252a 807E      		andi r24,lo8(-32)
 7644 252c 8083      		st Z,r24
 7645               	/* epilogue start */
 7646               	.LBE1101:
 7647               	.LBE1100:
 7648               	.LBE1093:
 7649               	.LBE1092:
 7650               	.LM692:
 7651 252e 0895      		ret
 7652               	.LFE132:
 7654               	.global	Timebase_DownCounter_Start
 7656               	Timebase_DownCounter_Start:
 7657               	.LFB133:
 7658               	.LM693:
 7659               	.LVL494:
 7660               	/* prologue: function */
 7661               	/* frame size = 0 */
 7662               	.LBB1102:
 7663               	.LBB1103:
 7664               	.LM694:
 7665 2530 E091 0000 		lds r30,Timebase
 7666 2534 F091 0000 		lds r31,(Timebase)+1
 7667 2538 90E0      		ldi r25,lo8(0)
 7668               	.LBE1103:
 7669               	.LBE1102:
 7670               	.LM695:
 7671 253a 2DE0      		ldi r18,lo8(13)
 7672 253c 30E0      		ldi r19,hi8(13)
 7673 253e AC01      		movw r20,r24
 7674               	.LVL495:
 7675 2540 429F      		mul r20,r18
 7676 2542 C001      		movw r24,r0
 7677 2544 439F      		mul r20,r19
 7678 2546 900D      		add r25,r0
 7679 2548 529F      		mul r21,r18
 7680 254a 900D      		add r25,r0
 7681 254c 1124      		clr r1
 7682 254e E80F      		add r30,r24
 7683 2550 F91F      		adc r31,r25
 7684 2552 E45A      		subi r30,lo8(-(92))
 7685 2554 FF4F      		sbci r31,hi8(-(92))
 7686 2556 9081      		ld r25,Z
 7687 2558 892F      		mov r24,r25
 7688 255a 8695      		lsr r24
 7689 255c 8F70      		andi r24,lo8(15)
 7690 255e 8130      		cpi r24,lo8(1)
 7691 2560 01F0      		breq .L356
 7692               	.LBB1104:
 7693               	.LBB1105:
 7694               	.LM696:
 7695 2562 917E      		andi r25,lo8(-31)
 7696 2564 9260      		ori r25,lo8(2)
 7697 2566 9083      		st Z,r25
 7698               	.L356:
 7699 2568 0895      		ret
 7700               	.LBE1105:
 7701               	.LBE1104:
 7702               	.LFE133:
 7704               	.global	Timebase_DownCounter_Stop
 7706               	Timebase_DownCounter_Stop:
 7707               	.LFB134:
 7708               	.LM697:
 7709               	.LVL496:
 7710               	/* prologue: function */
 7711               	/* frame size = 0 */
 7712               	.LBB1106:
 7713               	.LBB1107:
 7714               	.LM698:
 7715 256a E091 0000 		lds r30,Timebase
 7716 256e F091 0000 		lds r31,(Timebase)+1
 7717 2572 90E0      		ldi r25,lo8(0)
 7718               	.LBE1107:
 7719               	.LBE1106:
 7720               	.LM699:
 7721 2574 2DE0      		ldi r18,lo8(13)
 7722 2576 30E0      		ldi r19,hi8(13)
 7723 2578 AC01      		movw r20,r24
 7724               	.LVL497:
 7725 257a 429F      		mul r20,r18
 7726 257c C001      		movw r24,r0
 7727 257e 439F      		mul r20,r19
 7728 2580 900D      		add r25,r0
 7729 2582 529F      		mul r21,r18
 7730 2584 900D      		add r25,r0
 7731 2586 1124      		clr r1
 7732 2588 E80F      		add r30,r24
 7733 258a F91F      		adc r31,r25
 7734 258c E45A      		subi r30,lo8(-(92))
 7735 258e FF4F      		sbci r31,hi8(-(92))
 7736 2590 9081      		ld r25,Z
 7737 2592 892F      		mov r24,r25
 7738 2594 8695      		lsr r24
 7739 2596 8F70      		andi r24,lo8(15)
 7740 2598 8230      		cpi r24,lo8(2)
 7741 259a 01F0      		breq .L359
 7742               	.LBB1108:
 7743               	.LBB1109:
 7744               	.LM700:
 7745 259c 917E      		andi r25,lo8(-31)
 7746 259e 9460      		ori r25,lo8(4)
 7747 25a0 9083      		st Z,r25
 7748               	.L359:
 7749 25a2 0895      		ret
 7750               	.LBE1109:
 7751               	.LBE1108:
 7752               	.LFE134:
 7754               	.global	Timebase_DownCounter_Set_Securely
 7756               	Timebase_DownCounter_Set_Securely:
 7757               	.LFB135:
 7758               	.LM701:
 7759               	.LVL498:
 7760 25a4 CF93      		push r28
 7761 25a6 DF93      		push r29
 7762               	/* prologue: function */
 7763               	/* frame size = 0 */
 7764               	.LBB1110:
 7765               	.LBB1111:
 7766               	.LM702:
 7767 25a8 A091 0000 		lds r26,Timebase
 7768 25ac B091 0000 		lds r27,(Timebase)+1
 7769 25b0 90E0      		ldi r25,lo8(0)
 7770               	.LBE1111:
 7771               	.LBE1110:
 7772               	.LM703:
 7773 25b2 2DE0      		ldi r18,lo8(13)
 7774 25b4 30E0      		ldi r19,hi8(13)
 7775 25b6 829F      		mul r24,r18
 7776 25b8 F001      		movw r30,r0
 7777 25ba 839F      		mul r24,r19
 7778 25bc F00D      		add r31,r0
 7779 25be 929F      		mul r25,r18
 7780 25c0 F00D      		add r31,r0
 7781 25c2 1124      		clr r1
 7782               	.LVL499:
 7783 25c4 EA0F      		add r30,r26
 7784 25c6 FB1F      		adc r31,r27
 7785 25c8 EF01      		movw r28,r30
 7786 25ca C45A      		subi r28,lo8(-(92))
 7787 25cc DF4F      		sbci r29,hi8(-(92))
 7788 25ce 8881      		ld r24,Y
 7789 25d0 8695      		lsr r24
 7790 25d2 8F70      		andi r24,lo8(15)
 7791 25d4 01F4      		brne .L362
 7792               	.LBB1112:
 7793               	.LBB1113:
 7794               	.LM704:
 7795 25d6 EF59      		subi r30,lo8(-(97))
 7796 25d8 FF4F      		sbci r31,hi8(-(97))
 7797 25da 4083      		st Z,r20
 7798 25dc 5183      		std Z+1,r21
 7799 25de 6283      		std Z+2,r22
 7800 25e0 7383      		std Z+3,r23
 7801               	.LBE1113:
 7802               	.LBE1112:
 7803               	.LBB1114:
 7804               	.LBB1115:
 7805               	.LM705:
 7806 25e2 1B96      		adiw r26,11
 7807 25e4 8D91      		ld r24,X+
 7808 25e6 9D91      		ld r25,X+
 7809 25e8 0D90      		ld __tmp_reg__,X+
 7810 25ea BC91      		ld r27,X
 7811 25ec A02D      		mov r26,__tmp_reg__
 7812               	.LBE1115:
 7813               	.LBE1114:
 7814               	.LBB1116:
 7815               	.LBB1117:
 7816               	.LM706:
 7817 25ee 840F      		add r24,r20
 7818 25f0 951F      		adc r25,r21
 7819 25f2 A61F      		adc r26,r22
 7820 25f4 B71F      		adc r27,r23
 7821 25f6 B293      		st -Z,r27
 7822 25f8 A293      		st -Z,r26
 7823 25fa 9293      		st -Z,r25
 7824 25fc 8293      		st -Z,r24
 7825               	.LBE1117:
 7826               	.LBE1116:
 7827               	.LBB1118:
 7828               	.LBB1119:
 7829               	.LM707:
 7830 25fe 9881      		ld r25,Y
 7831 2600 892F      		mov r24,r25
 7832 2602 8695      		lsr r24
 7833 2604 8F70      		andi r24,lo8(15)
 7834 2606 8130      		cpi r24,lo8(1)
 7835 2608 01F0      		breq .L362
 7836               	.LBB1120:
 7837               	.LBB1121:
 7838               	.LM708:
 7839 260a 917E      		andi r25,lo8(-31)
 7840 260c 9260      		ori r25,lo8(2)
 7841 260e 9883      		st Y,r25
 7842               	.L362:
 7843               	/* epilogue start */
 7844               	.LBE1121:
 7845               	.LBE1120:
 7846               	.LBE1119:
 7847               	.LBE1118:
 7848               	.LM709:
 7849 2610 DF91      		pop r29
 7850 2612 CF91      		pop r28
 7851 2614 0895      		ret
 7852               	.LFE135:
 7854               	.global	Timebase_DownCounter_Set_Forcefully
 7856               	Timebase_DownCounter_Set_Forcefully:
 7857               	.LFB136:
 7858               	.LM710:
 7859               	.LVL500:
 7860 2616 CF93      		push r28
 7861 2618 DF93      		push r29
 7862               	/* prologue: function */
 7863               	/* frame size = 0 */
 7864               	.LBB1122:
 7865               	.LBB1123:
 7866               	.LBB1124:
 7867               	.LBB1125:
 7868               	.LM711:
 7869 261a E091 0000 		lds r30,Timebase
 7870 261e F091 0000 		lds r31,(Timebase)+1
 7871 2622 A82F      		mov r26,r24
 7872 2624 B0E0      		ldi r27,lo8(0)
 7873 2626 2DE0      		ldi r18,lo8(13)
 7874 2628 30E0      		ldi r19,hi8(13)
 7875 262a E901      		movw r28,r18
 7876 262c AC9F      		mul r26,r28
 7877 262e 9001      		movw r18,r0
 7878 2630 AD9F      		mul r26,r29
 7879 2632 300D      		add r19,r0
 7880 2634 BC9F      		mul r27,r28
 7881 2636 300D      		add r19,r0
 7882 2638 1124      		clr r1
 7883 263a E20F      		add r30,r18
 7884 263c F31F      		adc r31,r19
 7885 263e E35A      		subi r30,lo8(-(93))
 7886 2640 FF4F      		sbci r31,hi8(-(93))
 7887 2642 1192      		st Z+,__zero_reg__
 7888 2644 1192      		st Z+,__zero_reg__
 7889 2646 1192      		st Z+,__zero_reg__
 7890 2648 1192      		st Z+,__zero_reg__
 7891               	.LBE1125:
 7892               	.LBE1124:
 7893               	.LBB1126:
 7894               	.LBB1127:
 7895               	.LM712:
 7896 264a 1082      		st Z,__zero_reg__
 7897 264c 1182      		std Z+1,__zero_reg__
 7898 264e 1282      		std Z+2,__zero_reg__
 7899 2650 1382      		std Z+3,__zero_reg__
 7900               	.LBE1127:
 7901               	.LBE1126:
 7902               	.LBB1128:
 7903               	.LBB1129:
 7904               	.LM713:
 7905 2652 3597      		sbiw r30,5
 7906 2654 9081      		ld r25,Z
 7907               	.LBE1129:
 7908               	.LBE1128:
 7909               	.LBB1130:
 7910               	.LBB1131:
 7911               	.LM714:
 7912 2656 907E      		andi r25,lo8(-32)
 7913 2658 9083      		st Z,r25
 7914               	.LBE1131:
 7915               	.LBE1130:
 7916               	.LBE1123:
 7917               	.LBE1122:
 7918               	.LM715:
 7919 265a 0E94 0000 		call Timebase_DownCounter_Set_Securely
 7920               	.LVL501:
 7921               	/* epilogue start */
 7922               	.LM716:
 7923 265e DF91      		pop r29
 7924 2660 CF91      		pop r28
 7925 2662 0895      		ret
 7926               	.LFE136:
 7928               	.global	Timebase_DownCounter_Update
 7930               	Timebase_DownCounter_Update:
 7931               	.LFB137:
 7932               	.LM717:
 7933               	.LVL502:
 7934 2664 0F93      		push r16
 7935 2666 1F93      		push r17
 7936 2668 CF93      		push r28
 7937 266a DF93      		push r29
 7938               	/* prologue: function */
 7939               	/* frame size = 0 */
 7940               	.LBB1132:
 7941               	.LBB1133:
 7942               	.LM718:
 7943 266c A091 0000 		lds r26,Timebase
 7944 2670 B091 0000 		lds r27,(Timebase)+1
 7945 2674 90E0      		ldi r25,lo8(0)
 7946 2676 2DE0      		ldi r18,lo8(13)
 7947 2678 30E0      		ldi r19,hi8(13)
 7948 267a 829F      		mul r24,r18
 7949 267c F001      		movw r30,r0
 7950 267e 839F      		mul r24,r19
 7951 2680 F00D      		add r31,r0
 7952 2682 929F      		mul r25,r18
 7953 2684 F00D      		add r31,r0
 7954 2686 1124      		clr r1
 7955               	.LVL503:
 7956 2688 EA0F      		add r30,r26
 7957 268a FB1F      		adc r31,r27
 7958 268c 8F01      		movw r16,r30
 7959 268e 045A      		subi r16,lo8(-(92))
 7960 2690 1F4F      		sbci r17,hi8(-(92))
 7961 2692 E801      		movw r28,r16
 7962 2694 8881      		ld r24,Y
 7963 2696 8695      		lsr r24
 7964 2698 8F70      		andi r24,lo8(15)
 7965               	.LBE1133:
 7966               	.LBE1132:
 7967               	.LM719:
 7968 269a 8130      		cpi r24,lo8(1)
 7969 269c 01F4      		brne .L366
 7970               	.LBB1134:
 7971               	.LBB1135:
 7972               	.LM720:
 7973 269e 1B96      		adiw r26,11
 7974 26a0 2D91      		ld r18,X+
 7975 26a2 3D91      		ld r19,X+
 7976 26a4 4D91      		ld r20,X+
 7977 26a6 5C91      		ld r21,X
 7978 26a8 1E97      		sbiw r26,11+3
 7979               	.LBE1135:
 7980               	.LBE1134:
 7981               	.LM721:
 7982 26aa BF01      		movw r22,r30
 7983 26ac 635A      		subi r22,lo8(-(93))
 7984 26ae 7F4F      		sbci r23,hi8(-(93))
 7985 26b0 EB01      		movw r28,r22
 7986 26b2 8881      		ld r24,Y
 7987 26b4 9981      		ldd r25,Y+1
 7988 26b6 AA81      		ldd r26,Y+2
 7989 26b8 BB81      		ldd r27,Y+3
 7990 26ba 821B      		sub r24,r18
 7991 26bc 930B      		sbc r25,r19
 7992 26be A40B      		sbc r26,r20
 7993 26c0 B50B      		sbc r27,r21
 7994               	.LBB1136:
 7995               	.LBB1137:
 7996               	.LM722:
 7997 26c2 EF59      		subi r30,lo8(-(97))
 7998 26c4 FF4F      		sbci r31,hi8(-(97))
 7999 26c6 8083      		st Z,r24
 8000 26c8 9183      		std Z+1,r25
 8001 26ca A283      		std Z+2,r26
 8002 26cc B383      		std Z+3,r27
 8003               	.LBE1137:
 8004               	.LBE1136:
 8005               	.LM723:
 8006 26ce 1816      		cp __zero_reg__,r24
 8007 26d0 1906      		cpc __zero_reg__,r25
 8008 26d2 1A06      		cpc __zero_reg__,r26
 8009 26d4 1B06      		cpc __zero_reg__,r27
 8010 26d6 04F0      		brlt .L368
 8011               	.LBB1138:
 8012               	.LBB1139:
 8013               	.LBB1140:
 8014               	.LBB1141:
 8015               	.LM724:
 8016 26d8 DB01      		movw r26,r22
 8017 26da 1D92      		st X+,__zero_reg__
 8018 26dc 1D92      		st X+,__zero_reg__
 8019 26de 1D92      		st X+,__zero_reg__
 8020 26e0 1C92      		st X,__zero_reg__
 8021 26e2 1397      		sbiw r26,3
 8022               	.LBE1141:
 8023               	.LBE1140:
 8024               	.LBB1142:
 8025               	.LBB1143:
 8026               	.LM725:
 8027 26e4 1082      		st Z,__zero_reg__
 8028 26e6 1182      		std Z+1,__zero_reg__
 8029 26e8 1282      		std Z+2,__zero_reg__
 8030 26ea 1382      		std Z+3,__zero_reg__
 8031               	.LBE1143:
 8032               	.LBE1142:
 8033               	.LBB1144:
 8034               	.LBB1145:
 8035               	.LM726:
 8036 26ec E801      		movw r28,r16
 8037 26ee 8881      		ld r24,Y
 8038               	.LBE1145:
 8039               	.LBE1144:
 8040               	.LBE1139:
 8041               	.LBE1138:
 8042               	.LBB1146:
 8043               	.LBB1147:
 8044               	.LM727:
 8045 26f0 807E      		andi r24,lo8(-32)
 8046 26f2 8860      		ori r24,lo8(8)
 8047 26f4 8883      		st Y,r24
 8048 26f6 00C0      		rjmp .L368
 8049               	.L366:
 8050               	.LBE1147:
 8051               	.LBE1146:
 8052               	.LM728:
 8053 26f8 8230      		cpi r24,lo8(2)
 8054 26fa 01F4      		brne .L368
 8055               	.LBB1148:
 8056               	.LBB1149:
 8057               	.LM729:
 8058 26fc 1B96      		adiw r26,11
 8059 26fe 8D91      		ld r24,X+
 8060 2700 9D91      		ld r25,X+
 8061 2702 0D90      		ld __tmp_reg__,X+
 8062 2704 BC91      		ld r27,X
 8063 2706 A02D      		mov r26,__tmp_reg__
 8064               	.LBE1149:
 8065               	.LBE1148:
 8066               	.LBB1150:
 8067               	.LBB1151:
 8068               	.LM730:
 8069 2708 EF59      		subi r30,lo8(-(97))
 8070 270a FF4F      		sbci r31,hi8(-(97))
 8071 270c 2081      		ld r18,Z
 8072 270e 3181      		ldd r19,Z+1
 8073 2710 4281      		ldd r20,Z+2
 8074 2712 5381      		ldd r21,Z+3
 8075 2714 820F      		add r24,r18
 8076 2716 931F      		adc r25,r19
 8077 2718 A41F      		adc r26,r20
 8078 271a B51F      		adc r27,r21
 8079 271c B293      		st -Z,r27
 8080 271e A293      		st -Z,r26
 8081 2720 9293      		st -Z,r25
 8082 2722 8293      		st -Z,r24
 8083               	.L368:
 8084               	/* epilogue start */
 8085               	.LBE1151:
 8086               	.LBE1150:
 8087               	.LM731:
 8088 2724 DF91      		pop r29
 8089 2726 CF91      		pop r28
 8090 2728 1F91      		pop r17
 8091 272a 0F91      		pop r16
 8092 272c 0895      		ret
 8093               	.LFE137:
 8095               	.global	Timebase_DownCounter_Expired
 8097               	Timebase_DownCounter_Expired:
 8098               	.LFB138:
 8099               	.LM732:
 8100               	.LVL504:
 8101               	/* prologue: function */
 8102               	/* frame size = 0 */
 8103               	.LM733:
 8104 272e 40E0      		ldi r20,lo8(0)
 8105 2730 E091 0000 		lds r30,Timebase
 8106 2734 F091 0000 		lds r31,(Timebase)+1
 8107 2738 90E0      		ldi r25,lo8(0)
 8108               	.LVL505:
 8109 273a 2DE0      		ldi r18,lo8(13)
 8110 273c 30E0      		ldi r19,hi8(13)
 8111 273e BC01      		movw r22,r24
 8112 2740 629F      		mul r22,r18
 8113 2742 C001      		movw r24,r0
 8114 2744 639F      		mul r22,r19
 8115 2746 900D      		add r25,r0
 8116 2748 729F      		mul r23,r18
 8117 274a 900D      		add r25,r0
 8118 274c 1124      		clr r1
 8119               	.LVL506:
 8120 274e E80F      		add r30,r24
 8121 2750 F91F      		adc r31,r25
 8122 2752 E45A      		subi r30,lo8(-(92))
 8123 2754 FF4F      		sbci r31,hi8(-(92))
 8124 2756 8081      		ld r24,Z
 8125 2758 8695      		lsr r24
 8126 275a 8F70      		andi r24,lo8(15)
 8127 275c 8430      		cpi r24,lo8(4)
 8128 275e 01F4      		brne .L370
 8129 2760 41E0      		ldi r20,lo8(1)
 8130               	.L370:
 8131               	.LM734:
 8132 2762 842F      		mov r24,r20
 8133               	/* epilogue start */
 8134 2764 0895      		ret
 8135               	.LFE138:
 8137               	.global	Timebase_DownCounter_Expired_Event
 8139               	Timebase_DownCounter_Expired_Event:
 8140               	.LFB139:
 8141               	.LM735:
 8142               	.LVL507:
 8143               	/* prologue: function */
 8144               	/* frame size = 0 */
 8145               	.LBB1152:
 8146               	.LBB1153:
 8147               	.LM736:
 8148 2766 E091 0000 		lds r30,Timebase
 8149 276a F091 0000 		lds r31,(Timebase)+1
 8150 276e 90E0      		ldi r25,lo8(0)
 8151               	.LBE1153:
 8152               	.LBE1152:
 8153               	.LM737:
 8154 2770 2DE0      		ldi r18,lo8(13)
 8155 2772 30E0      		ldi r19,hi8(13)
 8156 2774 AC01      		movw r20,r24
 8157               	.LVL508:
 8158 2776 429F      		mul r20,r18
 8159 2778 C001      		movw r24,r0
 8160 277a 439F      		mul r20,r19
 8161 277c 900D      		add r25,r0
 8162 277e 529F      		mul r21,r18
 8163 2780 900D      		add r25,r0
 8164 2782 1124      		clr r1
 8165 2784 E80F      		add r30,r24
 8166 2786 F91F      		adc r31,r25
 8167 2788 DF01      		movw r26,r30
 8168 278a A45A      		subi r26,lo8(-(92))
 8169 278c BF4F      		sbci r27,hi8(-(92))
 8170 278e 8C91      		ld r24,X
 8171 2790 8695      		lsr r24
 8172 2792 8F70      		andi r24,lo8(15)
 8173 2794 8430      		cpi r24,lo8(4)
 8174 2796 01F0      		breq .L373
 8175 2798 80E0      		ldi r24,lo8(0)
 8176 279a 0895      		ret
 8177               	.L373:
 8178               	.LBB1154:
 8179               	.LBB1155:
 8180               	.LBB1156:
 8181               	.LBB1157:
 8182               	.LBB1158:
 8183               	.LBB1159:
 8184               	.LM738:
 8185 279c E35A      		subi r30,lo8(-(93))
 8186 279e FF4F      		sbci r31,hi8(-(93))
 8187 27a0 1192      		st Z+,__zero_reg__
 8188 27a2 1192      		st Z+,__zero_reg__
 8189 27a4 1192      		st Z+,__zero_reg__
 8190 27a6 1192      		st Z+,__zero_reg__
 8191               	.LBE1159:
 8192               	.LBE1158:
 8193               	.LBB1160:
 8194               	.LBB1161:
 8195               	.LM739:
 8196 27a8 1082      		st Z,__zero_reg__
 8197 27aa 1182      		std Z+1,__zero_reg__
 8198 27ac 1282      		std Z+2,__zero_reg__
 8199 27ae 1382      		std Z+3,__zero_reg__
 8200               	.LBE1161:
 8201               	.LBE1160:
 8202               	.LBB1162:
 8203               	.LBB1163:
 8204               	.LM740:
 8205 27b0 8C91      		ld r24,X
 8206               	.LBE1163:
 8207               	.LBE1162:
 8208               	.LBB1164:
 8209               	.LBB1165:
 8210               	.LM741:
 8211 27b2 807E      		andi r24,lo8(-32)
 8212 27b4 8C93      		st X,r24
 8213 27b6 81E0      		ldi r24,lo8(1)
 8214               	.LBE1165:
 8215               	.LBE1164:
 8216               	.LBE1157:
 8217               	.LBE1156:
 8218               	.LBE1155:
 8219               	.LBE1154:
 8220               	.LM742:
 8221 27b8 0895      		ret
 8222               	.LFE139:
 8224               	.global	Timebase_DownCounter_Set_Period_Value_Securely
 8226               	Timebase_DownCounter_Set_Period_Value_Securely:
 8227               	.LFB140:
 8228               	.LM743:
 8229               	.LVL509:
 8230 27ba CF93      		push r28
 8231 27bc DF93      		push r29
 8232               	/* prologue: function */
 8233               	/* frame size = 0 */
 8234               	.LBB1166:
 8235               	.LBB1167:
 8236               	.LM744:
 8237 27be C091 0000 		lds r28,Timebase
 8238 27c2 D091 0000 		lds r29,(Timebase)+1
 8239 27c6 282F      		mov r18,r24
 8240 27c8 30E0      		ldi r19,lo8(0)
 8241               	.LBE1167:
 8242               	.LBE1166:
 8243               	.LM745:
 8244 27ca 8DE0      		ldi r24,lo8(13)
 8245 27cc 90E0      		ldi r25,hi8(13)
 8246               	.LVL510:
 8247 27ce 289F      		mul r18,r24
 8248 27d0 F001      		movw r30,r0
 8249 27d2 299F      		mul r18,r25
 8250 27d4 F00D      		add r31,r0
 8251 27d6 389F      		mul r19,r24
 8252 27d8 F00D      		add r31,r0
 8253 27da 1124      		clr r1
 8254 27dc EC0F      		add r30,r28
 8255 27de FD1F      		adc r31,r29
 8256 27e0 E45A      		subi r30,lo8(-(92))
 8257 27e2 FF4F      		sbci r31,hi8(-(92))
 8258 27e4 8081      		ld r24,Z
 8259 27e6 EC55      		subi r30,lo8(-(-92))
 8260 27e8 F040      		sbci r31,hi8(-(-92))
 8261 27ea 80FD      		sbrc r24,0
 8262 27ec 00C0      		rjmp .L380
 8263               	.LM746:
 8264 27ee EF59      		subi r30,lo8(-(97))
 8265 27f0 FF4F      		sbci r31,hi8(-(97))
 8266 27f2 8191      		ld r24,Z+
 8267 27f4 9191      		ld r25,Z+
 8268 27f6 A191      		ld r26,Z+
 8269 27f8 B191      		ld r27,Z+
 8270 27fa 841B      		sub r24,r20
 8271 27fc 950B      		sbc r25,r21
 8272 27fe A60B      		sbc r26,r22
 8273 2800 B70B      		sbc r27,r23
 8274               	.LBB1168:
 8275               	.LBB1169:
 8276               	.LM747:
 8277 2802 B7FF      		sbrs r27,7
 8278 2804 00C0      		rjmp .L378
 8279               	.LM748:
 8280 2806 1082      		st Z,__zero_reg__
 8281 2808 1182      		std Z+1,__zero_reg__
 8282 280a 1282      		std Z+2,__zero_reg__
 8283 280c 1382      		std Z+3,__zero_reg__
 8284 280e 00C0      		rjmp .L379
 8285               	.L378:
 8286               	.LM749:
 8287 2810 8083      		st Z,r24
 8288 2812 9183      		std Z+1,r25
 8289 2814 A283      		std Z+2,r26
 8290 2816 B383      		std Z+3,r27
 8291               	.L379:
 8292               	.LBE1169:
 8293               	.LBE1168:
 8294               	.LBB1170:
 8295               	.LBB1171:
 8296               	.LM750:
 8297 2818 8DE0      		ldi r24,lo8(13)
 8298 281a 90E0      		ldi r25,hi8(13)
 8299 281c 289F      		mul r18,r24
 8300 281e F001      		movw r30,r0
 8301 2820 299F      		mul r18,r25
 8302 2822 F00D      		add r31,r0
 8303 2824 389F      		mul r19,r24
 8304 2826 F00D      		add r31,r0
 8305 2828 1124      		clr r1
 8306 282a EC0F      		add r30,r28
 8307 282c FD1F      		adc r31,r29
 8308 282e E45A      		subi r30,lo8(-(92))
 8309 2830 FF4F      		sbci r31,hi8(-(92))
 8310 2832 8081      		ld r24,Z
 8311 2834 8160      		ori r24,lo8(1)
 8312 2836 8083      		st Z,r24
 8313               	.L380:
 8314               	/* epilogue start */
 8315               	.LBE1171:
 8316               	.LBE1170:
 8317               	.LM751:
 8318 2838 DF91      		pop r29
 8319 283a CF91      		pop r28
 8320 283c 0895      		ret
 8321               	.LFE140:
 8323               	.global	Timebase_DownCounter_Get_Remaining_Period_Value
 8325               	Timebase_DownCounter_Get_Remaining_Period_Value:
 8326               	.LFB141:
 8327               	.LM752:
 8328               	.LVL511:
 8329               	/* prologue: function */
 8330               	/* frame size = 0 */
 8331               	.LBB1172:
 8332               	.LBB1173:
 8333               	.LM753:
 8334 283e E091 0000 		lds r30,Timebase
 8335 2842 F091 0000 		lds r31,(Timebase)+1
 8336 2846 90E0      		ldi r25,lo8(0)
 8337               	.LBE1173:
 8338               	.LBE1172:
 8339               	.LM754:
 8340 2848 2DE0      		ldi r18,lo8(13)
 8341 284a 30E0      		ldi r19,hi8(13)
 8342 284c AC01      		movw r20,r24
 8343               	.LVL512:
 8344 284e 429F      		mul r20,r18
 8345 2850 C001      		movw r24,r0
 8346 2852 439F      		mul r20,r19
 8347 2854 900D      		add r25,r0
 8348 2856 529F      		mul r21,r18
 8349 2858 900D      		add r25,r0
 8350 285a 1124      		clr r1
 8351 285c E80F      		add r30,r24
 8352 285e F91F      		adc r31,r25
 8353 2860 DF01      		movw r26,r30
 8354 2862 AB59      		subi r26,lo8(-(101))
 8355 2864 BF4F      		sbci r27,hi8(-(101))
 8356 2866 EF59      		subi r30,lo8(-(97))
 8357 2868 FF4F      		sbci r31,hi8(-(97))
 8358 286a 2081      		ld r18,Z
 8359 286c 3181      		ldd r19,Z+1
 8360 286e 4281      		ldd r20,Z+2
 8361 2870 5381      		ldd r21,Z+3
 8362               	.LVL513:
 8363 2872 8D91      		ld r24,X+
 8364 2874 9D91      		ld r25,X+
 8365 2876 0D90      		ld __tmp_reg__,X+
 8366 2878 BC91      		ld r27,X
 8367 287a A02D      		mov r26,__tmp_reg__
 8368 287c 281B      		sub r18,r24
 8369 287e 390B      		sbc r19,r25
 8370 2880 4A0B      		sbc r20,r26
 8371 2882 5B0B      		sbc r21,r27
 8372 2884 57FF      		sbrs r21,7
 8373 2886 00C0      		rjmp .L382
 8374 2888 20E0      		ldi r18,lo8(0)
 8375 288a 30E0      		ldi r19,hi8(0)
 8376 288c 40E0      		ldi r20,hlo8(0)
 8377 288e 50E0      		ldi r21,hhi8(0)
 8378               	.L382:
 8379               	.LM755:
 8380 2890 B901      		movw r22,r18
 8381               	.LVL514:
 8382 2892 CA01      		movw r24,r20
 8383               	/* epilogue start */
 8384 2894 0895      		ret
 8385               	.LFE141:
 8387               	.global	Timebase_DownCounter_Period_Value_Expired
 8389               	Timebase_DownCounter_Period_Value_Expired:
 8390               	.LFB142:
 8391               	.LM756:
 8392               	.LVL515:
 8393 2896 CF93      		push r28
 8394 2898 DF93      		push r29
 8395               	/* prologue: function */
 8396               	/* frame size = 0 */
 8397               	.LBB1174:
 8398               	.LBB1175:
 8399               	.LBB1176:
 8400               	.LBB1177:
 8401               	.LM757:
 8402 289a C091 0000 		lds r28,Timebase
 8403 289e D091 0000 		lds r29,(Timebase)+1
 8404 28a2 682F      		mov r22,r24
 8405 28a4 70E0      		ldi r23,lo8(0)
 8406               	.LBE1177:
 8407               	.LBE1176:
 8408               	.LM758:
 8409 28a6 8DE0      		ldi r24,lo8(13)
 8410 28a8 90E0      		ldi r25,hi8(13)
 8411               	.LVL516:
 8412 28aa 689F      		mul r22,r24
 8413 28ac F001      		movw r30,r0
 8414 28ae 699F      		mul r22,r25
 8415 28b0 F00D      		add r31,r0
 8416 28b2 789F      		mul r23,r24
 8417 28b4 F00D      		add r31,r0
 8418 28b6 1124      		clr r1
 8419 28b8 EC0F      		add r30,r28
 8420 28ba FD1F      		adc r31,r29
 8421 28bc DF01      		movw r26,r30
 8422 28be AB59      		subi r26,lo8(-(101))
 8423 28c0 BF4F      		sbci r27,hi8(-(101))
 8424 28c2 EF59      		subi r30,lo8(-(97))
 8425 28c4 FF4F      		sbci r31,hi8(-(97))
 8426 28c6 2081      		ld r18,Z
 8427 28c8 3181      		ldd r19,Z+1
 8428 28ca 4281      		ldd r20,Z+2
 8429 28cc 5381      		ldd r21,Z+3
 8430               	.LVL517:
 8431 28ce 8D91      		ld r24,X+
 8432 28d0 9D91      		ld r25,X+
 8433 28d2 0D90      		ld __tmp_reg__,X+
 8434 28d4 BC91      		ld r27,X
 8435 28d6 A02D      		mov r26,__tmp_reg__
 8436 28d8 281B      		sub r18,r24
 8437 28da 390B      		sbc r19,r25
 8438 28dc 4A0B      		sbc r20,r26
 8439 28de 5B0B      		sbc r21,r27
 8440               	.LM759:
 8441 28e0 57FD      		sbrc r21,7
 8442 28e2 00C0      		rjmp .L385
 8443               	.LBE1175:
 8444               	.LBE1174:
 8445               	.LM760:
 8446 28e4 2115      		cp r18,__zero_reg__
 8447 28e6 3105      		cpc r19,__zero_reg__
 8448 28e8 4105      		cpc r20,__zero_reg__
 8449 28ea 5105      		cpc r21,__zero_reg__
 8450 28ec 01F0      		breq .L385
 8451 28ee 20E0      		ldi r18,lo8(0)
 8452               	.LVL518:
 8453 28f0 00C0      		rjmp .L386
 8454               	.LVL519:
 8455               	.L385:
 8456 28f2 20E0      		ldi r18,lo8(0)
 8457               	.LVL520:
 8458 28f4 8DE0      		ldi r24,lo8(13)
 8459 28f6 90E0      		ldi r25,hi8(13)
 8460 28f8 AC01      		movw r20,r24
 8461 28fa 649F      		mul r22,r20
 8462 28fc C001      		movw r24,r0
 8463 28fe 659F      		mul r22,r21
 8464 2900 900D      		add r25,r0
 8465 2902 749F      		mul r23,r20
 8466 2904 900D      		add r25,r0
 8467 2906 1124      		clr r1
 8468 2908 C80F      		add r28,r24
 8469 290a D91F      		adc r29,r25
 8470 290c C45A      		subi r28,lo8(-(92))
 8471 290e DF4F      		sbci r29,hi8(-(92))
 8472 2910 8881      		ld r24,Y
 8473 2912 80FF      		sbrs r24,0
 8474 2914 21E0      		ldi r18,lo8(1)
 8475               	.L387:
 8476 2916 81E0      		ldi r24,lo8(1)
 8477 2918 2827      		eor r18,r24
 8478               	.L386:
 8479               	.LM761:
 8480 291a 822F      		mov r24,r18
 8481               	/* epilogue start */
 8482 291c DF91      		pop r29
 8483 291e CF91      		pop r28
 8484 2920 0895      		ret
 8485               	.LFE142:
 8487               	.global	Timebase_DownCounter_Period_Value_Expired_Event
 8489               	Timebase_DownCounter_Period_Value_Expired_Event:
 8490               	.LFB143:
 8491               	.LM762:
 8492               	.LVL521:
 8493 2922 1F93      		push r17
 8494               	/* prologue: function */
 8495               	/* frame size = 0 */
 8496 2924 182F      		mov r17,r24
 8497               	.LM763:
 8498 2926 0E94 0000 		call Timebase_DownCounter_Period_Value_Expired
 8499               	.LVL522:
 8500 292a 8130      		cpi r24,lo8(1)
 8501 292c 01F0      		breq .L390
 8502 292e 80E0      		ldi r24,lo8(0)
 8503 2930 00C0      		rjmp .L391
 8504               	.L390:
 8505               	.LBB1178:
 8506               	.LBB1179:
 8507               	.LM764:
 8508 2932 E091 0000 		lds r30,Timebase
 8509 2936 F091 0000 		lds r31,(Timebase)+1
 8510 293a 212F      		mov r18,r17
 8511 293c 30E0      		ldi r19,lo8(0)
 8512               	.LVL523:
 8513 293e 8DE0      		ldi r24,lo8(13)
 8514 2940 90E0      		ldi r25,hi8(13)
 8515 2942 AC01      		movw r20,r24
 8516 2944 249F      		mul r18,r20
 8517 2946 C001      		movw r24,r0
 8518 2948 259F      		mul r18,r21
 8519 294a 900D      		add r25,r0
 8520 294c 349F      		mul r19,r20
 8521 294e 900D      		add r25,r0
 8522 2950 1124      		clr r1
 8523 2952 E80F      		add r30,r24
 8524 2954 F91F      		adc r31,r25
 8525 2956 E45A      		subi r30,lo8(-(92))
 8526 2958 FF4F      		sbci r31,hi8(-(92))
 8527 295a 8081      		ld r24,Z
 8528 295c 8E7F      		andi r24,lo8(-2)
 8529 295e 8083      		st Z,r24
 8530 2960 81E0      		ldi r24,lo8(1)
 8531               	.L391:
 8532               	/* epilogue start */
 8533               	.LBE1179:
 8534               	.LBE1178:
 8535               	.LM765:
 8536 2962 1F91      		pop r17
 8537               	.LVL524:
 8538 2964 0895      		ret
 8539               	.LFE143:
 8541               	.global	Timebase_DownCounter_Update_All
 8543               	Timebase_DownCounter_Update_All:
 8544               	.LFB144:
 8545               	.LM766:
 8546               	/* prologue: function */
 8547               	/* frame size = 0 */
 8548               	.LBB1180:
 8549               	.LM767:
 8550 2966 80E0      		ldi r24,lo8(0)
 8551 2968 0E94 0000 		call Timebase_DownCounter_Update
 8552               	/* epilogue start */
 8553               	.LBE1180:
 8554               	.LM768:
 8555 296c 0895      		ret
 8556               	.LFE144:
 8558               	.global	Timebase_DownCounter_Reset_All
 8560               	Timebase_DownCounter_Reset_All:
 8561               	.LFB145:
 8562               	.LM769:
 8563               	/* prologue: function */
 8564               	/* frame size = 0 */
 8565               	.LBB1181:
 8566               	.LBB1182:
 8567               	.LBB1183:
 8568               	.LBB1184:
 8569               	.LBB1185:
 8570               	.LM770:
 8571 296e E091 0000 		lds r30,Timebase
 8572 2972 F091 0000 		lds r31,(Timebase)+1
 8573 2976 E35A      		subi r30,lo8(-(93))
 8574 2978 FF4F      		sbci r31,hi8(-(93))
 8575 297a 1192      		st Z+,__zero_reg__
 8576 297c 1192      		st Z+,__zero_reg__
 8577 297e 1192      		st Z+,__zero_reg__
 8578 2980 1192      		st Z+,__zero_reg__
 8579               	.LBE1185:
 8580               	.LBE1184:
 8581               	.LBB1186:
 8582               	.LBB1187:
 8583               	.LM771:
 8584 2982 1082      		st Z,__zero_reg__
 8585 2984 1182      		std Z+1,__zero_reg__
 8586 2986 1282      		std Z+2,__zero_reg__
 8587 2988 1382      		std Z+3,__zero_reg__
 8588               	.LBE1187:
 8589               	.LBE1186:
 8590               	.LBB1188:
 8591               	.LBB1189:
 8592               	.LM772:
 8593 298a 3597      		sbiw r30,5
 8594 298c 8081      		ld r24,Z
 8595               	.LBE1189:
 8596               	.LBE1188:
 8597               	.LBB1190:
 8598               	.LBB1191:
 8599               	.LM773:
 8600 298e 807E      		andi r24,lo8(-32)
 8601 2990 8083      		st Z,r24
 8602               	/* epilogue start */
 8603               	.LBE1191:
 8604               	.LBE1190:
 8605               	.LBE1183:
 8606               	.LBE1182:
 8607               	.LBE1181:
 8608               	.LM774:
 8609 2992 0895      		ret
 8610               	.LFE145:
 8612               	.global	Timebase_LPDownCounter_Get_Status
 8614               	Timebase_LPDownCounter_Get_Status:
 8615               	.LFB146:
 8616               	.LM775:
 8617               	.LVL525:
 8618               	/* prologue: function */
 8619               	/* frame size = 0 */
 8620               	.LM776:
 8621 2994 E091 0000 		lds r30,Timebase
 8622 2998 F091 0000 		lds r31,(Timebase)+1
 8623 299c 90E0      		ldi r25,lo8(0)
 8624               	.LVL526:
 8625 299e 2DE0      		ldi r18,lo8(13)
 8626 29a0 30E0      		ldi r19,hi8(13)
 8627 29a2 AC01      		movw r20,r24
 8628 29a4 429F      		mul r20,r18
 8629 29a6 C001      		movw r24,r0
 8630 29a8 439F      		mul r20,r19
 8631 29aa 900D      		add r25,r0
 8632 29ac 529F      		mul r21,r18
 8633 29ae 900D      		add r25,r0
 8634 29b0 1124      		clr r1
 8635               	.LVL527:
 8636 29b2 E80F      		add r30,r24
 8637 29b4 F91F      		adc r31,r25
 8638 29b6 E759      		subi r30,lo8(-(105))
 8639 29b8 FF4F      		sbci r31,hi8(-(105))
 8640 29ba 8081      		ld r24,Z
 8641 29bc 8695      		lsr r24
 8642               	.LM777:
 8643 29be 8F70      		andi r24,lo8(15)
 8644               	/* epilogue start */
 8645 29c0 0895      		ret
 8646               	.LFE146:
 8648               	.global	Timebase_LPDownCounter_Set_Status
 8650               	Timebase_LPDownCounter_Set_Status:
 8651               	.LFB147:
 8652               	.LM778:
 8653               	.LVL528:
 8654               	/* prologue: function */
 8655               	/* frame size = 0 */
 8656               	.LM779:
 8657 29c2 E091 0000 		lds r30,Timebase
 8658 29c6 F091 0000 		lds r31,(Timebase)+1
 8659 29ca 90E0      		ldi r25,lo8(0)
 8660               	.LVL529:
 8661 29cc 2DE0      		ldi r18,lo8(13)
 8662 29ce 30E0      		ldi r19,hi8(13)
 8663 29d0 AC01      		movw r20,r24
 8664 29d2 429F      		mul r20,r18
 8665 29d4 C001      		movw r24,r0
 8666 29d6 439F      		mul r20,r19
 8667 29d8 900D      		add r25,r0
 8668 29da 529F      		mul r21,r18
 8669 29dc 900D      		add r25,r0
 8670 29de 1124      		clr r1
 8671               	.LVL530:
 8672 29e0 E80F      		add r30,r24
 8673 29e2 F91F      		adc r31,r25
 8674 29e4 E759      		subi r30,lo8(-(105))
 8675 29e6 FF4F      		sbci r31,hi8(-(105))
 8676 29e8 6F70      		andi r22,lo8(15)
 8677               	.LVL531:
 8678 29ea 660F      		lsl r22
 8679 29ec 8081      		ld r24,Z
 8680 29ee 817E      		andi r24,lo8(-31)
 8681 29f0 862B      		or r24,r22
 8682 29f2 8083      		st Z,r24
 8683               	/* epilogue start */
 8684               	.LM780:
 8685 29f4 0895      		ret
 8686               	.LFE147:
 8688               	.global	Timebase_LPDownCounter_Get_Value
 8690               	Timebase_LPDownCounter_Get_Value:
 8691               	.LFB148:
 8692               	.LM781:
 8693               	.LVL532:
 8694               	/* prologue: function */
 8695               	/* frame size = 0 */
 8696               	.LM782:
 8697 29f6 E091 0000 		lds r30,Timebase
 8698 29fa F091 0000 		lds r31,(Timebase)+1
 8699 29fe 90E0      		ldi r25,lo8(0)
 8700               	.LVL533:
 8701 2a00 2DE0      		ldi r18,lo8(13)
 8702 2a02 30E0      		ldi r19,hi8(13)
 8703 2a04 AC01      		movw r20,r24
 8704 2a06 429F      		mul r20,r18
 8705 2a08 C001      		movw r24,r0
 8706 2a0a 439F      		mul r20,r19
 8707 2a0c 900D      		add r25,r0
 8708 2a0e 529F      		mul r21,r18
 8709 2a10 900D      		add r25,r0
 8710 2a12 1124      		clr r1
 8711               	.LVL534:
 8712 2a14 E80F      		add r30,r24
 8713 2a16 F91F      		adc r31,r25
 8714 2a18 E259      		subi r30,lo8(-(110))
 8715 2a1a FF4F      		sbci r31,hi8(-(110))
 8716 2a1c 6081      		ld r22,Z
 8717 2a1e 7181      		ldd r23,Z+1
 8718               	.LM783:
 8719 2a20 8281      		ldd r24,Z+2
 8720 2a22 9381      		ldd r25,Z+3
 8721               	.LVL535:
 8722               	/* epilogue start */
 8723 2a24 0895      		ret
 8724               	.LFE148:
 8726               	.global	Timebase_LPDownCounter_Set_Value
 8728               	Timebase_LPDownCounter_Set_Value:
 8729               	.LFB149:
 8730               	.LM784:
 8731               	.LVL536:
 8732               	/* prologue: function */
 8733               	/* frame size = 0 */
 8734               	.LM785:
 8735 2a26 E091 0000 		lds r30,Timebase
 8736 2a2a F091 0000 		lds r31,(Timebase)+1
 8737 2a2e 90E0      		ldi r25,lo8(0)
 8738               	.LVL537:
 8739 2a30 2DE0      		ldi r18,lo8(13)
 8740 2a32 30E0      		ldi r19,hi8(13)
 8741 2a34 DC01      		movw r26,r24
 8742 2a36 A29F      		mul r26,r18
 8743 2a38 C001      		movw r24,r0
 8744 2a3a A39F      		mul r26,r19
 8745 2a3c 900D      		add r25,r0
 8746 2a3e B29F      		mul r27,r18
 8747 2a40 900D      		add r25,r0
 8748 2a42 1124      		clr r1
 8749               	.LVL538:
 8750 2a44 E80F      		add r30,r24
 8751 2a46 F91F      		adc r31,r25
 8752 2a48 E259      		subi r30,lo8(-(110))
 8753 2a4a FF4F      		sbci r31,hi8(-(110))
 8754 2a4c 4083      		st Z,r20
 8755 2a4e 5183      		std Z+1,r21
 8756 2a50 6283      		std Z+2,r22
 8757 2a52 7383      		std Z+3,r23
 8758               	/* epilogue start */
 8759               	.LM786:
 8760 2a54 0895      		ret
 8761               	.LFE149:
 8763               	.global	Timebase_LPDownCounter_Get_EndValue
 8765               	Timebase_LPDownCounter_Get_EndValue:
 8766               	.LFB150:
 8767               	.LM787:
 8768               	.LVL539:
 8769               	/* prologue: function */
 8770               	/* frame size = 0 */
 8771               	.LM788:
 8772 2a56 E091 0000 		lds r30,Timebase
 8773 2a5a F091 0000 		lds r31,(Timebase)+1
 8774 2a5e 90E0      		ldi r25,lo8(0)
 8775               	.LVL540:
 8776 2a60 2DE0      		ldi r18,lo8(13)
 8777 2a62 30E0      		ldi r19,hi8(13)
 8778 2a64 AC01      		movw r20,r24
 8779 2a66 429F      		mul r20,r18
 8780 2a68 C001      		movw r24,r0
 8781 2a6a 439F      		mul r20,r19
 8782 2a6c 900D      		add r25,r0
 8783 2a6e 529F      		mul r21,r18
 8784 2a70 900D      		add r25,r0
 8785 2a72 1124      		clr r1
 8786               	.LVL541:
 8787 2a74 E80F      		add r30,r24
 8788 2a76 F91F      		adc r31,r25
 8789 2a78 E659      		subi r30,lo8(-(106))
 8790 2a7a FF4F      		sbci r31,hi8(-(106))
 8791 2a7c 6081      		ld r22,Z
 8792 2a7e 7181      		ldd r23,Z+1
 8793               	.LM789:
 8794 2a80 8281      		ldd r24,Z+2
 8795 2a82 9381      		ldd r25,Z+3
 8796               	.LVL542:
 8797               	/* epilogue start */
 8798 2a84 0895      		ret
 8799               	.LFE150:
 8801               	.global	Timebase_LPDownCounter_Set_EndValue
 8803               	Timebase_LPDownCounter_Set_EndValue:
 8804               	.LFB151:
 8805               	.LM790:
 8806               	.LVL543:
 8807               	/* prologue: function */
 8808               	/* frame size = 0 */
 8809               	.LM791:
 8810 2a86 E091 0000 		lds r30,Timebase
 8811 2a8a F091 0000 		lds r31,(Timebase)+1
 8812 2a8e 90E0      		ldi r25,lo8(0)
 8813               	.LVL544:
 8814 2a90 2DE0      		ldi r18,lo8(13)
 8815 2a92 30E0      		ldi r19,hi8(13)
 8816 2a94 DC01      		movw r26,r24
 8817 2a96 A29F      		mul r26,r18
 8818 2a98 C001      		movw r24,r0
 8819 2a9a A39F      		mul r26,r19
 8820 2a9c 900D      		add r25,r0
 8821 2a9e B29F      		mul r27,r18
 8822 2aa0 900D      		add r25,r0
 8823 2aa2 1124      		clr r1
 8824               	.LVL545:
 8825 2aa4 E80F      		add r30,r24
 8826 2aa6 F91F      		adc r31,r25
 8827 2aa8 E659      		subi r30,lo8(-(106))
 8828 2aaa FF4F      		sbci r31,hi8(-(106))
 8829 2aac 4083      		st Z,r20
 8830 2aae 5183      		std Z+1,r21
 8831 2ab0 6283      		std Z+2,r22
 8832 2ab2 7383      		std Z+3,r23
 8833               	/* epilogue start */
 8834               	.LM792:
 8835 2ab4 0895      		ret
 8836               	.LFE151:
 8838               	.global	Timebase_LPDownCounter_Get_PeriodValue
 8840               	Timebase_LPDownCounter_Get_PeriodValue:
 8841               	.LFB152:
 8842               	.LM793:
 8843               	.LVL546:
 8844               	/* prologue: function */
 8845               	/* frame size = 0 */
 8846               	.LM794:
 8847 2ab6 E091 0000 		lds r30,Timebase
 8848 2aba F091 0000 		lds r31,(Timebase)+1
 8849 2abe 90E0      		ldi r25,lo8(0)
 8850               	.LVL547:
 8851 2ac0 2DE0      		ldi r18,lo8(13)
 8852 2ac2 30E0      		ldi r19,hi8(13)
 8853 2ac4 AC01      		movw r20,r24
 8854 2ac6 429F      		mul r20,r18
 8855 2ac8 C001      		movw r24,r0
 8856 2aca 439F      		mul r20,r19
 8857 2acc 900D      		add r25,r0
 8858 2ace 529F      		mul r21,r18
 8859 2ad0 900D      		add r25,r0
 8860 2ad2 1124      		clr r1
 8861               	.LVL548:
 8862 2ad4 E80F      		add r30,r24
 8863 2ad6 F91F      		adc r31,r25
 8864 2ad8 EE58      		subi r30,lo8(-(114))
 8865 2ada FF4F      		sbci r31,hi8(-(114))
 8866 2adc 6081      		ld r22,Z
 8867 2ade 7181      		ldd r23,Z+1
 8868               	.LM795:
 8869 2ae0 8281      		ldd r24,Z+2
 8870 2ae2 9381      		ldd r25,Z+3
 8871               	.LVL549:
 8872               	/* epilogue start */
 8873 2ae4 0895      		ret
 8874               	.LFE152:
 8876               	.global	Timebase_LPDownCounter_Set_PeriodValue
 8878               	Timebase_LPDownCounter_Set_PeriodValue:
 8879               	.LFB153:
 8880               	.LM796:
 8881               	.LVL550:
 8882               	/* prologue: function */
 8883               	/* frame size = 0 */
 8884 2ae6 E091 0000 		lds r30,Timebase
 8885 2aea F091 0000 		lds r31,(Timebase)+1
 8886 2aee 282F      		mov r18,r24
 8887 2af0 30E0      		ldi r19,lo8(0)
 8888               	.LVL551:
 8889               	.LM797:
 8890 2af2 77FF      		sbrs r23,7
 8891 2af4 00C0      		rjmp .L412
 8892               	.LVL552:
 8893               	.LM798:
 8894 2af6 8DE0      		ldi r24,lo8(13)
 8895 2af8 90E0      		ldi r25,hi8(13)
 8896 2afa AC01      		movw r20,r24
 8897               	.LVL553:
 8898 2afc 249F      		mul r18,r20
 8899 2afe C001      		movw r24,r0
 8900 2b00 259F      		mul r18,r21
 8901 2b02 900D      		add r25,r0
 8902 2b04 349F      		mul r19,r20
 8903 2b06 900D      		add r25,r0
 8904 2b08 1124      		clr r1
 8905 2b0a E80F      		add r30,r24
 8906 2b0c F91F      		adc r31,r25
 8907 2b0e EE58      		subi r30,lo8(-(114))
 8908 2b10 FF4F      		sbci r31,hi8(-(114))
 8909 2b12 1082      		st Z,__zero_reg__
 8910 2b14 1182      		std Z+1,__zero_reg__
 8911 2b16 1282      		std Z+2,__zero_reg__
 8912 2b18 1382      		std Z+3,__zero_reg__
 8913 2b1a 0895      		ret
 8914               	.LVL554:
 8915               	.L412:
 8916               	.LM799:
 8917 2b1c 8DE0      		ldi r24,lo8(13)
 8918 2b1e 90E0      		ldi r25,hi8(13)
 8919 2b20 DC01      		movw r26,r24
 8920 2b22 2A9F      		mul r18,r26
 8921 2b24 C001      		movw r24,r0
 8922 2b26 2B9F      		mul r18,r27
 8923 2b28 900D      		add r25,r0
 8924 2b2a 3A9F      		mul r19,r26
 8925 2b2c 900D      		add r25,r0
 8926 2b2e 1124      		clr r1
 8927 2b30 E80F      		add r30,r24
 8928 2b32 F91F      		adc r31,r25
 8929 2b34 EE58      		subi r30,lo8(-(114))
 8930 2b36 FF4F      		sbci r31,hi8(-(114))
 8931 2b38 4083      		st Z,r20
 8932 2b3a 5183      		std Z+1,r21
 8933 2b3c 6283      		std Z+2,r22
 8934 2b3e 7383      		std Z+3,r23
 8935 2b40 0895      		ret
 8936               	.LFE153:
 8938               	.global	Timebase_LPDownCounter_Get_Period_Flag
 8940               	Timebase_LPDownCounter_Get_Period_Flag:
 8941               	.LFB154:
 8942               	.LM800:
 8943               	.LVL555:
 8944               	/* prologue: function */
 8945               	/* frame size = 0 */
 8946               	.LM801:
 8947 2b42 E091 0000 		lds r30,Timebase
 8948 2b46 F091 0000 		lds r31,(Timebase)+1
 8949 2b4a 90E0      		ldi r25,lo8(0)
 8950               	.LVL556:
 8951 2b4c 2DE0      		ldi r18,lo8(13)
 8952 2b4e 30E0      		ldi r19,hi8(13)
 8953 2b50 AC01      		movw r20,r24
 8954 2b52 429F      		mul r20,r18
 8955 2b54 C001      		movw r24,r0
 8956 2b56 439F      		mul r20,r19
 8957 2b58 900D      		add r25,r0
 8958 2b5a 529F      		mul r21,r18
 8959 2b5c 900D      		add r25,r0
 8960 2b5e 1124      		clr r1
 8961               	.LVL557:
 8962 2b60 E80F      		add r30,r24
 8963 2b62 F91F      		adc r31,r25
 8964 2b64 E759      		subi r30,lo8(-(105))
 8965 2b66 FF4F      		sbci r31,hi8(-(105))
 8966 2b68 8081      		ld r24,Z
 8967               	.LM802:
 8968 2b6a 8170      		andi r24,lo8(1)
 8969               	/* epilogue start */
 8970 2b6c 0895      		ret
 8971               	.LFE154:
 8973               	.global	Timebase_LPDownCounter_Set_Period_Flag
 8975               	Timebase_LPDownCounter_Set_Period_Flag:
 8976               	.LFB155:
 8977               	.LM803:
 8978               	.LVL558:
 8979               	/* prologue: function */
 8980               	/* frame size = 0 */
 8981               	.LM804:
 8982 2b6e E091 0000 		lds r30,Timebase
 8983 2b72 F091 0000 		lds r31,(Timebase)+1
 8984 2b76 90E0      		ldi r25,lo8(0)
 8985               	.LVL559:
 8986 2b78 2DE0      		ldi r18,lo8(13)
 8987 2b7a 30E0      		ldi r19,hi8(13)
 8988 2b7c AC01      		movw r20,r24
 8989 2b7e 429F      		mul r20,r18
 8990 2b80 C001      		movw r24,r0
 8991 2b82 439F      		mul r20,r19
 8992 2b84 900D      		add r25,r0
 8993 2b86 529F      		mul r21,r18
 8994 2b88 900D      		add r25,r0
 8995 2b8a 1124      		clr r1
 8996               	.LVL560:
 8997 2b8c E80F      		add r30,r24
 8998 2b8e F91F      		adc r31,r25
 8999 2b90 E759      		subi r30,lo8(-(105))
 9000 2b92 FF4F      		sbci r31,hi8(-(105))
 9001 2b94 8081      		ld r24,Z
 9002 2b96 8160      		ori r24,lo8(1)
 9003 2b98 8083      		st Z,r24
 9004               	/* epilogue start */
 9005               	.LM805:
 9006 2b9a 0895      		ret
 9007               	.LFE155:
 9009               	.global	Timebase_LPDownCounter_Clear_Period_Flag
 9011               	Timebase_LPDownCounter_Clear_Period_Flag:
 9012               	.LFB156:
 9013               	.LM806:
 9014               	.LVL561:
 9015               	/* prologue: function */
 9016               	/* frame size = 0 */
 9017               	.LM807:
 9018 2b9c E091 0000 		lds r30,Timebase
 9019 2ba0 F091 0000 		lds r31,(Timebase)+1
 9020 2ba4 90E0      		ldi r25,lo8(0)
 9021               	.LVL562:
 9022 2ba6 2DE0      		ldi r18,lo8(13)
 9023 2ba8 30E0      		ldi r19,hi8(13)
 9024 2baa AC01      		movw r20,r24
 9025 2bac 429F      		mul r20,r18
 9026 2bae C001      		movw r24,r0
 9027 2bb0 439F      		mul r20,r19
 9028 2bb2 900D      		add r25,r0
 9029 2bb4 529F      		mul r21,r18
 9030 2bb6 900D      		add r25,r0
 9031 2bb8 1124      		clr r1
 9032               	.LVL563:
 9033 2bba E80F      		add r30,r24
 9034 2bbc F91F      		adc r31,r25
 9035 2bbe E759      		subi r30,lo8(-(105))
 9036 2bc0 FF4F      		sbci r31,hi8(-(105))
 9037 2bc2 8081      		ld r24,Z
 9038 2bc4 8E7F      		andi r24,lo8(-2)
 9039 2bc6 8083      		st Z,r24
 9040               	/* epilogue start */
 9041               	.LM808:
 9042 2bc8 0895      		ret
 9043               	.LFE156:
 9045               	.global	Timebase_LPDownCounter_Reset
 9047               	Timebase_LPDownCounter_Reset:
 9048               	.LFB157:
 9049               	.LM809:
 9050               	.LVL564:
 9051               	/* prologue: function */
 9052               	/* frame size = 0 */
 9053               	.LBB1192:
 9054               	.LBB1193:
 9055               	.LM810:
 9056 2bca E091 0000 		lds r30,Timebase
 9057 2bce F091 0000 		lds r31,(Timebase)+1
 9058 2bd2 90E0      		ldi r25,lo8(0)
 9059 2bd4 2DE0      		ldi r18,lo8(13)
 9060 2bd6 30E0      		ldi r19,hi8(13)
 9061 2bd8 AC01      		movw r20,r24
 9062               	.LVL565:
 9063 2bda 429F      		mul r20,r18
 9064 2bdc C001      		movw r24,r0
 9065 2bde 439F      		mul r20,r19
 9066 2be0 900D      		add r25,r0
 9067 2be2 529F      		mul r21,r18
 9068 2be4 900D      		add r25,r0
 9069 2be6 1124      		clr r1
 9070 2be8 E80F      		add r30,r24
 9071 2bea F91F      		adc r31,r25
 9072 2bec E659      		subi r30,lo8(-(106))
 9073 2bee FF4F      		sbci r31,hi8(-(106))
 9074 2bf0 1192      		st Z+,__zero_reg__
 9075 2bf2 1192      		st Z+,__zero_reg__
 9076 2bf4 1192      		st Z+,__zero_reg__
 9077 2bf6 1192      		st Z+,__zero_reg__
 9078               	.LBE1193:
 9079               	.LBE1192:
 9080               	.LBB1194:
 9081               	.LBB1195:
 9082               	.LM811:
 9083 2bf8 1082      		st Z,__zero_reg__
 9084 2bfa 1182      		std Z+1,__zero_reg__
 9085 2bfc 1282      		std Z+2,__zero_reg__
 9086 2bfe 1382      		std Z+3,__zero_reg__
 9087               	.LBE1195:
 9088               	.LBE1194:
 9089               	.LBB1196:
 9090               	.LBB1197:
 9091               	.LM812:
 9092 2c00 3597      		sbiw r30,5
 9093 2c02 8081      		ld r24,Z
 9094               	.LBE1197:
 9095               	.LBE1196:
 9096               	.LBB1198:
 9097               	.LBB1199:
 9098               	.LM813:
 9099 2c04 807E      		andi r24,lo8(-32)
 9100 2c06 8083      		st Z,r24
 9101               	/* epilogue start */
 9102               	.LBE1199:
 9103               	.LBE1198:
 9104               	.LM814:
 9105 2c08 0895      		ret
 9106               	.LFE157:
 9108               	.global	Timebase_LPDownCounter_Clear_All_Flags
 9110               	Timebase_LPDownCounter_Clear_All_Flags:
 9111               	.LFB158:
 9112               	.LM815:
 9113               	.LVL566:
 9114               	/* prologue: function */
 9115               	/* frame size = 0 */
 9116               	.LBB1200:
 9117               	.LBB1201:
 9118               	.LBB1202:
 9119               	.LBB1203:
 9120               	.LM816:
 9121 2c0a E091 0000 		lds r30,Timebase
 9122 2c0e F091 0000 		lds r31,(Timebase)+1
 9123 2c12 90E0      		ldi r25,lo8(0)
 9124 2c14 2DE0      		ldi r18,lo8(13)
 9125 2c16 30E0      		ldi r19,hi8(13)
 9126 2c18 AC01      		movw r20,r24
 9127               	.LVL567:
 9128 2c1a 429F      		mul r20,r18
 9129 2c1c C001      		movw r24,r0
 9130 2c1e 439F      		mul r20,r19
 9131 2c20 900D      		add r25,r0
 9132 2c22 529F      		mul r21,r18
 9133 2c24 900D      		add r25,r0
 9134 2c26 1124      		clr r1
 9135 2c28 E80F      		add r30,r24
 9136 2c2a F91F      		adc r31,r25
 9137 2c2c E659      		subi r30,lo8(-(106))
 9138 2c2e FF4F      		sbci r31,hi8(-(106))
 9139 2c30 1192      		st Z+,__zero_reg__
 9140 2c32 1192      		st Z+,__zero_reg__
 9141 2c34 1192      		st Z+,__zero_reg__
 9142 2c36 1192      		st Z+,__zero_reg__
 9143               	.LBE1203:
 9144               	.LBE1202:
 9145               	.LBB1204:
 9146               	.LBB1205:
 9147               	.LM817:
 9148 2c38 1082      		st Z,__zero_reg__
 9149 2c3a 1182      		std Z+1,__zero_reg__
 9150 2c3c 1282      		std Z+2,__zero_reg__
 9151 2c3e 1382      		std Z+3,__zero_reg__
 9152               	.LBE1205:
 9153               	.LBE1204:
 9154               	.LBB1206:
 9155               	.LBB1207:
 9156               	.LM818:
 9157 2c40 3597      		sbiw r30,5
 9158 2c42 8081      		ld r24,Z
 9159               	.LBE1207:
 9160               	.LBE1206:
 9161               	.LBB1208:
 9162               	.LBB1209:
 9163               	.LM819:
 9164 2c44 807E      		andi r24,lo8(-32)
 9165 2c46 8083      		st Z,r24
 9166               	/* epilogue start */
 9167               	.LBE1209:
 9168               	.LBE1208:
 9169               	.LBE1201:
 9170               	.LBE1200:
 9171               	.LM820:
 9172 2c48 0895      		ret
 9173               	.LFE158:
 9175               	.global	Timebase_LPDownCounter_Start
 9177               	Timebase_LPDownCounter_Start:
 9178               	.LFB159:
 9179               	.LM821:
 9180               	.LVL568:
 9181               	/* prologue: function */
 9182               	/* frame size = 0 */
 9183               	.LBB1210:
 9184               	.LBB1211:
 9185               	.LM822:
 9186 2c4a E091 0000 		lds r30,Timebase
 9187 2c4e F091 0000 		lds r31,(Timebase)+1
 9188 2c52 90E0      		ldi r25,lo8(0)
 9189               	.LBE1211:
 9190               	.LBE1210:
 9191               	.LM823:
 9192 2c54 2DE0      		ldi r18,lo8(13)
 9193 2c56 30E0      		ldi r19,hi8(13)
 9194 2c58 AC01      		movw r20,r24
 9195               	.LVL569:
 9196 2c5a 429F      		mul r20,r18
 9197 2c5c C001      		movw r24,r0
 9198 2c5e 439F      		mul r20,r19
 9199 2c60 900D      		add r25,r0
 9200 2c62 529F      		mul r21,r18
 9201 2c64 900D      		add r25,r0
 9202 2c66 1124      		clr r1
 9203 2c68 E80F      		add r30,r24
 9204 2c6a F91F      		adc r31,r25
 9205 2c6c E759      		subi r30,lo8(-(105))
 9206 2c6e FF4F      		sbci r31,hi8(-(105))
 9207 2c70 9081      		ld r25,Z
 9208 2c72 892F      		mov r24,r25
 9209 2c74 8695      		lsr r24
 9210 2c76 8F70      		andi r24,lo8(15)
 9211 2c78 8130      		cpi r24,lo8(1)
 9212 2c7a 01F0      		breq .L427
 9213               	.LBB1212:
 9214               	.LBB1213:
 9215               	.LM824:
 9216 2c7c 917E      		andi r25,lo8(-31)
 9217 2c7e 9260      		ori r25,lo8(2)
 9218 2c80 9083      		st Z,r25
 9219               	.L427:
 9220 2c82 0895      		ret
 9221               	.LBE1213:
 9222               	.LBE1212:
 9223               	.LFE159:
 9225               	.global	Timebase_LPDownCounter_Stop
 9227               	Timebase_LPDownCounter_Stop:
 9228               	.LFB160:
 9229               	.LM825:
 9230               	.LVL570:
 9231               	/* prologue: function */
 9232               	/* frame size = 0 */
 9233               	.LBB1214:
 9234               	.LBB1215:
 9235               	.LM826:
 9236 2c84 E091 0000 		lds r30,Timebase
 9237 2c88 F091 0000 		lds r31,(Timebase)+1
 9238 2c8c 90E0      		ldi r25,lo8(0)
 9239               	.LBE1215:
 9240               	.LBE1214:
 9241               	.LM827:
 9242 2c8e 2DE0      		ldi r18,lo8(13)
 9243 2c90 30E0      		ldi r19,hi8(13)
 9244 2c92 AC01      		movw r20,r24
 9245               	.LVL571:
 9246 2c94 429F      		mul r20,r18
 9247 2c96 C001      		movw r24,r0
 9248 2c98 439F      		mul r20,r19
 9249 2c9a 900D      		add r25,r0
 9250 2c9c 529F      		mul r21,r18
 9251 2c9e 900D      		add r25,r0
 9252 2ca0 1124      		clr r1
 9253 2ca2 E80F      		add r30,r24
 9254 2ca4 F91F      		adc r31,r25
 9255 2ca6 E759      		subi r30,lo8(-(105))
 9256 2ca8 FF4F      		sbci r31,hi8(-(105))
 9257 2caa 9081      		ld r25,Z
 9258 2cac 892F      		mov r24,r25
 9259 2cae 8695      		lsr r24
 9260 2cb0 8F70      		andi r24,lo8(15)
 9261 2cb2 8230      		cpi r24,lo8(2)
 9262 2cb4 01F0      		breq .L430
 9263               	.LBB1216:
 9264               	.LBB1217:
 9265               	.LM828:
 9266 2cb6 917E      		andi r25,lo8(-31)
 9267 2cb8 9460      		ori r25,lo8(4)
 9268 2cba 9083      		st Z,r25
 9269               	.L430:
 9270 2cbc 0895      		ret
 9271               	.LBE1217:
 9272               	.LBE1216:
 9273               	.LFE160:
 9275               	.global	Timebase_LPDownCounter_Set_Securely
 9277               	Timebase_LPDownCounter_Set_Securely:
 9278               	.LFB161:
 9279               	.LM829:
 9280               	.LVL572:
 9281 2cbe EF92      		push r14
 9282 2cc0 FF92      		push r15
 9283 2cc2 0F93      		push r16
 9284 2cc4 1F93      		push r17
 9285 2cc6 CF93      		push r28
 9286 2cc8 DF93      		push r29
 9287               	/* prologue: function */
 9288               	/* frame size = 0 */
 9289 2cca 7A01      		movw r14,r20
 9290 2ccc 8B01      		movw r16,r22
 9291               	.LBB1218:
 9292               	.LBB1219:
 9293               	.LM830:
 9294 2cce C091 0000 		lds r28,Timebase
 9295 2cd2 D091 0000 		lds r29,(Timebase)+1
 9296 2cd6 682F      		mov r22,r24
 9297 2cd8 70E0      		ldi r23,lo8(0)
 9298               	.LBE1219:
 9299               	.LBE1218:
 9300               	.LM831:
 9301 2cda 8DE0      		ldi r24,lo8(13)
 9302 2cdc 90E0      		ldi r25,hi8(13)
 9303               	.LVL573:
 9304 2cde 689F      		mul r22,r24
 9305 2ce0 F001      		movw r30,r0
 9306 2ce2 699F      		mul r22,r25
 9307 2ce4 F00D      		add r31,r0
 9308 2ce6 789F      		mul r23,r24
 9309 2ce8 F00D      		add r31,r0
 9310 2cea 1124      		clr r1
 9311 2cec EC0F      		add r30,r28
 9312 2cee FD1F      		adc r31,r29
 9313 2cf0 E759      		subi r30,lo8(-(105))
 9314 2cf2 FF4F      		sbci r31,hi8(-(105))
 9315 2cf4 8081      		ld r24,Z
 9316 2cf6 E956      		subi r30,lo8(-(-105))
 9317 2cf8 F040      		sbci r31,hi8(-(-105))
 9318 2cfa 8695      		lsr r24
 9319 2cfc 8F70      		andi r24,lo8(15)
 9320 2cfe 01F4      		brne .L434
 9321               	.LVL574:
 9322               	.LBB1220:
 9323               	.LBB1221:
 9324               	.LM832:
 9325 2d00 E259      		subi r30,lo8(-(110))
 9326 2d02 FF4F      		sbci r31,hi8(-(110))
 9327 2d04 E082      		st Z,r14
 9328 2d06 F182      		std Z+1,r15
 9329 2d08 0283      		std Z+2,r16
 9330 2d0a 1383      		std Z+3,r17
 9331               	.L433:
 9332               	.LBE1221:
 9333               	.LBE1220:
 9334               	.LBB1222:
 9335               	.LBB1223:
 9336               	.LM833:
 9337 2d0c 288D      		ldd r18,Y+24
 9338 2d0e 398D      		ldd r19,Y+25
 9339 2d10 4A8D      		ldd r20,Y+26
 9340 2d12 5B8D      		ldd r21,Y+27
 9341               	.LVL575:
 9342               	.LM834:
 9343 2d14 888D      		ldd r24,Y+24
 9344 2d16 998D      		ldd r25,Y+25
 9345 2d18 AA8D      		ldd r26,Y+26
 9346 2d1a BB8D      		ldd r27,Y+27
 9347               	.LVL576:
 9348               	.LM835:
 9349 2d1c 2817      		cp r18,r24
 9350 2d1e 3907      		cpc r19,r25
 9351 2d20 4A07      		cpc r20,r26
 9352 2d22 5B07      		cpc r21,r27
 9353 2d24 01F4      		brne .L433
 9354               	.LBE1223:
 9355               	.LBE1222:
 9356               	.LBB1224:
 9357               	.LBB1225:
 9358               	.LM836:
 9359 2d26 8DE0      		ldi r24,lo8(13)
 9360 2d28 90E0      		ldi r25,hi8(13)
 9361               	.LVL577:
 9362 2d2a 689F      		mul r22,r24
 9363 2d2c F001      		movw r30,r0
 9364 2d2e 699F      		mul r22,r25
 9365 2d30 F00D      		add r31,r0
 9366 2d32 789F      		mul r23,r24
 9367 2d34 F00D      		add r31,r0
 9368 2d36 1124      		clr r1
 9369 2d38 EC0F      		add r30,r28
 9370 2d3a FD1F      		adc r31,r29
 9371 2d3c E659      		subi r30,lo8(-(106))
 9372 2d3e FF4F      		sbci r31,hi8(-(106))
 9373 2d40 2E0D      		add r18,r14
 9374 2d42 3F1D      		adc r19,r15
 9375 2d44 401F      		adc r20,r16
 9376 2d46 511F      		adc r21,r17
 9377 2d48 2083      		st Z,r18
 9378 2d4a 3183      		std Z+1,r19
 9379 2d4c 4283      		std Z+2,r20
 9380 2d4e 5383      		std Z+3,r21
 9381               	.LBE1225:
 9382               	.LBE1224:
 9383               	.LBB1226:
 9384               	.LBB1227:
 9385               	.LM837:
 9386 2d50 9291      		ld r25,-Z
 9387 2d52 892F      		mov r24,r25
 9388 2d54 8695      		lsr r24
 9389 2d56 8F70      		andi r24,lo8(15)
 9390 2d58 8130      		cpi r24,lo8(1)
 9391 2d5a 01F0      		breq .L434
 9392               	.LBB1228:
 9393               	.LBB1229:
 9394               	.LM838:
 9395 2d5c 917E      		andi r25,lo8(-31)
 9396 2d5e 9260      		ori r25,lo8(2)
 9397 2d60 9083      		st Z,r25
 9398               	.L434:
 9399               	/* epilogue start */
 9400               	.LBE1229:
 9401               	.LBE1228:
 9402               	.LBE1227:
 9403               	.LBE1226:
 9404               	.LM839:
 9405 2d62 DF91      		pop r29
 9406 2d64 CF91      		pop r28
 9407 2d66 1F91      		pop r17
 9408 2d68 0F91      		pop r16
 9409 2d6a FF90      		pop r15
 9410 2d6c EF90      		pop r14
 9411               	.LVL578:
 9412 2d6e 0895      		ret
 9413               	.LFE161:
 9415               	.global	Timebase_LPDownCounter_Set_Forcefully
 9417               	Timebase_LPDownCounter_Set_Forcefully:
 9418               	.LFB162:
 9419               	.LM840:
 9420               	.LVL579:
 9421 2d70 CF93      		push r28
 9422 2d72 DF93      		push r29
 9423               	/* prologue: function */
 9424               	/* frame size = 0 */
 9425               	.LBB1230:
 9426               	.LBB1231:
 9427               	.LBB1232:
 9428               	.LBB1233:
 9429               	.LM841:
 9430 2d74 E091 0000 		lds r30,Timebase
 9431 2d78 F091 0000 		lds r31,(Timebase)+1
 9432 2d7c A82F      		mov r26,r24
 9433 2d7e B0E0      		ldi r27,lo8(0)
 9434 2d80 2DE0      		ldi r18,lo8(13)
 9435 2d82 30E0      		ldi r19,hi8(13)
 9436 2d84 E901      		movw r28,r18
 9437 2d86 AC9F      		mul r26,r28
 9438 2d88 9001      		movw r18,r0
 9439 2d8a AD9F      		mul r26,r29
 9440 2d8c 300D      		add r19,r0
 9441 2d8e BC9F      		mul r27,r28
 9442 2d90 300D      		add r19,r0
 9443 2d92 1124      		clr r1
 9444 2d94 E20F      		add r30,r18
 9445 2d96 F31F      		adc r31,r19
 9446 2d98 E659      		subi r30,lo8(-(106))
 9447 2d9a FF4F      		sbci r31,hi8(-(106))
 9448 2d9c 1192      		st Z+,__zero_reg__
 9449 2d9e 1192      		st Z+,__zero_reg__
 9450 2da0 1192      		st Z+,__zero_reg__
 9451 2da2 1192      		st Z+,__zero_reg__
 9452               	.LBE1233:
 9453               	.LBE1232:
 9454               	.LBB1234:
 9455               	.LBB1235:
 9456               	.LM842:
 9457 2da4 1082      		st Z,__zero_reg__
 9458 2da6 1182      		std Z+1,__zero_reg__
 9459 2da8 1282      		std Z+2,__zero_reg__
 9460 2daa 1382      		std Z+3,__zero_reg__
 9461               	.LBE1235:
 9462               	.LBE1234:
 9463               	.LBB1236:
 9464               	.LBB1237:
 9465               	.LM843:
 9466 2dac 3597      		sbiw r30,5
 9467 2dae 9081      		ld r25,Z
 9468               	.LBE1237:
 9469               	.LBE1236:
 9470               	.LBB1238:
 9471               	.LBB1239:
 9472               	.LM844:
 9473 2db0 907E      		andi r25,lo8(-32)
 9474 2db2 9083      		st Z,r25
 9475               	.LBE1239:
 9476               	.LBE1238:
 9477               	.LBE1231:
 9478               	.LBE1230:
 9479               	.LM845:
 9480 2db4 0E94 0000 		call Timebase_LPDownCounter_Set_Securely
 9481               	.LVL580:
 9482               	/* epilogue start */
 9483               	.LM846:
 9484 2db8 DF91      		pop r29
 9485 2dba CF91      		pop r28
 9486 2dbc 0895      		ret
 9487               	.LFE162:
 9489               	.global	Timebase_LPDownCounter_Update
 9491               	Timebase_LPDownCounter_Update:
 9492               	.LFB163:
 9493               	.LM847:
 9494               	.LVL581:
 9495 2dbe EF92      		push r14
 9496 2dc0 FF92      		push r15
 9497 2dc2 0F93      		push r16
 9498 2dc4 1F93      		push r17
 9499 2dc6 CF93      		push r28
 9500 2dc8 DF93      		push r29
 9501               	/* prologue: function */
 9502               	/* frame size = 0 */
 9503               	.LBB1240:
 9504               	.LBB1241:
 9505               	.LM848:
 9506 2dca C091 0000 		lds r28,Timebase
 9507 2dce D091 0000 		lds r29,(Timebase)+1
 9508 2dd2 682F      		mov r22,r24
 9509 2dd4 70E0      		ldi r23,lo8(0)
 9510 2dd6 8DE0      		ldi r24,lo8(13)
 9511 2dd8 90E0      		ldi r25,hi8(13)
 9512               	.LVL582:
 9513 2dda 689F      		mul r22,r24
 9514 2ddc F001      		movw r30,r0
 9515 2dde 699F      		mul r22,r25
 9516 2de0 F00D      		add r31,r0
 9517 2de2 789F      		mul r23,r24
 9518 2de4 F00D      		add r31,r0
 9519 2de6 1124      		clr r1
 9520 2de8 EC0F      		add r30,r28
 9521 2dea FD1F      		adc r31,r29
 9522 2dec E759      		subi r30,lo8(-(105))
 9523 2dee FF4F      		sbci r31,hi8(-(105))
 9524 2df0 8081      		ld r24,Z
 9525 2df2 E956      		subi r30,lo8(-(-105))
 9526 2df4 F040      		sbci r31,hi8(-(-105))
 9527 2df6 8695      		lsr r24
 9528 2df8 8F70      		andi r24,lo8(15)
 9529               	.LBE1241:
 9530               	.LBE1240:
 9531               	.LM849:
 9532 2dfa 8130      		cpi r24,lo8(1)
 9533 2dfc 01F0      		breq .+2
 9534 2dfe 00C0      		rjmp .L439
 9535               	.LBB1242:
 9536               	.LBB1243:
 9537               	.LM850:
 9538 2e00 E659      		subi r30,lo8(-(106))
 9539 2e02 FF4F      		sbci r31,hi8(-(106))
 9540 2e04 E080      		ld r14,Z
 9541 2e06 F180      		ldd r15,Z+1
 9542 2e08 0281      		ldd r16,Z+2
 9543 2e0a 1381      		ldd r17,Z+3
 9544               	.L440:
 9545               	.LBE1243:
 9546               	.LBE1242:
 9547               	.LBB1244:
 9548               	.LBB1245:
 9549               	.LM851:
 9550 2e0c 288D      		ldd r18,Y+24
 9551 2e0e 398D      		ldd r19,Y+25
 9552 2e10 4A8D      		ldd r20,Y+26
 9553 2e12 5B8D      		ldd r21,Y+27
 9554               	.LVL583:
 9555               	.LM852:
 9556 2e14 888D      		ldd r24,Y+24
 9557 2e16 998D      		ldd r25,Y+25
 9558 2e18 AA8D      		ldd r26,Y+26
 9559 2e1a BB8D      		ldd r27,Y+27
 9560               	.LVL584:
 9561               	.LM853:
 9562 2e1c 2817      		cp r18,r24
 9563 2e1e 3907      		cpc r19,r25
 9564 2e20 4A07      		cpc r20,r26
 9565 2e22 5B07      		cpc r21,r27
 9566 2e24 01F4      		brne .L440
 9567               	.LBE1245:
 9568               	.LBE1244:
 9569               	.LM854:
 9570 2e26 D801      		movw r26,r16
 9571 2e28 C701      		movw r24,r14
 9572               	.LVL585:
 9573 2e2a 821B      		sub r24,r18
 9574 2e2c 930B      		sbc r25,r19
 9575 2e2e A40B      		sbc r26,r20
 9576 2e30 B50B      		sbc r27,r21
 9577 2e32 9C01      		movw r18,r24
 9578 2e34 AD01      		movw r20,r26
 9579               	.LVL586:
 9580               	.LBB1246:
 9581               	.LBB1247:
 9582               	.LM855:
 9583 2e36 8DE0      		ldi r24,lo8(13)
 9584 2e38 90E0      		ldi r25,hi8(13)
 9585 2e3a 689F      		mul r22,r24
 9586 2e3c F001      		movw r30,r0
 9587 2e3e 699F      		mul r22,r25
 9588 2e40 F00D      		add r31,r0
 9589 2e42 789F      		mul r23,r24
 9590 2e44 F00D      		add r31,r0
 9591 2e46 1124      		clr r1
 9592 2e48 EC0F      		add r30,r28
 9593 2e4a FD1F      		adc r31,r29
 9594 2e4c DF01      		movw r26,r30
 9595 2e4e A259      		subi r26,lo8(-(110))
 9596 2e50 BF4F      		sbci r27,hi8(-(110))
 9597 2e52 2D93      		st X+,r18
 9598 2e54 3D93      		st X+,r19
 9599 2e56 4D93      		st X+,r20
 9600 2e58 5C93      		st X,r21
 9601 2e5a 1397      		sbiw r26,3
 9602               	.LBE1247:
 9603               	.LBE1246:
 9604               	.LM856:
 9605 2e5c 1216      		cp __zero_reg__,r18
 9606 2e5e 1306      		cpc __zero_reg__,r19
 9607 2e60 1406      		cpc __zero_reg__,r20
 9608 2e62 1506      		cpc __zero_reg__,r21
 9609 2e64 04F0      		brlt .L443
 9610               	.LBB1248:
 9611               	.LBB1249:
 9612               	.LBB1250:
 9613               	.LBB1251:
 9614               	.LM857:
 9615 2e66 E659      		subi r30,lo8(-(106))
 9616 2e68 FF4F      		sbci r31,hi8(-(106))
 9617 2e6a 1082      		st Z,__zero_reg__
 9618 2e6c 1182      		std Z+1,__zero_reg__
 9619 2e6e 1282      		std Z+2,__zero_reg__
 9620 2e70 1382      		std Z+3,__zero_reg__
 9621               	.LBE1251:
 9622               	.LBE1250:
 9623               	.LBB1252:
 9624               	.LBB1253:
 9625               	.LM858:
 9626 2e72 1D92      		st X+,__zero_reg__
 9627 2e74 1D92      		st X+,__zero_reg__
 9628 2e76 1D92      		st X+,__zero_reg__
 9629 2e78 1C92      		st X,__zero_reg__
 9630 2e7a 1397      		sbiw r26,3
 9631               	.LBE1253:
 9632               	.LBE1252:
 9633               	.LBB1254:
 9634               	.LBB1255:
 9635               	.LM859:
 9636 2e7c 8291      		ld r24,-Z
 9637               	.LBE1255:
 9638               	.LBE1254:
 9639               	.LBE1249:
 9640               	.LBE1248:
 9641               	.LBB1256:
 9642               	.LBB1257:
 9643               	.LM860:
 9644 2e7e 807E      		andi r24,lo8(-32)
 9645 2e80 8860      		ori r24,lo8(8)
 9646 2e82 8083      		st Z,r24
 9647 2e84 00C0      		rjmp .L443
 9648               	.L439:
 9649               	.LBE1257:
 9650               	.LBE1256:
 9651               	.LM861:
 9652 2e86 8230      		cpi r24,lo8(2)
 9653 2e88 01F4      		brne .L443
 9654               	.LBB1258:
 9655               	.LBB1259:
 9656               	.LM862:
 9657 2e8a E259      		subi r30,lo8(-(110))
 9658 2e8c FF4F      		sbci r31,hi8(-(110))
 9659 2e8e E080      		ld r14,Z
 9660 2e90 F180      		ldd r15,Z+1
 9661 2e92 0281      		ldd r16,Z+2
 9662 2e94 1381      		ldd r17,Z+3
 9663               	.L442:
 9664               	.LBE1259:
 9665               	.LBE1258:
 9666               	.LBB1260:
 9667               	.LBB1261:
 9668               	.LM863:
 9669 2e96 288D      		ldd r18,Y+24
 9670 2e98 398D      		ldd r19,Y+25
 9671 2e9a 4A8D      		ldd r20,Y+26
 9672 2e9c 5B8D      		ldd r21,Y+27
 9673               	.LVL587:
 9674               	.LM864:
 9675 2e9e 888D      		ldd r24,Y+24
 9676 2ea0 998D      		ldd r25,Y+25
 9677 2ea2 AA8D      		ldd r26,Y+26
 9678 2ea4 BB8D      		ldd r27,Y+27
 9679               	.LVL588:
 9680               	.LM865:
 9681 2ea6 2817      		cp r18,r24
 9682 2ea8 3907      		cpc r19,r25
 9683 2eaa 4A07      		cpc r20,r26
 9684 2eac 5B07      		cpc r21,r27
 9685 2eae 01F4      		brne .L442
 9686               	.LBE1261:
 9687               	.LBE1260:
 9688               	.LBB1262:
 9689               	.LBB1263:
 9690               	.LM866:
 9691 2eb0 8DE0      		ldi r24,lo8(13)
 9692 2eb2 90E0      		ldi r25,hi8(13)
 9693               	.LVL589:
 9694 2eb4 DC01      		movw r26,r24
 9695 2eb6 6A9F      		mul r22,r26
 9696 2eb8 C001      		movw r24,r0
 9697 2eba 6B9F      		mul r22,r27
 9698 2ebc 900D      		add r25,r0
 9699 2ebe 7A9F      		mul r23,r26
 9700 2ec0 900D      		add r25,r0
 9701 2ec2 1124      		clr r1
 9702 2ec4 C80F      		add r28,r24
 9703 2ec6 D91F      		adc r29,r25
 9704 2ec8 C659      		subi r28,lo8(-(106))
 9705 2eca DF4F      		sbci r29,hi8(-(106))
 9706 2ecc 2E0D      		add r18,r14
 9707 2ece 3F1D      		adc r19,r15
 9708 2ed0 401F      		adc r20,r16
 9709 2ed2 511F      		adc r21,r17
 9710 2ed4 2883      		st Y,r18
 9711 2ed6 3983      		std Y+1,r19
 9712 2ed8 4A83      		std Y+2,r20
 9713 2eda 5B83      		std Y+3,r21
 9714               	.L443:
 9715               	/* epilogue start */
 9716               	.LBE1263:
 9717               	.LBE1262:
 9718               	.LM867:
 9719 2edc DF91      		pop r29
 9720 2ede CF91      		pop r28
 9721 2ee0 1F91      		pop r17
 9722 2ee2 0F91      		pop r16
 9723 2ee4 FF90      		pop r15
 9724 2ee6 EF90      		pop r14
 9725 2ee8 0895      		ret
 9726               	.LFE163:
 9728               	.global	Timebase_LPDownCounter_Expired
 9730               	Timebase_LPDownCounter_Expired:
 9731               	.LFB164:
 9732               	.LM868:
 9733               	.LVL590:
 9734               	/* prologue: function */
 9735               	/* frame size = 0 */
 9736               	.LM869:
 9737 2eea 40E0      		ldi r20,lo8(0)
 9738 2eec E091 0000 		lds r30,Timebase
 9739 2ef0 F091 0000 		lds r31,(Timebase)+1
 9740 2ef4 90E0      		ldi r25,lo8(0)
 9741               	.LVL591:
 9742 2ef6 2DE0      		ldi r18,lo8(13)
 9743 2ef8 30E0      		ldi r19,hi8(13)
 9744 2efa BC01      		movw r22,r24
 9745 2efc 629F      		mul r22,r18
 9746 2efe C001      		movw r24,r0
 9747 2f00 639F      		mul r22,r19
 9748 2f02 900D      		add r25,r0
 9749 2f04 729F      		mul r23,r18
 9750 2f06 900D      		add r25,r0
 9751 2f08 1124      		clr r1
 9752               	.LVL592:
 9753 2f0a E80F      		add r30,r24
 9754 2f0c F91F      		adc r31,r25
 9755 2f0e E759      		subi r30,lo8(-(105))
 9756 2f10 FF4F      		sbci r31,hi8(-(105))
 9757 2f12 8081      		ld r24,Z
 9758 2f14 8695      		lsr r24
 9759 2f16 8F70      		andi r24,lo8(15)
 9760 2f18 8430      		cpi r24,lo8(4)
 9761 2f1a 01F4      		brne .L447
 9762 2f1c 41E0      		ldi r20,lo8(1)
 9763               	.L447:
 9764               	.LM870:
 9765 2f1e 842F      		mov r24,r20
 9766               	/* epilogue start */
 9767 2f20 0895      		ret
 9768               	.LFE164:
 9770               	.global	Timebase_LPDownCounter_Expired_Event
 9772               	Timebase_LPDownCounter_Expired_Event:
 9773               	.LFB165:
 9774               	.LM871:
 9775               	.LVL593:
 9776               	/* prologue: function */
 9777               	/* frame size = 0 */
 9778               	.LBB1264:
 9779               	.LBB1265:
 9780               	.LM872:
 9781 2f22 E091 0000 		lds r30,Timebase
 9782 2f26 F091 0000 		lds r31,(Timebase)+1
 9783 2f2a 90E0      		ldi r25,lo8(0)
 9784               	.LBE1265:
 9785               	.LBE1264:
 9786               	.LM873:
 9787 2f2c 2DE0      		ldi r18,lo8(13)
 9788 2f2e 30E0      		ldi r19,hi8(13)
 9789 2f30 AC01      		movw r20,r24
 9790               	.LVL594:
 9791 2f32 429F      		mul r20,r18
 9792 2f34 C001      		movw r24,r0
 9793 2f36 439F      		mul r20,r19
 9794 2f38 900D      		add r25,r0
 9795 2f3a 529F      		mul r21,r18
 9796 2f3c 900D      		add r25,r0
 9797 2f3e 1124      		clr r1
 9798 2f40 E80F      		add r30,r24
 9799 2f42 F91F      		adc r31,r25
 9800 2f44 DF01      		movw r26,r30
 9801 2f46 A759      		subi r26,lo8(-(105))
 9802 2f48 BF4F      		sbci r27,hi8(-(105))
 9803 2f4a 8C91      		ld r24,X
 9804 2f4c 8695      		lsr r24
 9805 2f4e 8F70      		andi r24,lo8(15)
 9806 2f50 8430      		cpi r24,lo8(4)
 9807 2f52 01F0      		breq .L450
 9808 2f54 80E0      		ldi r24,lo8(0)
 9809 2f56 0895      		ret
 9810               	.L450:
 9811               	.LBB1266:
 9812               	.LBB1267:
 9813               	.LBB1268:
 9814               	.LBB1269:
 9815               	.LBB1270:
 9816               	.LBB1271:
 9817               	.LM874:
 9818 2f58 E659      		subi r30,lo8(-(106))
 9819 2f5a FF4F      		sbci r31,hi8(-(106))
 9820 2f5c 1192      		st Z+,__zero_reg__
 9821 2f5e 1192      		st Z+,__zero_reg__
 9822 2f60 1192      		st Z+,__zero_reg__
 9823 2f62 1192      		st Z+,__zero_reg__
 9824               	.LBE1271:
 9825               	.LBE1270:
 9826               	.LBB1272:
 9827               	.LBB1273:
 9828               	.LM875:
 9829 2f64 1082      		st Z,__zero_reg__
 9830 2f66 1182      		std Z+1,__zero_reg__
 9831 2f68 1282      		std Z+2,__zero_reg__
 9832 2f6a 1382      		std Z+3,__zero_reg__
 9833               	.LBE1273:
 9834               	.LBE1272:
 9835               	.LBB1274:
 9836               	.LBB1275:
 9837               	.LM876:
 9838 2f6c 8C91      		ld r24,X
 9839               	.LBE1275:
 9840               	.LBE1274:
 9841               	.LBB1276:
 9842               	.LBB1277:
 9843               	.LM877:
 9844 2f6e 807E      		andi r24,lo8(-32)
 9845 2f70 8C93      		st X,r24
 9846 2f72 81E0      		ldi r24,lo8(1)
 9847               	.LBE1277:
 9848               	.LBE1276:
 9849               	.LBE1269:
 9850               	.LBE1268:
 9851               	.LBE1267:
 9852               	.LBE1266:
 9853               	.LM878:
 9854 2f74 0895      		ret
 9855               	.LFE165:
 9857               	.global	Timebase_LPDownCounter_Set_Period_Value_Securely
 9859               	Timebase_LPDownCounter_Set_Period_Value_Securely:
 9860               	.LFB166:
 9861               	.LM879:
 9862               	.LVL595:
 9863 2f76 CF93      		push r28
 9864 2f78 DF93      		push r29
 9865               	/* prologue: function */
 9866               	/* frame size = 0 */
 9867               	.LBB1278:
 9868               	.LBB1279:
 9869               	.LM880:
 9870 2f7a C091 0000 		lds r28,Timebase
 9871 2f7e D091 0000 		lds r29,(Timebase)+1
 9872 2f82 282F      		mov r18,r24
 9873 2f84 30E0      		ldi r19,lo8(0)
 9874               	.LBE1279:
 9875               	.LBE1278:
 9876               	.LM881:
 9877 2f86 8DE0      		ldi r24,lo8(13)
 9878 2f88 90E0      		ldi r25,hi8(13)
 9879               	.LVL596:
 9880 2f8a 289F      		mul r18,r24
 9881 2f8c F001      		movw r30,r0
 9882 2f8e 299F      		mul r18,r25
 9883 2f90 F00D      		add r31,r0
 9884 2f92 389F      		mul r19,r24
 9885 2f94 F00D      		add r31,r0
 9886 2f96 1124      		clr r1
 9887 2f98 EC0F      		add r30,r28
 9888 2f9a FD1F      		adc r31,r29
 9889 2f9c E759      		subi r30,lo8(-(105))
 9890 2f9e FF4F      		sbci r31,hi8(-(105))
 9891 2fa0 8081      		ld r24,Z
 9892 2fa2 E956      		subi r30,lo8(-(-105))
 9893 2fa4 F040      		sbci r31,hi8(-(-105))
 9894 2fa6 80FD      		sbrc r24,0
 9895 2fa8 00C0      		rjmp .L457
 9896               	.LM882:
 9897 2faa E259      		subi r30,lo8(-(110))
 9898 2fac FF4F      		sbci r31,hi8(-(110))
 9899 2fae 8191      		ld r24,Z+
 9900 2fb0 9191      		ld r25,Z+
 9901 2fb2 A191      		ld r26,Z+
 9902 2fb4 B191      		ld r27,Z+
 9903 2fb6 841B      		sub r24,r20
 9904 2fb8 950B      		sbc r25,r21
 9905 2fba A60B      		sbc r26,r22
 9906 2fbc B70B      		sbc r27,r23
 9907               	.LBB1280:
 9908               	.LBB1281:
 9909               	.LM883:
 9910 2fbe B7FF      		sbrs r27,7
 9911 2fc0 00C0      		rjmp .L455
 9912               	.LM884:
 9913 2fc2 1082      		st Z,__zero_reg__
 9914 2fc4 1182      		std Z+1,__zero_reg__
 9915 2fc6 1282      		std Z+2,__zero_reg__
 9916 2fc8 1382      		std Z+3,__zero_reg__
 9917 2fca 00C0      		rjmp .L456
 9918               	.L455:
 9919               	.LM885:
 9920 2fcc 8083      		st Z,r24
 9921 2fce 9183      		std Z+1,r25
 9922 2fd0 A283      		std Z+2,r26
 9923 2fd2 B383      		std Z+3,r27
 9924               	.L456:
 9925               	.LBE1281:
 9926               	.LBE1280:
 9927               	.LBB1282:
 9928               	.LBB1283:
 9929               	.LM886:
 9930 2fd4 8DE0      		ldi r24,lo8(13)
 9931 2fd6 90E0      		ldi r25,hi8(13)
 9932 2fd8 289F      		mul r18,r24
 9933 2fda F001      		movw r30,r0
 9934 2fdc 299F      		mul r18,r25
 9935 2fde F00D      		add r31,r0
 9936 2fe0 389F      		mul r19,r24
 9937 2fe2 F00D      		add r31,r0
 9938 2fe4 1124      		clr r1
 9939 2fe6 EC0F      		add r30,r28
 9940 2fe8 FD1F      		adc r31,r29
 9941 2fea E759      		subi r30,lo8(-(105))
 9942 2fec FF4F      		sbci r31,hi8(-(105))
 9943 2fee 8081      		ld r24,Z
 9944 2ff0 8160      		ori r24,lo8(1)
 9945 2ff2 8083      		st Z,r24
 9946               	.L457:
 9947               	/* epilogue start */
 9948               	.LBE1283:
 9949               	.LBE1282:
 9950               	.LM887:
 9951 2ff4 DF91      		pop r29
 9952 2ff6 CF91      		pop r28
 9953 2ff8 0895      		ret
 9954               	.LFE166:
 9956               	.global	Timebase_LPDownCounter_Get_Remaining_Period_Value
 9958               	Timebase_LPDownCounter_Get_Remaining_Period_Value:
 9959               	.LFB167:
 9960               	.LM888:
 9961               	.LVL597:
 9962               	/* prologue: function */
 9963               	/* frame size = 0 */
 9964               	.LBB1284:
 9965               	.LBB1285:
 9966               	.LM889:
 9967 2ffa E091 0000 		lds r30,Timebase
 9968 2ffe F091 0000 		lds r31,(Timebase)+1
 9969 3002 90E0      		ldi r25,lo8(0)
 9970               	.LBE1285:
 9971               	.LBE1284:
 9972               	.LM890:
 9973 3004 2DE0      		ldi r18,lo8(13)
 9974 3006 30E0      		ldi r19,hi8(13)
 9975 3008 AC01      		movw r20,r24
 9976               	.LVL598:
 9977 300a 429F      		mul r20,r18
 9978 300c C001      		movw r24,r0
 9979 300e 439F      		mul r20,r19
 9980 3010 900D      		add r25,r0
 9981 3012 529F      		mul r21,r18
 9982 3014 900D      		add r25,r0
 9983 3016 1124      		clr r1
 9984 3018 E80F      		add r30,r24
 9985 301a F91F      		adc r31,r25
 9986 301c DF01      		movw r26,r30
 9987 301e AE58      		subi r26,lo8(-(114))
 9988 3020 BF4F      		sbci r27,hi8(-(114))
 9989 3022 E259      		subi r30,lo8(-(110))
 9990 3024 FF4F      		sbci r31,hi8(-(110))
 9991 3026 2081      		ld r18,Z
 9992 3028 3181      		ldd r19,Z+1
 9993 302a 4281      		ldd r20,Z+2
 9994 302c 5381      		ldd r21,Z+3
 9995               	.LVL599:
 9996 302e 8D91      		ld r24,X+
 9997 3030 9D91      		ld r25,X+
 9998 3032 0D90      		ld __tmp_reg__,X+
 9999 3034 BC91      		ld r27,X
 10000 3036 A02D      		mov r26,__tmp_reg__
 10001 3038 281B      		sub r18,r24
 10002 303a 390B      		sbc r19,r25
 10003 303c 4A0B      		sbc r20,r26
 10004 303e 5B0B      		sbc r21,r27
 10005 3040 57FF      		sbrs r21,7
 10006 3042 00C0      		rjmp .L459
 10007 3044 20E0      		ldi r18,lo8(0)
 10008 3046 30E0      		ldi r19,hi8(0)
 10009 3048 40E0      		ldi r20,hlo8(0)
 10010 304a 50E0      		ldi r21,hhi8(0)
 10011               	.L459:
 10012               	.LM891:
 10013 304c B901      		movw r22,r18
 10014               	.LVL600:
 10015 304e CA01      		movw r24,r20
 10016               	/* epilogue start */
 10017 3050 0895      		ret
 10018               	.LFE167:
 10020               	.global	Timebase_LPDownCounter_Period_Value_Expired
 10022               	Timebase_LPDownCounter_Period_Value_Expired:
 10023               	.LFB168:
 10024               	.LM892:
 10025               	.LVL601:
 10026 3052 CF93      		push r28
 10027 3054 DF93      		push r29
 10028               	/* prologue: function */
 10029               	/* frame size = 0 */
 10030               	.LBB1286:
 10031               	.LBB1287:
 10032               	.LBB1288:
 10033               	.LBB1289:
 10034               	.LM893:
 10035 3056 C091 0000 		lds r28,Timebase
 10036 305a D091 0000 		lds r29,(Timebase)+1
 10037 305e 682F      		mov r22,r24
 10038 3060 70E0      		ldi r23,lo8(0)
 10039               	.LBE1289:
 10040               	.LBE1288:
 10041               	.LM894:
 10042 3062 8DE0      		ldi r24,lo8(13)
 10043 3064 90E0      		ldi r25,hi8(13)
 10044               	.LVL602:
 10045 3066 689F      		mul r22,r24
 10046 3068 F001      		movw r30,r0
 10047 306a 699F      		mul r22,r25
 10048 306c F00D      		add r31,r0
 10049 306e 789F      		mul r23,r24
 10050 3070 F00D      		add r31,r0
 10051 3072 1124      		clr r1
 10052 3074 EC0F      		add r30,r28
 10053 3076 FD1F      		adc r31,r29
 10054 3078 DF01      		movw r26,r30
 10055 307a AE58      		subi r26,lo8(-(114))
 10056 307c BF4F      		sbci r27,hi8(-(114))
 10057 307e E259      		subi r30,lo8(-(110))
 10058 3080 FF4F      		sbci r31,hi8(-(110))
 10059 3082 2081      		ld r18,Z
 10060 3084 3181      		ldd r19,Z+1
 10061 3086 4281      		ldd r20,Z+2
 10062 3088 5381      		ldd r21,Z+3
 10063               	.LVL603:
 10064 308a 8D91      		ld r24,X+
 10065 308c 9D91      		ld r25,X+
 10066 308e 0D90      		ld __tmp_reg__,X+
 10067 3090 BC91      		ld r27,X
 10068 3092 A02D      		mov r26,__tmp_reg__
 10069 3094 281B      		sub r18,r24
 10070 3096 390B      		sbc r19,r25
 10071 3098 4A0B      		sbc r20,r26
 10072 309a 5B0B      		sbc r21,r27
 10073               	.LM895:
 10074 309c 57FD      		sbrc r21,7
 10075 309e 00C0      		rjmp .L462
 10076               	.LBE1287:
 10077               	.LBE1286:
 10078               	.LM896:
 10079 30a0 2115      		cp r18,__zero_reg__
 10080 30a2 3105      		cpc r19,__zero_reg__
 10081 30a4 4105      		cpc r20,__zero_reg__
 10082 30a6 5105      		cpc r21,__zero_reg__
 10083 30a8 01F0      		breq .L462
 10084 30aa 20E0      		ldi r18,lo8(0)
 10085               	.LVL604:
 10086 30ac 00C0      		rjmp .L463
 10087               	.LVL605:
 10088               	.L462:
 10089 30ae 20E0      		ldi r18,lo8(0)
 10090               	.LVL606:
 10091 30b0 8DE0      		ldi r24,lo8(13)
 10092 30b2 90E0      		ldi r25,hi8(13)
 10093 30b4 AC01      		movw r20,r24
 10094 30b6 649F      		mul r22,r20
 10095 30b8 C001      		movw r24,r0
 10096 30ba 659F      		mul r22,r21
 10097 30bc 900D      		add r25,r0
 10098 30be 749F      		mul r23,r20
 10099 30c0 900D      		add r25,r0
 10100 30c2 1124      		clr r1
 10101 30c4 C80F      		add r28,r24
 10102 30c6 D91F      		adc r29,r25
 10103 30c8 C759      		subi r28,lo8(-(105))
 10104 30ca DF4F      		sbci r29,hi8(-(105))
 10105 30cc 8881      		ld r24,Y
 10106 30ce 80FF      		sbrs r24,0
 10107 30d0 21E0      		ldi r18,lo8(1)
 10108               	.L464:
 10109 30d2 81E0      		ldi r24,lo8(1)
 10110 30d4 2827      		eor r18,r24
 10111               	.L463:
 10112               	.LM897:
 10113 30d6 822F      		mov r24,r18
 10114               	/* epilogue start */
 10115 30d8 DF91      		pop r29
 10116 30da CF91      		pop r28
 10117 30dc 0895      		ret
 10118               	.LFE168:
 10120               	.global	Timebase_LPDownCounter_Period_Value_Expired_Event
 10122               	Timebase_LPDownCounter_Period_Value_Expired_Event:
 10123               	.LFB169:
 10124               	.LM898:
 10125               	.LVL607:
 10126 30de 1F93      		push r17
 10127               	/* prologue: function */
 10128               	/* frame size = 0 */
 10129 30e0 182F      		mov r17,r24
 10130               	.LM899:
 10131 30e2 0E94 0000 		call Timebase_LPDownCounter_Period_Value_Expired
 10132               	.LVL608:
 10133 30e6 8130      		cpi r24,lo8(1)
 10134 30e8 01F0      		breq .L467
 10135 30ea 80E0      		ldi r24,lo8(0)
 10136 30ec 00C0      		rjmp .L468
 10137               	.L467:
 10138               	.LBB1290:
 10139               	.LBB1291:
 10140               	.LM900:
 10141 30ee E091 0000 		lds r30,Timebase
 10142 30f2 F091 0000 		lds r31,(Timebase)+1
 10143 30f6 212F      		mov r18,r17
 10144 30f8 30E0      		ldi r19,lo8(0)
 10145               	.LVL609:
 10146 30fa 8DE0      		ldi r24,lo8(13)
 10147 30fc 90E0      		ldi r25,hi8(13)
 10148 30fe AC01      		movw r20,r24
 10149 3100 249F      		mul r18,r20
 10150 3102 C001      		movw r24,r0
 10151 3104 259F      		mul r18,r21
 10152 3106 900D      		add r25,r0
 10153 3108 349F      		mul r19,r20
 10154 310a 900D      		add r25,r0
 10155 310c 1124      		clr r1
 10156 310e E80F      		add r30,r24
 10157 3110 F91F      		adc r31,r25
 10158 3112 E759      		subi r30,lo8(-(105))
 10159 3114 FF4F      		sbci r31,hi8(-(105))
 10160 3116 8081      		ld r24,Z
 10161 3118 8E7F      		andi r24,lo8(-2)
 10162 311a 8083      		st Z,r24
 10163 311c 81E0      		ldi r24,lo8(1)
 10164               	.L468:
 10165               	/* epilogue start */
 10166               	.LBE1291:
 10167               	.LBE1290:
 10168               	.LM901:
 10169 311e 1F91      		pop r17
 10170               	.LVL610:
 10171 3120 0895      		ret
 10172               	.LFE169:
 10174               	.global	Timebase_LPDownCounter_Update_All
 10176               	Timebase_LPDownCounter_Update_All:
 10177               	.LFB170:
 10178               	.LM902:
 10179               	/* prologue: function */
 10180               	/* frame size = 0 */
 10181               	.LBB1292:
 10182               	.LM903:
 10183 3122 80E0      		ldi r24,lo8(0)
 10184 3124 0E94 0000 		call Timebase_LPDownCounter_Update
 10185               	/* epilogue start */
 10186               	.LBE1292:
 10187               	.LM904:
 10188 3128 0895      		ret
 10189               	.LFE170:
 10191               	.global	Timebase_LPDownCounter_Reset_All
 10193               	Timebase_LPDownCounter_Reset_All:
 10194               	.LFB171:
 10195               	.LM905:
 10196               	/* prologue: function */
 10197               	/* frame size = 0 */
 10198               	.LBB1293:
 10199               	.LBB1294:
 10200               	.LBB1295:
 10201               	.LBB1296:
 10202               	.LBB1297:
 10203               	.LM906:
 10204 312a E091 0000 		lds r30,Timebase
 10205 312e F091 0000 		lds r31,(Timebase)+1
 10206 3132 E659      		subi r30,lo8(-(106))
 10207 3134 FF4F      		sbci r31,hi8(-(106))
 10208 3136 1192      		st Z+,__zero_reg__
 10209 3138 1192      		st Z+,__zero_reg__
 10210 313a 1192      		st Z+,__zero_reg__
 10211 313c 1192      		st Z+,__zero_reg__
 10212               	.LBE1297:
 10213               	.LBE1296:
 10214               	.LBB1298:
 10215               	.LBB1299:
 10216               	.LM907:
 10217 313e 1082      		st Z,__zero_reg__
 10218 3140 1182      		std Z+1,__zero_reg__
 10219 3142 1282      		std Z+2,__zero_reg__
 10220 3144 1382      		std Z+3,__zero_reg__
 10221               	.LBE1299:
 10222               	.LBE1298:
 10223               	.LBB1300:
 10224               	.LBB1301:
 10225               	.LM908:
 10226 3146 3597      		sbiw r30,5
 10227 3148 8081      		ld r24,Z
 10228               	.LBE1301:
 10229               	.LBE1300:
 10230               	.LBB1302:
 10231               	.LBB1303:
 10232               	.LM909:
 10233 314a 807E      		andi r24,lo8(-32)
 10234 314c 8083      		st Z,r24
 10235               	/* epilogue start */
 10236               	.LBE1303:
 10237               	.LBE1302:
 10238               	.LBE1295:
 10239               	.LBE1294:
 10240               	.LBE1293:
 10241               	.LM910:
 10242 314e 0895      		ret
 10243               	.LFE171:
 10245               	.global	Timebase_Get_Update_Req_Sts
 10247               	Timebase_Get_Update_Req_Sts:
 10248               	.LFB172:
 10249               	.LM911:
 10250               	/* prologue: function */
 10251               	/* frame size = 0 */
 10252               	.LM912:
 10253 3150 E091 0000 		lds r30,Timebase
 10254 3154 F091 0000 		lds r31,(Timebase)+1
 10255 3158 848D      		ldd r24,Z+28
 10256               	/* epilogue start */
 10257               	.LM913:
 10258 315a 0895      		ret
 10259               	.LFE172:
 10261               	.global	Timebase_Reset
 10263               	Timebase_Reset:
 10264               	.LFB173:
 10265               	.LM914:
 10266               	/* prologue: function */
 10267               	/* frame size = 0 */
 10268               	.LM915:
 10269 315c 0E94 0000 		call Timebase_UpCounter_Reset_All
 10270               	.LM916:
 10271 3160 0E94 0000 		call Timebase_DownCounter_SS_Reset_All
 10272               	.LM917:
 10273 3164 0E94 0000 		call Timebase_DownCounter_Reset_All
 10274               	/* epilogue start */
 10275               	.LM918:
 10276 3168 0895      		ret
 10277               	.LFE173:
 10279               	.global	Timebase_LP_Reset
 10281               	Timebase_LP_Reset:
 10282               	.LFB174:
 10283               	.LM919:
 10284               	/* prologue: function */
 10285               	/* frame size = 0 */
 10286               	.LM920:
 10287 316a 0E94 0000 		call Timebase_LPDownCounter_Reset_All
 10288               	/* epilogue start */
 10289               	.LM921:
 10290 316e 0895      		ret
 10291               	.LFE174:
 10293               	.global	Timebase_Init
 10295               	Timebase_Init:
 10296               	.LFB175:
 10297               	.LM922:
 10298               	.LVL611:
 10299 3170 0F93      		push r16
 10300 3172 1F93      		push r17
 10301               	/* prologue: function */
 10302               	/* frame size = 0 */
 10303 3174 8C01      		movw r16,r24
 10304               	.LM923:
 10305 3176 0E94 0000 		call Timebase_Struct_Init
 10306               	.LVL612:
 10307               	.LM924:
 10308 317a C801      		movw r24,r16
 10309 317c 0E94 0000 		call Timebase_Timer_Config
 10310               	.LM925:
 10311 3180 0E94 0000 		call Timebase_Reset
 10312               	.LM926:
 10313 3184 81E0      		ldi r24,lo8(1)
 10314 3186 90E0      		ldi r25,hi8(1)
 10315 3188 0E94 0000 		call Timebase_LPTimer_Config
 10316               	.LBB1304:
 10317               	.LBB1305:
 10318               	.LM927:
 10319 318c 0E94 0000 		call Timebase_LPDownCounter_Reset_All
 10320               	/* epilogue start */
 10321               	.LBE1305:
 10322               	.LBE1304:
 10323               	.LM928:
 10324 3190 1F91      		pop r17
 10325 3192 0F91      		pop r16
 10326               	.LVL613:
 10327 3194 0895      		ret
 10328               	.LFE175:
 10330               	.global	Timebase_Main_Loop_Executables
 10332               	Timebase_Main_Loop_Executables:
 10333               	.LFB176:
 10334               	.LM929:
 10335               	/* prologue: function */
 10336               	/* frame size = 0 */
 10337               	.LM930:
 10338 3196 E091 0000 		lds r30,Timebase
 10339 319a F091 0000 		lds r31,(Timebase)+1
 10340 319e 848D      		ldd r24,Z+28
 10341 31a0 82FF      		sbrs r24,2
 10342 31a2 00C0      		rjmp .L483
 10343               	.LM931:
 10344 31a4 0E94 0000 		call Timebase_Timer_Sync_With_Shadow_Variables
 10345               	.LM932:
 10346 31a8 0E94 0000 		call Timebase_UpCounter_SS_Update_All
 10347               	.LM933:
 10348 31ac E091 0000 		lds r30,Timebase
 10349 31b0 F091 0000 		lds r31,(Timebase)+1
 10350 31b4 848D      		ldd r24,Z+28
 10351 31b6 8B7F      		andi r24,lo8(-5)
 10352 31b8 848F      		std Z+28,r24
 10353               	.L483:
 10354               	.LM934:
 10355 31ba E091 0000 		lds r30,Timebase
 10356 31be F091 0000 		lds r31,(Timebase)+1
 10357 31c2 848D      		ldd r24,Z+28
 10358 31c4 80FF      		sbrs r24,0
 10359 31c6 00C0      		rjmp .L484
 10360               	.LM935:
 10361 31c8 0E94 0000 		call Timebase_Timer_Sync_With_Shadow_Variables
 10362               	.LM936:
 10363 31cc 0E94 0000 		call Timebase_UpCounter_Update_All
 10364               	.LM937:
 10365 31d0 E091 0000 		lds r30,Timebase
 10366 31d4 F091 0000 		lds r31,(Timebase)+1
 10367 31d8 848D      		ldd r24,Z+28
 10368 31da 8E7F      		andi r24,lo8(-2)
 10369 31dc 848F      		std Z+28,r24
 10370               	.L484:
 10371               	.LM938:
 10372 31de E091 0000 		lds r30,Timebase
 10373 31e2 F091 0000 		lds r31,(Timebase)+1
 10374 31e6 848D      		ldd r24,Z+28
 10375 31e8 83FF      		sbrs r24,3
 10376 31ea 00C0      		rjmp .L485
 10377               	.LM939:
 10378 31ec 0E94 0000 		call Timebase_Timer_Sync_With_Shadow_Variables
 10379               	.LM940:
 10380 31f0 0E94 0000 		call Timebase_DownCounter_SS_Update_All
 10381               	.LM941:
 10382 31f4 E091 0000 		lds r30,Timebase
 10383 31f8 F091 0000 		lds r31,(Timebase)+1
 10384 31fc 848D      		ldd r24,Z+28
 10385 31fe 877F      		andi r24,lo8(-9)
 10386 3200 848F      		std Z+28,r24
 10387               	.L485:
 10388               	.LM942:
 10389 3202 E091 0000 		lds r30,Timebase
 10390 3206 F091 0000 		lds r31,(Timebase)+1
 10391 320a 848D      		ldd r24,Z+28
 10392 320c 81FF      		sbrs r24,1
 10393 320e 00C0      		rjmp .L486
 10394               	.LM943:
 10395 3210 0E94 0000 		call Timebase_Timer_Sync_With_Shadow_Variables
 10396               	.LM944:
 10397 3214 0E94 0000 		call Timebase_DownCounter_Update_All
 10398               	.LM945:
 10399 3218 E091 0000 		lds r30,Timebase
 10400 321c F091 0000 		lds r31,(Timebase)+1
 10401 3220 848D      		ldd r24,Z+28
 10402 3222 8D7F      		andi r24,lo8(-3)
 10403 3224 848F      		std Z+28,r24
 10404               	.L486:
 10405               	.LM946:
 10406 3226 E091 0000 		lds r30,Timebase
 10407 322a F091 0000 		lds r31,(Timebase)+1
 10408 322e 158A      		std Z+21,__zero_reg__
 10409               	.LM947:
 10410 3230 848D      		ldd r24,Z+28
 10411 3232 85FF      		sbrs r24,5
 10412 3234 00C0      		rjmp .L488
 10413               	.LM948:
 10414 3236 0E94 0000 		call Timebase_LPDownCounter_Update_All
 10415               	.LM949:
 10416 323a E091 0000 		lds r30,Timebase
 10417 323e F091 0000 		lds r31,(Timebase)+1
 10418 3242 848D      		ldd r24,Z+28
 10419 3244 8F7D      		andi r24,lo8(-33)
 10420 3246 848F      		std Z+28,r24
 10421               	.L488:
 10422 3248 0895      		ret
 10423               	.LFE176:
 10425               	.global	Timebase_ISR_Executables
 10427               	Timebase_ISR_Executables:
 10428               	.LFB177:
 10429               	.LM950:
 10430               	/* prologue: function */
 10431               	/* frame size = 0 */
 10432               	.LM951:
 10433 324a E091 0000 		lds r30,Timebase
 10434 324e F091 0000 		lds r31,(Timebase)+1
 10435 3252 8785      		ldd r24,Z+15
 10436 3254 9089      		ldd r25,Z+16
 10437 3256 0196      		adiw r24,1
 10438 3258 908B      		std Z+16,r25
 10439 325a 8787      		std Z+15,r24
 10440               	.LM952:
 10441 325c 848D      		ldd r24,Z+28
 10442 325e 8460      		ori r24,lo8(4)
 10443 3260 848F      		std Z+28,r24
 10444               	.LM953:
 10445 3262 848D      		ldd r24,Z+28
 10446 3264 8860      		ori r24,lo8(8)
 10447 3266 848F      		std Z+28,r24
 10448               	.LM954:
 10449 3268 2785      		ldd r18,Z+15
 10450 326a 3089      		ldd r19,Z+16
 10451 326c 8081      		ld r24,Z
 10452 326e 9181      		ldd r25,Z+1
 10453 3270 2817      		cp r18,r24
 10454 3272 3907      		cpc r19,r25
 10455 3274 00F0      		brlo .L491
 10456               	.LM955:
 10457 3276 108A      		std Z+16,__zero_reg__
 10458 3278 1786      		std Z+15,__zero_reg__
 10459               	.LM956:
 10460 327a 8189      		ldd r24,Z+17
 10461 327c 9289      		ldd r25,Z+18
 10462 327e A389      		ldd r26,Z+19
 10463 3280 B489      		ldd r27,Z+20
 10464 3282 0196      		adiw r24,1
 10465 3284 A11D      		adc r26,__zero_reg__
 10466 3286 B11D      		adc r27,__zero_reg__
 10467 3288 818B      		std Z+17,r24
 10468 328a 928B      		std Z+18,r25
 10469 328c A38B      		std Z+19,r26
 10470 328e B48B      		std Z+20,r27
 10471               	.LM957:
 10472 3290 848D      		ldd r24,Z+28
 10473 3292 8160      		ori r24,lo8(1)
 10474 3294 848F      		std Z+28,r24
 10475               	.LM958:
 10476 3296 848D      		ldd r24,Z+28
 10477 3298 8260      		ori r24,lo8(2)
 10478 329a 848F      		std Z+28,r24
 10479               	.L491:
 10480 329c 0895      		ret
 10481               	.LFE177:
 10483               	.global	__vector_16
 10485               	__vector_16:
 10486               	.LFB11:
 10487               	.LM959:
 10488 329e 1F92      		push __zero_reg__
 10489 32a0 0F92      		push r0
 10490 32a2 0FB6      		in r0,__SREG__
 10491 32a4 0F92      		push r0
 10492 32a6 1124      		clr __zero_reg__
 10493 32a8 2F93      		push r18
 10494 32aa 3F93      		push r19
 10495 32ac 4F93      		push r20
 10496 32ae 5F93      		push r21
 10497 32b0 6F93      		push r22
 10498 32b2 7F93      		push r23
 10499 32b4 8F93      		push r24
 10500 32b6 9F93      		push r25
 10501 32b8 AF93      		push r26
 10502 32ba BF93      		push r27
 10503 32bc EF93      		push r30
 10504 32be FF93      		push r31
 10505               	/* prologue: Signal */
 10506               	/* frame size = 0 */
 10507               	.LM960:
 10508 32c0 E091 0000 		lds r30,Timebase
 10509 32c4 F091 0000 		lds r31,(Timebase)+1
 10510 32c8 8481      		ldd r24,Z+4
 10511 32ca 86BD      		out 70-32,r24
 10512               	.LM961:
 10513 32cc 0E94 0000 		call Timebase_ISR_Executables
 10514               	/* epilogue start */
 10515               	.LM962:
 10516 32d0 FF91      		pop r31
 10517 32d2 EF91      		pop r30
 10518 32d4 BF91      		pop r27
 10519 32d6 AF91      		pop r26
 10520 32d8 9F91      		pop r25
 10521 32da 8F91      		pop r24
 10522 32dc 7F91      		pop r23
 10523 32de 6F91      		pop r22
 10524 32e0 5F91      		pop r21
 10525 32e2 4F91      		pop r20
 10526 32e4 3F91      		pop r19
 10527 32e6 2F91      		pop r18
 10528 32e8 0F90      		pop r0
 10529 32ea 0FBE      		out __SREG__,r0
 10530 32ec 0F90      		pop r0
 10531 32ee 1F90      		pop __zero_reg__
 10532 32f0 1895      		reti
 10533               	.LFE11:
 10535               	.global	Timebase_LP_ISR_Executables
 10537               	Timebase_LP_ISR_Executables:
 10538               	.LFB178:
 10539               	.LM963:
 10540               	/* prologue: function */
 10541               	/* frame size = 0 */
 10542               	.LM964:
 10543 32f2 E091 0000 		lds r30,Timebase
 10544 32f6 F091 0000 		lds r31,(Timebase)+1
 10545 32fa 8689      		ldd r24,Z+22
 10546 32fc 9789      		ldd r25,Z+23
 10547 32fe 0196      		adiw r24,1
 10548 3300 978B      		std Z+23,r25
 10549 3302 868B      		std Z+22,r24
 10550               	.LM965:
 10551 3304 2689      		ldd r18,Z+22
 10552 3306 3789      		ldd r19,Z+23
 10553 3308 8281      		ldd r24,Z+2
 10554 330a 9381      		ldd r25,Z+3
 10555 330c 2817      		cp r18,r24
 10556 330e 3907      		cpc r19,r25
 10557 3310 00F0      		brlo .L495
 10558               	.LM966:
 10559 3312 178A      		std Z+23,__zero_reg__
 10560 3314 168A      		std Z+22,__zero_reg__
 10561               	.LM967:
 10562 3316 808D      		ldd r24,Z+24
 10563 3318 918D      		ldd r25,Z+25
 10564 331a A28D      		ldd r26,Z+26
 10565 331c B38D      		ldd r27,Z+27
 10566 331e 0196      		adiw r24,1
 10567 3320 A11D      		adc r26,__zero_reg__
 10568 3322 B11D      		adc r27,__zero_reg__
 10569 3324 808F      		std Z+24,r24
 10570 3326 918F      		std Z+25,r25
 10571 3328 A28F      		std Z+26,r26
 10572 332a B38F      		std Z+27,r27
 10573               	.L495:
 10574               	.LM968:
 10575 332c 848D      		ldd r24,Z+28
 10576 332e 8062      		ori r24,lo8(32)
 10577 3330 848F      		std Z+28,r24
 10578               	/* epilogue start */
 10579               	.LM969:
 10580 3332 0895      		ret
 10581               	.LFE178:
 10583               	.global	__vector_6
 10585               	__vector_6:
 10586               	.LFB12:
 10587               	.LM970:
 10588 3334 1F92      		push __zero_reg__
 10589 3336 0F92      		push r0
 10590 3338 0FB6      		in r0,__SREG__
 10591 333a 0F92      		push r0
 10592 333c 1124      		clr __zero_reg__
 10593 333e 2F93      		push r18
 10594 3340 3F93      		push r19
 10595 3342 4F93      		push r20
 10596 3344 5F93      		push r21
 10597 3346 6F93      		push r22
 10598 3348 7F93      		push r23
 10599 334a 8F93      		push r24
 10600 334c 9F93      		push r25
 10601 334e AF93      		push r26
 10602 3350 BF93      		push r27
 10603 3352 EF93      		push r30
 10604 3354 FF93      		push r31
 10605               	/* prologue: Signal */
 10606               	/* frame size = 0 */
 10607               	.LM971:
 10608 3356 E0E6      		ldi r30,lo8(96)
 10609 3358 F0E0      		ldi r31,hi8(96)
 10610 335a 8081      		ld r24,Z
 10611 335c 8064      		ori r24,lo8(64)
 10612 335e 8083      		st Z,r24
 10613               	.LM972:
 10614 3360 0E94 0000 		call Timebase_LP_ISR_Executables
 10615               	/* epilogue start */
 10616               	.LM973:
 10617 3364 FF91      		pop r31
 10618 3366 EF91      		pop r30
 10619 3368 BF91      		pop r27
 10620 336a AF91      		pop r26
 10621 336c 9F91      		pop r25
 10622 336e 8F91      		pop r24
 10623 3370 7F91      		pop r23
 10624 3372 6F91      		pop r22
 10625 3374 5F91      		pop r21
 10626 3376 4F91      		pop r20
 10627 3378 3F91      		pop r19
 10628 337a 2F91      		pop r18
 10629 337c 0F90      		pop r0
 10630 337e 0FBE      		out __SREG__,r0
 10631 3380 0F90      		pop r0
 10632 3382 1F90      		pop __zero_reg__
 10633 3384 1895      		reti
 10634               	.LFE12:
 10636               		.data
 10639               	C.1.1765:
 10640 0000 0100      		.word	1
 10641 0002 0800      		.word	8
 10642 0004 4000      		.word	64
 10643 0006 0001      		.word	256
 10644 0008 0004      		.word	1024
 10645               		.comm Timebase_type,118,1
 10646               		.comm Timebase,2,1
 12047               	.Letext0:
DEFINED SYMBOLS
                            *ABS*:00000000 timebase.c
C:\Users\farid\AppData\Local\Temp/ccgqgIu6.s:2      *ABS*:0000003f __SREG__
C:\Users\farid\AppData\Local\Temp/ccgqgIu6.s:3      *ABS*:0000003e __SP_H__
C:\Users\farid\AppData\Local\Temp/ccgqgIu6.s:4      *ABS*:0000003d __SP_L__
C:\Users\farid\AppData\Local\Temp/ccgqgIu6.s:5      *ABS*:00000034 __CCP__
C:\Users\farid\AppData\Local\Temp/ccgqgIu6.s:6      *ABS*:00000000 __tmp_reg__
C:\Users\farid\AppData\Local\Temp/ccgqgIu6.s:7      *ABS*:00000001 __zero_reg__
C:\Users\farid\AppData\Local\Temp/ccgqgIu6.s:18     .text:00000000 Timebase_Struct_Init
                            *COM*:00000076 Timebase_type
                            *COM*:00000002 Timebase
C:\Users\farid\AppData\Local\Temp/ccgqgIu6.s:203    .text:000001ea Timebase_Timer_Config
C:\Users\farid\AppData\Local\Temp/ccgqgIu6.s:10639  .data:00000000 C.1.1765
C:\Users\farid\AppData\Local\Temp/ccgqgIu6.s:417    .text:00000304 Timebase_LPTimer_Config
C:\Users\farid\AppData\Local\Temp/ccgqgIu6.s:516    .text:00000374 Timebase_Atomic_Operation_Start
C:\Users\farid\AppData\Local\Temp/ccgqgIu6.s:534    .text:00000378 Timebase_Atomic_Operation_End
C:\Users\farid\AppData\Local\Temp/ccgqgIu6.s:552    .text:0000037c Timebase_Timer_Get_SubSecondsShadow
C:\Users\farid\AppData\Local\Temp/ccgqgIu6.s:570    .text:0000038c Timebase_Timer_Get_SecondsShadow
C:\Users\farid\AppData\Local\Temp/ccgqgIu6.s:591    .text:000003a2 Timebase_Timer_Get_SubSeconds
C:\Users\farid\AppData\Local\Temp/ccgqgIu6.s:609    .text:000003b2 Timebase_Timer_Get_Seconds
C:\Users\farid\AppData\Local\Temp/ccgqgIu6.s:630    .text:000003c8 Timebase_Timer_Set_SubSeconds
C:\Users\farid\AppData\Local\Temp/ccgqgIu6.s:648    .text:000003d6 Timebase_Timer_Set_Seconds
C:\Users\farid\AppData\Local\Temp/ccgqgIu6.s:668    .text:000003e8 Timebase_Timer_Sync_With_Shadow_Variables
C:\Users\farid\AppData\Local\Temp/ccgqgIu6.s:722    .text:00000418 Timebase_Timer_Delay_SubSeconds
C:\Users\farid\AppData\Local\Temp/ccgqgIu6.s:899    .text:000004d0 Timebase_Timer_Await_SubSeconds
C:\Users\farid\AppData\Local\Temp/ccgqgIu6.s:1061   .text:0000056a Timebase_Timer_Delay_Seconds
C:\Users\farid\AppData\Local\Temp/ccgqgIu6.s:1158   .text:000005ac Timebase_LPTimer_Get_SubSeconds
C:\Users\farid\AppData\Local\Temp/ccgqgIu6.s:1187   .text:000005c6 Timebase_LPTimer_Get_Seconds
C:\Users\farid\AppData\Local\Temp/ccgqgIu6.s:1224   .text:000005ee Timebase_LPTimer_Set_SubSeconds
C:\Users\farid\AppData\Local\Temp/ccgqgIu6.s:1242   .text:000005fc Timebase_LPTimer_Set_Seconds
C:\Users\farid\AppData\Local\Temp/ccgqgIu6.s:1262   .text:0000060e Timebase_LPTimer_Delay_Seconds
C:\Users\farid\AppData\Local\Temp/ccgqgIu6.s:1401   .text:00000688 Timebase_UpCounter_SS_Get_Status
C:\Users\farid\AppData\Local\Temp/ccgqgIu6.s:1435   .text:000006b2 Timebase_UpCounter_SS_Set_Status
C:\Users\farid\AppData\Local\Temp/ccgqgIu6.s:1473   .text:000006e2 Timebase_UpCounter_SS_Get_Value
C:\Users\farid\AppData\Local\Temp/ccgqgIu6.s:1516   .text:0000071c Timebase_UpCounter_SS_Set_Value
C:\Users\farid\AppData\Local\Temp/ccgqgIu6.s:1566   .text:00000760 Timebase_UpCounter_SS_Get_EndValueSec
C:\Users\farid\AppData\Local\Temp/ccgqgIu6.s:1609   .text:0000079a Timebase_UpCounter_SS_Get_EndValueSubSec
C:\Users\farid\AppData\Local\Temp/ccgqgIu6.s:1652   .text:000007d4 Timebase_UpCounter_SS_Set_EndValueSec
C:\Users\farid\AppData\Local\Temp/ccgqgIu6.s:1687   .text:00000800 Timebase_UpCounter_SS_Set_EndValueSubSec
C:\Users\farid\AppData\Local\Temp/ccgqgIu6.s:1722   .text:0000082c Timebase_UpCounter_SS_Get_TargetValue
C:\Users\farid\AppData\Local\Temp/ccgqgIu6.s:1765   .text:00000866 Timebase_UpCounter_SS_Set_TargetValue
C:\Users\farid\AppData\Local\Temp/ccgqgIu6.s:1800   .text:00000892 Timebase_UpCounter_SS_Get_TemporaryValue
C:\Users\farid\AppData\Local\Temp/ccgqgIu6.s:1843   .text:000008cc Timebase_UpCounter_SS_Set_TemporaryValue
C:\Users\farid\AppData\Local\Temp/ccgqgIu6.s:1893   .text:00000910 Timebase_UpCounter_SS_Get_PeriodValue
C:\Users\farid\AppData\Local\Temp/ccgqgIu6.s:1936   .text:0000094a Timebase_UpCounter_SS_Set_PeriodValue
C:\Users\farid\AppData\Local\Temp/ccgqgIu6.s:1971   .text:00000976 Timebase_UpCounter_SS_Get_Period_Flag
C:\Users\farid\AppData\Local\Temp/ccgqgIu6.s:2004   .text:0000099e Timebase_UpCounter_SS_Set_Period_Flag
C:\Users\farid\AppData\Local\Temp/ccgqgIu6.s:2038   .text:000009c8 Timebase_UpCounter_SS_Clear_Period_Flag
C:\Users\farid\AppData\Local\Temp/ccgqgIu6.s:2072   .text:000009f2 Timebase_UpCounter_SS_Reset
C:\Users\farid\AppData\Local\Temp/ccgqgIu6.s:2168   .text:00000a4c Timebase_UpCounter_SS_Clear_All_Flags
C:\Users\farid\AppData\Local\Temp/ccgqgIu6.s:2184   .text:00000a52 Timebase_UpCounter_SS_Start
C:\Users\farid\AppData\Local\Temp/ccgqgIu6.s:2232   .text:00000a88 Timebase_UpCounter_SS_Stop
C:\Users\farid\AppData\Local\Temp/ccgqgIu6.s:2280   .text:00000abe Timebase_UpCounter_SS_Set_Securely
C:\Users\farid\AppData\Local\Temp/ccgqgIu6.s:2548   .text:00000c36 Timebase_UpCounter_SS_Set_Forcefully
C:\Users\farid\AppData\Local\Temp/ccgqgIu6.s:2584   .text:00000c60 Timebase_UpCounter_SS_Update
C:\Users\farid\AppData\Local\Temp/ccgqgIu6.s:3100   .text:00000f4c Timebase_UpCounter_SS_Expired
C:\Users\farid\AppData\Local\Temp/ccgqgIu6.s:3140   .text:00000f80 Timebase_UpCounter_SS_Expired_Event
C:\Users\farid\AppData\Local\Temp/ccgqgIu6.s:3189   .text:00000fbe Timebase_UpCounter_SS_Set_Period_Value_Securely
C:\Users\farid\AppData\Local\Temp/ccgqgIu6.s:3251   .text:00001006 Timebase_UpCounter_SS_Get_Remaining_Period_Value
C:\Users\farid\AppData\Local\Temp/ccgqgIu6.s:3309   .text:00001052 Timebase_UpCounter_SS_Period_Value_Expired
C:\Users\farid\AppData\Local\Temp/ccgqgIu6.s:3401   .text:000010ce Timebase_UpCounter_SS_Period_Value_Expired_Event
C:\Users\farid\AppData\Local\Temp/ccgqgIu6.s:3453   .text:0000110e Timebase_UpCounter_SS_Update_All
C:\Users\farid\AppData\Local\Temp/ccgqgIu6.s:3470   .text:00001116 Timebase_UpCounter_SS_Reset_All
C:\Users\farid\AppData\Local\Temp/ccgqgIu6.s:3487   .text:0000111e Timebase_UpCounter_Get_Status
C:\Users\farid\AppData\Local\Temp/ccgqgIu6.s:3521   .text:00001148 Timebase_UpCounter_Set_Status
C:\Users\farid\AppData\Local\Temp/ccgqgIu6.s:3559   .text:00001178 Timebase_UpCounter_Get_Value
C:\Users\farid\AppData\Local\Temp/ccgqgIu6.s:3597   .text:000011a8 Timebase_UpCounter_Set_Value
C:\Users\farid\AppData\Local\Temp/ccgqgIu6.s:3649   .text:000011f0 Timebase_UpCounter_Get_EndValueSec
C:\Users\farid\AppData\Local\Temp/ccgqgIu6.s:3692   .text:0000122a Timebase_UpCounter_Get_EndValueSubSec
C:\Users\farid\AppData\Local\Temp/ccgqgIu6.s:3735   .text:00001264 Timebase_UpCounter_Set_EndValueSec
C:\Users\farid\AppData\Local\Temp/ccgqgIu6.s:3770   .text:00001290 Timebase_UpCounter_Set_EndValueSubSec
C:\Users\farid\AppData\Local\Temp/ccgqgIu6.s:3805   .text:000012bc Timebase_UpCounter_Get_TargetValue
C:\Users\farid\AppData\Local\Temp/ccgqgIu6.s:3848   .text:000012f6 Timebase_UpCounter_Set_TargetValue
C:\Users\farid\AppData\Local\Temp/ccgqgIu6.s:3883   .text:00001322 Timebase_UpCounter_Get_TemporaryValue
C:\Users\farid\AppData\Local\Temp/ccgqgIu6.s:3920   .text:00001350 Timebase_UpCounter_Set_TemporaryValue
C:\Users\farid\AppData\Local\Temp/ccgqgIu6.s:3971   .text:00001396 Timebase_UpCounter_Get_PeriodValue
C:\Users\farid\AppData\Local\Temp/ccgqgIu6.s:4009   .text:000013c6 Timebase_UpCounter_Set_PeriodValue
C:\Users\farid\AppData\Local\Temp/ccgqgIu6.s:4046   .text:000013f6 Timebase_UpCounter_Get_Period_Flag
C:\Users\farid\AppData\Local\Temp/ccgqgIu6.s:4079   .text:0000141e Timebase_UpCounter_Set_Period_Flag
C:\Users\farid\AppData\Local\Temp/ccgqgIu6.s:4113   .text:00001448 Timebase_UpCounter_Clear_Period_Flag
C:\Users\farid\AppData\Local\Temp/ccgqgIu6.s:4147   .text:00001472 Timebase_UpCounter_Reset
C:\Users\farid\AppData\Local\Temp/ccgqgIu6.s:4242   .text:000014d4 Timebase_UpCounter_Clear_All_Flags
C:\Users\farid\AppData\Local\Temp/ccgqgIu6.s:4258   .text:000014da Timebase_UpCounter_Start
C:\Users\farid\AppData\Local\Temp/ccgqgIu6.s:4306   .text:00001510 Timebase_UpCounter_Stop
C:\Users\farid\AppData\Local\Temp/ccgqgIu6.s:4354   .text:00001546 Timebase_UpCounter_Set_Securely
C:\Users\farid\AppData\Local\Temp/ccgqgIu6.s:4466   .text:000015bc Timebase_UpCounter_Set_Forcefully
C:\Users\farid\AppData\Local\Temp/ccgqgIu6.s:4502   .text:000015e6 Timebase_UpCounter_Update
C:\Users\farid\AppData\Local\Temp/ccgqgIu6.s:4806   .text:0000177e Timebase_UpCounter_Expired
C:\Users\farid\AppData\Local\Temp/ccgqgIu6.s:4846   .text:000017b2 Timebase_UpCounter_Expired_Event
C:\Users\farid\AppData\Local\Temp/ccgqgIu6.s:4895   .text:000017f0 Timebase_UpCounter_Set_Period_Value_Securely
C:\Users\farid\AppData\Local\Temp/ccgqgIu6.s:4970   .text:0000184e Timebase_UpCounter_Get_Remaining_Period_Value
C:\Users\farid\AppData\Local\Temp/ccgqgIu6.s:5034   .text:000018a6 Timebase_UpCounter_Period_Value_Expired
C:\Users\farid\AppData\Local\Temp/ccgqgIu6.s:5132   .text:0000192e Timebase_UpCounter_Period_Value_Expired_Event
C:\Users\farid\AppData\Local\Temp/ccgqgIu6.s:5184   .text:0000196e Timebase_UpCounter_Update_All
C:\Users\farid\AppData\Local\Temp/ccgqgIu6.s:5201   .text:00001976 Timebase_UpCounter_Reset_All
C:\Users\farid\AppData\Local\Temp/ccgqgIu6.s:5218   .text:0000197e Timebase_DownCounter_SS_Get_Status
C:\Users\farid\AppData\Local\Temp/ccgqgIu6.s:5252   .text:000019a8 Timebase_DownCounter_SS_Set_Status
C:\Users\farid\AppData\Local\Temp/ccgqgIu6.s:5290   .text:000019d8 Timebase_DownCounter_SS_Get_Value
C:\Users\farid\AppData\Local\Temp/ccgqgIu6.s:5326   .text:00001a04 Timebase_DownCounter_SS_Set_Value
C:\Users\farid\AppData\Local\Temp/ccgqgIu6.s:5360   .text:00001a30 Timebase_DownCounter_SS_Get_EndValueSec
C:\Users\farid\AppData\Local\Temp/ccgqgIu6.s:5396   .text:00001a5c Timebase_DownCounter_SS_Get_EndValueSubSec
C:\Users\farid\AppData\Local\Temp/ccgqgIu6.s:5432   .text:00001a88 Timebase_DownCounter_SS_Set_EndValueSec
C:\Users\farid\AppData\Local\Temp/ccgqgIu6.s:5466   .text:00001ab4 Timebase_DownCounter_SS_Set_EndValueSubSec
C:\Users\farid\AppData\Local\Temp/ccgqgIu6.s:5500   .text:00001ae0 Timebase_DownCounter_SS_Get_PeriodValue
C:\Users\farid\AppData\Local\Temp/ccgqgIu6.s:5536   .text:00001b0c Timebase_DownCounter_SS_Set_PeriodValue
C:\Users\farid\AppData\Local\Temp/ccgqgIu6.s:5593   .text:00001b60 Timebase_DownCounter_SS_Get_Period_Flag
C:\Users\farid\AppData\Local\Temp/ccgqgIu6.s:5626   .text:00001b88 Timebase_DownCounter_SS_Set_Period_Flag
C:\Users\farid\AppData\Local\Temp/ccgqgIu6.s:5660   .text:00001bb2 Timebase_DownCounter_SS_Clear_Period_Flag
C:\Users\farid\AppData\Local\Temp/ccgqgIu6.s:5694   .text:00001bdc Timebase_DownCounter_SS_Reset
C:\Users\farid\AppData\Local\Temp/ccgqgIu6.s:5765   .text:00001c22 Timebase_DownCounter_SS_Clear_All_Flags
C:\Users\farid\AppData\Local\Temp/ccgqgIu6.s:5840   .text:00001c68 Timebase_DownCounter_SS_Start
C:\Users\farid\AppData\Local\Temp/ccgqgIu6.s:5888   .text:00001c9e Timebase_DownCounter_SS_Stop
C:\Users\farid\AppData\Local\Temp/ccgqgIu6.s:5936   .text:00001cd4 Timebase_DownCounter_SS_Set_Securely
C:\Users\farid\AppData\Local\Temp/ccgqgIu6.s:6194   .text:00001e4c Timebase_DownCounter_SS_Set_Forcefully
C:\Users\farid\AppData\Local\Temp/ccgqgIu6.s:6272   .text:00001e98 Timebase_DownCounter_SS_Update
C:\Users\farid\AppData\Local\Temp/ccgqgIu6.s:6569   .text:0000201a Timebase_DownCounter_SS_Expired
C:\Users\farid\AppData\Local\Temp/ccgqgIu6.s:6609   .text:0000204e Timebase_DownCounter_SS_Expired_Event
C:\Users\farid\AppData\Local\Temp/ccgqgIu6.s:6704   .text:000020a8 Timebase_DownCounter_SS_Set_Period_Value_Securely
C:\Users\farid\AppData\Local\Temp/ccgqgIu6.s:6801   .text:00002128 Timebase_DownCounter_SS_Get_Remaining_Period_Value
C:\Users\farid\AppData\Local\Temp/ccgqgIu6.s:6863   .text:0000217c Timebase_DownCounter_SS_Period_Value_Expired
C:\Users\farid\AppData\Local\Temp/ccgqgIu6.s:6960   .text:00002202 Timebase_DownCounter_SS_Period_Value_Expired_Event
C:\Users\farid\AppData\Local\Temp/ccgqgIu6.s:7012   .text:00002242 Timebase_DownCounter_SS_Update_All
C:\Users\farid\AppData\Local\Temp/ccgqgIu6.s:7029   .text:0000224a Timebase_DownCounter_SS_Reset_All
C:\Users\farid\AppData\Local\Temp/ccgqgIu6.s:7093   .text:0000227a Timebase_DownCounter_Get_Status
C:\Users\farid\AppData\Local\Temp/ccgqgIu6.s:7129   .text:000022a8 Timebase_DownCounter_Set_Status
C:\Users\farid\AppData\Local\Temp/ccgqgIu6.s:7169   .text:000022dc Timebase_DownCounter_Get_Value
C:\Users\farid\AppData\Local\Temp/ccgqgIu6.s:7207   .text:0000230c Timebase_DownCounter_Set_Value
C:\Users\farid\AppData\Local\Temp/ccgqgIu6.s:7244   .text:0000233c Timebase_DownCounter_Get_EndValue
C:\Users\farid\AppData\Local\Temp/ccgqgIu6.s:7282   .text:0000236c Timebase_DownCounter_Set_EndValue
C:\Users\farid\AppData\Local\Temp/ccgqgIu6.s:7319   .text:0000239c Timebase_DownCounter_Get_PeriodValue
C:\Users\farid\AppData\Local\Temp/ccgqgIu6.s:7357   .text:000023cc Timebase_DownCounter_Set_PeriodValue
C:\Users\farid\AppData\Local\Temp/ccgqgIu6.s:7419   .text:00002428 Timebase_DownCounter_Get_Period_Flag
C:\Users\farid\AppData\Local\Temp/ccgqgIu6.s:7454   .text:00002454 Timebase_DownCounter_Set_Period_Flag
C:\Users\farid\AppData\Local\Temp/ccgqgIu6.s:7490   .text:00002482 Timebase_DownCounter_Clear_Period_Flag
C:\Users\farid\AppData\Local\Temp/ccgqgIu6.s:7526   .text:000024b0 Timebase_DownCounter_Reset
C:\Users\farid\AppData\Local\Temp/ccgqgIu6.s:7589   .text:000024f0 Timebase_DownCounter_Clear_All_Flags
C:\Users\farid\AppData\Local\Temp/ccgqgIu6.s:7656   .text:00002530 Timebase_DownCounter_Start
C:\Users\farid\AppData\Local\Temp/ccgqgIu6.s:7706   .text:0000256a Timebase_DownCounter_Stop
C:\Users\farid\AppData\Local\Temp/ccgqgIu6.s:7756   .text:000025a4 Timebase_DownCounter_Set_Securely
C:\Users\farid\AppData\Local\Temp/ccgqgIu6.s:7856   .text:00002616 Timebase_DownCounter_Set_Forcefully
C:\Users\farid\AppData\Local\Temp/ccgqgIu6.s:7930   .text:00002664 Timebase_DownCounter_Update
C:\Users\farid\AppData\Local\Temp/ccgqgIu6.s:8097   .text:0000272e Timebase_DownCounter_Expired
C:\Users\farid\AppData\Local\Temp/ccgqgIu6.s:8139   .text:00002766 Timebase_DownCounter_Expired_Event
C:\Users\farid\AppData\Local\Temp/ccgqgIu6.s:8226   .text:000027ba Timebase_DownCounter_Set_Period_Value_Securely
C:\Users\farid\AppData\Local\Temp/ccgqgIu6.s:8325   .text:0000283e Timebase_DownCounter_Get_Remaining_Period_Value
C:\Users\farid\AppData\Local\Temp/ccgqgIu6.s:8389   .text:00002896 Timebase_DownCounter_Period_Value_Expired
C:\Users\farid\AppData\Local\Temp/ccgqgIu6.s:8489   .text:00002922 Timebase_DownCounter_Period_Value_Expired_Event
C:\Users\farid\AppData\Local\Temp/ccgqgIu6.s:8543   .text:00002966 Timebase_DownCounter_Update_All
C:\Users\farid\AppData\Local\Temp/ccgqgIu6.s:8560   .text:0000296e Timebase_DownCounter_Reset_All
C:\Users\farid\AppData\Local\Temp/ccgqgIu6.s:8614   .text:00002994 Timebase_LPDownCounter_Get_Status
C:\Users\farid\AppData\Local\Temp/ccgqgIu6.s:8650   .text:000029c2 Timebase_LPDownCounter_Set_Status
C:\Users\farid\AppData\Local\Temp/ccgqgIu6.s:8690   .text:000029f6 Timebase_LPDownCounter_Get_Value
C:\Users\farid\AppData\Local\Temp/ccgqgIu6.s:8728   .text:00002a26 Timebase_LPDownCounter_Set_Value
C:\Users\farid\AppData\Local\Temp/ccgqgIu6.s:8765   .text:00002a56 Timebase_LPDownCounter_Get_EndValue
C:\Users\farid\AppData\Local\Temp/ccgqgIu6.s:8803   .text:00002a86 Timebase_LPDownCounter_Set_EndValue
C:\Users\farid\AppData\Local\Temp/ccgqgIu6.s:8840   .text:00002ab6 Timebase_LPDownCounter_Get_PeriodValue
C:\Users\farid\AppData\Local\Temp/ccgqgIu6.s:8878   .text:00002ae6 Timebase_LPDownCounter_Set_PeriodValue
C:\Users\farid\AppData\Local\Temp/ccgqgIu6.s:8940   .text:00002b42 Timebase_LPDownCounter_Get_Period_Flag
C:\Users\farid\AppData\Local\Temp/ccgqgIu6.s:8975   .text:00002b6e Timebase_LPDownCounter_Set_Period_Flag
C:\Users\farid\AppData\Local\Temp/ccgqgIu6.s:9011   .text:00002b9c Timebase_LPDownCounter_Clear_Period_Flag
C:\Users\farid\AppData\Local\Temp/ccgqgIu6.s:9047   .text:00002bca Timebase_LPDownCounter_Reset
C:\Users\farid\AppData\Local\Temp/ccgqgIu6.s:9110   .text:00002c0a Timebase_LPDownCounter_Clear_All_Flags
C:\Users\farid\AppData\Local\Temp/ccgqgIu6.s:9177   .text:00002c4a Timebase_LPDownCounter_Start
C:\Users\farid\AppData\Local\Temp/ccgqgIu6.s:9227   .text:00002c84 Timebase_LPDownCounter_Stop
C:\Users\farid\AppData\Local\Temp/ccgqgIu6.s:9277   .text:00002cbe Timebase_LPDownCounter_Set_Securely
C:\Users\farid\AppData\Local\Temp/ccgqgIu6.s:9417   .text:00002d70 Timebase_LPDownCounter_Set_Forcefully
C:\Users\farid\AppData\Local\Temp/ccgqgIu6.s:9491   .text:00002dbe Timebase_LPDownCounter_Update
C:\Users\farid\AppData\Local\Temp/ccgqgIu6.s:9730   .text:00002eea Timebase_LPDownCounter_Expired
C:\Users\farid\AppData\Local\Temp/ccgqgIu6.s:9772   .text:00002f22 Timebase_LPDownCounter_Expired_Event
C:\Users\farid\AppData\Local\Temp/ccgqgIu6.s:9859   .text:00002f76 Timebase_LPDownCounter_Set_Period_Value_Securely
C:\Users\farid\AppData\Local\Temp/ccgqgIu6.s:9958   .text:00002ffa Timebase_LPDownCounter_Get_Remaining_Period_Value
C:\Users\farid\AppData\Local\Temp/ccgqgIu6.s:10022  .text:00003052 Timebase_LPDownCounter_Period_Value_Expired
C:\Users\farid\AppData\Local\Temp/ccgqgIu6.s:10122  .text:000030de Timebase_LPDownCounter_Period_Value_Expired_Event
C:\Users\farid\AppData\Local\Temp/ccgqgIu6.s:10176  .text:00003122 Timebase_LPDownCounter_Update_All
C:\Users\farid\AppData\Local\Temp/ccgqgIu6.s:10193  .text:0000312a Timebase_LPDownCounter_Reset_All
C:\Users\farid\AppData\Local\Temp/ccgqgIu6.s:10247  .text:00003150 Timebase_Get_Update_Req_Sts
C:\Users\farid\AppData\Local\Temp/ccgqgIu6.s:10263  .text:0000315c Timebase_Reset
C:\Users\farid\AppData\Local\Temp/ccgqgIu6.s:10281  .text:0000316a Timebase_LP_Reset
C:\Users\farid\AppData\Local\Temp/ccgqgIu6.s:10295  .text:00003170 Timebase_Init
C:\Users\farid\AppData\Local\Temp/ccgqgIu6.s:10332  .text:00003196 Timebase_Main_Loop_Executables
C:\Users\farid\AppData\Local\Temp/ccgqgIu6.s:10427  .text:0000324a Timebase_ISR_Executables
C:\Users\farid\AppData\Local\Temp/ccgqgIu6.s:10485  .text:0000329e __vector_16
C:\Users\farid\AppData\Local\Temp/ccgqgIu6.s:10537  .text:000032f2 Timebase_LP_ISR_Executables
C:\Users\farid\AppData\Local\Temp/ccgqgIu6.s:10585  .text:00003334 __vector_6

UNDEFINED SYMBOLS
__divmodsi4
__mulsi3
__do_copy_data
__do_clear_bss
