   1               		.file	"timebase.c"
   2               	__SREG__ = 0x3f
   3               	__SP_H__ = 0x3e
   4               	__SP_L__ = 0x3d
   5               	__CCP__  = 0x34
   6               	__tmp_reg__ = 0
   7               	__zero_reg__ = 1
  15               	.Ltext0:
  16               	.global	Timebase_Struct_Init
  18               	Timebase_Struct_Init:
  19               	.LFB6:
  20               	.LM1:
  21               	/* prologue: function */
  22               	/* frame size = 0 */
  23               	.LM2:
  24 0000 80E0      		ldi r24,lo8(Timebase_type)
  25 0002 90E0      		ldi r25,hi8(Timebase_type)
  26 0004 9093 0000 		sts (Timebase)+1,r25
  27 0008 8093 0000 		sts Timebase,r24
  28               	.LM3:
  29 000c 81E0      		ldi r24,lo8(1)
  30 000e 90E0      		ldi r25,hi8(1)
  31 0010 9093 0000 		sts (Timebase_type)+1,r25
  32 0014 8093 0000 		sts Timebase_type,r24
  33               	.LM4:
  34 0018 1092 0000 		sts (Timebase_type+4)+1,__zero_reg__
  35 001c 1092 0000 		sts Timebase_type+4,__zero_reg__
  36               	.LM5:
  37 0020 1092 0000 		sts (Timebase_type+16)+1,__zero_reg__
  38 0024 1092 0000 		sts Timebase_type+16,__zero_reg__
  39               	.LM6:
  40 0028 1092 0000 		sts Timebase_type+18,__zero_reg__
  41 002c 1092 0000 		sts (Timebase_type+18)+1,__zero_reg__
  42 0030 1092 0000 		sts (Timebase_type+18)+2,__zero_reg__
  43 0034 1092 0000 		sts (Timebase_type+18)+3,__zero_reg__
  44               	.LM7:
  45 0038 1092 0000 		sts (Timebase_type+10)+1,__zero_reg__
  46 003c 1092 0000 		sts Timebase_type+10,__zero_reg__
  47               	.LM8:
  48 0040 1092 0000 		sts Timebase_type+12,__zero_reg__
  49 0044 1092 0000 		sts (Timebase_type+12)+1,__zero_reg__
  50 0048 1092 0000 		sts (Timebase_type+12)+2,__zero_reg__
  51 004c 1092 0000 		sts (Timebase_type+12)+3,__zero_reg__
  52               	.LM9:
  53 0050 1092 0000 		sts Timebase_type+22,__zero_reg__
  54               	.LM10:
  55 0054 1092 0000 		sts Timebase_type+6,__zero_reg__
  56 0058 1092 0000 		sts (Timebase_type+6)+1,__zero_reg__
  57 005c 1092 0000 		sts (Timebase_type+6)+2,__zero_reg__
  58 0060 1092 0000 		sts (Timebase_type+6)+3,__zero_reg__
  59               	.LM11:
  60 0064 1092 0000 		sts (Timebase_type+23)+1,__zero_reg__
  61 0068 1092 0000 		sts Timebase_type+23,__zero_reg__
  62               	.LM12:
  63 006c 1092 0000 		sts Timebase_type+25,__zero_reg__
  64 0070 1092 0000 		sts (Timebase_type+25)+1,__zero_reg__
  65 0074 1092 0000 		sts (Timebase_type+25)+2,__zero_reg__
  66 0078 1092 0000 		sts (Timebase_type+25)+3,__zero_reg__
  67               	.LM13:
  68 007c 9093 0000 		sts (Timebase_type+2)+1,r25
  69 0080 8093 0000 		sts Timebase_type+2,r24
  70               	.LM14:
  71 0084 1092 0000 		sts Timebase_type+29,__zero_reg__
  72               	.LBB432:
  73               	.LM15:
  74 0088 1092 0000 		sts Timebase_type+30,__zero_reg__
  75               	.LM16:
  76 008c 1092 0000 		sts Timebase_type+31,__zero_reg__
  77 0090 1092 0000 		sts (Timebase_type+31)+1,__zero_reg__
  78 0094 1092 0000 		sts (Timebase_type+31)+2,__zero_reg__
  79 0098 1092 0000 		sts (Timebase_type+31)+3,__zero_reg__
  80               	.LM17:
  81 009c 1092 0000 		sts Timebase_type+35,__zero_reg__
  82 00a0 1092 0000 		sts (Timebase_type+35)+1,__zero_reg__
  83 00a4 1092 0000 		sts (Timebase_type+35)+2,__zero_reg__
  84 00a8 1092 0000 		sts (Timebase_type+35)+3,__zero_reg__
  85               	.LM18:
  86 00ac 1092 0000 		sts Timebase_type+39,__zero_reg__
  87 00b0 1092 0000 		sts (Timebase_type+39)+1,__zero_reg__
  88 00b4 1092 0000 		sts (Timebase_type+39)+2,__zero_reg__
  89 00b8 1092 0000 		sts (Timebase_type+39)+3,__zero_reg__
  90               	.LM19:
  91 00bc 1092 0000 		sts Timebase_type+43,__zero_reg__
  92 00c0 1092 0000 		sts (Timebase_type+43)+1,__zero_reg__
  93 00c4 1092 0000 		sts (Timebase_type+43)+2,__zero_reg__
  94 00c8 1092 0000 		sts (Timebase_type+43)+3,__zero_reg__
  95               	.LM20:
  96 00cc 1092 0000 		sts Timebase_type+47,__zero_reg__
  97 00d0 1092 0000 		sts (Timebase_type+47)+1,__zero_reg__
  98 00d4 1092 0000 		sts (Timebase_type+47)+2,__zero_reg__
  99 00d8 1092 0000 		sts (Timebase_type+47)+3,__zero_reg__
 100               	.LBE432:
 101               	.LBB433:
 102               	.LM21:
 103 00dc 1092 0000 		sts Timebase_type+51,__zero_reg__
 104               	.LM22:
 105 00e0 1092 0000 		sts Timebase_type+52,__zero_reg__
 106 00e4 1092 0000 		sts (Timebase_type+52)+1,__zero_reg__
 107 00e8 1092 0000 		sts (Timebase_type+52)+2,__zero_reg__
 108 00ec 1092 0000 		sts (Timebase_type+52)+3,__zero_reg__
 109               	.LM23:
 110 00f0 1092 0000 		sts Timebase_type+56,__zero_reg__
 111 00f4 1092 0000 		sts (Timebase_type+56)+1,__zero_reg__
 112 00f8 1092 0000 		sts (Timebase_type+56)+2,__zero_reg__
 113 00fc 1092 0000 		sts (Timebase_type+56)+3,__zero_reg__
 114               	.LM24:
 115 0100 1092 0000 		sts Timebase_type+60,__zero_reg__
 116 0104 1092 0000 		sts (Timebase_type+60)+1,__zero_reg__
 117 0108 1092 0000 		sts (Timebase_type+60)+2,__zero_reg__
 118 010c 1092 0000 		sts (Timebase_type+60)+3,__zero_reg__
 119               	.LM25:
 120 0110 1092 0000 		sts Timebase_type+64,__zero_reg__
 121 0114 1092 0000 		sts (Timebase_type+64)+1,__zero_reg__
 122 0118 1092 0000 		sts (Timebase_type+64)+2,__zero_reg__
 123 011c 1092 0000 		sts (Timebase_type+64)+3,__zero_reg__
 124               	/* epilogue start */
 125               	.LBE433:
 126               	.LM26:
 127 0120 0895      		ret
 128               	.LFE6:
 130               	.global	Timebase_Timer_Enable
 132               	Timebase_Timer_Enable:
 133               	.LFB7:
 134               	.LM27:
 135               	.LVL0:
 136 0122 8F92      		push r8
 137 0124 9F92      		push r9
 138 0126 BF92      		push r11
 139 0128 CF92      		push r12
 140 012a DF92      		push r13
 141 012c EF92      		push r14
 142 012e FF92      		push r15
 143 0130 0F93      		push r16
 144 0132 1F93      		push r17
 145 0134 DF93      		push r29
 146 0136 CF93      		push r28
 147 0138 CDB7      		in r28,__SP_L__
 148 013a DEB7      		in r29,__SP_H__
 149 013c 2A97      		sbiw r28,10
 150 013e 0FB6      		in __tmp_reg__,__SREG__
 151 0140 F894      		cli
 152 0142 DEBF      		out __SP_H__,r29
 153 0144 0FBE      		out __SREG__,__tmp_reg__
 154 0146 CDBF      		out __SP_L__,r28
 155               	/* prologue: function */
 156               	/* frame size = 10 */
 157 0148 4C01      		movw r8,r24
 158               	.LM28:
 159 014a DE01      		movw r26,r28
 160 014c 1196      		adiw r26,1
 161 014e E0E0      		ldi r30,lo8(C.1.1785)
 162 0150 F0E0      		ldi r31,hi8(C.1.1785)
 163 0152 8AE0      		ldi r24,lo8(10)
 164               	.LVL1:
 165               	.L4:
 166 0154 0190      		ld r0,Z+
 167 0156 0D92      		st X+,r0
 168 0158 8150      		subi r24,lo8(-(-1))
 169 015a 01F4      		brne .L4
 170               	.LM29:
 171 015c 9401      		movw r18,r8
 172 015e 40E0      		ldi r20,lo8(0)
 173 0160 50E0      		ldi r21,hi8(0)
 174               	.LVL2:
 175 0162 60E0      		ldi r22,lo8(12000000)
 176 0164 7BE1      		ldi r23,hi8(12000000)
 177 0166 87EB      		ldi r24,hlo8(12000000)
 178 0168 90E0      		ldi r25,hhi8(12000000)
 179 016a 0E94 0000 		call __divmodsi4
 180 016e B22E      		mov r11,r18
 181 0170 C32E      		mov r12,r19
 182 0172 D42E      		mov r13,r20
 183               	.LVL3:
 184 0174 052F      		mov r16,r21
 185 0176 7E01      		movw r14,r28
 186 0178 0894      		sec
 187 017a E11C      		adc r14,__zero_reg__
 188 017c F11C      		adc r15,__zero_reg__
 189 017e C901      		movw r24,r18
 190 0180 DA01      		movw r26,r20
 191 0182 9C01      		movw r18,r24
 192 0184 AD01      		movw r20,r26
 193               	.LVL4:
 194 0186 10E0      		ldi r17,lo8(0)
 195               	.LVL5:
 196 0188 00C0      		rjmp .L5
 197               	.LVL6:
 198               	.L7:
 199               	.LM30:
 200 018a F701      		movw r30,r14
 201 018c 2191      		ld r18,Z+
 202 018e 3191      		ld r19,Z+
 203               	.LVL7:
 204 0190 7F01      		movw r14,r30
 205 0192 40E0      		ldi r20,lo8(0)
 206 0194 50E0      		ldi r21,hi8(0)
 207 0196 6B2D      		mov r22,r11
 208 0198 7C2D      		mov r23,r12
 209 019a 8D2D      		mov r24,r13
 210               	.LVL8:
 211 019c 902F      		mov r25,r16
 212 019e 0E94 0000 		call __divmodsi4
 213 01a2 C901      		movw r24,r18
 214 01a4 DA01      		movw r26,r20
 215 01a6 9C01      		movw r18,r24
 216 01a8 AD01      		movw r20,r26
 217               	.LVL9:
 218               	.LM31:
 219 01aa 1F5F      		subi r17,lo8(-(1))
 220               	.LM32:
 221 01ac 1530      		cpi r17,lo8(5)
 222 01ae 01F0      		breq .L6
 223               	.LVL10:
 224               	.L5:
 225               	.LM33:
 226 01b0 2F3F      		cpi r18,lo8(255)
 227 01b2 3105      		cpc r19,__zero_reg__
 228 01b4 4105      		cpc r20,__zero_reg__
 229 01b6 5105      		cpc r21,__zero_reg__
 230 01b8 01F0      		breq .+2
 231 01ba 04F4      		brge .L7
 232               	.L6:
 233               	.LM34:
 234 01bc 812F      		mov r24,r17
 235 01be 8150      		subi r24,lo8(-(-1))
 236               	.LVL11:
 237               	.LM35:
 238 01c0 14BC      		out 68-32,__zero_reg__
 239               	.LM36:
 240 01c2 15BC      		out 69-32,__zero_reg__
 241               	.LM37:
 242 01c4 1092 6E00 		sts 110,__zero_reg__
 243               	.LM38:
 244 01c8 15BA      		out 53-32,__zero_reg__
 245               	.LM39:
 246 01ca 17BC      		out 71-32,__zero_reg__
 247               	.LM40:
 248 01cc 18BC      		out 72-32,__zero_reg__
 249               	.LM41:
 250 01ce 16BC      		out 70-32,__zero_reg__
 251               	.LM42:
 252 01d0 17BC      		out 71-32,__zero_reg__
 253               	.LM43:
 254 01d2 8823      		tst r24
 255 01d4 01F4      		brne .L8
 256               	.LM44:
 257 01d6 81E0      		ldi r24,lo8(1)
 258               	.LVL12:
 259 01d8 00C0      		rjmp .L15
 260               	.LVL13:
 261               	.L8:
 262               	.LM45:
 263 01da 8130      		cpi r24,lo8(1)
 264 01dc 01F4      		brne .L10
 265               	.LM46:
 266 01de 82E0      		ldi r24,lo8(2)
 267               	.LVL14:
 268 01e0 00C0      		rjmp .L15
 269               	.LVL15:
 270               	.L10:
 271               	.LM47:
 272 01e2 8230      		cpi r24,lo8(2)
 273 01e4 01F4      		brne .L11
 274               	.LM48:
 275 01e6 83E0      		ldi r24,lo8(3)
 276               	.LVL16:
 277 01e8 00C0      		rjmp .L15
 278               	.LVL17:
 279               	.L11:
 280               	.LM49:
 281 01ea 8330      		cpi r24,lo8(3)
 282 01ec 01F4      		brne .L12
 283               	.LM50:
 284 01ee 84E0      		ldi r24,lo8(4)
 285               	.LVL18:
 286 01f0 00C0      		rjmp .L15
 287               	.LVL19:
 288               	.L12:
 289               	.LM51:
 290 01f2 8430      		cpi r24,lo8(4)
 291 01f4 01F4      		brne .L9
 292               	.LM52:
 293 01f6 85E0      		ldi r24,lo8(5)
 294               	.LVL20:
 295               	.L15:
 296 01f8 85BD      		out 69-32,r24
 297               	.LVL21:
 298               	.L9:
 299               	.LM53:
 300 01fa E091 0000 		lds r30,Timebase
 301 01fe F091 0000 		lds r31,(Timebase)+1
 302 0202 8FEF      		ldi r24,lo8(255)
 303 0204 90E0      		ldi r25,hi8(255)
 304               	.LVL22:
 305 0206 821B      		sub r24,r18
 306 0208 930B      		sbc r25,r19
 307 020a 9583      		std Z+5,r25
 308 020c 8483      		std Z+4,r24
 309               	.LM54:
 310 020e 8481      		ldd r24,Z+4
 311 0210 9581      		ldd r25,Z+5
 312 0212 86BD      		out 70-32,r24
 313               	.LM55:
 314 0214 81E0      		ldi r24,lo8(1)
 315 0216 8093 6E00 		sts 110,r24
 316               	.LM56:
 317               	/* #APP */
 318               	 ;  353 "timebase.c" 1
 319 021a 7894      		sei
 320               	 ;  0 "" 2
 321               	.LM57:
 322               	/* #NOAPP */
 323 021c 9182      		std Z+1,r9
 324 021e 8082      		st Z,r8
 325               	/* epilogue start */
 326               	.LM58:
 327 0220 2A96      		adiw r28,10
 328 0222 0FB6      		in __tmp_reg__,__SREG__
 329 0224 F894      		cli
 330 0226 DEBF      		out __SP_H__,r29
 331 0228 0FBE      		out __SREG__,__tmp_reg__
 332 022a CDBF      		out __SP_L__,r28
 333 022c CF91      		pop r28
 334 022e DF91      		pop r29
 335 0230 1F91      		pop r17
 336 0232 0F91      		pop r16
 337 0234 FF90      		pop r15
 338 0236 EF90      		pop r14
 339 0238 DF90      		pop r13
 340 023a CF90      		pop r12
 341 023c BF90      		pop r11
 342 023e 9F90      		pop r9
 343 0240 8F90      		pop r8
 344               	.LVL23:
 345 0242 0895      		ret
 346               	.LFE7:
 348               	.global	Timebase_Timer_Disable
 350               	Timebase_Timer_Disable:
 351               	.LFB8:
 352               	.LM59:
 353               	/* prologue: function */
 354               	/* frame size = 0 */
 355               	.LM60:
 356 0244 14BC      		out 68-32,__zero_reg__
 357               	.LM61:
 358 0246 15BC      		out 69-32,__zero_reg__
 359               	.LM62:
 360 0248 1092 6E00 		sts 110,__zero_reg__
 361               	.LM63:
 362 024c 87E0      		ldi r24,lo8(7)
 363 024e 85BB      		out 53-32,r24
 364               	.LM64:
 365 0250 17BC      		out 71-32,__zero_reg__
 366               	.LM65:
 367 0252 18BC      		out 72-32,__zero_reg__
 368               	.LM66:
 369 0254 16BC      		out 70-32,__zero_reg__
 370               	/* epilogue start */
 371               	.LM67:
 372 0256 0895      		ret
 373               	.LFE8:
 375               	.global	Timebase_LPTimer_Enable
 377               	Timebase_LPTimer_Enable:
 378               	.LFB9:
 379               	.LM68:
 380               	.LVL24:
 381               	/* prologue: function */
 382               	/* frame size = 0 */
 383 0258 9C01      		movw r18,r24
 384               	.LM69:
 385 025a 8130      		cpi r24,1
 386 025c 9105      		cpc r25,__zero_reg__
 387 025e 01F4      		brne .L19
 388 0260 96E0      		ldi r25,lo8(6)
 389               	.LVL25:
 390 0262 00C0      		rjmp .L20
 391               	.LVL26:
 392               	.L19:
 393               	.LM70:
 394 0264 8230      		cpi r24,2
 395 0266 9105      		cpc r25,__zero_reg__
 396 0268 01F4      		brne .L21
 397 026a 95E0      		ldi r25,lo8(5)
 398               	.LVL27:
 399 026c 00C0      		rjmp .L20
 400               	.LVL28:
 401               	.L21:
 402               	.LM71:
 403 026e 8430      		cpi r24,4
 404 0270 9105      		cpc r25,__zero_reg__
 405 0272 01F4      		brne .L22
 406 0274 94E0      		ldi r25,lo8(4)
 407               	.LVL29:
 408 0276 00C0      		rjmp .L20
 409               	.LVL30:
 410               	.L22:
 411               	.LM72:
 412 0278 8830      		cpi r24,8
 413 027a 9105      		cpc r25,__zero_reg__
 414 027c 01F4      		brne .L23
 415 027e 93E0      		ldi r25,lo8(3)
 416               	.LVL31:
 417 0280 00C0      		rjmp .L20
 418               	.LVL32:
 419               	.L23:
 420               	.LM73:
 421 0282 8031      		cpi r24,16
 422 0284 9105      		cpc r25,__zero_reg__
 423 0286 01F4      		brne .L24
 424 0288 92E0      		ldi r25,lo8(2)
 425               	.LVL33:
 426 028a 00C0      		rjmp .L20
 427               	.LVL34:
 428               	.L24:
 429 028c 90E0      		ldi r25,lo8(0)
 430               	.LVL35:
 431 028e 2032      		cpi r18,32
 432 0290 3105      		cpc r19,__zero_reg__
 433 0292 01F4      		brne .L20
 434               	.LVL36:
 435 0294 91E0      		ldi r25,lo8(1)
 436               	.L20:
 437               	.LM74:
 438               	/* #APP */
 439               	 ;  396 "timebase.c" 1
 440 0296 F894      		cli
 441               	 ;  0 "" 2
 442               	.LM75:
 443               	/* #NOAPP */
 444 0298 84B7      		in r24,84-32
 445 029a 877F      		andi r24,lo8(-9)
 446 029c 84BF      		out 84-32,r24
 447               	.LM76:
 448 029e 8091 6000 		lds r24,96
 449 02a2 8068      		ori r24,lo8(-128)
 450 02a4 8093 6000 		sts 96,r24
 451               	.LM77:
 452 02a8 8091 6000 		lds r24,96
 453 02ac 8861      		ori r24,lo8(24)
 454 02ae 8093 6000 		sts 96,r24
 455               	.LM78:
 456 02b2 9064      		ori r25,lo8(64)
 457 02b4 9093 6000 		sts 96,r25
 458               	.LM79:
 459               	/* #APP */
 460               	 ;  401 "timebase.c" 1
 461 02b8 7894      		sei
 462               	 ;  0 "" 2
 463               	.LM80:
 464               	/* #NOAPP */
 465 02ba E091 0000 		lds r30,Timebase
 466 02be F091 0000 		lds r31,(Timebase)+1
 467 02c2 3383      		std Z+3,r19
 468 02c4 2283      		std Z+2,r18
 469               	/* epilogue start */
 470               	.LM81:
 471 02c6 0895      		ret
 472               	.LFE9:
 474               	.global	Timebase_LPTimer_Disable
 476               	Timebase_LPTimer_Disable:
 477               	.LFB10:
 478               	.LM82:
 479               	/* prologue: function */
 480               	/* frame size = 0 */
 481               	.LM83:
 482               	/* #APP */
 483               	 ;  407 "timebase.c" 1
 484 02c8 F894      		cli
 485               	 ;  0 "" 2
 486               	.LM84:
 487               	/* #NOAPP */
 488 02ca 84B7      		in r24,84-32
 489 02cc 877F      		andi r24,lo8(-9)
 490 02ce 84BF      		out 84-32,r24
 491               	.LM85:
 492 02d0 E0E6      		ldi r30,lo8(96)
 493 02d2 F0E0      		ldi r31,hi8(96)
 494 02d4 8081      		ld r24,Z
 495 02d6 8068      		ori r24,lo8(-128)
 496 02d8 8083      		st Z,r24
 497               	.LM86:
 498 02da 8081      		ld r24,Z
 499 02dc 8861      		ori r24,lo8(24)
 500 02de 8083      		st Z,r24
 501               	.LM87:
 502 02e0 1082      		st Z,__zero_reg__
 503               	.LM88:
 504               	/* #APP */
 505               	 ;  412 "timebase.c" 1
 506 02e2 7894      		sei
 507               	 ;  0 "" 2
 508               	/* epilogue start */
 509               	.LM89:
 510               	/* #NOAPP */
 511 02e4 0895      		ret
 512               	.LFE10:
 514               	.global	Timebase_Atomic_Operation_Start
 516               	Timebase_Atomic_Operation_Start:
 517               	.LFB11:
 518               	.LM90:
 519               	/* prologue: function */
 520               	/* frame size = 0 */
 521               	.LM91:
 522               	/* #APP */
 523               	 ;  431 "timebase.c" 1
 524 02e6 F894      		cli
 525               	 ;  0 "" 2
 526               	/* epilogue start */
 527               	.LM92:
 528               	/* #NOAPP */
 529 02e8 0895      		ret
 530               	.LFE11:
 532               	.global	Timebase_Atomic_Operation_End
 534               	Timebase_Atomic_Operation_End:
 535               	.LFB12:
 536               	.LM93:
 537               	/* prologue: function */
 538               	/* frame size = 0 */
 539               	.LM94:
 540               	/* #APP */
 541               	 ;  436 "timebase.c" 1
 542 02ea 7894      		sei
 543               	 ;  0 "" 2
 544               	/* epilogue start */
 545               	.LM95:
 546               	/* #NOAPP */
 547 02ec 0895      		ret
 548               	.LFE12:
 550               	.global	Timebase_Timer_Get_SubSecondsShadow
 552               	Timebase_Timer_Get_SubSecondsShadow:
 553               	.LFB15:
 554               	.LM96:
 555               	/* prologue: function */
 556               	/* frame size = 0 */
 557               	.LM97:
 558 02ee E091 0000 		lds r30,Timebase
 559 02f2 F091 0000 		lds r31,(Timebase)+1
 560 02f6 2089      		ldd r18,Z+16
 561 02f8 3189      		ldd r19,Z+17
 562               	.LM98:
 563 02fa C901      		movw r24,r18
 564               	/* epilogue start */
 565 02fc 0895      		ret
 566               	.LFE15:
 568               	.global	Timebase_Timer_Get_SecondsShadow
 570               	Timebase_Timer_Get_SecondsShadow:
 571               	.LFB16:
 572               	.LM99:
 573               	/* prologue: function */
 574               	/* frame size = 0 */
 575               	.LM100:
 576 02fe E091 0000 		lds r30,Timebase
 577 0302 F091 0000 		lds r31,(Timebase)+1
 578 0306 2289      		ldd r18,Z+18
 579 0308 3389      		ldd r19,Z+19
 580 030a 4489      		ldd r20,Z+20
 581 030c 5589      		ldd r21,Z+21
 582               	.LM101:
 583 030e B901      		movw r22,r18
 584 0310 CA01      		movw r24,r20
 585               	/* epilogue start */
 586 0312 0895      		ret
 587               	.LFE16:
 589               	.global	Timebase_Timer_Get_SubSeconds
 591               	Timebase_Timer_Get_SubSeconds:
 592               	.LFB17:
 593               	.LM102:
 594               	/* prologue: function */
 595               	/* frame size = 0 */
 596               	.LM103:
 597 0314 E091 0000 		lds r30,Timebase
 598 0318 F091 0000 		lds r31,(Timebase)+1
 599 031c 2285      		ldd r18,Z+10
 600 031e 3385      		ldd r19,Z+11
 601               	.LM104:
 602 0320 C901      		movw r24,r18
 603               	/* epilogue start */
 604 0322 0895      		ret
 605               	.LFE17:
 607               	.global	Timebase_Timer_Get_Seconds
 609               	Timebase_Timer_Get_Seconds:
 610               	.LFB18:
 611               	.LM105:
 612               	/* prologue: function */
 613               	/* frame size = 0 */
 614               	.LM106:
 615 0324 E091 0000 		lds r30,Timebase
 616 0328 F091 0000 		lds r31,(Timebase)+1
 617 032c 2485      		ldd r18,Z+12
 618 032e 3585      		ldd r19,Z+13
 619 0330 4685      		ldd r20,Z+14
 620 0332 5785      		ldd r21,Z+15
 621               	.LM107:
 622 0334 B901      		movw r22,r18
 623 0336 CA01      		movw r24,r20
 624               	/* epilogue start */
 625 0338 0895      		ret
 626               	.LFE18:
 628               	.global	Timebase_Timer_Set_SubSeconds
 630               	Timebase_Timer_Set_SubSeconds:
 631               	.LFB19:
 632               	.LM108:
 633               	.LVL37:
 634               	/* prologue: function */
 635               	/* frame size = 0 */
 636               	.LM109:
 637 033a E091 0000 		lds r30,Timebase
 638 033e F091 0000 		lds r31,(Timebase)+1
 639 0342 9387      		std Z+11,r25
 640 0344 8287      		std Z+10,r24
 641               	/* epilogue start */
 642               	.LM110:
 643 0346 0895      		ret
 644               	.LFE19:
 646               	.global	Timebase_Timer_Set_Seconds
 648               	Timebase_Timer_Set_Seconds:
 649               	.LFB20:
 650               	.LM111:
 651               	.LVL38:
 652               	/* prologue: function */
 653               	/* frame size = 0 */
 654               	.LM112:
 655 0348 E091 0000 		lds r30,Timebase
 656 034c F091 0000 		lds r31,(Timebase)+1
 657 0350 6487      		std Z+12,r22
 658 0352 7587      		std Z+13,r23
 659 0354 8687      		std Z+14,r24
 660 0356 9787      		std Z+15,r25
 661               	/* epilogue start */
 662               	.LM113:
 663 0358 0895      		ret
 664               	.LFE20:
 666               	.global	Timebase_Timer_Get_SubSecondsShadow_Securely
 668               	Timebase_Timer_Get_SubSecondsShadow_Securely:
 669               	.LFB21:
 670               	.LM114:
 671               	/* prologue: function */
 672               	/* frame size = 0 */
 673               	.LM115:
 674 035a E091 0000 		lds r30,Timebase
 675 035e F091 0000 		lds r31,(Timebase)+1
 676               	.L46:
 677 0362 2089      		ldd r18,Z+16
 678 0364 3189      		ldd r19,Z+17
 679               	.LVL39:
 680               	.LM116:
 681 0366 8089      		ldd r24,Z+16
 682 0368 9189      		ldd r25,Z+17
 683               	.LVL40:
 684               	.LM117:
 685 036a 2817      		cp r18,r24
 686 036c 3907      		cpc r19,r25
 687 036e 01F4      		brne .L46
 688               	.LM118:
 689 0370 C901      		movw r24,r18
 690               	.LVL41:
 691               	/* epilogue start */
 692 0372 0895      		ret
 693               	.LFE21:
 695               	.global	Timebase_Timer_Get_SecondsShadow_Securely
 697               	Timebase_Timer_Get_SecondsShadow_Securely:
 698               	.LFB22:
 699               	.LM119:
 700               	/* prologue: function */
 701               	/* frame size = 0 */
 702               	.LM120:
 703 0374 E091 0000 		lds r30,Timebase
 704 0378 F091 0000 		lds r31,(Timebase)+1
 705               	.L50:
 706 037c 2289      		ldd r18,Z+18
 707 037e 3389      		ldd r19,Z+19
 708 0380 4489      		ldd r20,Z+20
 709 0382 5589      		ldd r21,Z+21
 710               	.LVL42:
 711               	.LM121:
 712 0384 8289      		ldd r24,Z+18
 713 0386 9389      		ldd r25,Z+19
 714 0388 A489      		ldd r26,Z+20
 715 038a B589      		ldd r27,Z+21
 716               	.LVL43:
 717               	.LM122:
 718 038c 2817      		cp r18,r24
 719 038e 3907      		cpc r19,r25
 720 0390 4A07      		cpc r20,r26
 721 0392 5B07      		cpc r21,r27
 722 0394 01F4      		brne .L50
 723               	.LM123:
 724 0396 B901      		movw r22,r18
 725               	.LVL44:
 726 0398 CA01      		movw r24,r20
 727               	.LVL45:
 728               	/* epilogue start */
 729 039a 0895      		ret
 730               	.LFE22:
 732               	.global	Timebase_Timer_Sync_With_Shadow_Variables
 734               	Timebase_Timer_Sync_With_Shadow_Variables:
 735               	.LFB23:
 736               	.LM124:
 737               	/* prologue: function */
 738               	/* frame size = 0 */
 739               	.LM125:
 740 039c E091 0000 		lds r30,Timebase
 741 03a0 F091 0000 		lds r31,(Timebase)+1
 742 03a4 8689      		ldd r24,Z+22
 743 03a6 8823      		tst r24
 744 03a8 01F4      		brne .L55
 745               	.LBB434:
 746               	.LBB435:
 747               	.LM126:
 748               	/* #APP */
 749               	 ;  431 "timebase.c" 1
 750 03aa F894      		cli
 751               	 ;  0 "" 2
 752               	/* #NOAPP */
 753               	.LBE435:
 754               	.LBE434:
 755               	.LM127:
 756 03ac 8089      		ldd r24,Z+16
 757 03ae 9189      		ldd r25,Z+17
 758 03b0 9387      		std Z+11,r25
 759 03b2 8287      		std Z+10,r24
 760               	.LM128:
 761 03b4 8289      		ldd r24,Z+18
 762 03b6 9389      		ldd r25,Z+19
 763 03b8 A489      		ldd r26,Z+20
 764 03ba B589      		ldd r27,Z+21
 765 03bc 8487      		std Z+12,r24
 766 03be 9587      		std Z+13,r25
 767 03c0 A687      		std Z+14,r26
 768 03c2 B787      		std Z+15,r27
 769               	.LBB436:
 770               	.LBB437:
 771               	.LM129:
 772               	/* #APP */
 773               	 ;  436 "timebase.c" 1
 774 03c4 7894      		sei
 775               	 ;  0 "" 2
 776               	/* #NOAPP */
 777               	.LBE437:
 778               	.LBE436:
 779               	.LM130:
 780 03c6 81E0      		ldi r24,lo8(1)
 781 03c8 868B      		std Z+22,r24
 782               	.L55:
 783 03ca 0895      		ret
 784               	.LFE23:
 786               	.global	Timebase_Timer_Delay_SubSeconds
 788               	Timebase_Timer_Delay_SubSeconds:
 789               	.LFB24:
 790               	.LM131:
 791               	.LVL46:
 792 03cc 6F92      		push r6
 793 03ce 7F92      		push r7
 794 03d0 8F92      		push r8
 795 03d2 9F92      		push r9
 796 03d4 AF92      		push r10
 797 03d6 BF92      		push r11
 798 03d8 CF92      		push r12
 799 03da DF92      		push r13
 800 03dc EF92      		push r14
 801 03de FF92      		push r15
 802 03e0 0F93      		push r16
 803 03e2 1F93      		push r17
 804 03e4 CF93      		push r28
 805 03e6 DF93      		push r29
 806               	/* prologue: function */
 807               	/* frame size = 0 */
 808 03e8 5C01      		movw r10,r24
 809               	.LBB438:
 810               	.LBB439:
 811               	.LM132:
 812               	/* #APP */
 813               	 ;  431 "timebase.c" 1
 814 03ea F894      		cli
 815               	 ;  0 "" 2
 816               	/* #NOAPP */
 817               	.LBE439:
 818               	.LBE438:
 819               	.LBB440:
 820               	.LBB441:
 821               	.LM133:
 822 03ec C091 0000 		lds r28,Timebase
 823 03f0 D091 0000 		lds r29,(Timebase)+1
 824 03f4 E888      		ldd r14,Y+16
 825 03f6 F988      		ldd r15,Y+17
 826               	.LBE441:
 827               	.LBE440:
 828               	.LBB442:
 829               	.LBB443:
 830               	.LM134:
 831 03f8 2A89      		ldd r18,Y+18
 832 03fa 3B89      		ldd r19,Y+19
 833 03fc 4C89      		ldd r20,Y+20
 834 03fe 5D89      		ldd r21,Y+21
 835               	.LVL47:
 836               	.LBE443:
 837               	.LBE442:
 838               	.LBB444:
 839               	.LBB445:
 840               	.LM135:
 841               	/* #APP */
 842               	 ;  436 "timebase.c" 1
 843 0400 7894      		sei
 844               	 ;  0 "" 2
 845               	/* #NOAPP */
 846               	.LBE445:
 847               	.LBE444:
 848               	.LM136:
 849 0402 6881      		ld r22,Y
 850 0404 7981      		ldd r23,Y+1
 851 0406 80E0      		ldi r24,lo8(0)
 852 0408 90E0      		ldi r25,hi8(0)
 853               	.LVL48:
 854 040a 0E94 0000 		call __mulsi3
 855               	.LVL49:
 856 040e 3B01      		movw r6,r22
 857 0410 4C01      		movw r8,r24
 858               	.LVL50:
 859               	.LM137:
 860 0412 00E0      		ldi r16,lo8(0)
 861 0414 10E0      		ldi r17,hi8(0)
 862 0416 6E0C      		add r6,r14
 863 0418 7F1C      		adc r7,r15
 864 041a 801E      		adc r8,r16
 865 041c 911E      		adc r9,r17
 866               	.LM138:
 867 041e CC24      		clr r12
 868 0420 DD24      		clr r13
 869               	.LVL51:
 870 0422 6A0C      		add r6,r10
 871 0424 7B1C      		adc r7,r11
 872 0426 8C1C      		adc r8,r12
 873 0428 9D1C      		adc r9,r13
 874 042a 60E0      		ldi r22,lo8(0)
 875 042c 70E0      		ldi r23,hi8(0)
 876 042e 80E0      		ldi r24,hlo8(0)
 877 0430 90E0      		ldi r25,hhi8(0)
 878               	.LVL52:
 879 0432 00C0      		rjmp .L57
 880               	.L58:
 881               	.LBB446:
 882               	.LBB447:
 883               	.LM139:
 884               	/* #APP */
 885               	 ;  431 "timebase.c" 1
 886 0434 F894      		cli
 887               	 ;  0 "" 2
 888               	/* #NOAPP */
 889               	.LBE447:
 890               	.LBE446:
 891               	.LBB448:
 892               	.LBB449:
 893               	.LM140:
 894 0436 E888      		ldd r14,Y+16
 895 0438 F988      		ldd r15,Y+17
 896               	.LBE449:
 897               	.LBE448:
 898               	.LBB450:
 899               	.LBB451:
 900               	.LM141:
 901 043a 2A89      		ldd r18,Y+18
 902 043c 3B89      		ldd r19,Y+19
 903 043e 4C89      		ldd r20,Y+20
 904 0440 5D89      		ldd r21,Y+21
 905               	.LVL53:
 906               	.LBE451:
 907               	.LBE450:
 908               	.LBB452:
 909               	.LBB453:
 910               	.LM142:
 911               	/* #APP */
 912               	 ;  436 "timebase.c" 1
 913 0442 7894      		sei
 914               	 ;  0 "" 2
 915               	/* #NOAPP */
 916               	.LBE453:
 917               	.LBE452:
 918               	.LM143:
 919 0444 6881      		ld r22,Y
 920 0446 7981      		ldd r23,Y+1
 921               	.LVL54:
 922 0448 80E0      		ldi r24,lo8(0)
 923 044a 90E0      		ldi r25,hi8(0)
 924 044c 0E94 0000 		call __mulsi3
 925               	.LVL55:
 926               	.LM144:
 927 0450 00E0      		ldi r16,lo8(0)
 928 0452 10E0      		ldi r17,hi8(0)
 929 0454 6E0D      		add r22,r14
 930 0456 7F1D      		adc r23,r15
 931 0458 801F      		adc r24,r16
 932 045a 911F      		adc r25,r17
 933               	.LVL56:
 934               	.L57:
 935               	.LM145:
 936 045c 6615      		cp r22,r6
 937 045e 7705      		cpc r23,r7
 938 0460 8805      		cpc r24,r8
 939 0462 9905      		cpc r25,r9
 940 0464 04F0      		brlt .L58
 941               	/* epilogue start */
 942               	.LM146:
 943 0466 DF91      		pop r29
 944 0468 CF91      		pop r28
 945 046a 1F91      		pop r17
 946 046c 0F91      		pop r16
 947 046e FF90      		pop r15
 948 0470 EF90      		pop r14
 949 0472 DF90      		pop r13
 950 0474 CF90      		pop r12
 951               	.LVL57:
 952 0476 BF90      		pop r11
 953 0478 AF90      		pop r10
 954               	.LVL58:
 955 047a 9F90      		pop r9
 956 047c 8F90      		pop r8
 957 047e 7F90      		pop r7
 958 0480 6F90      		pop r6
 959               	.LVL59:
 960 0482 0895      		ret
 961               	.LFE24:
 963               	.global	Timebase_Timer_Await_SubSeconds
 965               	Timebase_Timer_Await_SubSeconds:
 966               	.LFB25:
 967               	.LM147:
 968               	.LVL60:
 969               	/* prologue: function */
 970               	/* frame size = 0 */
 971 0484 BC01      		movw r22,r24
 972               	.LBB454:
 973               	.LBB455:
 974               	.LM148:
 975               	/* #APP */
 976               	 ;  431 "timebase.c" 1
 977 0486 F894      		cli
 978               	 ;  0 "" 2
 979               	/* #NOAPP */
 980               	.LBE455:
 981               	.LBE454:
 982               	.LBB456:
 983               	.LBB457:
 984               	.LM149:
 985 0488 E091 0000 		lds r30,Timebase
 986 048c F091 0000 		lds r31,(Timebase)+1
 987 0490 00C0      		rjmp .L65
 988               	.LVL61:
 989               	.L62:
 990               	.LBE457:
 991               	.LBE456:
 992               	.LBB458:
 993               	.LBB459:
 994               	.LM150:
 995               	/* #APP */
 996               	 ;  431 "timebase.c" 1
 997 0492 F894      		cli
 998               	 ;  0 "" 2
 999               	.LVL62:
 1000               	/* #NOAPP */
 1001               	.L65:
 1002               	.LBE459:
 1003               	.LBE458:
 1004               	.LBB460:
 1005               	.LBB461:
 1006               	.LM151:
 1007 0494 8089      		ldd r24,Z+16
 1008 0496 9189      		ldd r25,Z+17
 1009               	.LBE461:
 1010               	.LBE460:
 1011               	.LBB462:
 1012               	.LBB463:
 1013               	.LM152:
 1014               	/* #APP */
 1015               	 ;  436 "timebase.c" 1
 1016 0498 7894      		sei
 1017               	 ;  0 "" 2
 1018               	/* #NOAPP */
 1019               	.LBE463:
 1020               	.LBE462:
 1021               	.LM153:
 1022 049a 2681      		ldd r18,Z+6
 1023 049c 3781      		ldd r19,Z+7
 1024 049e 4085      		ldd r20,Z+8
 1025 04a0 5185      		ldd r21,Z+9
 1026 04a2 A0E0      		ldi r26,lo8(0)
 1027 04a4 B0E0      		ldi r27,hi8(0)
 1028 04a6 8217      		cp r24,r18
 1029 04a8 9307      		cpc r25,r19
 1030 04aa A407      		cpc r26,r20
 1031 04ac B507      		cpc r27,r21
 1032 04ae 01F4      		brne .L62
 1033               	.LBB464:
 1034               	.LBB465:
 1035               	.LM154:
 1036               	/* #APP */
 1037               	 ;  431 "timebase.c" 1
 1038 04b0 F894      		cli
 1039               	 ;  0 "" 2
 1040               	/* #NOAPP */
 1041               	.LBE465:
 1042               	.LBE464:
 1043               	.LBB466:
 1044               	.LBB467:
 1045               	.LM155:
 1046 04b2 8089      		ldd r24,Z+16
 1047 04b4 9189      		ldd r25,Z+17
 1048               	.LVL63:
 1049               	.LBE467:
 1050               	.LBE466:
 1051               	.LBB468:
 1052               	.LBB469:
 1053               	.LM156:
 1054               	/* #APP */
 1055               	 ;  436 "timebase.c" 1
 1056 04b6 7894      		sei
 1057               	 ;  0 "" 2
 1058               	/* #NOAPP */
 1059               	.LBE469:
 1060               	.LBE468:
 1061               	.LM157:
 1062 04b8 A0E0      		ldi r26,lo8(0)
 1063 04ba B0E0      		ldi r27,hi8(0)
 1064               	.LVL64:
 1065 04bc 8683      		std Z+6,r24
 1066 04be 9783      		std Z+7,r25
 1067 04c0 A087      		std Z+8,r26
 1068 04c2 B187      		std Z+9,r27
 1069               	.LVL65:
 1070               	.LM158:
 1071 04c4 2681      		ldd r18,Z+6
 1072 04c6 3781      		ldd r19,Z+7
 1073 04c8 4085      		ldd r20,Z+8
 1074 04ca 5185      		ldd r21,Z+9
 1075 04cc CB01      		movw r24,r22
 1076 04ce A0E0      		ldi r26,lo8(0)
 1077 04d0 B0E0      		ldi r27,hi8(0)
 1078               	.LVL66:
 1079 04d2 820F      		add r24,r18
 1080 04d4 931F      		adc r25,r19
 1081 04d6 A41F      		adc r26,r20
 1082 04d8 B51F      		adc r27,r21
 1083               	.LVL67:
 1084 04da 8683      		std Z+6,r24
 1085 04dc 9783      		std Z+7,r25
 1086 04de A087      		std Z+8,r26
 1087 04e0 B187      		std Z+9,r27
 1088               	.LM159:
 1089 04e2 2681      		ldd r18,Z+6
 1090 04e4 3781      		ldd r19,Z+7
 1091 04e6 4085      		ldd r20,Z+8
 1092 04e8 5185      		ldd r21,Z+9
 1093 04ea 8081      		ld r24,Z
 1094 04ec 9181      		ldd r25,Z+1
 1095               	.LVL68:
 1096 04ee A0E0      		ldi r26,lo8(0)
 1097 04f0 B0E0      		ldi r27,hi8(0)
 1098               	.LVL69:
 1099 04f2 2817      		cp r18,r24
 1100 04f4 3907      		cpc r19,r25
 1101 04f6 4A07      		cpc r20,r26
 1102 04f8 5B07      		cpc r21,r27
 1103 04fa 04F0      		brlt .L64
 1104               	.LM160:
 1105 04fc 2681      		ldd r18,Z+6
 1106 04fe 3781      		ldd r19,Z+7
 1107 0500 4085      		ldd r20,Z+8
 1108 0502 5185      		ldd r21,Z+9
 1109 0504 8081      		ld r24,Z
 1110 0506 9181      		ldd r25,Z+1
 1111 0508 A0E0      		ldi r26,lo8(0)
 1112 050a B0E0      		ldi r27,hi8(0)
 1113 050c 281B      		sub r18,r24
 1114 050e 390B      		sbc r19,r25
 1115 0510 4A0B      		sbc r20,r26
 1116 0512 5B0B      		sbc r21,r27
 1117 0514 2683      		std Z+6,r18
 1118 0516 3783      		std Z+7,r19
 1119 0518 4087      		std Z+8,r20
 1120 051a 5187      		std Z+9,r21
 1121               	.L64:
 1122 051c 0895      		ret
 1123               	.LFE25:
 1125               	.global	Timebase_Timer_Delay_Seconds
 1127               	Timebase_Timer_Delay_Seconds:
 1128               	.LFB26:
 1129               	.LM161:
 1130               	.LVL70:
 1131               	/* prologue: function */
 1132               	/* frame size = 0 */
 1133               	.LBB470:
 1134               	.LBB471:
 1135               	.LM162:
 1136               	/* #APP */
 1137               	 ;  431 "timebase.c" 1
 1138 051e F894      		cli
 1139               	 ;  0 "" 2
 1140               	/* #NOAPP */
 1141               	.LBE471:
 1142               	.LBE470:
 1143               	.LBB472:
 1144               	.LBB473:
 1145               	.LM163:
 1146 0520 E091 0000 		lds r30,Timebase
 1147 0524 F091 0000 		lds r31,(Timebase)+1
 1148 0528 2289      		ldd r18,Z+18
 1149 052a 3389      		ldd r19,Z+19
 1150 052c 4489      		ldd r20,Z+20
 1151 052e 5589      		ldd r21,Z+21
 1152               	.LVL71:
 1153               	.LBE473:
 1154               	.LBE472:
 1155               	.LBB474:
 1156               	.LBB475:
 1157               	.LM164:
 1158               	/* #APP */
 1159               	 ;  436 "timebase.c" 1
 1160 0530 7894      		sei
 1161               	 ;  0 "" 2
 1162               	/* #NOAPP */
 1163               	.LBE475:
 1164               	.LBE474:
 1165               	.LM165:
 1166 0532 A0E0      		ldi r26,lo8(0)
 1167 0534 B0E0      		ldi r27,hi8(0)
 1168               	.LVL72:
 1169 0536 820F      		add r24,r18
 1170 0538 931F      		adc r25,r19
 1171 053a A41F      		adc r26,r20
 1172 053c B51F      		adc r27,r21
 1173               	.LVL73:
 1174 053e 20E0      		ldi r18,lo8(0)
 1175 0540 30E0      		ldi r19,hi8(0)
 1176 0542 40E0      		ldi r20,hlo8(0)
 1177 0544 50E0      		ldi r21,hhi8(0)
 1178               	.LVL74:
 1179 0546 00C0      		rjmp .L67
 1180               	.L68:
 1181               	.LBB476:
 1182               	.LBB477:
 1183               	.LM166:
 1184               	/* #APP */
 1185               	 ;  431 "timebase.c" 1
 1186 0548 F894      		cli
 1187               	 ;  0 "" 2
 1188               	/* #NOAPP */
 1189               	.LBE477:
 1190               	.LBE476:
 1191               	.LBB478:
 1192               	.LBB479:
 1193               	.LM167:
 1194 054a 2289      		ldd r18,Z+18
 1195 054c 3389      		ldd r19,Z+19
 1196 054e 4489      		ldd r20,Z+20
 1197 0550 5589      		ldd r21,Z+21
 1198               	.LBE479:
 1199               	.LBE478:
 1200               	.LBB480:
 1201               	.LBB481:
 1202               	.LM168:
 1203               	/* #APP */
 1204               	 ;  436 "timebase.c" 1
 1205 0552 7894      		sei
 1206               	 ;  0 "" 2
 1207               	/* #NOAPP */
 1208               	.L67:
 1209               	.LBE481:
 1210               	.LBE480:
 1211               	.LM169:
 1212 0554 2817      		cp r18,r24
 1213 0556 3907      		cpc r19,r25
 1214 0558 4A07      		cpc r20,r26
 1215 055a 5B07      		cpc r21,r27
 1216 055c 04F0      		brlt .L68
 1217               	/* epilogue start */
 1218               	.LM170:
 1219 055e 0895      		ret
 1220               	.LFE26:
 1222               	.global	Timebase_LPTimer_Get_SubSeconds
 1224               	Timebase_LPTimer_Get_SubSeconds:
 1225               	.LFB27:
 1226               	.LM171:
 1227               	/* prologue: function */
 1228               	/* frame size = 0 */
 1229               	.LM172:
 1230 0560 E091 0000 		lds r30,Timebase
 1231 0564 F091 0000 		lds r31,(Timebase)+1
 1232               	.L71:
 1233 0568 2789      		ldd r18,Z+23
 1234 056a 308D      		ldd r19,Z+24
 1235               	.LVL75:
 1236               	.LM173:
 1237 056c 8789      		ldd r24,Z+23
 1238 056e 908D      		ldd r25,Z+24
 1239               	.LVL76:
 1240               	.LM174:
 1241 0570 2817      		cp r18,r24
 1242 0572 3907      		cpc r19,r25
 1243 0574 01F4      		brne .L71
 1244               	.LM175:
 1245 0576 C901      		movw r24,r18
 1246               	.LVL77:
 1247               	/* epilogue start */
 1248 0578 0895      		ret
 1249               	.LFE27:
 1251               	.global	Timebase_LPTimer_Get_Seconds
 1253               	Timebase_LPTimer_Get_Seconds:
 1254               	.LFB28:
 1255               	.LM176:
 1256               	/* prologue: function */
 1257               	/* frame size = 0 */
 1258               	.LM177:
 1259 057a E091 0000 		lds r30,Timebase
 1260 057e F091 0000 		lds r31,(Timebase)+1
 1261               	.L75:
 1262 0582 218D      		ldd r18,Z+25
 1263 0584 328D      		ldd r19,Z+26
 1264 0586 438D      		ldd r20,Z+27
 1265 0588 548D      		ldd r21,Z+28
 1266               	.LVL78:
 1267               	.LM178:
 1268 058a 818D      		ldd r24,Z+25
 1269 058c 928D      		ldd r25,Z+26
 1270 058e A38D      		ldd r26,Z+27
 1271 0590 B48D      		ldd r27,Z+28
 1272               	.LVL79:
 1273               	.LM179:
 1274 0592 2817      		cp r18,r24
 1275 0594 3907      		cpc r19,r25
 1276 0596 4A07      		cpc r20,r26
 1277 0598 5B07      		cpc r21,r27
 1278 059a 01F4      		brne .L75
 1279               	.LM180:
 1280 059c B901      		movw r22,r18
 1281               	.LVL80:
 1282 059e CA01      		movw r24,r20
 1283               	.LVL81:
 1284               	/* epilogue start */
 1285 05a0 0895      		ret
 1286               	.LFE28:
 1288               	.global	Timebase_LPTimer_Set_SubSeconds
 1290               	Timebase_LPTimer_Set_SubSeconds:
 1291               	.LFB29:
 1292               	.LM181:
 1293               	.LVL82:
 1294               	/* prologue: function */
 1295               	/* frame size = 0 */
 1296               	.LM182:
 1297 05a2 E091 0000 		lds r30,Timebase
 1298 05a6 F091 0000 		lds r31,(Timebase)+1
 1299 05aa 908F      		std Z+24,r25
 1300 05ac 878B      		std Z+23,r24
 1301               	/* epilogue start */
 1302               	.LM183:
 1303 05ae 0895      		ret
 1304               	.LFE29:
 1306               	.global	Timebase_LPTimer_Set_Seconds
 1308               	Timebase_LPTimer_Set_Seconds:
 1309               	.LFB30:
 1310               	.LM184:
 1311               	.LVL83:
 1312               	/* prologue: function */
 1313               	/* frame size = 0 */
 1314               	.LM185:
 1315 05b0 E091 0000 		lds r30,Timebase
 1316 05b4 F091 0000 		lds r31,(Timebase)+1
 1317 05b8 618F      		std Z+25,r22
 1318 05ba 728F      		std Z+26,r23
 1319 05bc 838F      		std Z+27,r24
 1320 05be 948F      		std Z+28,r25
 1321               	/* epilogue start */
 1322               	.LM186:
 1323 05c0 0895      		ret
 1324               	.LFE30:
 1326               	.global	Timebase_LPTimer_Delay_Seconds
 1328               	Timebase_LPTimer_Delay_Seconds:
 1329               	.LFB31:
 1330               	.LM187:
 1331               	.LVL84:
 1332 05c2 EF92      		push r14
 1333 05c4 FF92      		push r15
 1334 05c6 0F93      		push r16
 1335 05c8 1F93      		push r17
 1336               	/* prologue: function */
 1337               	/* frame size = 0 */
 1338 05ca BC01      		movw r22,r24
 1339               	.LBB482:
 1340               	.LBB483:
 1341               	.LM188:
 1342               	/* #APP */
 1343               	 ;  431 "timebase.c" 1
 1344 05cc F894      		cli
 1345               	 ;  0 "" 2
 1346               	/* #NOAPP */
 1347               	.LBE483:
 1348               	.LBE482:
 1349               	.LBB484:
 1350               	.LBB485:
 1351               	.LM189:
 1352 05ce E091 0000 		lds r30,Timebase
 1353 05d2 F091 0000 		lds r31,(Timebase)+1
 1354               	.LVL85:
 1355               	.L83:
 1356 05d6 218D      		ldd r18,Z+25
 1357 05d8 328D      		ldd r19,Z+26
 1358 05da 438D      		ldd r20,Z+27
 1359 05dc 548D      		ldd r21,Z+28
 1360               	.LVL86:
 1361               	.LM190:
 1362 05de 818D      		ldd r24,Z+25
 1363 05e0 928D      		ldd r25,Z+26
 1364 05e2 A38D      		ldd r26,Z+27
 1365 05e4 B48D      		ldd r27,Z+28
 1366               	.LVL87:
 1367               	.LM191:
 1368 05e6 2817      		cp r18,r24
 1369 05e8 3907      		cpc r19,r25
 1370 05ea 4A07      		cpc r20,r26
 1371 05ec 5B07      		cpc r21,r27
 1372 05ee 01F4      		brne .L83
 1373               	.LBE485:
 1374               	.LBE484:
 1375               	.LBB486:
 1376               	.LBB487:
 1377               	.LM192:
 1378               	/* #APP */
 1379               	 ;  436 "timebase.c" 1
 1380 05f0 7894      		sei
 1381               	 ;  0 "" 2
 1382               	/* #NOAPP */
 1383               	.LBE487:
 1384               	.LBE486:
 1385               	.LM193:
 1386 05f2 7B01      		movw r14,r22
 1387               	.LVL88:
 1388 05f4 00E0      		ldi r16,lo8(0)
 1389 05f6 10E0      		ldi r17,hi8(0)
 1390               	.LVL89:
 1391 05f8 E20E      		add r14,r18
 1392 05fa F31E      		adc r15,r19
 1393 05fc 041F      		adc r16,r20
 1394 05fe 151F      		adc r17,r21
 1395               	.LVL90:
 1396 0600 20E0      		ldi r18,lo8(0)
 1397 0602 30E0      		ldi r19,hi8(0)
 1398 0604 40E0      		ldi r20,hlo8(0)
 1399 0606 50E0      		ldi r21,hhi8(0)
 1400               	.LVL91:
 1401 0608 00C0      		rjmp .L84
 1402               	.LVL92:
 1403               	.L86:
 1404               	.LBB488:
 1405               	.LBB489:
 1406               	.LM194:
 1407               	/* #APP */
 1408               	 ;  431 "timebase.c" 1
 1409 060a F894      		cli
 1410               	 ;  0 "" 2
 1411               	/* #NOAPP */
 1412               	.L85:
 1413               	.LBE489:
 1414               	.LBE488:
 1415               	.LBB490:
 1416               	.LBB491:
 1417               	.LM195:
 1418 060c 218D      		ldd r18,Z+25
 1419 060e 328D      		ldd r19,Z+26
 1420 0610 438D      		ldd r20,Z+27
 1421 0612 548D      		ldd r21,Z+28
 1422               	.LM196:
 1423 0614 818D      		ldd r24,Z+25
 1424 0616 928D      		ldd r25,Z+26
 1425 0618 A38D      		ldd r26,Z+27
 1426 061a B48D      		ldd r27,Z+28
 1427               	.LVL93:
 1428               	.LM197:
 1429 061c 2817      		cp r18,r24
 1430 061e 3907      		cpc r19,r25
 1431 0620 4A07      		cpc r20,r26
 1432 0622 5B07      		cpc r21,r27
 1433 0624 01F4      		brne .L85
 1434               	.LBE491:
 1435               	.LBE490:
 1436               	.LBB492:
 1437               	.LBB493:
 1438               	.LM198:
 1439               	/* #APP */
 1440               	 ;  436 "timebase.c" 1
 1441 0626 7894      		sei
 1442               	 ;  0 "" 2
 1443               	.LVL94:
 1444               	/* #NOAPP */
 1445               	.L84:
 1446               	.LBE493:
 1447               	.LBE492:
 1448               	.LM199:
 1449 0628 2E15      		cp r18,r14
 1450 062a 3F05      		cpc r19,r15
 1451 062c 4007      		cpc r20,r16
 1452 062e 5107      		cpc r21,r17
 1453 0630 04F0      		brlt .L86
 1454               	/* epilogue start */
 1455               	.LM200:
 1456 0632 1F91      		pop r17
 1457 0634 0F91      		pop r16
 1458               	.LVL95:
 1459 0636 FF90      		pop r15
 1460 0638 EF90      		pop r14
 1461               	.LVL96:
 1462 063a 0895      		ret
 1463               	.LFE31:
 1465               	.global	Timebase_DownCounter_SS_Get_Status
 1467               	Timebase_DownCounter_SS_Get_Status:
 1468               	.LFB32:
 1469               	.LM201:
 1470               	.LVL97:
 1471               	/* prologue: function */
 1472               	/* frame size = 0 */
 1473               	.LM202:
 1474 063c E091 0000 		lds r30,Timebase
 1475 0640 F091 0000 		lds r31,(Timebase)+1
 1476 0644 90E0      		ldi r25,lo8(0)
 1477               	.LVL98:
 1478 0646 25E1      		ldi r18,lo8(21)
 1479 0648 30E0      		ldi r19,hi8(21)
 1480 064a AC01      		movw r20,r24
 1481 064c 429F      		mul r20,r18
 1482 064e C001      		movw r24,r0
 1483 0650 439F      		mul r20,r19
 1484 0652 900D      		add r25,r0
 1485 0654 529F      		mul r21,r18
 1486 0656 900D      		add r25,r0
 1487 0658 1124      		clr r1
 1488               	.LVL99:
 1489 065a E80F      		add r30,r24
 1490 065c F91F      		adc r31,r25
 1491 065e 868D      		ldd r24,Z+30
 1492 0660 8695      		lsr r24
 1493               	.LM203:
 1494 0662 8F70      		andi r24,lo8(15)
 1495               	/* epilogue start */
 1496 0664 0895      		ret
 1497               	.LFE32:
 1499               	.global	Timebase_DownCounter_SS_Set_Status
 1501               	Timebase_DownCounter_SS_Set_Status:
 1502               	.LFB33:
 1503               	.LM204:
 1504               	.LVL100:
 1505               	/* prologue: function */
 1506               	/* frame size = 0 */
 1507               	.LM205:
 1508 0666 E091 0000 		lds r30,Timebase
 1509 066a F091 0000 		lds r31,(Timebase)+1
 1510 066e 90E0      		ldi r25,lo8(0)
 1511               	.LVL101:
 1512 0670 25E1      		ldi r18,lo8(21)
 1513 0672 30E0      		ldi r19,hi8(21)
 1514 0674 AC01      		movw r20,r24
 1515 0676 429F      		mul r20,r18
 1516 0678 C001      		movw r24,r0
 1517 067a 439F      		mul r20,r19
 1518 067c 900D      		add r25,r0
 1519 067e 529F      		mul r21,r18
 1520 0680 900D      		add r25,r0
 1521 0682 1124      		clr r1
 1522               	.LVL102:
 1523 0684 E80F      		add r30,r24
 1524 0686 F91F      		adc r31,r25
 1525 0688 6F70      		andi r22,lo8(15)
 1526               	.LVL103:
 1527 068a 660F      		lsl r22
 1528 068c 868D      		ldd r24,Z+30
 1529 068e 817E      		andi r24,lo8(-31)
 1530 0690 862B      		or r24,r22
 1531 0692 868F      		std Z+30,r24
 1532               	/* epilogue start */
 1533               	.LM206:
 1534 0694 0895      		ret
 1535               	.LFE33:
 1537               	.global	Timebase_DownCounter_SS_Get_Value
 1539               	Timebase_DownCounter_SS_Get_Value:
 1540               	.LFB34:
 1541               	.LM207:
 1542               	.LVL104:
 1543               	/* prologue: function */
 1544               	/* frame size = 0 */
 1545               	.LM208:
 1546 0696 E091 0000 		lds r30,Timebase
 1547 069a F091 0000 		lds r31,(Timebase)+1
 1548 069e 90E0      		ldi r25,lo8(0)
 1549               	.LVL105:
 1550 06a0 25E1      		ldi r18,lo8(21)
 1551 06a2 30E0      		ldi r19,hi8(21)
 1552 06a4 AC01      		movw r20,r24
 1553 06a6 429F      		mul r20,r18
 1554 06a8 C001      		movw r24,r0
 1555 06aa 439F      		mul r20,r19
 1556 06ac 900D      		add r25,r0
 1557 06ae 529F      		mul r21,r18
 1558 06b0 900D      		add r25,r0
 1559 06b2 1124      		clr r1
 1560               	.LVL106:
 1561 06b4 E80F      		add r30,r24
 1562 06b6 F91F      		adc r31,r25
 1563 06b8 DF01      		movw r26,r30
 1564 06ba 9796      		adiw r26,39
 1565 06bc 67A1      		ldd r22,Z+39
 1566 06be 1196      		adiw r26,1
 1567 06c0 7C91      		ld r23,X
 1568 06c2 1197      		sbiw r26,1
 1569               	.LM209:
 1570 06c4 1296      		adiw r26,2
 1571 06c6 8C91      		ld r24,X
 1572 06c8 1297      		sbiw r26,2
 1573 06ca 1396      		adiw r26,3
 1574 06cc 9C91      		ld r25,X
 1575               	.LVL107:
 1576               	/* epilogue start */
 1577 06ce 0895      		ret
 1578               	.LFE34:
 1580               	.global	Timebase_DownCounter_SS_Set_Value
 1582               	Timebase_DownCounter_SS_Set_Value:
 1583               	.LFB35:
 1584               	.LM210:
 1585               	.LVL108:
 1586               	/* prologue: function */
 1587               	/* frame size = 0 */
 1588               	.LM211:
 1589 06d0 E091 0000 		lds r30,Timebase
 1590 06d4 F091 0000 		lds r31,(Timebase)+1
 1591 06d8 90E0      		ldi r25,lo8(0)
 1592               	.LVL109:
 1593 06da 25E1      		ldi r18,lo8(21)
 1594 06dc 30E0      		ldi r19,hi8(21)
 1595 06de DC01      		movw r26,r24
 1596 06e0 A29F      		mul r26,r18
 1597 06e2 C001      		movw r24,r0
 1598 06e4 A39F      		mul r26,r19
 1599 06e6 900D      		add r25,r0
 1600 06e8 B29F      		mul r27,r18
 1601 06ea 900D      		add r25,r0
 1602 06ec 1124      		clr r1
 1603               	.LVL110:
 1604 06ee E80F      		add r30,r24
 1605 06f0 F91F      		adc r31,r25
 1606 06f2 47A3      		std Z+39,r20
 1607 06f4 50A7      		std Z+40,r21
 1608 06f6 61A7      		std Z+41,r22
 1609 06f8 72A7      		std Z+42,r23
 1610               	/* epilogue start */
 1611               	.LM212:
 1612 06fa 0895      		ret
 1613               	.LFE35:
 1615               	.global	Timebase_DownCounter_SS_Get_EndValueSec
 1617               	Timebase_DownCounter_SS_Get_EndValueSec:
 1618               	.LFB36:
 1619               	.LM213:
 1620               	.LVL111:
 1621               	/* prologue: function */
 1622               	/* frame size = 0 */
 1623               	.LM214:
 1624 06fc E091 0000 		lds r30,Timebase
 1625 0700 F091 0000 		lds r31,(Timebase)+1
 1626 0704 90E0      		ldi r25,lo8(0)
 1627               	.LVL112:
 1628 0706 25E1      		ldi r18,lo8(21)
 1629 0708 30E0      		ldi r19,hi8(21)
 1630 070a AC01      		movw r20,r24
 1631 070c 429F      		mul r20,r18
 1632 070e C001      		movw r24,r0
 1633 0710 439F      		mul r20,r19
 1634 0712 900D      		add r25,r0
 1635 0714 529F      		mul r21,r18
 1636 0716 900D      		add r25,r0
 1637 0718 1124      		clr r1
 1638               	.LVL113:
 1639 071a E80F      		add r30,r24
 1640 071c F91F      		adc r31,r25
 1641 071e DF01      		movw r26,r30
 1642 0720 5F96      		adiw r26,31
 1643 0722 678D      		ldd r22,Z+31
 1644 0724 1196      		adiw r26,1
 1645 0726 7C91      		ld r23,X
 1646 0728 1197      		sbiw r26,1
 1647               	.LM215:
 1648 072a 1296      		adiw r26,2
 1649 072c 8C91      		ld r24,X
 1650 072e 1297      		sbiw r26,2
 1651 0730 1396      		adiw r26,3
 1652 0732 9C91      		ld r25,X
 1653               	.LVL114:
 1654               	/* epilogue start */
 1655 0734 0895      		ret
 1656               	.LFE36:
 1658               	.global	Timebase_DownCounter_SS_Get_EndValueSubSec
 1660               	Timebase_DownCounter_SS_Get_EndValueSubSec:
 1661               	.LFB37:
 1662               	.LM216:
 1663               	.LVL115:
 1664               	/* prologue: function */
 1665               	/* frame size = 0 */
 1666               	.LM217:
 1667 0736 E091 0000 		lds r30,Timebase
 1668 073a F091 0000 		lds r31,(Timebase)+1
 1669 073e 90E0      		ldi r25,lo8(0)
 1670               	.LVL116:
 1671 0740 25E1      		ldi r18,lo8(21)
 1672 0742 30E0      		ldi r19,hi8(21)
 1673 0744 AC01      		movw r20,r24
 1674 0746 429F      		mul r20,r18
 1675 0748 C001      		movw r24,r0
 1676 074a 439F      		mul r20,r19
 1677 074c 900D      		add r25,r0
 1678 074e 529F      		mul r21,r18
 1679 0750 900D      		add r25,r0
 1680 0752 1124      		clr r1
 1681               	.LVL117:
 1682 0754 E80F      		add r30,r24
 1683 0756 F91F      		adc r31,r25
 1684 0758 DF01      		movw r26,r30
 1685 075a 9396      		adiw r26,35
 1686 075c 63A1      		ldd r22,Z+35
 1687 075e 1196      		adiw r26,1
 1688 0760 7C91      		ld r23,X
 1689 0762 1197      		sbiw r26,1
 1690               	.LM218:
 1691 0764 1296      		adiw r26,2
 1692 0766 8C91      		ld r24,X
 1693 0768 1297      		sbiw r26,2
 1694 076a 1396      		adiw r26,3
 1695 076c 9C91      		ld r25,X
 1696               	.LVL118:
 1697               	/* epilogue start */
 1698 076e 0895      		ret
 1699               	.LFE37:
 1701               	.global	Timebase_DownCounter_SS_Set_EndValueSec
 1703               	Timebase_DownCounter_SS_Set_EndValueSec:
 1704               	.LFB38:
 1705               	.LM219:
 1706               	.LVL119:
 1707               	/* prologue: function */
 1708               	/* frame size = 0 */
 1709               	.LM220:
 1710 0770 E091 0000 		lds r30,Timebase
 1711 0774 F091 0000 		lds r31,(Timebase)+1
 1712 0778 90E0      		ldi r25,lo8(0)
 1713               	.LVL120:
 1714 077a 25E1      		ldi r18,lo8(21)
 1715 077c 30E0      		ldi r19,hi8(21)
 1716 077e DC01      		movw r26,r24
 1717 0780 A29F      		mul r26,r18
 1718 0782 C001      		movw r24,r0
 1719 0784 A39F      		mul r26,r19
 1720 0786 900D      		add r25,r0
 1721 0788 B29F      		mul r27,r18
 1722 078a 900D      		add r25,r0
 1723 078c 1124      		clr r1
 1724               	.LVL121:
 1725 078e E80F      		add r30,r24
 1726 0790 F91F      		adc r31,r25
 1727 0792 478F      		std Z+31,r20
 1728 0794 50A3      		std Z+32,r21
 1729 0796 61A3      		std Z+33,r22
 1730 0798 72A3      		std Z+34,r23
 1731               	/* epilogue start */
 1732               	.LM221:
 1733 079a 0895      		ret
 1734               	.LFE38:
 1736               	.global	Timebase_DownCounter_SS_Set_EndValueSubSec
 1738               	Timebase_DownCounter_SS_Set_EndValueSubSec:
 1739               	.LFB39:
 1740               	.LM222:
 1741               	.LVL122:
 1742               	/* prologue: function */
 1743               	/* frame size = 0 */
 1744               	.LM223:
 1745 079c E091 0000 		lds r30,Timebase
 1746 07a0 F091 0000 		lds r31,(Timebase)+1
 1747 07a4 90E0      		ldi r25,lo8(0)
 1748               	.LVL123:
 1749 07a6 25E1      		ldi r18,lo8(21)
 1750 07a8 30E0      		ldi r19,hi8(21)
 1751 07aa DC01      		movw r26,r24
 1752 07ac A29F      		mul r26,r18
 1753 07ae C001      		movw r24,r0
 1754 07b0 A39F      		mul r26,r19
 1755 07b2 900D      		add r25,r0
 1756 07b4 B29F      		mul r27,r18
 1757 07b6 900D      		add r25,r0
 1758 07b8 1124      		clr r1
 1759               	.LVL124:
 1760 07ba E80F      		add r30,r24
 1761 07bc F91F      		adc r31,r25
 1762 07be 43A3      		std Z+35,r20
 1763 07c0 54A3      		std Z+36,r21
 1764 07c2 65A3      		std Z+37,r22
 1765 07c4 76A3      		std Z+38,r23
 1766               	/* epilogue start */
 1767               	.LM224:
 1768 07c6 0895      		ret
 1769               	.LFE39:
 1771               	.global	Timebase_DownCounter_SS_Get_PeriodValue
 1773               	Timebase_DownCounter_SS_Get_PeriodValue:
 1774               	.LFB40:
 1775               	.LM225:
 1776               	.LVL125:
 1777               	/* prologue: function */
 1778               	/* frame size = 0 */
 1779               	.LM226:
 1780 07c8 E091 0000 		lds r30,Timebase
 1781 07cc F091 0000 		lds r31,(Timebase)+1
 1782 07d0 90E0      		ldi r25,lo8(0)
 1783               	.LVL126:
 1784 07d2 25E1      		ldi r18,lo8(21)
 1785 07d4 30E0      		ldi r19,hi8(21)
 1786 07d6 AC01      		movw r20,r24
 1787 07d8 429F      		mul r20,r18
 1788 07da C001      		movw r24,r0
 1789 07dc 439F      		mul r20,r19
 1790 07de 900D      		add r25,r0
 1791 07e0 529F      		mul r21,r18
 1792 07e2 900D      		add r25,r0
 1793 07e4 1124      		clr r1
 1794               	.LVL127:
 1795 07e6 E80F      		add r30,r24
 1796 07e8 F91F      		adc r31,r25
 1797 07ea DF01      		movw r26,r30
 1798 07ec 9B96      		adiw r26,43
 1799 07ee 63A5      		ldd r22,Z+43
 1800 07f0 1196      		adiw r26,1
 1801 07f2 7C91      		ld r23,X
 1802 07f4 1197      		sbiw r26,1
 1803               	.LM227:
 1804 07f6 1296      		adiw r26,2
 1805 07f8 8C91      		ld r24,X
 1806 07fa 1297      		sbiw r26,2
 1807 07fc 1396      		adiw r26,3
 1808 07fe 9C91      		ld r25,X
 1809               	.LVL128:
 1810               	/* epilogue start */
 1811 0800 0895      		ret
 1812               	.LFE40:
 1814               	.global	Timebase_DownCounter_SS_Set_PeriodValue
 1816               	Timebase_DownCounter_SS_Set_PeriodValue:
 1817               	.LFB41:
 1818               	.LM228:
 1819               	.LVL129:
 1820               	/* prologue: function */
 1821               	/* frame size = 0 */
 1822 0802 E091 0000 		lds r30,Timebase
 1823 0806 F091 0000 		lds r31,(Timebase)+1
 1824 080a 282F      		mov r18,r24
 1825 080c 30E0      		ldi r19,lo8(0)
 1826               	.LVL130:
 1827               	.LM229:
 1828 080e 77FF      		sbrs r23,7
 1829 0810 00C0      		rjmp .L109
 1830               	.LVL131:
 1831               	.LM230:
 1832 0812 85E1      		ldi r24,lo8(21)
 1833 0814 90E0      		ldi r25,hi8(21)
 1834 0816 AC01      		movw r20,r24
 1835               	.LVL132:
 1836 0818 249F      		mul r18,r20
 1837 081a C001      		movw r24,r0
 1838 081c 259F      		mul r18,r21
 1839 081e 900D      		add r25,r0
 1840 0820 349F      		mul r19,r20
 1841 0822 900D      		add r25,r0
 1842 0824 1124      		clr r1
 1843 0826 E80F      		add r30,r24
 1844 0828 F91F      		adc r31,r25
 1845 082a 13A6      		std Z+43,__zero_reg__
 1846 082c 14A6      		std Z+44,__zero_reg__
 1847 082e 15A6      		std Z+45,__zero_reg__
 1848 0830 16A6      		std Z+46,__zero_reg__
 1849 0832 0895      		ret
 1850               	.LVL133:
 1851               	.L109:
 1852               	.LM231:
 1853 0834 85E1      		ldi r24,lo8(21)
 1854 0836 90E0      		ldi r25,hi8(21)
 1855 0838 DC01      		movw r26,r24
 1856 083a 2A9F      		mul r18,r26
 1857 083c C001      		movw r24,r0
 1858 083e 2B9F      		mul r18,r27
 1859 0840 900D      		add r25,r0
 1860 0842 3A9F      		mul r19,r26
 1861 0844 900D      		add r25,r0
 1862 0846 1124      		clr r1
 1863 0848 E80F      		add r30,r24
 1864 084a F91F      		adc r31,r25
 1865 084c 43A7      		std Z+43,r20
 1866 084e 54A7      		std Z+44,r21
 1867 0850 65A7      		std Z+45,r22
 1868 0852 76A7      		std Z+46,r23
 1869 0854 0895      		ret
 1870               	.LFE41:
 1872               	.global	Timebase_DownCounter_SS_Get_Period_Flag
 1874               	Timebase_DownCounter_SS_Get_Period_Flag:
 1875               	.LFB42:
 1876               	.LM232:
 1877               	.LVL134:
 1878               	/* prologue: function */
 1879               	/* frame size = 0 */
 1880               	.LM233:
 1881 0856 E091 0000 		lds r30,Timebase
 1882 085a F091 0000 		lds r31,(Timebase)+1
 1883 085e 90E0      		ldi r25,lo8(0)
 1884               	.LVL135:
 1885 0860 25E1      		ldi r18,lo8(21)
 1886 0862 30E0      		ldi r19,hi8(21)
 1887 0864 AC01      		movw r20,r24
 1888 0866 429F      		mul r20,r18
 1889 0868 C001      		movw r24,r0
 1890 086a 439F      		mul r20,r19
 1891 086c 900D      		add r25,r0
 1892 086e 529F      		mul r21,r18
 1893 0870 900D      		add r25,r0
 1894 0872 1124      		clr r1
 1895               	.LVL136:
 1896 0874 E80F      		add r30,r24
 1897 0876 F91F      		adc r31,r25
 1898 0878 868D      		ldd r24,Z+30
 1899               	.LM234:
 1900 087a 8170      		andi r24,lo8(1)
 1901               	/* epilogue start */
 1902 087c 0895      		ret
 1903               	.LFE42:
 1905               	.global	Timebase_DownCounter_SS_Set_Period_Flag
 1907               	Timebase_DownCounter_SS_Set_Period_Flag:
 1908               	.LFB43:
 1909               	.LM235:
 1910               	.LVL137:
 1911               	/* prologue: function */
 1912               	/* frame size = 0 */
 1913               	.LM236:
 1914 087e E091 0000 		lds r30,Timebase
 1915 0882 F091 0000 		lds r31,(Timebase)+1
 1916 0886 90E0      		ldi r25,lo8(0)
 1917               	.LVL138:
 1918 0888 25E1      		ldi r18,lo8(21)
 1919 088a 30E0      		ldi r19,hi8(21)
 1920 088c AC01      		movw r20,r24
 1921 088e 429F      		mul r20,r18
 1922 0890 C001      		movw r24,r0
 1923 0892 439F      		mul r20,r19
 1924 0894 900D      		add r25,r0
 1925 0896 529F      		mul r21,r18
 1926 0898 900D      		add r25,r0
 1927 089a 1124      		clr r1
 1928               	.LVL139:
 1929 089c E80F      		add r30,r24
 1930 089e F91F      		adc r31,r25
 1931 08a0 868D      		ldd r24,Z+30
 1932 08a2 8160      		ori r24,lo8(1)
 1933 08a4 868F      		std Z+30,r24
 1934               	/* epilogue start */
 1935               	.LM237:
 1936 08a6 0895      		ret
 1937               	.LFE43:
 1939               	.global	Timebase_DownCounter_SS_Clear_Period_Flag
 1941               	Timebase_DownCounter_SS_Clear_Period_Flag:
 1942               	.LFB44:
 1943               	.LM238:
 1944               	.LVL140:
 1945               	/* prologue: function */
 1946               	/* frame size = 0 */
 1947               	.LM239:
 1948 08a8 E091 0000 		lds r30,Timebase
 1949 08ac F091 0000 		lds r31,(Timebase)+1
 1950 08b0 90E0      		ldi r25,lo8(0)
 1951               	.LVL141:
 1952 08b2 25E1      		ldi r18,lo8(21)
 1953 08b4 30E0      		ldi r19,hi8(21)
 1954 08b6 AC01      		movw r20,r24
 1955 08b8 429F      		mul r20,r18
 1956 08ba C001      		movw r24,r0
 1957 08bc 439F      		mul r20,r19
 1958 08be 900D      		add r25,r0
 1959 08c0 529F      		mul r21,r18
 1960 08c2 900D      		add r25,r0
 1961 08c4 1124      		clr r1
 1962               	.LVL142:
 1963 08c6 E80F      		add r30,r24
 1964 08c8 F91F      		adc r31,r25
 1965 08ca 868D      		ldd r24,Z+30
 1966 08cc 8E7F      		andi r24,lo8(-2)
 1967 08ce 868F      		std Z+30,r24
 1968               	/* epilogue start */
 1969               	.LM240:
 1970 08d0 0895      		ret
 1971               	.LFE44:
 1973               	.global	Timebase_DownCounter_SS_Get_ReloadValue
 1975               	Timebase_DownCounter_SS_Get_ReloadValue:
 1976               	.LFB45:
 1977               	.LM241:
 1978               	.LVL143:
 1979               	/* prologue: function */
 1980               	/* frame size = 0 */
 1981               	.LM242:
 1982 08d2 E091 0000 		lds r30,Timebase
 1983 08d6 F091 0000 		lds r31,(Timebase)+1
 1984 08da 90E0      		ldi r25,lo8(0)
 1985               	.LVL144:
 1986 08dc 25E1      		ldi r18,lo8(21)
 1987 08de 30E0      		ldi r19,hi8(21)
 1988 08e0 AC01      		movw r20,r24
 1989 08e2 429F      		mul r20,r18
 1990 08e4 C001      		movw r24,r0
 1991 08e6 439F      		mul r20,r19
 1992 08e8 900D      		add r25,r0
 1993 08ea 529F      		mul r21,r18
 1994 08ec 900D      		add r25,r0
 1995 08ee 1124      		clr r1
 1996               	.LVL145:
 1997 08f0 E80F      		add r30,r24
 1998 08f2 F91F      		adc r31,r25
 1999 08f4 DF01      		movw r26,r30
 2000 08f6 9F96      		adiw r26,47
 2001 08f8 67A5      		ldd r22,Z+47
 2002 08fa 1196      		adiw r26,1
 2003 08fc 7C91      		ld r23,X
 2004 08fe 1197      		sbiw r26,1
 2005               	.LM243:
 2006 0900 1296      		adiw r26,2
 2007 0902 8C91      		ld r24,X
 2008 0904 1297      		sbiw r26,2
 2009 0906 1396      		adiw r26,3
 2010 0908 9C91      		ld r25,X
 2011               	.LVL146:
 2012               	/* epilogue start */
 2013 090a 0895      		ret
 2014               	.LFE45:
 2016               	.global	Timebase_DownCounter_SS_Set_ReloadValue
 2018               	Timebase_DownCounter_SS_Set_ReloadValue:
 2019               	.LFB46:
 2020               	.LM244:
 2021               	.LVL147:
 2022               	/* prologue: function */
 2023               	/* frame size = 0 */
 2024               	.LM245:
 2025 090c E091 0000 		lds r30,Timebase
 2026 0910 F091 0000 		lds r31,(Timebase)+1
 2027 0914 90E0      		ldi r25,lo8(0)
 2028               	.LVL148:
 2029 0916 25E1      		ldi r18,lo8(21)
 2030 0918 30E0      		ldi r19,hi8(21)
 2031 091a DC01      		movw r26,r24
 2032 091c A29F      		mul r26,r18
 2033 091e C001      		movw r24,r0
 2034 0920 A39F      		mul r26,r19
 2035 0922 900D      		add r25,r0
 2036 0924 B29F      		mul r27,r18
 2037 0926 900D      		add r25,r0
 2038 0928 1124      		clr r1
 2039               	.LVL149:
 2040 092a E80F      		add r30,r24
 2041 092c F91F      		adc r31,r25
 2042 092e 47A7      		std Z+47,r20
 2043 0930 50AB      		std Z+48,r21
 2044 0932 61AB      		std Z+49,r22
 2045 0934 72AB      		std Z+50,r23
 2046               	/* epilogue start */
 2047               	.LM246:
 2048 0936 0895      		ret
 2049               	.LFE46:
 2051               	.global	Timebase_DownCounter_SS_Reset
 2053               	Timebase_DownCounter_SS_Reset:
 2054               	.LFB47:
 2055               	.LM247:
 2056               	.LVL150:
 2057               	/* prologue: function */
 2058               	/* frame size = 0 */
 2059               	.LBB494:
 2060               	.LBB495:
 2061               	.LM248:
 2062 0938 E091 0000 		lds r30,Timebase
 2063 093c F091 0000 		lds r31,(Timebase)+1
 2064 0940 90E0      		ldi r25,lo8(0)
 2065 0942 25E1      		ldi r18,lo8(21)
 2066 0944 30E0      		ldi r19,hi8(21)
 2067 0946 AC01      		movw r20,r24
 2068               	.LVL151:
 2069 0948 429F      		mul r20,r18
 2070 094a C001      		movw r24,r0
 2071 094c 439F      		mul r20,r19
 2072 094e 900D      		add r25,r0
 2073 0950 529F      		mul r21,r18
 2074 0952 900D      		add r25,r0
 2075 0954 1124      		clr r1
 2076 0956 E80F      		add r30,r24
 2077 0958 F91F      		adc r31,r25
 2078 095a 13A2      		std Z+35,__zero_reg__
 2079 095c 14A2      		std Z+36,__zero_reg__
 2080 095e 15A2      		std Z+37,__zero_reg__
 2081 0960 16A2      		std Z+38,__zero_reg__
 2082               	.LBE495:
 2083               	.LBE494:
 2084               	.LBB496:
 2085               	.LBB497:
 2086               	.LM249:
 2087 0962 178E      		std Z+31,__zero_reg__
 2088 0964 10A2      		std Z+32,__zero_reg__
 2089 0966 11A2      		std Z+33,__zero_reg__
 2090 0968 12A2      		std Z+34,__zero_reg__
 2091               	.LBE497:
 2092               	.LBE496:
 2093               	.LBB498:
 2094               	.LBB499:
 2095               	.LM250:
 2096 096a 17A2      		std Z+39,__zero_reg__
 2097 096c 10A6      		std Z+40,__zero_reg__
 2098 096e 11A6      		std Z+41,__zero_reg__
 2099 0970 12A6      		std Z+42,__zero_reg__
 2100               	.LBE499:
 2101               	.LBE498:
 2102               	.LBB500:
 2103               	.LBB501:
 2104               	.LM251:
 2105 0972 868D      		ldd r24,Z+30
 2106               	.LBE501:
 2107               	.LBE500:
 2108               	.LBB502:
 2109               	.LBB503:
 2110               	.LM252:
 2111 0974 807E      		andi r24,lo8(-32)
 2112 0976 868F      		std Z+30,r24
 2113               	.LBE503:
 2114               	.LBE502:
 2115               	.LBB504:
 2116               	.LBB505:
 2117               	.LM253:
 2118 0978 17A6      		std Z+47,__zero_reg__
 2119 097a 10AA      		std Z+48,__zero_reg__
 2120 097c 11AA      		std Z+49,__zero_reg__
 2121 097e 12AA      		std Z+50,__zero_reg__
 2122               	/* epilogue start */
 2123               	.LBE505:
 2124               	.LBE504:
 2125               	.LM254:
 2126 0980 0895      		ret
 2127               	.LFE47:
 2129               	.global	Timebase_DownCounter_SS_Clear_All_Flags
 2131               	Timebase_DownCounter_SS_Clear_All_Flags:
 2132               	.LFB48:
 2133               	.LM255:
 2134               	.LVL152:
 2135               	/* prologue: function */
 2136               	/* frame size = 0 */
 2137               	.LBB506:
 2138               	.LBB507:
 2139               	.LBB508:
 2140               	.LBB509:
 2141               	.LM256:
 2142 0982 E091 0000 		lds r30,Timebase
 2143 0986 F091 0000 		lds r31,(Timebase)+1
 2144 098a 90E0      		ldi r25,lo8(0)
 2145 098c 25E1      		ldi r18,lo8(21)
 2146 098e 30E0      		ldi r19,hi8(21)
 2147 0990 AC01      		movw r20,r24
 2148               	.LVL153:
 2149 0992 429F      		mul r20,r18
 2150 0994 C001      		movw r24,r0
 2151 0996 439F      		mul r20,r19
 2152 0998 900D      		add r25,r0
 2153 099a 529F      		mul r21,r18
 2154 099c 900D      		add r25,r0
 2155 099e 1124      		clr r1
 2156 09a0 E80F      		add r30,r24
 2157 09a2 F91F      		adc r31,r25
 2158 09a4 13A2      		std Z+35,__zero_reg__
 2159 09a6 14A2      		std Z+36,__zero_reg__
 2160 09a8 15A2      		std Z+37,__zero_reg__
 2161 09aa 16A2      		std Z+38,__zero_reg__
 2162               	.LBE509:
 2163               	.LBE508:
 2164               	.LBB510:
 2165               	.LBB511:
 2166               	.LM257:
 2167 09ac 178E      		std Z+31,__zero_reg__
 2168 09ae 10A2      		std Z+32,__zero_reg__
 2169 09b0 11A2      		std Z+33,__zero_reg__
 2170 09b2 12A2      		std Z+34,__zero_reg__
 2171               	.LBE511:
 2172               	.LBE510:
 2173               	.LBB512:
 2174               	.LBB513:
 2175               	.LM258:
 2176 09b4 17A2      		std Z+39,__zero_reg__
 2177 09b6 10A6      		std Z+40,__zero_reg__
 2178 09b8 11A6      		std Z+41,__zero_reg__
 2179 09ba 12A6      		std Z+42,__zero_reg__
 2180               	.LBE513:
 2181               	.LBE512:
 2182               	.LBB514:
 2183               	.LBB515:
 2184               	.LM259:
 2185 09bc 868D      		ldd r24,Z+30
 2186               	.LBE515:
 2187               	.LBE514:
 2188               	.LBB516:
 2189               	.LBB517:
 2190               	.LM260:
 2191 09be 807E      		andi r24,lo8(-32)
 2192 09c0 868F      		std Z+30,r24
 2193               	.LBE517:
 2194               	.LBE516:
 2195               	.LBB518:
 2196               	.LBB519:
 2197               	.LM261:
 2198 09c2 17A6      		std Z+47,__zero_reg__
 2199 09c4 10AA      		std Z+48,__zero_reg__
 2200 09c6 11AA      		std Z+49,__zero_reg__
 2201 09c8 12AA      		std Z+50,__zero_reg__
 2202               	/* epilogue start */
 2203               	.LBE519:
 2204               	.LBE518:
 2205               	.LBE507:
 2206               	.LBE506:
 2207               	.LM262:
 2208 09ca 0895      		ret
 2209               	.LFE48:
 2211               	.global	Timebase_DownCounter_SS_Start
 2213               	Timebase_DownCounter_SS_Start:
 2214               	.LFB49:
 2215               	.LM263:
 2216               	.LVL154:
 2217               	/* prologue: function */
 2218               	/* frame size = 0 */
 2219               	.LBB520:
 2220               	.LBB521:
 2221               	.LM264:
 2222 09cc E091 0000 		lds r30,Timebase
 2223 09d0 F091 0000 		lds r31,(Timebase)+1
 2224 09d4 90E0      		ldi r25,lo8(0)
 2225               	.LBE521:
 2226               	.LBE520:
 2227               	.LM265:
 2228 09d6 25E1      		ldi r18,lo8(21)
 2229 09d8 30E0      		ldi r19,hi8(21)
 2230 09da AC01      		movw r20,r24
 2231               	.LVL155:
 2232 09dc 429F      		mul r20,r18
 2233 09de C001      		movw r24,r0
 2234 09e0 439F      		mul r20,r19
 2235 09e2 900D      		add r25,r0
 2236 09e4 529F      		mul r21,r18
 2237 09e6 900D      		add r25,r0
 2238 09e8 1124      		clr r1
 2239 09ea E80F      		add r30,r24
 2240 09ec F91F      		adc r31,r25
 2241 09ee 968D      		ldd r25,Z+30
 2242 09f0 892F      		mov r24,r25
 2243 09f2 8695      		lsr r24
 2244 09f4 8F70      		andi r24,lo8(15)
 2245 09f6 8130      		cpi r24,lo8(1)
 2246 09f8 01F0      		breq .L128
 2247               	.LBB522:
 2248               	.LBB523:
 2249               	.LM266:
 2250 09fa 917E      		andi r25,lo8(-31)
 2251 09fc 9260      		ori r25,lo8(2)
 2252 09fe 968F      		std Z+30,r25
 2253               	.L128:
 2254 0a00 0895      		ret
 2255               	.LBE523:
 2256               	.LBE522:
 2257               	.LFE49:
 2259               	.global	Timebase_DownCounter_SS_Stop
 2261               	Timebase_DownCounter_SS_Stop:
 2262               	.LFB50:
 2263               	.LM267:
 2264               	.LVL156:
 2265               	/* prologue: function */
 2266               	/* frame size = 0 */
 2267               	.LBB524:
 2268               	.LBB525:
 2269               	.LM268:
 2270 0a02 E091 0000 		lds r30,Timebase
 2271 0a06 F091 0000 		lds r31,(Timebase)+1
 2272 0a0a 90E0      		ldi r25,lo8(0)
 2273               	.LBE525:
 2274               	.LBE524:
 2275               	.LM269:
 2276 0a0c 25E1      		ldi r18,lo8(21)
 2277 0a0e 30E0      		ldi r19,hi8(21)
 2278 0a10 AC01      		movw r20,r24
 2279               	.LVL157:
 2280 0a12 429F      		mul r20,r18
 2281 0a14 C001      		movw r24,r0
 2282 0a16 439F      		mul r20,r19
 2283 0a18 900D      		add r25,r0
 2284 0a1a 529F      		mul r21,r18
 2285 0a1c 900D      		add r25,r0
 2286 0a1e 1124      		clr r1
 2287 0a20 E80F      		add r30,r24
 2288 0a22 F91F      		adc r31,r25
 2289 0a24 968D      		ldd r25,Z+30
 2290 0a26 892F      		mov r24,r25
 2291 0a28 8695      		lsr r24
 2292 0a2a 8F70      		andi r24,lo8(15)
 2293 0a2c 8230      		cpi r24,lo8(2)
 2294 0a2e 01F0      		breq .L131
 2295               	.LBB526:
 2296               	.LBB527:
 2297               	.LM270:
 2298 0a30 917E      		andi r25,lo8(-31)
 2299 0a32 9460      		ori r25,lo8(4)
 2300 0a34 968F      		std Z+30,r25
 2301               	.L131:
 2302 0a36 0895      		ret
 2303               	.LBE527:
 2304               	.LBE526:
 2305               	.LFE50:
 2307               	.global	Timebase_DownCounter_SS_Set_Securely
 2309               	Timebase_DownCounter_SS_Set_Securely:
 2310               	.LFB51:
 2311               	.LM271:
 2312               	.LVL158:
 2313 0a38 2F92      		push r2
 2314 0a3a 3F92      		push r3
 2315 0a3c 4F92      		push r4
 2316 0a3e 5F92      		push r5
 2317 0a40 6F92      		push r6
 2318 0a42 7F92      		push r7
 2319 0a44 8F92      		push r8
 2320 0a46 9F92      		push r9
 2321 0a48 AF92      		push r10
 2322 0a4a BF92      		push r11
 2323 0a4c CF92      		push r12
 2324 0a4e DF92      		push r13
 2325 0a50 EF92      		push r14
 2326 0a52 FF92      		push r15
 2327 0a54 0F93      		push r16
 2328 0a56 1F93      		push r17
 2329 0a58 DF93      		push r29
 2330 0a5a CF93      		push r28
 2331 0a5c CDB7      		in r28,__SP_L__
 2332 0a5e DEB7      		in r29,__SP_H__
 2333 0a60 2897      		sbiw r28,8
 2334 0a62 0FB6      		in __tmp_reg__,__SREG__
 2335 0a64 F894      		cli
 2336 0a66 DEBF      		out __SP_H__,r29
 2337 0a68 0FBE      		out __SREG__,__tmp_reg__
 2338 0a6a CDBF      		out __SP_L__,r28
 2339               	/* prologue: function */
 2340               	/* frame size = 8 */
 2341 0a6c 1A01      		movw r2,r20
 2342 0a6e 2B01      		movw r4,r22
 2343               	.LBB528:
 2344               	.LBB529:
 2345               	.LM272:
 2346 0a70 2091 0000 		lds r18,Timebase
 2347 0a74 3091 0000 		lds r19,(Timebase)+1
 2348 0a78 3887      		std Y+8,r19
 2349 0a7a 2F83      		std Y+7,r18
 2350 0a7c A82F      		mov r26,r24
 2351 0a7e B0E0      		ldi r27,lo8(0)
 2352 0a80 BA83      		std Y+2,r27
 2353 0a82 A983      		std Y+1,r26
 2354               	.LBE529:
 2355               	.LBE528:
 2356               	.LM273:
 2357 0a84 85E1      		ldi r24,lo8(21)
 2358 0a86 90E0      		ldi r25,hi8(21)
 2359               	.LVL159:
 2360 0a88 A89F      		mul r26,r24
 2361 0a8a F001      		movw r30,r0
 2362 0a8c A99F      		mul r26,r25
 2363 0a8e F00D      		add r31,r0
 2364 0a90 B89F      		mul r27,r24
 2365 0a92 F00D      		add r31,r0
 2366 0a94 1124      		clr r1
 2367 0a96 E20F      		add r30,r18
 2368 0a98 F31F      		adc r31,r19
 2369 0a9a 868D      		ldd r24,Z+30
 2370 0a9c 8695      		lsr r24
 2371 0a9e 8F70      		andi r24,lo8(15)
 2372 0aa0 01F0      		breq .+2
 2373 0aa2 00C0      		rjmp .L135
 2374               	.LVL160:
 2375               	.LBB530:
 2376               	.LBB531:
 2377               	.LM274:
 2378 0aa4 47A3      		std Z+39,r20
 2379 0aa6 50A7      		std Z+40,r21
 2380 0aa8 61A7      		std Z+41,r22
 2381 0aaa 72A7      		std Z+42,r23
 2382               	.LBE531:
 2383               	.LBE530:
 2384               	.LBB532:
 2385               	.LBB533:
 2386               	.LM275:
 2387 0aac F901      		movw r30,r18
 2388 0aae C284      		ldd r12,Z+10
 2389 0ab0 D384      		ldd r13,Z+11
 2390               	.LBE533:
 2391               	.LBE532:
 2392               	.LBB534:
 2393               	.LBB535:
 2394               	.LM276:
 2395 0ab2 D901      		movw r26,r18
 2396 0ab4 1C96      		adiw r26,12
 2397 0ab6 8D91      		ld r24,X+
 2398 0ab8 9D91      		ld r25,X+
 2399 0aba 0D90      		ld __tmp_reg__,X+
 2400 0abc BC91      		ld r27,X
 2401 0abe A02D      		mov r26,__tmp_reg__
 2402 0ac0 8B83      		std Y+3,r24
 2403 0ac2 9C83      		std Y+4,r25
 2404 0ac4 AD83      		std Y+5,r26
 2405 0ac6 BE83      		std Y+6,r27
 2406               	.LVL161:
 2407               	.LBE535:
 2408               	.LBE534:
 2409               	.LM277:
 2410 0ac8 2081      		ld r18,Z
 2411 0aca 3181      		ldd r19,Z+1
 2412 0acc 40E0      		ldi r20,lo8(0)
 2413 0ace 50E0      		ldi r21,hi8(0)
 2414 0ad0 C201      		movw r24,r4
 2415 0ad2 B101      		movw r22,r2
 2416 0ad4 0E94 0000 		call __divmodsi4
 2417 0ad8 7B01      		movw r14,r22
 2418 0ada 8C01      		movw r16,r24
 2419               	.LM278:
 2420 0adc EF81      		ldd r30,Y+7
 2421 0ade F885      		ldd r31,Y+8
 2422 0ae0 2081      		ld r18,Z
 2423 0ae2 3181      		ldd r19,Z+1
 2424 0ae4 40E0      		ldi r20,lo8(0)
 2425 0ae6 50E0      		ldi r21,hi8(0)
 2426 0ae8 C201      		movw r24,r4
 2427 0aea B101      		movw r22,r2
 2428 0aec 0E94 0000 		call __divmodsi4
 2429 0af0 C901      		movw r24,r18
 2430 0af2 DA01      		movw r26,r20
 2431 0af4 3C01      		movw r6,r24
 2432 0af6 4D01      		movw r8,r26
 2433               	.LVL162:
 2434               	.LM279:
 2435 0af8 5601      		movw r10,r12
 2436               	.LVL163:
 2437 0afa CC24      		clr r12
 2438 0afc DD24      		clr r13
 2439               	.LVL164:
 2440 0afe AE0C      		add r10,r14
 2441 0b00 BF1C      		adc r11,r15
 2442 0b02 C01E      		adc r12,r16
 2443 0b04 D11E      		adc r13,r17
 2444               	.LVL165:
 2445               	.LM280:
 2446 0b06 AF81      		ldd r26,Y+7
 2447 0b08 B885      		ldd r27,Y+8
 2448 0b0a 8D91      		ld r24,X+
 2449 0b0c 9C91      		ld r25,X
 2450               	.LVL166:
 2451 0b0e A0E0      		ldi r26,lo8(0)
 2452 0b10 B0E0      		ldi r27,hi8(0)
 2453 0b12 A816      		cp r10,r24
 2454 0b14 B906      		cpc r11,r25
 2455 0b16 CA06      		cpc r12,r26
 2456 0b18 DB06      		cpc r13,r27
 2457 0b1a 04F0      		brlt .L134
 2458               	.LM281:
 2459 0b1c 0894      		sec
 2460 0b1e 611C      		adc r6,__zero_reg__
 2461 0b20 711C      		adc r7,__zero_reg__
 2462 0b22 811C      		adc r8,__zero_reg__
 2463 0b24 911C      		adc r9,__zero_reg__
 2464               	.LM282:
 2465 0b26 EF81      		ldd r30,Y+7
 2466 0b28 F885      		ldd r31,Y+8
 2467 0b2a 2081      		ld r18,Z
 2468 0b2c 3181      		ldd r19,Z+1
 2469 0b2e 40E0      		ldi r20,lo8(0)
 2470 0b30 50E0      		ldi r21,hi8(0)
 2471 0b32 C601      		movw r24,r12
 2472 0b34 B501      		movw r22,r10
 2473 0b36 0E94 0000 		call __divmodsi4
 2474 0b3a AC01      		movw r20,r24
 2475 0b3c CB01      		movw r24,r22
 2476 0b3e DA01      		movw r26,r20
 2477 0b40 5C01      		movw r10,r24
 2478 0b42 6D01      		movw r12,r26
 2479               	.L134:
 2480               	.LBB536:
 2481               	.LBB537:
 2482               	.LM283:
 2483 0b44 85E1      		ldi r24,lo8(21)
 2484 0b46 90E0      		ldi r25,hi8(21)
 2485 0b48 2981      		ldd r18,Y+1
 2486 0b4a 3A81      		ldd r19,Y+2
 2487 0b4c 289F      		mul r18,r24
 2488 0b4e A001      		movw r20,r0
 2489 0b50 299F      		mul r18,r25
 2490 0b52 500D      		add r21,r0
 2491 0b54 389F      		mul r19,r24
 2492 0b56 500D      		add r21,r0
 2493 0b58 1124      		clr r1
 2494 0b5a 8F81      		ldd r24,Y+7
 2495 0b5c 9885      		ldd r25,Y+8
 2496 0b5e 480F      		add r20,r24
 2497 0b60 591F      		adc r21,r25
 2498 0b62 8B81      		ldd r24,Y+3
 2499 0b64 9C81      		ldd r25,Y+4
 2500 0b66 AD81      		ldd r26,Y+5
 2501 0b68 BE81      		ldd r27,Y+6
 2502 0b6a 860D      		add r24,r6
 2503 0b6c 971D      		adc r25,r7
 2504 0b6e A81D      		adc r26,r8
 2505 0b70 B91D      		adc r27,r9
 2506 0b72 FA01      		movw r30,r20
 2507 0b74 878F      		std Z+31,r24
 2508 0b76 90A3      		std Z+32,r25
 2509 0b78 A1A3      		std Z+33,r26
 2510 0b7a B2A3      		std Z+34,r27
 2511               	.LBE537:
 2512               	.LBE536:
 2513               	.LBB538:
 2514               	.LBB539:
 2515               	.LM284:
 2516 0b7c DA01      		movw r26,r20
 2517 0b7e 9396      		adiw r26,35
 2518 0b80 AD92      		st X+,r10
 2519 0b82 BD92      		st X+,r11
 2520 0b84 CD92      		st X+,r12
 2521 0b86 DC92      		st X,r13
 2522 0b88 9697      		sbiw r26,35+3
 2523               	.LBE539:
 2524               	.LBE538:
 2525               	.LBB540:
 2526               	.LBB541:
 2527               	.LM285:
 2528 0b8a 27A6      		std Z+47,r2
 2529 0b8c 30AA      		std Z+48,r3
 2530 0b8e 41AA      		std Z+49,r4
 2531 0b90 52AA      		std Z+50,r5
 2532               	.LBE541:
 2533               	.LBE540:
 2534               	.LBB542:
 2535               	.LBB543:
 2536               	.LM286:
 2537 0b92 968D      		ldd r25,Z+30
 2538 0b94 892F      		mov r24,r25
 2539 0b96 8695      		lsr r24
 2540 0b98 8F70      		andi r24,lo8(15)
 2541 0b9a 8130      		cpi r24,lo8(1)
 2542 0b9c 01F0      		breq .L135
 2543               	.LBB544:
 2544               	.LBB545:
 2545               	.LM287:
 2546 0b9e 917E      		andi r25,lo8(-31)
 2547 0ba0 9260      		ori r25,lo8(2)
 2548 0ba2 968F      		std Z+30,r25
 2549               	.LVL167:
 2550               	.L135:
 2551               	/* epilogue start */
 2552               	.LBE545:
 2553               	.LBE544:
 2554               	.LBE543:
 2555               	.LBE542:
 2556               	.LM288:
 2557 0ba4 2896      		adiw r28,8
 2558 0ba6 0FB6      		in __tmp_reg__,__SREG__
 2559 0ba8 F894      		cli
 2560 0baa DEBF      		out __SP_H__,r29
 2561 0bac 0FBE      		out __SREG__,__tmp_reg__
 2562 0bae CDBF      		out __SP_L__,r28
 2563 0bb0 CF91      		pop r28
 2564 0bb2 DF91      		pop r29
 2565 0bb4 1F91      		pop r17
 2566 0bb6 0F91      		pop r16
 2567 0bb8 FF90      		pop r15
 2568 0bba EF90      		pop r14
 2569 0bbc DF90      		pop r13
 2570 0bbe CF90      		pop r12
 2571               	.LVL168:
 2572 0bc0 BF90      		pop r11
 2573 0bc2 AF90      		pop r10
 2574               	.LVL169:
 2575 0bc4 9F90      		pop r9
 2576 0bc6 8F90      		pop r8
 2577 0bc8 7F90      		pop r7
 2578 0bca 6F90      		pop r6
 2579               	.LVL170:
 2580 0bcc 5F90      		pop r5
 2581 0bce 4F90      		pop r4
 2582 0bd0 3F90      		pop r3
 2583 0bd2 2F90      		pop r2
 2584               	.LVL171:
 2585 0bd4 0895      		ret
 2586               	.LFE51:
 2588               	.global	Timebase_DownCounter_SS_Set_Forcefully
 2590               	Timebase_DownCounter_SS_Set_Forcefully:
 2591               	.LFB52:
 2592               	.LM289:
 2593               	.LVL172:
 2594 0bd6 CF92      		push r12
 2595 0bd8 DF92      		push r13
 2596 0bda EF92      		push r14
 2597 0bdc FF92      		push r15
 2598 0bde 0F93      		push r16
 2599 0be0 1F93      		push r17
 2600               	/* prologue: function */
 2601               	/* frame size = 0 */
 2602 0be2 7A01      		movw r14,r20
 2603 0be4 8B01      		movw r16,r22
 2604               	.LBB546:
 2605               	.LBB547:
 2606               	.LBB548:
 2607               	.LBB549:
 2608               	.LM290:
 2609 0be6 E091 0000 		lds r30,Timebase
 2610 0bea F091 0000 		lds r31,(Timebase)+1
 2611 0bee 482F      		mov r20,r24
 2612               	.LVL173:
 2613 0bf0 50E0      		ldi r21,lo8(0)
 2614 0bf2 25E1      		ldi r18,lo8(21)
 2615 0bf4 30E0      		ldi r19,hi8(21)
 2616 0bf6 429F      		mul r20,r18
 2617 0bf8 6001      		movw r12,r0
 2618 0bfa 439F      		mul r20,r19
 2619 0bfc D00C      		add r13,r0
 2620 0bfe 529F      		mul r21,r18
 2621 0c00 D00C      		add r13,r0
 2622 0c02 1124      		clr r1
 2623 0c04 EC0D      		add r30,r12
 2624 0c06 FD1D      		adc r31,r13
 2625 0c08 13A2      		std Z+35,__zero_reg__
 2626 0c0a 14A2      		std Z+36,__zero_reg__
 2627 0c0c 15A2      		std Z+37,__zero_reg__
 2628 0c0e 16A2      		std Z+38,__zero_reg__
 2629               	.LBE549:
 2630               	.LBE548:
 2631               	.LBB550:
 2632               	.LBB551:
 2633               	.LM291:
 2634 0c10 178E      		std Z+31,__zero_reg__
 2635 0c12 10A2      		std Z+32,__zero_reg__
 2636 0c14 11A2      		std Z+33,__zero_reg__
 2637 0c16 12A2      		std Z+34,__zero_reg__
 2638               	.LBE551:
 2639               	.LBE550:
 2640               	.LBB552:
 2641               	.LBB553:
 2642               	.LM292:
 2643 0c18 17A2      		std Z+39,__zero_reg__
 2644 0c1a 10A6      		std Z+40,__zero_reg__
 2645 0c1c 11A6      		std Z+41,__zero_reg__
 2646 0c1e 12A6      		std Z+42,__zero_reg__
 2647               	.LBE553:
 2648               	.LBE552:
 2649               	.LBB554:
 2650               	.LBB555:
 2651               	.LM293:
 2652 0c20 968D      		ldd r25,Z+30
 2653               	.LBE555:
 2654               	.LBE554:
 2655               	.LBB556:
 2656               	.LBB557:
 2657               	.LM294:
 2658 0c22 907E      		andi r25,lo8(-32)
 2659 0c24 968F      		std Z+30,r25
 2660               	.LBE557:
 2661               	.LBE556:
 2662               	.LBB558:
 2663               	.LBB559:
 2664               	.LM295:
 2665 0c26 17A6      		std Z+47,__zero_reg__
 2666 0c28 10AA      		std Z+48,__zero_reg__
 2667 0c2a 11AA      		std Z+49,__zero_reg__
 2668 0c2c 12AA      		std Z+50,__zero_reg__
 2669               	.LBE559:
 2670               	.LBE558:
 2671               	.LBE547:
 2672               	.LBE546:
 2673               	.LM296:
 2674 0c2e B801      		movw r22,r16
 2675 0c30 A701      		movw r20,r14
 2676 0c32 0E94 0000 		call Timebase_DownCounter_SS_Set_Securely
 2677               	.LVL174:
 2678               	.LBB560:
 2679               	.LBB561:
 2680               	.LM297:
 2681 0c36 E091 0000 		lds r30,Timebase
 2682 0c3a F091 0000 		lds r31,(Timebase)+1
 2683 0c3e EC0D      		add r30,r12
 2684 0c40 FD1D      		adc r31,r13
 2685 0c42 E7A6      		std Z+47,r14
 2686 0c44 F0AA      		std Z+48,r15
 2687 0c46 01AB      		std Z+49,r16
 2688 0c48 12AB      		std Z+50,r17
 2689               	/* epilogue start */
 2690               	.LBE561:
 2691               	.LBE560:
 2692               	.LM298:
 2693 0c4a 1F91      		pop r17
 2694 0c4c 0F91      		pop r16
 2695 0c4e FF90      		pop r15
 2696 0c50 EF90      		pop r14
 2697               	.LVL175:
 2698 0c52 DF90      		pop r13
 2699 0c54 CF90      		pop r12
 2700 0c56 0895      		ret
 2701               	.LFE52:
 2703               	.global	Timebase_DownCounter_SS_Update
 2705               	Timebase_DownCounter_SS_Update:
 2706               	.LFB53:
 2707               	.LM299:
 2708               	.LVL176:
 2709 0c58 2F92      		push r2
 2710 0c5a 3F92      		push r3
 2711 0c5c 4F92      		push r4
 2712 0c5e 5F92      		push r5
 2713 0c60 6F92      		push r6
 2714 0c62 7F92      		push r7
 2715 0c64 8F92      		push r8
 2716 0c66 9F92      		push r9
 2717 0c68 AF92      		push r10
 2718 0c6a BF92      		push r11
 2719 0c6c CF92      		push r12
 2720 0c6e DF92      		push r13
 2721 0c70 EF92      		push r14
 2722 0c72 FF92      		push r15
 2723 0c74 0F93      		push r16
 2724 0c76 1F93      		push r17
 2725 0c78 CF93      		push r28
 2726 0c7a DF93      		push r29
 2727               	/* prologue: function */
 2728               	/* frame size = 0 */
 2729               	.LBB562:
 2730               	.LBB563:
 2731               	.LM300:
 2732 0c7c E091 0000 		lds r30,Timebase
 2733 0c80 F091 0000 		lds r31,(Timebase)+1
 2734 0c84 90E0      		ldi r25,lo8(0)
 2735 0c86 25E1      		ldi r18,lo8(21)
 2736 0c88 30E0      		ldi r19,hi8(21)
 2737 0c8a 829F      		mul r24,r18
 2738 0c8c E001      		movw r28,r0
 2739 0c8e 839F      		mul r24,r19
 2740 0c90 D00D      		add r29,r0
 2741 0c92 929F      		mul r25,r18
 2742 0c94 D00D      		add r29,r0
 2743 0c96 1124      		clr r1
 2744               	.LVL177:
 2745 0c98 CE0F      		add r28,r30
 2746 0c9a DF1F      		adc r29,r31
 2747 0c9c 8E8D      		ldd r24,Y+30
 2748 0c9e 8695      		lsr r24
 2749 0ca0 8F70      		andi r24,lo8(15)
 2750               	.LBE563:
 2751               	.LBE562:
 2752               	.LM301:
 2753 0ca2 8130      		cpi r24,lo8(1)
 2754 0ca4 01F0      		breq .+2
 2755 0ca6 00C0      		rjmp .L139
 2756               	.LBB564:
 2757               	.LBB565:
 2758               	.LM302:
 2759 0ca8 E284      		ldd r14,Z+10
 2760 0caa F384      		ldd r15,Z+11
 2761               	.LBE565:
 2762               	.LBE564:
 2763               	.LM303:
 2764 0cac 00E0      		ldi r16,lo8(0)
 2765 0cae 10E0      		ldi r17,hi8(0)
 2766               	.LVL178:
 2767               	.LBB566:
 2768               	.LBB567:
 2769               	.LM304:
 2770 0cb0 8485      		ldd r24,Z+12
 2771 0cb2 9585      		ldd r25,Z+13
 2772 0cb4 A685      		ldd r26,Z+14
 2773 0cb6 B785      		ldd r27,Z+15
 2774               	.LVL179:
 2775               	.LBE567:
 2776               	.LBE566:
 2777               	.LM305:
 2778 0cb8 2F8D      		ldd r18,Y+31
 2779 0cba 38A1      		ldd r19,Y+32
 2780 0cbc 49A1      		ldd r20,Y+33
 2781 0cbe 5AA1      		ldd r21,Y+34
 2782 0cc0 281B      		sub r18,r24
 2783 0cc2 390B      		sbc r19,r25
 2784 0cc4 4A0B      		sbc r20,r26
 2785 0cc6 5B0B      		sbc r21,r27
 2786               	.LM306:
 2787 0cc8 6081      		ld r22,Z
 2788 0cca 7181      		ldd r23,Z+1
 2789               	.LM307:
 2790 0ccc 80E0      		ldi r24,lo8(0)
 2791 0cce 90E0      		ldi r25,hi8(0)
 2792               	.LVL180:
 2793 0cd0 0E94 0000 		call __mulsi3
 2794 0cd4 6E19      		sub r22,r14
 2795 0cd6 7F09      		sbc r23,r15
 2796 0cd8 800B      		sbc r24,r16
 2797 0cda 910B      		sbc r25,r17
 2798               	.LVL181:
 2799               	.LM308:
 2800 0cdc 2BA1      		ldd r18,Y+35
 2801 0cde 3CA1      		ldd r19,Y+36
 2802 0ce0 4DA1      		ldd r20,Y+37
 2803 0ce2 5EA1      		ldd r21,Y+38
 2804 0ce4 620F      		add r22,r18
 2805 0ce6 731F      		adc r23,r19
 2806 0ce8 841F      		adc r24,r20
 2807 0cea 951F      		adc r25,r21
 2808               	.LBB568:
 2809               	.LBB569:
 2810               	.LM309:
 2811 0cec 6FA3      		std Y+39,r22
 2812 0cee 78A7      		std Y+40,r23
 2813 0cf0 89A7      		std Y+41,r24
 2814 0cf2 9AA7      		std Y+42,r25
 2815               	.LBE569:
 2816               	.LBE568:
 2817               	.LM310:
 2818 0cf4 1616      		cp __zero_reg__,r22
 2819 0cf6 1706      		cpc __zero_reg__,r23
 2820 0cf8 1806      		cpc __zero_reg__,r24
 2821 0cfa 1906      		cpc __zero_reg__,r25
 2822 0cfc 04F4      		brge .+2
 2823 0cfe 00C0      		rjmp .L141
 2824               	.LBB570:
 2825               	.LBB571:
 2826               	.LBB572:
 2827               	.LM311:
 2828 0d00 8FA5      		ldd r24,Y+47
 2829 0d02 98A9      		ldd r25,Y+48
 2830 0d04 A9A9      		ldd r26,Y+49
 2831 0d06 BAA9      		ldd r27,Y+50
 2832               	.LVL182:
 2833               	.LBE572:
 2834               	.LBE571:
 2835               	.LBB573:
 2836               	.LBB574:
 2837               	.LBB575:
 2838               	.LBB576:
 2839               	.LM312:
 2840 0d08 1BA2      		std Y+35,__zero_reg__
 2841 0d0a 1CA2      		std Y+36,__zero_reg__
 2842 0d0c 1DA2      		std Y+37,__zero_reg__
 2843 0d0e 1EA2      		std Y+38,__zero_reg__
 2844               	.LBE576:
 2845               	.LBE575:
 2846               	.LBB577:
 2847               	.LBB578:
 2848               	.LM313:
 2849 0d10 1F8E      		std Y+31,__zero_reg__
 2850 0d12 18A2      		std Y+32,__zero_reg__
 2851 0d14 19A2      		std Y+33,__zero_reg__
 2852 0d16 1AA2      		std Y+34,__zero_reg__
 2853               	.LBE578:
 2854               	.LBE577:
 2855               	.LBB579:
 2856               	.LBB580:
 2857               	.LM314:
 2858 0d18 1FA2      		std Y+39,__zero_reg__
 2859 0d1a 18A6      		std Y+40,__zero_reg__
 2860 0d1c 19A6      		std Y+41,__zero_reg__
 2861 0d1e 1AA6      		std Y+42,__zero_reg__
 2862               	.LBE580:
 2863               	.LBE579:
 2864               	.LBB581:
 2865               	.LBB582:
 2866               	.LM315:
 2867 0d20 2E8D      		ldd r18,Y+30
 2868 0d22 2E7F      		andi r18,lo8(-2)
 2869 0d24 2E8F      		std Y+30,r18
 2870               	.LBE582:
 2871               	.LBE581:
 2872               	.LBE574:
 2873               	.LBE573:
 2874               	.LBB583:
 2875               	.LBB584:
 2876               	.LM316:
 2877 0d26 8FA7      		std Y+47,r24
 2878 0d28 98AB      		std Y+48,r25
 2879 0d2a A9AB      		std Y+49,r26
 2880 0d2c BAAB      		std Y+50,r27
 2881               	.LBE584:
 2882               	.LBE583:
 2883               	.LBB585:
 2884               	.LBB586:
 2885               	.LM317:
 2886 0d2e 8E8D      		ldd r24,Y+30
 2887               	.LVL183:
 2888 0d30 817E      		andi r24,lo8(-31)
 2889 0d32 8860      		ori r24,lo8(8)
 2890 0d34 8E8F      		std Y+30,r24
 2891 0d36 00C0      		rjmp .L141
 2892               	.LVL184:
 2893               	.L139:
 2894               	.LBE586:
 2895               	.LBE585:
 2896               	.LBE570:
 2897               	.LM318:
 2898 0d38 8230      		cpi r24,lo8(2)
 2899 0d3a 01F4      		brne .L141
 2900               	.LBB587:
 2901               	.LBB588:
 2902               	.LM319:
 2903 0d3c 6284      		ldd r6,Z+10
 2904 0d3e 7384      		ldd r7,Z+11
 2905               	.LBE588:
 2906               	.LBE587:
 2907               	.LBB589:
 2908               	.LBB590:
 2909               	.LM320:
 2910 0d40 E484      		ldd r14,Z+12
 2911 0d42 F584      		ldd r15,Z+13
 2912 0d44 0685      		ldd r16,Z+14
 2913 0d46 1785      		ldd r17,Z+15
 2914               	.LVL185:
 2915               	.LBE590:
 2916               	.LBE589:
 2917               	.LBB591:
 2918               	.LBB592:
 2919               	.LM321:
 2920 0d48 2FA0      		ldd r2,Y+39
 2921 0d4a 38A4      		ldd r3,Y+40
 2922 0d4c 49A4      		ldd r4,Y+41
 2923 0d4e 5AA4      		ldd r5,Y+42
 2924               	.LVL186:
 2925               	.LBE592:
 2926               	.LBE591:
 2927               	.LM322:
 2928 0d50 2081      		ld r18,Z
 2929 0d52 3181      		ldd r19,Z+1
 2930               	.LM323:
 2931 0d54 A080      		ld r10,Z
 2932 0d56 B180      		ldd r11,Z+1
 2933               	.LBB593:
 2934               	.LBB594:
 2935               	.LM324:
 2936 0d58 40E0      		ldi r20,lo8(0)
 2937 0d5a 50E0      		ldi r21,hi8(0)
 2938 0d5c C201      		movw r24,r4
 2939 0d5e B101      		movw r22,r2
 2940 0d60 0E94 0000 		call __divmodsi4
 2941 0d64 E20E      		add r14,r18
 2942 0d66 F31E      		adc r15,r19
 2943 0d68 041F      		adc r16,r20
 2944 0d6a 151F      		adc r17,r21
 2945 0d6c EF8E      		std Y+31,r14
 2946 0d6e F8A2      		std Y+32,r15
 2947 0d70 09A3      		std Y+33,r16
 2948 0d72 1AA3      		std Y+34,r17
 2949               	.LBE594:
 2950               	.LBE593:
 2951               	.LBB595:
 2952               	.LBB596:
 2953               	.LM325:
 2954 0d74 CC24      		clr r12
 2955 0d76 DD24      		clr r13
 2956 0d78 C201      		movw r24,r4
 2957 0d7a B101      		movw r22,r2
 2958 0d7c A601      		movw r20,r12
 2959 0d7e 9501      		movw r18,r10
 2960 0d80 0E94 0000 		call __divmodsi4
 2961 0d84 8824      		clr r8
 2962 0d86 9924      		clr r9
 2963 0d88 660E      		add r6,r22
 2964 0d8a 771E      		adc r7,r23
 2965 0d8c 881E      		adc r8,r24
 2966 0d8e 991E      		adc r9,r25
 2967 0d90 6BA2      		std Y+35,r6
 2968 0d92 7CA2      		std Y+36,r7
 2969 0d94 8DA2      		std Y+37,r8
 2970 0d96 9EA2      		std Y+38,r9
 2971               	.LVL187:
 2972               	.L141:
 2973               	/* epilogue start */
 2974               	.LBE596:
 2975               	.LBE595:
 2976               	.LM326:
 2977 0d98 DF91      		pop r29
 2978 0d9a CF91      		pop r28
 2979 0d9c 1F91      		pop r17
 2980 0d9e 0F91      		pop r16
 2981               	.LVL188:
 2982 0da0 FF90      		pop r15
 2983 0da2 EF90      		pop r14
 2984               	.LVL189:
 2985 0da4 DF90      		pop r13
 2986 0da6 CF90      		pop r12
 2987 0da8 BF90      		pop r11
 2988 0daa AF90      		pop r10
 2989 0dac 9F90      		pop r9
 2990 0dae 8F90      		pop r8
 2991 0db0 7F90      		pop r7
 2992 0db2 6F90      		pop r6
 2993 0db4 5F90      		pop r5
 2994 0db6 4F90      		pop r4
 2995 0db8 3F90      		pop r3
 2996 0dba 2F90      		pop r2
 2997               	.LVL190:
 2998 0dbc 0895      		ret
 2999               	.LFE53:
 3001               	.global	Timebase_DownCounter_SS_Expired
 3003               	Timebase_DownCounter_SS_Expired:
 3004               	.LFB54:
 3005               	.LM327:
 3006               	.LVL191:
 3007               	/* prologue: function */
 3008               	/* frame size = 0 */
 3009               	.LM328:
 3010 0dbe 40E0      		ldi r20,lo8(0)
 3011 0dc0 E091 0000 		lds r30,Timebase
 3012 0dc4 F091 0000 		lds r31,(Timebase)+1
 3013 0dc8 90E0      		ldi r25,lo8(0)
 3014               	.LVL192:
 3015 0dca 25E1      		ldi r18,lo8(21)
 3016 0dcc 30E0      		ldi r19,hi8(21)
 3017 0dce BC01      		movw r22,r24
 3018 0dd0 629F      		mul r22,r18
 3019 0dd2 C001      		movw r24,r0
 3020 0dd4 639F      		mul r22,r19
 3021 0dd6 900D      		add r25,r0
 3022 0dd8 729F      		mul r23,r18
 3023 0dda 900D      		add r25,r0
 3024 0ddc 1124      		clr r1
 3025               	.LVL193:
 3026 0dde E80F      		add r30,r24
 3027 0de0 F91F      		adc r31,r25
 3028 0de2 868D      		ldd r24,Z+30
 3029 0de4 8695      		lsr r24
 3030 0de6 8F70      		andi r24,lo8(15)
 3031 0de8 8430      		cpi r24,lo8(4)
 3032 0dea 01F4      		brne .L143
 3033 0dec 41E0      		ldi r20,lo8(1)
 3034               	.L143:
 3035               	.LM329:
 3036 0dee 842F      		mov r24,r20
 3037               	/* epilogue start */
 3038 0df0 0895      		ret
 3039               	.LFE54:
 3041               	.global	Timebase_DownCounter_SS_Expired_Event
 3043               	Timebase_DownCounter_SS_Expired_Event:
 3044               	.LFB55:
 3045               	.LM330:
 3046               	.LVL194:
 3047               	/* prologue: function */
 3048               	/* frame size = 0 */
 3049               	.LBB597:
 3050               	.LBB598:
 3051               	.LM331:
 3052 0df2 E091 0000 		lds r30,Timebase
 3053 0df6 F091 0000 		lds r31,(Timebase)+1
 3054 0dfa 90E0      		ldi r25,lo8(0)
 3055               	.LBE598:
 3056               	.LBE597:
 3057               	.LM332:
 3058 0dfc 25E1      		ldi r18,lo8(21)
 3059 0dfe 30E0      		ldi r19,hi8(21)
 3060 0e00 AC01      		movw r20,r24
 3061               	.LVL195:
 3062 0e02 429F      		mul r20,r18
 3063 0e04 C001      		movw r24,r0
 3064 0e06 439F      		mul r20,r19
 3065 0e08 900D      		add r25,r0
 3066 0e0a 529F      		mul r21,r18
 3067 0e0c 900D      		add r25,r0
 3068 0e0e 1124      		clr r1
 3069 0e10 E80F      		add r30,r24
 3070 0e12 F91F      		adc r31,r25
 3071 0e14 868D      		ldd r24,Z+30
 3072 0e16 8695      		lsr r24
 3073 0e18 8F70      		andi r24,lo8(15)
 3074 0e1a 8430      		cpi r24,lo8(4)
 3075 0e1c 01F0      		breq .L146
 3076 0e1e 80E0      		ldi r24,lo8(0)
 3077 0e20 0895      		ret
 3078               	.L146:
 3079               	.LBB599:
 3080               	.LBB600:
 3081               	.LBB601:
 3082               	.LBB602:
 3083               	.LBB603:
 3084               	.LBB604:
 3085               	.LM333:
 3086 0e22 13A2      		std Z+35,__zero_reg__
 3087 0e24 14A2      		std Z+36,__zero_reg__
 3088 0e26 15A2      		std Z+37,__zero_reg__
 3089 0e28 16A2      		std Z+38,__zero_reg__
 3090               	.LBE604:
 3091               	.LBE603:
 3092               	.LBB605:
 3093               	.LBB606:
 3094               	.LM334:
 3095 0e2a 178E      		std Z+31,__zero_reg__
 3096 0e2c 10A2      		std Z+32,__zero_reg__
 3097 0e2e 11A2      		std Z+33,__zero_reg__
 3098 0e30 12A2      		std Z+34,__zero_reg__
 3099               	.LBE606:
 3100               	.LBE605:
 3101               	.LBB607:
 3102               	.LBB608:
 3103               	.LM335:
 3104 0e32 17A2      		std Z+39,__zero_reg__
 3105 0e34 10A6      		std Z+40,__zero_reg__
 3106 0e36 11A6      		std Z+41,__zero_reg__
 3107 0e38 12A6      		std Z+42,__zero_reg__
 3108               	.LBE608:
 3109               	.LBE607:
 3110               	.LBB609:
 3111               	.LBB610:
 3112               	.LM336:
 3113 0e3a 868D      		ldd r24,Z+30
 3114               	.LBE610:
 3115               	.LBE609:
 3116               	.LBB611:
 3117               	.LBB612:
 3118               	.LM337:
 3119 0e3c 807E      		andi r24,lo8(-32)
 3120 0e3e 868F      		std Z+30,r24
 3121               	.LBE612:
 3122               	.LBE611:
 3123               	.LBB613:
 3124               	.LBB614:
 3125               	.LM338:
 3126 0e40 17A6      		std Z+47,__zero_reg__
 3127 0e42 10AA      		std Z+48,__zero_reg__
 3128 0e44 11AA      		std Z+49,__zero_reg__
 3129 0e46 12AA      		std Z+50,__zero_reg__
 3130 0e48 81E0      		ldi r24,lo8(1)
 3131               	.LBE614:
 3132               	.LBE613:
 3133               	.LBE602:
 3134               	.LBE601:
 3135               	.LBE600:
 3136               	.LBE599:
 3137               	.LM339:
 3138 0e4a 0895      		ret
 3139               	.LFE55:
 3141               	.global	Timebase_DownCounter_SS_Oneshot_Expired_Event
 3143               	Timebase_DownCounter_SS_Oneshot_Expired_Event:
 3144               	.LFB56:
 3145               	.LM340:
 3146               	.LVL196:
 3147               	/* prologue: function */
 3148               	/* frame size = 0 */
 3149               	.LM341:
 3150 0e4c 0E94 0000 		call Timebase_DownCounter_SS_Expired_Event
 3151               	.LVL197:
 3152               	/* epilogue start */
 3153               	.LM342:
 3154 0e50 0895      		ret
 3155               	.LFE56:
 3157               	.global	Timebase_DownCounter_SS_Continuous_Expired_Event
 3159               	Timebase_DownCounter_SS_Continuous_Expired_Event:
 3160               	.LFB57:
 3161               	.LM343:
 3162               	.LVL198:
 3163               	/* prologue: function */
 3164               	/* frame size = 0 */
 3165 0e52 A82F      		mov r26,r24
 3166               	.LBB615:
 3167               	.LBB616:
 3168               	.LM344:
 3169 0e54 E091 0000 		lds r30,Timebase
 3170 0e58 F091 0000 		lds r31,(Timebase)+1
 3171 0e5c 282F      		mov r18,r24
 3172 0e5e 30E0      		ldi r19,lo8(0)
 3173               	.LBE616:
 3174               	.LBE615:
 3175               	.LM345:
 3176 0e60 85E1      		ldi r24,lo8(21)
 3177 0e62 90E0      		ldi r25,hi8(21)
 3178               	.LVL199:
 3179 0e64 AC01      		movw r20,r24
 3180 0e66 249F      		mul r18,r20
 3181 0e68 C001      		movw r24,r0
 3182 0e6a 259F      		mul r18,r21
 3183 0e6c 900D      		add r25,r0
 3184 0e6e 349F      		mul r19,r20
 3185 0e70 900D      		add r25,r0
 3186 0e72 1124      		clr r1
 3187 0e74 E80F      		add r30,r24
 3188 0e76 F91F      		adc r31,r25
 3189 0e78 868D      		ldd r24,Z+30
 3190 0e7a 8695      		lsr r24
 3191 0e7c 8F70      		andi r24,lo8(15)
 3192 0e7e 8430      		cpi r24,lo8(4)
 3193 0e80 01F0      		breq .L152
 3194 0e82 80E0      		ldi r24,lo8(0)
 3195 0e84 0895      		ret
 3196               	.L152:
 3197               	.LBB617:
 3198               	.LBB618:
 3199               	.LBB619:
 3200               	.LM346:
 3201 0e86 47A5      		ldd r20,Z+47
 3202 0e88 50A9      		ldd r21,Z+48
 3203 0e8a 61A9      		ldd r22,Z+49
 3204 0e8c 72A9      		ldd r23,Z+50
 3205               	.LVL200:
 3206               	.LBE619:
 3207               	.LBE618:
 3208               	.LBB620:
 3209               	.LBB621:
 3210               	.LBB622:
 3211               	.LBB623:
 3212               	.LBB624:
 3213               	.LBB625:
 3214               	.LM347:
 3215 0e8e 13A2      		std Z+35,__zero_reg__
 3216 0e90 14A2      		std Z+36,__zero_reg__
 3217 0e92 15A2      		std Z+37,__zero_reg__
 3218 0e94 16A2      		std Z+38,__zero_reg__
 3219               	.LBE625:
 3220               	.LBE624:
 3221               	.LBB626:
 3222               	.LBB627:
 3223               	.LM348:
 3224 0e96 178E      		std Z+31,__zero_reg__
 3225 0e98 10A2      		std Z+32,__zero_reg__
 3226 0e9a 11A2      		std Z+33,__zero_reg__
 3227 0e9c 12A2      		std Z+34,__zero_reg__
 3228               	.LBE627:
 3229               	.LBE626:
 3230               	.LBB628:
 3231               	.LBB629:
 3232               	.LM349:
 3233 0e9e 17A2      		std Z+39,__zero_reg__
 3234 0ea0 10A6      		std Z+40,__zero_reg__
 3235 0ea2 11A6      		std Z+41,__zero_reg__
 3236 0ea4 12A6      		std Z+42,__zero_reg__
 3237               	.LBE629:
 3238               	.LBE628:
 3239               	.LBB630:
 3240               	.LBB631:
 3241               	.LM350:
 3242 0ea6 868D      		ldd r24,Z+30
 3243               	.LBE631:
 3244               	.LBE630:
 3245               	.LBB632:
 3246               	.LBB633:
 3247               	.LM351:
 3248 0ea8 807E      		andi r24,lo8(-32)
 3249 0eaa 868F      		std Z+30,r24
 3250               	.LBE633:
 3251               	.LBE632:
 3252               	.LBB634:
 3253               	.LBB635:
 3254               	.LM352:
 3255 0eac 17A6      		std Z+47,__zero_reg__
 3256 0eae 10AA      		std Z+48,__zero_reg__
 3257 0eb0 11AA      		std Z+49,__zero_reg__
 3258 0eb2 12AA      		std Z+50,__zero_reg__
 3259               	.LBE635:
 3260               	.LBE634:
 3261               	.LBE623:
 3262               	.LBE622:
 3263               	.LBE621:
 3264               	.LBE620:
 3265               	.LM353:
 3266 0eb4 8A2F      		mov r24,r26
 3267 0eb6 0E94 0000 		call Timebase_DownCounter_SS_Set_Securely
 3268               	.LVL201:
 3269 0eba 81E0      		ldi r24,lo8(1)
 3270               	.LBE617:
 3271               	.LM354:
 3272 0ebc 0895      		ret
 3273               	.LFE57:
 3275               	.global	Timebase_DownCounter_SS_Set_Period_Value_Securely
 3277               	Timebase_DownCounter_SS_Set_Period_Value_Securely:
 3278               	.LFB58:
 3279               	.LM355:
 3280               	.LVL202:
 3281 0ebe CF93      		push r28
 3282 0ec0 DF93      		push r29
 3283               	/* prologue: function */
 3284               	/* frame size = 0 */
 3285               	.LBB636:
 3286               	.LBB637:
 3287               	.LM356:
 3288 0ec2 C091 0000 		lds r28,Timebase
 3289 0ec6 D091 0000 		lds r29,(Timebase)+1
 3290 0eca 282F      		mov r18,r24
 3291 0ecc 30E0      		ldi r19,lo8(0)
 3292               	.LBE637:
 3293               	.LBE636:
 3294               	.LM357:
 3295 0ece 85E1      		ldi r24,lo8(21)
 3296 0ed0 90E0      		ldi r25,hi8(21)
 3297               	.LVL203:
 3298 0ed2 289F      		mul r18,r24
 3299 0ed4 F001      		movw r30,r0
 3300 0ed6 299F      		mul r18,r25
 3301 0ed8 F00D      		add r31,r0
 3302 0eda 389F      		mul r19,r24
 3303 0edc F00D      		add r31,r0
 3304 0ede 1124      		clr r1
 3305 0ee0 EC0F      		add r30,r28
 3306 0ee2 FD1F      		adc r31,r29
 3307 0ee4 868D      		ldd r24,Z+30
 3308 0ee6 80FD      		sbrc r24,0
 3309 0ee8 00C0      		rjmp .L159
 3310               	.LM358:
 3311 0eea 87A1      		ldd r24,Z+39
 3312 0eec 90A5      		ldd r25,Z+40
 3313 0eee A1A5      		ldd r26,Z+41
 3314 0ef0 B2A5      		ldd r27,Z+42
 3315 0ef2 841B      		sub r24,r20
 3316 0ef4 950B      		sbc r25,r21
 3317 0ef6 A60B      		sbc r26,r22
 3318 0ef8 B70B      		sbc r27,r23
 3319               	.LBB638:
 3320               	.LBB639:
 3321               	.LM359:
 3322 0efa B7FF      		sbrs r27,7
 3323 0efc 00C0      		rjmp .L157
 3324               	.LM360:
 3325 0efe 13A6      		std Z+43,__zero_reg__
 3326 0f00 14A6      		std Z+44,__zero_reg__
 3327 0f02 15A6      		std Z+45,__zero_reg__
 3328 0f04 16A6      		std Z+46,__zero_reg__
 3329 0f06 00C0      		rjmp .L158
 3330               	.L157:
 3331               	.LM361:
 3332 0f08 83A7      		std Z+43,r24
 3333 0f0a 94A7      		std Z+44,r25
 3334 0f0c A5A7      		std Z+45,r26
 3335 0f0e B6A7      		std Z+46,r27
 3336               	.L158:
 3337               	.LBE639:
 3338               	.LBE638:
 3339               	.LBB640:
 3340               	.LBB641:
 3341               	.LM362:
 3342 0f10 85E1      		ldi r24,lo8(21)
 3343 0f12 90E0      		ldi r25,hi8(21)
 3344 0f14 289F      		mul r18,r24
 3345 0f16 F001      		movw r30,r0
 3346 0f18 299F      		mul r18,r25
 3347 0f1a F00D      		add r31,r0
 3348 0f1c 389F      		mul r19,r24
 3349 0f1e F00D      		add r31,r0
 3350 0f20 1124      		clr r1
 3351 0f22 EC0F      		add r30,r28
 3352 0f24 FD1F      		adc r31,r29
 3353 0f26 868D      		ldd r24,Z+30
 3354 0f28 8160      		ori r24,lo8(1)
 3355 0f2a 868F      		std Z+30,r24
 3356               	.L159:
 3357               	/* epilogue start */
 3358               	.LBE641:
 3359               	.LBE640:
 3360               	.LM363:
 3361 0f2c DF91      		pop r29
 3362 0f2e CF91      		pop r28
 3363 0f30 0895      		ret
 3364               	.LFE58:
 3366               	.global	Timebase_DownCounter_SS_Get_Remaining_Period_Value
 3368               	Timebase_DownCounter_SS_Get_Remaining_Period_Value:
 3369               	.LFB59:
 3370               	.LM364:
 3371               	.LVL204:
 3372               	/* prologue: function */
 3373               	/* frame size = 0 */
 3374               	.LBB642:
 3375               	.LBB643:
 3376               	.LM365:
 3377 0f32 E091 0000 		lds r30,Timebase
 3378 0f36 F091 0000 		lds r31,(Timebase)+1
 3379 0f3a 90E0      		ldi r25,lo8(0)
 3380               	.LBE643:
 3381               	.LBE642:
 3382               	.LM366:
 3383 0f3c 25E1      		ldi r18,lo8(21)
 3384 0f3e 30E0      		ldi r19,hi8(21)
 3385 0f40 AC01      		movw r20,r24
 3386               	.LVL205:
 3387 0f42 429F      		mul r20,r18
 3388 0f44 C001      		movw r24,r0
 3389 0f46 439F      		mul r20,r19
 3390 0f48 900D      		add r25,r0
 3391 0f4a 529F      		mul r21,r18
 3392 0f4c 900D      		add r25,r0
 3393 0f4e 1124      		clr r1
 3394 0f50 E80F      		add r30,r24
 3395 0f52 F91F      		adc r31,r25
 3396 0f54 27A1      		ldd r18,Z+39
 3397 0f56 30A5      		ldd r19,Z+40
 3398 0f58 41A5      		ldd r20,Z+41
 3399 0f5a 52A5      		ldd r21,Z+42
 3400               	.LVL206:
 3401 0f5c 83A5      		ldd r24,Z+43
 3402 0f5e 94A5      		ldd r25,Z+44
 3403 0f60 A5A5      		ldd r26,Z+45
 3404 0f62 B6A5      		ldd r27,Z+46
 3405 0f64 281B      		sub r18,r24
 3406 0f66 390B      		sbc r19,r25
 3407 0f68 4A0B      		sbc r20,r26
 3408 0f6a 5B0B      		sbc r21,r27
 3409 0f6c 57FF      		sbrs r21,7
 3410 0f6e 00C0      		rjmp .L161
 3411 0f70 20E0      		ldi r18,lo8(0)
 3412 0f72 30E0      		ldi r19,hi8(0)
 3413 0f74 40E0      		ldi r20,hlo8(0)
 3414 0f76 50E0      		ldi r21,hhi8(0)
 3415               	.L161:
 3416               	.LM367:
 3417 0f78 B901      		movw r22,r18
 3418               	.LVL207:
 3419 0f7a CA01      		movw r24,r20
 3420               	/* epilogue start */
 3421 0f7c 0895      		ret
 3422               	.LFE59:
 3424               	.global	Timebase_DownCounter_SS_Period_Value_Expired
 3426               	Timebase_DownCounter_SS_Period_Value_Expired:
 3427               	.LFB60:
 3428               	.LM368:
 3429               	.LVL208:
 3430 0f7e CF93      		push r28
 3431 0f80 DF93      		push r29
 3432               	/* prologue: function */
 3433               	/* frame size = 0 */
 3434               	.LBB644:
 3435               	.LBB645:
 3436               	.LBB646:
 3437               	.LBB647:
 3438               	.LM369:
 3439 0f82 C091 0000 		lds r28,Timebase
 3440 0f86 D091 0000 		lds r29,(Timebase)+1
 3441 0f8a 682F      		mov r22,r24
 3442 0f8c 70E0      		ldi r23,lo8(0)
 3443               	.LBE647:
 3444               	.LBE646:
 3445               	.LM370:
 3446 0f8e 85E1      		ldi r24,lo8(21)
 3447 0f90 90E0      		ldi r25,hi8(21)
 3448               	.LVL209:
 3449 0f92 689F      		mul r22,r24
 3450 0f94 F001      		movw r30,r0
 3451 0f96 699F      		mul r22,r25
 3452 0f98 F00D      		add r31,r0
 3453 0f9a 789F      		mul r23,r24
 3454 0f9c F00D      		add r31,r0
 3455 0f9e 1124      		clr r1
 3456 0fa0 EC0F      		add r30,r28
 3457 0fa2 FD1F      		adc r31,r29
 3458 0fa4 27A1      		ldd r18,Z+39
 3459 0fa6 30A5      		ldd r19,Z+40
 3460 0fa8 41A5      		ldd r20,Z+41
 3461 0faa 52A5      		ldd r21,Z+42
 3462               	.LVL210:
 3463 0fac 83A5      		ldd r24,Z+43
 3464 0fae 94A5      		ldd r25,Z+44
 3465 0fb0 A5A5      		ldd r26,Z+45
 3466 0fb2 B6A5      		ldd r27,Z+46
 3467 0fb4 281B      		sub r18,r24
 3468 0fb6 390B      		sbc r19,r25
 3469 0fb8 4A0B      		sbc r20,r26
 3470 0fba 5B0B      		sbc r21,r27
 3471               	.LM371:
 3472 0fbc 57FD      		sbrc r21,7
 3473 0fbe 00C0      		rjmp .L164
 3474               	.LBE645:
 3475               	.LBE644:
 3476               	.LM372:
 3477 0fc0 2115      		cp r18,__zero_reg__
 3478 0fc2 3105      		cpc r19,__zero_reg__
 3479 0fc4 4105      		cpc r20,__zero_reg__
 3480 0fc6 5105      		cpc r21,__zero_reg__
 3481 0fc8 01F0      		breq .L164
 3482 0fca 20E0      		ldi r18,lo8(0)
 3483               	.LVL211:
 3484 0fcc 00C0      		rjmp .L165
 3485               	.LVL212:
 3486               	.L164:
 3487 0fce 20E0      		ldi r18,lo8(0)
 3488               	.LVL213:
 3489 0fd0 85E1      		ldi r24,lo8(21)
 3490 0fd2 90E0      		ldi r25,hi8(21)
 3491 0fd4 AC01      		movw r20,r24
 3492 0fd6 649F      		mul r22,r20
 3493 0fd8 C001      		movw r24,r0
 3494 0fda 659F      		mul r22,r21
 3495 0fdc 900D      		add r25,r0
 3496 0fde 749F      		mul r23,r20
 3497 0fe0 900D      		add r25,r0
 3498 0fe2 1124      		clr r1
 3499 0fe4 C80F      		add r28,r24
 3500 0fe6 D91F      		adc r29,r25
 3501 0fe8 8E8D      		ldd r24,Y+30
 3502 0fea 80FF      		sbrs r24,0
 3503 0fec 21E0      		ldi r18,lo8(1)
 3504               	.L166:
 3505 0fee 81E0      		ldi r24,lo8(1)
 3506 0ff0 2827      		eor r18,r24
 3507               	.L165:
 3508               	.LM373:
 3509 0ff2 822F      		mov r24,r18
 3510               	/* epilogue start */
 3511 0ff4 DF91      		pop r29
 3512 0ff6 CF91      		pop r28
 3513 0ff8 0895      		ret
 3514               	.LFE60:
 3516               	.global	Timebase_DownCounter_SS_Period_Value_Expired_Event
 3518               	Timebase_DownCounter_SS_Period_Value_Expired_Event:
 3519               	.LFB61:
 3520               	.LM374:
 3521               	.LVL214:
 3522 0ffa 1F93      		push r17
 3523               	/* prologue: function */
 3524               	/* frame size = 0 */
 3525 0ffc 182F      		mov r17,r24
 3526               	.LM375:
 3527 0ffe 0E94 0000 		call Timebase_DownCounter_SS_Period_Value_Expired
 3528               	.LVL215:
 3529 1002 8130      		cpi r24,lo8(1)
 3530 1004 01F0      		breq .L169
 3531 1006 80E0      		ldi r24,lo8(0)
 3532 1008 00C0      		rjmp .L170
 3533               	.L169:
 3534               	.LBB648:
 3535               	.LBB649:
 3536               	.LM376:
 3537 100a E091 0000 		lds r30,Timebase
 3538 100e F091 0000 		lds r31,(Timebase)+1
 3539 1012 212F      		mov r18,r17
 3540 1014 30E0      		ldi r19,lo8(0)
 3541               	.LVL216:
 3542 1016 85E1      		ldi r24,lo8(21)
 3543 1018 90E0      		ldi r25,hi8(21)
 3544 101a AC01      		movw r20,r24
 3545 101c 249F      		mul r18,r20
 3546 101e C001      		movw r24,r0
 3547 1020 259F      		mul r18,r21
 3548 1022 900D      		add r25,r0
 3549 1024 349F      		mul r19,r20
 3550 1026 900D      		add r25,r0
 3551 1028 1124      		clr r1
 3552 102a E80F      		add r30,r24
 3553 102c F91F      		adc r31,r25
 3554 102e 868D      		ldd r24,Z+30
 3555 1030 8E7F      		andi r24,lo8(-2)
 3556 1032 868F      		std Z+30,r24
 3557 1034 81E0      		ldi r24,lo8(1)
 3558               	.L170:
 3559               	/* epilogue start */
 3560               	.LBE649:
 3561               	.LBE648:
 3562               	.LM377:
 3563 1036 1F91      		pop r17
 3564               	.LVL217:
 3565 1038 0895      		ret
 3566               	.LFE61:
 3568               	.global	Timebase_DownCounter_SS_Update_All
 3570               	Timebase_DownCounter_SS_Update_All:
 3571               	.LFB62:
 3572               	.LM378:
 3573               	/* prologue: function */
 3574               	/* frame size = 0 */
 3575               	.LBB650:
 3576               	.LM379:
 3577 103a 80E0      		ldi r24,lo8(0)
 3578 103c 0E94 0000 		call Timebase_DownCounter_SS_Update
 3579               	/* epilogue start */
 3580               	.LBE650:
 3581               	.LM380:
 3582 1040 0895      		ret
 3583               	.LFE62:
 3585               	.global	Timebase_DownCounter_SS_Reset_All
 3587               	Timebase_DownCounter_SS_Reset_All:
 3588               	.LFB63:
 3589               	.LM381:
 3590               	/* prologue: function */
 3591               	/* frame size = 0 */
 3592               	.LBB651:
 3593               	.LBB652:
 3594               	.LBB653:
 3595               	.LBB654:
 3596               	.LBB655:
 3597               	.LM382:
 3598 1042 E091 0000 		lds r30,Timebase
 3599 1046 F091 0000 		lds r31,(Timebase)+1
 3600 104a 13A2      		std Z+35,__zero_reg__
 3601 104c 14A2      		std Z+36,__zero_reg__
 3602 104e 15A2      		std Z+37,__zero_reg__
 3603 1050 16A2      		std Z+38,__zero_reg__
 3604               	.LBE655:
 3605               	.LBE654:
 3606               	.LBB656:
 3607               	.LBB657:
 3608               	.LM383:
 3609 1052 178E      		std Z+31,__zero_reg__
 3610 1054 10A2      		std Z+32,__zero_reg__
 3611 1056 11A2      		std Z+33,__zero_reg__
 3612 1058 12A2      		std Z+34,__zero_reg__
 3613               	.LBE657:
 3614               	.LBE656:
 3615               	.LBB658:
 3616               	.LBB659:
 3617               	.LM384:
 3618 105a 17A2      		std Z+39,__zero_reg__
 3619 105c 10A6      		std Z+40,__zero_reg__
 3620 105e 11A6      		std Z+41,__zero_reg__
 3621 1060 12A6      		std Z+42,__zero_reg__
 3622               	.LBE659:
 3623               	.LBE658:
 3624               	.LBB660:
 3625               	.LBB661:
 3626               	.LM385:
 3627 1062 868D      		ldd r24,Z+30
 3628               	.LBE661:
 3629               	.LBE660:
 3630               	.LBB662:
 3631               	.LBB663:
 3632               	.LM386:
 3633 1064 807E      		andi r24,lo8(-32)
 3634 1066 868F      		std Z+30,r24
 3635               	.LBE663:
 3636               	.LBE662:
 3637               	.LBB664:
 3638               	.LBB665:
 3639               	.LM387:
 3640 1068 17A6      		std Z+47,__zero_reg__
 3641 106a 10AA      		std Z+48,__zero_reg__
 3642 106c 11AA      		std Z+49,__zero_reg__
 3643 106e 12AA      		std Z+50,__zero_reg__
 3644               	/* epilogue start */
 3645               	.LBE665:
 3646               	.LBE664:
 3647               	.LBE653:
 3648               	.LBE652:
 3649               	.LBE651:
 3650               	.LM388:
 3651 1070 0895      		ret
 3652               	.LFE63:
 3654               	.global	Timebase_LPDownCounter_Get_Status
 3656               	Timebase_LPDownCounter_Get_Status:
 3657               	.LFB64:
 3658               	.LM389:
 3659               	.LVL218:
 3660               	/* prologue: function */
 3661               	/* frame size = 0 */
 3662               	.LM390:
 3663 1072 E091 0000 		lds r30,Timebase
 3664 1076 F091 0000 		lds r31,(Timebase)+1
 3665 107a 90E0      		ldi r25,lo8(0)
 3666               	.LVL219:
 3667 107c 9C01      		movw r18,r24
 3668 107e 44E0      		ldi r20,4
 3669 1080 220F      	1:	lsl r18
 3670 1082 331F      		rol r19
 3671 1084 4A95      		dec r20
 3672 1086 01F4      		brne 1b
 3673 1088 280F      		add r18,r24
 3674 108a 391F      		adc r19,r25
 3675 108c E20F      		add r30,r18
 3676 108e F31F      		adc r31,r19
 3677 1090 83A9      		ldd r24,Z+51
 3678               	.LVL220:
 3679 1092 8695      		lsr r24
 3680               	.LM391:
 3681 1094 8F70      		andi r24,lo8(15)
 3682               	/* epilogue start */
 3683 1096 0895      		ret
 3684               	.LFE64:
 3686               	.global	Timebase_LPDownCounter_Set_Status
 3688               	Timebase_LPDownCounter_Set_Status:
 3689               	.LFB65:
 3690               	.LM392:
 3691               	.LVL221:
 3692               	/* prologue: function */
 3693               	/* frame size = 0 */
 3694               	.LM393:
 3695 1098 E091 0000 		lds r30,Timebase
 3696 109c F091 0000 		lds r31,(Timebase)+1
 3697 10a0 90E0      		ldi r25,lo8(0)
 3698               	.LVL222:
 3699 10a2 9C01      		movw r18,r24
 3700 10a4 54E0      		ldi r21,4
 3701 10a6 220F      	1:	lsl r18
 3702 10a8 331F      		rol r19
 3703 10aa 5A95      		dec r21
 3704 10ac 01F4      		brne 1b
 3705 10ae 280F      		add r18,r24
 3706 10b0 391F      		adc r19,r25
 3707 10b2 E20F      		add r30,r18
 3708 10b4 F31F      		adc r31,r19
 3709 10b6 6F70      		andi r22,lo8(15)
 3710               	.LVL223:
 3711 10b8 660F      		lsl r22
 3712 10ba 83A9      		ldd r24,Z+51
 3713               	.LVL224:
 3714 10bc 817E      		andi r24,lo8(-31)
 3715 10be 862B      		or r24,r22
 3716 10c0 83AB      		std Z+51,r24
 3717               	/* epilogue start */
 3718               	.LM394:
 3719 10c2 0895      		ret
 3720               	.LFE65:
 3722               	.global	Timebase_LPDownCounter_Get_Value
 3724               	Timebase_LPDownCounter_Get_Value:
 3725               	.LFB66:
 3726               	.LM395:
 3727               	.LVL225:
 3728               	/* prologue: function */
 3729               	/* frame size = 0 */
 3730               	.LM396:
 3731 10c4 E091 0000 		lds r30,Timebase
 3732 10c8 F091 0000 		lds r31,(Timebase)+1
 3733 10cc 90E0      		ldi r25,lo8(0)
 3734               	.LVL226:
 3735 10ce 9C01      		movw r18,r24
 3736 10d0 64E0      		ldi r22,4
 3737 10d2 220F      	1:	lsl r18
 3738 10d4 331F      		rol r19
 3739 10d6 6A95      		dec r22
 3740 10d8 01F4      		brne 1b
 3741 10da 280F      		add r18,r24
 3742 10dc 391F      		adc r19,r25
 3743 10de E20F      		add r30,r18
 3744 10e0 F31F      		adc r31,r19
 3745 10e2 DF01      		movw r26,r30
 3746 10e4 D896      		adiw r26,56
 3747 10e6 60AD      		ldd r22,Z+56
 3748 10e8 1196      		adiw r26,1
 3749 10ea 7C91      		ld r23,X
 3750 10ec 1197      		sbiw r26,1
 3751               	.LM397:
 3752 10ee 1296      		adiw r26,2
 3753 10f0 8C91      		ld r24,X
 3754 10f2 1297      		sbiw r26,2
 3755               	.LVL227:
 3756 10f4 1396      		adiw r26,3
 3757 10f6 9C91      		ld r25,X
 3758               	.LVL228:
 3759               	/* epilogue start */
 3760 10f8 0895      		ret
 3761               	.LFE66:
 3763               	.global	Timebase_LPDownCounter_Set_Value
 3765               	Timebase_LPDownCounter_Set_Value:
 3766               	.LFB67:
 3767               	.LM398:
 3768               	.LVL229:
 3769               	/* prologue: function */
 3770               	/* frame size = 0 */
 3771               	.LM399:
 3772 10fa E091 0000 		lds r30,Timebase
 3773 10fe F091 0000 		lds r31,(Timebase)+1
 3774 1102 90E0      		ldi r25,lo8(0)
 3775               	.LVL230:
 3776 1104 9C01      		movw r18,r24
 3777 1106 A4E0      		ldi r26,4
 3778 1108 220F      	1:	lsl r18
 3779 110a 331F      		rol r19
 3780 110c AA95      		dec r26
 3781 110e 01F4      		brne 1b
 3782 1110 280F      		add r18,r24
 3783 1112 391F      		adc r19,r25
 3784 1114 E20F      		add r30,r18
 3785 1116 F31F      		adc r31,r19
 3786 1118 40AF      		std Z+56,r20
 3787 111a 51AF      		std Z+57,r21
 3788 111c 62AF      		std Z+58,r22
 3789 111e 73AF      		std Z+59,r23
 3790               	/* epilogue start */
 3791               	.LM400:
 3792 1120 0895      		ret
 3793               	.LFE67:
 3795               	.global	Timebase_LPDownCounter_Get_EndValue
 3797               	Timebase_LPDownCounter_Get_EndValue:
 3798               	.LFB68:
 3799               	.LM401:
 3800               	.LVL231:
 3801               	/* prologue: function */
 3802               	/* frame size = 0 */
 3803               	.LM402:
 3804 1122 E091 0000 		lds r30,Timebase
 3805 1126 F091 0000 		lds r31,(Timebase)+1
 3806 112a 90E0      		ldi r25,lo8(0)
 3807               	.LVL232:
 3808 112c 9C01      		movw r18,r24
 3809 112e B4E0      		ldi r27,4
 3810 1130 220F      	1:	lsl r18
 3811 1132 331F      		rol r19
 3812 1134 BA95      		dec r27
 3813 1136 01F4      		brne 1b
 3814 1138 280F      		add r18,r24
 3815 113a 391F      		adc r19,r25
 3816 113c E20F      		add r30,r18
 3817 113e F31F      		adc r31,r19
 3818 1140 DF01      		movw r26,r30
 3819 1142 D496      		adiw r26,52
 3820 1144 64A9      		ldd r22,Z+52
 3821 1146 1196      		adiw r26,1
 3822 1148 7C91      		ld r23,X
 3823 114a 1197      		sbiw r26,1
 3824               	.LM403:
 3825 114c 1296      		adiw r26,2
 3826 114e 8C91      		ld r24,X
 3827 1150 1297      		sbiw r26,2
 3828               	.LVL233:
 3829 1152 1396      		adiw r26,3
 3830 1154 9C91      		ld r25,X
 3831               	.LVL234:
 3832               	/* epilogue start */
 3833 1156 0895      		ret
 3834               	.LFE68:
 3836               	.global	Timebase_LPDownCounter_Set_EndValue
 3838               	Timebase_LPDownCounter_Set_EndValue:
 3839               	.LFB69:
 3840               	.LM404:
 3841               	.LVL235:
 3842               	/* prologue: function */
 3843               	/* frame size = 0 */
 3844               	.LM405:
 3845 1158 E091 0000 		lds r30,Timebase
 3846 115c F091 0000 		lds r31,(Timebase)+1
 3847 1160 90E0      		ldi r25,lo8(0)
 3848               	.LVL236:
 3849 1162 9C01      		movw r18,r24
 3850 1164 A4E0      		ldi r26,4
 3851 1166 220F      	1:	lsl r18
 3852 1168 331F      		rol r19
 3853 116a AA95      		dec r26
 3854 116c 01F4      		brne 1b
 3855 116e 280F      		add r18,r24
 3856 1170 391F      		adc r19,r25
 3857 1172 E20F      		add r30,r18
 3858 1174 F31F      		adc r31,r19
 3859 1176 44AB      		std Z+52,r20
 3860 1178 55AB      		std Z+53,r21
 3861 117a 66AB      		std Z+54,r22
 3862 117c 77AB      		std Z+55,r23
 3863               	/* epilogue start */
 3864               	.LM406:
 3865 117e 0895      		ret
 3866               	.LFE69:
 3868               	.global	Timebase_LPDownCounter_Get_PeriodValue
 3870               	Timebase_LPDownCounter_Get_PeriodValue:
 3871               	.LFB70:
 3872               	.LM407:
 3873               	.LVL237:
 3874               	/* prologue: function */
 3875               	/* frame size = 0 */
 3876               	.LM408:
 3877 1180 E091 0000 		lds r30,Timebase
 3878 1184 F091 0000 		lds r31,(Timebase)+1
 3879 1188 90E0      		ldi r25,lo8(0)
 3880               	.LVL238:
 3881 118a 9C01      		movw r18,r24
 3882 118c B4E0      		ldi r27,4
 3883 118e 220F      	1:	lsl r18
 3884 1190 331F      		rol r19
 3885 1192 BA95      		dec r27
 3886 1194 01F4      		brne 1b
 3887 1196 280F      		add r18,r24
 3888 1198 391F      		adc r19,r25
 3889 119a E20F      		add r30,r18
 3890 119c F31F      		adc r31,r19
 3891 119e DF01      		movw r26,r30
 3892 11a0 DC96      		adiw r26,60
 3893 11a2 64AD      		ldd r22,Z+60
 3894 11a4 1196      		adiw r26,1
 3895 11a6 7C91      		ld r23,X
 3896 11a8 1197      		sbiw r26,1
 3897               	.LM409:
 3898 11aa 1296      		adiw r26,2
 3899 11ac 8C91      		ld r24,X
 3900 11ae 1297      		sbiw r26,2
 3901               	.LVL239:
 3902 11b0 1396      		adiw r26,3
 3903 11b2 9C91      		ld r25,X
 3904               	.LVL240:
 3905               	/* epilogue start */
 3906 11b4 0895      		ret
 3907               	.LFE70:
 3909               	.global	Timebase_LPDownCounter_Set_PeriodValue
 3911               	Timebase_LPDownCounter_Set_PeriodValue:
 3912               	.LFB71:
 3913               	.LM410:
 3914               	.LVL241:
 3915               	/* prologue: function */
 3916               	/* frame size = 0 */
 3917 11b6 E091 0000 		lds r30,Timebase
 3918 11ba F091 0000 		lds r31,(Timebase)+1
 3919 11be 282F      		mov r18,r24
 3920 11c0 30E0      		ldi r19,lo8(0)
 3921               	.LVL242:
 3922               	.LM411:
 3923 11c2 77FF      		sbrs r23,7
 3924 11c4 00C0      		rjmp .L191
 3925               	.LVL243:
 3926               	.LM412:
 3927 11c6 C901      		movw r24,r18
 3928 11c8 B4E0      		ldi r27,4
 3929 11ca 880F      	1:	lsl r24
 3930 11cc 991F      		rol r25
 3931 11ce BA95      		dec r27
 3932 11d0 01F4      		brne 1b
 3933 11d2 820F      		add r24,r18
 3934 11d4 931F      		adc r25,r19
 3935 11d6 E80F      		add r30,r24
 3936 11d8 F91F      		adc r31,r25
 3937 11da 14AE      		std Z+60,__zero_reg__
 3938 11dc 15AE      		std Z+61,__zero_reg__
 3939 11de 16AE      		std Z+62,__zero_reg__
 3940 11e0 17AE      		std Z+63,__zero_reg__
 3941 11e2 0895      		ret
 3942               	.LVL244:
 3943               	.L191:
 3944               	.LM413:
 3945 11e4 C901      		movw r24,r18
 3946 11e6 A4E0      		ldi r26,4
 3947 11e8 880F      	1:	lsl r24
 3948 11ea 991F      		rol r25
 3949 11ec AA95      		dec r26
 3950 11ee 01F4      		brne 1b
 3951 11f0 820F      		add r24,r18
 3952 11f2 931F      		adc r25,r19
 3953 11f4 E80F      		add r30,r24
 3954 11f6 F91F      		adc r31,r25
 3955 11f8 44AF      		std Z+60,r20
 3956 11fa 55AF      		std Z+61,r21
 3957 11fc 66AF      		std Z+62,r22
 3958 11fe 77AF      		std Z+63,r23
 3959 1200 0895      		ret
 3960               	.LFE71:
 3962               	.global	Timebase_LPDownCounter_Get_Period_Flag
 3964               	Timebase_LPDownCounter_Get_Period_Flag:
 3965               	.LFB72:
 3966               	.LM414:
 3967               	.LVL245:
 3968               	/* prologue: function */
 3969               	/* frame size = 0 */
 3970               	.LM415:
 3971 1202 E091 0000 		lds r30,Timebase
 3972 1206 F091 0000 		lds r31,(Timebase)+1
 3973 120a 90E0      		ldi r25,lo8(0)
 3974               	.LVL246:
 3975 120c 9C01      		movw r18,r24
 3976 120e 44E0      		ldi r20,4
 3977 1210 220F      	1:	lsl r18
 3978 1212 331F      		rol r19
 3979 1214 4A95      		dec r20
 3980 1216 01F4      		brne 1b
 3981 1218 280F      		add r18,r24
 3982 121a 391F      		adc r19,r25
 3983 121c E20F      		add r30,r18
 3984 121e F31F      		adc r31,r19
 3985 1220 83A9      		ldd r24,Z+51
 3986               	.LVL247:
 3987               	.LM416:
 3988 1222 8170      		andi r24,lo8(1)
 3989               	/* epilogue start */
 3990 1224 0895      		ret
 3991               	.LFE72:
 3993               	.global	Timebase_LPDownCounter_Set_Period_Flag
 3995               	Timebase_LPDownCounter_Set_Period_Flag:
 3996               	.LFB73:
 3997               	.LM417:
 3998               	.LVL248:
 3999               	/* prologue: function */
 4000               	/* frame size = 0 */
 4001               	.LM418:
 4002 1226 E091 0000 		lds r30,Timebase
 4003 122a F091 0000 		lds r31,(Timebase)+1
 4004 122e 90E0      		ldi r25,lo8(0)
 4005               	.LVL249:
 4006 1230 9C01      		movw r18,r24
 4007 1232 54E0      		ldi r21,4
 4008 1234 220F      	1:	lsl r18
 4009 1236 331F      		rol r19
 4010 1238 5A95      		dec r21
 4011 123a 01F4      		brne 1b
 4012 123c 280F      		add r18,r24
 4013 123e 391F      		adc r19,r25
 4014 1240 E20F      		add r30,r18
 4015 1242 F31F      		adc r31,r19
 4016 1244 83A9      		ldd r24,Z+51
 4017               	.LVL250:
 4018 1246 8160      		ori r24,lo8(1)
 4019 1248 83AB      		std Z+51,r24
 4020               	/* epilogue start */
 4021               	.LM419:
 4022 124a 0895      		ret
 4023               	.LFE73:
 4025               	.global	Timebase_LPDownCounter_Clear_Period_Flag
 4027               	Timebase_LPDownCounter_Clear_Period_Flag:
 4028               	.LFB74:
 4029               	.LM420:
 4030               	.LVL251:
 4031               	/* prologue: function */
 4032               	/* frame size = 0 */
 4033               	.LM421:
 4034 124c E091 0000 		lds r30,Timebase
 4035 1250 F091 0000 		lds r31,(Timebase)+1
 4036 1254 90E0      		ldi r25,lo8(0)
 4037               	.LVL252:
 4038 1256 9C01      		movw r18,r24
 4039 1258 64E0      		ldi r22,4
 4040 125a 220F      	1:	lsl r18
 4041 125c 331F      		rol r19
 4042 125e 6A95      		dec r22
 4043 1260 01F4      		brne 1b
 4044 1262 280F      		add r18,r24
 4045 1264 391F      		adc r19,r25
 4046 1266 E20F      		add r30,r18
 4047 1268 F31F      		adc r31,r19
 4048 126a 83A9      		ldd r24,Z+51
 4049               	.LVL253:
 4050 126c 8E7F      		andi r24,lo8(-2)
 4051 126e 83AB      		std Z+51,r24
 4052               	/* epilogue start */
 4053               	.LM422:
 4054 1270 0895      		ret
 4055               	.LFE74:
 4057               	.global	Timebase_LPDownCounter_Get_ReloadValue
 4059               	Timebase_LPDownCounter_Get_ReloadValue:
 4060               	.LFB75:
 4061               	.LM423:
 4062               	.LVL254:
 4063               	/* prologue: function */
 4064               	/* frame size = 0 */
 4065               	.LM424:
 4066 1272 E091 0000 		lds r30,Timebase
 4067 1276 F091 0000 		lds r31,(Timebase)+1
 4068 127a 90E0      		ldi r25,lo8(0)
 4069               	.LVL255:
 4070 127c 9C01      		movw r18,r24
 4071 127e 74E0      		ldi r23,4
 4072 1280 220F      	1:	lsl r18
 4073 1282 331F      		rol r19
 4074 1284 7A95      		dec r23
 4075 1286 01F4      		brne 1b
 4076 1288 280F      		add r18,r24
 4077 128a 391F      		adc r19,r25
 4078 128c E20F      		add r30,r18
 4079 128e F31F      		adc r31,r19
 4080 1290 E05C      		subi r30,lo8(-(64))
 4081 1292 FF4F      		sbci r31,hi8(-(64))
 4082 1294 6081      		ld r22,Z
 4083 1296 7181      		ldd r23,Z+1
 4084               	.LM425:
 4085 1298 8281      		ldd r24,Z+2
 4086               	.LVL256:
 4087 129a 9381      		ldd r25,Z+3
 4088               	.LVL257:
 4089               	/* epilogue start */
 4090 129c 0895      		ret
 4091               	.LFE75:
 4093               	.global	Timebase_LPDownCounter_Set_ReloadValue
 4095               	Timebase_LPDownCounter_Set_ReloadValue:
 4096               	.LFB76:
 4097               	.LM426:
 4098               	.LVL258:
 4099               	/* prologue: function */
 4100               	/* frame size = 0 */
 4101               	.LM427:
 4102 129e E091 0000 		lds r30,Timebase
 4103 12a2 F091 0000 		lds r31,(Timebase)+1
 4104 12a6 90E0      		ldi r25,lo8(0)
 4105               	.LVL259:
 4106 12a8 9C01      		movw r18,r24
 4107 12aa A4E0      		ldi r26,4
 4108 12ac 220F      	1:	lsl r18
 4109 12ae 331F      		rol r19
 4110 12b0 AA95      		dec r26
 4111 12b2 01F4      		brne 1b
 4112 12b4 280F      		add r18,r24
 4113 12b6 391F      		adc r19,r25
 4114 12b8 E20F      		add r30,r18
 4115 12ba F31F      		adc r31,r19
 4116 12bc E05C      		subi r30,lo8(-(64))
 4117 12be FF4F      		sbci r31,hi8(-(64))
 4118 12c0 4083      		st Z,r20
 4119 12c2 5183      		std Z+1,r21
 4120 12c4 6283      		std Z+2,r22
 4121 12c6 7383      		std Z+3,r23
 4122               	/* epilogue start */
 4123               	.LM428:
 4124 12c8 0895      		ret
 4125               	.LFE76:
 4127               	.global	Timebase_LPDownCounter_Reset
 4129               	Timebase_LPDownCounter_Reset:
 4130               	.LFB77:
 4131               	.LM429:
 4132               	.LVL260:
 4133               	/* prologue: function */
 4134               	/* frame size = 0 */
 4135               	.LBB666:
 4136               	.LBB667:
 4137               	.LM430:
 4138 12ca E091 0000 		lds r30,Timebase
 4139 12ce F091 0000 		lds r31,(Timebase)+1
 4140 12d2 90E0      		ldi r25,lo8(0)
 4141 12d4 9C01      		movw r18,r24
 4142               	.LVL261:
 4143 12d6 B4E0      		ldi r27,4
 4144 12d8 220F      	1:	lsl r18
 4145 12da 331F      		rol r19
 4146 12dc BA95      		dec r27
 4147 12de 01F4      		brne 1b
 4148 12e0 280F      		add r18,r24
 4149 12e2 391F      		adc r19,r25
 4150 12e4 E20F      		add r30,r18
 4151 12e6 F31F      		adc r31,r19
 4152 12e8 14AA      		std Z+52,__zero_reg__
 4153 12ea 15AA      		std Z+53,__zero_reg__
 4154 12ec 16AA      		std Z+54,__zero_reg__
 4155 12ee 17AA      		std Z+55,__zero_reg__
 4156               	.LBE667:
 4157               	.LBE666:
 4158               	.LBB668:
 4159               	.LBB669:
 4160               	.LM431:
 4161 12f0 10AE      		std Z+56,__zero_reg__
 4162 12f2 11AE      		std Z+57,__zero_reg__
 4163 12f4 12AE      		std Z+58,__zero_reg__
 4164 12f6 13AE      		std Z+59,__zero_reg__
 4165               	.LBE669:
 4166               	.LBE668:
 4167               	.LBB670:
 4168               	.LBB671:
 4169               	.LM432:
 4170 12f8 83A9      		ldd r24,Z+51
 4171               	.LBE671:
 4172               	.LBE670:
 4173               	.LBB672:
 4174               	.LBB673:
 4175               	.LM433:
 4176 12fa 807E      		andi r24,lo8(-32)
 4177 12fc 83AB      		std Z+51,r24
 4178               	.LBE673:
 4179               	.LBE672:
 4180               	.LBB674:
 4181               	.LBB675:
 4182               	.LM434:
 4183 12fe E05C      		subi r30,lo8(-(64))
 4184 1300 FF4F      		sbci r31,hi8(-(64))
 4185 1302 1082      		st Z,__zero_reg__
 4186 1304 1182      		std Z+1,__zero_reg__
 4187 1306 1282      		std Z+2,__zero_reg__
 4188 1308 1382      		std Z+3,__zero_reg__
 4189               	/* epilogue start */
 4190               	.LBE675:
 4191               	.LBE674:
 4192               	.LM435:
 4193 130a 0895      		ret
 4194               	.LFE77:
 4196               	.global	Timebase_LPDownCounter_Clear_All_Flags
 4198               	Timebase_LPDownCounter_Clear_All_Flags:
 4199               	.LFB78:
 4200               	.LM436:
 4201               	.LVL262:
 4202               	/* prologue: function */
 4203               	/* frame size = 0 */
 4204               	.LBB676:
 4205               	.LBB677:
 4206               	.LBB678:
 4207               	.LBB679:
 4208               	.LM437:
 4209 130c E091 0000 		lds r30,Timebase
 4210 1310 F091 0000 		lds r31,(Timebase)+1
 4211 1314 90E0      		ldi r25,lo8(0)
 4212 1316 9C01      		movw r18,r24
 4213               	.LVL263:
 4214 1318 44E0      		ldi r20,4
 4215 131a 220F      	1:	lsl r18
 4216 131c 331F      		rol r19
 4217 131e 4A95      		dec r20
 4218 1320 01F4      		brne 1b
 4219 1322 280F      		add r18,r24
 4220 1324 391F      		adc r19,r25
 4221 1326 E20F      		add r30,r18
 4222 1328 F31F      		adc r31,r19
 4223 132a 14AA      		std Z+52,__zero_reg__
 4224 132c 15AA      		std Z+53,__zero_reg__
 4225 132e 16AA      		std Z+54,__zero_reg__
 4226 1330 17AA      		std Z+55,__zero_reg__
 4227               	.LBE679:
 4228               	.LBE678:
 4229               	.LBB680:
 4230               	.LBB681:
 4231               	.LM438:
 4232 1332 10AE      		std Z+56,__zero_reg__
 4233 1334 11AE      		std Z+57,__zero_reg__
 4234 1336 12AE      		std Z+58,__zero_reg__
 4235 1338 13AE      		std Z+59,__zero_reg__
 4236               	.LBE681:
 4237               	.LBE680:
 4238               	.LBB682:
 4239               	.LBB683:
 4240               	.LM439:
 4241 133a 83A9      		ldd r24,Z+51
 4242               	.LBE683:
 4243               	.LBE682:
 4244               	.LBB684:
 4245               	.LBB685:
 4246               	.LM440:
 4247 133c 807E      		andi r24,lo8(-32)
 4248 133e 83AB      		std Z+51,r24
 4249               	.LBE685:
 4250               	.LBE684:
 4251               	.LBB686:
 4252               	.LBB687:
 4253               	.LM441:
 4254 1340 E05C      		subi r30,lo8(-(64))
 4255 1342 FF4F      		sbci r31,hi8(-(64))
 4256 1344 1082      		st Z,__zero_reg__
 4257 1346 1182      		std Z+1,__zero_reg__
 4258 1348 1282      		std Z+2,__zero_reg__
 4259 134a 1382      		std Z+3,__zero_reg__
 4260               	/* epilogue start */
 4261               	.LBE687:
 4262               	.LBE686:
 4263               	.LBE677:
 4264               	.LBE676:
 4265               	.LM442:
 4266 134c 0895      		ret
 4267               	.LFE78:
 4269               	.global	Timebase_LPDownCounter_Start
 4271               	Timebase_LPDownCounter_Start:
 4272               	.LFB79:
 4273               	.LM443:
 4274               	.LVL264:
 4275               	/* prologue: function */
 4276               	/* frame size = 0 */
 4277               	.LBB688:
 4278               	.LBB689:
 4279               	.LM444:
 4280 134e E091 0000 		lds r30,Timebase
 4281 1352 F091 0000 		lds r31,(Timebase)+1
 4282 1356 90E0      		ldi r25,lo8(0)
 4283               	.LBE689:
 4284               	.LBE688:
 4285               	.LM445:
 4286 1358 9C01      		movw r18,r24
 4287               	.LVL265:
 4288 135a 54E0      		ldi r21,4
 4289 135c 220F      	1:	lsl r18
 4290 135e 331F      		rol r19
 4291 1360 5A95      		dec r21
 4292 1362 01F4      		brne 1b
 4293 1364 280F      		add r18,r24
 4294 1366 391F      		adc r19,r25
 4295 1368 E20F      		add r30,r18
 4296 136a F31F      		adc r31,r19
 4297 136c 93A9      		ldd r25,Z+51
 4298 136e 892F      		mov r24,r25
 4299 1370 8695      		lsr r24
 4300 1372 8F70      		andi r24,lo8(15)
 4301 1374 8130      		cpi r24,lo8(1)
 4302 1376 01F0      		breq .L210
 4303               	.LBB690:
 4304               	.LBB691:
 4305               	.LM446:
 4306 1378 917E      		andi r25,lo8(-31)
 4307 137a 9260      		ori r25,lo8(2)
 4308 137c 93AB      		std Z+51,r25
 4309               	.L210:
 4310 137e 0895      		ret
 4311               	.LBE691:
 4312               	.LBE690:
 4313               	.LFE79:
 4315               	.global	Timebase_LPDownCounter_Stop
 4317               	Timebase_LPDownCounter_Stop:
 4318               	.LFB80:
 4319               	.LM447:
 4320               	.LVL266:
 4321               	/* prologue: function */
 4322               	/* frame size = 0 */
 4323               	.LBB692:
 4324               	.LBB693:
 4325               	.LM448:
 4326 1380 E091 0000 		lds r30,Timebase
 4327 1384 F091 0000 		lds r31,(Timebase)+1
 4328 1388 90E0      		ldi r25,lo8(0)
 4329               	.LBE693:
 4330               	.LBE692:
 4331               	.LM449:
 4332 138a 9C01      		movw r18,r24
 4333               	.LVL267:
 4334 138c 64E0      		ldi r22,4
 4335 138e 220F      	1:	lsl r18
 4336 1390 331F      		rol r19
 4337 1392 6A95      		dec r22
 4338 1394 01F4      		brne 1b
 4339 1396 280F      		add r18,r24
 4340 1398 391F      		adc r19,r25
 4341 139a E20F      		add r30,r18
 4342 139c F31F      		adc r31,r19
 4343 139e 93A9      		ldd r25,Z+51
 4344 13a0 892F      		mov r24,r25
 4345 13a2 8695      		lsr r24
 4346 13a4 8F70      		andi r24,lo8(15)
 4347 13a6 8230      		cpi r24,lo8(2)
 4348 13a8 01F0      		breq .L213
 4349               	.LBB694:
 4350               	.LBB695:
 4351               	.LM450:
 4352 13aa 917E      		andi r25,lo8(-31)
 4353 13ac 9460      		ori r25,lo8(4)
 4354 13ae 93AB      		std Z+51,r25
 4355               	.L213:
 4356 13b0 0895      		ret
 4357               	.LBE695:
 4358               	.LBE694:
 4359               	.LFE80:
 4361               	.global	Timebase_LPDownCounter_Set_Securely
 4363               	Timebase_LPDownCounter_Set_Securely:
 4364               	.LFB81:
 4365               	.LM451:
 4366               	.LVL268:
 4367 13b2 EF92      		push r14
 4368 13b4 FF92      		push r15
 4369 13b6 0F93      		push r16
 4370 13b8 1F93      		push r17
 4371 13ba CF93      		push r28
 4372 13bc DF93      		push r29
 4373               	/* prologue: function */
 4374               	/* frame size = 0 */
 4375 13be 7A01      		movw r14,r20
 4376 13c0 8B01      		movw r16,r22
 4377               	.LBB696:
 4378               	.LBB697:
 4379               	.LM452:
 4380 13c2 C091 0000 		lds r28,Timebase
 4381 13c6 D091 0000 		lds r29,(Timebase)+1
 4382 13ca 682F      		mov r22,r24
 4383 13cc 70E0      		ldi r23,lo8(0)
 4384               	.LBE697:
 4385               	.LBE696:
 4386               	.LM453:
 4387 13ce FB01      		movw r30,r22
 4388 13d0 B4E0      		ldi r27,4
 4389 13d2 EE0F      	1:	lsl r30
 4390 13d4 FF1F      		rol r31
 4391 13d6 BA95      		dec r27
 4392 13d8 01F4      		brne 1b
 4393 13da E60F      		add r30,r22
 4394 13dc F71F      		adc r31,r23
 4395 13de EC0F      		add r30,r28
 4396 13e0 FD1F      		adc r31,r29
 4397 13e2 83A9      		ldd r24,Z+51
 4398               	.LVL269:
 4399 13e4 8695      		lsr r24
 4400 13e6 8F70      		andi r24,lo8(15)
 4401 13e8 01F4      		brne .L217
 4402               	.LVL270:
 4403               	.LBB698:
 4404               	.LBB699:
 4405               	.LM454:
 4406 13ea E0AE      		std Z+56,r14
 4407 13ec F1AE      		std Z+57,r15
 4408 13ee 02AF      		std Z+58,r16
 4409 13f0 13AF      		std Z+59,r17
 4410               	.L216:
 4411               	.LBE699:
 4412               	.LBE698:
 4413               	.LBB700:
 4414               	.LBB701:
 4415               	.LM455:
 4416 13f2 298D      		ldd r18,Y+25
 4417 13f4 3A8D      		ldd r19,Y+26
 4418 13f6 4B8D      		ldd r20,Y+27
 4419 13f8 5C8D      		ldd r21,Y+28
 4420               	.LVL271:
 4421               	.LM456:
 4422 13fa 898D      		ldd r24,Y+25
 4423 13fc 9A8D      		ldd r25,Y+26
 4424 13fe AB8D      		ldd r26,Y+27
 4425 1400 BC8D      		ldd r27,Y+28
 4426               	.LVL272:
 4427               	.LM457:
 4428 1402 2817      		cp r18,r24
 4429 1404 3907      		cpc r19,r25
 4430 1406 4A07      		cpc r20,r26
 4431 1408 5B07      		cpc r21,r27
 4432 140a 01F4      		brne .L216
 4433               	.LBE701:
 4434               	.LBE700:
 4435               	.LBB702:
 4436               	.LBB703:
 4437               	.LM458:
 4438 140c FB01      		movw r30,r22
 4439 140e A4E0      		ldi r26,4
 4440 1410 EE0F      	1:	lsl r30
 4441 1412 FF1F      		rol r31
 4442 1414 AA95      		dec r26
 4443 1416 01F4      		brne 1b
 4444 1418 E60F      		add r30,r22
 4445 141a F71F      		adc r31,r23
 4446 141c EC0F      		add r30,r28
 4447 141e FD1F      		adc r31,r29
 4448 1420 2E0D      		add r18,r14
 4449 1422 3F1D      		adc r19,r15
 4450 1424 401F      		adc r20,r16
 4451 1426 511F      		adc r21,r17
 4452 1428 24AB      		std Z+52,r18
 4453 142a 35AB      		std Z+53,r19
 4454 142c 46AB      		std Z+54,r20
 4455 142e 57AB      		std Z+55,r21
 4456               	.LBE703:
 4457               	.LBE702:
 4458               	.LBB704:
 4459               	.LBB705:
 4460               	.LM459:
 4461 1430 E05C      		subi r30,lo8(-(64))
 4462 1432 FF4F      		sbci r31,hi8(-(64))
 4463 1434 E082      		st Z,r14
 4464 1436 F182      		std Z+1,r15
 4465 1438 0283      		std Z+2,r16
 4466 143a 1383      		std Z+3,r17
 4467 143c E054      		subi r30,lo8(-(-64))
 4468 143e F040      		sbci r31,hi8(-(-64))
 4469               	.LBE705:
 4470               	.LBE704:
 4471               	.LBB706:
 4472               	.LBB707:
 4473               	.LM460:
 4474 1440 93A9      		ldd r25,Z+51
 4475 1442 892F      		mov r24,r25
 4476               	.LVL273:
 4477 1444 8695      		lsr r24
 4478 1446 8F70      		andi r24,lo8(15)
 4479 1448 8130      		cpi r24,lo8(1)
 4480 144a 01F0      		breq .L217
 4481               	.LBB708:
 4482               	.LBB709:
 4483               	.LM461:
 4484 144c 917E      		andi r25,lo8(-31)
 4485 144e 9260      		ori r25,lo8(2)
 4486 1450 93AB      		std Z+51,r25
 4487               	.L217:
 4488               	/* epilogue start */
 4489               	.LBE709:
 4490               	.LBE708:
 4491               	.LBE707:
 4492               	.LBE706:
 4493               	.LM462:
 4494 1452 DF91      		pop r29
 4495 1454 CF91      		pop r28
 4496 1456 1F91      		pop r17
 4497 1458 0F91      		pop r16
 4498 145a FF90      		pop r15
 4499 145c EF90      		pop r14
 4500               	.LVL274:
 4501 145e 0895      		ret
 4502               	.LFE81:
 4504               	.global	Timebase_LPDownCounter_Set_Forcefully
 4506               	Timebase_LPDownCounter_Set_Forcefully:
 4507               	.LFB82:
 4508               	.LM463:
 4509               	.LVL275:
 4510 1460 CF92      		push r12
 4511 1462 DF92      		push r13
 4512 1464 EF92      		push r14
 4513 1466 FF92      		push r15
 4514 1468 0F93      		push r16
 4515 146a 1F93      		push r17
 4516               	/* prologue: function */
 4517               	/* frame size = 0 */
 4518 146c 6A01      		movw r12,r20
 4519 146e 7B01      		movw r14,r22
 4520               	.LBB710:
 4521               	.LBB711:
 4522               	.LBB712:
 4523               	.LBB713:
 4524               	.LM464:
 4525 1470 E091 0000 		lds r30,Timebase
 4526 1474 F091 0000 		lds r31,(Timebase)+1
 4527 1478 282F      		mov r18,r24
 4528 147a 30E0      		ldi r19,lo8(0)
 4529 147c 8901      		movw r16,r18
 4530 147e 94E0      		ldi r25,4
 4531 1480 000F      	1:	lsl r16
 4532 1482 111F      		rol r17
 4533 1484 9A95      		dec r25
 4534 1486 01F4      		brne 1b
 4535 1488 020F      		add r16,r18
 4536 148a 131F      		adc r17,r19
 4537 148c E00F      		add r30,r16
 4538 148e F11F      		adc r31,r17
 4539 1490 14AA      		std Z+52,__zero_reg__
 4540 1492 15AA      		std Z+53,__zero_reg__
 4541 1494 16AA      		std Z+54,__zero_reg__
 4542 1496 17AA      		std Z+55,__zero_reg__
 4543               	.LBE713:
 4544               	.LBE712:
 4545               	.LBB714:
 4546               	.LBB715:
 4547               	.LM465:
 4548 1498 10AE      		std Z+56,__zero_reg__
 4549 149a 11AE      		std Z+57,__zero_reg__
 4550 149c 12AE      		std Z+58,__zero_reg__
 4551 149e 13AE      		std Z+59,__zero_reg__
 4552               	.LBE715:
 4553               	.LBE714:
 4554               	.LBB716:
 4555               	.LBB717:
 4556               	.LM466:
 4557 14a0 93A9      		ldd r25,Z+51
 4558               	.LBE717:
 4559               	.LBE716:
 4560               	.LBB718:
 4561               	.LBB719:
 4562               	.LM467:
 4563 14a2 907E      		andi r25,lo8(-32)
 4564 14a4 93AB      		std Z+51,r25
 4565               	.LBE719:
 4566               	.LBE718:
 4567               	.LBB720:
 4568               	.LBB721:
 4569               	.LM468:
 4570 14a6 E05C      		subi r30,lo8(-(64))
 4571 14a8 FF4F      		sbci r31,hi8(-(64))
 4572 14aa 1082      		st Z,__zero_reg__
 4573 14ac 1182      		std Z+1,__zero_reg__
 4574 14ae 1282      		std Z+2,__zero_reg__
 4575 14b0 1382      		std Z+3,__zero_reg__
 4576               	.LBE721:
 4577               	.LBE720:
 4578               	.LBE711:
 4579               	.LBE710:
 4580               	.LM469:
 4581 14b2 0E94 0000 		call Timebase_LPDownCounter_Set_Securely
 4582               	.LVL276:
 4583               	.LBB722:
 4584               	.LBB723:
 4585               	.LM470:
 4586 14b6 E091 0000 		lds r30,Timebase
 4587 14ba F091 0000 		lds r31,(Timebase)+1
 4588 14be E00F      		add r30,r16
 4589 14c0 F11F      		adc r31,r17
 4590 14c2 E05C      		subi r30,lo8(-(64))
 4591 14c4 FF4F      		sbci r31,hi8(-(64))
 4592 14c6 C082      		st Z,r12
 4593 14c8 D182      		std Z+1,r13
 4594 14ca E282      		std Z+2,r14
 4595 14cc F382      		std Z+3,r15
 4596               	/* epilogue start */
 4597               	.LBE723:
 4598               	.LBE722:
 4599               	.LM471:
 4600 14ce 1F91      		pop r17
 4601 14d0 0F91      		pop r16
 4602 14d2 FF90      		pop r15
 4603 14d4 EF90      		pop r14
 4604 14d6 DF90      		pop r13
 4605 14d8 CF90      		pop r12
 4606               	.LVL277:
 4607 14da 0895      		ret
 4608               	.LFE82:
 4610               	.global	Timebase_LPDownCounter_Update
 4612               	Timebase_LPDownCounter_Update:
 4613               	.LFB83:
 4614               	.LM472:
 4615               	.LVL278:
 4616 14dc CF92      		push r12
 4617 14de DF92      		push r13
 4618 14e0 EF92      		push r14
 4619 14e2 FF92      		push r15
 4620 14e4 0F93      		push r16
 4621 14e6 1F93      		push r17
 4622 14e8 CF93      		push r28
 4623 14ea DF93      		push r29
 4624               	/* prologue: function */
 4625               	/* frame size = 0 */
 4626               	.LBB724:
 4627               	.LBB725:
 4628               	.LM473:
 4629 14ec 6091 0000 		lds r22,Timebase
 4630 14f0 7091 0000 		lds r23,(Timebase)+1
 4631 14f4 C82E      		mov r12,r24
 4632 14f6 DD24      		clr r13
 4633 14f8 F601      		movw r30,r12
 4634 14fa A4E0      		ldi r26,4
 4635 14fc EE0F      	1:	lsl r30
 4636 14fe FF1F      		rol r31
 4637 1500 AA95      		dec r26
 4638 1502 01F4      		brne 1b
 4639 1504 EC0D      		add r30,r12
 4640 1506 FD1D      		adc r31,r13
 4641 1508 E60F      		add r30,r22
 4642 150a F71F      		adc r31,r23
 4643 150c 83A9      		ldd r24,Z+51
 4644               	.LVL279:
 4645 150e 8695      		lsr r24
 4646 1510 8F70      		andi r24,lo8(15)
 4647               	.LBE725:
 4648               	.LBE724:
 4649               	.LM474:
 4650 1512 8130      		cpi r24,lo8(1)
 4651 1514 01F4      		brne .L222
 4652               	.LBB726:
 4653               	.LBB727:
 4654               	.LM475:
 4655 1516 E4A8      		ldd r14,Z+52
 4656 1518 F5A8      		ldd r15,Z+53
 4657 151a 06A9      		ldd r16,Z+54
 4658 151c 17A9      		ldd r17,Z+55
 4659               	.L223:
 4660               	.LBE727:
 4661               	.LBE726:
 4662               	.LBB728:
 4663               	.LBB729:
 4664               	.LM476:
 4665 151e FB01      		movw r30,r22
 4666 1520 218D      		ldd r18,Z+25
 4667 1522 328D      		ldd r19,Z+26
 4668 1524 438D      		ldd r20,Z+27
 4669 1526 548D      		ldd r21,Z+28
 4670               	.LVL280:
 4671               	.LM477:
 4672 1528 818D      		ldd r24,Z+25
 4673 152a 928D      		ldd r25,Z+26
 4674 152c A38D      		ldd r26,Z+27
 4675 152e B48D      		ldd r27,Z+28
 4676               	.LVL281:
 4677               	.LM478:
 4678 1530 2817      		cp r18,r24
 4679 1532 3907      		cpc r19,r25
 4680 1534 4A07      		cpc r20,r26
 4681 1536 5B07      		cpc r21,r27
 4682 1538 01F4      		brne .L223
 4683               	.LBE729:
 4684               	.LBE728:
 4685               	.LM479:
 4686 153a D801      		movw r26,r16
 4687 153c C701      		movw r24,r14
 4688               	.LVL282:
 4689 153e 821B      		sub r24,r18
 4690 1540 930B      		sbc r25,r19
 4691 1542 A40B      		sbc r26,r20
 4692 1544 B50B      		sbc r27,r21
 4693               	.LBB730:
 4694               	.LBB731:
 4695               	.LM480:
 4696 1546 E601      		movw r28,r12
 4697 1548 F4E0      		ldi r31,4
 4698 154a CC0F      	1:	lsl r28
 4699 154c DD1F      		rol r29
 4700 154e FA95      		dec r31
 4701 1550 01F4      		brne 1b
 4702 1552 CC0D      		add r28,r12
 4703 1554 DD1D      		adc r29,r13
 4704 1556 C60F      		add r28,r22
 4705 1558 D71F      		adc r29,r23
 4706 155a 88AF      		std Y+56,r24
 4707 155c 99AF      		std Y+57,r25
 4708 155e AAAF      		std Y+58,r26
 4709 1560 BBAF      		std Y+59,r27
 4710               	.LBE731:
 4711               	.LBE730:
 4712               	.LM481:
 4713 1562 1816      		cp __zero_reg__,r24
 4714 1564 1906      		cpc __zero_reg__,r25
 4715 1566 1A06      		cpc __zero_reg__,r26
 4716 1568 1B06      		cpc __zero_reg__,r27
 4717 156a 04F0      		brlt .L226
 4718               	.LBB732:
 4719               	.LBB733:
 4720               	.LBB734:
 4721               	.LBB735:
 4722               	.LBB736:
 4723               	.LM482:
 4724 156c 1CAA      		std Y+52,__zero_reg__
 4725 156e 1DAA      		std Y+53,__zero_reg__
 4726 1570 1EAA      		std Y+54,__zero_reg__
 4727 1572 1FAA      		std Y+55,__zero_reg__
 4728               	.LBE736:
 4729               	.LBE735:
 4730               	.LBB737:
 4731               	.LBB738:
 4732               	.LM483:
 4733 1574 18AE      		std Y+56,__zero_reg__
 4734 1576 19AE      		std Y+57,__zero_reg__
 4735 1578 1AAE      		std Y+58,__zero_reg__
 4736 157a 1BAE      		std Y+59,__zero_reg__
 4737               	.LBE738:
 4738               	.LBE737:
 4739               	.LBB739:
 4740               	.LBB740:
 4741               	.LM484:
 4742 157c 8BA9      		ldd r24,Y+51
 4743               	.LBE740:
 4744               	.LBE739:
 4745               	.LBE734:
 4746               	.LBE733:
 4747               	.LBB741:
 4748               	.LBB742:
 4749               	.LM485:
 4750 157e 807E      		andi r24,lo8(-32)
 4751 1580 8860      		ori r24,lo8(8)
 4752 1582 8BAB      		std Y+51,r24
 4753 1584 00C0      		rjmp .L226
 4754               	.LVL283:
 4755               	.L222:
 4756               	.LBE742:
 4757               	.LBE741:
 4758               	.LBE732:
 4759               	.LM486:
 4760 1586 8230      		cpi r24,lo8(2)
 4761 1588 01F4      		brne .L226
 4762               	.LBB743:
 4763               	.LBB744:
 4764               	.LM487:
 4765 158a E0AC      		ldd r14,Z+56
 4766 158c F1AC      		ldd r15,Z+57
 4767 158e 02AD      		ldd r16,Z+58
 4768 1590 13AD      		ldd r17,Z+59
 4769               	.L225:
 4770               	.LBE744:
 4771               	.LBE743:
 4772               	.LBB745:
 4773               	.LBB746:
 4774               	.LM488:
 4775 1592 FB01      		movw r30,r22
 4776 1594 218D      		ldd r18,Z+25
 4777 1596 328D      		ldd r19,Z+26
 4778 1598 438D      		ldd r20,Z+27
 4779 159a 548D      		ldd r21,Z+28
 4780               	.LVL284:
 4781               	.LM489:
 4782 159c 818D      		ldd r24,Z+25
 4783 159e 928D      		ldd r25,Z+26
 4784 15a0 A38D      		ldd r26,Z+27
 4785 15a2 B48D      		ldd r27,Z+28
 4786               	.LVL285:
 4787               	.LM490:
 4788 15a4 2817      		cp r18,r24
 4789 15a6 3907      		cpc r19,r25
 4790 15a8 4A07      		cpc r20,r26
 4791 15aa 5B07      		cpc r21,r27
 4792 15ac 01F4      		brne .L225
 4793               	.LBE746:
 4794               	.LBE745:
 4795               	.LBB747:
 4796               	.LBB748:
 4797               	.LM491:
 4798 15ae C601      		movw r24,r12
 4799               	.LVL286:
 4800 15b0 E4E0      		ldi r30,4
 4801 15b2 880F      	1:	lsl r24
 4802 15b4 991F      		rol r25
 4803 15b6 EA95      		dec r30
 4804 15b8 01F4      		brne 1b
 4805 15ba 8C0D      		add r24,r12
 4806 15bc 9D1D      		adc r25,r13
 4807 15be 680F      		add r22,r24
 4808 15c0 791F      		adc r23,r25
 4809 15c2 2E0D      		add r18,r14
 4810 15c4 3F1D      		adc r19,r15
 4811 15c6 401F      		adc r20,r16
 4812 15c8 511F      		adc r21,r17
 4813 15ca FB01      		movw r30,r22
 4814 15cc 24AB      		std Z+52,r18
 4815 15ce 35AB      		std Z+53,r19
 4816 15d0 46AB      		std Z+54,r20
 4817 15d2 57AB      		std Z+55,r21
 4818               	.LVL287:
 4819               	.L226:
 4820               	/* epilogue start */
 4821               	.LBE748:
 4822               	.LBE747:
 4823               	.LM492:
 4824 15d4 DF91      		pop r29
 4825 15d6 CF91      		pop r28
 4826 15d8 1F91      		pop r17
 4827 15da 0F91      		pop r16
 4828 15dc FF90      		pop r15
 4829 15de EF90      		pop r14
 4830 15e0 DF90      		pop r13
 4831 15e2 CF90      		pop r12
 4832 15e4 0895      		ret
 4833               	.LFE83:
 4835               	.global	Timebase_LPDownCounter_Expired
 4837               	Timebase_LPDownCounter_Expired:
 4838               	.LFB84:
 4839               	.LM493:
 4840               	.LVL288:
 4841               	/* prologue: function */
 4842               	/* frame size = 0 */
 4843               	.LM494:
 4844 15e6 40E0      		ldi r20,lo8(0)
 4845 15e8 E091 0000 		lds r30,Timebase
 4846 15ec F091 0000 		lds r31,(Timebase)+1
 4847 15f0 90E0      		ldi r25,lo8(0)
 4848               	.LVL289:
 4849 15f2 9C01      		movw r18,r24
 4850 15f4 B4E0      		ldi r27,4
 4851 15f6 220F      	1:	lsl r18
 4852 15f8 331F      		rol r19
 4853 15fa BA95      		dec r27
 4854 15fc 01F4      		brne 1b
 4855 15fe 280F      		add r18,r24
 4856 1600 391F      		adc r19,r25
 4857 1602 E20F      		add r30,r18
 4858 1604 F31F      		adc r31,r19
 4859 1606 83A9      		ldd r24,Z+51
 4860               	.LVL290:
 4861 1608 8695      		lsr r24
 4862 160a 8F70      		andi r24,lo8(15)
 4863 160c 8430      		cpi r24,lo8(4)
 4864 160e 01F4      		brne .L230
 4865 1610 41E0      		ldi r20,lo8(1)
 4866               	.L230:
 4867               	.LM495:
 4868 1612 842F      		mov r24,r20
 4869               	/* epilogue start */
 4870 1614 0895      		ret
 4871               	.LFE84:
 4873               	.global	Timebase_LPDownCounter_Expired_Event
 4875               	Timebase_LPDownCounter_Expired_Event:
 4876               	.LFB85:
 4877               	.LM496:
 4878               	.LVL291:
 4879               	/* prologue: function */
 4880               	/* frame size = 0 */
 4881               	.LBB749:
 4882               	.LBB750:
 4883               	.LM497:
 4884 1616 E091 0000 		lds r30,Timebase
 4885 161a F091 0000 		lds r31,(Timebase)+1
 4886 161e 90E0      		ldi r25,lo8(0)
 4887               	.LBE750:
 4888               	.LBE749:
 4889               	.LM498:
 4890 1620 9C01      		movw r18,r24
 4891               	.LVL292:
 4892 1622 44E0      		ldi r20,4
 4893 1624 220F      	1:	lsl r18
 4894 1626 331F      		rol r19
 4895 1628 4A95      		dec r20
 4896 162a 01F4      		brne 1b
 4897 162c 280F      		add r18,r24
 4898 162e 391F      		adc r19,r25
 4899 1630 E20F      		add r30,r18
 4900 1632 F31F      		adc r31,r19
 4901 1634 83A9      		ldd r24,Z+51
 4902 1636 8695      		lsr r24
 4903 1638 8F70      		andi r24,lo8(15)
 4904 163a 8430      		cpi r24,lo8(4)
 4905 163c 01F0      		breq .L233
 4906 163e 80E0      		ldi r24,lo8(0)
 4907 1640 0895      		ret
 4908               	.L233:
 4909               	.LBB751:
 4910               	.LBB752:
 4911               	.LBB753:
 4912               	.LBB754:
 4913               	.LBB755:
 4914               	.LBB756:
 4915               	.LM499:
 4916 1642 14AA      		std Z+52,__zero_reg__
 4917 1644 15AA      		std Z+53,__zero_reg__
 4918 1646 16AA      		std Z+54,__zero_reg__
 4919 1648 17AA      		std Z+55,__zero_reg__
 4920               	.LBE756:
 4921               	.LBE755:
 4922               	.LBB757:
 4923               	.LBB758:
 4924               	.LM500:
 4925 164a 10AE      		std Z+56,__zero_reg__
 4926 164c 11AE      		std Z+57,__zero_reg__
 4927 164e 12AE      		std Z+58,__zero_reg__
 4928 1650 13AE      		std Z+59,__zero_reg__
 4929               	.LBE758:
 4930               	.LBE757:
 4931               	.LBB759:
 4932               	.LBB760:
 4933               	.LM501:
 4934 1652 83A9      		ldd r24,Z+51
 4935               	.LBE760:
 4936               	.LBE759:
 4937               	.LBB761:
 4938               	.LBB762:
 4939               	.LM502:
 4940 1654 807E      		andi r24,lo8(-32)
 4941 1656 83AB      		std Z+51,r24
 4942               	.LBE762:
 4943               	.LBE761:
 4944               	.LBB763:
 4945               	.LBB764:
 4946               	.LM503:
 4947 1658 E05C      		subi r30,lo8(-(64))
 4948 165a FF4F      		sbci r31,hi8(-(64))
 4949 165c 1082      		st Z,__zero_reg__
 4950 165e 1182      		std Z+1,__zero_reg__
 4951 1660 1282      		std Z+2,__zero_reg__
 4952 1662 1382      		std Z+3,__zero_reg__
 4953 1664 81E0      		ldi r24,lo8(1)
 4954               	.LBE764:
 4955               	.LBE763:
 4956               	.LBE754:
 4957               	.LBE753:
 4958               	.LBE752:
 4959               	.LBE751:
 4960               	.LM504:
 4961 1666 0895      		ret
 4962               	.LFE85:
 4964               	.global	Timebase_LPDownCounter_Oneshot_Expired_Event
 4966               	Timebase_LPDownCounter_Oneshot_Expired_Event:
 4967               	.LFB86:
 4968               	.LM505:
 4969               	.LVL293:
 4970               	/* prologue: function */
 4971               	/* frame size = 0 */
 4972               	.LM506:
 4973 1668 0E94 0000 		call Timebase_LPDownCounter_Expired_Event
 4974               	.LVL294:
 4975               	/* epilogue start */
 4976               	.LM507:
 4977 166c 0895      		ret
 4978               	.LFE86:
 4980               	.global	Timebase_LPDownCounter_Continuous_Expired_Event
 4982               	Timebase_LPDownCounter_Continuous_Expired_Event:
 4983               	.LFB87:
 4984               	.LM508:
 4985               	.LVL295:
 4986 166e 1F93      		push r17
 4987               	/* prologue: function */
 4988               	/* frame size = 0 */
 4989 1670 182F      		mov r17,r24
 4990               	.LBB765:
 4991               	.LBB766:
 4992               	.LM509:
 4993 1672 A091 0000 		lds r26,Timebase
 4994 1676 B091 0000 		lds r27,(Timebase)+1
 4995 167a 90E0      		ldi r25,lo8(0)
 4996               	.LBE766:
 4997               	.LBE765:
 4998               	.LM510:
 4999 167c 9C01      		movw r18,r24
 5000               	.LVL296:
 5001 167e 54E0      		ldi r21,4
 5002 1680 220F      	1:	lsl r18
 5003 1682 331F      		rol r19
 5004 1684 5A95      		dec r21
 5005 1686 01F4      		brne 1b
 5006 1688 280F      		add r18,r24
 5007 168a 391F      		adc r19,r25
 5008 168c A20F      		add r26,r18
 5009 168e B31F      		adc r27,r19
 5010 1690 D396      		adiw r26,51
 5011 1692 8C91      		ld r24,X
 5012 1694 D397      		sbiw r26,51
 5013 1696 8695      		lsr r24
 5014 1698 8F70      		andi r24,lo8(15)
 5015 169a 8430      		cpi r24,lo8(4)
 5016 169c 01F0      		breq .L239
 5017 169e 80E0      		ldi r24,lo8(0)
 5018 16a0 00C0      		rjmp .L240
 5019               	.L239:
 5020               	.LBB767:
 5021               	.LBB768:
 5022               	.LBB769:
 5023               	.LM511:
 5024 16a2 FD01      		movw r30,r26
 5025 16a4 E05C      		subi r30,lo8(-(64))
 5026 16a6 FF4F      		sbci r31,hi8(-(64))
 5027 16a8 4081      		ld r20,Z
 5028 16aa 5181      		ldd r21,Z+1
 5029 16ac 6281      		ldd r22,Z+2
 5030 16ae 7381      		ldd r23,Z+3
 5031               	.LVL297:
 5032               	.LBE769:
 5033               	.LBE768:
 5034               	.LBB770:
 5035               	.LBB771:
 5036               	.LBB772:
 5037               	.LBB773:
 5038               	.LBB774:
 5039               	.LBB775:
 5040               	.LM512:
 5041 16b0 D496      		adiw r26,52
 5042 16b2 1D92      		st X+,__zero_reg__
 5043 16b4 1D92      		st X+,__zero_reg__
 5044 16b6 1D92      		st X+,__zero_reg__
 5045 16b8 1C92      		st X,__zero_reg__
 5046 16ba D797      		sbiw r26,52+3
 5047               	.LBE775:
 5048               	.LBE774:
 5049               	.LBB776:
 5050               	.LBB777:
 5051               	.LM513:
 5052 16bc D896      		adiw r26,56
 5053 16be 1D92      		st X+,__zero_reg__
 5054 16c0 1D92      		st X+,__zero_reg__
 5055 16c2 1D92      		st X+,__zero_reg__
 5056 16c4 1C92      		st X,__zero_reg__
 5057 16c6 DB97      		sbiw r26,56+3
 5058               	.LBE777:
 5059               	.LBE776:
 5060               	.LBB778:
 5061               	.LBB779:
 5062               	.LM514:
 5063 16c8 D396      		adiw r26,51
 5064 16ca 8C91      		ld r24,X
 5065 16cc D397      		sbiw r26,51
 5066               	.LBE779:
 5067               	.LBE778:
 5068               	.LBB780:
 5069               	.LBB781:
 5070               	.LM515:
 5071 16ce 807E      		andi r24,lo8(-32)
 5072 16d0 D396      		adiw r26,51
 5073 16d2 8C93      		st X,r24
 5074               	.LBE781:
 5075               	.LBE780:
 5076               	.LBB782:
 5077               	.LBB783:
 5078               	.LM516:
 5079 16d4 1082      		st Z,__zero_reg__
 5080 16d6 1182      		std Z+1,__zero_reg__
 5081 16d8 1282      		std Z+2,__zero_reg__
 5082 16da 1382      		std Z+3,__zero_reg__
 5083               	.LBE783:
 5084               	.LBE782:
 5085               	.LBE773:
 5086               	.LBE772:
 5087               	.LBE771:
 5088               	.LBE770:
 5089               	.LM517:
 5090 16dc 812F      		mov r24,r17
 5091 16de 0E94 0000 		call Timebase_LPDownCounter_Set_Securely
 5092               	.LVL298:
 5093 16e2 81E0      		ldi r24,lo8(1)
 5094               	.L240:
 5095               	/* epilogue start */
 5096               	.LBE767:
 5097               	.LM518:
 5098 16e4 1F91      		pop r17
 5099               	.LVL299:
 5100 16e6 0895      		ret
 5101               	.LFE87:
 5103               	.global	Timebase_LPDownCounter_Set_Period_Value_Securely
 5105               	Timebase_LPDownCounter_Set_Period_Value_Securely:
 5106               	.LFB88:
 5107               	.LM519:
 5108               	.LVL300:
 5109 16e8 CF93      		push r28
 5110 16ea DF93      		push r29
 5111               	/* prologue: function */
 5112               	/* frame size = 0 */
 5113               	.LBB784:
 5114               	.LBB785:
 5115               	.LM520:
 5116 16ec C091 0000 		lds r28,Timebase
 5117 16f0 D091 0000 		lds r29,(Timebase)+1
 5118 16f4 282F      		mov r18,r24
 5119 16f6 30E0      		ldi r19,lo8(0)
 5120               	.LBE785:
 5121               	.LBE784:
 5122               	.LM521:
 5123 16f8 F901      		movw r30,r18
 5124 16fa A4E0      		ldi r26,4
 5125 16fc EE0F      	1:	lsl r30
 5126 16fe FF1F      		rol r31
 5127 1700 AA95      		dec r26
 5128 1702 01F4      		brne 1b
 5129 1704 E20F      		add r30,r18
 5130 1706 F31F      		adc r31,r19
 5131 1708 EC0F      		add r30,r28
 5132 170a FD1F      		adc r31,r29
 5133 170c 83A9      		ldd r24,Z+51
 5134               	.LVL301:
 5135 170e 80FD      		sbrc r24,0
 5136 1710 00C0      		rjmp .L246
 5137               	.LM522:
 5138 1712 80AD      		ldd r24,Z+56
 5139 1714 91AD      		ldd r25,Z+57
 5140 1716 A2AD      		ldd r26,Z+58
 5141 1718 B3AD      		ldd r27,Z+59
 5142 171a 841B      		sub r24,r20
 5143 171c 950B      		sbc r25,r21
 5144 171e A60B      		sbc r26,r22
 5145 1720 B70B      		sbc r27,r23
 5146               	.LBB786:
 5147               	.LBB787:
 5148               	.LM523:
 5149 1722 B7FF      		sbrs r27,7
 5150 1724 00C0      		rjmp .L244
 5151               	.LM524:
 5152 1726 14AE      		std Z+60,__zero_reg__
 5153 1728 15AE      		std Z+61,__zero_reg__
 5154 172a 16AE      		std Z+62,__zero_reg__
 5155 172c 17AE      		std Z+63,__zero_reg__
 5156 172e 00C0      		rjmp .L245
 5157               	.L244:
 5158               	.LM525:
 5159 1730 84AF      		std Z+60,r24
 5160 1732 95AF      		std Z+61,r25
 5161 1734 A6AF      		std Z+62,r26
 5162 1736 B7AF      		std Z+63,r27
 5163               	.L245:
 5164               	.LBE787:
 5165               	.LBE786:
 5166               	.LBB788:
 5167               	.LBB789:
 5168               	.LM526:
 5169 1738 F901      		movw r30,r18
 5170 173a 64E0      		ldi r22,4
 5171 173c EE0F      	1:	lsl r30
 5172 173e FF1F      		rol r31
 5173 1740 6A95      		dec r22
 5174 1742 01F4      		brne 1b
 5175 1744 E20F      		add r30,r18
 5176 1746 F31F      		adc r31,r19
 5177 1748 EC0F      		add r30,r28
 5178 174a FD1F      		adc r31,r29
 5179 174c 83A9      		ldd r24,Z+51
 5180 174e 8160      		ori r24,lo8(1)
 5181 1750 83AB      		std Z+51,r24
 5182               	.L246:
 5183               	/* epilogue start */
 5184               	.LBE789:
 5185               	.LBE788:
 5186               	.LM527:
 5187 1752 DF91      		pop r29
 5188 1754 CF91      		pop r28
 5189 1756 0895      		ret
 5190               	.LFE88:
 5192               	.global	Timebase_LPDownCounter_Get_Remaining_Period_Value
 5194               	Timebase_LPDownCounter_Get_Remaining_Period_Value:
 5195               	.LFB89:
 5196               	.LM528:
 5197               	.LVL302:
 5198               	/* prologue: function */
 5199               	/* frame size = 0 */
 5200               	.LBB790:
 5201               	.LBB791:
 5202               	.LM529:
 5203 1758 E091 0000 		lds r30,Timebase
 5204 175c F091 0000 		lds r31,(Timebase)+1
 5205 1760 90E0      		ldi r25,lo8(0)
 5206               	.LBE791:
 5207               	.LBE790:
 5208               	.LM530:
 5209 1762 9C01      		movw r18,r24
 5210               	.LVL303:
 5211 1764 B4E0      		ldi r27,4
 5212 1766 220F      	1:	lsl r18
 5213 1768 331F      		rol r19
 5214 176a BA95      		dec r27
 5215 176c 01F4      		brne 1b
 5216 176e 280F      		add r18,r24
 5217 1770 391F      		adc r19,r25
 5218 1772 E20F      		add r30,r18
 5219 1774 F31F      		adc r31,r19
 5220 1776 20AD      		ldd r18,Z+56
 5221 1778 31AD      		ldd r19,Z+57
 5222 177a 42AD      		ldd r20,Z+58
 5223 177c 53AD      		ldd r21,Z+59
 5224               	.LVL304:
 5225 177e 84AD      		ldd r24,Z+60
 5226 1780 95AD      		ldd r25,Z+61
 5227 1782 A6AD      		ldd r26,Z+62
 5228 1784 B7AD      		ldd r27,Z+63
 5229 1786 281B      		sub r18,r24
 5230 1788 390B      		sbc r19,r25
 5231 178a 4A0B      		sbc r20,r26
 5232 178c 5B0B      		sbc r21,r27
 5233 178e 57FF      		sbrs r21,7
 5234 1790 00C0      		rjmp .L248
 5235 1792 20E0      		ldi r18,lo8(0)
 5236 1794 30E0      		ldi r19,hi8(0)
 5237 1796 40E0      		ldi r20,hlo8(0)
 5238 1798 50E0      		ldi r21,hhi8(0)
 5239               	.L248:
 5240               	.LM531:
 5241 179a B901      		movw r22,r18
 5242               	.LVL305:
 5243 179c CA01      		movw r24,r20
 5244               	/* epilogue start */
 5245 179e 0895      		ret
 5246               	.LFE89:
 5248               	.global	Timebase_LPDownCounter_Period_Value_Expired
 5250               	Timebase_LPDownCounter_Period_Value_Expired:
 5251               	.LFB90:
 5252               	.LM532:
 5253               	.LVL306:
 5254 17a0 CF93      		push r28
 5255 17a2 DF93      		push r29
 5256               	/* prologue: function */
 5257               	/* frame size = 0 */
 5258               	.LBB792:
 5259               	.LBB793:
 5260               	.LBB794:
 5261               	.LBB795:
 5262               	.LM533:
 5263 17a4 C091 0000 		lds r28,Timebase
 5264 17a8 D091 0000 		lds r29,(Timebase)+1
 5265 17ac 682F      		mov r22,r24
 5266 17ae 70E0      		ldi r23,lo8(0)
 5267               	.LBE795:
 5268               	.LBE794:
 5269               	.LM534:
 5270 17b0 FB01      		movw r30,r22
 5271 17b2 44E0      		ldi r20,4
 5272 17b4 EE0F      	1:	lsl r30
 5273 17b6 FF1F      		rol r31
 5274 17b8 4A95      		dec r20
 5275 17ba 01F4      		brne 1b
 5276 17bc E60F      		add r30,r22
 5277 17be F71F      		adc r31,r23
 5278 17c0 EC0F      		add r30,r28
 5279 17c2 FD1F      		adc r31,r29
 5280 17c4 20AD      		ldd r18,Z+56
 5281 17c6 31AD      		ldd r19,Z+57
 5282 17c8 42AD      		ldd r20,Z+58
 5283 17ca 53AD      		ldd r21,Z+59
 5284               	.LVL307:
 5285 17cc 84AD      		ldd r24,Z+60
 5286 17ce 95AD      		ldd r25,Z+61
 5287 17d0 A6AD      		ldd r26,Z+62
 5288 17d2 B7AD      		ldd r27,Z+63
 5289               	.LVL308:
 5290 17d4 281B      		sub r18,r24
 5291 17d6 390B      		sbc r19,r25
 5292 17d8 4A0B      		sbc r20,r26
 5293 17da 5B0B      		sbc r21,r27
 5294               	.LM535:
 5295 17dc 57FD      		sbrc r21,7
 5296 17de 00C0      		rjmp .L251
 5297               	.LBE793:
 5298               	.LBE792:
 5299               	.LM536:
 5300 17e0 2115      		cp r18,__zero_reg__
 5301 17e2 3105      		cpc r19,__zero_reg__
 5302 17e4 4105      		cpc r20,__zero_reg__
 5303 17e6 5105      		cpc r21,__zero_reg__
 5304 17e8 01F0      		breq .L251
 5305 17ea 20E0      		ldi r18,lo8(0)
 5306               	.LVL309:
 5307 17ec 00C0      		rjmp .L252
 5308               	.LVL310:
 5309               	.L251:
 5310 17ee 20E0      		ldi r18,lo8(0)
 5311               	.LVL311:
 5312 17f0 CB01      		movw r24,r22
 5313 17f2 34E0      		ldi r19,4
 5314 17f4 880F      	1:	lsl r24
 5315 17f6 991F      		rol r25
 5316 17f8 3A95      		dec r19
 5317 17fa 01F4      		brne 1b
 5318 17fc 860F      		add r24,r22
 5319 17fe 971F      		adc r25,r23
 5320 1800 C80F      		add r28,r24
 5321 1802 D91F      		adc r29,r25
 5322 1804 8BA9      		ldd r24,Y+51
 5323 1806 80FF      		sbrs r24,0
 5324 1808 21E0      		ldi r18,lo8(1)
 5325               	.L253:
 5326 180a 81E0      		ldi r24,lo8(1)
 5327 180c 2827      		eor r18,r24
 5328               	.L252:
 5329               	.LM537:
 5330 180e 822F      		mov r24,r18
 5331               	/* epilogue start */
 5332 1810 DF91      		pop r29
 5333 1812 CF91      		pop r28
 5334 1814 0895      		ret
 5335               	.LFE90:
 5337               	.global	Timebase_LPDownCounter_Period_Value_Expired_Event
 5339               	Timebase_LPDownCounter_Period_Value_Expired_Event:
 5340               	.LFB91:
 5341               	.LM538:
 5342               	.LVL312:
 5343 1816 1F93      		push r17
 5344               	/* prologue: function */
 5345               	/* frame size = 0 */
 5346 1818 182F      		mov r17,r24
 5347               	.LM539:
 5348 181a 0E94 0000 		call Timebase_LPDownCounter_Period_Value_Expired
 5349               	.LVL313:
 5350 181e 8130      		cpi r24,lo8(1)
 5351 1820 01F0      		breq .L256
 5352 1822 80E0      		ldi r24,lo8(0)
 5353 1824 00C0      		rjmp .L257
 5354               	.L256:
 5355               	.LBB796:
 5356               	.LBB797:
 5357               	.LM540:
 5358 1826 E091 0000 		lds r30,Timebase
 5359 182a F091 0000 		lds r31,(Timebase)+1
 5360 182e 212F      		mov r18,r17
 5361 1830 30E0      		ldi r19,lo8(0)
 5362               	.LVL314:
 5363 1832 C901      		movw r24,r18
 5364 1834 54E0      		ldi r21,4
 5365 1836 880F      	1:	lsl r24
 5366 1838 991F      		rol r25
 5367 183a 5A95      		dec r21
 5368 183c 01F4      		brne 1b
 5369 183e 820F      		add r24,r18
 5370 1840 931F      		adc r25,r19
 5371 1842 E80F      		add r30,r24
 5372 1844 F91F      		adc r31,r25
 5373 1846 83A9      		ldd r24,Z+51
 5374 1848 8E7F      		andi r24,lo8(-2)
 5375 184a 83AB      		std Z+51,r24
 5376 184c 81E0      		ldi r24,lo8(1)
 5377               	.L257:
 5378               	/* epilogue start */
 5379               	.LBE797:
 5380               	.LBE796:
 5381               	.LM541:
 5382 184e 1F91      		pop r17
 5383               	.LVL315:
 5384 1850 0895      		ret
 5385               	.LFE91:
 5387               	.global	Timebase_LPDownCounter_Update_All
 5389               	Timebase_LPDownCounter_Update_All:
 5390               	.LFB92:
 5391               	.LM542:
 5392               	/* prologue: function */
 5393               	/* frame size = 0 */
 5394               	.LBB798:
 5395               	.LM543:
 5396 1852 80E0      		ldi r24,lo8(0)
 5397 1854 0E94 0000 		call Timebase_LPDownCounter_Update
 5398               	/* epilogue start */
 5399               	.LBE798:
 5400               	.LM544:
 5401 1858 0895      		ret
 5402               	.LFE92:
 5404               	.global	Timebase_LPDownCounter_Reset_All
 5406               	Timebase_LPDownCounter_Reset_All:
 5407               	.LFB93:
 5408               	.LM545:
 5409               	/* prologue: function */
 5410               	/* frame size = 0 */
 5411               	.LBB799:
 5412               	.LBB800:
 5413               	.LBB801:
 5414               	.LBB802:
 5415               	.LBB803:
 5416               	.LM546:
 5417 185a E091 0000 		lds r30,Timebase
 5418 185e F091 0000 		lds r31,(Timebase)+1
 5419 1862 14AA      		std Z+52,__zero_reg__
 5420 1864 15AA      		std Z+53,__zero_reg__
 5421 1866 16AA      		std Z+54,__zero_reg__
 5422 1868 17AA      		std Z+55,__zero_reg__
 5423               	.LBE803:
 5424               	.LBE802:
 5425               	.LBB804:
 5426               	.LBB805:
 5427               	.LM547:
 5428 186a 10AE      		std Z+56,__zero_reg__
 5429 186c 11AE      		std Z+57,__zero_reg__
 5430 186e 12AE      		std Z+58,__zero_reg__
 5431 1870 13AE      		std Z+59,__zero_reg__
 5432               	.LBE805:
 5433               	.LBE804:
 5434               	.LBB806:
 5435               	.LBB807:
 5436               	.LM548:
 5437 1872 83A9      		ldd r24,Z+51
 5438               	.LBE807:
 5439               	.LBE806:
 5440               	.LBB808:
 5441               	.LBB809:
 5442               	.LM549:
 5443 1874 807E      		andi r24,lo8(-32)
 5444 1876 83AB      		std Z+51,r24
 5445               	.LBE809:
 5446               	.LBE808:
 5447               	.LBB810:
 5448               	.LBB811:
 5449               	.LM550:
 5450 1878 E05C      		subi r30,lo8(-(64))
 5451 187a FF4F      		sbci r31,hi8(-(64))
 5452 187c 1082      		st Z,__zero_reg__
 5453 187e 1182      		std Z+1,__zero_reg__
 5454 1880 1282      		std Z+2,__zero_reg__
 5455 1882 1382      		std Z+3,__zero_reg__
 5456               	/* epilogue start */
 5457               	.LBE811:
 5458               	.LBE810:
 5459               	.LBE801:
 5460               	.LBE800:
 5461               	.LBE799:
 5462               	.LM551:
 5463 1884 0895      		ret
 5464               	.LFE93:
 5466               	.global	Timebase_Get_Update_Req_Sts
 5468               	Timebase_Get_Update_Req_Sts:
 5469               	.LFB94:
 5470               	.LM552:
 5471               	/* prologue: function */
 5472               	/* frame size = 0 */
 5473               	.LM553:
 5474 1886 E091 0000 		lds r30,Timebase
 5475 188a F091 0000 		lds r31,(Timebase)+1
 5476 188e 858D      		ldd r24,Z+29
 5477               	/* epilogue start */
 5478               	.LM554:
 5479 1890 0895      		ret
 5480               	.LFE94:
 5482               	.global	Timebase_Reset
 5484               	Timebase_Reset:
 5485               	.LFB95:
 5486               	.LM555:
 5487               	/* prologue: function */
 5488               	/* frame size = 0 */
 5489               	.LM556:
 5490 1892 0E94 0000 		call Timebase_DownCounter_SS_Reset_All
 5491               	/* epilogue start */
 5492               	.LM557:
 5493 1896 0895      		ret
 5494               	.LFE95:
 5496               	.global	Timebase_LP_Reset
 5498               	Timebase_LP_Reset:
 5499               	.LFB96:
 5500               	.LM558:
 5501               	/* prologue: function */
 5502               	/* frame size = 0 */
 5503               	.LM559:
 5504 1898 0E94 0000 		call Timebase_LPDownCounter_Reset_All
 5505               	/* epilogue start */
 5506               	.LM560:
 5507 189c 0895      		ret
 5508               	.LFE96:
 5510               	.global	Timebase_Init
 5512               	Timebase_Init:
 5513               	.LFB97:
 5514               	.LM561:
 5515               	.LVL316:
 5516 189e 0F93      		push r16
 5517 18a0 1F93      		push r17
 5518               	/* prologue: function */
 5519               	/* frame size = 0 */
 5520 18a2 8C01      		movw r16,r24
 5521               	.LM562:
 5522 18a4 0E94 0000 		call Timebase_Struct_Init
 5523               	.LVL317:
 5524               	.LM563:
 5525 18a8 C801      		movw r24,r16
 5526 18aa 0E94 0000 		call Timebase_Timer_Enable
 5527               	.LBB812:
 5528               	.LBB813:
 5529               	.LM564:
 5530 18ae 0E94 0000 		call Timebase_DownCounter_SS_Reset_All
 5531               	.LBE813:
 5532               	.LBE812:
 5533               	.LM565:
 5534 18b2 81E0      		ldi r24,lo8(1)
 5535 18b4 90E0      		ldi r25,hi8(1)
 5536 18b6 0E94 0000 		call Timebase_LPTimer_Enable
 5537               	.LBB814:
 5538               	.LBB815:
 5539               	.LM566:
 5540 18ba 0E94 0000 		call Timebase_LPDownCounter_Reset_All
 5541               	/* epilogue start */
 5542               	.LBE815:
 5543               	.LBE814:
 5544               	.LM567:
 5545 18be 1F91      		pop r17
 5546 18c0 0F91      		pop r16
 5547               	.LVL318:
 5548 18c2 0895      		ret
 5549               	.LFE97:
 5551               	.global	Timebase_Main_Loop_Executables
 5553               	Timebase_Main_Loop_Executables:
 5554               	.LFB98:
 5555               	.LM568:
 5556               	/* prologue: function */
 5557               	/* frame size = 0 */
 5558               	.LM569:
 5559 18c4 E091 0000 		lds r30,Timebase
 5560 18c8 F091 0000 		lds r31,(Timebase)+1
 5561 18cc 858D      		ldd r24,Z+29
 5562 18ce 83FF      		sbrs r24,3
 5563 18d0 00C0      		rjmp .L272
 5564               	.LM570:
 5565 18d2 0E94 0000 		call Timebase_Timer_Sync_With_Shadow_Variables
 5566               	.LM571:
 5567 18d6 0E94 0000 		call Timebase_DownCounter_SS_Update_All
 5568               	.LM572:
 5569 18da E091 0000 		lds r30,Timebase
 5570 18de F091 0000 		lds r31,(Timebase)+1
 5571 18e2 858D      		ldd r24,Z+29
 5572 18e4 877F      		andi r24,lo8(-9)
 5573 18e6 858F      		std Z+29,r24
 5574               	.L272:
 5575               	.LM573:
 5576 18e8 E091 0000 		lds r30,Timebase
 5577 18ec F091 0000 		lds r31,(Timebase)+1
 5578 18f0 168A      		std Z+22,__zero_reg__
 5579               	.LM574:
 5580 18f2 858D      		ldd r24,Z+29
 5581 18f4 85FF      		sbrs r24,5
 5582 18f6 00C0      		rjmp .L274
 5583               	.LM575:
 5584 18f8 0E94 0000 		call Timebase_LPDownCounter_Update_All
 5585               	.LM576:
 5586 18fc E091 0000 		lds r30,Timebase
 5587 1900 F091 0000 		lds r31,(Timebase)+1
 5588 1904 858D      		ldd r24,Z+29
 5589 1906 8F7D      		andi r24,lo8(-33)
 5590 1908 858F      		std Z+29,r24
 5591               	.L274:
 5592 190a 0895      		ret
 5593               	.LFE98:
 5595               	.global	Timebase_ISR_Executables
 5597               	Timebase_ISR_Executables:
 5598               	.LFB99:
 5599               	.LM577:
 5600               	/* prologue: function */
 5601               	/* frame size = 0 */
 5602               	.LM578:
 5603 190c E091 0000 		lds r30,Timebase
 5604 1910 F091 0000 		lds r31,(Timebase)+1
 5605 1914 8089      		ldd r24,Z+16
 5606 1916 9189      		ldd r25,Z+17
 5607 1918 0196      		adiw r24,1
 5608 191a 918B      		std Z+17,r25
 5609 191c 808B      		std Z+16,r24
 5610               	.LM579:
 5611 191e 858D      		ldd r24,Z+29
 5612 1920 8860      		ori r24,lo8(8)
 5613 1922 858F      		std Z+29,r24
 5614               	.LM580:
 5615 1924 2089      		ldd r18,Z+16
 5616 1926 3189      		ldd r19,Z+17
 5617 1928 8081      		ld r24,Z
 5618 192a 9181      		ldd r25,Z+1
 5619 192c 2817      		cp r18,r24
 5620 192e 3907      		cpc r19,r25
 5621 1930 00F0      		brlo .L277
 5622               	.LM581:
 5623 1932 118A      		std Z+17,__zero_reg__
 5624 1934 108A      		std Z+16,__zero_reg__
 5625               	.LM582:
 5626 1936 8289      		ldd r24,Z+18
 5627 1938 9389      		ldd r25,Z+19
 5628 193a A489      		ldd r26,Z+20
 5629 193c B589      		ldd r27,Z+21
 5630 193e 0196      		adiw r24,1
 5631 1940 A11D      		adc r26,__zero_reg__
 5632 1942 B11D      		adc r27,__zero_reg__
 5633 1944 828B      		std Z+18,r24
 5634 1946 938B      		std Z+19,r25
 5635 1948 A48B      		std Z+20,r26
 5636 194a B58B      		std Z+21,r27
 5637               	.L277:
 5638 194c 0895      		ret
 5639               	.LFE99:
 5641               	.global	__vector_16
 5643               	__vector_16:
 5644               	.LFB13:
 5645               	.LM583:
 5646 194e 1F92      		push __zero_reg__
 5647 1950 0F92      		push r0
 5648 1952 0FB6      		in r0,__SREG__
 5649 1954 0F92      		push r0
 5650 1956 1124      		clr __zero_reg__
 5651 1958 2F93      		push r18
 5652 195a 3F93      		push r19
 5653 195c 4F93      		push r20
 5654 195e 5F93      		push r21
 5655 1960 6F93      		push r22
 5656 1962 7F93      		push r23
 5657 1964 8F93      		push r24
 5658 1966 9F93      		push r25
 5659 1968 AF93      		push r26
 5660 196a BF93      		push r27
 5661 196c EF93      		push r30
 5662 196e FF93      		push r31
 5663               	/* prologue: Signal */
 5664               	/* frame size = 0 */
 5665               	.LM584:
 5666 1970 E091 0000 		lds r30,Timebase
 5667 1974 F091 0000 		lds r31,(Timebase)+1
 5668 1978 8481      		ldd r24,Z+4
 5669 197a 9581      		ldd r25,Z+5
 5670 197c 86BD      		out 70-32,r24
 5671               	.LM585:
 5672 197e 0E94 0000 		call Timebase_ISR_Executables
 5673               	/* epilogue start */
 5674               	.LM586:
 5675 1982 FF91      		pop r31
 5676 1984 EF91      		pop r30
 5677 1986 BF91      		pop r27
 5678 1988 AF91      		pop r26
 5679 198a 9F91      		pop r25
 5680 198c 8F91      		pop r24
 5681 198e 7F91      		pop r23
 5682 1990 6F91      		pop r22
 5683 1992 5F91      		pop r21
 5684 1994 4F91      		pop r20
 5685 1996 3F91      		pop r19
 5686 1998 2F91      		pop r18
 5687 199a 0F90      		pop r0
 5688 199c 0FBE      		out __SREG__,r0
 5689 199e 0F90      		pop r0
 5690 19a0 1F90      		pop __zero_reg__
 5691 19a2 1895      		reti
 5692               	.LFE13:
 5694               	.global	Timebase_LP_ISR_Executables
 5696               	Timebase_LP_ISR_Executables:
 5697               	.LFB100:
 5698               	.LM587:
 5699               	/* prologue: function */
 5700               	/* frame size = 0 */
 5701               	.LM588:
 5702 19a4 E091 0000 		lds r30,Timebase
 5703 19a8 F091 0000 		lds r31,(Timebase)+1
 5704 19ac 8789      		ldd r24,Z+23
 5705 19ae 908D      		ldd r25,Z+24
 5706 19b0 0196      		adiw r24,1
 5707 19b2 908F      		std Z+24,r25
 5708 19b4 878B      		std Z+23,r24
 5709               	.LM589:
 5710 19b6 2789      		ldd r18,Z+23
 5711 19b8 308D      		ldd r19,Z+24
 5712 19ba 8281      		ldd r24,Z+2
 5713 19bc 9381      		ldd r25,Z+3
 5714 19be 2817      		cp r18,r24
 5715 19c0 3907      		cpc r19,r25
 5716 19c2 00F0      		brlo .L281
 5717               	.LM590:
 5718 19c4 108E      		std Z+24,__zero_reg__
 5719 19c6 178A      		std Z+23,__zero_reg__
 5720               	.LM591:
 5721 19c8 818D      		ldd r24,Z+25
 5722 19ca 928D      		ldd r25,Z+26
 5723 19cc A38D      		ldd r26,Z+27
 5724 19ce B48D      		ldd r27,Z+28
 5725 19d0 0196      		adiw r24,1
 5726 19d2 A11D      		adc r26,__zero_reg__
 5727 19d4 B11D      		adc r27,__zero_reg__
 5728 19d6 818F      		std Z+25,r24
 5729 19d8 928F      		std Z+26,r25
 5730 19da A38F      		std Z+27,r26
 5731 19dc B48F      		std Z+28,r27
 5732               	.L281:
 5733               	.LM592:
 5734 19de 858D      		ldd r24,Z+29
 5735 19e0 8062      		ori r24,lo8(32)
 5736 19e2 858F      		std Z+29,r24
 5737               	/* epilogue start */
 5738               	.LM593:
 5739 19e4 0895      		ret
 5740               	.LFE100:
 5742               	.global	__vector_6
 5744               	__vector_6:
 5745               	.LFB14:
 5746               	.LM594:
 5747 19e6 1F92      		push __zero_reg__
 5748 19e8 0F92      		push r0
 5749 19ea 0FB6      		in r0,__SREG__
 5750 19ec 0F92      		push r0
 5751 19ee 1124      		clr __zero_reg__
 5752 19f0 2F93      		push r18
 5753 19f2 3F93      		push r19
 5754 19f4 4F93      		push r20
 5755 19f6 5F93      		push r21
 5756 19f8 6F93      		push r22
 5757 19fa 7F93      		push r23
 5758 19fc 8F93      		push r24
 5759 19fe 9F93      		push r25
 5760 1a00 AF93      		push r26
 5761 1a02 BF93      		push r27
 5762 1a04 EF93      		push r30
 5763 1a06 FF93      		push r31
 5764               	/* prologue: Signal */
 5765               	/* frame size = 0 */
 5766               	.LM595:
 5767 1a08 E0E6      		ldi r30,lo8(96)
 5768 1a0a F0E0      		ldi r31,hi8(96)
 5769 1a0c 8081      		ld r24,Z
 5770 1a0e 8064      		ori r24,lo8(64)
 5771 1a10 8083      		st Z,r24
 5772               	.LM596:
 5773 1a12 0E94 0000 		call Timebase_LP_ISR_Executables
 5774               	/* epilogue start */
 5775               	.LM597:
 5776 1a16 FF91      		pop r31
 5777 1a18 EF91      		pop r30
 5778 1a1a BF91      		pop r27
 5779 1a1c AF91      		pop r26
 5780 1a1e 9F91      		pop r25
 5781 1a20 8F91      		pop r24
 5782 1a22 7F91      		pop r23
 5783 1a24 6F91      		pop r22
 5784 1a26 5F91      		pop r21
 5785 1a28 4F91      		pop r20
 5786 1a2a 3F91      		pop r19
 5787 1a2c 2F91      		pop r18
 5788 1a2e 0F90      		pop r0
 5789 1a30 0FBE      		out __SREG__,r0
 5790 1a32 0F90      		pop r0
 5791 1a34 1F90      		pop __zero_reg__
 5792 1a36 1895      		reti
 5793               	.LFE14:
 5795               		.data
 5798               	C.1.1785:
 5799 0000 0100      		.word	1
 5800 0002 0800      		.word	8
 5801 0004 4000      		.word	64
 5802 0006 0001      		.word	256
 5803 0008 0004      		.word	1024
 5804               		.comm Timebase_type,68,1
 5805               		.comm Timebase,2,1
 6582               	.Letext0:
DEFINED SYMBOLS
                            *ABS*:00000000 timebase.c
C:\Users\WALTON\AppData\Local\Temp/ccNDW4r6.s:2      *ABS*:0000003f __SREG__
C:\Users\WALTON\AppData\Local\Temp/ccNDW4r6.s:3      *ABS*:0000003e __SP_H__
C:\Users\WALTON\AppData\Local\Temp/ccNDW4r6.s:4      *ABS*:0000003d __SP_L__
C:\Users\WALTON\AppData\Local\Temp/ccNDW4r6.s:5      *ABS*:00000034 __CCP__
C:\Users\WALTON\AppData\Local\Temp/ccNDW4r6.s:6      *ABS*:00000000 __tmp_reg__
C:\Users\WALTON\AppData\Local\Temp/ccNDW4r6.s:7      *ABS*:00000001 __zero_reg__
C:\Users\WALTON\AppData\Local\Temp/ccNDW4r6.s:18     .text:00000000 Timebase_Struct_Init
                            *COM*:00000044 Timebase_type
                            *COM*:00000002 Timebase
C:\Users\WALTON\AppData\Local\Temp/ccNDW4r6.s:132    .text:00000122 Timebase_Timer_Enable
C:\Users\WALTON\AppData\Local\Temp/ccNDW4r6.s:5798   .data:00000000 C.1.1785
C:\Users\WALTON\AppData\Local\Temp/ccNDW4r6.s:350    .text:00000244 Timebase_Timer_Disable
C:\Users\WALTON\AppData\Local\Temp/ccNDW4r6.s:377    .text:00000258 Timebase_LPTimer_Enable
C:\Users\WALTON\AppData\Local\Temp/ccNDW4r6.s:476    .text:000002c8 Timebase_LPTimer_Disable
C:\Users\WALTON\AppData\Local\Temp/ccNDW4r6.s:516    .text:000002e6 Timebase_Atomic_Operation_Start
C:\Users\WALTON\AppData\Local\Temp/ccNDW4r6.s:534    .text:000002ea Timebase_Atomic_Operation_End
C:\Users\WALTON\AppData\Local\Temp/ccNDW4r6.s:552    .text:000002ee Timebase_Timer_Get_SubSecondsShadow
C:\Users\WALTON\AppData\Local\Temp/ccNDW4r6.s:570    .text:000002fe Timebase_Timer_Get_SecondsShadow
C:\Users\WALTON\AppData\Local\Temp/ccNDW4r6.s:591    .text:00000314 Timebase_Timer_Get_SubSeconds
C:\Users\WALTON\AppData\Local\Temp/ccNDW4r6.s:609    .text:00000324 Timebase_Timer_Get_Seconds
C:\Users\WALTON\AppData\Local\Temp/ccNDW4r6.s:630    .text:0000033a Timebase_Timer_Set_SubSeconds
C:\Users\WALTON\AppData\Local\Temp/ccNDW4r6.s:648    .text:00000348 Timebase_Timer_Set_Seconds
C:\Users\WALTON\AppData\Local\Temp/ccNDW4r6.s:668    .text:0000035a Timebase_Timer_Get_SubSecondsShadow_Securely
C:\Users\WALTON\AppData\Local\Temp/ccNDW4r6.s:697    .text:00000374 Timebase_Timer_Get_SecondsShadow_Securely
C:\Users\WALTON\AppData\Local\Temp/ccNDW4r6.s:734    .text:0000039c Timebase_Timer_Sync_With_Shadow_Variables
C:\Users\WALTON\AppData\Local\Temp/ccNDW4r6.s:788    .text:000003cc Timebase_Timer_Delay_SubSeconds
C:\Users\WALTON\AppData\Local\Temp/ccNDW4r6.s:965    .text:00000484 Timebase_Timer_Await_SubSeconds
C:\Users\WALTON\AppData\Local\Temp/ccNDW4r6.s:1127   .text:0000051e Timebase_Timer_Delay_Seconds
C:\Users\WALTON\AppData\Local\Temp/ccNDW4r6.s:1224   .text:00000560 Timebase_LPTimer_Get_SubSeconds
C:\Users\WALTON\AppData\Local\Temp/ccNDW4r6.s:1253   .text:0000057a Timebase_LPTimer_Get_Seconds
C:\Users\WALTON\AppData\Local\Temp/ccNDW4r6.s:1290   .text:000005a2 Timebase_LPTimer_Set_SubSeconds
C:\Users\WALTON\AppData\Local\Temp/ccNDW4r6.s:1308   .text:000005b0 Timebase_LPTimer_Set_Seconds
C:\Users\WALTON\AppData\Local\Temp/ccNDW4r6.s:1328   .text:000005c2 Timebase_LPTimer_Delay_Seconds
C:\Users\WALTON\AppData\Local\Temp/ccNDW4r6.s:1467   .text:0000063c Timebase_DownCounter_SS_Get_Status
C:\Users\WALTON\AppData\Local\Temp/ccNDW4r6.s:1501   .text:00000666 Timebase_DownCounter_SS_Set_Status
C:\Users\WALTON\AppData\Local\Temp/ccNDW4r6.s:1539   .text:00000696 Timebase_DownCounter_SS_Get_Value
C:\Users\WALTON\AppData\Local\Temp/ccNDW4r6.s:1582   .text:000006d0 Timebase_DownCounter_SS_Set_Value
C:\Users\WALTON\AppData\Local\Temp/ccNDW4r6.s:1617   .text:000006fc Timebase_DownCounter_SS_Get_EndValueSec
C:\Users\WALTON\AppData\Local\Temp/ccNDW4r6.s:1660   .text:00000736 Timebase_DownCounter_SS_Get_EndValueSubSec
C:\Users\WALTON\AppData\Local\Temp/ccNDW4r6.s:1703   .text:00000770 Timebase_DownCounter_SS_Set_EndValueSec
C:\Users\WALTON\AppData\Local\Temp/ccNDW4r6.s:1738   .text:0000079c Timebase_DownCounter_SS_Set_EndValueSubSec
C:\Users\WALTON\AppData\Local\Temp/ccNDW4r6.s:1773   .text:000007c8 Timebase_DownCounter_SS_Get_PeriodValue
C:\Users\WALTON\AppData\Local\Temp/ccNDW4r6.s:1816   .text:00000802 Timebase_DownCounter_SS_Set_PeriodValue
C:\Users\WALTON\AppData\Local\Temp/ccNDW4r6.s:1874   .text:00000856 Timebase_DownCounter_SS_Get_Period_Flag
C:\Users\WALTON\AppData\Local\Temp/ccNDW4r6.s:1907   .text:0000087e Timebase_DownCounter_SS_Set_Period_Flag
C:\Users\WALTON\AppData\Local\Temp/ccNDW4r6.s:1941   .text:000008a8 Timebase_DownCounter_SS_Clear_Period_Flag
C:\Users\WALTON\AppData\Local\Temp/ccNDW4r6.s:1975   .text:000008d2 Timebase_DownCounter_SS_Get_ReloadValue
C:\Users\WALTON\AppData\Local\Temp/ccNDW4r6.s:2018   .text:0000090c Timebase_DownCounter_SS_Set_ReloadValue
C:\Users\WALTON\AppData\Local\Temp/ccNDW4r6.s:2053   .text:00000938 Timebase_DownCounter_SS_Reset
C:\Users\WALTON\AppData\Local\Temp/ccNDW4r6.s:2131   .text:00000982 Timebase_DownCounter_SS_Clear_All_Flags
C:\Users\WALTON\AppData\Local\Temp/ccNDW4r6.s:2213   .text:000009cc Timebase_DownCounter_SS_Start
C:\Users\WALTON\AppData\Local\Temp/ccNDW4r6.s:2261   .text:00000a02 Timebase_DownCounter_SS_Stop
C:\Users\WALTON\AppData\Local\Temp/ccNDW4r6.s:2309   .text:00000a38 Timebase_DownCounter_SS_Set_Securely
C:\Users\WALTON\AppData\Local\Temp/ccNDW4r6.s:2590   .text:00000bd6 Timebase_DownCounter_SS_Set_Forcefully
C:\Users\WALTON\AppData\Local\Temp/ccNDW4r6.s:2705   .text:00000c58 Timebase_DownCounter_SS_Update
C:\Users\WALTON\AppData\Local\Temp/ccNDW4r6.s:3003   .text:00000dbe Timebase_DownCounter_SS_Expired
C:\Users\WALTON\AppData\Local\Temp/ccNDW4r6.s:3043   .text:00000df2 Timebase_DownCounter_SS_Expired_Event
C:\Users\WALTON\AppData\Local\Temp/ccNDW4r6.s:3143   .text:00000e4c Timebase_DownCounter_SS_Oneshot_Expired_Event
C:\Users\WALTON\AppData\Local\Temp/ccNDW4r6.s:3159   .text:00000e52 Timebase_DownCounter_SS_Continuous_Expired_Event
C:\Users\WALTON\AppData\Local\Temp/ccNDW4r6.s:3277   .text:00000ebe Timebase_DownCounter_SS_Set_Period_Value_Securely
C:\Users\WALTON\AppData\Local\Temp/ccNDW4r6.s:3368   .text:00000f32 Timebase_DownCounter_SS_Get_Remaining_Period_Value
C:\Users\WALTON\AppData\Local\Temp/ccNDW4r6.s:3426   .text:00000f7e Timebase_DownCounter_SS_Period_Value_Expired
C:\Users\WALTON\AppData\Local\Temp/ccNDW4r6.s:3518   .text:00000ffa Timebase_DownCounter_SS_Period_Value_Expired_Event
C:\Users\WALTON\AppData\Local\Temp/ccNDW4r6.s:3570   .text:0000103a Timebase_DownCounter_SS_Update_All
C:\Users\WALTON\AppData\Local\Temp/ccNDW4r6.s:3587   .text:00001042 Timebase_DownCounter_SS_Reset_All
C:\Users\WALTON\AppData\Local\Temp/ccNDW4r6.s:3656   .text:00001072 Timebase_LPDownCounter_Get_Status
C:\Users\WALTON\AppData\Local\Temp/ccNDW4r6.s:3688   .text:00001098 Timebase_LPDownCounter_Set_Status
C:\Users\WALTON\AppData\Local\Temp/ccNDW4r6.s:3724   .text:000010c4 Timebase_LPDownCounter_Get_Value
C:\Users\WALTON\AppData\Local\Temp/ccNDW4r6.s:3765   .text:000010fa Timebase_LPDownCounter_Set_Value
C:\Users\WALTON\AppData\Local\Temp/ccNDW4r6.s:3797   .text:00001122 Timebase_LPDownCounter_Get_EndValue
C:\Users\WALTON\AppData\Local\Temp/ccNDW4r6.s:3838   .text:00001158 Timebase_LPDownCounter_Set_EndValue
C:\Users\WALTON\AppData\Local\Temp/ccNDW4r6.s:3870   .text:00001180 Timebase_LPDownCounter_Get_PeriodValue
C:\Users\WALTON\AppData\Local\Temp/ccNDW4r6.s:3911   .text:000011b6 Timebase_LPDownCounter_Set_PeriodValue
C:\Users\WALTON\AppData\Local\Temp/ccNDW4r6.s:3964   .text:00001202 Timebase_LPDownCounter_Get_Period_Flag
C:\Users\WALTON\AppData\Local\Temp/ccNDW4r6.s:3995   .text:00001226 Timebase_LPDownCounter_Set_Period_Flag
C:\Users\WALTON\AppData\Local\Temp/ccNDW4r6.s:4027   .text:0000124c Timebase_LPDownCounter_Clear_Period_Flag
C:\Users\WALTON\AppData\Local\Temp/ccNDW4r6.s:4059   .text:00001272 Timebase_LPDownCounter_Get_ReloadValue
C:\Users\WALTON\AppData\Local\Temp/ccNDW4r6.s:4095   .text:0000129e Timebase_LPDownCounter_Set_ReloadValue
C:\Users\WALTON\AppData\Local\Temp/ccNDW4r6.s:4129   .text:000012ca Timebase_LPDownCounter_Reset
C:\Users\WALTON\AppData\Local\Temp/ccNDW4r6.s:4198   .text:0000130c Timebase_LPDownCounter_Clear_All_Flags
C:\Users\WALTON\AppData\Local\Temp/ccNDW4r6.s:4271   .text:0000134e Timebase_LPDownCounter_Start
C:\Users\WALTON\AppData\Local\Temp/ccNDW4r6.s:4317   .text:00001380 Timebase_LPDownCounter_Stop
C:\Users\WALTON\AppData\Local\Temp/ccNDW4r6.s:4363   .text:000013b2 Timebase_LPDownCounter_Set_Securely
C:\Users\WALTON\AppData\Local\Temp/ccNDW4r6.s:4506   .text:00001460 Timebase_LPDownCounter_Set_Forcefully
C:\Users\WALTON\AppData\Local\Temp/ccNDW4r6.s:4612   .text:000014dc Timebase_LPDownCounter_Update
C:\Users\WALTON\AppData\Local\Temp/ccNDW4r6.s:4837   .text:000015e6 Timebase_LPDownCounter_Expired
C:\Users\WALTON\AppData\Local\Temp/ccNDW4r6.s:4875   .text:00001616 Timebase_LPDownCounter_Expired_Event
C:\Users\WALTON\AppData\Local\Temp/ccNDW4r6.s:4966   .text:00001668 Timebase_LPDownCounter_Oneshot_Expired_Event
C:\Users\WALTON\AppData\Local\Temp/ccNDW4r6.s:4982   .text:0000166e Timebase_LPDownCounter_Continuous_Expired_Event
C:\Users\WALTON\AppData\Local\Temp/ccNDW4r6.s:5105   .text:000016e8 Timebase_LPDownCounter_Set_Period_Value_Securely
C:\Users\WALTON\AppData\Local\Temp/ccNDW4r6.s:5194   .text:00001758 Timebase_LPDownCounter_Get_Remaining_Period_Value
C:\Users\WALTON\AppData\Local\Temp/ccNDW4r6.s:5250   .text:000017a0 Timebase_LPDownCounter_Period_Value_Expired
C:\Users\WALTON\AppData\Local\Temp/ccNDW4r6.s:5339   .text:00001816 Timebase_LPDownCounter_Period_Value_Expired_Event
C:\Users\WALTON\AppData\Local\Temp/ccNDW4r6.s:5389   .text:00001852 Timebase_LPDownCounter_Update_All
C:\Users\WALTON\AppData\Local\Temp/ccNDW4r6.s:5406   .text:0000185a Timebase_LPDownCounter_Reset_All
C:\Users\WALTON\AppData\Local\Temp/ccNDW4r6.s:5468   .text:00001886 Timebase_Get_Update_Req_Sts
C:\Users\WALTON\AppData\Local\Temp/ccNDW4r6.s:5484   .text:00001892 Timebase_Reset
C:\Users\WALTON\AppData\Local\Temp/ccNDW4r6.s:5498   .text:00001898 Timebase_LP_Reset
C:\Users\WALTON\AppData\Local\Temp/ccNDW4r6.s:5512   .text:0000189e Timebase_Init
C:\Users\WALTON\AppData\Local\Temp/ccNDW4r6.s:5553   .text:000018c4 Timebase_Main_Loop_Executables
C:\Users\WALTON\AppData\Local\Temp/ccNDW4r6.s:5597   .text:0000190c Timebase_ISR_Executables
C:\Users\WALTON\AppData\Local\Temp/ccNDW4r6.s:5643   .text:0000194e __vector_16
C:\Users\WALTON\AppData\Local\Temp/ccNDW4r6.s:5696   .text:000019a4 Timebase_LP_ISR_Executables
C:\Users\WALTON\AppData\Local\Temp/ccNDW4r6.s:5744   .text:000019e6 __vector_6

UNDEFINED SYMBOLS
__divmodsi4
__mulsi3
__do_copy_data
__do_clear_bss
