   1               		.file	"timebase.c"
   2               	__SREG__ = 0x3f
   3               	__SP_H__ = 0x3e
   4               	__SP_L__ = 0x3d
   5               	__CCP__  = 0x34
   6               	__tmp_reg__ = 0
   7               	__zero_reg__ = 1
  15               	.Ltext0:
  16               	.global	Timebase_Struct_Init
  18               	Timebase_Struct_Init:
  19               	.LFB6:
  20               	.LM1:
  21               	/* prologue: function */
  22               	/* frame size = 0 */
  23               	.LM2:
  24 0000 80E0      		ldi r24,lo8(Timebase_type)
  25 0002 90E0      		ldi r25,hi8(Timebase_type)
  26 0004 9093 0000 		sts (Timebase)+1,r25
  27 0008 8093 0000 		sts Timebase,r24
  28               	.LM3:
  29 000c 1092 0000 		sts Timebase_type,__zero_reg__
  30               	.LM4:
  31 0010 8091 0000 		lds r24,Timebase_type
  32 0014 8460      		ori r24,lo8(4)
  33 0016 8093 0000 		sts Timebase_type,r24
  34               	.LM5:
  35 001a 8091 0000 		lds r24,Timebase_type
  36 001e 8770      		andi r24,lo8(7)
  37 0020 8093 0000 		sts Timebase_type,r24
  38               	.LM6:
  39 0024 81E0      		ldi r24,lo8(1)
  40 0026 90E0      		ldi r25,hi8(1)
  41 0028 9093 0000 		sts (Timebase_type+1)+1,r25
  42 002c 8093 0000 		sts Timebase_type+1,r24
  43               	.LM7:
  44 0030 1092 0000 		sts Timebase_type+3,__zero_reg__
  45               	.LM8:
  46 0034 1092 0000 		sts (Timebase_type+8)+1,__zero_reg__
  47 0038 1092 0000 		sts Timebase_type+8,__zero_reg__
  48               	.LM9:
  49 003c 1092 0000 		sts Timebase_type+10,__zero_reg__
  50 0040 1092 0000 		sts (Timebase_type+10)+1,__zero_reg__
  51 0044 1092 0000 		sts (Timebase_type+10)+2,__zero_reg__
  52 0048 1092 0000 		sts (Timebase_type+10)+3,__zero_reg__
  53               	.LM10:
  54 004c 1092 0000 		sts Timebase_type+4,__zero_reg__
  55 0050 1092 0000 		sts (Timebase_type+4)+1,__zero_reg__
  56 0054 1092 0000 		sts (Timebase_type+4)+2,__zero_reg__
  57 0058 1092 0000 		sts (Timebase_type+4)+3,__zero_reg__
  58               	.LM11:
  59 005c 1092 0000 		sts Timebase_type+14,__zero_reg__
  60 0060 1092 0000 		sts (Timebase_type+14)+1,__zero_reg__
  61 0064 1092 0000 		sts (Timebase_type+14)+2,__zero_reg__
  62 0068 1092 0000 		sts (Timebase_type+14)+3,__zero_reg__
  63               	.LM12:
  64 006c 1092 0000 		sts Timebase_type+18,__zero_reg__
  65 0070 1092 0000 		sts (Timebase_type+18)+1,__zero_reg__
  66 0074 1092 0000 		sts (Timebase_type+18)+2,__zero_reg__
  67 0078 1092 0000 		sts (Timebase_type+18)+3,__zero_reg__
  68               	.LM13:
  69 007c 1092 0000 		sts Timebase_type+22,__zero_reg__
  70               	.LM14:
  71 0080 1092 0000 		sts Timebase_type+23,__zero_reg__
  72               	.LM15:
  73 0084 1092 0000 		sts Timebase_type+24,__zero_reg__
  74               	.LBB529:
  75               	.LM16:
  76 0088 1092 0000 		sts Timebase_type+50,__zero_reg__
  77               	.LM17:
  78 008c 1092 0000 		sts Timebase_type+51,__zero_reg__
  79 0090 1092 0000 		sts (Timebase_type+51)+1,__zero_reg__
  80 0094 1092 0000 		sts (Timebase_type+51)+2,__zero_reg__
  81 0098 1092 0000 		sts (Timebase_type+51)+3,__zero_reg__
  82               	.LM18:
  83 009c 1092 0000 		sts Timebase_type+55,__zero_reg__
  84 00a0 1092 0000 		sts (Timebase_type+55)+1,__zero_reg__
  85 00a4 1092 0000 		sts (Timebase_type+55)+2,__zero_reg__
  86 00a8 1092 0000 		sts (Timebase_type+55)+3,__zero_reg__
  87               	.LM19:
  88 00ac 1092 0000 		sts Timebase_type+59,__zero_reg__
  89 00b0 1092 0000 		sts (Timebase_type+59)+1,__zero_reg__
  90 00b4 1092 0000 		sts (Timebase_type+59)+2,__zero_reg__
  91 00b8 1092 0000 		sts (Timebase_type+59)+3,__zero_reg__
  92               	.LM20:
  93 00bc 1092 0000 		sts Timebase_type+63,__zero_reg__
  94 00c0 1092 0000 		sts (Timebase_type+63)+1,__zero_reg__
  95 00c4 1092 0000 		sts (Timebase_type+63)+2,__zero_reg__
  96 00c8 1092 0000 		sts (Timebase_type+63)+3,__zero_reg__
  97               	.LM21:
  98 00cc 1092 0000 		sts Timebase_type+67,__zero_reg__
  99 00d0 1092 0000 		sts (Timebase_type+67)+1,__zero_reg__
 100 00d4 1092 0000 		sts (Timebase_type+67)+2,__zero_reg__
 101 00d8 1092 0000 		sts (Timebase_type+67)+3,__zero_reg__
 102               	.LBE529:
 103               	.LBB530:
 104               	.LM22:
 105 00dc 1092 0000 		sts Timebase_type+25,__zero_reg__
 106               	.LM23:
 107 00e0 1092 0000 		sts Timebase_type+26,__zero_reg__
 108 00e4 1092 0000 		sts (Timebase_type+26)+1,__zero_reg__
 109 00e8 1092 0000 		sts (Timebase_type+26)+2,__zero_reg__
 110 00ec 1092 0000 		sts (Timebase_type+26)+3,__zero_reg__
 111               	.LM24:
 112 00f0 1092 0000 		sts Timebase_type+30,__zero_reg__
 113 00f4 1092 0000 		sts (Timebase_type+30)+1,__zero_reg__
 114 00f8 1092 0000 		sts (Timebase_type+30)+2,__zero_reg__
 115 00fc 1092 0000 		sts (Timebase_type+30)+3,__zero_reg__
 116               	.LM25:
 117 0100 1092 0000 		sts Timebase_type+34,__zero_reg__
 118 0104 1092 0000 		sts (Timebase_type+34)+1,__zero_reg__
 119 0108 1092 0000 		sts (Timebase_type+34)+2,__zero_reg__
 120 010c 1092 0000 		sts (Timebase_type+34)+3,__zero_reg__
 121               	.LM26:
 122 0110 1092 0000 		sts Timebase_type+38,__zero_reg__
 123 0114 1092 0000 		sts (Timebase_type+38)+1,__zero_reg__
 124 0118 1092 0000 		sts (Timebase_type+38)+2,__zero_reg__
 125 011c 1092 0000 		sts (Timebase_type+38)+3,__zero_reg__
 126               	.LM27:
 127 0120 1092 0000 		sts Timebase_type+42,__zero_reg__
 128 0124 1092 0000 		sts (Timebase_type+42)+1,__zero_reg__
 129 0128 1092 0000 		sts (Timebase_type+42)+2,__zero_reg__
 130 012c 1092 0000 		sts (Timebase_type+42)+3,__zero_reg__
 131               	.LM28:
 132 0130 1092 0000 		sts Timebase_type+46,__zero_reg__
 133 0134 1092 0000 		sts (Timebase_type+46)+1,__zero_reg__
 134 0138 1092 0000 		sts (Timebase_type+46)+2,__zero_reg__
 135 013c 1092 0000 		sts (Timebase_type+46)+3,__zero_reg__
 136 0140 A0E0      		ldi r26,lo8(Timebase_type+157)
 137 0142 B0E0      		ldi r27,hi8(Timebase_type+157)
 138 0144 80E0      		ldi r24,lo8(0)
 139 0146 90E0      		ldi r25,hi8(0)
 140               	.LBE530:
 141               	.LBB531:
 142               	.LM29:
 143 0148 2DE0      		ldi r18,lo8(13)
 144 014a 30E0      		ldi r19,hi8(13)
 145               	.L2:
 146 014c 829F      		mul r24,r18
 147 014e F001      		movw r30,r0
 148 0150 839F      		mul r24,r19
 149 0152 F00D      		add r31,r0
 150 0154 929F      		mul r25,r18
 151 0156 F00D      		add r31,r0
 152 0158 1124      		clr r1
 153 015a E050      		subi r30,lo8(-(Timebase_type+156))
 154 015c F040      		sbci r31,hi8(-(Timebase_type+156))
 155 015e 1082      		st Z,__zero_reg__
 156               	.LM30:
 157 0160 1D92      		st X+,__zero_reg__
 158 0162 1D92      		st X+,__zero_reg__
 159 0164 1D92      		st X+,__zero_reg__
 160 0166 1C92      		st X,__zero_reg__
 161 0168 1397      		sbiw r26,3
 162               	.LM31:
 163 016a 1496      		adiw r26,4
 164 016c 1D92      		st X+,__zero_reg__
 165 016e 1D92      		st X+,__zero_reg__
 166 0170 1D92      		st X+,__zero_reg__
 167 0172 1C92      		st X,__zero_reg__
 168 0174 1797      		sbiw r26,4+3
 169               	.LM32:
 170 0176 1896      		adiw r26,8
 171 0178 1D92      		st X+,__zero_reg__
 172 017a 1D92      		st X+,__zero_reg__
 173 017c 1D92      		st X+,__zero_reg__
 174 017e 1C92      		st X,__zero_reg__
 175 0180 1B97      		sbiw r26,8+3
 176 0182 0196      		adiw r24,1
 177 0184 1D96      		adiw r26,13
 178               	.LM33:
 179 0186 8530      		cpi r24,5
 180 0188 9105      		cpc r25,__zero_reg__
 181 018a 01F4      		brne .L2
 182 018c A0E0      		ldi r26,lo8(Timebase_type+72)
 183 018e B0E0      		ldi r27,hi8(Timebase_type+72)
 184 0190 80E0      		ldi r24,lo8(0)
 185 0192 90E0      		ldi r25,hi8(0)
 186               	.L3:
 187               	.LBE531:
 188               	.LBB532:
 189               	.LM34:
 190 0194 FC01      		movw r30,r24
 191 0196 24E0      		ldi r18,4
 192 0198 EE0F      	1:	lsl r30
 193 019a FF1F      		rol r31
 194 019c 2A95      		dec r18
 195 019e 01F4      		brne 1b
 196 01a0 E80F      		add r30,r24
 197 01a2 F91F      		adc r31,r25
 198 01a4 E050      		subi r30,lo8(-(Timebase_type+71))
 199 01a6 F040      		sbci r31,hi8(-(Timebase_type+71))
 200 01a8 1082      		st Z,__zero_reg__
 201               	.LM35:
 202 01aa 1D92      		st X+,__zero_reg__
 203 01ac 1D92      		st X+,__zero_reg__
 204 01ae 1D92      		st X+,__zero_reg__
 205 01b0 1C92      		st X,__zero_reg__
 206 01b2 1397      		sbiw r26,3
 207               	.LM36:
 208 01b4 1496      		adiw r26,4
 209 01b6 1D92      		st X+,__zero_reg__
 210 01b8 1D92      		st X+,__zero_reg__
 211 01ba 1D92      		st X+,__zero_reg__
 212 01bc 1C92      		st X,__zero_reg__
 213 01be 1797      		sbiw r26,4+3
 214               	.LM37:
 215 01c0 1896      		adiw r26,8
 216 01c2 1D92      		st X+,__zero_reg__
 217 01c4 1D92      		st X+,__zero_reg__
 218 01c6 1D92      		st X+,__zero_reg__
 219 01c8 1C92      		st X,__zero_reg__
 220 01ca 1B97      		sbiw r26,8+3
 221               	.LM38:
 222 01cc 1C96      		adiw r26,12
 223 01ce 1D92      		st X+,__zero_reg__
 224 01d0 1D92      		st X+,__zero_reg__
 225 01d2 1D92      		st X+,__zero_reg__
 226 01d4 1C92      		st X,__zero_reg__
 227 01d6 1F97      		sbiw r26,12+3
 228 01d8 0196      		adiw r24,1
 229 01da 5196      		adiw r26,17
 230               	.LM39:
 231 01dc 8530      		cpi r24,5
 232 01de 9105      		cpc r25,__zero_reg__
 233 01e0 01F4      		brne .L3
 234               	/* epilogue start */
 235               	.LBE532:
 236               	.LM40:
 237 01e2 0895      		ret
 238               	.LFE6:
 240               	.global	Timebase_Timer_Config
 242               	Timebase_Timer_Config:
 243               	.LFB7:
 244               	.LM41:
 245               	.LVL0:
 246 01e4 7F92      		push r7
 247 01e6 8F92      		push r8
 248 01e8 9F92      		push r9
 249 01ea AF92      		push r10
 250 01ec BF92      		push r11
 251 01ee CF92      		push r12
 252 01f0 DF92      		push r13
 253 01f2 EF92      		push r14
 254 01f4 FF92      		push r15
 255 01f6 0F93      		push r16
 256 01f8 1F93      		push r17
 257 01fa DF93      		push r29
 258 01fc CF93      		push r28
 259 01fe CDB7      		in r28,__SP_L__
 260 0200 DEB7      		in r29,__SP_H__
 261 0202 2A97      		sbiw r28,10
 262 0204 0FB6      		in __tmp_reg__,__SREG__
 263 0206 F894      		cli
 264 0208 DEBF      		out __SP_H__,r29
 265 020a 0FBE      		out __SREG__,__tmp_reg__
 266 020c CDBF      		out __SP_L__,r28
 267               	/* prologue: function */
 268               	/* frame size = 10 */
 269 020e 8C01      		movw r16,r24
 270               	.LM42:
 271 0210 C090 0000 		lds r12,Timebase
 272 0214 D090 0000 		lds r13,(Timebase)+1
 273 0218 F601      		movw r30,r12
 274 021a 8081      		ld r24,Z
 275               	.LVL1:
 276 021c 80FF      		sbrs r24,0
 277 021e 00C0      		rjmp .L8
 278               	.LBB533:
 279               	.LM43:
 280 0220 0130      		cpi r16,1
 281 0222 1105      		cpc r17,__zero_reg__
 282 0224 01F4      		brne .L9
 283 0226 96E0      		ldi r25,lo8(6)
 284               	.LVL2:
 285 0228 00C0      		rjmp .L10
 286               	.LVL3:
 287               	.L9:
 288               	.LM44:
 289 022a 0230      		cpi r16,2
 290 022c 1105      		cpc r17,__zero_reg__
 291 022e 01F4      		brne .L11
 292 0230 95E0      		ldi r25,lo8(5)
 293               	.LVL4:
 294 0232 00C0      		rjmp .L10
 295               	.LVL5:
 296               	.L11:
 297               	.LM45:
 298 0234 0430      		cpi r16,4
 299 0236 1105      		cpc r17,__zero_reg__
 300 0238 01F4      		brne .L12
 301 023a 94E0      		ldi r25,lo8(4)
 302               	.LVL6:
 303 023c 00C0      		rjmp .L10
 304               	.LVL7:
 305               	.L12:
 306               	.LM46:
 307 023e 0830      		cpi r16,8
 308 0240 1105      		cpc r17,__zero_reg__
 309 0242 01F4      		brne .L13
 310 0244 93E0      		ldi r25,lo8(3)
 311               	.LVL8:
 312 0246 00C0      		rjmp .L10
 313               	.LVL9:
 314               	.L13:
 315               	.LM47:
 316 0248 0031      		cpi r16,16
 317 024a 1105      		cpc r17,__zero_reg__
 318 024c 01F4      		brne .L14
 319 024e 92E0      		ldi r25,lo8(2)
 320               	.LVL10:
 321 0250 00C0      		rjmp .L10
 322               	.LVL11:
 323               	.L14:
 324 0252 90E0      		ldi r25,lo8(0)
 325               	.LVL12:
 326 0254 0032      		cpi r16,32
 327 0256 1105      		cpc r17,__zero_reg__
 328 0258 01F4      		brne .L10
 329 025a 91E0      		ldi r25,lo8(1)
 330               	.L10:
 331               	.LM48:
 332               	/* #APP */
 333               	 ;  264 "timebase.c" 1
 334 025c F894      		cli
 335               	 ;  0 "" 2
 336               	.LM49:
 337               	/* #NOAPP */
 338 025e 84B7      		in r24,84-32
 339 0260 877F      		andi r24,lo8(-9)
 340 0262 84BF      		out 84-32,r24
 341               	.LM50:
 342 0264 8091 6000 		lds r24,96
 343 0268 8068      		ori r24,lo8(-128)
 344 026a 8093 6000 		sts 96,r24
 345               	.LM51:
 346 026e 8091 6000 		lds r24,96
 347 0272 8861      		ori r24,lo8(24)
 348 0274 8093 6000 		sts 96,r24
 349               	.LM52:
 350 0278 9064      		ori r25,lo8(64)
 351 027a 9093 6000 		sts 96,r25
 352               	.LM53:
 353               	/* #APP */
 354               	 ;  269 "timebase.c" 1
 355 027e 7894      		sei
 356               	 ;  0 "" 2
 357               	/* #NOAPP */
 358 0280 00C0      		rjmp .L16
 359               	.LVL13:
 360               	.L8:
 361               	.LBE533:
 362               	.LM54:
 363 0282 81FD      		sbrc r24,1
 364 0284 00C0      		rjmp .L16
 365               	.LM55:
 366 0286 82FF      		sbrs r24,2
 367 0288 00C0      		rjmp .L16
 368               	.LBB534:
 369               	.LM56:
 370 028a DE01      		movw r26,r28
 371 028c 1196      		adiw r26,1
 372 028e E0E0      		ldi r30,lo8(C.2.1665)
 373 0290 F0E0      		ldi r31,hi8(C.2.1665)
 374 0292 8AE0      		ldi r24,lo8(10)
 375               	.L17:
 376 0294 0190      		ld r0,Z+
 377 0296 0D92      		st X+,r0
 378 0298 8150      		subi r24,lo8(-(-1))
 379 029a 01F4      		brne .L17
 380               	.LM57:
 381 029c 9801      		movw r18,r16
 382 029e 40E0      		ldi r20,lo8(0)
 383 02a0 50E0      		ldi r21,hi8(0)
 384               	.LVL14:
 385 02a2 60E0      		ldi r22,lo8(12000000)
 386 02a4 7BE1      		ldi r23,hi8(12000000)
 387 02a6 87EB      		ldi r24,hlo8(12000000)
 388 02a8 90E0      		ldi r25,hhi8(12000000)
 389 02aa 0E94 0000 		call __divmodsi4
 390 02ae 722E      		mov r7,r18
 391 02b0 832E      		mov r8,r19
 392 02b2 942E      		mov r9,r20
 393               	.LVL15:
 394 02b4 E52E      		mov r14,r21
 395 02b6 5E01      		movw r10,r28
 396 02b8 0894      		sec
 397 02ba A11C      		adc r10,__zero_reg__
 398 02bc B11C      		adc r11,__zero_reg__
 399 02be C901      		movw r24,r18
 400 02c0 DA01      		movw r26,r20
 401 02c2 9C01      		movw r18,r24
 402 02c4 AD01      		movw r20,r26
 403               	.LVL16:
 404 02c6 FF24      		clr r15
 405               	.LVL17:
 406 02c8 00C0      		rjmp .L18
 407               	.LVL18:
 408               	.L20:
 409               	.LM58:
 410 02ca F501      		movw r30,r10
 411 02cc 2191      		ld r18,Z+
 412 02ce 3191      		ld r19,Z+
 413               	.LVL19:
 414 02d0 5F01      		movw r10,r30
 415 02d2 40E0      		ldi r20,lo8(0)
 416 02d4 50E0      		ldi r21,hi8(0)
 417 02d6 672D      		mov r22,r7
 418 02d8 782D      		mov r23,r8
 419 02da 892D      		mov r24,r9
 420               	.LVL20:
 421 02dc 9E2D      		mov r25,r14
 422 02de 0E94 0000 		call __divmodsi4
 423 02e2 C901      		movw r24,r18
 424 02e4 DA01      		movw r26,r20
 425 02e6 9C01      		movw r18,r24
 426 02e8 AD01      		movw r20,r26
 427               	.LVL21:
 428               	.LM59:
 429 02ea F394      		inc r15
 430               	.LM60:
 431 02ec F5E0      		ldi r31,lo8(5)
 432 02ee FF16      		cp r15,r31
 433 02f0 01F0      		breq .L19
 434               	.LVL22:
 435               	.L18:
 436               	.LM61:
 437 02f2 2F3F      		cpi r18,lo8(255)
 438 02f4 3105      		cpc r19,__zero_reg__
 439 02f6 4105      		cpc r20,__zero_reg__
 440 02f8 5105      		cpc r21,__zero_reg__
 441 02fa 01F0      		breq .+2
 442 02fc 04F4      		brge .L20
 443               	.L19:
 444               	.LM62:
 445 02fe 8F2D      		mov r24,r15
 446 0300 8150      		subi r24,lo8(-(-1))
 447               	.LVL23:
 448               	.LM63:
 449 0302 14BC      		out 68-32,__zero_reg__
 450               	.LM64:
 451 0304 15BC      		out 69-32,__zero_reg__
 452               	.LM65:
 453 0306 1092 6E00 		sts 110,__zero_reg__
 454               	.LM66:
 455 030a 15BA      		out 53-32,__zero_reg__
 456               	.LM67:
 457 030c 17BC      		out 71-32,__zero_reg__
 458               	.LM68:
 459 030e 18BC      		out 72-32,__zero_reg__
 460               	.LM69:
 461 0310 16BC      		out 70-32,__zero_reg__
 462               	.LM70:
 463 0312 17BC      		out 71-32,__zero_reg__
 464               	.LM71:
 465 0314 8823      		tst r24
 466 0316 01F4      		brne .L21
 467               	.LM72:
 468 0318 81E0      		ldi r24,lo8(1)
 469               	.LVL24:
 470 031a 00C0      		rjmp .L28
 471               	.LVL25:
 472               	.L21:
 473               	.LM73:
 474 031c 8130      		cpi r24,lo8(1)
 475 031e 01F4      		brne .L23
 476               	.LM74:
 477 0320 82E0      		ldi r24,lo8(2)
 478               	.LVL26:
 479 0322 00C0      		rjmp .L28
 480               	.LVL27:
 481               	.L23:
 482               	.LM75:
 483 0324 8230      		cpi r24,lo8(2)
 484 0326 01F4      		brne .L24
 485               	.LM76:
 486 0328 83E0      		ldi r24,lo8(3)
 487               	.LVL28:
 488 032a 00C0      		rjmp .L28
 489               	.LVL29:
 490               	.L24:
 491               	.LM77:
 492 032c 8330      		cpi r24,lo8(3)
 493 032e 01F4      		brne .L25
 494               	.LM78:
 495 0330 84E0      		ldi r24,lo8(4)
 496               	.LVL30:
 497 0332 00C0      		rjmp .L28
 498               	.LVL31:
 499               	.L25:
 500               	.LM79:
 501 0334 8430      		cpi r24,lo8(4)
 502 0336 01F4      		brne .L22
 503               	.LM80:
 504 0338 85E0      		ldi r24,lo8(5)
 505               	.LVL32:
 506               	.L28:
 507 033a 85BD      		out 69-32,r24
 508               	.LVL33:
 509               	.L22:
 510               	.LM81:
 511 033c 822F      		mov r24,r18
 512               	.LVL34:
 513 033e 8095      		com r24
 514 0340 F601      		movw r30,r12
 515 0342 8383      		std Z+3,r24
 516               	.LM82:
 517 0344 8381      		ldd r24,Z+3
 518 0346 86BD      		out 70-32,r24
 519               	.LM83:
 520 0348 81E0      		ldi r24,lo8(1)
 521 034a 8093 6E00 		sts 110,r24
 522               	.LM84:
 523               	/* #APP */
 524               	 ;  317 "timebase.c" 1
 525 034e 7894      		sei
 526               	 ;  0 "" 2
 527               	.LVL35:
 528               	/* #NOAPP */
 529               	.L16:
 530               	.LBE534:
 531               	.LM85:
 532 0350 F601      		movw r30,r12
 533 0352 1283      		std Z+2,r17
 534 0354 0183      		std Z+1,r16
 535               	/* epilogue start */
 536               	.LM86:
 537 0356 2A96      		adiw r28,10
 538 0358 0FB6      		in __tmp_reg__,__SREG__
 539 035a F894      		cli
 540 035c DEBF      		out __SP_H__,r29
 541 035e 0FBE      		out __SREG__,__tmp_reg__
 542 0360 CDBF      		out __SP_L__,r28
 543 0362 CF91      		pop r28
 544 0364 DF91      		pop r29
 545 0366 1F91      		pop r17
 546 0368 0F91      		pop r16
 547               	.LVL36:
 548 036a FF90      		pop r15
 549 036c EF90      		pop r14
 550 036e DF90      		pop r13
 551 0370 CF90      		pop r12
 552 0372 BF90      		pop r11
 553 0374 AF90      		pop r10
 554 0376 9F90      		pop r9
 555 0378 8F90      		pop r8
 556 037a 7F90      		pop r7
 557 037c 0895      		ret
 558               	.LFE7:
 560               	.global	Timebase_Atomic_Operation_Start
 562               	Timebase_Atomic_Operation_Start:
 563               	.LFB8:
 564               	.LM87:
 565               	/* prologue: function */
 566               	/* frame size = 0 */
 567               	.LM88:
 568               	/* #APP */
 569               	 ;  337 "timebase.c" 1
 570 037e F894      		cli
 571               	 ;  0 "" 2
 572               	/* epilogue start */
 573               	.LM89:
 574               	/* #NOAPP */
 575 0380 0895      		ret
 576               	.LFE8:
 578               	.global	Timebase_Atomic_Operation_End
 580               	Timebase_Atomic_Operation_End:
 581               	.LFB9:
 582               	.LM90:
 583               	/* prologue: function */
 584               	/* frame size = 0 */
 585               	.LM91:
 586               	/* #APP */
 587               	 ;  341 "timebase.c" 1
 588 0382 7894      		sei
 589               	 ;  0 "" 2
 590               	/* epilogue start */
 591               	.LM92:
 592               	/* #NOAPP */
 593 0384 0895      		ret
 594               	.LFE9:
 596               	.global	Timebase_Token_Executing
 598               	Timebase_Token_Executing:
 599               	.LFB10:
 600               	.LM93:
 601               	/* prologue: function */
 602               	/* frame size = 0 */
 603               	.LM94:
 604 0386 E091 0000 		lds r30,Timebase
 605 038a F091 0000 		lds r31,(Timebase)+1
 606 038e 808D      		ldd r24,Z+24
 607               	/* epilogue start */
 608               	.LM95:
 609 0390 0895      		ret
 610               	.LFE10:
 612               	.global	Timebase_Token_Add
 614               	Timebase_Token_Add:
 615               	.LFB11:
 616               	.LM96:
 617               	/* prologue: function */
 618               	/* frame size = 0 */
 619               	.LBB535:
 620               	.LBB536:
 621               	.LM97:
 622 0392 E091 0000 		lds r30,Timebase
 623 0396 F091 0000 		lds r31,(Timebase)+1
 624 039a 808D      		ldd r24,Z+24
 625               	.LBE536:
 626               	.LBE535:
 627               	.LM98:
 628 039c 8F33      		cpi r24,lo8(63)
 629 039e 00F4      		brsh .L37
 630               	.LM99:
 631 03a0 808D      		ldd r24,Z+24
 632 03a2 8F5F      		subi r24,lo8(-(1))
 633 03a4 808F      		std Z+24,r24
 634               	.L37:
 635 03a6 0895      		ret
 636               	.LFE11:
 638               	.global	Timebase_Token_Remove
 640               	Timebase_Token_Remove:
 641               	.LFB12:
 642               	.LM100:
 643               	/* prologue: function */
 644               	/* frame size = 0 */
 645               	.LBB537:
 646               	.LBB538:
 647               	.LM101:
 648 03a8 E091 0000 		lds r30,Timebase
 649 03ac F091 0000 		lds r31,(Timebase)+1
 650 03b0 808D      		ldd r24,Z+24
 651               	.LBE538:
 652               	.LBE537:
 653               	.LM102:
 654 03b2 8823      		tst r24
 655 03b4 01F0      		breq .L40
 656               	.LM103:
 657 03b6 808D      		ldd r24,Z+24
 658 03b8 8150      		subi r24,lo8(-(-1))
 659 03ba 808F      		std Z+24,r24
 660               	.L40:
 661 03bc 0895      		ret
 662               	.LFE12:
 664               	.global	Timebase_Token_Remove_All
 666               	Timebase_Token_Remove_All:
 667               	.LFB13:
 668               	.LM104:
 669               	/* prologue: function */
 670               	/* frame size = 0 */
 671               	.LM105:
 672 03be E091 0000 		lds r30,Timebase
 673 03c2 F091 0000 		lds r31,(Timebase)+1
 674 03c6 108E      		std Z+24,__zero_reg__
 675               	/* epilogue start */
 676               	.LM106:
 677 03c8 0895      		ret
 678               	.LFE13:
 680               	.global	Timebase_Timer_Get_SubSeconds
 682               	Timebase_Timer_Get_SubSeconds:
 683               	.LFB14:
 684               	.LM107:
 685               	/* prologue: function */
 686               	/* frame size = 0 */
 687               	.LBB539:
 688               	.LBB540:
 689               	.LM108:
 690               	/* #APP */
 691               	 ;  337 "timebase.c" 1
 692 03ca F894      		cli
 693               	 ;  0 "" 2
 694               	/* #NOAPP */
 695               	.LBE540:
 696               	.LBE539:
 697               	.LM109:
 698 03cc E091 0000 		lds r30,Timebase
 699 03d0 F091 0000 		lds r31,(Timebase)+1
 700 03d4 2085      		ldd r18,Z+8
 701 03d6 3185      		ldd r19,Z+9
 702               	.LVL37:
 703               	.LBB541:
 704               	.LBB542:
 705               	.LM110:
 706               	/* #APP */
 707               	 ;  341 "timebase.c" 1
 708 03d8 7894      		sei
 709               	 ;  0 "" 2
 710               	/* #NOAPP */
 711               	.LBE542:
 712               	.LBE541:
 713               	.LM111:
 714 03da C901      		movw r24,r18
 715               	.LVL38:
 716               	/* epilogue start */
 717 03dc 0895      		ret
 718               	.LFE14:
 720               	.global	Timebase_Timer_Get_Seconds
 722               	Timebase_Timer_Get_Seconds:
 723               	.LFB15:
 724               	.LM112:
 725               	/* prologue: function */
 726               	/* frame size = 0 */
 727               	.LBB543:
 728               	.LBB544:
 729               	.LM113:
 730               	/* #APP */
 731               	 ;  337 "timebase.c" 1
 732 03de F894      		cli
 733               	 ;  0 "" 2
 734               	/* #NOAPP */
 735               	.LBE544:
 736               	.LBE543:
 737               	.LM114:
 738 03e0 E091 0000 		lds r30,Timebase
 739 03e4 F091 0000 		lds r31,(Timebase)+1
 740 03e8 2285      		ldd r18,Z+10
 741 03ea 3385      		ldd r19,Z+11
 742 03ec 4485      		ldd r20,Z+12
 743 03ee 5585      		ldd r21,Z+13
 744               	.LVL39:
 745               	.LBB545:
 746               	.LBB546:
 747               	.LM115:
 748               	/* #APP */
 749               	 ;  341 "timebase.c" 1
 750 03f0 7894      		sei
 751               	 ;  0 "" 2
 752               	/* #NOAPP */
 753               	.LBE546:
 754               	.LBE545:
 755               	.LM116:
 756 03f2 B901      		movw r22,r18
 757               	.LVL40:
 758 03f4 CA01      		movw r24,r20
 759               	/* epilogue start */
 760 03f6 0895      		ret
 761               	.LFE15:
 763               	.global	Timebase_Timer_Set_SubSeconds
 765               	Timebase_Timer_Set_SubSeconds:
 766               	.LFB16:
 767               	.LM117:
 768               	.LVL41:
 769               	/* prologue: function */
 770               	/* frame size = 0 */
 771               	.LM118:
 772 03f8 E091 0000 		lds r30,Timebase
 773 03fc F091 0000 		lds r31,(Timebase)+1
 774 0400 9187      		std Z+9,r25
 775 0402 8087      		std Z+8,r24
 776               	/* epilogue start */
 777               	.LM119:
 778 0404 0895      		ret
 779               	.LFE16:
 781               	.global	Timebase_Timer_Set_Seconds
 783               	Timebase_Timer_Set_Seconds:
 784               	.LFB17:
 785               	.LM120:
 786               	.LVL42:
 787               	/* prologue: function */
 788               	/* frame size = 0 */
 789               	.LM121:
 790 0406 E091 0000 		lds r30,Timebase
 791 040a F091 0000 		lds r31,(Timebase)+1
 792 040e 6287      		std Z+10,r22
 793 0410 7387      		std Z+11,r23
 794 0412 8487      		std Z+12,r24
 795 0414 9587      		std Z+13,r25
 796               	/* epilogue start */
 797               	.LM122:
 798 0416 0895      		ret
 799               	.LFE17:
 801               	.global	Timebase_Timer_Delay_SubSeconds
 803               	Timebase_Timer_Delay_SubSeconds:
 804               	.LFB18:
 805               	.LM123:
 806               	.LVL43:
 807 0418 6F92      		push r6
 808 041a 7F92      		push r7
 809 041c 8F92      		push r8
 810 041e 9F92      		push r9
 811 0420 AF92      		push r10
 812 0422 BF92      		push r11
 813 0424 CF92      		push r12
 814 0426 DF92      		push r13
 815 0428 EF92      		push r14
 816 042a FF92      		push r15
 817 042c 0F93      		push r16
 818 042e 1F93      		push r17
 819 0430 CF93      		push r28
 820 0432 DF93      		push r29
 821               	/* prologue: function */
 822               	/* frame size = 0 */
 823 0434 5C01      		movw r10,r24
 824               	.LBB547:
 825               	.LBB548:
 826               	.LBB549:
 827               	.LBB550:
 828               	.LM124:
 829               	/* #APP */
 830               	 ;  337 "timebase.c" 1
 831 0436 F894      		cli
 832               	 ;  0 "" 2
 833               	/* #NOAPP */
 834               	.LBE550:
 835               	.LBE549:
 836               	.LM125:
 837 0438 C091 0000 		lds r28,Timebase
 838 043c D091 0000 		lds r29,(Timebase)+1
 839 0440 E884      		ldd r14,Y+8
 840 0442 F984      		ldd r15,Y+9
 841               	.LVL44:
 842               	.LBB551:
 843               	.LBB552:
 844               	.LM126:
 845               	/* #APP */
 846               	 ;  341 "timebase.c" 1
 847 0444 7894      		sei
 848               	 ;  0 "" 2
 849               	/* #NOAPP */
 850               	.LBE552:
 851               	.LBE551:
 852               	.LBE548:
 853               	.LBE547:
 854               	.LBB553:
 855               	.LBB554:
 856               	.LBB555:
 857               	.LBB556:
 858               	.LM127:
 859               	/* #APP */
 860               	 ;  337 "timebase.c" 1
 861 0446 F894      		cli
 862               	 ;  0 "" 2
 863               	/* #NOAPP */
 864               	.LBE556:
 865               	.LBE555:
 866               	.LM128:
 867 0448 2A85      		ldd r18,Y+10
 868 044a 3B85      		ldd r19,Y+11
 869 044c 4C85      		ldd r20,Y+12
 870 044e 5D85      		ldd r21,Y+13
 871               	.LVL45:
 872               	.LBB557:
 873               	.LBB558:
 874               	.LM129:
 875               	/* #APP */
 876               	 ;  341 "timebase.c" 1
 877 0450 7894      		sei
 878               	 ;  0 "" 2
 879               	/* #NOAPP */
 880               	.LBE558:
 881               	.LBE557:
 882               	.LBE554:
 883               	.LBE553:
 884               	.LM130:
 885 0452 6981      		ldd r22,Y+1
 886 0454 7A81      		ldd r23,Y+2
 887 0456 80E0      		ldi r24,lo8(0)
 888 0458 90E0      		ldi r25,hi8(0)
 889               	.LVL46:
 890 045a 0E94 0000 		call __mulsi3
 891               	.LVL47:
 892 045e 3B01      		movw r6,r22
 893 0460 4C01      		movw r8,r24
 894               	.LVL48:
 895               	.LM131:
 896 0462 00E0      		ldi r16,lo8(0)
 897 0464 10E0      		ldi r17,hi8(0)
 898               	.LVL49:
 899 0466 6E0C      		add r6,r14
 900 0468 7F1C      		adc r7,r15
 901 046a 801E      		adc r8,r16
 902 046c 911E      		adc r9,r17
 903               	.LM132:
 904 046e CC24      		clr r12
 905 0470 DD24      		clr r13
 906               	.LVL50:
 907 0472 6A0C      		add r6,r10
 908 0474 7B1C      		adc r7,r11
 909 0476 8C1C      		adc r8,r12
 910 0478 9D1C      		adc r9,r13
 911 047a 60E0      		ldi r22,lo8(0)
 912 047c 70E0      		ldi r23,hi8(0)
 913 047e 80E0      		ldi r24,hlo8(0)
 914 0480 90E0      		ldi r25,hhi8(0)
 915               	.LVL51:
 916 0482 00C0      		rjmp .L52
 917               	.LVL52:
 918               	.L53:
 919               	.LBB559:
 920               	.LBB560:
 921               	.LBB561:
 922               	.LBB562:
 923               	.LM133:
 924               	/* #APP */
 925               	 ;  337 "timebase.c" 1
 926 0484 F894      		cli
 927               	 ;  0 "" 2
 928               	/* #NOAPP */
 929               	.LBE562:
 930               	.LBE561:
 931               	.LM134:
 932 0486 E884      		ldd r14,Y+8
 933 0488 F984      		ldd r15,Y+9
 934               	.LVL53:
 935               	.LBB563:
 936               	.LBB564:
 937               	.LM135:
 938               	/* #APP */
 939               	 ;  341 "timebase.c" 1
 940 048a 7894      		sei
 941               	 ;  0 "" 2
 942               	/* #NOAPP */
 943               	.LBE564:
 944               	.LBE563:
 945               	.LBE560:
 946               	.LBE559:
 947               	.LBB565:
 948               	.LBB566:
 949               	.LBB567:
 950               	.LBB568:
 951               	.LM136:
 952               	/* #APP */
 953               	 ;  337 "timebase.c" 1
 954 048c F894      		cli
 955               	 ;  0 "" 2
 956               	/* #NOAPP */
 957               	.LBE568:
 958               	.LBE567:
 959               	.LM137:
 960 048e 2A85      		ldd r18,Y+10
 961 0490 3B85      		ldd r19,Y+11
 962 0492 4C85      		ldd r20,Y+12
 963 0494 5D85      		ldd r21,Y+13
 964               	.LVL54:
 965               	.LBB569:
 966               	.LBB570:
 967               	.LM138:
 968               	/* #APP */
 969               	 ;  341 "timebase.c" 1
 970 0496 7894      		sei
 971               	 ;  0 "" 2
 972               	/* #NOAPP */
 973               	.LBE570:
 974               	.LBE569:
 975               	.LBE566:
 976               	.LBE565:
 977               	.LM139:
 978 0498 6981      		ldd r22,Y+1
 979 049a 7A81      		ldd r23,Y+2
 980               	.LVL55:
 981 049c 80E0      		ldi r24,lo8(0)
 982 049e 90E0      		ldi r25,hi8(0)
 983 04a0 0E94 0000 		call __mulsi3
 984               	.LVL56:
 985               	.LM140:
 986 04a4 00E0      		ldi r16,lo8(0)
 987 04a6 10E0      		ldi r17,hi8(0)
 988               	.LVL57:
 989 04a8 6E0D      		add r22,r14
 990 04aa 7F1D      		adc r23,r15
 991 04ac 801F      		adc r24,r16
 992 04ae 911F      		adc r25,r17
 993               	.LVL58:
 994               	.L52:
 995               	.LM141:
 996 04b0 6615      		cp r22,r6
 997 04b2 7705      		cpc r23,r7
 998 04b4 8805      		cpc r24,r8
 999 04b6 9905      		cpc r25,r9
 1000 04b8 04F0      		brlt .L53
 1001               	/* epilogue start */
 1002               	.LM142:
 1003 04ba DF91      		pop r29
 1004 04bc CF91      		pop r28
 1005 04be 1F91      		pop r17
 1006 04c0 0F91      		pop r16
 1007               	.LVL59:
 1008 04c2 FF90      		pop r15
 1009 04c4 EF90      		pop r14
 1010               	.LVL60:
 1011 04c6 DF90      		pop r13
 1012 04c8 CF90      		pop r12
 1013               	.LVL61:
 1014 04ca BF90      		pop r11
 1015 04cc AF90      		pop r10
 1016               	.LVL62:
 1017 04ce 9F90      		pop r9
 1018 04d0 8F90      		pop r8
 1019 04d2 7F90      		pop r7
 1020 04d4 6F90      		pop r6
 1021               	.LVL63:
 1022 04d6 0895      		ret
 1023               	.LFE18:
 1025               	.global	Timebase_Timer_Await_SubSeconds
 1027               	Timebase_Timer_Await_SubSeconds:
 1028               	.LFB19:
 1029               	.LM143:
 1030               	.LVL64:
 1031               	/* prologue: function */
 1032               	/* frame size = 0 */
 1033 04d8 BC01      		movw r22,r24
 1034               	.LBB571:
 1035               	.LBB572:
 1036               	.LM144:
 1037 04da E091 0000 		lds r30,Timebase
 1038 04de F091 0000 		lds r31,(Timebase)+1
 1039               	.LVL65:
 1040               	.L56:
 1041               	.LBB573:
 1042               	.LBB574:
 1043               	.LM145:
 1044               	/* #APP */
 1045               	 ;  337 "timebase.c" 1
 1046 04e2 F894      		cli
 1047               	 ;  0 "" 2
 1048               	/* #NOAPP */
 1049               	.LBE574:
 1050               	.LBE573:
 1051               	.LM146:
 1052 04e4 8085      		ldd r24,Z+8
 1053 04e6 9185      		ldd r25,Z+9
 1054               	.LVL66:
 1055               	.LBB575:
 1056               	.LBB576:
 1057               	.LM147:
 1058               	/* #APP */
 1059               	 ;  341 "timebase.c" 1
 1060 04e8 7894      		sei
 1061               	 ;  0 "" 2
 1062               	/* #NOAPP */
 1063               	.LBE576:
 1064               	.LBE575:
 1065               	.LBE572:
 1066               	.LBE571:
 1067               	.LM148:
 1068 04ea 2481      		ldd r18,Z+4
 1069 04ec 3581      		ldd r19,Z+5
 1070 04ee 4681      		ldd r20,Z+6
 1071 04f0 5781      		ldd r21,Z+7
 1072 04f2 A0E0      		ldi r26,lo8(0)
 1073 04f4 B0E0      		ldi r27,hi8(0)
 1074               	.LVL67:
 1075 04f6 8217      		cp r24,r18
 1076 04f8 9307      		cpc r25,r19
 1077 04fa A407      		cpc r26,r20
 1078 04fc B507      		cpc r27,r21
 1079 04fe 01F4      		brne .L56
 1080               	.LBB577:
 1081               	.LBB578:
 1082               	.LBB579:
 1083               	.LBB580:
 1084               	.LM149:
 1085               	/* #APP */
 1086               	 ;  337 "timebase.c" 1
 1087 0500 F894      		cli
 1088               	 ;  0 "" 2
 1089               	/* #NOAPP */
 1090               	.LBE580:
 1091               	.LBE579:
 1092               	.LM150:
 1093 0502 8085      		ldd r24,Z+8
 1094 0504 9185      		ldd r25,Z+9
 1095               	.LVL68:
 1096               	.LBB581:
 1097               	.LBB582:
 1098               	.LM151:
 1099               	/* #APP */
 1100               	 ;  341 "timebase.c" 1
 1101 0506 7894      		sei
 1102               	 ;  0 "" 2
 1103               	/* #NOAPP */
 1104               	.LBE582:
 1105               	.LBE581:
 1106               	.LBE578:
 1107               	.LBE577:
 1108               	.LM152:
 1109 0508 860F      		add r24,r22
 1110 050a 971F      		adc r25,r23
 1111 050c A0E0      		ldi r26,lo8(0)
 1112 050e B0E0      		ldi r27,hi8(0)
 1113               	.LVL69:
 1114 0510 8483      		std Z+4,r24
 1115 0512 9583      		std Z+5,r25
 1116 0514 A683      		std Z+6,r26
 1117 0516 B783      		std Z+7,r27
 1118               	.LVL70:
 1119               	.LM153:
 1120 0518 2481      		ldd r18,Z+4
 1121 051a 3581      		ldd r19,Z+5
 1122 051c 4681      		ldd r20,Z+6
 1123 051e 5781      		ldd r21,Z+7
 1124 0520 8181      		ldd r24,Z+1
 1125 0522 9281      		ldd r25,Z+2
 1126 0524 A0E0      		ldi r26,lo8(0)
 1127 0526 B0E0      		ldi r27,hi8(0)
 1128 0528 2817      		cp r18,r24
 1129 052a 3907      		cpc r19,r25
 1130 052c 4A07      		cpc r20,r26
 1131 052e 5B07      		cpc r21,r27
 1132 0530 04F0      		brlt .L58
 1133               	.LM154:
 1134 0532 2481      		ldd r18,Z+4
 1135 0534 3581      		ldd r19,Z+5
 1136 0536 4681      		ldd r20,Z+6
 1137 0538 5781      		ldd r21,Z+7
 1138 053a 8181      		ldd r24,Z+1
 1139 053c 9281      		ldd r25,Z+2
 1140 053e A0E0      		ldi r26,lo8(0)
 1141 0540 B0E0      		ldi r27,hi8(0)
 1142 0542 281B      		sub r18,r24
 1143 0544 390B      		sbc r19,r25
 1144 0546 4A0B      		sbc r20,r26
 1145 0548 5B0B      		sbc r21,r27
 1146 054a 2483      		std Z+4,r18
 1147 054c 3583      		std Z+5,r19
 1148 054e 4683      		std Z+6,r20
 1149 0550 5783      		std Z+7,r21
 1150               	.L58:
 1151 0552 0895      		ret
 1152               	.LFE19:
 1154               	.global	Timebase_Timer_Delay_Seconds
 1156               	Timebase_Timer_Delay_Seconds:
 1157               	.LFB20:
 1158               	.LM155:
 1159               	.LVL71:
 1160               	/* prologue: function */
 1161               	/* frame size = 0 */
 1162               	.LBB583:
 1163               	.LBB584:
 1164               	.LBB585:
 1165               	.LBB586:
 1166               	.LM156:
 1167               	/* #APP */
 1168               	 ;  337 "timebase.c" 1
 1169 0554 F894      		cli
 1170               	 ;  0 "" 2
 1171               	/* #NOAPP */
 1172               	.LBE586:
 1173               	.LBE585:
 1174               	.LM157:
 1175 0556 E091 0000 		lds r30,Timebase
 1176 055a F091 0000 		lds r31,(Timebase)+1
 1177 055e 2285      		ldd r18,Z+10
 1178 0560 3385      		ldd r19,Z+11
 1179 0562 4485      		ldd r20,Z+12
 1180 0564 5585      		ldd r21,Z+13
 1181               	.LVL72:
 1182               	.LBB587:
 1183               	.LBB588:
 1184               	.LM158:
 1185               	/* #APP */
 1186               	 ;  341 "timebase.c" 1
 1187 0566 7894      		sei
 1188               	 ;  0 "" 2
 1189               	/* #NOAPP */
 1190               	.LBE588:
 1191               	.LBE587:
 1192               	.LBE584:
 1193               	.LBE583:
 1194               	.LM159:
 1195 0568 A0E0      		ldi r26,lo8(0)
 1196 056a B0E0      		ldi r27,hi8(0)
 1197               	.LVL73:
 1198 056c 820F      		add r24,r18
 1199 056e 931F      		adc r25,r19
 1200 0570 A41F      		adc r26,r20
 1201 0572 B51F      		adc r27,r21
 1202               	.LVL74:
 1203 0574 20E0      		ldi r18,lo8(0)
 1204 0576 30E0      		ldi r19,hi8(0)
 1205 0578 40E0      		ldi r20,hlo8(0)
 1206 057a 50E0      		ldi r21,hhi8(0)
 1207               	.LVL75:
 1208 057c 00C0      		rjmp .L61
 1209               	.L62:
 1210               	.LBB589:
 1211               	.LBB590:
 1212               	.LBB591:
 1213               	.LBB592:
 1214               	.LM160:
 1215               	/* #APP */
 1216               	 ;  337 "timebase.c" 1
 1217 057e F894      		cli
 1218               	 ;  0 "" 2
 1219               	/* #NOAPP */
 1220               	.LBE592:
 1221               	.LBE591:
 1222               	.LM161:
 1223 0580 2285      		ldd r18,Z+10
 1224 0582 3385      		ldd r19,Z+11
 1225 0584 4485      		ldd r20,Z+12
 1226 0586 5585      		ldd r21,Z+13
 1227               	.LBB593:
 1228               	.LBB594:
 1229               	.LM162:
 1230               	/* #APP */
 1231               	 ;  341 "timebase.c" 1
 1232 0588 7894      		sei
 1233               	 ;  0 "" 2
 1234               	/* #NOAPP */
 1235               	.L61:
 1236               	.LBE594:
 1237               	.LBE593:
 1238               	.LBE590:
 1239               	.LBE589:
 1240               	.LM163:
 1241 058a 2817      		cp r18,r24
 1242 058c 3907      		cpc r19,r25
 1243 058e 4A07      		cpc r20,r26
 1244 0590 5B07      		cpc r21,r27
 1245 0592 04F0      		brlt .L62
 1246               	/* epilogue start */
 1247               	.LM164:
 1248 0594 0895      		ret
 1249               	.LFE20:
 1251               	.global	Timebase_Window_Timer_Reset
 1253               	Timebase_Window_Timer_Reset:
 1254               	.LFB21:
 1255               	.LM165:
 1256               	/* prologue: function */
 1257               	/* frame size = 0 */
 1258               	.LM166:
 1259 0596 E091 0000 		lds r30,Timebase
 1260 059a F091 0000 		lds r31,(Timebase)+1
 1261 059e 1686      		std Z+14,__zero_reg__
 1262 05a0 1786      		std Z+15,__zero_reg__
 1263 05a2 108A      		std Z+16,__zero_reg__
 1264 05a4 118A      		std Z+17,__zero_reg__
 1265               	.LM167:
 1266 05a6 128A      		std Z+18,__zero_reg__
 1267 05a8 138A      		std Z+19,__zero_reg__
 1268 05aa 148A      		std Z+20,__zero_reg__
 1269 05ac 158A      		std Z+21,__zero_reg__
 1270               	.LM168:
 1271 05ae 168A      		std Z+22,__zero_reg__
 1272               	/* epilogue start */
 1273               	.LM169:
 1274 05b0 0895      		ret
 1275               	.LFE21:
 1277               	.global	Timebase_Window_Timer_Start
 1279               	Timebase_Window_Timer_Start:
 1280               	.LFB22:
 1281               	.LM170:
 1282               	/* prologue: function */
 1283               	/* frame size = 0 */
 1284               	.LM171:
 1285 05b2 E091 0000 		lds r30,Timebase
 1286 05b6 F091 0000 		lds r31,(Timebase)+1
 1287 05ba 8689      		ldd r24,Z+22
 1288 05bc 8823      		tst r24
 1289 05be 01F4      		brne .L68
 1290               	.LBB595:
 1291               	.LBB596:
 1292               	.LBB597:
 1293               	.LBB598:
 1294               	.LM172:
 1295               	/* #APP */
 1296               	 ;  337 "timebase.c" 1
 1297 05c0 F894      		cli
 1298               	 ;  0 "" 2
 1299               	/* #NOAPP */
 1300               	.LBE598:
 1301               	.LBE597:
 1302               	.LM173:
 1303 05c2 8285      		ldd r24,Z+10
 1304 05c4 9385      		ldd r25,Z+11
 1305 05c6 A485      		ldd r26,Z+12
 1306 05c8 B585      		ldd r27,Z+13
 1307               	.LVL76:
 1308               	.LBB599:
 1309               	.LBB600:
 1310               	.LM174:
 1311               	/* #APP */
 1312               	 ;  341 "timebase.c" 1
 1313 05ca 7894      		sei
 1314               	 ;  0 "" 2
 1315               	/* #NOAPP */
 1316               	.LBE600:
 1317               	.LBE599:
 1318               	.LBE596:
 1319               	.LBE595:
 1320               	.LM175:
 1321 05cc 8687      		std Z+14,r24
 1322 05ce 9787      		std Z+15,r25
 1323 05d0 A08B      		std Z+16,r26
 1324 05d2 B18B      		std Z+17,r27
 1325               	.LBB601:
 1326               	.LBB602:
 1327               	.LBB603:
 1328               	.LBB604:
 1329               	.LM176:
 1330               	/* #APP */
 1331               	 ;  337 "timebase.c" 1
 1332 05d4 F894      		cli
 1333               	 ;  0 "" 2
 1334               	/* #NOAPP */
 1335               	.LBE604:
 1336               	.LBE603:
 1337               	.LM177:
 1338 05d6 8085      		ldd r24,Z+8
 1339 05d8 9185      		ldd r25,Z+9
 1340               	.LVL77:
 1341               	.LBB605:
 1342               	.LBB606:
 1343               	.LM178:
 1344               	/* #APP */
 1345               	 ;  341 "timebase.c" 1
 1346 05da 7894      		sei
 1347               	 ;  0 "" 2
 1348               	/* #NOAPP */
 1349               	.LBE606:
 1350               	.LBE605:
 1351               	.LBE602:
 1352               	.LBE601:
 1353               	.LM179:
 1354 05dc A0E0      		ldi r26,lo8(0)
 1355 05de B0E0      		ldi r27,hi8(0)
 1356               	.LVL78:
 1357 05e0 828B      		std Z+18,r24
 1358 05e2 938B      		std Z+19,r25
 1359 05e4 A48B      		std Z+20,r26
 1360 05e6 B58B      		std Z+21,r27
 1361               	.LM180:
 1362 05e8 81E0      		ldi r24,lo8(1)
 1363               	.LVL79:
 1364 05ea 868B      		std Z+22,r24
 1365               	.L68:
 1366 05ec 0895      		ret
 1367               	.LFE22:
 1369               	.global	Timebase_Window_Timer_Get_Interval
 1371               	Timebase_Window_Timer_Get_Interval:
 1372               	.LFB23:
 1373               	.LM181:
 1374 05ee EF92      		push r14
 1375 05f0 FF92      		push r15
 1376 05f2 0F93      		push r16
 1377 05f4 1F93      		push r17
 1378 05f6 CF93      		push r28
 1379 05f8 DF93      		push r29
 1380               	/* prologue: function */
 1381               	/* frame size = 0 */
 1382               	.LM182:
 1383 05fa C091 0000 		lds r28,Timebase
 1384 05fe D091 0000 		lds r29,(Timebase)+1
 1385 0602 8E89      		ldd r24,Y+22
 1386 0604 8130      		cpi r24,lo8(1)
 1387 0606 01F0      		breq .L70
 1388 0608 EE24      		clr r14
 1389 060a FF24      		clr r15
 1390 060c 8701      		movw r16,r14
 1391               	.LVL80:
 1392 060e 00C0      		rjmp .L71
 1393               	.LVL81:
 1394               	.L70:
 1395               	.LBB607:
 1396               	.LBB608:
 1397               	.LBB609:
 1398               	.LBB610:
 1399               	.LM183:
 1400               	/* #APP */
 1401               	 ;  337 "timebase.c" 1
 1402 0610 F894      		cli
 1403               	 ;  0 "" 2
 1404               	/* #NOAPP */
 1405               	.LBE610:
 1406               	.LBE609:
 1407               	.LM184:
 1408 0612 2A85      		ldd r18,Y+10
 1409 0614 3B85      		ldd r19,Y+11
 1410 0616 4C85      		ldd r20,Y+12
 1411 0618 5D85      		ldd r21,Y+13
 1412               	.LVL82:
 1413               	.LBB611:
 1414               	.LBB612:
 1415               	.LM185:
 1416               	/* #APP */
 1417               	 ;  341 "timebase.c" 1
 1418 061a 7894      		sei
 1419               	 ;  0 "" 2
 1420               	/* #NOAPP */
 1421               	.LBE612:
 1422               	.LBE611:
 1423               	.LBE608:
 1424               	.LBE607:
 1425               	.LBB613:
 1426               	.LBB614:
 1427               	.LBB615:
 1428               	.LBB616:
 1429               	.LM186:
 1430               	/* #APP */
 1431               	 ;  337 "timebase.c" 1
 1432 061c F894      		cli
 1433               	 ;  0 "" 2
 1434               	/* #NOAPP */
 1435               	.LBE616:
 1436               	.LBE615:
 1437               	.LM187:
 1438 061e 8885      		ldd r24,Y+8
 1439 0620 9985      		ldd r25,Y+9
 1440               	.LVL83:
 1441               	.LBB617:
 1442               	.LBB618:
 1443               	.LM188:
 1444               	/* #APP */
 1445               	 ;  341 "timebase.c" 1
 1446 0622 7894      		sei
 1447               	 ;  0 "" 2
 1448               	/* #NOAPP */
 1449               	.LBE618:
 1450               	.LBE617:
 1451               	.LBE614:
 1452               	.LBE613:
 1453               	.LM189:
 1454 0624 7C01      		movw r14,r24
 1455               	.LVL84:
 1456 0626 00E0      		ldi r16,lo8(0)
 1457 0628 10E0      		ldi r17,hi8(0)
 1458               	.LVL85:
 1459               	.LM190:
 1460 062a 8E85      		ldd r24,Y+14
 1461 062c 9F85      		ldd r25,Y+15
 1462 062e A889      		ldd r26,Y+16
 1463 0630 B989      		ldd r27,Y+17
 1464               	.LVL86:
 1465 0632 281B      		sub r18,r24
 1466 0634 390B      		sbc r19,r25
 1467 0636 4A0B      		sbc r20,r26
 1468 0638 5B0B      		sbc r21,r27
 1469               	.LVL87:
 1470               	.LM191:
 1471 063a 6981      		ldd r22,Y+1
 1472 063c 7A81      		ldd r23,Y+2
 1473 063e 80E0      		ldi r24,lo8(0)
 1474 0640 90E0      		ldi r25,hi8(0)
 1475 0642 0E94 0000 		call __mulsi3
 1476               	.LVL88:
 1477               	.LM192:
 1478 0646 2A89      		ldd r18,Y+18
 1479 0648 3B89      		ldd r19,Y+19
 1480 064a 4C89      		ldd r20,Y+20
 1481 064c 5D89      		ldd r21,Y+21
 1482 064e E21A      		sub r14,r18
 1483 0650 F30A      		sbc r15,r19
 1484 0652 040B      		sbc r16,r20
 1485 0654 150B      		sbc r17,r21
 1486               	.LVL89:
 1487 0656 E60E      		add r14,r22
 1488 0658 F71E      		adc r15,r23
 1489 065a 081F      		adc r16,r24
 1490 065c 191F      		adc r17,r25
 1491               	.L71:
 1492               	.LM193:
 1493 065e B701      		movw r22,r14
 1494               	.LVL90:
 1495 0660 C801      		movw r24,r16
 1496               	.LVL91:
 1497               	/* epilogue start */
 1498 0662 DF91      		pop r29
 1499 0664 CF91      		pop r28
 1500 0666 1F91      		pop r17
 1501 0668 0F91      		pop r16
 1502 066a FF90      		pop r15
 1503 066c EF90      		pop r14
 1504 066e 0895      		ret
 1505               	.LFE23:
 1507               	.global	Timebase_Window_Timer_Get_Interval_Reset
 1509               	Timebase_Window_Timer_Get_Interval_Reset:
 1510               	.LFB24:
 1511               	.LM194:
 1512               	/* prologue: function */
 1513               	/* frame size = 0 */
 1514               	.LM195:
 1515 0670 0E94 0000 		call Timebase_Window_Timer_Get_Interval
 1516 0674 282F      		mov r18,r24
 1517               	.LVL92:
 1518               	.LM196:
 1519 0676 E091 0000 		lds r30,Timebase
 1520 067a F091 0000 		lds r31,(Timebase)+1
 1521 067e 8689      		ldd r24,Z+22
 1522 0680 8130      		cpi r24,lo8(1)
 1523 0682 01F4      		brne .L74
 1524               	.LBB619:
 1525               	.LBB620:
 1526               	.LM197:
 1527 0684 1686      		std Z+14,__zero_reg__
 1528 0686 1786      		std Z+15,__zero_reg__
 1529 0688 108A      		std Z+16,__zero_reg__
 1530 068a 118A      		std Z+17,__zero_reg__
 1531               	.LM198:
 1532 068c 128A      		std Z+18,__zero_reg__
 1533 068e 138A      		std Z+19,__zero_reg__
 1534 0690 148A      		std Z+20,__zero_reg__
 1535 0692 158A      		std Z+21,__zero_reg__
 1536               	.LM199:
 1537 0694 168A      		std Z+22,__zero_reg__
 1538               	.L74:
 1539               	.LBE620:
 1540               	.LBE619:
 1541               	.LM200:
 1542 0696 822F      		mov r24,r18
 1543               	/* epilogue start */
 1544 0698 0895      		ret
 1545               	.LFE24:
 1547               	.global	Timebase_UpCounter_Get_Status
 1549               	Timebase_UpCounter_Get_Status:
 1550               	.LFB25:
 1551               	.LM201:
 1552               	.LVL93:
 1553               	/* prologue: function */
 1554               	/* frame size = 0 */
 1555               	.LM202:
 1556 069a E091 0000 		lds r30,Timebase
 1557 069e F091 0000 		lds r31,(Timebase)+1
 1558 06a2 90E0      		ldi r25,lo8(0)
 1559               	.LVL94:
 1560 06a4 25E1      		ldi r18,lo8(21)
 1561 06a6 30E0      		ldi r19,hi8(21)
 1562 06a8 AC01      		movw r20,r24
 1563 06aa 429F      		mul r20,r18
 1564 06ac C001      		movw r24,r0
 1565 06ae 439F      		mul r20,r19
 1566 06b0 900D      		add r25,r0
 1567 06b2 529F      		mul r21,r18
 1568 06b4 900D      		add r25,r0
 1569 06b6 1124      		clr r1
 1570               	.LVL95:
 1571 06b8 E80F      		add r30,r24
 1572 06ba F91F      		adc r31,r25
 1573 06bc 82A9      		ldd r24,Z+50
 1574 06be 8695      		lsr r24
 1575               	.LM203:
 1576 06c0 8F70      		andi r24,lo8(15)
 1577               	/* epilogue start */
 1578 06c2 0895      		ret
 1579               	.LFE25:
 1581               	.global	Timebase_UpCounter_Set_Status
 1583               	Timebase_UpCounter_Set_Status:
 1584               	.LFB26:
 1585               	.LM204:
 1586               	.LVL96:
 1587               	/* prologue: function */
 1588               	/* frame size = 0 */
 1589               	.LM205:
 1590 06c4 E091 0000 		lds r30,Timebase
 1591 06c8 F091 0000 		lds r31,(Timebase)+1
 1592 06cc 90E0      		ldi r25,lo8(0)
 1593               	.LVL97:
 1594 06ce 25E1      		ldi r18,lo8(21)
 1595 06d0 30E0      		ldi r19,hi8(21)
 1596 06d2 AC01      		movw r20,r24
 1597 06d4 429F      		mul r20,r18
 1598 06d6 C001      		movw r24,r0
 1599 06d8 439F      		mul r20,r19
 1600 06da 900D      		add r25,r0
 1601 06dc 529F      		mul r21,r18
 1602 06de 900D      		add r25,r0
 1603 06e0 1124      		clr r1
 1604               	.LVL98:
 1605 06e2 E80F      		add r30,r24
 1606 06e4 F91F      		adc r31,r25
 1607 06e6 6F70      		andi r22,lo8(15)
 1608               	.LVL99:
 1609 06e8 660F      		lsl r22
 1610 06ea 82A9      		ldd r24,Z+50
 1611 06ec 817E      		andi r24,lo8(-31)
 1612 06ee 862B      		or r24,r22
 1613 06f0 82AB      		std Z+50,r24
 1614               	/* epilogue start */
 1615               	.LM206:
 1616 06f2 0895      		ret
 1617               	.LFE26:
 1619               	.global	Timebase_UpCounter_Get_Value
 1621               	Timebase_UpCounter_Get_Value:
 1622               	.LFB27:
 1623               	.LM207:
 1624               	.LVL100:
 1625               	/* prologue: function */
 1626               	/* frame size = 0 */
 1627               	.LM208:
 1628 06f4 E091 0000 		lds r30,Timebase
 1629 06f8 F091 0000 		lds r31,(Timebase)+1
 1630 06fc 90E0      		ldi r25,lo8(0)
 1631               	.LVL101:
 1632 06fe 25E1      		ldi r18,lo8(21)
 1633 0700 30E0      		ldi r19,hi8(21)
 1634 0702 AC01      		movw r20,r24
 1635 0704 429F      		mul r20,r18
 1636 0706 C001      		movw r24,r0
 1637 0708 439F      		mul r20,r19
 1638 070a 900D      		add r25,r0
 1639 070c 529F      		mul r21,r18
 1640 070e 900D      		add r25,r0
 1641 0710 1124      		clr r1
 1642               	.LVL102:
 1643 0712 E80F      		add r30,r24
 1644 0714 F91F      		adc r31,r25
 1645 0716 FF96      		adiw r30,63
 1646 0718 6081      		ld r22,Z
 1647 071a 7181      		ldd r23,Z+1
 1648               	.LM209:
 1649 071c 8281      		ldd r24,Z+2
 1650 071e 9381      		ldd r25,Z+3
 1651               	.LVL103:
 1652               	/* epilogue start */
 1653 0720 0895      		ret
 1654               	.LFE27:
 1656               	.global	Timebase_UpCounter_Set_Value
 1658               	Timebase_UpCounter_Set_Value:
 1659               	.LFB28:
 1660               	.LM210:
 1661               	.LVL104:
 1662               	/* prologue: function */
 1663               	/* frame size = 0 */
 1664               	.LM211:
 1665 0722 E091 0000 		lds r30,Timebase
 1666 0726 F091 0000 		lds r31,(Timebase)+1
 1667 072a 90E0      		ldi r25,lo8(0)
 1668               	.LVL105:
 1669 072c 25E1      		ldi r18,lo8(21)
 1670 072e 30E0      		ldi r19,hi8(21)
 1671 0730 DC01      		movw r26,r24
 1672 0732 A29F      		mul r26,r18
 1673 0734 C001      		movw r24,r0
 1674 0736 A39F      		mul r26,r19
 1675 0738 900D      		add r25,r0
 1676 073a B29F      		mul r27,r18
 1677 073c 900D      		add r25,r0
 1678 073e 1124      		clr r1
 1679               	.LVL106:
 1680 0740 E80F      		add r30,r24
 1681 0742 F91F      		adc r31,r25
 1682 0744 FF96      		adiw r30,63
 1683 0746 4083      		st Z,r20
 1684 0748 5183      		std Z+1,r21
 1685 074a 6283      		std Z+2,r22
 1686 074c 7383      		std Z+3,r23
 1687               	/* epilogue start */
 1688               	.LM212:
 1689 074e 0895      		ret
 1690               	.LFE28:
 1692               	.global	Timebase_UpCounter_Get_EndValue
 1694               	Timebase_UpCounter_Get_EndValue:
 1695               	.LFB29:
 1696               	.LM213:
 1697               	.LVL107:
 1698               	/* prologue: function */
 1699               	/* frame size = 0 */
 1700               	.LM214:
 1701 0750 E091 0000 		lds r30,Timebase
 1702 0754 F091 0000 		lds r31,(Timebase)+1
 1703 0758 90E0      		ldi r25,lo8(0)
 1704               	.LVL108:
 1705 075a 25E1      		ldi r18,lo8(21)
 1706 075c 30E0      		ldi r19,hi8(21)
 1707 075e AC01      		movw r20,r24
 1708 0760 429F      		mul r20,r18
 1709 0762 C001      		movw r24,r0
 1710 0764 439F      		mul r20,r19
 1711 0766 900D      		add r25,r0
 1712 0768 529F      		mul r21,r18
 1713 076a 900D      		add r25,r0
 1714 076c 1124      		clr r1
 1715               	.LVL109:
 1716 076e E80F      		add r30,r24
 1717 0770 F91F      		adc r31,r25
 1718 0772 DF01      		movw r26,r30
 1719 0774 D396      		adiw r26,51
 1720 0776 63A9      		ldd r22,Z+51
 1721 0778 1196      		adiw r26,1
 1722 077a 7C91      		ld r23,X
 1723 077c 1197      		sbiw r26,1
 1724               	.LM215:
 1725 077e 1296      		adiw r26,2
 1726 0780 8C91      		ld r24,X
 1727 0782 1297      		sbiw r26,2
 1728 0784 1396      		adiw r26,3
 1729 0786 9C91      		ld r25,X
 1730               	.LVL110:
 1731               	/* epilogue start */
 1732 0788 0895      		ret
 1733               	.LFE29:
 1735               	.global	Timebase_UpCounter_Set_EndValue
 1737               	Timebase_UpCounter_Set_EndValue:
 1738               	.LFB30:
 1739               	.LM216:
 1740               	.LVL111:
 1741               	/* prologue: function */
 1742               	/* frame size = 0 */
 1743               	.LM217:
 1744 078a E091 0000 		lds r30,Timebase
 1745 078e F091 0000 		lds r31,(Timebase)+1
 1746 0792 90E0      		ldi r25,lo8(0)
 1747               	.LVL112:
 1748 0794 25E1      		ldi r18,lo8(21)
 1749 0796 30E0      		ldi r19,hi8(21)
 1750 0798 DC01      		movw r26,r24
 1751 079a A29F      		mul r26,r18
 1752 079c C001      		movw r24,r0
 1753 079e A39F      		mul r26,r19
 1754 07a0 900D      		add r25,r0
 1755 07a2 B29F      		mul r27,r18
 1756 07a4 900D      		add r25,r0
 1757 07a6 1124      		clr r1
 1758               	.LVL113:
 1759 07a8 E80F      		add r30,r24
 1760 07aa F91F      		adc r31,r25
 1761 07ac 43AB      		std Z+51,r20
 1762 07ae 54AB      		std Z+52,r21
 1763 07b0 65AB      		std Z+53,r22
 1764 07b2 76AB      		std Z+54,r23
 1765               	/* epilogue start */
 1766               	.LM218:
 1767 07b4 0895      		ret
 1768               	.LFE30:
 1770               	.global	Timebase_UpCounter_Get_TargetValue
 1772               	Timebase_UpCounter_Get_TargetValue:
 1773               	.LFB31:
 1774               	.LM219:
 1775               	.LVL114:
 1776               	/* prologue: function */
 1777               	/* frame size = 0 */
 1778               	.LM220:
 1779 07b6 E091 0000 		lds r30,Timebase
 1780 07ba F091 0000 		lds r31,(Timebase)+1
 1781 07be 90E0      		ldi r25,lo8(0)
 1782               	.LVL115:
 1783 07c0 25E1      		ldi r18,lo8(21)
 1784 07c2 30E0      		ldi r19,hi8(21)
 1785 07c4 AC01      		movw r20,r24
 1786 07c6 429F      		mul r20,r18
 1787 07c8 C001      		movw r24,r0
 1788 07ca 439F      		mul r20,r19
 1789 07cc 900D      		add r25,r0
 1790 07ce 529F      		mul r21,r18
 1791 07d0 900D      		add r25,r0
 1792 07d2 1124      		clr r1
 1793               	.LVL116:
 1794 07d4 E80F      		add r30,r24
 1795 07d6 F91F      		adc r31,r25
 1796 07d8 DF01      		movw r26,r30
 1797 07da D796      		adiw r26,55
 1798 07dc 67A9      		ldd r22,Z+55
 1799 07de 1196      		adiw r26,1
 1800 07e0 7C91      		ld r23,X
 1801 07e2 1197      		sbiw r26,1
 1802               	.LM221:
 1803 07e4 1296      		adiw r26,2
 1804 07e6 8C91      		ld r24,X
 1805 07e8 1297      		sbiw r26,2
 1806 07ea 1396      		adiw r26,3
 1807 07ec 9C91      		ld r25,X
 1808               	.LVL117:
 1809               	/* epilogue start */
 1810 07ee 0895      		ret
 1811               	.LFE31:
 1813               	.global	Timebase_UpCounter_Set_TargetValue
 1815               	Timebase_UpCounter_Set_TargetValue:
 1816               	.LFB32:
 1817               	.LM222:
 1818               	.LVL118:
 1819               	/* prologue: function */
 1820               	/* frame size = 0 */
 1821               	.LM223:
 1822 07f0 E091 0000 		lds r30,Timebase
 1823 07f4 F091 0000 		lds r31,(Timebase)+1
 1824 07f8 90E0      		ldi r25,lo8(0)
 1825               	.LVL119:
 1826 07fa 25E1      		ldi r18,lo8(21)
 1827 07fc 30E0      		ldi r19,hi8(21)
 1828 07fe DC01      		movw r26,r24
 1829 0800 A29F      		mul r26,r18
 1830 0802 C001      		movw r24,r0
 1831 0804 A39F      		mul r26,r19
 1832 0806 900D      		add r25,r0
 1833 0808 B29F      		mul r27,r18
 1834 080a 900D      		add r25,r0
 1835 080c 1124      		clr r1
 1836               	.LVL120:
 1837 080e E80F      		add r30,r24
 1838 0810 F91F      		adc r31,r25
 1839 0812 47AB      		std Z+55,r20
 1840 0814 50AF      		std Z+56,r21
 1841 0816 61AF      		std Z+57,r22
 1842 0818 72AF      		std Z+58,r23
 1843               	/* epilogue start */
 1844               	.LM224:
 1845 081a 0895      		ret
 1846               	.LFE32:
 1848               	.global	Timebase_UpCounter_Get_TemporaryValue
 1850               	Timebase_UpCounter_Get_TemporaryValue:
 1851               	.LFB33:
 1852               	.LM225:
 1853               	.LVL121:
 1854               	/* prologue: function */
 1855               	/* frame size = 0 */
 1856               	.LM226:
 1857 081c E091 0000 		lds r30,Timebase
 1858 0820 F091 0000 		lds r31,(Timebase)+1
 1859 0824 90E0      		ldi r25,lo8(0)
 1860               	.LVL122:
 1861 0826 25E1      		ldi r18,lo8(21)
 1862 0828 30E0      		ldi r19,hi8(21)
 1863 082a AC01      		movw r20,r24
 1864 082c 429F      		mul r20,r18
 1865 082e C001      		movw r24,r0
 1866 0830 439F      		mul r20,r19
 1867 0832 900D      		add r25,r0
 1868 0834 529F      		mul r21,r18
 1869 0836 900D      		add r25,r0
 1870 0838 1124      		clr r1
 1871               	.LVL123:
 1872 083a E80F      		add r30,r24
 1873 083c F91F      		adc r31,r25
 1874 083e DF01      		movw r26,r30
 1875 0840 DB96      		adiw r26,59
 1876 0842 63AD      		ldd r22,Z+59
 1877 0844 1196      		adiw r26,1
 1878 0846 7C91      		ld r23,X
 1879 0848 1197      		sbiw r26,1
 1880               	.LM227:
 1881 084a 1296      		adiw r26,2
 1882 084c 8C91      		ld r24,X
 1883 084e 1297      		sbiw r26,2
 1884 0850 1396      		adiw r26,3
 1885 0852 9C91      		ld r25,X
 1886               	.LVL124:
 1887               	/* epilogue start */
 1888 0854 0895      		ret
 1889               	.LFE33:
 1891               	.global	Timebase_UpCounter_Set_TemporaryValue
 1893               	Timebase_UpCounter_Set_TemporaryValue:
 1894               	.LFB34:
 1895               	.LM228:
 1896               	.LVL125:
 1897               	/* prologue: function */
 1898               	/* frame size = 0 */
 1899               	.LM229:
 1900 0856 E091 0000 		lds r30,Timebase
 1901 085a F091 0000 		lds r31,(Timebase)+1
 1902 085e 90E0      		ldi r25,lo8(0)
 1903               	.LVL126:
 1904 0860 25E1      		ldi r18,lo8(21)
 1905 0862 30E0      		ldi r19,hi8(21)
 1906 0864 DC01      		movw r26,r24
 1907 0866 A29F      		mul r26,r18
 1908 0868 C001      		movw r24,r0
 1909 086a A39F      		mul r26,r19
 1910 086c 900D      		add r25,r0
 1911 086e B29F      		mul r27,r18
 1912 0870 900D      		add r25,r0
 1913 0872 1124      		clr r1
 1914               	.LVL127:
 1915 0874 E80F      		add r30,r24
 1916 0876 F91F      		adc r31,r25
 1917 0878 43AF      		std Z+59,r20
 1918 087a 54AF      		std Z+60,r21
 1919 087c 65AF      		std Z+61,r22
 1920 087e 76AF      		std Z+62,r23
 1921               	/* epilogue start */
 1922               	.LM230:
 1923 0880 0895      		ret
 1924               	.LFE34:
 1926               	.global	Timebase_UpCounter_Get_PeriodValue
 1928               	Timebase_UpCounter_Get_PeriodValue:
 1929               	.LFB35:
 1930               	.LM231:
 1931               	.LVL128:
 1932               	/* prologue: function */
 1933               	/* frame size = 0 */
 1934               	.LM232:
 1935 0882 E091 0000 		lds r30,Timebase
 1936 0886 F091 0000 		lds r31,(Timebase)+1
 1937 088a 90E0      		ldi r25,lo8(0)
 1938               	.LVL129:
 1939 088c 25E1      		ldi r18,lo8(21)
 1940 088e 30E0      		ldi r19,hi8(21)
 1941 0890 AC01      		movw r20,r24
 1942 0892 429F      		mul r20,r18
 1943 0894 C001      		movw r24,r0
 1944 0896 439F      		mul r20,r19
 1945 0898 900D      		add r25,r0
 1946 089a 529F      		mul r21,r18
 1947 089c 900D      		add r25,r0
 1948 089e 1124      		clr r1
 1949               	.LVL130:
 1950 08a0 E80F      		add r30,r24
 1951 08a2 F91F      		adc r31,r25
 1952 08a4 ED5B      		subi r30,lo8(-(67))
 1953 08a6 FF4F      		sbci r31,hi8(-(67))
 1954 08a8 6081      		ld r22,Z
 1955 08aa 7181      		ldd r23,Z+1
 1956               	.LM233:
 1957 08ac 8281      		ldd r24,Z+2
 1958 08ae 9381      		ldd r25,Z+3
 1959               	.LVL131:
 1960               	/* epilogue start */
 1961 08b0 0895      		ret
 1962               	.LFE35:
 1964               	.global	Timebase_UpCounter_Set_PeriodValue
 1966               	Timebase_UpCounter_Set_PeriodValue:
 1967               	.LFB36:
 1968               	.LM234:
 1969               	.LVL132:
 1970               	/* prologue: function */
 1971               	/* frame size = 0 */
 1972               	.LM235:
 1973 08b2 E091 0000 		lds r30,Timebase
 1974 08b6 F091 0000 		lds r31,(Timebase)+1
 1975 08ba 90E0      		ldi r25,lo8(0)
 1976               	.LVL133:
 1977 08bc 25E1      		ldi r18,lo8(21)
 1978 08be 30E0      		ldi r19,hi8(21)
 1979 08c0 DC01      		movw r26,r24
 1980 08c2 A29F      		mul r26,r18
 1981 08c4 C001      		movw r24,r0
 1982 08c6 A39F      		mul r26,r19
 1983 08c8 900D      		add r25,r0
 1984 08ca B29F      		mul r27,r18
 1985 08cc 900D      		add r25,r0
 1986 08ce 1124      		clr r1
 1987               	.LVL134:
 1988 08d0 E80F      		add r30,r24
 1989 08d2 F91F      		adc r31,r25
 1990 08d4 ED5B      		subi r30,lo8(-(67))
 1991 08d6 FF4F      		sbci r31,hi8(-(67))
 1992 08d8 4083      		st Z,r20
 1993 08da 5183      		std Z+1,r21
 1994 08dc 6283      		std Z+2,r22
 1995 08de 7383      		std Z+3,r23
 1996               	/* epilogue start */
 1997               	.LM236:
 1998 08e0 0895      		ret
 1999               	.LFE36:
 2001               	.global	Timebase_UpCounter_Get_Period_Flag
 2003               	Timebase_UpCounter_Get_Period_Flag:
 2004               	.LFB37:
 2005               	.LM237:
 2006               	.LVL135:
 2007               	/* prologue: function */
 2008               	/* frame size = 0 */
 2009               	.LM238:
 2010 08e2 E091 0000 		lds r30,Timebase
 2011 08e6 F091 0000 		lds r31,(Timebase)+1
 2012 08ea 90E0      		ldi r25,lo8(0)
 2013               	.LVL136:
 2014 08ec 25E1      		ldi r18,lo8(21)
 2015 08ee 30E0      		ldi r19,hi8(21)
 2016 08f0 AC01      		movw r20,r24
 2017 08f2 429F      		mul r20,r18
 2018 08f4 C001      		movw r24,r0
 2019 08f6 439F      		mul r20,r19
 2020 08f8 900D      		add r25,r0
 2021 08fa 529F      		mul r21,r18
 2022 08fc 900D      		add r25,r0
 2023 08fe 1124      		clr r1
 2024               	.LVL137:
 2025 0900 E80F      		add r30,r24
 2026 0902 F91F      		adc r31,r25
 2027 0904 82A9      		ldd r24,Z+50
 2028               	.LM239:
 2029 0906 8170      		andi r24,lo8(1)
 2030               	/* epilogue start */
 2031 0908 0895      		ret
 2032               	.LFE37:
 2034               	.global	Timebase_UpCounter_Set_Period_Flag
 2036               	Timebase_UpCounter_Set_Period_Flag:
 2037               	.LFB38:
 2038               	.LM240:
 2039               	.LVL138:
 2040               	/* prologue: function */
 2041               	/* frame size = 0 */
 2042               	.LM241:
 2043 090a E091 0000 		lds r30,Timebase
 2044 090e F091 0000 		lds r31,(Timebase)+1
 2045 0912 90E0      		ldi r25,lo8(0)
 2046               	.LVL139:
 2047 0914 25E1      		ldi r18,lo8(21)
 2048 0916 30E0      		ldi r19,hi8(21)
 2049 0918 AC01      		movw r20,r24
 2050 091a 429F      		mul r20,r18
 2051 091c C001      		movw r24,r0
 2052 091e 439F      		mul r20,r19
 2053 0920 900D      		add r25,r0
 2054 0922 529F      		mul r21,r18
 2055 0924 900D      		add r25,r0
 2056 0926 1124      		clr r1
 2057               	.LVL140:
 2058 0928 E80F      		add r30,r24
 2059 092a F91F      		adc r31,r25
 2060 092c 82A9      		ldd r24,Z+50
 2061 092e 8160      		ori r24,lo8(1)
 2062 0930 82AB      		std Z+50,r24
 2063               	/* epilogue start */
 2064               	.LM242:
 2065 0932 0895      		ret
 2066               	.LFE38:
 2068               	.global	Timebase_UpCounter_Clear_Period_Flag
 2070               	Timebase_UpCounter_Clear_Period_Flag:
 2071               	.LFB39:
 2072               	.LM243:
 2073               	.LVL141:
 2074               	/* prologue: function */
 2075               	/* frame size = 0 */
 2076               	.LM244:
 2077 0934 E091 0000 		lds r30,Timebase
 2078 0938 F091 0000 		lds r31,(Timebase)+1
 2079 093c 90E0      		ldi r25,lo8(0)
 2080               	.LVL142:
 2081 093e 25E1      		ldi r18,lo8(21)
 2082 0940 30E0      		ldi r19,hi8(21)
 2083 0942 AC01      		movw r20,r24
 2084 0944 429F      		mul r20,r18
 2085 0946 C001      		movw r24,r0
 2086 0948 439F      		mul r20,r19
 2087 094a 900D      		add r25,r0
 2088 094c 529F      		mul r21,r18
 2089 094e 900D      		add r25,r0
 2090 0950 1124      		clr r1
 2091               	.LVL143:
 2092 0952 E80F      		add r30,r24
 2093 0954 F91F      		adc r31,r25
 2094 0956 82A9      		ldd r24,Z+50
 2095 0958 8E7F      		andi r24,lo8(-2)
 2096 095a 82AB      		std Z+50,r24
 2097               	/* epilogue start */
 2098               	.LM245:
 2099 095c 0895      		ret
 2100               	.LFE39:
 2102               	.global	Timebase_UpCounter_Reset
 2104               	Timebase_UpCounter_Reset:
 2105               	.LFB40:
 2106               	.LM246:
 2107               	.LVL144:
 2108               	/* prologue: function */
 2109               	/* frame size = 0 */
 2110               	.LBB621:
 2111               	.LBB622:
 2112               	.LM247:
 2113 095e E091 0000 		lds r30,Timebase
 2114 0962 F091 0000 		lds r31,(Timebase)+1
 2115 0966 90E0      		ldi r25,lo8(0)
 2116 0968 25E1      		ldi r18,lo8(21)
 2117 096a 30E0      		ldi r19,hi8(21)
 2118 096c AC01      		movw r20,r24
 2119               	.LVL145:
 2120 096e 429F      		mul r20,r18
 2121 0970 C001      		movw r24,r0
 2122 0972 439F      		mul r20,r19
 2123 0974 900D      		add r25,r0
 2124 0976 529F      		mul r21,r18
 2125 0978 900D      		add r25,r0
 2126 097a 1124      		clr r1
 2127 097c E80F      		add r30,r24
 2128 097e F91F      		adc r31,r25
 2129 0980 82A9      		ldd r24,Z+50
 2130               	.LBE622:
 2131               	.LBE621:
 2132               	.LBB623:
 2133               	.LBB624:
 2134               	.LM248:
 2135 0982 FF96      		adiw r30,63
 2136 0984 1082      		st Z,__zero_reg__
 2137 0986 1182      		std Z+1,__zero_reg__
 2138 0988 1282      		std Z+2,__zero_reg__
 2139 098a 1382      		std Z+3,__zero_reg__
 2140 098c FF97      		sbiw r30,63
 2141               	.LBE624:
 2142               	.LBE623:
 2143               	.LBB625:
 2144               	.LBB626:
 2145               	.LM249:
 2146 098e 13AA      		std Z+51,__zero_reg__
 2147 0990 14AA      		std Z+52,__zero_reg__
 2148 0992 15AA      		std Z+53,__zero_reg__
 2149 0994 16AA      		std Z+54,__zero_reg__
 2150               	.LBE626:
 2151               	.LBE625:
 2152               	.LBB627:
 2153               	.LBB628:
 2154               	.LM250:
 2155 0996 17AA      		std Z+55,__zero_reg__
 2156 0998 10AE      		std Z+56,__zero_reg__
 2157 099a 11AE      		std Z+57,__zero_reg__
 2158 099c 12AE      		std Z+58,__zero_reg__
 2159               	.LBE628:
 2160               	.LBE627:
 2161               	.LBB629:
 2162               	.LBB630:
 2163               	.LM251:
 2164 099e 13AE      		std Z+59,__zero_reg__
 2165 09a0 14AE      		std Z+60,__zero_reg__
 2166 09a2 15AE      		std Z+61,__zero_reg__
 2167 09a4 16AE      		std Z+62,__zero_reg__
 2168               	.LBE630:
 2169               	.LBE629:
 2170               	.LBB631:
 2171               	.LBB632:
 2172               	.LM252:
 2173 09a6 ED5B      		subi r30,lo8(-(67))
 2174 09a8 FF4F      		sbci r31,hi8(-(67))
 2175 09aa 1082      		st Z,__zero_reg__
 2176 09ac 1182      		std Z+1,__zero_reg__
 2177 09ae 1282      		std Z+2,__zero_reg__
 2178 09b0 1382      		std Z+3,__zero_reg__
 2179 09b2 E354      		subi r30,lo8(-(-67))
 2180 09b4 F040      		sbci r31,hi8(-(-67))
 2181               	.LBE632:
 2182               	.LBE631:
 2183               	.LBB633:
 2184               	.LBB634:
 2185               	.LM253:
 2186 09b6 807E      		andi r24,lo8(-32)
 2187 09b8 82AB      		std Z+50,r24
 2188               	/* epilogue start */
 2189               	.LBE634:
 2190               	.LBE633:
 2191               	.LM254:
 2192 09ba 0895      		ret
 2193               	.LFE40:
 2195               	.global	Timebase_UpCounter_Clear_All_Flags
 2197               	Timebase_UpCounter_Clear_All_Flags:
 2198               	.LFB41:
 2199               	.LM255:
 2200               	.LVL146:
 2201               	/* prologue: function */
 2202               	/* frame size = 0 */
 2203               	.LM256:
 2204 09bc 0E94 0000 		call Timebase_UpCounter_Reset
 2205               	.LVL147:
 2206               	/* epilogue start */
 2207               	.LM257:
 2208 09c0 0895      		ret
 2209               	.LFE41:
 2211               	.global	Timebase_UpCounter_Start
 2213               	Timebase_UpCounter_Start:
 2214               	.LFB42:
 2215               	.LM258:
 2216               	.LVL148:
 2217               	/* prologue: function */
 2218               	/* frame size = 0 */
 2219               	.LBB635:
 2220               	.LBB636:
 2221               	.LM259:
 2222 09c2 E091 0000 		lds r30,Timebase
 2223 09c6 F091 0000 		lds r31,(Timebase)+1
 2224 09ca 90E0      		ldi r25,lo8(0)
 2225               	.LBE636:
 2226               	.LBE635:
 2227               	.LM260:
 2228 09cc 25E1      		ldi r18,lo8(21)
 2229 09ce 30E0      		ldi r19,hi8(21)
 2230 09d0 AC01      		movw r20,r24
 2231               	.LVL149:
 2232 09d2 429F      		mul r20,r18
 2233 09d4 C001      		movw r24,r0
 2234 09d6 439F      		mul r20,r19
 2235 09d8 900D      		add r25,r0
 2236 09da 529F      		mul r21,r18
 2237 09dc 900D      		add r25,r0
 2238 09de 1124      		clr r1
 2239 09e0 E80F      		add r30,r24
 2240 09e2 F91F      		adc r31,r25
 2241 09e4 92A9      		ldd r25,Z+50
 2242 09e6 892F      		mov r24,r25
 2243 09e8 8695      		lsr r24
 2244 09ea 8F70      		andi r24,lo8(15)
 2245 09ec 8130      		cpi r24,lo8(1)
 2246 09ee 01F0      		breq .L112
 2247               	.LBB637:
 2248               	.LBB638:
 2249               	.LM261:
 2250 09f0 917E      		andi r25,lo8(-31)
 2251 09f2 9260      		ori r25,lo8(2)
 2252 09f4 92AB      		std Z+50,r25
 2253               	.L112:
 2254 09f6 0895      		ret
 2255               	.LBE638:
 2256               	.LBE637:
 2257               	.LFE42:
 2259               	.global	Timebase_UpCounter_Stop
 2261               	Timebase_UpCounter_Stop:
 2262               	.LFB43:
 2263               	.LM262:
 2264               	.LVL150:
 2265               	/* prologue: function */
 2266               	/* frame size = 0 */
 2267               	.LBB639:
 2268               	.LBB640:
 2269               	.LM263:
 2270 09f8 E091 0000 		lds r30,Timebase
 2271 09fc F091 0000 		lds r31,(Timebase)+1
 2272 0a00 90E0      		ldi r25,lo8(0)
 2273               	.LBE640:
 2274               	.LBE639:
 2275               	.LM264:
 2276 0a02 25E1      		ldi r18,lo8(21)
 2277 0a04 30E0      		ldi r19,hi8(21)
 2278 0a06 AC01      		movw r20,r24
 2279               	.LVL151:
 2280 0a08 429F      		mul r20,r18
 2281 0a0a C001      		movw r24,r0
 2282 0a0c 439F      		mul r20,r19
 2283 0a0e 900D      		add r25,r0
 2284 0a10 529F      		mul r21,r18
 2285 0a12 900D      		add r25,r0
 2286 0a14 1124      		clr r1
 2287 0a16 E80F      		add r30,r24
 2288 0a18 F91F      		adc r31,r25
 2289 0a1a 92A9      		ldd r25,Z+50
 2290 0a1c 892F      		mov r24,r25
 2291 0a1e 8695      		lsr r24
 2292 0a20 8F70      		andi r24,lo8(15)
 2293 0a22 8230      		cpi r24,lo8(2)
 2294 0a24 01F0      		breq .L115
 2295               	.LBB641:
 2296               	.LBB642:
 2297               	.LM265:
 2298 0a26 917E      		andi r25,lo8(-31)
 2299 0a28 9460      		ori r25,lo8(4)
 2300 0a2a 92AB      		std Z+50,r25
 2301               	.L115:
 2302 0a2c 0895      		ret
 2303               	.LBE642:
 2304               	.LBE641:
 2305               	.LFE43:
 2307               	.global	Timebase_UpCounter_Set_Securely
 2309               	Timebase_UpCounter_Set_Securely:
 2310               	.LFB44:
 2311               	.LM266:
 2312               	.LVL152:
 2313 0a2e 0F93      		push r16
 2314 0a30 1F93      		push r17
 2315 0a32 CF93      		push r28
 2316 0a34 DF93      		push r29
 2317               	/* prologue: function */
 2318               	/* frame size = 0 */
 2319               	.LBB643:
 2320               	.LBB644:
 2321               	.LM267:
 2322 0a36 C091 0000 		lds r28,Timebase
 2323 0a3a D091 0000 		lds r29,(Timebase)+1
 2324 0a3e 082F      		mov r16,r24
 2325 0a40 10E0      		ldi r17,lo8(0)
 2326               	.LBE644:
 2327               	.LBE643:
 2328               	.LM268:
 2329 0a42 85E1      		ldi r24,lo8(21)
 2330 0a44 90E0      		ldi r25,hi8(21)
 2331               	.LVL153:
 2332 0a46 089F      		mul r16,r24
 2333 0a48 F001      		movw r30,r0
 2334 0a4a 099F      		mul r16,r25
 2335 0a4c F00D      		add r31,r0
 2336 0a4e 189F      		mul r17,r24
 2337 0a50 F00D      		add r31,r0
 2338 0a52 1124      		clr r1
 2339 0a54 EC0F      		add r30,r28
 2340 0a56 FD1F      		adc r31,r29
 2341 0a58 82A9      		ldd r24,Z+50
 2342 0a5a 8695      		lsr r24
 2343 0a5c 8F70      		andi r24,lo8(15)
 2344 0a5e 01F4      		brne .L118
 2345               	.LBB645:
 2346               	.LBB646:
 2347               	.LM269:
 2348 0a60 FF96      		adiw r30,63
 2349 0a62 1082      		st Z,__zero_reg__
 2350 0a64 1182      		std Z+1,__zero_reg__
 2351 0a66 1282      		std Z+2,__zero_reg__
 2352 0a68 1382      		std Z+3,__zero_reg__
 2353 0a6a FF97      		sbiw r30,63
 2354               	.LBE646:
 2355               	.LBE645:
 2356               	.LBB647:
 2357               	.LBB648:
 2358               	.LM270:
 2359 0a6c 13AE      		std Z+59,__zero_reg__
 2360 0a6e 14AE      		std Z+60,__zero_reg__
 2361 0a70 15AE      		std Z+61,__zero_reg__
 2362 0a72 16AE      		std Z+62,__zero_reg__
 2363               	.LBE648:
 2364               	.LBE647:
 2365               	.LBB649:
 2366               	.LBB650:
 2367               	.LM271:
 2368 0a74 47AB      		std Z+55,r20
 2369 0a76 50AF      		std Z+56,r21
 2370 0a78 61AF      		std Z+57,r22
 2371 0a7a 72AF      		std Z+58,r23
 2372               	.LBE650:
 2373               	.LBE649:
 2374               	.LBB651:
 2375               	.LBB652:
 2376               	.LBB653:
 2377               	.LBB654:
 2378               	.LM272:
 2379               	/* #APP */
 2380               	 ;  337 "timebase.c" 1
 2381 0a7c F894      		cli
 2382               	 ;  0 "" 2
 2383               	/* #NOAPP */
 2384               	.LBE654:
 2385               	.LBE653:
 2386               	.LM273:
 2387 0a7e 8A85      		ldd r24,Y+10
 2388 0a80 9B85      		ldd r25,Y+11
 2389 0a82 AC85      		ldd r26,Y+12
 2390 0a84 BD85      		ldd r27,Y+13
 2391               	.LVL154:
 2392               	.LBB655:
 2393               	.LBB656:
 2394               	.LM274:
 2395               	/* #APP */
 2396               	 ;  341 "timebase.c" 1
 2397 0a86 7894      		sei
 2398               	 ;  0 "" 2
 2399               	/* #NOAPP */
 2400               	.LBE656:
 2401               	.LBE655:
 2402               	.LBE652:
 2403               	.LBE651:
 2404               	.LBB657:
 2405               	.LBB658:
 2406               	.LM275:
 2407 0a88 25E1      		ldi r18,lo8(21)
 2408 0a8a 30E0      		ldi r19,hi8(21)
 2409 0a8c 029F      		mul r16,r18
 2410 0a8e F001      		movw r30,r0
 2411 0a90 039F      		mul r16,r19
 2412 0a92 F00D      		add r31,r0
 2413 0a94 129F      		mul r17,r18
 2414 0a96 F00D      		add r31,r0
 2415 0a98 1124      		clr r1
 2416 0a9a EC0F      		add r30,r28
 2417 0a9c FD1F      		adc r31,r29
 2418 0a9e 840F      		add r24,r20
 2419 0aa0 951F      		adc r25,r21
 2420 0aa2 A61F      		adc r26,r22
 2421 0aa4 B71F      		adc r27,r23
 2422 0aa6 83AB      		std Z+51,r24
 2423 0aa8 94AB      		std Z+52,r25
 2424 0aaa A5AB      		std Z+53,r26
 2425 0aac B6AB      		std Z+54,r27
 2426               	.LBE658:
 2427               	.LBE657:
 2428               	.LBB659:
 2429               	.LBB660:
 2430               	.LM276:
 2431 0aae 92A9      		ldd r25,Z+50
 2432 0ab0 892F      		mov r24,r25
 2433               	.LVL155:
 2434 0ab2 8695      		lsr r24
 2435 0ab4 8F70      		andi r24,lo8(15)
 2436 0ab6 8130      		cpi r24,lo8(1)
 2437 0ab8 01F0      		breq .L118
 2438               	.LBB661:
 2439               	.LBB662:
 2440               	.LM277:
 2441 0aba 917E      		andi r25,lo8(-31)
 2442 0abc 9260      		ori r25,lo8(2)
 2443 0abe 92AB      		std Z+50,r25
 2444               	.L118:
 2445               	/* epilogue start */
 2446               	.LBE662:
 2447               	.LBE661:
 2448               	.LBE660:
 2449               	.LBE659:
 2450               	.LM278:
 2451 0ac0 DF91      		pop r29
 2452 0ac2 CF91      		pop r28
 2453 0ac4 1F91      		pop r17
 2454 0ac6 0F91      		pop r16
 2455 0ac8 0895      		ret
 2456               	.LFE44:
 2458               	.global	Timebase_UpCounter_Set_Forcefully
 2460               	Timebase_UpCounter_Set_Forcefully:
 2461               	.LFB45:
 2462               	.LM279:
 2463               	.LVL156:
 2464 0aca DF92      		push r13
 2465 0acc EF92      		push r14
 2466 0ace FF92      		push r15
 2467 0ad0 0F93      		push r16
 2468 0ad2 1F93      		push r17
 2469               	/* prologue: function */
 2470               	/* frame size = 0 */
 2471 0ad4 D82E      		mov r13,r24
 2472 0ad6 7A01      		movw r14,r20
 2473 0ad8 8B01      		movw r16,r22
 2474               	.LM280:
 2475 0ada 0E94 0000 		call Timebase_UpCounter_Reset
 2476               	.LVL157:
 2477               	.LM281:
 2478 0ade 8D2D      		mov r24,r13
 2479 0ae0 B801      		movw r22,r16
 2480 0ae2 A701      		movw r20,r14
 2481 0ae4 0E94 0000 		call Timebase_UpCounter_Set_Securely
 2482               	/* epilogue start */
 2483               	.LM282:
 2484 0ae8 1F91      		pop r17
 2485 0aea 0F91      		pop r16
 2486 0aec FF90      		pop r15
 2487 0aee EF90      		pop r14
 2488               	.LVL158:
 2489 0af0 DF90      		pop r13
 2490               	.LVL159:
 2491 0af2 0895      		ret
 2492               	.LFE45:
 2494               	.global	Timebase_UpCounter_Update
 2496               	Timebase_UpCounter_Update:
 2497               	.LFB46:
 2498               	.LM283:
 2499               	.LVL160:
 2500 0af4 EF92      		push r14
 2501 0af6 FF92      		push r15
 2502 0af8 0F93      		push r16
 2503 0afa 1F93      		push r17
 2504 0afc CF93      		push r28
 2505 0afe DF93      		push r29
 2506               	/* prologue: function */
 2507               	/* frame size = 0 */
 2508               	.LBB663:
 2509               	.LBB664:
 2510               	.LM284:
 2511 0b00 C091 0000 		lds r28,Timebase
 2512 0b04 D091 0000 		lds r29,(Timebase)+1
 2513 0b08 482F      		mov r20,r24
 2514 0b0a 50E0      		ldi r21,lo8(0)
 2515 0b0c 85E1      		ldi r24,lo8(21)
 2516 0b0e 90E0      		ldi r25,hi8(21)
 2517               	.LVL161:
 2518 0b10 489F      		mul r20,r24
 2519 0b12 F001      		movw r30,r0
 2520 0b14 499F      		mul r20,r25
 2521 0b16 F00D      		add r31,r0
 2522 0b18 589F      		mul r21,r24
 2523 0b1a F00D      		add r31,r0
 2524 0b1c 1124      		clr r1
 2525 0b1e EC0F      		add r30,r28
 2526 0b20 FD1F      		adc r31,r29
 2527 0b22 82A9      		ldd r24,Z+50
 2528 0b24 8695      		lsr r24
 2529 0b26 8F70      		andi r24,lo8(15)
 2530               	.LBE664:
 2531               	.LBE663:
 2532               	.LM285:
 2533 0b28 8130      		cpi r24,lo8(1)
 2534 0b2a 01F0      		breq .+2
 2535 0b2c 00C0      		rjmp .L122
 2536               	.LBB665:
 2537               	.LBB666:
 2538               	.LBB667:
 2539               	.LBB668:
 2540               	.LM286:
 2541               	/* #APP */
 2542               	 ;  337 "timebase.c" 1
 2543 0b2e F894      		cli
 2544               	 ;  0 "" 2
 2545               	/* #NOAPP */
 2546               	.LBE668:
 2547               	.LBE667:
 2548               	.LM287:
 2549 0b30 EA84      		ldd r14,Y+10
 2550 0b32 FB84      		ldd r15,Y+11
 2551 0b34 0C85      		ldd r16,Y+12
 2552 0b36 1D85      		ldd r17,Y+13
 2553               	.LVL162:
 2554               	.LBB669:
 2555               	.LBB670:
 2556               	.LM288:
 2557               	/* #APP */
 2558               	 ;  341 "timebase.c" 1
 2559 0b38 7894      		sei
 2560               	 ;  0 "" 2
 2561               	/* #NOAPP */
 2562               	.LBE670:
 2563               	.LBE669:
 2564               	.LBE666:
 2565               	.LBE665:
 2566               	.LM289:
 2567 0b3a 85E1      		ldi r24,lo8(21)
 2568 0b3c 90E0      		ldi r25,hi8(21)
 2569 0b3e 489F      		mul r20,r24
 2570 0b40 F001      		movw r30,r0
 2571 0b42 499F      		mul r20,r25
 2572 0b44 F00D      		add r31,r0
 2573 0b46 589F      		mul r21,r24
 2574 0b48 F00D      		add r31,r0
 2575 0b4a 1124      		clr r1
 2576 0b4c EC0F      		add r30,r28
 2577 0b4e FD1F      		adc r31,r29
 2578 0b50 23A9      		ldd r18,Z+51
 2579 0b52 34A9      		ldd r19,Z+52
 2580 0b54 45A9      		ldd r20,Z+53
 2581 0b56 56A9      		ldd r21,Z+54
 2582 0b58 2E19      		sub r18,r14
 2583 0b5a 3F09      		sbc r19,r15
 2584 0b5c 400B      		sbc r20,r16
 2585 0b5e 510B      		sbc r21,r17
 2586               	.LBB671:
 2587               	.LBB672:
 2588               	.LM290:
 2589 0b60 23AF      		std Z+59,r18
 2590 0b62 34AF      		std Z+60,r19
 2591 0b64 45AF      		std Z+61,r20
 2592 0b66 56AF      		std Z+62,r21
 2593               	.LBE672:
 2594               	.LBE671:
 2595               	.LBB673:
 2596               	.LBB674:
 2597               	.LM291:
 2598 0b68 EF01      		movw r28,r30
 2599 0b6a EF96      		adiw r28,63
 2600 0b6c E7A8      		ldd r14,Z+55
 2601 0b6e F0AC      		ldd r15,Z+56
 2602 0b70 01AD      		ldd r16,Z+57
 2603 0b72 12AD      		ldd r17,Z+58
 2604               	.LVL163:
 2605 0b74 D801      		movw r26,r16
 2606 0b76 C701      		movw r24,r14
 2607 0b78 821B      		sub r24,r18
 2608 0b7a 930B      		sbc r25,r19
 2609 0b7c A40B      		sbc r26,r20
 2610 0b7e B50B      		sbc r27,r21
 2611 0b80 8883      		st Y,r24
 2612 0b82 9983      		std Y+1,r25
 2613 0b84 AA83      		std Y+2,r26
 2614 0b86 BB83      		std Y+3,r27
 2615               	.LBE674:
 2616               	.LBE673:
 2617               	.LM292:
 2618 0b88 1216      		cp __zero_reg__,r18
 2619 0b8a 1306      		cpc __zero_reg__,r19
 2620 0b8c 1406      		cpc __zero_reg__,r20
 2621 0b8e 1506      		cpc __zero_reg__,r21
 2622 0b90 04F4      		brge .+2
 2623 0b92 00C0      		rjmp .L124
 2624               	.LBB675:
 2625               	.LBB676:
 2626               	.LM293:
 2627 0b94 13AA      		std Z+51,__zero_reg__
 2628 0b96 14AA      		std Z+52,__zero_reg__
 2629 0b98 15AA      		std Z+53,__zero_reg__
 2630 0b9a 16AA      		std Z+54,__zero_reg__
 2631               	.LBE676:
 2632               	.LBE675:
 2633               	.LBB677:
 2634               	.LBB678:
 2635               	.LM294:
 2636 0b9c 13AE      		std Z+59,__zero_reg__
 2637 0b9e 14AE      		std Z+60,__zero_reg__
 2638 0ba0 15AE      		std Z+61,__zero_reg__
 2639 0ba2 16AE      		std Z+62,__zero_reg__
 2640               	.LBE678:
 2641               	.LBE677:
 2642               	.LBB679:
 2643               	.LBB680:
 2644               	.LM295:
 2645 0ba4 E882      		st Y,r14
 2646 0ba6 F982      		std Y+1,r15
 2647 0ba8 0A83      		std Y+2,r16
 2648 0baa 1B83      		std Y+3,r17
 2649               	.LBE680:
 2650               	.LBE679:
 2651               	.LBB681:
 2652               	.LBB682:
 2653               	.LM296:
 2654 0bac 82A9      		ldd r24,Z+50
 2655 0bae 817E      		andi r24,lo8(-31)
 2656 0bb0 8860      		ori r24,lo8(8)
 2657 0bb2 82AB      		std Z+50,r24
 2658 0bb4 00C0      		rjmp .L124
 2659               	.L122:
 2660               	.LBE682:
 2661               	.LBE681:
 2662               	.LM297:
 2663 0bb6 8230      		cpi r24,lo8(2)
 2664 0bb8 01F4      		brne .L124
 2665               	.LBB683:
 2666               	.LBB684:
 2667               	.LBB685:
 2668               	.LBB686:
 2669               	.LM298:
 2670               	/* #APP */
 2671               	 ;  337 "timebase.c" 1
 2672 0bba F894      		cli
 2673               	 ;  0 "" 2
 2674               	/* #NOAPP */
 2675               	.LBE686:
 2676               	.LBE685:
 2677               	.LM299:
 2678 0bbc 8A85      		ldd r24,Y+10
 2679 0bbe 9B85      		ldd r25,Y+11
 2680 0bc0 AC85      		ldd r26,Y+12
 2681 0bc2 BD85      		ldd r27,Y+13
 2682               	.LVL164:
 2683               	.LBB687:
 2684               	.LBB688:
 2685               	.LM300:
 2686               	/* #APP */
 2687               	 ;  341 "timebase.c" 1
 2688 0bc4 7894      		sei
 2689               	 ;  0 "" 2
 2690               	/* #NOAPP */
 2691               	.LBE688:
 2692               	.LBE687:
 2693               	.LBE684:
 2694               	.LBE683:
 2695               	.LBB689:
 2696               	.LBB690:
 2697               	.LM301:
 2698 0bc6 25E1      		ldi r18,lo8(21)
 2699 0bc8 30E0      		ldi r19,hi8(21)
 2700 0bca 429F      		mul r20,r18
 2701 0bcc F001      		movw r30,r0
 2702 0bce 439F      		mul r20,r19
 2703 0bd0 F00D      		add r31,r0
 2704 0bd2 529F      		mul r21,r18
 2705 0bd4 F00D      		add r31,r0
 2706 0bd6 1124      		clr r1
 2707 0bd8 EC0F      		add r30,r28
 2708 0bda FD1F      		adc r31,r29
 2709 0bdc 23AD      		ldd r18,Z+59
 2710 0bde 34AD      		ldd r19,Z+60
 2711 0be0 45AD      		ldd r20,Z+61
 2712 0be2 56AD      		ldd r21,Z+62
 2713 0be4 820F      		add r24,r18
 2714 0be6 931F      		adc r25,r19
 2715 0be8 A41F      		adc r26,r20
 2716 0bea B51F      		adc r27,r21
 2717 0bec 83AB      		std Z+51,r24
 2718 0bee 94AB      		std Z+52,r25
 2719 0bf0 A5AB      		std Z+53,r26
 2720 0bf2 B6AB      		std Z+54,r27
 2721               	.LBE690:
 2722               	.LBE689:
 2723               	.LBB691:
 2724               	.LBB692:
 2725               	.LM302:
 2726 0bf4 87A9      		ldd r24,Z+55
 2727 0bf6 90AD      		ldd r25,Z+56
 2728 0bf8 A1AD      		ldd r26,Z+57
 2729 0bfa B2AD      		ldd r27,Z+58
 2730               	.LVL165:
 2731 0bfc 821B      		sub r24,r18
 2732 0bfe 930B      		sbc r25,r19
 2733 0c00 A40B      		sbc r26,r20
 2734 0c02 B50B      		sbc r27,r21
 2735 0c04 FF96      		adiw r30,63
 2736 0c06 8083      		st Z,r24
 2737 0c08 9183      		std Z+1,r25
 2738 0c0a A283      		std Z+2,r26
 2739 0c0c B383      		std Z+3,r27
 2740               	.L124:
 2741               	/* epilogue start */
 2742               	.LBE692:
 2743               	.LBE691:
 2744               	.LM303:
 2745 0c0e DF91      		pop r29
 2746 0c10 CF91      		pop r28
 2747 0c12 1F91      		pop r17
 2748 0c14 0F91      		pop r16
 2749 0c16 FF90      		pop r15
 2750 0c18 EF90      		pop r14
 2751 0c1a 0895      		ret
 2752               	.LFE46:
 2754               	.global	Timebase_UpCounter_Expired
 2756               	Timebase_UpCounter_Expired:
 2757               	.LFB47:
 2758               	.LM304:
 2759               	.LVL166:
 2760               	/* prologue: function */
 2761               	/* frame size = 0 */
 2762               	.LM305:
 2763 0c1c 40E0      		ldi r20,lo8(0)
 2764 0c1e E091 0000 		lds r30,Timebase
 2765 0c22 F091 0000 		lds r31,(Timebase)+1
 2766 0c26 90E0      		ldi r25,lo8(0)
 2767               	.LVL167:
 2768 0c28 25E1      		ldi r18,lo8(21)
 2769 0c2a 30E0      		ldi r19,hi8(21)
 2770 0c2c BC01      		movw r22,r24
 2771 0c2e 629F      		mul r22,r18
 2772 0c30 C001      		movw r24,r0
 2773 0c32 639F      		mul r22,r19
 2774 0c34 900D      		add r25,r0
 2775 0c36 729F      		mul r23,r18
 2776 0c38 900D      		add r25,r0
 2777 0c3a 1124      		clr r1
 2778               	.LVL168:
 2779 0c3c E80F      		add r30,r24
 2780 0c3e F91F      		adc r31,r25
 2781 0c40 82A9      		ldd r24,Z+50
 2782 0c42 8695      		lsr r24
 2783 0c44 8F70      		andi r24,lo8(15)
 2784 0c46 8430      		cpi r24,lo8(4)
 2785 0c48 01F4      		brne .L126
 2786 0c4a 41E0      		ldi r20,lo8(1)
 2787               	.L126:
 2788               	.LM306:
 2789 0c4c 842F      		mov r24,r20
 2790               	/* epilogue start */
 2791 0c4e 0895      		ret
 2792               	.LFE47:
 2794               	.global	Timebase_UpCounter_Expired_Event
 2796               	Timebase_UpCounter_Expired_Event:
 2797               	.LFB48:
 2798               	.LM307:
 2799               	.LVL169:
 2800               	/* prologue: function */
 2801               	/* frame size = 0 */
 2802 0c50 482F      		mov r20,r24
 2803               	.LM308:
 2804 0c52 E091 0000 		lds r30,Timebase
 2805 0c56 F091 0000 		lds r31,(Timebase)+1
 2806 0c5a 282F      		mov r18,r24
 2807 0c5c 30E0      		ldi r19,lo8(0)
 2808               	.LVL170:
 2809 0c5e 85E1      		ldi r24,lo8(21)
 2810 0c60 90E0      		ldi r25,hi8(21)
 2811               	.LVL171:
 2812 0c62 BC01      		movw r22,r24
 2813 0c64 269F      		mul r18,r22
 2814 0c66 C001      		movw r24,r0
 2815 0c68 279F      		mul r18,r23
 2816 0c6a 900D      		add r25,r0
 2817 0c6c 369F      		mul r19,r22
 2818 0c6e 900D      		add r25,r0
 2819 0c70 1124      		clr r1
 2820 0c72 E80F      		add r30,r24
 2821 0c74 F91F      		adc r31,r25
 2822 0c76 82A9      		ldd r24,Z+50
 2823 0c78 8695      		lsr r24
 2824 0c7a 8F70      		andi r24,lo8(15)
 2825 0c7c 8430      		cpi r24,lo8(4)
 2826 0c7e 01F0      		breq .L129
 2827 0c80 80E0      		ldi r24,lo8(0)
 2828 0c82 0895      		ret
 2829               	.L129:
 2830               	.LBB693:
 2831               	.LBB694:
 2832               	.LM309:
 2833 0c84 842F      		mov r24,r20
 2834 0c86 0E94 0000 		call Timebase_UpCounter_Reset
 2835               	.LVL172:
 2836 0c8a 81E0      		ldi r24,lo8(1)
 2837               	.LBE694:
 2838               	.LBE693:
 2839               	.LM310:
 2840 0c8c 0895      		ret
 2841               	.LFE48:
 2843               	.global	Timebase_UpCounter_Set_Period_Value_Securely
 2845               	Timebase_UpCounter_Set_Period_Value_Securely:
 2846               	.LFB49:
 2847               	.LM311:
 2848               	.LVL173:
 2849 0c8e CF93      		push r28
 2850 0c90 DF93      		push r29
 2851               	/* prologue: function */
 2852               	/* frame size = 0 */
 2853               	.LBB695:
 2854               	.LBB696:
 2855               	.LM312:
 2856 0c92 C091 0000 		lds r28,Timebase
 2857 0c96 D091 0000 		lds r29,(Timebase)+1
 2858 0c9a 90E0      		ldi r25,lo8(0)
 2859               	.LBE696:
 2860               	.LBE695:
 2861               	.LM313:
 2862 0c9c 25E1      		ldi r18,lo8(21)
 2863 0c9e 30E0      		ldi r19,hi8(21)
 2864 0ca0 FC01      		movw r30,r24
 2865               	.LVL174:
 2866 0ca2 E29F      		mul r30,r18
 2867 0ca4 C001      		movw r24,r0
 2868 0ca6 E39F      		mul r30,r19
 2869 0ca8 900D      		add r25,r0
 2870 0caa F29F      		mul r31,r18
 2871 0cac 900D      		add r25,r0
 2872 0cae 1124      		clr r1
 2873 0cb0 C80F      		add r28,r24
 2874 0cb2 D91F      		adc r29,r25
 2875 0cb4 8AA9      		ldd r24,Y+50
 2876 0cb6 80FD      		sbrc r24,0
 2877 0cb8 00C0      		rjmp .L134
 2878               	.LBB697:
 2879               	.LBB698:
 2880               	.LM314:
 2881 0cba FE01      		movw r30,r28
 2882 0cbc ED5B      		subi r30,lo8(-(67))
 2883 0cbe FF4F      		sbci r31,hi8(-(67))
 2884 0cc0 EF96      		adiw r28,63
 2885 0cc2 8881      		ld r24,Y
 2886 0cc4 9981      		ldd r25,Y+1
 2887 0cc6 AA81      		ldd r26,Y+2
 2888 0cc8 BB81      		ldd r27,Y+3
 2889 0cca EF97      		sbiw r28,63
 2890 0ccc 840F      		add r24,r20
 2891 0cce 951F      		adc r25,r21
 2892 0cd0 A61F      		adc r26,r22
 2893 0cd2 B71F      		adc r27,r23
 2894 0cd4 8083      		st Z,r24
 2895 0cd6 9183      		std Z+1,r25
 2896 0cd8 A283      		std Z+2,r26
 2897 0cda B383      		std Z+3,r27
 2898               	.LBE698:
 2899               	.LBE697:
 2900               	.LBB699:
 2901               	.LBB700:
 2902               	.LM315:
 2903 0cdc 8AA9      		ldd r24,Y+50
 2904 0cde 8160      		ori r24,lo8(1)
 2905 0ce0 8AAB      		std Y+50,r24
 2906               	.L134:
 2907               	/* epilogue start */
 2908               	.LBE700:
 2909               	.LBE699:
 2910               	.LM316:
 2911 0ce2 DF91      		pop r29
 2912 0ce4 CF91      		pop r28
 2913 0ce6 0895      		ret
 2914               	.LFE49:
 2916               	.global	Timebase_UpCounter_Get_Remaining_Period_Value
 2918               	Timebase_UpCounter_Get_Remaining_Period_Value:
 2919               	.LFB50:
 2920               	.LM317:
 2921               	.LVL175:
 2922               	/* prologue: function */
 2923               	/* frame size = 0 */
 2924               	.LBB701:
 2925               	.LBB702:
 2926               	.LM318:
 2927 0ce8 E091 0000 		lds r30,Timebase
 2928 0cec F091 0000 		lds r31,(Timebase)+1
 2929 0cf0 90E0      		ldi r25,lo8(0)
 2930               	.LBE702:
 2931               	.LBE701:
 2932               	.LM319:
 2933 0cf2 25E1      		ldi r18,lo8(21)
 2934 0cf4 30E0      		ldi r19,hi8(21)
 2935 0cf6 AC01      		movw r20,r24
 2936               	.LVL176:
 2937 0cf8 429F      		mul r20,r18
 2938 0cfa C001      		movw r24,r0
 2939 0cfc 439F      		mul r20,r19
 2940 0cfe 900D      		add r25,r0
 2941 0d00 529F      		mul r21,r18
 2942 0d02 900D      		add r25,r0
 2943 0d04 1124      		clr r1
 2944 0d06 E80F      		add r30,r24
 2945 0d08 F91F      		adc r31,r25
 2946 0d0a DF01      		movw r26,r30
 2947 0d0c DF96      		adiw r26,63
 2948 0d0e ED5B      		subi r30,lo8(-(67))
 2949 0d10 FF4F      		sbci r31,hi8(-(67))
 2950 0d12 2081      		ld r18,Z
 2951 0d14 3181      		ldd r19,Z+1
 2952 0d16 4281      		ldd r20,Z+2
 2953 0d18 5381      		ldd r21,Z+3
 2954               	.LVL177:
 2955 0d1a 8D91      		ld r24,X+
 2956 0d1c 9D91      		ld r25,X+
 2957 0d1e 0D90      		ld __tmp_reg__,X+
 2958 0d20 BC91      		ld r27,X
 2959 0d22 A02D      		mov r26,__tmp_reg__
 2960 0d24 281B      		sub r18,r24
 2961 0d26 390B      		sbc r19,r25
 2962 0d28 4A0B      		sbc r20,r26
 2963 0d2a 5B0B      		sbc r21,r27
 2964 0d2c 57FF      		sbrs r21,7
 2965 0d2e 00C0      		rjmp .L136
 2966 0d30 20E0      		ldi r18,lo8(0)
 2967 0d32 30E0      		ldi r19,hi8(0)
 2968 0d34 40E0      		ldi r20,hlo8(0)
 2969 0d36 50E0      		ldi r21,hhi8(0)
 2970               	.L136:
 2971               	.LM320:
 2972 0d38 B901      		movw r22,r18
 2973               	.LVL178:
 2974 0d3a CA01      		movw r24,r20
 2975               	/* epilogue start */
 2976 0d3c 0895      		ret
 2977               	.LFE50:
 2979               	.global	Timebase_UpCounter_Period_Value_Expired
 2981               	Timebase_UpCounter_Period_Value_Expired:
 2982               	.LFB51:
 2983               	.LM321:
 2984               	.LVL179:
 2985 0d3e CF93      		push r28
 2986 0d40 DF93      		push r29
 2987               	/* prologue: function */
 2988               	/* frame size = 0 */
 2989               	.LBB703:
 2990               	.LBB704:
 2991               	.LBB705:
 2992               	.LBB706:
 2993               	.LM322:
 2994 0d42 C091 0000 		lds r28,Timebase
 2995 0d46 D091 0000 		lds r29,(Timebase)+1
 2996 0d4a 682F      		mov r22,r24
 2997 0d4c 70E0      		ldi r23,lo8(0)
 2998               	.LBE706:
 2999               	.LBE705:
 3000               	.LM323:
 3001 0d4e 85E1      		ldi r24,lo8(21)
 3002 0d50 90E0      		ldi r25,hi8(21)
 3003               	.LVL180:
 3004 0d52 689F      		mul r22,r24
 3005 0d54 F001      		movw r30,r0
 3006 0d56 699F      		mul r22,r25
 3007 0d58 F00D      		add r31,r0
 3008 0d5a 789F      		mul r23,r24
 3009 0d5c F00D      		add r31,r0
 3010 0d5e 1124      		clr r1
 3011 0d60 EC0F      		add r30,r28
 3012 0d62 FD1F      		adc r31,r29
 3013 0d64 DF01      		movw r26,r30
 3014 0d66 DF96      		adiw r26,63
 3015 0d68 ED5B      		subi r30,lo8(-(67))
 3016 0d6a FF4F      		sbci r31,hi8(-(67))
 3017 0d6c 2081      		ld r18,Z
 3018 0d6e 3181      		ldd r19,Z+1
 3019 0d70 4281      		ldd r20,Z+2
 3020 0d72 5381      		ldd r21,Z+3
 3021               	.LVL181:
 3022 0d74 8D91      		ld r24,X+
 3023 0d76 9D91      		ld r25,X+
 3024 0d78 0D90      		ld __tmp_reg__,X+
 3025 0d7a BC91      		ld r27,X
 3026 0d7c A02D      		mov r26,__tmp_reg__
 3027 0d7e 281B      		sub r18,r24
 3028 0d80 390B      		sbc r19,r25
 3029 0d82 4A0B      		sbc r20,r26
 3030 0d84 5B0B      		sbc r21,r27
 3031               	.LM324:
 3032 0d86 57FD      		sbrc r21,7
 3033 0d88 00C0      		rjmp .L139
 3034               	.LBE704:
 3035               	.LBE703:
 3036               	.LM325:
 3037 0d8a 2115      		cp r18,__zero_reg__
 3038 0d8c 3105      		cpc r19,__zero_reg__
 3039 0d8e 4105      		cpc r20,__zero_reg__
 3040 0d90 5105      		cpc r21,__zero_reg__
 3041 0d92 01F0      		breq .L139
 3042 0d94 20E0      		ldi r18,lo8(0)
 3043               	.LVL182:
 3044 0d96 00C0      		rjmp .L140
 3045               	.LVL183:
 3046               	.L139:
 3047 0d98 20E0      		ldi r18,lo8(0)
 3048               	.LVL184:
 3049 0d9a 85E1      		ldi r24,lo8(21)
 3050 0d9c 90E0      		ldi r25,hi8(21)
 3051 0d9e AC01      		movw r20,r24
 3052 0da0 649F      		mul r22,r20
 3053 0da2 C001      		movw r24,r0
 3054 0da4 659F      		mul r22,r21
 3055 0da6 900D      		add r25,r0
 3056 0da8 749F      		mul r23,r20
 3057 0daa 900D      		add r25,r0
 3058 0dac 1124      		clr r1
 3059 0dae C80F      		add r28,r24
 3060 0db0 D91F      		adc r29,r25
 3061 0db2 8AA9      		ldd r24,Y+50
 3062 0db4 80FF      		sbrs r24,0
 3063 0db6 21E0      		ldi r18,lo8(1)
 3064               	.L141:
 3065 0db8 81E0      		ldi r24,lo8(1)
 3066 0dba 2827      		eor r18,r24
 3067               	.L140:
 3068               	.LM326:
 3069 0dbc 822F      		mov r24,r18
 3070               	/* epilogue start */
 3071 0dbe DF91      		pop r29
 3072 0dc0 CF91      		pop r28
 3073 0dc2 0895      		ret
 3074               	.LFE51:
 3076               	.global	Timebase_UpCounter_Period_Value_Expired_Event
 3078               	Timebase_UpCounter_Period_Value_Expired_Event:
 3079               	.LFB52:
 3080               	.LM327:
 3081               	.LVL185:
 3082 0dc4 1F93      		push r17
 3083               	/* prologue: function */
 3084               	/* frame size = 0 */
 3085 0dc6 182F      		mov r17,r24
 3086               	.LM328:
 3087 0dc8 0E94 0000 		call Timebase_UpCounter_Period_Value_Expired
 3088               	.LVL186:
 3089 0dcc 8130      		cpi r24,lo8(1)
 3090 0dce 01F0      		breq .L144
 3091 0dd0 80E0      		ldi r24,lo8(0)
 3092 0dd2 00C0      		rjmp .L145
 3093               	.L144:
 3094               	.LBB707:
 3095               	.LBB708:
 3096               	.LM329:
 3097 0dd4 E091 0000 		lds r30,Timebase
 3098 0dd8 F091 0000 		lds r31,(Timebase)+1
 3099 0ddc 212F      		mov r18,r17
 3100 0dde 30E0      		ldi r19,lo8(0)
 3101               	.LVL187:
 3102 0de0 85E1      		ldi r24,lo8(21)
 3103 0de2 90E0      		ldi r25,hi8(21)
 3104 0de4 AC01      		movw r20,r24
 3105 0de6 249F      		mul r18,r20
 3106 0de8 C001      		movw r24,r0
 3107 0dea 259F      		mul r18,r21
 3108 0dec 900D      		add r25,r0
 3109 0dee 349F      		mul r19,r20
 3110 0df0 900D      		add r25,r0
 3111 0df2 1124      		clr r1
 3112 0df4 E80F      		add r30,r24
 3113 0df6 F91F      		adc r31,r25
 3114 0df8 82A9      		ldd r24,Z+50
 3115 0dfa 8E7F      		andi r24,lo8(-2)
 3116 0dfc 82AB      		std Z+50,r24
 3117 0dfe 81E0      		ldi r24,lo8(1)
 3118               	.L145:
 3119               	/* epilogue start */
 3120               	.LBE708:
 3121               	.LBE707:
 3122               	.LM330:
 3123 0e00 1F91      		pop r17
 3124               	.LVL188:
 3125 0e02 0895      		ret
 3126               	.LFE52:
 3128               	.global	Timebase_UpCounter_Update_All
 3130               	Timebase_UpCounter_Update_All:
 3131               	.LFB53:
 3132               	.LM331:
 3133               	/* prologue: function */
 3134               	/* frame size = 0 */
 3135               	.LBB709:
 3136               	.LM332:
 3137 0e04 80E0      		ldi r24,lo8(0)
 3138 0e06 0E94 0000 		call Timebase_UpCounter_Update
 3139               	/* epilogue start */
 3140               	.LBE709:
 3141               	.LM333:
 3142 0e0a 0895      		ret
 3143               	.LFE53:
 3145               	.global	Timebase_UpCounter_Reset_All
 3147               	Timebase_UpCounter_Reset_All:
 3148               	.LFB54:
 3149               	.LM334:
 3150               	/* prologue: function */
 3151               	/* frame size = 0 */
 3152               	.LBB710:
 3153               	.LM335:
 3154 0e0c 80E0      		ldi r24,lo8(0)
 3155 0e0e 0E94 0000 		call Timebase_UpCounter_Reset
 3156               	/* epilogue start */
 3157               	.LBE710:
 3158               	.LM336:
 3159 0e12 0895      		ret
 3160               	.LFE54:
 3162               	.global	Timebase_DownCounter_Get_Status
 3164               	Timebase_DownCounter_Get_Status:
 3165               	.LFB55:
 3166               	.LM337:
 3167               	.LVL189:
 3168               	/* prologue: function */
 3169               	/* frame size = 0 */
 3170               	.LM338:
 3171 0e14 E091 0000 		lds r30,Timebase
 3172 0e18 F091 0000 		lds r31,(Timebase)+1
 3173 0e1c 90E0      		ldi r25,lo8(0)
 3174               	.LVL190:
 3175 0e1e 2DE0      		ldi r18,lo8(13)
 3176 0e20 30E0      		ldi r19,hi8(13)
 3177 0e22 AC01      		movw r20,r24
 3178 0e24 429F      		mul r20,r18
 3179 0e26 C001      		movw r24,r0
 3180 0e28 439F      		mul r20,r19
 3181 0e2a 900D      		add r25,r0
 3182 0e2c 529F      		mul r21,r18
 3183 0e2e 900D      		add r25,r0
 3184 0e30 1124      		clr r1
 3185               	.LVL191:
 3186 0e32 E80F      		add r30,r24
 3187 0e34 F91F      		adc r31,r25
 3188 0e36 E456      		subi r30,lo8(-(156))
 3189 0e38 FF4F      		sbci r31,hi8(-(156))
 3190 0e3a 8081      		ld r24,Z
 3191 0e3c 8695      		lsr r24
 3192               	.LM339:
 3193 0e3e 8F70      		andi r24,lo8(15)
 3194               	/* epilogue start */
 3195 0e40 0895      		ret
 3196               	.LFE55:
 3198               	.global	Timebase_DownCounter_Set_Status
 3200               	Timebase_DownCounter_Set_Status:
 3201               	.LFB56:
 3202               	.LM340:
 3203               	.LVL192:
 3204               	/* prologue: function */
 3205               	/* frame size = 0 */
 3206               	.LM341:
 3207 0e42 E091 0000 		lds r30,Timebase
 3208 0e46 F091 0000 		lds r31,(Timebase)+1
 3209 0e4a 90E0      		ldi r25,lo8(0)
 3210               	.LVL193:
 3211 0e4c 2DE0      		ldi r18,lo8(13)
 3212 0e4e 30E0      		ldi r19,hi8(13)
 3213 0e50 AC01      		movw r20,r24
 3214 0e52 429F      		mul r20,r18
 3215 0e54 C001      		movw r24,r0
 3216 0e56 439F      		mul r20,r19
 3217 0e58 900D      		add r25,r0
 3218 0e5a 529F      		mul r21,r18
 3219 0e5c 900D      		add r25,r0
 3220 0e5e 1124      		clr r1
 3221               	.LVL194:
 3222 0e60 E80F      		add r30,r24
 3223 0e62 F91F      		adc r31,r25
 3224 0e64 E456      		subi r30,lo8(-(156))
 3225 0e66 FF4F      		sbci r31,hi8(-(156))
 3226 0e68 6F70      		andi r22,lo8(15)
 3227               	.LVL195:
 3228 0e6a 660F      		lsl r22
 3229 0e6c 8081      		ld r24,Z
 3230 0e6e 817E      		andi r24,lo8(-31)
 3231 0e70 862B      		or r24,r22
 3232 0e72 8083      		st Z,r24
 3233               	/* epilogue start */
 3234               	.LM342:
 3235 0e74 0895      		ret
 3236               	.LFE56:
 3238               	.global	Timebase_DownCounter_Get_Value
 3240               	Timebase_DownCounter_Get_Value:
 3241               	.LFB57:
 3242               	.LM343:
 3243               	.LVL196:
 3244               	/* prologue: function */
 3245               	/* frame size = 0 */
 3246               	.LM344:
 3247 0e76 E091 0000 		lds r30,Timebase
 3248 0e7a F091 0000 		lds r31,(Timebase)+1
 3249 0e7e 90E0      		ldi r25,lo8(0)
 3250               	.LVL197:
 3251 0e80 2DE0      		ldi r18,lo8(13)
 3252 0e82 30E0      		ldi r19,hi8(13)
 3253 0e84 AC01      		movw r20,r24
 3254 0e86 429F      		mul r20,r18
 3255 0e88 C001      		movw r24,r0
 3256 0e8a 439F      		mul r20,r19
 3257 0e8c 900D      		add r25,r0
 3258 0e8e 529F      		mul r21,r18
 3259 0e90 900D      		add r25,r0
 3260 0e92 1124      		clr r1
 3261               	.LVL198:
 3262 0e94 E80F      		add r30,r24
 3263 0e96 F91F      		adc r31,r25
 3264 0e98 EF55      		subi r30,lo8(-(161))
 3265 0e9a FF4F      		sbci r31,hi8(-(161))
 3266 0e9c 6081      		ld r22,Z
 3267 0e9e 7181      		ldd r23,Z+1
 3268               	.LM345:
 3269 0ea0 8281      		ldd r24,Z+2
 3270 0ea2 9381      		ldd r25,Z+3
 3271               	.LVL199:
 3272               	/* epilogue start */
 3273 0ea4 0895      		ret
 3274               	.LFE57:
 3276               	.global	Timebase_DownCounter_Set_Value
 3278               	Timebase_DownCounter_Set_Value:
 3279               	.LFB58:
 3280               	.LM346:
 3281               	.LVL200:
 3282               	/* prologue: function */
 3283               	/* frame size = 0 */
 3284               	.LM347:
 3285 0ea6 E091 0000 		lds r30,Timebase
 3286 0eaa F091 0000 		lds r31,(Timebase)+1
 3287 0eae 90E0      		ldi r25,lo8(0)
 3288               	.LVL201:
 3289 0eb0 2DE0      		ldi r18,lo8(13)
 3290 0eb2 30E0      		ldi r19,hi8(13)
 3291 0eb4 DC01      		movw r26,r24
 3292 0eb6 A29F      		mul r26,r18
 3293 0eb8 C001      		movw r24,r0
 3294 0eba A39F      		mul r26,r19
 3295 0ebc 900D      		add r25,r0
 3296 0ebe B29F      		mul r27,r18
 3297 0ec0 900D      		add r25,r0
 3298 0ec2 1124      		clr r1
 3299               	.LVL202:
 3300 0ec4 E80F      		add r30,r24
 3301 0ec6 F91F      		adc r31,r25
 3302 0ec8 EF55      		subi r30,lo8(-(161))
 3303 0eca FF4F      		sbci r31,hi8(-(161))
 3304 0ecc 4083      		st Z,r20
 3305 0ece 5183      		std Z+1,r21
 3306 0ed0 6283      		std Z+2,r22
 3307 0ed2 7383      		std Z+3,r23
 3308               	/* epilogue start */
 3309               	.LM348:
 3310 0ed4 0895      		ret
 3311               	.LFE58:
 3313               	.global	Timebase_DownCounter_Get_EndValue
 3315               	Timebase_DownCounter_Get_EndValue:
 3316               	.LFB59:
 3317               	.LM349:
 3318               	.LVL203:
 3319               	/* prologue: function */
 3320               	/* frame size = 0 */
 3321               	.LM350:
 3322 0ed6 E091 0000 		lds r30,Timebase
 3323 0eda F091 0000 		lds r31,(Timebase)+1
 3324 0ede 90E0      		ldi r25,lo8(0)
 3325               	.LVL204:
 3326 0ee0 2DE0      		ldi r18,lo8(13)
 3327 0ee2 30E0      		ldi r19,hi8(13)
 3328 0ee4 AC01      		movw r20,r24
 3329 0ee6 429F      		mul r20,r18
 3330 0ee8 C001      		movw r24,r0
 3331 0eea 439F      		mul r20,r19
 3332 0eec 900D      		add r25,r0
 3333 0eee 529F      		mul r21,r18
 3334 0ef0 900D      		add r25,r0
 3335 0ef2 1124      		clr r1
 3336               	.LVL205:
 3337 0ef4 E80F      		add r30,r24
 3338 0ef6 F91F      		adc r31,r25
 3339 0ef8 E356      		subi r30,lo8(-(157))
 3340 0efa FF4F      		sbci r31,hi8(-(157))
 3341 0efc 6081      		ld r22,Z
 3342 0efe 7181      		ldd r23,Z+1
 3343               	.LM351:
 3344 0f00 8281      		ldd r24,Z+2
 3345 0f02 9381      		ldd r25,Z+3
 3346               	.LVL206:
 3347               	/* epilogue start */
 3348 0f04 0895      		ret
 3349               	.LFE59:
 3351               	.global	Timebase_DownCounter_Set_EndValue
 3353               	Timebase_DownCounter_Set_EndValue:
 3354               	.LFB60:
 3355               	.LM352:
 3356               	.LVL207:
 3357               	/* prologue: function */
 3358               	/* frame size = 0 */
 3359               	.LM353:
 3360 0f06 E091 0000 		lds r30,Timebase
 3361 0f0a F091 0000 		lds r31,(Timebase)+1
 3362 0f0e 90E0      		ldi r25,lo8(0)
 3363               	.LVL208:
 3364 0f10 2DE0      		ldi r18,lo8(13)
 3365 0f12 30E0      		ldi r19,hi8(13)
 3366 0f14 DC01      		movw r26,r24
 3367 0f16 A29F      		mul r26,r18
 3368 0f18 C001      		movw r24,r0
 3369 0f1a A39F      		mul r26,r19
 3370 0f1c 900D      		add r25,r0
 3371 0f1e B29F      		mul r27,r18
 3372 0f20 900D      		add r25,r0
 3373 0f22 1124      		clr r1
 3374               	.LVL209:
 3375 0f24 E80F      		add r30,r24
 3376 0f26 F91F      		adc r31,r25
 3377 0f28 E356      		subi r30,lo8(-(157))
 3378 0f2a FF4F      		sbci r31,hi8(-(157))
 3379 0f2c 4083      		st Z,r20
 3380 0f2e 5183      		std Z+1,r21
 3381 0f30 6283      		std Z+2,r22
 3382 0f32 7383      		std Z+3,r23
 3383               	/* epilogue start */
 3384               	.LM354:
 3385 0f34 0895      		ret
 3386               	.LFE60:
 3388               	.global	Timebase_DownCounter_Get_PeriodValue
 3390               	Timebase_DownCounter_Get_PeriodValue:
 3391               	.LFB61:
 3392               	.LM355:
 3393               	.LVL210:
 3394               	/* prologue: function */
 3395               	/* frame size = 0 */
 3396               	.LM356:
 3397 0f36 E091 0000 		lds r30,Timebase
 3398 0f3a F091 0000 		lds r31,(Timebase)+1
 3399 0f3e 90E0      		ldi r25,lo8(0)
 3400               	.LVL211:
 3401 0f40 2DE0      		ldi r18,lo8(13)
 3402 0f42 30E0      		ldi r19,hi8(13)
 3403 0f44 AC01      		movw r20,r24
 3404 0f46 429F      		mul r20,r18
 3405 0f48 C001      		movw r24,r0
 3406 0f4a 439F      		mul r20,r19
 3407 0f4c 900D      		add r25,r0
 3408 0f4e 529F      		mul r21,r18
 3409 0f50 900D      		add r25,r0
 3410 0f52 1124      		clr r1
 3411               	.LVL212:
 3412 0f54 E80F      		add r30,r24
 3413 0f56 F91F      		adc r31,r25
 3414 0f58 EB55      		subi r30,lo8(-(165))
 3415 0f5a FF4F      		sbci r31,hi8(-(165))
 3416 0f5c 6081      		ld r22,Z
 3417 0f5e 7181      		ldd r23,Z+1
 3418               	.LM357:
 3419 0f60 8281      		ldd r24,Z+2
 3420 0f62 9381      		ldd r25,Z+3
 3421               	.LVL213:
 3422               	/* epilogue start */
 3423 0f64 0895      		ret
 3424               	.LFE61:
 3426               	.global	Timebase_DownCounter_Set_PeriodValue
 3428               	Timebase_DownCounter_Set_PeriodValue:
 3429               	.LFB62:
 3430               	.LM358:
 3431               	.LVL214:
 3432               	/* prologue: function */
 3433               	/* frame size = 0 */
 3434 0f66 E091 0000 		lds r30,Timebase
 3435 0f6a F091 0000 		lds r31,(Timebase)+1
 3436 0f6e 282F      		mov r18,r24
 3437 0f70 30E0      		ldi r19,lo8(0)
 3438               	.LVL215:
 3439               	.LM359:
 3440 0f72 77FF      		sbrs r23,7
 3441 0f74 00C0      		rjmp .L166
 3442               	.LVL216:
 3443               	.LM360:
 3444 0f76 8DE0      		ldi r24,lo8(13)
 3445 0f78 90E0      		ldi r25,hi8(13)
 3446 0f7a AC01      		movw r20,r24
 3447               	.LVL217:
 3448 0f7c 249F      		mul r18,r20
 3449 0f7e C001      		movw r24,r0
 3450 0f80 259F      		mul r18,r21
 3451 0f82 900D      		add r25,r0
 3452 0f84 349F      		mul r19,r20
 3453 0f86 900D      		add r25,r0
 3454 0f88 1124      		clr r1
 3455 0f8a E80F      		add r30,r24
 3456 0f8c F91F      		adc r31,r25
 3457 0f8e EB55      		subi r30,lo8(-(165))
 3458 0f90 FF4F      		sbci r31,hi8(-(165))
 3459 0f92 1082      		st Z,__zero_reg__
 3460 0f94 1182      		std Z+1,__zero_reg__
 3461 0f96 1282      		std Z+2,__zero_reg__
 3462 0f98 1382      		std Z+3,__zero_reg__
 3463 0f9a 0895      		ret
 3464               	.LVL218:
 3465               	.L166:
 3466               	.LM361:
 3467 0f9c 8DE0      		ldi r24,lo8(13)
 3468 0f9e 90E0      		ldi r25,hi8(13)
 3469 0fa0 DC01      		movw r26,r24
 3470 0fa2 2A9F      		mul r18,r26
 3471 0fa4 C001      		movw r24,r0
 3472 0fa6 2B9F      		mul r18,r27
 3473 0fa8 900D      		add r25,r0
 3474 0faa 3A9F      		mul r19,r26
 3475 0fac 900D      		add r25,r0
 3476 0fae 1124      		clr r1
 3477 0fb0 E80F      		add r30,r24
 3478 0fb2 F91F      		adc r31,r25
 3479 0fb4 EB55      		subi r30,lo8(-(165))
 3480 0fb6 FF4F      		sbci r31,hi8(-(165))
 3481 0fb8 4083      		st Z,r20
 3482 0fba 5183      		std Z+1,r21
 3483 0fbc 6283      		std Z+2,r22
 3484 0fbe 7383      		std Z+3,r23
 3485 0fc0 0895      		ret
 3486               	.LFE62:
 3488               	.global	Timebase_DownCounter_Get_Period_Flag
 3490               	Timebase_DownCounter_Get_Period_Flag:
 3491               	.LFB63:
 3492               	.LM362:
 3493               	.LVL219:
 3494               	/* prologue: function */
 3495               	/* frame size = 0 */
 3496               	.LM363:
 3497 0fc2 E091 0000 		lds r30,Timebase
 3498 0fc6 F091 0000 		lds r31,(Timebase)+1
 3499 0fca 90E0      		ldi r25,lo8(0)
 3500               	.LVL220:
 3501 0fcc 2DE0      		ldi r18,lo8(13)
 3502 0fce 30E0      		ldi r19,hi8(13)
 3503 0fd0 AC01      		movw r20,r24
 3504 0fd2 429F      		mul r20,r18
 3505 0fd4 C001      		movw r24,r0
 3506 0fd6 439F      		mul r20,r19
 3507 0fd8 900D      		add r25,r0
 3508 0fda 529F      		mul r21,r18
 3509 0fdc 900D      		add r25,r0
 3510 0fde 1124      		clr r1
 3511               	.LVL221:
 3512 0fe0 E80F      		add r30,r24
 3513 0fe2 F91F      		adc r31,r25
 3514 0fe4 E456      		subi r30,lo8(-(156))
 3515 0fe6 FF4F      		sbci r31,hi8(-(156))
 3516 0fe8 8081      		ld r24,Z
 3517               	.LM364:
 3518 0fea 8170      		andi r24,lo8(1)
 3519               	/* epilogue start */
 3520 0fec 0895      		ret
 3521               	.LFE63:
 3523               	.global	Timebase_DownCounter_Set_Period_Flag
 3525               	Timebase_DownCounter_Set_Period_Flag:
 3526               	.LFB64:
 3527               	.LM365:
 3528               	.LVL222:
 3529               	/* prologue: function */
 3530               	/* frame size = 0 */
 3531               	.LM366:
 3532 0fee E091 0000 		lds r30,Timebase
 3533 0ff2 F091 0000 		lds r31,(Timebase)+1
 3534 0ff6 90E0      		ldi r25,lo8(0)
 3535               	.LVL223:
 3536 0ff8 2DE0      		ldi r18,lo8(13)
 3537 0ffa 30E0      		ldi r19,hi8(13)
 3538 0ffc AC01      		movw r20,r24
 3539 0ffe 429F      		mul r20,r18
 3540 1000 C001      		movw r24,r0
 3541 1002 439F      		mul r20,r19
 3542 1004 900D      		add r25,r0
 3543 1006 529F      		mul r21,r18
 3544 1008 900D      		add r25,r0
 3545 100a 1124      		clr r1
 3546               	.LVL224:
 3547 100c E80F      		add r30,r24
 3548 100e F91F      		adc r31,r25
 3549 1010 E456      		subi r30,lo8(-(156))
 3550 1012 FF4F      		sbci r31,hi8(-(156))
 3551 1014 8081      		ld r24,Z
 3552 1016 8160      		ori r24,lo8(1)
 3553 1018 8083      		st Z,r24
 3554               	/* epilogue start */
 3555               	.LM367:
 3556 101a 0895      		ret
 3557               	.LFE64:
 3559               	.global	Timebase_DownCounter_Clear_Period_Flag
 3561               	Timebase_DownCounter_Clear_Period_Flag:
 3562               	.LFB65:
 3563               	.LM368:
 3564               	.LVL225:
 3565               	/* prologue: function */
 3566               	/* frame size = 0 */
 3567               	.LM369:
 3568 101c E091 0000 		lds r30,Timebase
 3569 1020 F091 0000 		lds r31,(Timebase)+1
 3570 1024 90E0      		ldi r25,lo8(0)
 3571               	.LVL226:
 3572 1026 2DE0      		ldi r18,lo8(13)
 3573 1028 30E0      		ldi r19,hi8(13)
 3574 102a AC01      		movw r20,r24
 3575 102c 429F      		mul r20,r18
 3576 102e C001      		movw r24,r0
 3577 1030 439F      		mul r20,r19
 3578 1032 900D      		add r25,r0
 3579 1034 529F      		mul r21,r18
 3580 1036 900D      		add r25,r0
 3581 1038 1124      		clr r1
 3582               	.LVL227:
 3583 103a E80F      		add r30,r24
 3584 103c F91F      		adc r31,r25
 3585 103e E456      		subi r30,lo8(-(156))
 3586 1040 FF4F      		sbci r31,hi8(-(156))
 3587 1042 8081      		ld r24,Z
 3588 1044 8E7F      		andi r24,lo8(-2)
 3589 1046 8083      		st Z,r24
 3590               	/* epilogue start */
 3591               	.LM370:
 3592 1048 0895      		ret
 3593               	.LFE65:
 3595               	.global	Timebase_DownCounter_Reset
 3597               	Timebase_DownCounter_Reset:
 3598               	.LFB66:
 3599               	.LM371:
 3600               	.LVL228:
 3601               	/* prologue: function */
 3602               	/* frame size = 0 */
 3603               	.LBB711:
 3604               	.LBB712:
 3605               	.LM372:
 3606 104a E091 0000 		lds r30,Timebase
 3607 104e F091 0000 		lds r31,(Timebase)+1
 3608 1052 90E0      		ldi r25,lo8(0)
 3609 1054 2DE0      		ldi r18,lo8(13)
 3610 1056 30E0      		ldi r19,hi8(13)
 3611 1058 AC01      		movw r20,r24
 3612               	.LVL229:
 3613 105a 429F      		mul r20,r18
 3614 105c C001      		movw r24,r0
 3615 105e 439F      		mul r20,r19
 3616 1060 900D      		add r25,r0
 3617 1062 529F      		mul r21,r18
 3618 1064 900D      		add r25,r0
 3619 1066 1124      		clr r1
 3620 1068 E80F      		add r30,r24
 3621 106a F91F      		adc r31,r25
 3622 106c E356      		subi r30,lo8(-(157))
 3623 106e FF4F      		sbci r31,hi8(-(157))
 3624 1070 1192      		st Z+,__zero_reg__
 3625 1072 1192      		st Z+,__zero_reg__
 3626 1074 1192      		st Z+,__zero_reg__
 3627 1076 1192      		st Z+,__zero_reg__
 3628               	.LBE712:
 3629               	.LBE711:
 3630               	.LBB713:
 3631               	.LBB714:
 3632               	.LM373:
 3633 1078 1082      		st Z,__zero_reg__
 3634 107a 1182      		std Z+1,__zero_reg__
 3635 107c 1282      		std Z+2,__zero_reg__
 3636 107e 1382      		std Z+3,__zero_reg__
 3637               	.LBE714:
 3638               	.LBE713:
 3639               	.LBB715:
 3640               	.LBB716:
 3641               	.LM374:
 3642 1080 3597      		sbiw r30,5
 3643 1082 8081      		ld r24,Z
 3644               	.LBE716:
 3645               	.LBE715:
 3646               	.LBB717:
 3647               	.LBB718:
 3648               	.LM375:
 3649 1084 807E      		andi r24,lo8(-32)
 3650 1086 8083      		st Z,r24
 3651               	/* epilogue start */
 3652               	.LBE718:
 3653               	.LBE717:
 3654               	.LM376:
 3655 1088 0895      		ret
 3656               	.LFE66:
 3658               	.global	Timebase_DownCounter_Clear_All_Flags
 3660               	Timebase_DownCounter_Clear_All_Flags:
 3661               	.LFB67:
 3662               	.LM377:
 3663               	.LVL230:
 3664               	/* prologue: function */
 3665               	/* frame size = 0 */
 3666               	.LBB719:
 3667               	.LBB720:
 3668               	.LBB721:
 3669               	.LBB722:
 3670               	.LM378:
 3671 108a E091 0000 		lds r30,Timebase
 3672 108e F091 0000 		lds r31,(Timebase)+1
 3673 1092 90E0      		ldi r25,lo8(0)
 3674 1094 2DE0      		ldi r18,lo8(13)
 3675 1096 30E0      		ldi r19,hi8(13)
 3676 1098 AC01      		movw r20,r24
 3677               	.LVL231:
 3678 109a 429F      		mul r20,r18
 3679 109c C001      		movw r24,r0
 3680 109e 439F      		mul r20,r19
 3681 10a0 900D      		add r25,r0
 3682 10a2 529F      		mul r21,r18
 3683 10a4 900D      		add r25,r0
 3684 10a6 1124      		clr r1
 3685 10a8 E80F      		add r30,r24
 3686 10aa F91F      		adc r31,r25
 3687 10ac E356      		subi r30,lo8(-(157))
 3688 10ae FF4F      		sbci r31,hi8(-(157))
 3689 10b0 1192      		st Z+,__zero_reg__
 3690 10b2 1192      		st Z+,__zero_reg__
 3691 10b4 1192      		st Z+,__zero_reg__
 3692 10b6 1192      		st Z+,__zero_reg__
 3693               	.LBE722:
 3694               	.LBE721:
 3695               	.LBB723:
 3696               	.LBB724:
 3697               	.LM379:
 3698 10b8 1082      		st Z,__zero_reg__
 3699 10ba 1182      		std Z+1,__zero_reg__
 3700 10bc 1282      		std Z+2,__zero_reg__
 3701 10be 1382      		std Z+3,__zero_reg__
 3702               	.LBE724:
 3703               	.LBE723:
 3704               	.LBB725:
 3705               	.LBB726:
 3706               	.LM380:
 3707 10c0 3597      		sbiw r30,5
 3708 10c2 8081      		ld r24,Z
 3709               	.LBE726:
 3710               	.LBE725:
 3711               	.LBB727:
 3712               	.LBB728:
 3713               	.LM381:
 3714 10c4 807E      		andi r24,lo8(-32)
 3715 10c6 8083      		st Z,r24
 3716               	/* epilogue start */
 3717               	.LBE728:
 3718               	.LBE727:
 3719               	.LBE720:
 3720               	.LBE719:
 3721               	.LM382:
 3722 10c8 0895      		ret
 3723               	.LFE67:
 3725               	.global	Timebase_DownCounter_Start
 3727               	Timebase_DownCounter_Start:
 3728               	.LFB68:
 3729               	.LM383:
 3730               	.LVL232:
 3731               	/* prologue: function */
 3732               	/* frame size = 0 */
 3733               	.LBB729:
 3734               	.LBB730:
 3735               	.LM384:
 3736 10ca E091 0000 		lds r30,Timebase
 3737 10ce F091 0000 		lds r31,(Timebase)+1
 3738 10d2 90E0      		ldi r25,lo8(0)
 3739               	.LBE730:
 3740               	.LBE729:
 3741               	.LM385:
 3742 10d4 2DE0      		ldi r18,lo8(13)
 3743 10d6 30E0      		ldi r19,hi8(13)
 3744 10d8 AC01      		movw r20,r24
 3745               	.LVL233:
 3746 10da 429F      		mul r20,r18
 3747 10dc C001      		movw r24,r0
 3748 10de 439F      		mul r20,r19
 3749 10e0 900D      		add r25,r0
 3750 10e2 529F      		mul r21,r18
 3751 10e4 900D      		add r25,r0
 3752 10e6 1124      		clr r1
 3753 10e8 E80F      		add r30,r24
 3754 10ea F91F      		adc r31,r25
 3755 10ec E456      		subi r30,lo8(-(156))
 3756 10ee FF4F      		sbci r31,hi8(-(156))
 3757 10f0 9081      		ld r25,Z
 3758 10f2 892F      		mov r24,r25
 3759 10f4 8695      		lsr r24
 3760 10f6 8F70      		andi r24,lo8(15)
 3761 10f8 8130      		cpi r24,lo8(1)
 3762 10fa 01F0      		breq .L181
 3763               	.LBB731:
 3764               	.LBB732:
 3765               	.LM386:
 3766 10fc 917E      		andi r25,lo8(-31)
 3767 10fe 9260      		ori r25,lo8(2)
 3768 1100 9083      		st Z,r25
 3769               	.L181:
 3770 1102 0895      		ret
 3771               	.LBE732:
 3772               	.LBE731:
 3773               	.LFE68:
 3775               	.global	Timebase_DownCounter_Stop
 3777               	Timebase_DownCounter_Stop:
 3778               	.LFB69:
 3779               	.LM387:
 3780               	.LVL234:
 3781               	/* prologue: function */
 3782               	/* frame size = 0 */
 3783               	.LBB733:
 3784               	.LBB734:
 3785               	.LM388:
 3786 1104 E091 0000 		lds r30,Timebase
 3787 1108 F091 0000 		lds r31,(Timebase)+1
 3788 110c 90E0      		ldi r25,lo8(0)
 3789               	.LBE734:
 3790               	.LBE733:
 3791               	.LM389:
 3792 110e 2DE0      		ldi r18,lo8(13)
 3793 1110 30E0      		ldi r19,hi8(13)
 3794 1112 AC01      		movw r20,r24
 3795               	.LVL235:
 3796 1114 429F      		mul r20,r18
 3797 1116 C001      		movw r24,r0
 3798 1118 439F      		mul r20,r19
 3799 111a 900D      		add r25,r0
 3800 111c 529F      		mul r21,r18
 3801 111e 900D      		add r25,r0
 3802 1120 1124      		clr r1
 3803 1122 E80F      		add r30,r24
 3804 1124 F91F      		adc r31,r25
 3805 1126 E456      		subi r30,lo8(-(156))
 3806 1128 FF4F      		sbci r31,hi8(-(156))
 3807 112a 9081      		ld r25,Z
 3808 112c 892F      		mov r24,r25
 3809 112e 8695      		lsr r24
 3810 1130 8F70      		andi r24,lo8(15)
 3811 1132 8230      		cpi r24,lo8(2)
 3812 1134 01F0      		breq .L184
 3813               	.LBB735:
 3814               	.LBB736:
 3815               	.LM390:
 3816 1136 917E      		andi r25,lo8(-31)
 3817 1138 9460      		ori r25,lo8(4)
 3818 113a 9083      		st Z,r25
 3819               	.L184:
 3820 113c 0895      		ret
 3821               	.LBE736:
 3822               	.LBE735:
 3823               	.LFE69:
 3825               	.global	Timebase_DownCounter_Set_Securely
 3827               	Timebase_DownCounter_Set_Securely:
 3828               	.LFB70:
 3829               	.LM391:
 3830               	.LVL236:
 3831 113e 0F93      		push r16
 3832 1140 1F93      		push r17
 3833 1142 CF93      		push r28
 3834 1144 DF93      		push r29
 3835               	/* prologue: function */
 3836               	/* frame size = 0 */
 3837               	.LBB737:
 3838               	.LBB738:
 3839               	.LM392:
 3840 1146 C091 0000 		lds r28,Timebase
 3841 114a D091 0000 		lds r29,(Timebase)+1
 3842 114e 082F      		mov r16,r24
 3843 1150 10E0      		ldi r17,lo8(0)
 3844               	.LBE738:
 3845               	.LBE737:
 3846               	.LM393:
 3847 1152 8DE0      		ldi r24,lo8(13)
 3848 1154 90E0      		ldi r25,hi8(13)
 3849               	.LVL237:
 3850 1156 089F      		mul r16,r24
 3851 1158 F001      		movw r30,r0
 3852 115a 099F      		mul r16,r25
 3853 115c F00D      		add r31,r0
 3854 115e 189F      		mul r17,r24
 3855 1160 F00D      		add r31,r0
 3856 1162 1124      		clr r1
 3857 1164 EC0F      		add r30,r28
 3858 1166 FD1F      		adc r31,r29
 3859 1168 E456      		subi r30,lo8(-(156))
 3860 116a FF4F      		sbci r31,hi8(-(156))
 3861 116c 8081      		ld r24,Z
 3862 116e EC59      		subi r30,lo8(-(-156))
 3863 1170 F040      		sbci r31,hi8(-(-156))
 3864 1172 8695      		lsr r24
 3865 1174 8F70      		andi r24,lo8(15)
 3866 1176 01F4      		brne .L187
 3867               	.LBB739:
 3868               	.LBB740:
 3869               	.LM394:
 3870 1178 EF55      		subi r30,lo8(-(161))
 3871 117a FF4F      		sbci r31,hi8(-(161))
 3872 117c 4083      		st Z,r20
 3873 117e 5183      		std Z+1,r21
 3874 1180 6283      		std Z+2,r22
 3875 1182 7383      		std Z+3,r23
 3876               	.LBE740:
 3877               	.LBE739:
 3878               	.LBB741:
 3879               	.LBB742:
 3880               	.LBB743:
 3881               	.LBB744:
 3882               	.LM395:
 3883               	/* #APP */
 3884               	 ;  337 "timebase.c" 1
 3885 1184 F894      		cli
 3886               	 ;  0 "" 2
 3887               	/* #NOAPP */
 3888               	.LBE744:
 3889               	.LBE743:
 3890               	.LM396:
 3891 1186 8A85      		ldd r24,Y+10
 3892 1188 9B85      		ldd r25,Y+11
 3893 118a AC85      		ldd r26,Y+12
 3894 118c BD85      		ldd r27,Y+13
 3895               	.LVL238:
 3896               	.LBB745:
 3897               	.LBB746:
 3898               	.LM397:
 3899               	/* #APP */
 3900               	 ;  341 "timebase.c" 1
 3901 118e 7894      		sei
 3902               	 ;  0 "" 2
 3903               	/* #NOAPP */
 3904               	.LBE746:
 3905               	.LBE745:
 3906               	.LBE742:
 3907               	.LBE741:
 3908               	.LBB747:
 3909               	.LBB748:
 3910               	.LM398:
 3911 1190 2DE0      		ldi r18,lo8(13)
 3912 1192 30E0      		ldi r19,hi8(13)
 3913 1194 029F      		mul r16,r18
 3914 1196 F001      		movw r30,r0
 3915 1198 039F      		mul r16,r19
 3916 119a F00D      		add r31,r0
 3917 119c 129F      		mul r17,r18
 3918 119e F00D      		add r31,r0
 3919 11a0 1124      		clr r1
 3920 11a2 EC0F      		add r30,r28
 3921 11a4 FD1F      		adc r31,r29
 3922 11a6 E356      		subi r30,lo8(-(157))
 3923 11a8 FF4F      		sbci r31,hi8(-(157))
 3924 11aa 840F      		add r24,r20
 3925 11ac 951F      		adc r25,r21
 3926 11ae A61F      		adc r26,r22
 3927 11b0 B71F      		adc r27,r23
 3928 11b2 8083      		st Z,r24
 3929 11b4 9183      		std Z+1,r25
 3930 11b6 A283      		std Z+2,r26
 3931 11b8 B383      		std Z+3,r27
 3932               	.LBE748:
 3933               	.LBE747:
 3934               	.LBB749:
 3935               	.LBB750:
 3936               	.LM399:
 3937 11ba 9291      		ld r25,-Z
 3938 11bc 892F      		mov r24,r25
 3939               	.LVL239:
 3940 11be 8695      		lsr r24
 3941 11c0 8F70      		andi r24,lo8(15)
 3942 11c2 8130      		cpi r24,lo8(1)
 3943 11c4 01F0      		breq .L187
 3944               	.LBB751:
 3945               	.LBB752:
 3946               	.LM400:
 3947 11c6 917E      		andi r25,lo8(-31)
 3948 11c8 9260      		ori r25,lo8(2)
 3949 11ca 9083      		st Z,r25
 3950               	.L187:
 3951               	/* epilogue start */
 3952               	.LBE752:
 3953               	.LBE751:
 3954               	.LBE750:
 3955               	.LBE749:
 3956               	.LM401:
 3957 11cc DF91      		pop r29
 3958 11ce CF91      		pop r28
 3959 11d0 1F91      		pop r17
 3960 11d2 0F91      		pop r16
 3961 11d4 0895      		ret
 3962               	.LFE70:
 3964               	.global	Timebase_DownCounter_Set_Forcefully
 3966               	Timebase_DownCounter_Set_Forcefully:
 3967               	.LFB71:
 3968               	.LM402:
 3969               	.LVL240:
 3970 11d6 CF93      		push r28
 3971 11d8 DF93      		push r29
 3972               	/* prologue: function */
 3973               	/* frame size = 0 */
 3974               	.LBB753:
 3975               	.LBB754:
 3976               	.LBB755:
 3977               	.LBB756:
 3978               	.LM403:
 3979 11da E091 0000 		lds r30,Timebase
 3980 11de F091 0000 		lds r31,(Timebase)+1
 3981 11e2 A82F      		mov r26,r24
 3982 11e4 B0E0      		ldi r27,lo8(0)
 3983 11e6 2DE0      		ldi r18,lo8(13)
 3984 11e8 30E0      		ldi r19,hi8(13)
 3985 11ea E901      		movw r28,r18
 3986 11ec AC9F      		mul r26,r28
 3987 11ee 9001      		movw r18,r0
 3988 11f0 AD9F      		mul r26,r29
 3989 11f2 300D      		add r19,r0
 3990 11f4 BC9F      		mul r27,r28
 3991 11f6 300D      		add r19,r0
 3992 11f8 1124      		clr r1
 3993 11fa E20F      		add r30,r18
 3994 11fc F31F      		adc r31,r19
 3995 11fe E356      		subi r30,lo8(-(157))
 3996 1200 FF4F      		sbci r31,hi8(-(157))
 3997 1202 1192      		st Z+,__zero_reg__
 3998 1204 1192      		st Z+,__zero_reg__
 3999 1206 1192      		st Z+,__zero_reg__
 4000 1208 1192      		st Z+,__zero_reg__
 4001               	.LBE756:
 4002               	.LBE755:
 4003               	.LBB757:
 4004               	.LBB758:
 4005               	.LM404:
 4006 120a 1082      		st Z,__zero_reg__
 4007 120c 1182      		std Z+1,__zero_reg__
 4008 120e 1282      		std Z+2,__zero_reg__
 4009 1210 1382      		std Z+3,__zero_reg__
 4010               	.LBE758:
 4011               	.LBE757:
 4012               	.LBB759:
 4013               	.LBB760:
 4014               	.LM405:
 4015 1212 3597      		sbiw r30,5
 4016 1214 9081      		ld r25,Z
 4017               	.LBE760:
 4018               	.LBE759:
 4019               	.LBB761:
 4020               	.LBB762:
 4021               	.LM406:
 4022 1216 907E      		andi r25,lo8(-32)
 4023 1218 9083      		st Z,r25
 4024               	.LBE762:
 4025               	.LBE761:
 4026               	.LBE754:
 4027               	.LBE753:
 4028               	.LM407:
 4029 121a 0E94 0000 		call Timebase_DownCounter_Set_Securely
 4030               	.LVL241:
 4031               	/* epilogue start */
 4032               	.LM408:
 4033 121e DF91      		pop r29
 4034 1220 CF91      		pop r28
 4035 1222 0895      		ret
 4036               	.LFE71:
 4038               	.global	Timebase_DownCounter_Update
 4040               	Timebase_DownCounter_Update:
 4041               	.LFB72:
 4042               	.LM409:
 4043               	.LVL242:
 4044 1224 CF93      		push r28
 4045 1226 DF93      		push r29
 4046               	/* prologue: function */
 4047               	/* frame size = 0 */
 4048               	.LBB763:
 4049               	.LBB764:
 4050               	.LM410:
 4051 1228 C091 0000 		lds r28,Timebase
 4052 122c D091 0000 		lds r29,(Timebase)+1
 4053 1230 682F      		mov r22,r24
 4054 1232 70E0      		ldi r23,lo8(0)
 4055 1234 8DE0      		ldi r24,lo8(13)
 4056 1236 90E0      		ldi r25,hi8(13)
 4057               	.LVL243:
 4058 1238 689F      		mul r22,r24
 4059 123a F001      		movw r30,r0
 4060 123c 699F      		mul r22,r25
 4061 123e F00D      		add r31,r0
 4062 1240 789F      		mul r23,r24
 4063 1242 F00D      		add r31,r0
 4064 1244 1124      		clr r1
 4065 1246 EC0F      		add r30,r28
 4066 1248 FD1F      		adc r31,r29
 4067 124a E456      		subi r30,lo8(-(156))
 4068 124c FF4F      		sbci r31,hi8(-(156))
 4069 124e E081      		ld r30,Z
 4070 1250 E695      		lsr r30
 4071 1252 EF70      		andi r30,lo8(15)
 4072               	.LBE764:
 4073               	.LBE763:
 4074               	.LM411:
 4075 1254 E130      		cpi r30,lo8(1)
 4076 1256 01F4      		brne .L191
 4077               	.LBB765:
 4078               	.LBB766:
 4079               	.LBB767:
 4080               	.LBB768:
 4081               	.LM412:
 4082               	/* #APP */
 4083               	 ;  337 "timebase.c" 1
 4084 1258 F894      		cli
 4085               	 ;  0 "" 2
 4086               	/* #NOAPP */
 4087               	.LBE768:
 4088               	.LBE767:
 4089               	.LM413:
 4090 125a 2A85      		ldd r18,Y+10
 4091 125c 3B85      		ldd r19,Y+11
 4092 125e 4C85      		ldd r20,Y+12
 4093 1260 5D85      		ldd r21,Y+13
 4094               	.LVL244:
 4095               	.LBB769:
 4096               	.LBB770:
 4097               	.LM414:
 4098               	/* #APP */
 4099               	 ;  341 "timebase.c" 1
 4100 1262 7894      		sei
 4101               	 ;  0 "" 2
 4102               	/* #NOAPP */
 4103               	.LBE770:
 4104               	.LBE769:
 4105               	.LBE766:
 4106               	.LBE765:
 4107               	.LM415:
 4108 1264 8DE0      		ldi r24,lo8(13)
 4109 1266 90E0      		ldi r25,hi8(13)
 4110 1268 689F      		mul r22,r24
 4111 126a F001      		movw r30,r0
 4112 126c 699F      		mul r22,r25
 4113 126e F00D      		add r31,r0
 4114 1270 789F      		mul r23,r24
 4115 1272 F00D      		add r31,r0
 4116 1274 1124      		clr r1
 4117 1276 EC0F      		add r30,r28
 4118 1278 FD1F      		adc r31,r29
 4119 127a BF01      		movw r22,r30
 4120 127c 6356      		subi r22,lo8(-(157))
 4121 127e 7F4F      		sbci r23,hi8(-(157))
 4122 1280 EB01      		movw r28,r22
 4123 1282 8881      		ld r24,Y
 4124 1284 9981      		ldd r25,Y+1
 4125 1286 AA81      		ldd r26,Y+2
 4126 1288 BB81      		ldd r27,Y+3
 4127 128a 821B      		sub r24,r18
 4128 128c 930B      		sbc r25,r19
 4129 128e A40B      		sbc r26,r20
 4130 1290 B50B      		sbc r27,r21
 4131               	.LBB771:
 4132               	.LBB772:
 4133               	.LM416:
 4134 1292 EF01      		movw r28,r30
 4135 1294 CF55      		subi r28,lo8(-(161))
 4136 1296 DF4F      		sbci r29,hi8(-(161))
 4137 1298 8883      		st Y,r24
 4138 129a 9983      		std Y+1,r25
 4139 129c AA83      		std Y+2,r26
 4140 129e BB83      		std Y+3,r27
 4141               	.LBE772:
 4142               	.LBE771:
 4143               	.LM417:
 4144 12a0 1816      		cp __zero_reg__,r24
 4145 12a2 1906      		cpc __zero_reg__,r25
 4146 12a4 1A06      		cpc __zero_reg__,r26
 4147 12a6 1B06      		cpc __zero_reg__,r27
 4148 12a8 04F0      		brlt .L193
 4149               	.LBB773:
 4150               	.LBB774:
 4151               	.LBB775:
 4152               	.LBB776:
 4153               	.LM418:
 4154 12aa DB01      		movw r26,r22
 4155 12ac 1D92      		st X+,__zero_reg__
 4156 12ae 1D92      		st X+,__zero_reg__
 4157 12b0 1D92      		st X+,__zero_reg__
 4158 12b2 1C92      		st X,__zero_reg__
 4159 12b4 1397      		sbiw r26,3
 4160               	.LBE776:
 4161               	.LBE775:
 4162               	.LBB777:
 4163               	.LBB778:
 4164               	.LM419:
 4165 12b6 1882      		st Y,__zero_reg__
 4166 12b8 1982      		std Y+1,__zero_reg__
 4167 12ba 1A82      		std Y+2,__zero_reg__
 4168 12bc 1B82      		std Y+3,__zero_reg__
 4169               	.LBE778:
 4170               	.LBE777:
 4171               	.LBB779:
 4172               	.LBB780:
 4173               	.LM420:
 4174 12be E456      		subi r30,lo8(-(156))
 4175 12c0 FF4F      		sbci r31,hi8(-(156))
 4176 12c2 8081      		ld r24,Z
 4177               	.LBE780:
 4178               	.LBE779:
 4179               	.LBE774:
 4180               	.LBE773:
 4181               	.LBB781:
 4182               	.LBB782:
 4183               	.LM421:
 4184 12c4 807E      		andi r24,lo8(-32)
 4185 12c6 8860      		ori r24,lo8(8)
 4186 12c8 8083      		st Z,r24
 4187 12ca 00C0      		rjmp .L193
 4188               	.LVL245:
 4189               	.L191:
 4190               	.LBE782:
 4191               	.LBE781:
 4192               	.LM422:
 4193 12cc E230      		cpi r30,lo8(2)
 4194 12ce 01F4      		brne .L193
 4195               	.LBB783:
 4196               	.LBB784:
 4197               	.LBB785:
 4198               	.LBB786:
 4199               	.LM423:
 4200               	/* #APP */
 4201               	 ;  337 "timebase.c" 1
 4202 12d0 F894      		cli
 4203               	 ;  0 "" 2
 4204               	/* #NOAPP */
 4205               	.LBE786:
 4206               	.LBE785:
 4207               	.LM424:
 4208 12d2 8A85      		ldd r24,Y+10
 4209 12d4 9B85      		ldd r25,Y+11
 4210 12d6 AC85      		ldd r26,Y+12
 4211 12d8 BD85      		ldd r27,Y+13
 4212               	.LVL246:
 4213               	.LBB787:
 4214               	.LBB788:
 4215               	.LM425:
 4216               	/* #APP */
 4217               	 ;  341 "timebase.c" 1
 4218 12da 7894      		sei
 4219               	 ;  0 "" 2
 4220               	/* #NOAPP */
 4221               	.LBE788:
 4222               	.LBE787:
 4223               	.LBE784:
 4224               	.LBE783:
 4225               	.LBB789:
 4226               	.LBB790:
 4227               	.LM426:
 4228 12dc 2DE0      		ldi r18,lo8(13)
 4229 12de 30E0      		ldi r19,hi8(13)
 4230 12e0 629F      		mul r22,r18
 4231 12e2 F001      		movw r30,r0
 4232 12e4 639F      		mul r22,r19
 4233 12e6 F00D      		add r31,r0
 4234 12e8 729F      		mul r23,r18
 4235 12ea F00D      		add r31,r0
 4236 12ec 1124      		clr r1
 4237 12ee EC0F      		add r30,r28
 4238 12f0 FD1F      		adc r31,r29
 4239 12f2 EF55      		subi r30,lo8(-(161))
 4240 12f4 FF4F      		sbci r31,hi8(-(161))
 4241 12f6 2081      		ld r18,Z
 4242 12f8 3181      		ldd r19,Z+1
 4243 12fa 4281      		ldd r20,Z+2
 4244 12fc 5381      		ldd r21,Z+3
 4245 12fe 820F      		add r24,r18
 4246 1300 931F      		adc r25,r19
 4247 1302 A41F      		adc r26,r20
 4248 1304 B51F      		adc r27,r21
 4249 1306 B293      		st -Z,r27
 4250 1308 A293      		st -Z,r26
 4251 130a 9293      		st -Z,r25
 4252 130c 8293      		st -Z,r24
 4253               	.LVL247:
 4254               	.L193:
 4255               	/* epilogue start */
 4256               	.LBE790:
 4257               	.LBE789:
 4258               	.LM427:
 4259 130e DF91      		pop r29
 4260 1310 CF91      		pop r28
 4261 1312 0895      		ret
 4262               	.LFE72:
 4264               	.global	Timebase_DownCounter_Expired
 4266               	Timebase_DownCounter_Expired:
 4267               	.LFB73:
 4268               	.LM428:
 4269               	.LVL248:
 4270               	/* prologue: function */
 4271               	/* frame size = 0 */
 4272               	.LM429:
 4273 1314 40E0      		ldi r20,lo8(0)
 4274 1316 E091 0000 		lds r30,Timebase
 4275 131a F091 0000 		lds r31,(Timebase)+1
 4276 131e 90E0      		ldi r25,lo8(0)
 4277               	.LVL249:
 4278 1320 2DE0      		ldi r18,lo8(13)
 4279 1322 30E0      		ldi r19,hi8(13)
 4280 1324 BC01      		movw r22,r24
 4281 1326 629F      		mul r22,r18
 4282 1328 C001      		movw r24,r0
 4283 132a 639F      		mul r22,r19
 4284 132c 900D      		add r25,r0
 4285 132e 729F      		mul r23,r18
 4286 1330 900D      		add r25,r0
 4287 1332 1124      		clr r1
 4288               	.LVL250:
 4289 1334 E80F      		add r30,r24
 4290 1336 F91F      		adc r31,r25
 4291 1338 E456      		subi r30,lo8(-(156))
 4292 133a FF4F      		sbci r31,hi8(-(156))
 4293 133c 8081      		ld r24,Z
 4294 133e 8695      		lsr r24
 4295 1340 8F70      		andi r24,lo8(15)
 4296 1342 8430      		cpi r24,lo8(4)
 4297 1344 01F4      		brne .L195
 4298 1346 41E0      		ldi r20,lo8(1)
 4299               	.L195:
 4300               	.LM430:
 4301 1348 842F      		mov r24,r20
 4302               	/* epilogue start */
 4303 134a 0895      		ret
 4304               	.LFE73:
 4306               	.global	Timebase_DownCounter_Expired_Event
 4308               	Timebase_DownCounter_Expired_Event:
 4309               	.LFB74:
 4310               	.LM431:
 4311               	.LVL251:
 4312               	/* prologue: function */
 4313               	/* frame size = 0 */
 4314               	.LBB791:
 4315               	.LBB792:
 4316               	.LM432:
 4317 134c E091 0000 		lds r30,Timebase
 4318 1350 F091 0000 		lds r31,(Timebase)+1
 4319 1354 90E0      		ldi r25,lo8(0)
 4320               	.LBE792:
 4321               	.LBE791:
 4322               	.LM433:
 4323 1356 2DE0      		ldi r18,lo8(13)
 4324 1358 30E0      		ldi r19,hi8(13)
 4325 135a AC01      		movw r20,r24
 4326               	.LVL252:
 4327 135c 429F      		mul r20,r18
 4328 135e C001      		movw r24,r0
 4329 1360 439F      		mul r20,r19
 4330 1362 900D      		add r25,r0
 4331 1364 529F      		mul r21,r18
 4332 1366 900D      		add r25,r0
 4333 1368 1124      		clr r1
 4334 136a E80F      		add r30,r24
 4335 136c F91F      		adc r31,r25
 4336 136e DF01      		movw r26,r30
 4337 1370 A456      		subi r26,lo8(-(156))
 4338 1372 BF4F      		sbci r27,hi8(-(156))
 4339 1374 8C91      		ld r24,X
 4340 1376 8695      		lsr r24
 4341 1378 8F70      		andi r24,lo8(15)
 4342 137a 8430      		cpi r24,lo8(4)
 4343 137c 01F0      		breq .L198
 4344 137e 80E0      		ldi r24,lo8(0)
 4345 1380 0895      		ret
 4346               	.L198:
 4347               	.LBB793:
 4348               	.LBB794:
 4349               	.LBB795:
 4350               	.LBB796:
 4351               	.LBB797:
 4352               	.LBB798:
 4353               	.LM434:
 4354 1382 E356      		subi r30,lo8(-(157))
 4355 1384 FF4F      		sbci r31,hi8(-(157))
 4356 1386 1192      		st Z+,__zero_reg__
 4357 1388 1192      		st Z+,__zero_reg__
 4358 138a 1192      		st Z+,__zero_reg__
 4359 138c 1192      		st Z+,__zero_reg__
 4360               	.LBE798:
 4361               	.LBE797:
 4362               	.LBB799:
 4363               	.LBB800:
 4364               	.LM435:
 4365 138e 1082      		st Z,__zero_reg__
 4366 1390 1182      		std Z+1,__zero_reg__
 4367 1392 1282      		std Z+2,__zero_reg__
 4368 1394 1382      		std Z+3,__zero_reg__
 4369               	.LBE800:
 4370               	.LBE799:
 4371               	.LBB801:
 4372               	.LBB802:
 4373               	.LM436:
 4374 1396 8C91      		ld r24,X
 4375               	.LBE802:
 4376               	.LBE801:
 4377               	.LBB803:
 4378               	.LBB804:
 4379               	.LM437:
 4380 1398 807E      		andi r24,lo8(-32)
 4381 139a 8C93      		st X,r24
 4382 139c 81E0      		ldi r24,lo8(1)
 4383               	.LBE804:
 4384               	.LBE803:
 4385               	.LBE796:
 4386               	.LBE795:
 4387               	.LBE794:
 4388               	.LBE793:
 4389               	.LM438:
 4390 139e 0895      		ret
 4391               	.LFE74:
 4393               	.global	Timebase_DownCounter_Set_Period_Value_Securely
 4395               	Timebase_DownCounter_Set_Period_Value_Securely:
 4396               	.LFB75:
 4397               	.LM439:
 4398               	.LVL253:
 4399 13a0 CF93      		push r28
 4400 13a2 DF93      		push r29
 4401               	/* prologue: function */
 4402               	/* frame size = 0 */
 4403               	.LBB805:
 4404               	.LBB806:
 4405               	.LM440:
 4406 13a4 C091 0000 		lds r28,Timebase
 4407 13a8 D091 0000 		lds r29,(Timebase)+1
 4408 13ac 282F      		mov r18,r24
 4409 13ae 30E0      		ldi r19,lo8(0)
 4410               	.LBE806:
 4411               	.LBE805:
 4412               	.LM441:
 4413 13b0 8DE0      		ldi r24,lo8(13)
 4414 13b2 90E0      		ldi r25,hi8(13)
 4415               	.LVL254:
 4416 13b4 289F      		mul r18,r24
 4417 13b6 F001      		movw r30,r0
 4418 13b8 299F      		mul r18,r25
 4419 13ba F00D      		add r31,r0
 4420 13bc 389F      		mul r19,r24
 4421 13be F00D      		add r31,r0
 4422 13c0 1124      		clr r1
 4423 13c2 EC0F      		add r30,r28
 4424 13c4 FD1F      		adc r31,r29
 4425 13c6 E456      		subi r30,lo8(-(156))
 4426 13c8 FF4F      		sbci r31,hi8(-(156))
 4427 13ca 8081      		ld r24,Z
 4428 13cc EC59      		subi r30,lo8(-(-156))
 4429 13ce F040      		sbci r31,hi8(-(-156))
 4430 13d0 80FD      		sbrc r24,0
 4431 13d2 00C0      		rjmp .L205
 4432               	.LM442:
 4433 13d4 EF55      		subi r30,lo8(-(161))
 4434 13d6 FF4F      		sbci r31,hi8(-(161))
 4435 13d8 8191      		ld r24,Z+
 4436 13da 9191      		ld r25,Z+
 4437 13dc A191      		ld r26,Z+
 4438 13de B191      		ld r27,Z+
 4439 13e0 841B      		sub r24,r20
 4440 13e2 950B      		sbc r25,r21
 4441 13e4 A60B      		sbc r26,r22
 4442 13e6 B70B      		sbc r27,r23
 4443               	.LBB807:
 4444               	.LBB808:
 4445               	.LM443:
 4446 13e8 B7FF      		sbrs r27,7
 4447 13ea 00C0      		rjmp .L203
 4448               	.LM444:
 4449 13ec 1082      		st Z,__zero_reg__
 4450 13ee 1182      		std Z+1,__zero_reg__
 4451 13f0 1282      		std Z+2,__zero_reg__
 4452 13f2 1382      		std Z+3,__zero_reg__
 4453 13f4 00C0      		rjmp .L204
 4454               	.L203:
 4455               	.LM445:
 4456 13f6 8083      		st Z,r24
 4457 13f8 9183      		std Z+1,r25
 4458 13fa A283      		std Z+2,r26
 4459 13fc B383      		std Z+3,r27
 4460               	.L204:
 4461               	.LBE808:
 4462               	.LBE807:
 4463               	.LBB809:
 4464               	.LBB810:
 4465               	.LM446:
 4466 13fe 8DE0      		ldi r24,lo8(13)
 4467 1400 90E0      		ldi r25,hi8(13)
 4468 1402 289F      		mul r18,r24
 4469 1404 F001      		movw r30,r0
 4470 1406 299F      		mul r18,r25
 4471 1408 F00D      		add r31,r0
 4472 140a 389F      		mul r19,r24
 4473 140c F00D      		add r31,r0
 4474 140e 1124      		clr r1
 4475 1410 EC0F      		add r30,r28
 4476 1412 FD1F      		adc r31,r29
 4477 1414 E456      		subi r30,lo8(-(156))
 4478 1416 FF4F      		sbci r31,hi8(-(156))
 4479 1418 8081      		ld r24,Z
 4480 141a 8160      		ori r24,lo8(1)
 4481 141c 8083      		st Z,r24
 4482               	.L205:
 4483               	/* epilogue start */
 4484               	.LBE810:
 4485               	.LBE809:
 4486               	.LM447:
 4487 141e DF91      		pop r29
 4488 1420 CF91      		pop r28
 4489 1422 0895      		ret
 4490               	.LFE75:
 4492               	.global	Timebase_DownCounter_Get_Remaining_Period_Value
 4494               	Timebase_DownCounter_Get_Remaining_Period_Value:
 4495               	.LFB76:
 4496               	.LM448:
 4497               	.LVL255:
 4498               	/* prologue: function */
 4499               	/* frame size = 0 */
 4500               	.LBB811:
 4501               	.LBB812:
 4502               	.LM449:
 4503 1424 E091 0000 		lds r30,Timebase
 4504 1428 F091 0000 		lds r31,(Timebase)+1
 4505 142c 90E0      		ldi r25,lo8(0)
 4506               	.LBE812:
 4507               	.LBE811:
 4508               	.LM450:
 4509 142e 2DE0      		ldi r18,lo8(13)
 4510 1430 30E0      		ldi r19,hi8(13)
 4511 1432 AC01      		movw r20,r24
 4512               	.LVL256:
 4513 1434 429F      		mul r20,r18
 4514 1436 C001      		movw r24,r0
 4515 1438 439F      		mul r20,r19
 4516 143a 900D      		add r25,r0
 4517 143c 529F      		mul r21,r18
 4518 143e 900D      		add r25,r0
 4519 1440 1124      		clr r1
 4520 1442 E80F      		add r30,r24
 4521 1444 F91F      		adc r31,r25
 4522 1446 DF01      		movw r26,r30
 4523 1448 AB55      		subi r26,lo8(-(165))
 4524 144a BF4F      		sbci r27,hi8(-(165))
 4525 144c EF55      		subi r30,lo8(-(161))
 4526 144e FF4F      		sbci r31,hi8(-(161))
 4527 1450 2081      		ld r18,Z
 4528 1452 3181      		ldd r19,Z+1
 4529 1454 4281      		ldd r20,Z+2
 4530 1456 5381      		ldd r21,Z+3
 4531               	.LVL257:
 4532 1458 8D91      		ld r24,X+
 4533 145a 9D91      		ld r25,X+
 4534 145c 0D90      		ld __tmp_reg__,X+
 4535 145e BC91      		ld r27,X
 4536 1460 A02D      		mov r26,__tmp_reg__
 4537 1462 281B      		sub r18,r24
 4538 1464 390B      		sbc r19,r25
 4539 1466 4A0B      		sbc r20,r26
 4540 1468 5B0B      		sbc r21,r27
 4541 146a 57FF      		sbrs r21,7
 4542 146c 00C0      		rjmp .L207
 4543 146e 20E0      		ldi r18,lo8(0)
 4544 1470 30E0      		ldi r19,hi8(0)
 4545 1472 40E0      		ldi r20,hlo8(0)
 4546 1474 50E0      		ldi r21,hhi8(0)
 4547               	.L207:
 4548               	.LM451:
 4549 1476 B901      		movw r22,r18
 4550               	.LVL258:
 4551 1478 CA01      		movw r24,r20
 4552               	/* epilogue start */
 4553 147a 0895      		ret
 4554               	.LFE76:
 4556               	.global	Timebase_DownCounter_Period_Value_Expired
 4558               	Timebase_DownCounter_Period_Value_Expired:
 4559               	.LFB77:
 4560               	.LM452:
 4561               	.LVL259:
 4562 147c CF93      		push r28
 4563 147e DF93      		push r29
 4564               	/* prologue: function */
 4565               	/* frame size = 0 */
 4566               	.LBB813:
 4567               	.LBB814:
 4568               	.LBB815:
 4569               	.LBB816:
 4570               	.LM453:
 4571 1480 C091 0000 		lds r28,Timebase
 4572 1484 D091 0000 		lds r29,(Timebase)+1
 4573 1488 682F      		mov r22,r24
 4574 148a 70E0      		ldi r23,lo8(0)
 4575               	.LBE816:
 4576               	.LBE815:
 4577               	.LM454:
 4578 148c 8DE0      		ldi r24,lo8(13)
 4579 148e 90E0      		ldi r25,hi8(13)
 4580               	.LVL260:
 4581 1490 689F      		mul r22,r24
 4582 1492 F001      		movw r30,r0
 4583 1494 699F      		mul r22,r25
 4584 1496 F00D      		add r31,r0
 4585 1498 789F      		mul r23,r24
 4586 149a F00D      		add r31,r0
 4587 149c 1124      		clr r1
 4588 149e EC0F      		add r30,r28
 4589 14a0 FD1F      		adc r31,r29
 4590 14a2 DF01      		movw r26,r30
 4591 14a4 AB55      		subi r26,lo8(-(165))
 4592 14a6 BF4F      		sbci r27,hi8(-(165))
 4593 14a8 EF55      		subi r30,lo8(-(161))
 4594 14aa FF4F      		sbci r31,hi8(-(161))
 4595 14ac 2081      		ld r18,Z
 4596 14ae 3181      		ldd r19,Z+1
 4597 14b0 4281      		ldd r20,Z+2
 4598 14b2 5381      		ldd r21,Z+3
 4599               	.LVL261:
 4600 14b4 8D91      		ld r24,X+
 4601 14b6 9D91      		ld r25,X+
 4602 14b8 0D90      		ld __tmp_reg__,X+
 4603 14ba BC91      		ld r27,X
 4604 14bc A02D      		mov r26,__tmp_reg__
 4605 14be 281B      		sub r18,r24
 4606 14c0 390B      		sbc r19,r25
 4607 14c2 4A0B      		sbc r20,r26
 4608 14c4 5B0B      		sbc r21,r27
 4609               	.LM455:
 4610 14c6 57FD      		sbrc r21,7
 4611 14c8 00C0      		rjmp .L210
 4612               	.LBE814:
 4613               	.LBE813:
 4614               	.LM456:
 4615 14ca 2115      		cp r18,__zero_reg__
 4616 14cc 3105      		cpc r19,__zero_reg__
 4617 14ce 4105      		cpc r20,__zero_reg__
 4618 14d0 5105      		cpc r21,__zero_reg__
 4619 14d2 01F0      		breq .L210
 4620 14d4 20E0      		ldi r18,lo8(0)
 4621               	.LVL262:
 4622 14d6 00C0      		rjmp .L211
 4623               	.LVL263:
 4624               	.L210:
 4625 14d8 20E0      		ldi r18,lo8(0)
 4626               	.LVL264:
 4627 14da 8DE0      		ldi r24,lo8(13)
 4628 14dc 90E0      		ldi r25,hi8(13)
 4629 14de AC01      		movw r20,r24
 4630 14e0 649F      		mul r22,r20
 4631 14e2 C001      		movw r24,r0
 4632 14e4 659F      		mul r22,r21
 4633 14e6 900D      		add r25,r0
 4634 14e8 749F      		mul r23,r20
 4635 14ea 900D      		add r25,r0
 4636 14ec 1124      		clr r1
 4637 14ee C80F      		add r28,r24
 4638 14f0 D91F      		adc r29,r25
 4639 14f2 C456      		subi r28,lo8(-(156))
 4640 14f4 DF4F      		sbci r29,hi8(-(156))
 4641 14f6 8881      		ld r24,Y
 4642 14f8 80FF      		sbrs r24,0
 4643 14fa 21E0      		ldi r18,lo8(1)
 4644               	.L212:
 4645 14fc 81E0      		ldi r24,lo8(1)
 4646 14fe 2827      		eor r18,r24
 4647               	.L211:
 4648               	.LM457:
 4649 1500 822F      		mov r24,r18
 4650               	/* epilogue start */
 4651 1502 DF91      		pop r29
 4652 1504 CF91      		pop r28
 4653 1506 0895      		ret
 4654               	.LFE77:
 4656               	.global	Timebase_DownCounter_Period_Value_Expired_Event
 4658               	Timebase_DownCounter_Period_Value_Expired_Event:
 4659               	.LFB78:
 4660               	.LM458:
 4661               	.LVL265:
 4662 1508 1F93      		push r17
 4663               	/* prologue: function */
 4664               	/* frame size = 0 */
 4665 150a 182F      		mov r17,r24
 4666               	.LM459:
 4667 150c 0E94 0000 		call Timebase_DownCounter_Period_Value_Expired
 4668               	.LVL266:
 4669 1510 8130      		cpi r24,lo8(1)
 4670 1512 01F0      		breq .L215
 4671 1514 80E0      		ldi r24,lo8(0)
 4672 1516 00C0      		rjmp .L216
 4673               	.L215:
 4674               	.LBB817:
 4675               	.LBB818:
 4676               	.LM460:
 4677 1518 E091 0000 		lds r30,Timebase
 4678 151c F091 0000 		lds r31,(Timebase)+1
 4679 1520 212F      		mov r18,r17
 4680 1522 30E0      		ldi r19,lo8(0)
 4681               	.LVL267:
 4682 1524 8DE0      		ldi r24,lo8(13)
 4683 1526 90E0      		ldi r25,hi8(13)
 4684 1528 AC01      		movw r20,r24
 4685 152a 249F      		mul r18,r20
 4686 152c C001      		movw r24,r0
 4687 152e 259F      		mul r18,r21
 4688 1530 900D      		add r25,r0
 4689 1532 349F      		mul r19,r20
 4690 1534 900D      		add r25,r0
 4691 1536 1124      		clr r1
 4692 1538 E80F      		add r30,r24
 4693 153a F91F      		adc r31,r25
 4694 153c E456      		subi r30,lo8(-(156))
 4695 153e FF4F      		sbci r31,hi8(-(156))
 4696 1540 8081      		ld r24,Z
 4697 1542 8E7F      		andi r24,lo8(-2)
 4698 1544 8083      		st Z,r24
 4699 1546 81E0      		ldi r24,lo8(1)
 4700               	.L216:
 4701               	/* epilogue start */
 4702               	.LBE818:
 4703               	.LBE817:
 4704               	.LM461:
 4705 1548 1F91      		pop r17
 4706               	.LVL268:
 4707 154a 0895      		ret
 4708               	.LFE78:
 4710               	.global	Timebase_DownCounter_Update_All
 4712               	Timebase_DownCounter_Update_All:
 4713               	.LFB79:
 4714               	.LM462:
 4715 154c 1F93      		push r17
 4716               	/* prologue: function */
 4717               	/* frame size = 0 */
 4718               	.LM463:
 4719 154e 10E0      		ldi r17,lo8(0)
 4720               	.LVL269:
 4721               	.L219:
 4722               	.LBB819:
 4723               	.LM464:
 4724 1550 812F      		mov r24,r17
 4725 1552 0E94 0000 		call Timebase_DownCounter_Update
 4726               	.LM465:
 4727 1556 1F5F      		subi r17,lo8(-(1))
 4728 1558 1530      		cpi r17,lo8(5)
 4729 155a 01F4      		brne .L219
 4730               	/* epilogue start */
 4731               	.LBE819:
 4732               	.LM466:
 4733 155c 1F91      		pop r17
 4734               	.LVL270:
 4735 155e 0895      		ret
 4736               	.LFE79:
 4738               	.global	Timebase_DownCounter_Reset_All
 4740               	Timebase_DownCounter_Reset_All:
 4741               	.LFB80:
 4742               	.LM467:
 4743               	/* prologue: function */
 4744               	/* frame size = 0 */
 4745               	.LBB820:
 4746               	.LBB821:
 4747               	.LBB822:
 4748               	.LBB823:
 4749               	.LBB824:
 4750               	.LM468:
 4751 1560 4091 0000 		lds r20,Timebase
 4752 1564 5091 0000 		lds r21,(Timebase)+1
 4753 1568 DA01      		movw r26,r20
 4754 156a A356      		subi r26,lo8(-(157))
 4755 156c BF4F      		sbci r27,hi8(-(157))
 4756 156e 20E0      		ldi r18,lo8(0)
 4757 1570 30E0      		ldi r19,hi8(0)
 4758               	.LBE824:
 4759               	.LBE823:
 4760               	.LBB826:
 4761               	.LBB827:
 4762               	.LM469:
 4763 1572 6DE0      		ldi r22,lo8(13)
 4764 1574 70E0      		ldi r23,hi8(13)
 4765               	.L223:
 4766               	.LBE827:
 4767               	.LBE826:
 4768               	.LBB829:
 4769               	.LBB825:
 4770               	.LM470:
 4771 1576 1D92      		st X+,__zero_reg__
 4772 1578 1D92      		st X+,__zero_reg__
 4773 157a 1D92      		st X+,__zero_reg__
 4774 157c 1C92      		st X,__zero_reg__
 4775 157e 1397      		sbiw r26,3
 4776               	.LBE825:
 4777               	.LBE829:
 4778               	.LBB830:
 4779               	.LBB831:
 4780               	.LM471:
 4781 1580 1496      		adiw r26,4
 4782 1582 1D92      		st X+,__zero_reg__
 4783 1584 1D92      		st X+,__zero_reg__
 4784 1586 1D92      		st X+,__zero_reg__
 4785 1588 1C92      		st X,__zero_reg__
 4786 158a 1797      		sbiw r26,4+3
 4787               	.LBE831:
 4788               	.LBE830:
 4789               	.LBB832:
 4790               	.LBB828:
 4791               	.LM472:
 4792 158c 269F      		mul r18,r22
 4793 158e F001      		movw r30,r0
 4794 1590 279F      		mul r18,r23
 4795 1592 F00D      		add r31,r0
 4796 1594 369F      		mul r19,r22
 4797 1596 F00D      		add r31,r0
 4798 1598 1124      		clr r1
 4799 159a E40F      		add r30,r20
 4800 159c F51F      		adc r31,r21
 4801 159e E456      		subi r30,lo8(-(156))
 4802 15a0 FF4F      		sbci r31,hi8(-(156))
 4803 15a2 8081      		ld r24,Z
 4804               	.LBE828:
 4805               	.LBE832:
 4806               	.LBB833:
 4807               	.LBB834:
 4808               	.LM473:
 4809 15a4 807E      		andi r24,lo8(-32)
 4810 15a6 8083      		st Z,r24
 4811 15a8 2F5F      		subi r18,lo8(-(1))
 4812 15aa 3F4F      		sbci r19,hi8(-(1))
 4813 15ac 1D96      		adiw r26,13
 4814               	.LBE834:
 4815               	.LBE833:
 4816               	.LBE822:
 4817               	.LBE821:
 4818               	.LM474:
 4819 15ae 2530      		cpi r18,5
 4820 15b0 3105      		cpc r19,__zero_reg__
 4821 15b2 01F4      		brne .L223
 4822               	/* epilogue start */
 4823               	.LBE820:
 4824               	.LM475:
 4825 15b4 0895      		ret
 4826               	.LFE80:
 4828               	.global	Timebase_DownCounter_SS_Get_Status
 4830               	Timebase_DownCounter_SS_Get_Status:
 4831               	.LFB81:
 4832               	.LM476:
 4833               	.LVL271:
 4834               	/* prologue: function */
 4835               	/* frame size = 0 */
 4836               	.LM477:
 4837 15b6 E091 0000 		lds r30,Timebase
 4838 15ba F091 0000 		lds r31,(Timebase)+1
 4839 15be 90E0      		ldi r25,lo8(0)
 4840               	.LVL272:
 4841 15c0 9C01      		movw r18,r24
 4842 15c2 44E0      		ldi r20,4
 4843 15c4 220F      	1:	lsl r18
 4844 15c6 331F      		rol r19
 4845 15c8 4A95      		dec r20
 4846 15ca 01F4      		brne 1b
 4847 15cc 280F      		add r18,r24
 4848 15ce 391F      		adc r19,r25
 4849 15d0 E20F      		add r30,r18
 4850 15d2 F31F      		adc r31,r19
 4851 15d4 E95B      		subi r30,lo8(-(71))
 4852 15d6 FF4F      		sbci r31,hi8(-(71))
 4853 15d8 8081      		ld r24,Z
 4854               	.LVL273:
 4855 15da 8695      		lsr r24
 4856               	.LM478:
 4857 15dc 8F70      		andi r24,lo8(15)
 4858               	/* epilogue start */
 4859 15de 0895      		ret
 4860               	.LFE81:
 4862               	.global	Timebase_DownCounter_SS_Set_Status
 4864               	Timebase_DownCounter_SS_Set_Status:
 4865               	.LFB82:
 4866               	.LM479:
 4867               	.LVL274:
 4868               	/* prologue: function */
 4869               	/* frame size = 0 */
 4870               	.LM480:
 4871 15e0 E091 0000 		lds r30,Timebase
 4872 15e4 F091 0000 		lds r31,(Timebase)+1
 4873 15e8 90E0      		ldi r25,lo8(0)
 4874               	.LVL275:
 4875 15ea 9C01      		movw r18,r24
 4876 15ec 54E0      		ldi r21,4
 4877 15ee 220F      	1:	lsl r18
 4878 15f0 331F      		rol r19
 4879 15f2 5A95      		dec r21
 4880 15f4 01F4      		brne 1b
 4881 15f6 280F      		add r18,r24
 4882 15f8 391F      		adc r19,r25
 4883 15fa E20F      		add r30,r18
 4884 15fc F31F      		adc r31,r19
 4885 15fe E95B      		subi r30,lo8(-(71))
 4886 1600 FF4F      		sbci r31,hi8(-(71))
 4887 1602 6F70      		andi r22,lo8(15)
 4888               	.LVL276:
 4889 1604 660F      		lsl r22
 4890 1606 8081      		ld r24,Z
 4891               	.LVL277:
 4892 1608 817E      		andi r24,lo8(-31)
 4893 160a 862B      		or r24,r22
 4894 160c 8083      		st Z,r24
 4895               	/* epilogue start */
 4896               	.LM481:
 4897 160e 0895      		ret
 4898               	.LFE82:
 4900               	.global	Timebase_DownCounter_SS_Get_Value
 4902               	Timebase_DownCounter_SS_Get_Value:
 4903               	.LFB83:
 4904               	.LM482:
 4905               	.LVL278:
 4906               	/* prologue: function */
 4907               	/* frame size = 0 */
 4908               	.LM483:
 4909 1610 E091 0000 		lds r30,Timebase
 4910 1614 F091 0000 		lds r31,(Timebase)+1
 4911 1618 90E0      		ldi r25,lo8(0)
 4912               	.LVL279:
 4913 161a 9C01      		movw r18,r24
 4914 161c 64E0      		ldi r22,4
 4915 161e 220F      	1:	lsl r18
 4916 1620 331F      		rol r19
 4917 1622 6A95      		dec r22
 4918 1624 01F4      		brne 1b
 4919 1626 280F      		add r18,r24
 4920 1628 391F      		adc r19,r25
 4921 162a E20F      		add r30,r18
 4922 162c F31F      		adc r31,r19
 4923 162e E05B      		subi r30,lo8(-(80))
 4924 1630 FF4F      		sbci r31,hi8(-(80))
 4925 1632 6081      		ld r22,Z
 4926 1634 7181      		ldd r23,Z+1
 4927               	.LM484:
 4928 1636 8281      		ldd r24,Z+2
 4929               	.LVL280:
 4930 1638 9381      		ldd r25,Z+3
 4931               	.LVL281:
 4932               	/* epilogue start */
 4933 163a 0895      		ret
 4934               	.LFE83:
 4936               	.global	Timebase_DownCounter_SS_Set_Value
 4938               	Timebase_DownCounter_SS_Set_Value:
 4939               	.LFB84:
 4940               	.LM485:
 4941               	.LVL282:
 4942               	/* prologue: function */
 4943               	/* frame size = 0 */
 4944               	.LM486:
 4945 163c E091 0000 		lds r30,Timebase
 4946 1640 F091 0000 		lds r31,(Timebase)+1
 4947 1644 90E0      		ldi r25,lo8(0)
 4948               	.LVL283:
 4949 1646 9C01      		movw r18,r24
 4950 1648 A4E0      		ldi r26,4
 4951 164a 220F      	1:	lsl r18
 4952 164c 331F      		rol r19
 4953 164e AA95      		dec r26
 4954 1650 01F4      		brne 1b
 4955 1652 280F      		add r18,r24
 4956 1654 391F      		adc r19,r25
 4957 1656 E20F      		add r30,r18
 4958 1658 F31F      		adc r31,r19
 4959 165a E05B      		subi r30,lo8(-(80))
 4960 165c FF4F      		sbci r31,hi8(-(80))
 4961 165e 4083      		st Z,r20
 4962 1660 5183      		std Z+1,r21
 4963 1662 6283      		std Z+2,r22
 4964 1664 7383      		std Z+3,r23
 4965               	/* epilogue start */
 4966               	.LM487:
 4967 1666 0895      		ret
 4968               	.LFE84:
 4970               	.global	Timebase_DownCounter_SS_Get_EndValueSec
 4972               	Timebase_DownCounter_SS_Get_EndValueSec:
 4973               	.LFB85:
 4974               	.LM488:
 4975               	.LVL284:
 4976               	/* prologue: function */
 4977               	/* frame size = 0 */
 4978               	.LM489:
 4979 1668 E091 0000 		lds r30,Timebase
 4980 166c F091 0000 		lds r31,(Timebase)+1
 4981 1670 90E0      		ldi r25,lo8(0)
 4982               	.LVL285:
 4983 1672 9C01      		movw r18,r24
 4984 1674 B4E0      		ldi r27,4
 4985 1676 220F      	1:	lsl r18
 4986 1678 331F      		rol r19
 4987 167a BA95      		dec r27
 4988 167c 01F4      		brne 1b
 4989 167e 280F      		add r18,r24
 4990 1680 391F      		adc r19,r25
 4991 1682 E20F      		add r30,r18
 4992 1684 F31F      		adc r31,r19
 4993 1686 E85B      		subi r30,lo8(-(72))
 4994 1688 FF4F      		sbci r31,hi8(-(72))
 4995 168a 6081      		ld r22,Z
 4996 168c 7181      		ldd r23,Z+1
 4997               	.LM490:
 4998 168e 8281      		ldd r24,Z+2
 4999               	.LVL286:
 5000 1690 9381      		ldd r25,Z+3
 5001               	.LVL287:
 5002               	/* epilogue start */
 5003 1692 0895      		ret
 5004               	.LFE85:
 5006               	.global	Timebase_DownCounter_SS_Get_EndValueSubSec
 5008               	Timebase_DownCounter_SS_Get_EndValueSubSec:
 5009               	.LFB86:
 5010               	.LM491:
 5011               	.LVL288:
 5012               	/* prologue: function */
 5013               	/* frame size = 0 */
 5014               	.LM492:
 5015 1694 E091 0000 		lds r30,Timebase
 5016 1698 F091 0000 		lds r31,(Timebase)+1
 5017 169c 90E0      		ldi r25,lo8(0)
 5018               	.LVL289:
 5019 169e 9C01      		movw r18,r24
 5020 16a0 44E0      		ldi r20,4
 5021 16a2 220F      	1:	lsl r18
 5022 16a4 331F      		rol r19
 5023 16a6 4A95      		dec r20
 5024 16a8 01F4      		brne 1b
 5025 16aa 280F      		add r18,r24
 5026 16ac 391F      		adc r19,r25
 5027 16ae E20F      		add r30,r18
 5028 16b0 F31F      		adc r31,r19
 5029 16b2 E45B      		subi r30,lo8(-(76))
 5030 16b4 FF4F      		sbci r31,hi8(-(76))
 5031 16b6 6081      		ld r22,Z
 5032 16b8 7181      		ldd r23,Z+1
 5033               	.LM493:
 5034 16ba 8281      		ldd r24,Z+2
 5035               	.LVL290:
 5036 16bc 9381      		ldd r25,Z+3
 5037               	.LVL291:
 5038               	/* epilogue start */
 5039 16be 0895      		ret
 5040               	.LFE86:
 5042               	.global	Timebase_DownCounter_SS_Set_EndValueSec
 5044               	Timebase_DownCounter_SS_Set_EndValueSec:
 5045               	.LFB87:
 5046               	.LM494:
 5047               	.LVL292:
 5048               	/* prologue: function */
 5049               	/* frame size = 0 */
 5050               	.LM495:
 5051 16c0 E091 0000 		lds r30,Timebase
 5052 16c4 F091 0000 		lds r31,(Timebase)+1
 5053 16c8 90E0      		ldi r25,lo8(0)
 5054               	.LVL293:
 5055 16ca 9C01      		movw r18,r24
 5056 16cc A4E0      		ldi r26,4
 5057 16ce 220F      	1:	lsl r18
 5058 16d0 331F      		rol r19
 5059 16d2 AA95      		dec r26
 5060 16d4 01F4      		brne 1b
 5061 16d6 280F      		add r18,r24
 5062 16d8 391F      		adc r19,r25
 5063 16da E20F      		add r30,r18
 5064 16dc F31F      		adc r31,r19
 5065 16de E85B      		subi r30,lo8(-(72))
 5066 16e0 FF4F      		sbci r31,hi8(-(72))
 5067 16e2 4083      		st Z,r20
 5068 16e4 5183      		std Z+1,r21
 5069 16e6 6283      		std Z+2,r22
 5070 16e8 7383      		std Z+3,r23
 5071               	/* epilogue start */
 5072               	.LM496:
 5073 16ea 0895      		ret
 5074               	.LFE87:
 5076               	.global	Timebase_DownCounter_SS_Set_EndValueSubSec
 5078               	Timebase_DownCounter_SS_Set_EndValueSubSec:
 5079               	.LFB88:
 5080               	.LM497:
 5081               	.LVL294:
 5082               	/* prologue: function */
 5083               	/* frame size = 0 */
 5084               	.LM498:
 5085 16ec E091 0000 		lds r30,Timebase
 5086 16f0 F091 0000 		lds r31,(Timebase)+1
 5087 16f4 90E0      		ldi r25,lo8(0)
 5088               	.LVL295:
 5089 16f6 9C01      		movw r18,r24
 5090 16f8 B4E0      		ldi r27,4
 5091 16fa 220F      	1:	lsl r18
 5092 16fc 331F      		rol r19
 5093 16fe BA95      		dec r27
 5094 1700 01F4      		brne 1b
 5095 1702 280F      		add r18,r24
 5096 1704 391F      		adc r19,r25
 5097 1706 E20F      		add r30,r18
 5098 1708 F31F      		adc r31,r19
 5099 170a E45B      		subi r30,lo8(-(76))
 5100 170c FF4F      		sbci r31,hi8(-(76))
 5101 170e 4083      		st Z,r20
 5102 1710 5183      		std Z+1,r21
 5103 1712 6283      		std Z+2,r22
 5104 1714 7383      		std Z+3,r23
 5105               	/* epilogue start */
 5106               	.LM499:
 5107 1716 0895      		ret
 5108               	.LFE88:
 5110               	.global	Timebase_DownCounter_SS_Get_PeriodValue
 5112               	Timebase_DownCounter_SS_Get_PeriodValue:
 5113               	.LFB89:
 5114               	.LM500:
 5115               	.LVL296:
 5116               	/* prologue: function */
 5117               	/* frame size = 0 */
 5118               	.LM501:
 5119 1718 E091 0000 		lds r30,Timebase
 5120 171c F091 0000 		lds r31,(Timebase)+1
 5121 1720 90E0      		ldi r25,lo8(0)
 5122               	.LVL297:
 5123 1722 9C01      		movw r18,r24
 5124 1724 44E0      		ldi r20,4
 5125 1726 220F      	1:	lsl r18
 5126 1728 331F      		rol r19
 5127 172a 4A95      		dec r20
 5128 172c 01F4      		brne 1b
 5129 172e 280F      		add r18,r24
 5130 1730 391F      		adc r19,r25
 5131 1732 E20F      		add r30,r18
 5132 1734 F31F      		adc r31,r19
 5133 1736 EC5A      		subi r30,lo8(-(84))
 5134 1738 FF4F      		sbci r31,hi8(-(84))
 5135 173a 6081      		ld r22,Z
 5136 173c 7181      		ldd r23,Z+1
 5137               	.LM502:
 5138 173e 8281      		ldd r24,Z+2
 5139               	.LVL298:
 5140 1740 9381      		ldd r25,Z+3
 5141               	.LVL299:
 5142               	/* epilogue start */
 5143 1742 0895      		ret
 5144               	.LFE89:
 5146               	.global	Timebase_DownCounter_SS_Set_PeriodValue
 5148               	Timebase_DownCounter_SS_Set_PeriodValue:
 5149               	.LFB90:
 5150               	.LM503:
 5151               	.LVL300:
 5152               	/* prologue: function */
 5153               	/* frame size = 0 */
 5154 1744 E091 0000 		lds r30,Timebase
 5155 1748 F091 0000 		lds r31,(Timebase)+1
 5156 174c 282F      		mov r18,r24
 5157 174e 30E0      		ldi r19,lo8(0)
 5158               	.LVL301:
 5159               	.LM504:
 5160 1750 77FF      		sbrs r23,7
 5161 1752 00C0      		rjmp .L245
 5162               	.LVL302:
 5163               	.LM505:
 5164 1754 C901      		movw r24,r18
 5165 1756 B4E0      		ldi r27,4
 5166 1758 880F      	1:	lsl r24
 5167 175a 991F      		rol r25
 5168 175c BA95      		dec r27
 5169 175e 01F4      		brne 1b
 5170 1760 820F      		add r24,r18
 5171 1762 931F      		adc r25,r19
 5172 1764 E80F      		add r30,r24
 5173 1766 F91F      		adc r31,r25
 5174 1768 EC5A      		subi r30,lo8(-(84))
 5175 176a FF4F      		sbci r31,hi8(-(84))
 5176 176c 1082      		st Z,__zero_reg__
 5177 176e 1182      		std Z+1,__zero_reg__
 5178 1770 1282      		std Z+2,__zero_reg__
 5179 1772 1382      		std Z+3,__zero_reg__
 5180 1774 0895      		ret
 5181               	.LVL303:
 5182               	.L245:
 5183               	.LM506:
 5184 1776 C901      		movw r24,r18
 5185 1778 A4E0      		ldi r26,4
 5186 177a 880F      	1:	lsl r24
 5187 177c 991F      		rol r25
 5188 177e AA95      		dec r26
 5189 1780 01F4      		brne 1b
 5190 1782 820F      		add r24,r18
 5191 1784 931F      		adc r25,r19
 5192 1786 E80F      		add r30,r24
 5193 1788 F91F      		adc r31,r25
 5194 178a EC5A      		subi r30,lo8(-(84))
 5195 178c FF4F      		sbci r31,hi8(-(84))
 5196 178e 4083      		st Z,r20
 5197 1790 5183      		std Z+1,r21
 5198 1792 6283      		std Z+2,r22
 5199 1794 7383      		std Z+3,r23
 5200 1796 0895      		ret
 5201               	.LFE90:
 5203               	.global	Timebase_DownCounter_SS_Get_Period_Flag
 5205               	Timebase_DownCounter_SS_Get_Period_Flag:
 5206               	.LFB91:
 5207               	.LM507:
 5208               	.LVL304:
 5209               	/* prologue: function */
 5210               	/* frame size = 0 */
 5211               	.LM508:
 5212 1798 E091 0000 		lds r30,Timebase
 5213 179c F091 0000 		lds r31,(Timebase)+1
 5214 17a0 90E0      		ldi r25,lo8(0)
 5215               	.LVL305:
 5216 17a2 9C01      		movw r18,r24
 5217 17a4 44E0      		ldi r20,4
 5218 17a6 220F      	1:	lsl r18
 5219 17a8 331F      		rol r19
 5220 17aa 4A95      		dec r20
 5221 17ac 01F4      		brne 1b
 5222 17ae 280F      		add r18,r24
 5223 17b0 391F      		adc r19,r25
 5224 17b2 E20F      		add r30,r18
 5225 17b4 F31F      		adc r31,r19
 5226 17b6 E95B      		subi r30,lo8(-(71))
 5227 17b8 FF4F      		sbci r31,hi8(-(71))
 5228 17ba 8081      		ld r24,Z
 5229               	.LVL306:
 5230               	.LM509:
 5231 17bc 8170      		andi r24,lo8(1)
 5232               	/* epilogue start */
 5233 17be 0895      		ret
 5234               	.LFE91:
 5236               	.global	Timebase_DownCounter_SS_Set_Period_Flag
 5238               	Timebase_DownCounter_SS_Set_Period_Flag:
 5239               	.LFB92:
 5240               	.LM510:
 5241               	.LVL307:
 5242               	/* prologue: function */
 5243               	/* frame size = 0 */
 5244               	.LM511:
 5245 17c0 E091 0000 		lds r30,Timebase
 5246 17c4 F091 0000 		lds r31,(Timebase)+1
 5247 17c8 90E0      		ldi r25,lo8(0)
 5248               	.LVL308:
 5249 17ca 9C01      		movw r18,r24
 5250 17cc 54E0      		ldi r21,4
 5251 17ce 220F      	1:	lsl r18
 5252 17d0 331F      		rol r19
 5253 17d2 5A95      		dec r21
 5254 17d4 01F4      		brne 1b
 5255 17d6 280F      		add r18,r24
 5256 17d8 391F      		adc r19,r25
 5257 17da E20F      		add r30,r18
 5258 17dc F31F      		adc r31,r19
 5259 17de E95B      		subi r30,lo8(-(71))
 5260 17e0 FF4F      		sbci r31,hi8(-(71))
 5261 17e2 8081      		ld r24,Z
 5262               	.LVL309:
 5263 17e4 8160      		ori r24,lo8(1)
 5264 17e6 8083      		st Z,r24
 5265               	/* epilogue start */
 5266               	.LM512:
 5267 17e8 0895      		ret
 5268               	.LFE92:
 5270               	.global	Timebase_DownCounter_SS_Clear_Period_Flag
 5272               	Timebase_DownCounter_SS_Clear_Period_Flag:
 5273               	.LFB93:
 5274               	.LM513:
 5275               	.LVL310:
 5276               	/* prologue: function */
 5277               	/* frame size = 0 */
 5278               	.LM514:
 5279 17ea E091 0000 		lds r30,Timebase
 5280 17ee F091 0000 		lds r31,(Timebase)+1
 5281 17f2 90E0      		ldi r25,lo8(0)
 5282               	.LVL311:
 5283 17f4 9C01      		movw r18,r24
 5284 17f6 64E0      		ldi r22,4
 5285 17f8 220F      	1:	lsl r18
 5286 17fa 331F      		rol r19
 5287 17fc 6A95      		dec r22
 5288 17fe 01F4      		brne 1b
 5289 1800 280F      		add r18,r24
 5290 1802 391F      		adc r19,r25
 5291 1804 E20F      		add r30,r18
 5292 1806 F31F      		adc r31,r19
 5293 1808 E95B      		subi r30,lo8(-(71))
 5294 180a FF4F      		sbci r31,hi8(-(71))
 5295 180c 8081      		ld r24,Z
 5296               	.LVL312:
 5297 180e 8E7F      		andi r24,lo8(-2)
 5298 1810 8083      		st Z,r24
 5299               	/* epilogue start */
 5300               	.LM515:
 5301 1812 0895      		ret
 5302               	.LFE93:
 5304               	.global	Timebase_DownCounter_SS_Reset
 5306               	Timebase_DownCounter_SS_Reset:
 5307               	.LFB94:
 5308               	.LM516:
 5309               	.LVL313:
 5310               	/* prologue: function */
 5311               	/* frame size = 0 */
 5312               	.LBB835:
 5313               	.LBB836:
 5314               	.LM517:
 5315 1814 E091 0000 		lds r30,Timebase
 5316 1818 F091 0000 		lds r31,(Timebase)+1
 5317 181c 90E0      		ldi r25,lo8(0)
 5318 181e 9C01      		movw r18,r24
 5319               	.LVL314:
 5320 1820 74E0      		ldi r23,4
 5321 1822 220F      	1:	lsl r18
 5322 1824 331F      		rol r19
 5323 1826 7A95      		dec r23
 5324 1828 01F4      		brne 1b
 5325 182a 280F      		add r18,r24
 5326 182c 391F      		adc r19,r25
 5327 182e E20F      		add r30,r18
 5328 1830 F31F      		adc r31,r19
 5329 1832 E45B      		subi r30,lo8(-(76))
 5330 1834 FF4F      		sbci r31,hi8(-(76))
 5331 1836 1082      		st Z,__zero_reg__
 5332 1838 1182      		std Z+1,__zero_reg__
 5333 183a 1282      		std Z+2,__zero_reg__
 5334 183c 1382      		std Z+3,__zero_reg__
 5335               	.LBE836:
 5336               	.LBE835:
 5337               	.LBB837:
 5338               	.LBB838:
 5339               	.LM518:
 5340 183e 1292      		st -Z,__zero_reg__
 5341 1840 1292      		st -Z,__zero_reg__
 5342 1842 1292      		st -Z,__zero_reg__
 5343 1844 1292      		st -Z,__zero_reg__
 5344               	.LBE838:
 5345               	.LBE837:
 5346               	.LBB839:
 5347               	.LBB840:
 5348               	.LM519:
 5349 1846 3896      		adiw r30,8
 5350 1848 1082      		st Z,__zero_reg__
 5351 184a 1182      		std Z+1,__zero_reg__
 5352 184c 1282      		std Z+2,__zero_reg__
 5353 184e 1382      		std Z+3,__zero_reg__
 5354               	.LBE840:
 5355               	.LBE839:
 5356               	.LBB841:
 5357               	.LBB842:
 5358               	.LM520:
 5359 1850 3997      		sbiw r30,9
 5360 1852 8081      		ld r24,Z
 5361               	.LBE842:
 5362               	.LBE841:
 5363               	.LBB843:
 5364               	.LBB844:
 5365               	.LM521:
 5366 1854 807E      		andi r24,lo8(-32)
 5367 1856 8083      		st Z,r24
 5368               	/* epilogue start */
 5369               	.LBE844:
 5370               	.LBE843:
 5371               	.LM522:
 5372 1858 0895      		ret
 5373               	.LFE94:
 5375               	.global	Timebase_DownCounter_SS_Clear_All_Flags
 5377               	Timebase_DownCounter_SS_Clear_All_Flags:
 5378               	.LFB95:
 5379               	.LM523:
 5380               	.LVL315:
 5381               	/* prologue: function */
 5382               	/* frame size = 0 */
 5383               	.LBB845:
 5384               	.LBB846:
 5385               	.LBB847:
 5386               	.LBB848:
 5387               	.LM524:
 5388 185a E091 0000 		lds r30,Timebase
 5389 185e F091 0000 		lds r31,(Timebase)+1
 5390 1862 90E0      		ldi r25,lo8(0)
 5391 1864 9C01      		movw r18,r24
 5392               	.LVL316:
 5393 1866 A4E0      		ldi r26,4
 5394 1868 220F      	1:	lsl r18
 5395 186a 331F      		rol r19
 5396 186c AA95      		dec r26
 5397 186e 01F4      		brne 1b
 5398 1870 280F      		add r18,r24
 5399 1872 391F      		adc r19,r25
 5400 1874 E20F      		add r30,r18
 5401 1876 F31F      		adc r31,r19
 5402 1878 E45B      		subi r30,lo8(-(76))
 5403 187a FF4F      		sbci r31,hi8(-(76))
 5404 187c 1082      		st Z,__zero_reg__
 5405 187e 1182      		std Z+1,__zero_reg__
 5406 1880 1282      		std Z+2,__zero_reg__
 5407 1882 1382      		std Z+3,__zero_reg__
 5408               	.LBE848:
 5409               	.LBE847:
 5410               	.LBB849:
 5411               	.LBB850:
 5412               	.LM525:
 5413 1884 1292      		st -Z,__zero_reg__
 5414 1886 1292      		st -Z,__zero_reg__
 5415 1888 1292      		st -Z,__zero_reg__
 5416 188a 1292      		st -Z,__zero_reg__
 5417               	.LBE850:
 5418               	.LBE849:
 5419               	.LBB851:
 5420               	.LBB852:
 5421               	.LM526:
 5422 188c 3896      		adiw r30,8
 5423 188e 1082      		st Z,__zero_reg__
 5424 1890 1182      		std Z+1,__zero_reg__
 5425 1892 1282      		std Z+2,__zero_reg__
 5426 1894 1382      		std Z+3,__zero_reg__
 5427               	.LBE852:
 5428               	.LBE851:
 5429               	.LBB853:
 5430               	.LBB854:
 5431               	.LM527:
 5432 1896 3997      		sbiw r30,9
 5433 1898 8081      		ld r24,Z
 5434               	.LBE854:
 5435               	.LBE853:
 5436               	.LBB855:
 5437               	.LBB856:
 5438               	.LM528:
 5439 189a 807E      		andi r24,lo8(-32)
 5440 189c 8083      		st Z,r24
 5441               	/* epilogue start */
 5442               	.LBE856:
 5443               	.LBE855:
 5444               	.LBE846:
 5445               	.LBE845:
 5446               	.LM529:
 5447 189e 0895      		ret
 5448               	.LFE95:
 5450               	.global	Timebase_DownCounter_SS_Start
 5452               	Timebase_DownCounter_SS_Start:
 5453               	.LFB96:
 5454               	.LM530:
 5455               	.LVL317:
 5456               	/* prologue: function */
 5457               	/* frame size = 0 */
 5458               	.LBB857:
 5459               	.LBB858:
 5460               	.LM531:
 5461 18a0 E091 0000 		lds r30,Timebase
 5462 18a4 F091 0000 		lds r31,(Timebase)+1
 5463 18a8 90E0      		ldi r25,lo8(0)
 5464               	.LBE858:
 5465               	.LBE857:
 5466               	.LM532:
 5467 18aa 9C01      		movw r18,r24
 5468               	.LVL318:
 5469 18ac B4E0      		ldi r27,4
 5470 18ae 220F      	1:	lsl r18
 5471 18b0 331F      		rol r19
 5472 18b2 BA95      		dec r27
 5473 18b4 01F4      		brne 1b
 5474 18b6 280F      		add r18,r24
 5475 18b8 391F      		adc r19,r25
 5476 18ba E20F      		add r30,r18
 5477 18bc F31F      		adc r31,r19
 5478 18be E95B      		subi r30,lo8(-(71))
 5479 18c0 FF4F      		sbci r31,hi8(-(71))
 5480 18c2 9081      		ld r25,Z
 5481 18c4 892F      		mov r24,r25
 5482 18c6 8695      		lsr r24
 5483 18c8 8F70      		andi r24,lo8(15)
 5484 18ca 8130      		cpi r24,lo8(1)
 5485 18cc 01F0      		breq .L260
 5486               	.LBB859:
 5487               	.LBB860:
 5488               	.LM533:
 5489 18ce 917E      		andi r25,lo8(-31)
 5490 18d0 9260      		ori r25,lo8(2)
 5491 18d2 9083      		st Z,r25
 5492               	.L260:
 5493 18d4 0895      		ret
 5494               	.LBE860:
 5495               	.LBE859:
 5496               	.LFE96:
 5498               	.global	Timebase_DownCounter_SS_Stop
 5500               	Timebase_DownCounter_SS_Stop:
 5501               	.LFB97:
 5502               	.LM534:
 5503               	.LVL319:
 5504               	/* prologue: function */
 5505               	/* frame size = 0 */
 5506               	.LBB861:
 5507               	.LBB862:
 5508               	.LM535:
 5509 18d6 E091 0000 		lds r30,Timebase
 5510 18da F091 0000 		lds r31,(Timebase)+1
 5511 18de 90E0      		ldi r25,lo8(0)
 5512               	.LBE862:
 5513               	.LBE861:
 5514               	.LM536:
 5515 18e0 9C01      		movw r18,r24
 5516               	.LVL320:
 5517 18e2 44E0      		ldi r20,4
 5518 18e4 220F      	1:	lsl r18
 5519 18e6 331F      		rol r19
 5520 18e8 4A95      		dec r20
 5521 18ea 01F4      		brne 1b
 5522 18ec 280F      		add r18,r24
 5523 18ee 391F      		adc r19,r25
 5524 18f0 E20F      		add r30,r18
 5525 18f2 F31F      		adc r31,r19
 5526 18f4 E95B      		subi r30,lo8(-(71))
 5527 18f6 FF4F      		sbci r31,hi8(-(71))
 5528 18f8 9081      		ld r25,Z
 5529 18fa 892F      		mov r24,r25
 5530 18fc 8695      		lsr r24
 5531 18fe 8F70      		andi r24,lo8(15)
 5532 1900 8230      		cpi r24,lo8(2)
 5533 1902 01F0      		breq .L263
 5534               	.LBB863:
 5535               	.LBB864:
 5536               	.LM537:
 5537 1904 917E      		andi r25,lo8(-31)
 5538 1906 9460      		ori r25,lo8(4)
 5539 1908 9083      		st Z,r25
 5540               	.L263:
 5541 190a 0895      		ret
 5542               	.LBE864:
 5543               	.LBE863:
 5544               	.LFE97:
 5546               	.global	Timebase_DownCounter_SS_Set_Securely
 5548               	Timebase_DownCounter_SS_Set_Securely:
 5549               	.LFB98:
 5550               	.LM538:
 5551               	.LVL321:
 5552 190c 2F92      		push r2
 5553 190e 3F92      		push r3
 5554 1910 4F92      		push r4
 5555 1912 5F92      		push r5
 5556 1914 6F92      		push r6
 5557 1916 7F92      		push r7
 5558 1918 8F92      		push r8
 5559 191a 9F92      		push r9
 5560 191c AF92      		push r10
 5561 191e BF92      		push r11
 5562 1920 CF92      		push r12
 5563 1922 DF92      		push r13
 5564 1924 EF92      		push r14
 5565 1926 FF92      		push r15
 5566 1928 0F93      		push r16
 5567 192a 1F93      		push r17
 5568 192c DF93      		push r29
 5569 192e CF93      		push r28
 5570 1930 00D0      		rcall .
 5571 1932 00D0      		rcall .
 5572 1934 CDB7      		in r28,__SP_L__
 5573 1936 DEB7      		in r29,__SP_H__
 5574               	/* prologue: function */
 5575               	/* frame size = 4 */
 5576 1938 4A01      		movw r8,r20
 5577 193a 5B01      		movw r10,r22
 5578               	.LBB865:
 5579               	.LBB866:
 5580               	.LM539:
 5581 193c 2091 0000 		lds r18,Timebase
 5582 1940 3091 0000 		lds r19,(Timebase)+1
 5583 1944 3C83      		std Y+4,r19
 5584 1946 2B83      		std Y+3,r18
 5585 1948 A82F      		mov r26,r24
 5586 194a B0E0      		ldi r27,lo8(0)
 5587 194c BA83      		std Y+2,r27
 5588 194e A983      		std Y+1,r26
 5589               	.LBE866:
 5590               	.LBE865:
 5591               	.LM540:
 5592 1950 FD01      		movw r30,r26
 5593 1952 64E0      		ldi r22,4
 5594 1954 EE0F      	1:	lsl r30
 5595 1956 FF1F      		rol r31
 5596 1958 6A95      		dec r22
 5597 195a 01F4      		brne 1b
 5598 195c EA0F      		add r30,r26
 5599 195e FB1F      		adc r31,r27
 5600 1960 E20F      		add r30,r18
 5601 1962 F31F      		adc r31,r19
 5602 1964 E95B      		subi r30,lo8(-(71))
 5603 1966 FF4F      		sbci r31,hi8(-(71))
 5604 1968 8081      		ld r24,Z
 5605               	.LVL322:
 5606 196a E754      		subi r30,lo8(-(-71))
 5607 196c F040      		sbci r31,hi8(-(-71))
 5608 196e 8695      		lsr r24
 5609 1970 8F70      		andi r24,lo8(15)
 5610 1972 01F0      		breq .+2
 5611 1974 00C0      		rjmp .L267
 5612               	.LVL323:
 5613               	.LBB867:
 5614               	.LBB868:
 5615               	.LBB869:
 5616               	.LM541:
 5617 1976 E05B      		subi r30,lo8(-(80))
 5618 1978 FF4F      		sbci r31,hi8(-(80))
 5619 197a 8082      		st Z,r8
 5620 197c 9182      		std Z+1,r9
 5621 197e A282      		std Z+2,r10
 5622 1980 B382      		std Z+3,r11
 5623               	.LBE869:
 5624               	.LBE868:
 5625               	.LBB870:
 5626               	.LBB871:
 5627               	.LBB872:
 5628               	.LBB873:
 5629               	.LM542:
 5630               	/* #APP */
 5631               	 ;  337 "timebase.c" 1
 5632 1982 F894      		cli
 5633               	 ;  0 "" 2
 5634               	/* #NOAPP */
 5635               	.LBE873:
 5636               	.LBE872:
 5637               	.LM543:
 5638 1984 F901      		movw r30,r18
 5639 1986 C084      		ldd r12,Z+8
 5640 1988 D184      		ldd r13,Z+9
 5641               	.LVL324:
 5642               	.LBB874:
 5643               	.LBB875:
 5644               	.LM544:
 5645               	/* #APP */
 5646               	 ;  341 "timebase.c" 1
 5647 198a 7894      		sei
 5648               	 ;  0 "" 2
 5649               	/* #NOAPP */
 5650               	.LBE875:
 5651               	.LBE874:
 5652               	.LBE871:
 5653               	.LBE870:
 5654               	.LBB876:
 5655               	.LBB877:
 5656               	.LBB878:
 5657               	.LBB879:
 5658               	.LM545:
 5659               	/* #APP */
 5660               	 ;  337 "timebase.c" 1
 5661 198c F894      		cli
 5662               	 ;  0 "" 2
 5663               	/* #NOAPP */
 5664               	.LBE879:
 5665               	.LBE878:
 5666               	.LM546:
 5667 198e 2284      		ldd r2,Z+10
 5668 1990 3384      		ldd r3,Z+11
 5669 1992 4484      		ldd r4,Z+12
 5670 1994 5584      		ldd r5,Z+13
 5671               	.LVL325:
 5672               	.LBB880:
 5673               	.LBB881:
 5674               	.LM547:
 5675               	/* #APP */
 5676               	 ;  341 "timebase.c" 1
 5677 1996 7894      		sei
 5678               	 ;  0 "" 2
 5679               	/* #NOAPP */
 5680               	.LBE881:
 5681               	.LBE880:
 5682               	.LBE877:
 5683               	.LBE876:
 5684               	.LM548:
 5685 1998 2181      		ldd r18,Z+1
 5686 199a 3281      		ldd r19,Z+2
 5687 199c 40E0      		ldi r20,lo8(0)
 5688 199e 50E0      		ldi r21,hi8(0)
 5689 19a0 C501      		movw r24,r10
 5690 19a2 B401      		movw r22,r8
 5691 19a4 0E94 0000 		call __divmodsi4
 5692 19a8 7B01      		movw r14,r22
 5693 19aa 8C01      		movw r16,r24
 5694               	.LM549:
 5695 19ac AB81      		ldd r26,Y+3
 5696 19ae BC81      		ldd r27,Y+4
 5697 19b0 1196      		adiw r26,1
 5698 19b2 2D91      		ld r18,X+
 5699 19b4 3C91      		ld r19,X
 5700 19b6 1297      		sbiw r26,1+1
 5701 19b8 40E0      		ldi r20,lo8(0)
 5702 19ba 50E0      		ldi r21,hi8(0)
 5703 19bc C501      		movw r24,r10
 5704 19be B401      		movw r22,r8
 5705 19c0 0E94 0000 		call __divmodsi4
 5706 19c4 C901      		movw r24,r18
 5707 19c6 DA01      		movw r26,r20
 5708 19c8 3C01      		movw r6,r24
 5709 19ca 4D01      		movw r8,r26
 5710               	.LVL326:
 5711               	.LM550:
 5712 19cc 5601      		movw r10,r12
 5713               	.LVL327:
 5714 19ce CC24      		clr r12
 5715 19d0 DD24      		clr r13
 5716               	.LVL328:
 5717 19d2 AE0C      		add r10,r14
 5718 19d4 BF1C      		adc r11,r15
 5719 19d6 C01E      		adc r12,r16
 5720 19d8 D11E      		adc r13,r17
 5721               	.LVL329:
 5722               	.LM551:
 5723 19da EB81      		ldd r30,Y+3
 5724 19dc FC81      		ldd r31,Y+4
 5725 19de 8181      		ldd r24,Z+1
 5726 19e0 9281      		ldd r25,Z+2
 5727               	.LVL330:
 5728 19e2 A0E0      		ldi r26,lo8(0)
 5729 19e4 B0E0      		ldi r27,hi8(0)
 5730 19e6 A816      		cp r10,r24
 5731 19e8 B906      		cpc r11,r25
 5732 19ea CA06      		cpc r12,r26
 5733 19ec DB06      		cpc r13,r27
 5734 19ee 04F0      		brlt .L266
 5735               	.LM552:
 5736 19f0 0894      		sec
 5737 19f2 611C      		adc r6,__zero_reg__
 5738 19f4 711C      		adc r7,__zero_reg__
 5739 19f6 811C      		adc r8,__zero_reg__
 5740 19f8 911C      		adc r9,__zero_reg__
 5741               	.LM553:
 5742 19fa 2181      		ldd r18,Z+1
 5743 19fc 3281      		ldd r19,Z+2
 5744 19fe 40E0      		ldi r20,lo8(0)
 5745 1a00 50E0      		ldi r21,hi8(0)
 5746 1a02 C601      		movw r24,r12
 5747 1a04 B501      		movw r22,r10
 5748 1a06 0E94 0000 		call __divmodsi4
 5749 1a0a AC01      		movw r20,r24
 5750 1a0c CB01      		movw r24,r22
 5751 1a0e DA01      		movw r26,r20
 5752 1a10 5C01      		movw r10,r24
 5753 1a12 6D01      		movw r12,r26
 5754               	.L266:
 5755               	.LBB882:
 5756               	.LBB883:
 5757               	.LM554:
 5758 1a14 E981      		ldd r30,Y+1
 5759 1a16 FA81      		ldd r31,Y+2
 5760 1a18 54E0      		ldi r21,4
 5761 1a1a EE0F      	1:	lsl r30
 5762 1a1c FF1F      		rol r31
 5763 1a1e 5A95      		dec r21
 5764 1a20 01F4      		brne 1b
 5765 1a22 2981      		ldd r18,Y+1
 5766 1a24 3A81      		ldd r19,Y+2
 5767 1a26 E20F      		add r30,r18
 5768 1a28 F31F      		adc r31,r19
 5769 1a2a 8B81      		ldd r24,Y+3
 5770 1a2c 9C81      		ldd r25,Y+4
 5771 1a2e E80F      		add r30,r24
 5772 1a30 F91F      		adc r31,r25
 5773 1a32 E85B      		subi r30,lo8(-(72))
 5774 1a34 FF4F      		sbci r31,hi8(-(72))
 5775 1a36 260C      		add r2,r6
 5776 1a38 371C      		adc r3,r7
 5777 1a3a 481C      		adc r4,r8
 5778 1a3c 591C      		adc r5,r9
 5779 1a3e 2192      		st Z+,r2
 5780 1a40 3192      		st Z+,r3
 5781 1a42 4192      		st Z+,r4
 5782 1a44 5192      		st Z+,r5
 5783               	.LBE883:
 5784               	.LBE882:
 5785               	.LBB884:
 5786               	.LBB885:
 5787               	.LM555:
 5788 1a46 A082      		st Z,r10
 5789 1a48 B182      		std Z+1,r11
 5790 1a4a C282      		std Z+2,r12
 5791 1a4c D382      		std Z+3,r13
 5792               	.LBE885:
 5793               	.LBE884:
 5794               	.LBB886:
 5795               	.LBB887:
 5796               	.LM556:
 5797 1a4e 3597      		sbiw r30,5
 5798 1a50 9081      		ld r25,Z
 5799 1a52 892F      		mov r24,r25
 5800 1a54 8695      		lsr r24
 5801 1a56 8F70      		andi r24,lo8(15)
 5802 1a58 8130      		cpi r24,lo8(1)
 5803 1a5a 01F0      		breq .L267
 5804               	.LBB888:
 5805               	.LBB889:
 5806               	.LM557:
 5807 1a5c 917E      		andi r25,lo8(-31)
 5808 1a5e 9260      		ori r25,lo8(2)
 5809 1a60 9083      		st Z,r25
 5810               	.LVL331:
 5811               	.L267:
 5812               	/* epilogue start */
 5813               	.LBE889:
 5814               	.LBE888:
 5815               	.LBE887:
 5816               	.LBE886:
 5817               	.LBE867:
 5818               	.LM558:
 5819 1a62 0F90      		pop __tmp_reg__
 5820 1a64 0F90      		pop __tmp_reg__
 5821 1a66 0F90      		pop __tmp_reg__
 5822 1a68 0F90      		pop __tmp_reg__
 5823 1a6a CF91      		pop r28
 5824 1a6c DF91      		pop r29
 5825 1a6e 1F91      		pop r17
 5826 1a70 0F91      		pop r16
 5827 1a72 FF90      		pop r15
 5828 1a74 EF90      		pop r14
 5829 1a76 DF90      		pop r13
 5830 1a78 CF90      		pop r12
 5831               	.LVL332:
 5832 1a7a BF90      		pop r11
 5833 1a7c AF90      		pop r10
 5834               	.LVL333:
 5835 1a7e 9F90      		pop r9
 5836 1a80 8F90      		pop r8
 5837               	.LVL334:
 5838 1a82 7F90      		pop r7
 5839 1a84 6F90      		pop r6
 5840               	.LVL335:
 5841 1a86 5F90      		pop r5
 5842 1a88 4F90      		pop r4
 5843 1a8a 3F90      		pop r3
 5844 1a8c 2F90      		pop r2
 5845               	.LVL336:
 5846 1a8e 0895      		ret
 5847               	.LFE98:
 5849               	.global	Timebase_DownCounter_SS_Set_Forcefully
 5851               	Timebase_DownCounter_SS_Set_Forcefully:
 5852               	.LFB99:
 5853               	.LM559:
 5854               	.LVL337:
 5855               	/* prologue: function */
 5856               	/* frame size = 0 */
 5857               	.LBB890:
 5858               	.LBB891:
 5859               	.LBB892:
 5860               	.LBB893:
 5861               	.LM560:
 5862 1a90 E091 0000 		lds r30,Timebase
 5863 1a94 F091 0000 		lds r31,(Timebase)+1
 5864 1a98 A82F      		mov r26,r24
 5865 1a9a B0E0      		ldi r27,lo8(0)
 5866 1a9c 9D01      		movw r18,r26
 5867 1a9e 94E0      		ldi r25,4
 5868 1aa0 220F      	1:	lsl r18
 5869 1aa2 331F      		rol r19
 5870 1aa4 9A95      		dec r25
 5871 1aa6 01F4      		brne 1b
 5872 1aa8 2A0F      		add r18,r26
 5873 1aaa 3B1F      		adc r19,r27
 5874 1aac E20F      		add r30,r18
 5875 1aae F31F      		adc r31,r19
 5876 1ab0 E45B      		subi r30,lo8(-(76))
 5877 1ab2 FF4F      		sbci r31,hi8(-(76))
 5878 1ab4 1082      		st Z,__zero_reg__
 5879 1ab6 1182      		std Z+1,__zero_reg__
 5880 1ab8 1282      		std Z+2,__zero_reg__
 5881 1aba 1382      		std Z+3,__zero_reg__
 5882               	.LBE893:
 5883               	.LBE892:
 5884               	.LBB894:
 5885               	.LBB895:
 5886               	.LM561:
 5887 1abc 1292      		st -Z,__zero_reg__
 5888 1abe 1292      		st -Z,__zero_reg__
 5889 1ac0 1292      		st -Z,__zero_reg__
 5890 1ac2 1292      		st -Z,__zero_reg__
 5891               	.LBE895:
 5892               	.LBE894:
 5893               	.LBB896:
 5894               	.LBB897:
 5895               	.LM562:
 5896 1ac4 3896      		adiw r30,8
 5897 1ac6 1082      		st Z,__zero_reg__
 5898 1ac8 1182      		std Z+1,__zero_reg__
 5899 1aca 1282      		std Z+2,__zero_reg__
 5900 1acc 1382      		std Z+3,__zero_reg__
 5901               	.LBE897:
 5902               	.LBE896:
 5903               	.LBB898:
 5904               	.LBB899:
 5905               	.LM563:
 5906 1ace 3997      		sbiw r30,9
 5907 1ad0 9081      		ld r25,Z
 5908               	.LBE899:
 5909               	.LBE898:
 5910               	.LBB900:
 5911               	.LBB901:
 5912               	.LM564:
 5913 1ad2 907E      		andi r25,lo8(-32)
 5914 1ad4 9083      		st Z,r25
 5915               	.LBE901:
 5916               	.LBE900:
 5917               	.LBE891:
 5918               	.LBE890:
 5919               	.LM565:
 5920 1ad6 0E94 0000 		call Timebase_DownCounter_SS_Set_Securely
 5921               	.LVL338:
 5922               	/* epilogue start */
 5923               	.LM566:
 5924 1ada 0895      		ret
 5925               	.LFE99:
 5927               	.global	Timebase_DownCounter_SS_Update
 5929               	Timebase_DownCounter_SS_Update:
 5930               	.LFB100:
 5931               	.LM567:
 5932               	.LVL339:
 5933 1adc 4F92      		push r4
 5934 1ade 5F92      		push r5
 5935 1ae0 6F92      		push r6
 5936 1ae2 7F92      		push r7
 5937 1ae4 8F92      		push r8
 5938 1ae6 9F92      		push r9
 5939 1ae8 AF92      		push r10
 5940 1aea BF92      		push r11
 5941 1aec CF92      		push r12
 5942 1aee DF92      		push r13
 5943 1af0 EF92      		push r14
 5944 1af2 FF92      		push r15
 5945 1af4 0F93      		push r16
 5946 1af6 1F93      		push r17
 5947 1af8 DF93      		push r29
 5948 1afa CF93      		push r28
 5949 1afc 00D0      		rcall .
 5950 1afe 00D0      		rcall .
 5951 1b00 CDB7      		in r28,__SP_L__
 5952 1b02 DEB7      		in r29,__SP_H__
 5953               	/* prologue: function */
 5954               	/* frame size = 4 */
 5955               	.LBB902:
 5956               	.LBB903:
 5957               	.LM568:
 5958 1b04 6090 0000 		lds r6,Timebase
 5959 1b08 7090 0000 		lds r7,(Timebase)+1
 5960 1b0c C82E      		mov r12,r24
 5961 1b0e DD24      		clr r13
 5962 1b10 F601      		movw r30,r12
 5963 1b12 54E0      		ldi r21,4
 5964 1b14 EE0F      	1:	lsl r30
 5965 1b16 FF1F      		rol r31
 5966 1b18 5A95      		dec r21
 5967 1b1a 01F4      		brne 1b
 5968 1b1c EC0D      		add r30,r12
 5969 1b1e FD1D      		adc r31,r13
 5970 1b20 E60D      		add r30,r6
 5971 1b22 F71D      		adc r31,r7
 5972 1b24 E95B      		subi r30,lo8(-(71))
 5973 1b26 FF4F      		sbci r31,hi8(-(71))
 5974 1b28 E081      		ld r30,Z
 5975 1b2a E695      		lsr r30
 5976 1b2c EF70      		andi r30,lo8(15)
 5977               	.LBE903:
 5978               	.LBE902:
 5979               	.LM569:
 5980 1b2e E130      		cpi r30,lo8(1)
 5981 1b30 01F0      		breq .+2
 5982 1b32 00C0      		rjmp .L271
 5983               	.LBB904:
 5984               	.LBB905:
 5985               	.LBB906:
 5986               	.LBB907:
 5987               	.LBB908:
 5988               	.LM570:
 5989               	/* #APP */
 5990               	 ;  337 "timebase.c" 1
 5991 1b34 F894      		cli
 5992               	 ;  0 "" 2
 5993               	/* #NOAPP */
 5994               	.LBE908:
 5995               	.LBE907:
 5996               	.LM571:
 5997 1b36 D301      		movw r26,r6
 5998 1b38 1896      		adiw r26,8
 5999 1b3a 8D91      		ld r24,X+
 6000 1b3c 9C91      		ld r25,X
 6001 1b3e 1997      		sbiw r26,8+1
 6002               	.LVL340:
 6003               	.LBB909:
 6004               	.LBB910:
 6005               	.LM572:
 6006               	/* #APP */
 6007               	 ;  341 "timebase.c" 1
 6008 1b40 7894      		sei
 6009               	 ;  0 "" 2
 6010               	/* #NOAPP */
 6011               	.LBE910:
 6012               	.LBE909:
 6013               	.LBE906:
 6014               	.LBE905:
 6015               	.LM573:
 6016 1b42 4C01      		movw r8,r24
 6017               	.LVL341:
 6018 1b44 AA24      		clr r10
 6019 1b46 BB24      		clr r11
 6020               	.LVL342:
 6021               	.LBB911:
 6022               	.LBB912:
 6023               	.LBB913:
 6024               	.LBB914:
 6025               	.LM574:
 6026               	/* #APP */
 6027               	 ;  337 "timebase.c" 1
 6028 1b48 F894      		cli
 6029               	 ;  0 "" 2
 6030               	/* #NOAPP */
 6031               	.LBE914:
 6032               	.LBE913:
 6033               	.LM575:
 6034 1b4a F301      		movw r30,r6
 6035 1b4c 8285      		ldd r24,Z+10
 6036 1b4e 9385      		ldd r25,Z+11
 6037 1b50 A485      		ldd r26,Z+12
 6038 1b52 B585      		ldd r27,Z+13
 6039               	.LVL343:
 6040               	.LBB915:
 6041               	.LBB916:
 6042               	.LM576:
 6043               	/* #APP */
 6044               	 ;  341 "timebase.c" 1
 6045 1b54 7894      		sei
 6046               	 ;  0 "" 2
 6047               	/* #NOAPP */
 6048               	.LBE916:
 6049               	.LBE915:
 6050               	.LBE912:
 6051               	.LBE911:
 6052               	.LM577:
 6053 1b56 F601      		movw r30,r12
 6054 1b58 44E0      		ldi r20,4
 6055 1b5a EE0F      	1:	lsl r30
 6056 1b5c FF1F      		rol r31
 6057 1b5e 4A95      		dec r20
 6058 1b60 01F4      		brne 1b
 6059 1b62 EC0D      		add r30,r12
 6060 1b64 FD1D      		adc r31,r13
 6061 1b66 E60D      		add r30,r6
 6062 1b68 F71D      		adc r31,r7
 6063 1b6a E85B      		subi r30,lo8(-(72))
 6064 1b6c FF4F      		sbci r31,hi8(-(72))
 6065 1b6e E080      		ld r14,Z
 6066 1b70 F180      		ldd r15,Z+1
 6067 1b72 0281      		ldd r16,Z+2
 6068 1b74 1381      		ldd r17,Z+3
 6069               	.LVL344:
 6070 1b76 E81A      		sub r14,r24
 6071 1b78 F90A      		sbc r15,r25
 6072 1b7a 0A0B      		sbc r16,r26
 6073 1b7c 1B0B      		sbc r17,r27
 6074 1b7e 17FF      		sbrs r17,7
 6075 1b80 00C0      		rjmp .L272
 6076 1b82 EE24      		clr r14
 6077 1b84 FF24      		clr r15
 6078 1b86 8701      		movw r16,r14
 6079               	.L272:
 6080               	.LM578:
 6081 1b88 D301      		movw r26,r6
 6082 1b8a 1196      		adiw r26,1
 6083 1b8c 2D91      		ld r18,X+
 6084 1b8e 3C91      		ld r19,X
 6085 1b90 1297      		sbiw r26,1+1
 6086 1b92 40E0      		ldi r20,lo8(0)
 6087 1b94 50E0      		ldi r21,hi8(0)
 6088 1b96 C801      		movw r24,r16
 6089 1b98 B701      		movw r22,r14
 6090 1b9a 0E94 0000 		call __mulsi3
 6091               	.LM579:
 6092 1b9e F601      		movw r30,r12
 6093 1ba0 34E0      		ldi r19,4
 6094 1ba2 EE0F      	1:	lsl r30
 6095 1ba4 FF1F      		rol r31
 6096 1ba6 3A95      		dec r19
 6097 1ba8 01F4      		brne 1b
 6098 1baa EC0D      		add r30,r12
 6099 1bac FD1D      		adc r31,r13
 6100 1bae E60D      		add r30,r6
 6101 1bb0 F71D      		adc r31,r7
 6102 1bb2 8F01      		movw r16,r30
 6103 1bb4 045B      		subi r16,lo8(-(76))
 6104 1bb6 1F4F      		sbci r17,hi8(-(76))
 6105 1bb8 D801      		movw r26,r16
 6106 1bba 2D91      		ld r18,X+
 6107 1bbc 3D91      		ld r19,X+
 6108 1bbe 4D91      		ld r20,X+
 6109 1bc0 5C91      		ld r21,X
 6110               	.LVL345:
 6111 1bc2 2819      		sub r18,r8
 6112 1bc4 3909      		sbc r19,r9
 6113 1bc6 4A09      		sbc r20,r10
 6114 1bc8 5B09      		sbc r21,r11
 6115 1bca 260F      		add r18,r22
 6116 1bcc 371F      		adc r19,r23
 6117 1bce 481F      		adc r20,r24
 6118 1bd0 591F      		adc r21,r25
 6119               	.LBB917:
 6120               	.LBB918:
 6121               	.LM580:
 6122 1bd2 CF01      		movw r24,r30
 6123 1bd4 805B      		subi r24,lo8(-(80))
 6124 1bd6 9F4F      		sbci r25,hi8(-(80))
 6125 1bd8 DC01      		movw r26,r24
 6126 1bda 2D93      		st X+,r18
 6127 1bdc 3D93      		st X+,r19
 6128 1bde 4D93      		st X+,r20
 6129 1be0 5C93      		st X,r21
 6130 1be2 1397      		sbiw r26,3
 6131               	.LBE918:
 6132               	.LBE917:
 6133               	.LM581:
 6134 1be4 1216      		cp __zero_reg__,r18
 6135 1be6 1306      		cpc __zero_reg__,r19
 6136 1be8 1406      		cpc __zero_reg__,r20
 6137 1bea 1506      		cpc __zero_reg__,r21
 6138 1bec 04F4      		brge .+2
 6139 1bee 00C0      		rjmp .L274
 6140               	.LBB919:
 6141               	.LBB920:
 6142               	.LBB921:
 6143               	.LBB922:
 6144               	.LM582:
 6145 1bf0 D801      		movw r26,r16
 6146 1bf2 1D92      		st X+,__zero_reg__
 6147 1bf4 1D92      		st X+,__zero_reg__
 6148 1bf6 1D92      		st X+,__zero_reg__
 6149 1bf8 1C92      		st X,__zero_reg__
 6150 1bfa 1397      		sbiw r26,3
 6151               	.LBE922:
 6152               	.LBE921:
 6153               	.LBB923:
 6154               	.LBB924:
 6155               	.LM583:
 6156 1bfc E85B      		subi r30,lo8(-(72))
 6157 1bfe FF4F      		sbci r31,hi8(-(72))
 6158 1c00 1082      		st Z,__zero_reg__
 6159 1c02 1182      		std Z+1,__zero_reg__
 6160 1c04 1282      		std Z+2,__zero_reg__
 6161 1c06 1382      		std Z+3,__zero_reg__
 6162               	.LBE924:
 6163               	.LBE923:
 6164               	.LBB925:
 6165               	.LBB926:
 6166               	.LM584:
 6167 1c08 DC01      		movw r26,r24
 6168 1c0a 1D92      		st X+,__zero_reg__
 6169 1c0c 1D92      		st X+,__zero_reg__
 6170 1c0e 1D92      		st X+,__zero_reg__
 6171 1c10 1C92      		st X,__zero_reg__
 6172 1c12 1397      		sbiw r26,3
 6173               	.LBE926:
 6174               	.LBE925:
 6175               	.LBB927:
 6176               	.LBB928:
 6177               	.LM585:
 6178 1c14 8291      		ld r24,-Z
 6179               	.LBE928:
 6180               	.LBE927:
 6181               	.LBE920:
 6182               	.LBE919:
 6183               	.LBB929:
 6184               	.LBB930:
 6185               	.LM586:
 6186 1c16 807E      		andi r24,lo8(-32)
 6187 1c18 8860      		ori r24,lo8(8)
 6188 1c1a 8083      		st Z,r24
 6189 1c1c 00C0      		rjmp .L274
 6190               	.LVL346:
 6191               	.L271:
 6192               	.LBE930:
 6193               	.LBE929:
 6194               	.LBE904:
 6195               	.LM587:
 6196 1c1e E230      		cpi r30,lo8(2)
 6197 1c20 01F0      		breq .+2
 6198 1c22 00C0      		rjmp .L274
 6199               	.LBB931:
 6200               	.LBB932:
 6201               	.LBB933:
 6202               	.LBB934:
 6203               	.LBB935:
 6204               	.LM588:
 6205               	/* #APP */
 6206               	 ;  337 "timebase.c" 1
 6207 1c24 F894      		cli
 6208               	 ;  0 "" 2
 6209               	/* #NOAPP */
 6210               	.LBE935:
 6211               	.LBE934:
 6212               	.LM589:
 6213 1c26 F301      		movw r30,r6
 6214 1c28 4084      		ldd r4,Z+8
 6215 1c2a 5184      		ldd r5,Z+9
 6216               	.LVL347:
 6217               	.LBB936:
 6218               	.LBB937:
 6219               	.LM590:
 6220               	/* #APP */
 6221               	 ;  341 "timebase.c" 1
 6222 1c2c 7894      		sei
 6223               	 ;  0 "" 2
 6224               	/* #NOAPP */
 6225               	.LBE937:
 6226               	.LBE936:
 6227               	.LBE933:
 6228               	.LBE932:
 6229               	.LBB938:
 6230               	.LBB939:
 6231               	.LBB940:
 6232               	.LBB941:
 6233               	.LM591:
 6234               	/* #APP */
 6235               	 ;  337 "timebase.c" 1
 6236 1c2e F894      		cli
 6237               	 ;  0 "" 2
 6238               	/* #NOAPP */
 6239               	.LBE941:
 6240               	.LBE940:
 6241               	.LM592:
 6242 1c30 D301      		movw r26,r6
 6243 1c32 1A96      		adiw r26,10
 6244 1c34 8D90      		ld r8,X+
 6245 1c36 9D90      		ld r9,X+
 6246 1c38 AD90      		ld r10,X+
 6247 1c3a BC90      		ld r11,X
 6248 1c3c 1D97      		sbiw r26,10+3
 6249               	.LVL348:
 6250               	.LBB942:
 6251               	.LBB943:
 6252               	.LM593:
 6253               	/* #APP */
 6254               	 ;  341 "timebase.c" 1
 6255 1c3e 7894      		sei
 6256               	 ;  0 "" 2
 6257               	/* #NOAPP */
 6258               	.LBE943:
 6259               	.LBE942:
 6260               	.LBE939:
 6261               	.LBE938:
 6262               	.LBB944:
 6263               	.LBB945:
 6264               	.LM594:
 6265 1c40 8601      		movw r16,r12
 6266 1c42 24E0      		ldi r18,4
 6267 1c44 000F      	1:	lsl r16
 6268 1c46 111F      		rol r17
 6269 1c48 2A95      		dec r18
 6270 1c4a 01F4      		brne 1b
 6271 1c4c 0C0D      		add r16,r12
 6272 1c4e 1D1D      		adc r17,r13
 6273 1c50 060D      		add r16,r6
 6274 1c52 171D      		adc r17,r7
 6275 1c54 005B      		subi r16,lo8(-(80))
 6276 1c56 1F4F      		sbci r17,hi8(-(80))
 6277 1c58 D801      		movw r26,r16
 6278 1c5a 8D91      		ld r24,X+
 6279 1c5c 9D91      		ld r25,X+
 6280 1c5e 0D90      		ld __tmp_reg__,X+
 6281 1c60 BC91      		ld r27,X
 6282 1c62 A02D      		mov r26,__tmp_reg__
 6283               	.LVL349:
 6284 1c64 8983      		std Y+1,r24
 6285 1c66 9A83      		std Y+2,r25
 6286 1c68 AB83      		std Y+3,r26
 6287 1c6a BC83      		std Y+4,r27
 6288               	.LVL350:
 6289               	.LBE945:
 6290               	.LBE944:
 6291               	.LM595:
 6292 1c6c F301      		movw r30,r6
 6293 1c6e 2181      		ldd r18,Z+1
 6294 1c70 3281      		ldd r19,Z+2
 6295               	.LM596:
 6296 1c72 C180      		ldd r12,Z+1
 6297 1c74 D280      		ldd r13,Z+2
 6298               	.LBB946:
 6299               	.LBB947:
 6300               	.LM597:
 6301 1c76 0850      		subi r16,lo8(-(-8))
 6302 1c78 1040      		sbci r17,hi8(-(-8))
 6303 1c7a 40E0      		ldi r20,lo8(0)
 6304 1c7c 50E0      		ldi r21,hi8(0)
 6305 1c7e BC01      		movw r22,r24
 6306 1c80 CD01      		movw r24,r26
 6307 1c82 0E94 0000 		call __divmodsi4
 6308 1c86 820E      		add r8,r18
 6309 1c88 931E      		adc r9,r19
 6310 1c8a A41E      		adc r10,r20
 6311 1c8c B51E      		adc r11,r21
 6312 1c8e D801      		movw r26,r16
 6313 1c90 8D92      		st X+,r8
 6314 1c92 9D92      		st X+,r9
 6315 1c94 AD92      		st X+,r10
 6316 1c96 BD92      		st X+,r11
 6317 1c98 8D01      		movw r16,r26
 6318               	.LBE947:
 6319               	.LBE946:
 6320               	.LBB948:
 6321               	.LBB949:
 6322               	.LM598:
 6323 1c9a EE24      		clr r14
 6324 1c9c FF24      		clr r15
 6325 1c9e 6981      		ldd r22,Y+1
 6326 1ca0 7A81      		ldd r23,Y+2
 6327 1ca2 8B81      		ldd r24,Y+3
 6328 1ca4 9C81      		ldd r25,Y+4
 6329 1ca6 A701      		movw r20,r14
 6330 1ca8 9601      		movw r18,r12
 6331 1caa 0E94 0000 		call __divmodsi4
 6332 1cae 6624      		clr r6
 6333 1cb0 7724      		clr r7
 6334               	.LVL351:
 6335 1cb2 460E      		add r4,r22
 6336 1cb4 571E      		adc r5,r23
 6337 1cb6 681E      		adc r6,r24
 6338 1cb8 791E      		adc r7,r25
 6339               	.LVL352:
 6340 1cba F801      		movw r30,r16
 6341 1cbc 4082      		st Z,r4
 6342 1cbe 5182      		std Z+1,r5
 6343 1cc0 6282      		std Z+2,r6
 6344 1cc2 7382      		std Z+3,r7
 6345               	.LVL353:
 6346               	.L274:
 6347               	/* epilogue start */
 6348               	.LBE949:
 6349               	.LBE948:
 6350               	.LBE931:
 6351               	.LM599:
 6352 1cc4 0F90      		pop __tmp_reg__
 6353 1cc6 0F90      		pop __tmp_reg__
 6354 1cc8 0F90      		pop __tmp_reg__
 6355 1cca 0F90      		pop __tmp_reg__
 6356 1ccc CF91      		pop r28
 6357 1cce DF91      		pop r29
 6358 1cd0 1F91      		pop r17
 6359 1cd2 0F91      		pop r16
 6360 1cd4 FF90      		pop r15
 6361 1cd6 EF90      		pop r14
 6362 1cd8 DF90      		pop r13
 6363 1cda CF90      		pop r12
 6364 1cdc BF90      		pop r11
 6365 1cde AF90      		pop r10
 6366               	.LVL354:
 6367 1ce0 9F90      		pop r9
 6368 1ce2 8F90      		pop r8
 6369               	.LVL355:
 6370 1ce4 7F90      		pop r7
 6371 1ce6 6F90      		pop r6
 6372               	.LVL356:
 6373 1ce8 5F90      		pop r5
 6374 1cea 4F90      		pop r4
 6375               	.LVL357:
 6376 1cec 0895      		ret
 6377               	.LFE100:
 6379               	.global	Timebase_DownCounter_SS_Expired
 6381               	Timebase_DownCounter_SS_Expired:
 6382               	.LFB101:
 6383               	.LM600:
 6384               	.LVL358:
 6385               	/* prologue: function */
 6386               	/* frame size = 0 */
 6387               	.LM601:
 6388 1cee 40E0      		ldi r20,lo8(0)
 6389 1cf0 E091 0000 		lds r30,Timebase
 6390 1cf4 F091 0000 		lds r31,(Timebase)+1
 6391 1cf8 90E0      		ldi r25,lo8(0)
 6392               	.LVL359:
 6393 1cfa 9C01      		movw r18,r24
 6394 1cfc 64E0      		ldi r22,4
 6395 1cfe 220F      	1:	lsl r18
 6396 1d00 331F      		rol r19
 6397 1d02 6A95      		dec r22
 6398 1d04 01F4      		brne 1b
 6399 1d06 280F      		add r18,r24
 6400 1d08 391F      		adc r19,r25
 6401 1d0a E20F      		add r30,r18
 6402 1d0c F31F      		adc r31,r19
 6403 1d0e E95B      		subi r30,lo8(-(71))
 6404 1d10 FF4F      		sbci r31,hi8(-(71))
 6405 1d12 8081      		ld r24,Z
 6406               	.LVL360:
 6407 1d14 8695      		lsr r24
 6408 1d16 8F70      		andi r24,lo8(15)
 6409 1d18 8430      		cpi r24,lo8(4)
 6410 1d1a 01F4      		brne .L276
 6411 1d1c 41E0      		ldi r20,lo8(1)
 6412               	.L276:
 6413               	.LM602:
 6414 1d1e 842F      		mov r24,r20
 6415               	/* epilogue start */
 6416 1d20 0895      		ret
 6417               	.LFE101:
 6419               	.global	Timebase_DownCounter_SS_Expired_Event
 6421               	Timebase_DownCounter_SS_Expired_Event:
 6422               	.LFB102:
 6423               	.LM603:
 6424               	.LVL361:
 6425               	/* prologue: function */
 6426               	/* frame size = 0 */
 6427               	.LBB950:
 6428               	.LBB951:
 6429               	.LM604:
 6430 1d22 E091 0000 		lds r30,Timebase
 6431 1d26 F091 0000 		lds r31,(Timebase)+1
 6432 1d2a 90E0      		ldi r25,lo8(0)
 6433               	.LBE951:
 6434               	.LBE950:
 6435               	.LM605:
 6436 1d2c 9C01      		movw r18,r24
 6437               	.LVL362:
 6438 1d2e 74E0      		ldi r23,4
 6439 1d30 220F      	1:	lsl r18
 6440 1d32 331F      		rol r19
 6441 1d34 7A95      		dec r23
 6442 1d36 01F4      		brne 1b
 6443 1d38 280F      		add r18,r24
 6444 1d3a 391F      		adc r19,r25
 6445 1d3c E20F      		add r30,r18
 6446 1d3e F31F      		adc r31,r19
 6447 1d40 DF01      		movw r26,r30
 6448 1d42 A95B      		subi r26,lo8(-(71))
 6449 1d44 BF4F      		sbci r27,hi8(-(71))
 6450 1d46 8C91      		ld r24,X
 6451 1d48 8695      		lsr r24
 6452 1d4a 8F70      		andi r24,lo8(15)
 6453 1d4c 8430      		cpi r24,lo8(4)
 6454 1d4e 01F0      		breq .L279
 6455 1d50 80E0      		ldi r24,lo8(0)
 6456 1d52 0895      		ret
 6457               	.L279:
 6458               	.LBB952:
 6459               	.LBB953:
 6460               	.LBB954:
 6461               	.LBB955:
 6462               	.LBB956:
 6463               	.LBB957:
 6464               	.LM606:
 6465 1d54 E45B      		subi r30,lo8(-(76))
 6466 1d56 FF4F      		sbci r31,hi8(-(76))
 6467 1d58 1082      		st Z,__zero_reg__
 6468 1d5a 1182      		std Z+1,__zero_reg__
 6469 1d5c 1282      		std Z+2,__zero_reg__
 6470 1d5e 1382      		std Z+3,__zero_reg__
 6471               	.LBE957:
 6472               	.LBE956:
 6473               	.LBB958:
 6474               	.LBB959:
 6475               	.LM607:
 6476 1d60 1292      		st -Z,__zero_reg__
 6477 1d62 1292      		st -Z,__zero_reg__
 6478 1d64 1292      		st -Z,__zero_reg__
 6479 1d66 1292      		st -Z,__zero_reg__
 6480               	.LBE959:
 6481               	.LBE958:
 6482               	.LBB960:
 6483               	.LBB961:
 6484               	.LM608:
 6485 1d68 3896      		adiw r30,8
 6486 1d6a 1082      		st Z,__zero_reg__
 6487 1d6c 1182      		std Z+1,__zero_reg__
 6488 1d6e 1282      		std Z+2,__zero_reg__
 6489 1d70 1382      		std Z+3,__zero_reg__
 6490               	.LBE961:
 6491               	.LBE960:
 6492               	.LBB962:
 6493               	.LBB963:
 6494               	.LM609:
 6495 1d72 8C91      		ld r24,X
 6496               	.LBE963:
 6497               	.LBE962:
 6498               	.LBB964:
 6499               	.LBB965:
 6500               	.LM610:
 6501 1d74 807E      		andi r24,lo8(-32)
 6502 1d76 8C93      		st X,r24
 6503 1d78 81E0      		ldi r24,lo8(1)
 6504               	.LBE965:
 6505               	.LBE964:
 6506               	.LBE955:
 6507               	.LBE954:
 6508               	.LBE953:
 6509               	.LBE952:
 6510               	.LM611:
 6511 1d7a 0895      		ret
 6512               	.LFE102:
 6514               	.global	Timebase_DownCounter_SS_Set_Period_Value_Securely
 6516               	Timebase_DownCounter_SS_Set_Period_Value_Securely:
 6517               	.LFB103:
 6518               	.LM612:
 6519               	.LVL363:
 6520 1d7c CF93      		push r28
 6521 1d7e DF93      		push r29
 6522               	/* prologue: function */
 6523               	/* frame size = 0 */
 6524               	.LBB966:
 6525               	.LBB967:
 6526               	.LM613:
 6527 1d80 C091 0000 		lds r28,Timebase
 6528 1d84 D091 0000 		lds r29,(Timebase)+1
 6529 1d88 282F      		mov r18,r24
 6530 1d8a 30E0      		ldi r19,lo8(0)
 6531               	.LBE967:
 6532               	.LBE966:
 6533               	.LM614:
 6534 1d8c F901      		movw r30,r18
 6535 1d8e B4E0      		ldi r27,4
 6536 1d90 EE0F      	1:	lsl r30
 6537 1d92 FF1F      		rol r31
 6538 1d94 BA95      		dec r27
 6539 1d96 01F4      		brne 1b
 6540 1d98 E20F      		add r30,r18
 6541 1d9a F31F      		adc r31,r19
 6542 1d9c EC0F      		add r30,r28
 6543 1d9e FD1F      		adc r31,r29
 6544 1da0 E95B      		subi r30,lo8(-(71))
 6545 1da2 FF4F      		sbci r31,hi8(-(71))
 6546 1da4 8081      		ld r24,Z
 6547               	.LVL364:
 6548 1da6 E754      		subi r30,lo8(-(-71))
 6549 1da8 F040      		sbci r31,hi8(-(-71))
 6550 1daa 80FD      		sbrc r24,0
 6551 1dac 00C0      		rjmp .L286
 6552               	.LM615:
 6553 1dae E05B      		subi r30,lo8(-(80))
 6554 1db0 FF4F      		sbci r31,hi8(-(80))
 6555 1db2 8191      		ld r24,Z+
 6556 1db4 9191      		ld r25,Z+
 6557 1db6 A191      		ld r26,Z+
 6558 1db8 B191      		ld r27,Z+
 6559 1dba 841B      		sub r24,r20
 6560 1dbc 950B      		sbc r25,r21
 6561 1dbe A60B      		sbc r26,r22
 6562 1dc0 B70B      		sbc r27,r23
 6563               	.LBB968:
 6564               	.LBB969:
 6565               	.LM616:
 6566 1dc2 B7FF      		sbrs r27,7
 6567 1dc4 00C0      		rjmp .L284
 6568               	.LM617:
 6569 1dc6 1082      		st Z,__zero_reg__
 6570 1dc8 1182      		std Z+1,__zero_reg__
 6571 1dca 1282      		std Z+2,__zero_reg__
 6572 1dcc 1382      		std Z+3,__zero_reg__
 6573 1dce 00C0      		rjmp .L285
 6574               	.L284:
 6575               	.LM618:
 6576 1dd0 8083      		st Z,r24
 6577 1dd2 9183      		std Z+1,r25
 6578 1dd4 A283      		std Z+2,r26
 6579 1dd6 B383      		std Z+3,r27
 6580               	.L285:
 6581               	.LBE969:
 6582               	.LBE968:
 6583               	.LBB970:
 6584               	.LBB971:
 6585               	.LM619:
 6586 1dd8 F901      		movw r30,r18
 6587 1dda A4E0      		ldi r26,4
 6588 1ddc EE0F      	1:	lsl r30
 6589 1dde FF1F      		rol r31
 6590 1de0 AA95      		dec r26
 6591 1de2 01F4      		brne 1b
 6592 1de4 E20F      		add r30,r18
 6593 1de6 F31F      		adc r31,r19
 6594 1de8 EC0F      		add r30,r28
 6595 1dea FD1F      		adc r31,r29
 6596 1dec E95B      		subi r30,lo8(-(71))
 6597 1dee FF4F      		sbci r31,hi8(-(71))
 6598 1df0 8081      		ld r24,Z
 6599 1df2 8160      		ori r24,lo8(1)
 6600 1df4 8083      		st Z,r24
 6601               	.L286:
 6602               	/* epilogue start */
 6603               	.LBE971:
 6604               	.LBE970:
 6605               	.LM620:
 6606 1df6 DF91      		pop r29
 6607 1df8 CF91      		pop r28
 6608 1dfa 0895      		ret
 6609               	.LFE103:
 6611               	.global	Timebase_DownCounter_SS_Get_Remaining_Period_Value
 6613               	Timebase_DownCounter_SS_Get_Remaining_Period_Value:
 6614               	.LFB104:
 6615               	.LM621:
 6616               	.LVL365:
 6617               	/* prologue: function */
 6618               	/* frame size = 0 */
 6619               	.LBB972:
 6620               	.LBB973:
 6621               	.LM622:
 6622 1dfc E091 0000 		lds r30,Timebase
 6623 1e00 F091 0000 		lds r31,(Timebase)+1
 6624 1e04 90E0      		ldi r25,lo8(0)
 6625               	.LBE973:
 6626               	.LBE972:
 6627               	.LM623:
 6628 1e06 9C01      		movw r18,r24
 6629               	.LVL366:
 6630 1e08 44E0      		ldi r20,4
 6631 1e0a 220F      	1:	lsl r18
 6632 1e0c 331F      		rol r19
 6633 1e0e 4A95      		dec r20
 6634 1e10 01F4      		brne 1b
 6635 1e12 280F      		add r18,r24
 6636 1e14 391F      		adc r19,r25
 6637 1e16 E20F      		add r30,r18
 6638 1e18 F31F      		adc r31,r19
 6639 1e1a DF01      		movw r26,r30
 6640 1e1c AC5A      		subi r26,lo8(-(84))
 6641 1e1e BF4F      		sbci r27,hi8(-(84))
 6642 1e20 E05B      		subi r30,lo8(-(80))
 6643 1e22 FF4F      		sbci r31,hi8(-(80))
 6644 1e24 2081      		ld r18,Z
 6645 1e26 3181      		ldd r19,Z+1
 6646 1e28 4281      		ldd r20,Z+2
 6647 1e2a 5381      		ldd r21,Z+3
 6648               	.LVL367:
 6649 1e2c 8D91      		ld r24,X+
 6650 1e2e 9D91      		ld r25,X+
 6651 1e30 0D90      		ld __tmp_reg__,X+
 6652 1e32 BC91      		ld r27,X
 6653 1e34 A02D      		mov r26,__tmp_reg__
 6654 1e36 281B      		sub r18,r24
 6655 1e38 390B      		sbc r19,r25
 6656 1e3a 4A0B      		sbc r20,r26
 6657 1e3c 5B0B      		sbc r21,r27
 6658 1e3e 57FF      		sbrs r21,7
 6659 1e40 00C0      		rjmp .L288
 6660 1e42 20E0      		ldi r18,lo8(0)
 6661 1e44 30E0      		ldi r19,hi8(0)
 6662 1e46 40E0      		ldi r20,hlo8(0)
 6663 1e48 50E0      		ldi r21,hhi8(0)
 6664               	.L288:
 6665               	.LM624:
 6666 1e4a B901      		movw r22,r18
 6667               	.LVL368:
 6668 1e4c CA01      		movw r24,r20
 6669               	/* epilogue start */
 6670 1e4e 0895      		ret
 6671               	.LFE104:
 6673               	.global	Timebase_DownCounter_SS_Period_Value_Expired
 6675               	Timebase_DownCounter_SS_Period_Value_Expired:
 6676               	.LFB105:
 6677               	.LM625:
 6678               	.LVL369:
 6679 1e50 CF93      		push r28
 6680 1e52 DF93      		push r29
 6681               	/* prologue: function */
 6682               	/* frame size = 0 */
 6683               	.LBB974:
 6684               	.LBB975:
 6685               	.LBB976:
 6686               	.LBB977:
 6687               	.LM626:
 6688 1e54 C091 0000 		lds r28,Timebase
 6689 1e58 D091 0000 		lds r29,(Timebase)+1
 6690 1e5c 682F      		mov r22,r24
 6691 1e5e 70E0      		ldi r23,lo8(0)
 6692               	.LBE977:
 6693               	.LBE976:
 6694               	.LM627:
 6695 1e60 FB01      		movw r30,r22
 6696 1e62 A4E0      		ldi r26,4
 6697 1e64 EE0F      	1:	lsl r30
 6698 1e66 FF1F      		rol r31
 6699 1e68 AA95      		dec r26
 6700 1e6a 01F4      		brne 1b
 6701 1e6c E60F      		add r30,r22
 6702 1e6e F71F      		adc r31,r23
 6703 1e70 EC0F      		add r30,r28
 6704 1e72 FD1F      		adc r31,r29
 6705 1e74 DF01      		movw r26,r30
 6706 1e76 AC5A      		subi r26,lo8(-(84))
 6707 1e78 BF4F      		sbci r27,hi8(-(84))
 6708 1e7a E05B      		subi r30,lo8(-(80))
 6709 1e7c FF4F      		sbci r31,hi8(-(80))
 6710 1e7e 2081      		ld r18,Z
 6711 1e80 3181      		ldd r19,Z+1
 6712 1e82 4281      		ldd r20,Z+2
 6713 1e84 5381      		ldd r21,Z+3
 6714               	.LVL370:
 6715 1e86 8D91      		ld r24,X+
 6716 1e88 9D91      		ld r25,X+
 6717 1e8a 0D90      		ld __tmp_reg__,X+
 6718 1e8c BC91      		ld r27,X
 6719 1e8e A02D      		mov r26,__tmp_reg__
 6720               	.LVL371:
 6721 1e90 281B      		sub r18,r24
 6722 1e92 390B      		sbc r19,r25
 6723 1e94 4A0B      		sbc r20,r26
 6724 1e96 5B0B      		sbc r21,r27
 6725               	.LM628:
 6726 1e98 57FD      		sbrc r21,7
 6727 1e9a 00C0      		rjmp .L291
 6728               	.LBE975:
 6729               	.LBE974:
 6730               	.LM629:
 6731 1e9c 2115      		cp r18,__zero_reg__
 6732 1e9e 3105      		cpc r19,__zero_reg__
 6733 1ea0 4105      		cpc r20,__zero_reg__
 6734 1ea2 5105      		cpc r21,__zero_reg__
 6735 1ea4 01F0      		breq .L291
 6736 1ea6 20E0      		ldi r18,lo8(0)
 6737               	.LVL372:
 6738 1ea8 00C0      		rjmp .L292
 6739               	.LVL373:
 6740               	.L291:
 6741 1eaa 20E0      		ldi r18,lo8(0)
 6742               	.LVL374:
 6743 1eac CB01      		movw r24,r22
 6744 1eae 54E0      		ldi r21,4
 6745 1eb0 880F      	1:	lsl r24
 6746 1eb2 991F      		rol r25
 6747 1eb4 5A95      		dec r21
 6748 1eb6 01F4      		brne 1b
 6749 1eb8 860F      		add r24,r22
 6750 1eba 971F      		adc r25,r23
 6751 1ebc C80F      		add r28,r24
 6752 1ebe D91F      		adc r29,r25
 6753 1ec0 C95B      		subi r28,lo8(-(71))
 6754 1ec2 DF4F      		sbci r29,hi8(-(71))
 6755 1ec4 8881      		ld r24,Y
 6756 1ec6 80FF      		sbrs r24,0
 6757 1ec8 21E0      		ldi r18,lo8(1)
 6758               	.L293:
 6759 1eca 81E0      		ldi r24,lo8(1)
 6760 1ecc 2827      		eor r18,r24
 6761               	.L292:
 6762               	.LM630:
 6763 1ece 822F      		mov r24,r18
 6764               	/* epilogue start */
 6765 1ed0 DF91      		pop r29
 6766 1ed2 CF91      		pop r28
 6767 1ed4 0895      		ret
 6768               	.LFE105:
 6770               	.global	Timebase_DownCounter_SS_Period_Value_Expired_Event
 6772               	Timebase_DownCounter_SS_Period_Value_Expired_Event:
 6773               	.LFB106:
 6774               	.LM631:
 6775               	.LVL375:
 6776 1ed6 1F93      		push r17
 6777               	/* prologue: function */
 6778               	/* frame size = 0 */
 6779 1ed8 182F      		mov r17,r24
 6780               	.LM632:
 6781 1eda 0E94 0000 		call Timebase_DownCounter_SS_Period_Value_Expired
 6782               	.LVL376:
 6783 1ede 8130      		cpi r24,lo8(1)
 6784 1ee0 01F0      		breq .L296
 6785 1ee2 80E0      		ldi r24,lo8(0)
 6786 1ee4 00C0      		rjmp .L297
 6787               	.L296:
 6788               	.LBB978:
 6789               	.LBB979:
 6790               	.LM633:
 6791 1ee6 E091 0000 		lds r30,Timebase
 6792 1eea F091 0000 		lds r31,(Timebase)+1
 6793 1eee 212F      		mov r18,r17
 6794 1ef0 30E0      		ldi r19,lo8(0)
 6795               	.LVL377:
 6796 1ef2 C901      		movw r24,r18
 6797 1ef4 B4E0      		ldi r27,4
 6798 1ef6 880F      	1:	lsl r24
 6799 1ef8 991F      		rol r25
 6800 1efa BA95      		dec r27
 6801 1efc 01F4      		brne 1b
 6802 1efe 820F      		add r24,r18
 6803 1f00 931F      		adc r25,r19
 6804 1f02 E80F      		add r30,r24
 6805 1f04 F91F      		adc r31,r25
 6806 1f06 E95B      		subi r30,lo8(-(71))
 6807 1f08 FF4F      		sbci r31,hi8(-(71))
 6808 1f0a 8081      		ld r24,Z
 6809 1f0c 8E7F      		andi r24,lo8(-2)
 6810 1f0e 8083      		st Z,r24
 6811 1f10 81E0      		ldi r24,lo8(1)
 6812               	.L297:
 6813               	/* epilogue start */
 6814               	.LBE979:
 6815               	.LBE978:
 6816               	.LM634:
 6817 1f12 1F91      		pop r17
 6818               	.LVL378:
 6819 1f14 0895      		ret
 6820               	.LFE106:
 6822               	.global	Timebase_DownCounter_SS_Update_All
 6824               	Timebase_DownCounter_SS_Update_All:
 6825               	.LFB107:
 6826               	.LM635:
 6827 1f16 1F93      		push r17
 6828               	/* prologue: function */
 6829               	/* frame size = 0 */
 6830               	.LM636:
 6831 1f18 10E0      		ldi r17,lo8(0)
 6832               	.LVL379:
 6833               	.L300:
 6834               	.LBB980:
 6835               	.LM637:
 6836 1f1a 812F      		mov r24,r17
 6837 1f1c 0E94 0000 		call Timebase_DownCounter_SS_Update
 6838               	.LM638:
 6839 1f20 1F5F      		subi r17,lo8(-(1))
 6840 1f22 1530      		cpi r17,lo8(5)
 6841 1f24 01F4      		brne .L300
 6842               	/* epilogue start */
 6843               	.LBE980:
 6844               	.LM639:
 6845 1f26 1F91      		pop r17
 6846               	.LVL380:
 6847 1f28 0895      		ret
 6848               	.LFE107:
 6850               	.global	Timebase_DownCounter_SS_Reset_All
 6852               	Timebase_DownCounter_SS_Reset_All:
 6853               	.LFB108:
 6854               	.LM640:
 6855               	/* prologue: function */
 6856               	/* frame size = 0 */
 6857               	.LBB981:
 6858               	.LBB982:
 6859               	.LBB983:
 6860               	.LBB984:
 6861               	.LBB985:
 6862               	.LM641:
 6863 1f2a 4091 0000 		lds r20,Timebase
 6864 1f2e 5091 0000 		lds r21,(Timebase)+1
 6865 1f32 DA01      		movw r26,r20
 6866 1f34 A85B      		subi r26,lo8(-(72))
 6867 1f36 BF4F      		sbci r27,hi8(-(72))
 6868 1f38 20E0      		ldi r18,lo8(0)
 6869 1f3a 30E0      		ldi r19,hi8(0)
 6870               	.L304:
 6871 1f3c 1496      		adiw r26,4
 6872 1f3e 1D92      		st X+,__zero_reg__
 6873 1f40 1D92      		st X+,__zero_reg__
 6874 1f42 1D92      		st X+,__zero_reg__
 6875 1f44 1C92      		st X,__zero_reg__
 6876 1f46 1797      		sbiw r26,4+3
 6877               	.LBE985:
 6878               	.LBE984:
 6879               	.LBB986:
 6880               	.LBB987:
 6881               	.LM642:
 6882 1f48 1D92      		st X+,__zero_reg__
 6883 1f4a 1D92      		st X+,__zero_reg__
 6884 1f4c 1D92      		st X+,__zero_reg__
 6885 1f4e 1C92      		st X,__zero_reg__
 6886 1f50 1397      		sbiw r26,3
 6887               	.LBE987:
 6888               	.LBE986:
 6889               	.LBB988:
 6890               	.LBB989:
 6891               	.LM643:
 6892 1f52 1896      		adiw r26,8
 6893 1f54 1D92      		st X+,__zero_reg__
 6894 1f56 1D92      		st X+,__zero_reg__
 6895 1f58 1D92      		st X+,__zero_reg__
 6896 1f5a 1C92      		st X,__zero_reg__
 6897 1f5c 1B97      		sbiw r26,8+3
 6898               	.LBE989:
 6899               	.LBE988:
 6900               	.LBB990:
 6901               	.LBB991:
 6902               	.LM644:
 6903 1f5e F901      		movw r30,r18
 6904 1f60 84E0      		ldi r24,4
 6905 1f62 EE0F      	1:	lsl r30
 6906 1f64 FF1F      		rol r31
 6907 1f66 8A95      		dec r24
 6908 1f68 01F4      		brne 1b
 6909 1f6a E20F      		add r30,r18
 6910 1f6c F31F      		adc r31,r19
 6911 1f6e E40F      		add r30,r20
 6912 1f70 F51F      		adc r31,r21
 6913 1f72 E95B      		subi r30,lo8(-(71))
 6914 1f74 FF4F      		sbci r31,hi8(-(71))
 6915 1f76 8081      		ld r24,Z
 6916               	.LBE991:
 6917               	.LBE990:
 6918               	.LBB992:
 6919               	.LBB993:
 6920               	.LM645:
 6921 1f78 807E      		andi r24,lo8(-32)
 6922 1f7a 8083      		st Z,r24
 6923 1f7c 2F5F      		subi r18,lo8(-(1))
 6924 1f7e 3F4F      		sbci r19,hi8(-(1))
 6925 1f80 5196      		adiw r26,17
 6926               	.LBE993:
 6927               	.LBE992:
 6928               	.LBE983:
 6929               	.LBE982:
 6930               	.LM646:
 6931 1f82 2530      		cpi r18,5
 6932 1f84 3105      		cpc r19,__zero_reg__
 6933 1f86 01F4      		brne .L304
 6934               	/* epilogue start */
 6935               	.LBE981:
 6936               	.LM647:
 6937 1f88 0895      		ret
 6938               	.LFE108:
 6940               	.global	Timebase_Reset
 6942               	Timebase_Reset:
 6943               	.LFB109:
 6944               	.LM648:
 6945               	/* prologue: function */
 6946               	/* frame size = 0 */
 6947               	.LM649:
 6948 1f8a 0E94 0000 		call Timebase_UpCounter_Reset_All
 6949               	.LM650:
 6950 1f8e 0E94 0000 		call Timebase_DownCounter_SS_Reset_All
 6951               	.LM651:
 6952 1f92 0E94 0000 		call Timebase_DownCounter_Reset_All
 6953               	/* epilogue start */
 6954               	.LM652:
 6955 1f96 0895      		ret
 6956               	.LFE109:
 6958               	.global	Timebase_Init
 6960               	Timebase_Init:
 6961               	.LFB110:
 6962               	.LM653:
 6963               	.LVL381:
 6964 1f98 0F93      		push r16
 6965 1f9a 1F93      		push r17
 6966               	/* prologue: function */
 6967               	/* frame size = 0 */
 6968 1f9c 8C01      		movw r16,r24
 6969               	.LM654:
 6970 1f9e 0E94 0000 		call Timebase_Struct_Init
 6971               	.LVL382:
 6972               	.LM655:
 6973 1fa2 C801      		movw r24,r16
 6974 1fa4 0E94 0000 		call Timebase_Timer_Config
 6975               	.LM656:
 6976 1fa8 0E94 0000 		call Timebase_Reset
 6977               	/* epilogue start */
 6978               	.LM657:
 6979 1fac 1F91      		pop r17
 6980 1fae 0F91      		pop r16
 6981               	.LVL383:
 6982 1fb0 0895      		ret
 6983               	.LFE110:
 6985               	.global	Timebase_Main_Loop_Executables
 6987               	Timebase_Main_Loop_Executables:
 6988               	.LFB111:
 6989               	.LM658:
 6990               	/* prologue: function */
 6991               	/* frame size = 0 */
 6992               	.LM659:
 6993 1fb2 E091 0000 		lds r30,Timebase
 6994 1fb6 F091 0000 		lds r31,(Timebase)+1
 6995 1fba 8789      		ldd r24,Z+23
 6996 1fbc 82FF      		sbrs r24,2
 6997 1fbe 00C0      		rjmp .L312
 6998               	.LM660:
 6999 1fc0 8789      		ldd r24,Z+23
 7000 1fc2 8B7F      		andi r24,lo8(-5)
 7001 1fc4 878B      		std Z+23,r24
 7002               	.L312:
 7003               	.LM661:
 7004 1fc6 8789      		ldd r24,Z+23
 7005 1fc8 80FF      		sbrs r24,0
 7006 1fca 00C0      		rjmp .L313
 7007               	.LM662:
 7008 1fcc 0E94 0000 		call Timebase_UpCounter_Update_All
 7009               	.LM663:
 7010 1fd0 E091 0000 		lds r30,Timebase
 7011 1fd4 F091 0000 		lds r31,(Timebase)+1
 7012 1fd8 8789      		ldd r24,Z+23
 7013 1fda 8E7F      		andi r24,lo8(-2)
 7014 1fdc 878B      		std Z+23,r24
 7015               	.L313:
 7016               	.LM664:
 7017 1fde E091 0000 		lds r30,Timebase
 7018 1fe2 F091 0000 		lds r31,(Timebase)+1
 7019 1fe6 8789      		ldd r24,Z+23
 7020 1fe8 83FF      		sbrs r24,3
 7021 1fea 00C0      		rjmp .L314
 7022               	.LM665:
 7023 1fec 0E94 0000 		call Timebase_DownCounter_SS_Update_All
 7024               	.LM666:
 7025 1ff0 E091 0000 		lds r30,Timebase
 7026 1ff4 F091 0000 		lds r31,(Timebase)+1
 7027 1ff8 8789      		ldd r24,Z+23
 7028 1ffa 877F      		andi r24,lo8(-9)
 7029 1ffc 878B      		std Z+23,r24
 7030               	.L314:
 7031               	.LM667:
 7032 1ffe E091 0000 		lds r30,Timebase
 7033 2002 F091 0000 		lds r31,(Timebase)+1
 7034 2006 8789      		ldd r24,Z+23
 7035 2008 81FF      		sbrs r24,1
 7036 200a 00C0      		rjmp .L316
 7037               	.LM668:
 7038 200c 0E94 0000 		call Timebase_DownCounter_Update_All
 7039               	.LM669:
 7040 2010 E091 0000 		lds r30,Timebase
 7041 2014 F091 0000 		lds r31,(Timebase)+1
 7042 2018 8789      		ldd r24,Z+23
 7043 201a 8D7F      		andi r24,lo8(-3)
 7044 201c 878B      		std Z+23,r24
 7045               	.L316:
 7046 201e 0895      		ret
 7047               	.LFE111:
 7049               	.global	Timebase_ISR_Executables
 7051               	Timebase_ISR_Executables:
 7052               	.LFB112:
 7053               	.LM670:
 7054               	/* prologue: function */
 7055               	/* frame size = 0 */
 7056               	.LM671:
 7057 2020 E091 0000 		lds r30,Timebase
 7058 2024 F091 0000 		lds r31,(Timebase)+1
 7059 2028 8085      		ldd r24,Z+8
 7060 202a 9185      		ldd r25,Z+9
 7061 202c 0196      		adiw r24,1
 7062 202e 9187      		std Z+9,r25
 7063 2030 8087      		std Z+8,r24
 7064               	.LM672:
 7065 2032 8381      		ldd r24,Z+3
 7066 2034 86BD      		out 70-32,r24
 7067               	.LM673:
 7068 2036 8789      		ldd r24,Z+23
 7069 2038 8460      		ori r24,lo8(4)
 7070 203a 878B      		std Z+23,r24
 7071               	.LM674:
 7072 203c 8789      		ldd r24,Z+23
 7073 203e 8860      		ori r24,lo8(8)
 7074 2040 878B      		std Z+23,r24
 7075               	.LM675:
 7076 2042 8085      		ldd r24,Z+8
 7077 2044 9185      		ldd r25,Z+9
 7078 2046 6181      		ldd r22,Z+1
 7079 2048 7281      		ldd r23,Z+2
 7080 204a 0E94 0000 		call __udivmodhi4
 7081 204e 892B      		or r24,r25
 7082 2050 01F4      		brne .L319
 7083               	.LM676:
 7084 2052 8285      		ldd r24,Z+10
 7085 2054 9385      		ldd r25,Z+11
 7086 2056 A485      		ldd r26,Z+12
 7087 2058 B585      		ldd r27,Z+13
 7088 205a 0196      		adiw r24,1
 7089 205c A11D      		adc r26,__zero_reg__
 7090 205e B11D      		adc r27,__zero_reg__
 7091 2060 8287      		std Z+10,r24
 7092 2062 9387      		std Z+11,r25
 7093 2064 A487      		std Z+12,r26
 7094 2066 B587      		std Z+13,r27
 7095               	.LM677:
 7096 2068 1186      		std Z+9,__zero_reg__
 7097 206a 1086      		std Z+8,__zero_reg__
 7098               	.LM678:
 7099 206c 8789      		ldd r24,Z+23
 7100 206e 8160      		ori r24,lo8(1)
 7101 2070 878B      		std Z+23,r24
 7102               	.LM679:
 7103 2072 8789      		ldd r24,Z+23
 7104 2074 8260      		ori r24,lo8(2)
 7105 2076 878B      		std Z+23,r24
 7106               	.L319:
 7107 2078 0895      		ret
 7108               	.LFE112:
 7110               	.global	__vector_16
 7112               	__vector_16:
 7113               	.LFB113:
 7114               	.LM680:
 7115 207a 1F92      		push __zero_reg__
 7116 207c 0F92      		push r0
 7117 207e 0FB6      		in r0,__SREG__
 7118 2080 0F92      		push r0
 7119 2082 1124      		clr __zero_reg__
 7120 2084 2F93      		push r18
 7121 2086 3F93      		push r19
 7122 2088 4F93      		push r20
 7123 208a 5F93      		push r21
 7124 208c 6F93      		push r22
 7125 208e 7F93      		push r23
 7126 2090 8F93      		push r24
 7127 2092 9F93      		push r25
 7128 2094 AF93      		push r26
 7129 2096 BF93      		push r27
 7130 2098 EF93      		push r30
 7131 209a FF93      		push r31
 7132               	/* prologue: Signal */
 7133               	/* frame size = 0 */
 7134               	.LM681:
 7135 209c 0E94 0000 		call Timebase_ISR_Executables
 7136               	/* epilogue start */
 7137               	.LM682:
 7138 20a0 FF91      		pop r31
 7139 20a2 EF91      		pop r30
 7140 20a4 BF91      		pop r27
 7141 20a6 AF91      		pop r26
 7142 20a8 9F91      		pop r25
 7143 20aa 8F91      		pop r24
 7144 20ac 7F91      		pop r23
 7145 20ae 6F91      		pop r22
 7146 20b0 5F91      		pop r21
 7147 20b2 4F91      		pop r20
 7148 20b4 3F91      		pop r19
 7149 20b6 2F91      		pop r18
 7150 20b8 0F90      		pop r0
 7151 20ba 0FBE      		out __SREG__,r0
 7152 20bc 0F90      		pop r0
 7153 20be 1F90      		pop __zero_reg__
 7154 20c0 1895      		reti
 7155               	.LFE113:
 7157               		.data
 7160               	C.2.1665:
 7161 0000 0100      		.word	1
 7162 0002 0800      		.word	8
 7163 0004 4000      		.word	64
 7164 0006 0001      		.word	256
 7165 0008 0004      		.word	1024
 7166               		.comm Timebase_type,221,1
 7167               		.comm Timebase,2,1
 8048               	.Letext0:
DEFINED SYMBOLS
                            *ABS*:00000000 timebase.c
C:\Users\WALTON\AppData\Local\Temp/ccUWpls8.s:2      *ABS*:0000003f __SREG__
C:\Users\WALTON\AppData\Local\Temp/ccUWpls8.s:3      *ABS*:0000003e __SP_H__
C:\Users\WALTON\AppData\Local\Temp/ccUWpls8.s:4      *ABS*:0000003d __SP_L__
C:\Users\WALTON\AppData\Local\Temp/ccUWpls8.s:5      *ABS*:00000034 __CCP__
C:\Users\WALTON\AppData\Local\Temp/ccUWpls8.s:6      *ABS*:00000000 __tmp_reg__
C:\Users\WALTON\AppData\Local\Temp/ccUWpls8.s:7      *ABS*:00000001 __zero_reg__
C:\Users\WALTON\AppData\Local\Temp/ccUWpls8.s:18     .text:00000000 Timebase_Struct_Init
                            *COM*:000000dd Timebase_type
                            *COM*:00000002 Timebase
C:\Users\WALTON\AppData\Local\Temp/ccUWpls8.s:242    .text:000001e4 Timebase_Timer_Config
C:\Users\WALTON\AppData\Local\Temp/ccUWpls8.s:7160   .data:00000000 C.2.1665
C:\Users\WALTON\AppData\Local\Temp/ccUWpls8.s:562    .text:0000037e Timebase_Atomic_Operation_Start
C:\Users\WALTON\AppData\Local\Temp/ccUWpls8.s:580    .text:00000382 Timebase_Atomic_Operation_End
C:\Users\WALTON\AppData\Local\Temp/ccUWpls8.s:598    .text:00000386 Timebase_Token_Executing
C:\Users\WALTON\AppData\Local\Temp/ccUWpls8.s:614    .text:00000392 Timebase_Token_Add
C:\Users\WALTON\AppData\Local\Temp/ccUWpls8.s:640    .text:000003a8 Timebase_Token_Remove
C:\Users\WALTON\AppData\Local\Temp/ccUWpls8.s:666    .text:000003be Timebase_Token_Remove_All
C:\Users\WALTON\AppData\Local\Temp/ccUWpls8.s:682    .text:000003ca Timebase_Timer_Get_SubSeconds
C:\Users\WALTON\AppData\Local\Temp/ccUWpls8.s:722    .text:000003de Timebase_Timer_Get_Seconds
C:\Users\WALTON\AppData\Local\Temp/ccUWpls8.s:765    .text:000003f8 Timebase_Timer_Set_SubSeconds
C:\Users\WALTON\AppData\Local\Temp/ccUWpls8.s:783    .text:00000406 Timebase_Timer_Set_Seconds
C:\Users\WALTON\AppData\Local\Temp/ccUWpls8.s:803    .text:00000418 Timebase_Timer_Delay_SubSeconds
C:\Users\WALTON\AppData\Local\Temp/ccUWpls8.s:1027   .text:000004d8 Timebase_Timer_Await_SubSeconds
C:\Users\WALTON\AppData\Local\Temp/ccUWpls8.s:1156   .text:00000554 Timebase_Timer_Delay_Seconds
C:\Users\WALTON\AppData\Local\Temp/ccUWpls8.s:1253   .text:00000596 Timebase_Window_Timer_Reset
C:\Users\WALTON\AppData\Local\Temp/ccUWpls8.s:1279   .text:000005b2 Timebase_Window_Timer_Start
C:\Users\WALTON\AppData\Local\Temp/ccUWpls8.s:1371   .text:000005ee Timebase_Window_Timer_Get_Interval
C:\Users\WALTON\AppData\Local\Temp/ccUWpls8.s:1509   .text:00000670 Timebase_Window_Timer_Get_Interval_Reset
C:\Users\WALTON\AppData\Local\Temp/ccUWpls8.s:1549   .text:0000069a Timebase_UpCounter_Get_Status
C:\Users\WALTON\AppData\Local\Temp/ccUWpls8.s:1583   .text:000006c4 Timebase_UpCounter_Set_Status
C:\Users\WALTON\AppData\Local\Temp/ccUWpls8.s:1621   .text:000006f4 Timebase_UpCounter_Get_Value
C:\Users\WALTON\AppData\Local\Temp/ccUWpls8.s:1658   .text:00000722 Timebase_UpCounter_Set_Value
C:\Users\WALTON\AppData\Local\Temp/ccUWpls8.s:1694   .text:00000750 Timebase_UpCounter_Get_EndValue
C:\Users\WALTON\AppData\Local\Temp/ccUWpls8.s:1737   .text:0000078a Timebase_UpCounter_Set_EndValue
C:\Users\WALTON\AppData\Local\Temp/ccUWpls8.s:1772   .text:000007b6 Timebase_UpCounter_Get_TargetValue
C:\Users\WALTON\AppData\Local\Temp/ccUWpls8.s:1815   .text:000007f0 Timebase_UpCounter_Set_TargetValue
C:\Users\WALTON\AppData\Local\Temp/ccUWpls8.s:1850   .text:0000081c Timebase_UpCounter_Get_TemporaryValue
C:\Users\WALTON\AppData\Local\Temp/ccUWpls8.s:1893   .text:00000856 Timebase_UpCounter_Set_TemporaryValue
C:\Users\WALTON\AppData\Local\Temp/ccUWpls8.s:1928   .text:00000882 Timebase_UpCounter_Get_PeriodValue
C:\Users\WALTON\AppData\Local\Temp/ccUWpls8.s:1966   .text:000008b2 Timebase_UpCounter_Set_PeriodValue
C:\Users\WALTON\AppData\Local\Temp/ccUWpls8.s:2003   .text:000008e2 Timebase_UpCounter_Get_Period_Flag
C:\Users\WALTON\AppData\Local\Temp/ccUWpls8.s:2036   .text:0000090a Timebase_UpCounter_Set_Period_Flag
C:\Users\WALTON\AppData\Local\Temp/ccUWpls8.s:2070   .text:00000934 Timebase_UpCounter_Clear_Period_Flag
C:\Users\WALTON\AppData\Local\Temp/ccUWpls8.s:2104   .text:0000095e Timebase_UpCounter_Reset
C:\Users\WALTON\AppData\Local\Temp/ccUWpls8.s:2197   .text:000009bc Timebase_UpCounter_Clear_All_Flags
C:\Users\WALTON\AppData\Local\Temp/ccUWpls8.s:2213   .text:000009c2 Timebase_UpCounter_Start
C:\Users\WALTON\AppData\Local\Temp/ccUWpls8.s:2261   .text:000009f8 Timebase_UpCounter_Stop
C:\Users\WALTON\AppData\Local\Temp/ccUWpls8.s:2309   .text:00000a2e Timebase_UpCounter_Set_Securely
C:\Users\WALTON\AppData\Local\Temp/ccUWpls8.s:2460   .text:00000aca Timebase_UpCounter_Set_Forcefully
C:\Users\WALTON\AppData\Local\Temp/ccUWpls8.s:2496   .text:00000af4 Timebase_UpCounter_Update
C:\Users\WALTON\AppData\Local\Temp/ccUWpls8.s:2756   .text:00000c1c Timebase_UpCounter_Expired
C:\Users\WALTON\AppData\Local\Temp/ccUWpls8.s:2796   .text:00000c50 Timebase_UpCounter_Expired_Event
C:\Users\WALTON\AppData\Local\Temp/ccUWpls8.s:2845   .text:00000c8e Timebase_UpCounter_Set_Period_Value_Securely
C:\Users\WALTON\AppData\Local\Temp/ccUWpls8.s:2918   .text:00000ce8 Timebase_UpCounter_Get_Remaining_Period_Value
C:\Users\WALTON\AppData\Local\Temp/ccUWpls8.s:2981   .text:00000d3e Timebase_UpCounter_Period_Value_Expired
C:\Users\WALTON\AppData\Local\Temp/ccUWpls8.s:3078   .text:00000dc4 Timebase_UpCounter_Period_Value_Expired_Event
C:\Users\WALTON\AppData\Local\Temp/ccUWpls8.s:3130   .text:00000e04 Timebase_UpCounter_Update_All
C:\Users\WALTON\AppData\Local\Temp/ccUWpls8.s:3147   .text:00000e0c Timebase_UpCounter_Reset_All
C:\Users\WALTON\AppData\Local\Temp/ccUWpls8.s:3164   .text:00000e14 Timebase_DownCounter_Get_Status
C:\Users\WALTON\AppData\Local\Temp/ccUWpls8.s:3200   .text:00000e42 Timebase_DownCounter_Set_Status
C:\Users\WALTON\AppData\Local\Temp/ccUWpls8.s:3240   .text:00000e76 Timebase_DownCounter_Get_Value
C:\Users\WALTON\AppData\Local\Temp/ccUWpls8.s:3278   .text:00000ea6 Timebase_DownCounter_Set_Value
C:\Users\WALTON\AppData\Local\Temp/ccUWpls8.s:3315   .text:00000ed6 Timebase_DownCounter_Get_EndValue
C:\Users\WALTON\AppData\Local\Temp/ccUWpls8.s:3353   .text:00000f06 Timebase_DownCounter_Set_EndValue
C:\Users\WALTON\AppData\Local\Temp/ccUWpls8.s:3390   .text:00000f36 Timebase_DownCounter_Get_PeriodValue
C:\Users\WALTON\AppData\Local\Temp/ccUWpls8.s:3428   .text:00000f66 Timebase_DownCounter_Set_PeriodValue
C:\Users\WALTON\AppData\Local\Temp/ccUWpls8.s:3490   .text:00000fc2 Timebase_DownCounter_Get_Period_Flag
C:\Users\WALTON\AppData\Local\Temp/ccUWpls8.s:3525   .text:00000fee Timebase_DownCounter_Set_Period_Flag
C:\Users\WALTON\AppData\Local\Temp/ccUWpls8.s:3561   .text:0000101c Timebase_DownCounter_Clear_Period_Flag
C:\Users\WALTON\AppData\Local\Temp/ccUWpls8.s:3597   .text:0000104a Timebase_DownCounter_Reset
C:\Users\WALTON\AppData\Local\Temp/ccUWpls8.s:3660   .text:0000108a Timebase_DownCounter_Clear_All_Flags
C:\Users\WALTON\AppData\Local\Temp/ccUWpls8.s:3727   .text:000010ca Timebase_DownCounter_Start
C:\Users\WALTON\AppData\Local\Temp/ccUWpls8.s:3777   .text:00001104 Timebase_DownCounter_Stop
C:\Users\WALTON\AppData\Local\Temp/ccUWpls8.s:3827   .text:0000113e Timebase_DownCounter_Set_Securely
C:\Users\WALTON\AppData\Local\Temp/ccUWpls8.s:3966   .text:000011d6 Timebase_DownCounter_Set_Forcefully
C:\Users\WALTON\AppData\Local\Temp/ccUWpls8.s:4040   .text:00001224 Timebase_DownCounter_Update
C:\Users\WALTON\AppData\Local\Temp/ccUWpls8.s:4266   .text:00001314 Timebase_DownCounter_Expired
C:\Users\WALTON\AppData\Local\Temp/ccUWpls8.s:4308   .text:0000134c Timebase_DownCounter_Expired_Event
C:\Users\WALTON\AppData\Local\Temp/ccUWpls8.s:4395   .text:000013a0 Timebase_DownCounter_Set_Period_Value_Securely
C:\Users\WALTON\AppData\Local\Temp/ccUWpls8.s:4494   .text:00001424 Timebase_DownCounter_Get_Remaining_Period_Value
C:\Users\WALTON\AppData\Local\Temp/ccUWpls8.s:4558   .text:0000147c Timebase_DownCounter_Period_Value_Expired
C:\Users\WALTON\AppData\Local\Temp/ccUWpls8.s:4658   .text:00001508 Timebase_DownCounter_Period_Value_Expired_Event
C:\Users\WALTON\AppData\Local\Temp/ccUWpls8.s:4712   .text:0000154c Timebase_DownCounter_Update_All
C:\Users\WALTON\AppData\Local\Temp/ccUWpls8.s:4740   .text:00001560 Timebase_DownCounter_Reset_All
C:\Users\WALTON\AppData\Local\Temp/ccUWpls8.s:4830   .text:000015b6 Timebase_DownCounter_SS_Get_Status
C:\Users\WALTON\AppData\Local\Temp/ccUWpls8.s:4864   .text:000015e0 Timebase_DownCounter_SS_Set_Status
C:\Users\WALTON\AppData\Local\Temp/ccUWpls8.s:4902   .text:00001610 Timebase_DownCounter_SS_Get_Value
C:\Users\WALTON\AppData\Local\Temp/ccUWpls8.s:4938   .text:0000163c Timebase_DownCounter_SS_Set_Value
C:\Users\WALTON\AppData\Local\Temp/ccUWpls8.s:4972   .text:00001668 Timebase_DownCounter_SS_Get_EndValueSec
C:\Users\WALTON\AppData\Local\Temp/ccUWpls8.s:5008   .text:00001694 Timebase_DownCounter_SS_Get_EndValueSubSec
C:\Users\WALTON\AppData\Local\Temp/ccUWpls8.s:5044   .text:000016c0 Timebase_DownCounter_SS_Set_EndValueSec
C:\Users\WALTON\AppData\Local\Temp/ccUWpls8.s:5078   .text:000016ec Timebase_DownCounter_SS_Set_EndValueSubSec
C:\Users\WALTON\AppData\Local\Temp/ccUWpls8.s:5112   .text:00001718 Timebase_DownCounter_SS_Get_PeriodValue
C:\Users\WALTON\AppData\Local\Temp/ccUWpls8.s:5148   .text:00001744 Timebase_DownCounter_SS_Set_PeriodValue
C:\Users\WALTON\AppData\Local\Temp/ccUWpls8.s:5205   .text:00001798 Timebase_DownCounter_SS_Get_Period_Flag
C:\Users\WALTON\AppData\Local\Temp/ccUWpls8.s:5238   .text:000017c0 Timebase_DownCounter_SS_Set_Period_Flag
C:\Users\WALTON\AppData\Local\Temp/ccUWpls8.s:5272   .text:000017ea Timebase_DownCounter_SS_Clear_Period_Flag
C:\Users\WALTON\AppData\Local\Temp/ccUWpls8.s:5306   .text:00001814 Timebase_DownCounter_SS_Reset
C:\Users\WALTON\AppData\Local\Temp/ccUWpls8.s:5377   .text:0000185a Timebase_DownCounter_SS_Clear_All_Flags
C:\Users\WALTON\AppData\Local\Temp/ccUWpls8.s:5452   .text:000018a0 Timebase_DownCounter_SS_Start
C:\Users\WALTON\AppData\Local\Temp/ccUWpls8.s:5500   .text:000018d6 Timebase_DownCounter_SS_Stop
C:\Users\WALTON\AppData\Local\Temp/ccUWpls8.s:5548   .text:0000190c Timebase_DownCounter_SS_Set_Securely
C:\Users\WALTON\AppData\Local\Temp/ccUWpls8.s:5851   .text:00001a90 Timebase_DownCounter_SS_Set_Forcefully
C:\Users\WALTON\AppData\Local\Temp/ccUWpls8.s:5929   .text:00001adc Timebase_DownCounter_SS_Update
C:\Users\WALTON\AppData\Local\Temp/ccUWpls8.s:6381   .text:00001cee Timebase_DownCounter_SS_Expired
C:\Users\WALTON\AppData\Local\Temp/ccUWpls8.s:6421   .text:00001d22 Timebase_DownCounter_SS_Expired_Event
C:\Users\WALTON\AppData\Local\Temp/ccUWpls8.s:6516   .text:00001d7c Timebase_DownCounter_SS_Set_Period_Value_Securely
C:\Users\WALTON\AppData\Local\Temp/ccUWpls8.s:6613   .text:00001dfc Timebase_DownCounter_SS_Get_Remaining_Period_Value
C:\Users\WALTON\AppData\Local\Temp/ccUWpls8.s:6675   .text:00001e50 Timebase_DownCounter_SS_Period_Value_Expired
C:\Users\WALTON\AppData\Local\Temp/ccUWpls8.s:6772   .text:00001ed6 Timebase_DownCounter_SS_Period_Value_Expired_Event
C:\Users\WALTON\AppData\Local\Temp/ccUWpls8.s:6824   .text:00001f16 Timebase_DownCounter_SS_Update_All
C:\Users\WALTON\AppData\Local\Temp/ccUWpls8.s:6852   .text:00001f2a Timebase_DownCounter_SS_Reset_All
C:\Users\WALTON\AppData\Local\Temp/ccUWpls8.s:6942   .text:00001f8a Timebase_Reset
C:\Users\WALTON\AppData\Local\Temp/ccUWpls8.s:6960   .text:00001f98 Timebase_Init
C:\Users\WALTON\AppData\Local\Temp/ccUWpls8.s:6987   .text:00001fb2 Timebase_Main_Loop_Executables
C:\Users\WALTON\AppData\Local\Temp/ccUWpls8.s:7051   .text:00002020 Timebase_ISR_Executables
C:\Users\WALTON\AppData\Local\Temp/ccUWpls8.s:7112   .text:0000207a __vector_16

UNDEFINED SYMBOLS
__divmodsi4
__mulsi3
__udivmodhi4
__do_copy_data
__do_clear_bss
