   1               		.file	"timebase.c"
   2               	__SREG__ = 0x3f
   3               	__SP_H__ = 0x3e
   4               	__SP_L__ = 0x3d
   5               	__CCP__  = 0x34
   6               	__tmp_reg__ = 0
   7               	__zero_reg__ = 1
  15               	.Ltext0:
  16               	.global	Timebase_Struct_Init
  18               	Timebase_Struct_Init:
  19               	.LFB6:
  20               	.LM1:
  21               	/* prologue: function */
  22               	/* frame size = 0 */
  23               	.LM2:
  24 0000 80E0      		ldi r24,lo8(Timebase_type)
  25 0002 90E0      		ldi r25,hi8(Timebase_type)
  26 0004 9093 0000 		sts (Timebase)+1,r25
  27 0008 8093 0000 		sts Timebase,r24
  28               	.LM3:
  29 000c 1092 0000 		sts Timebase_type,__zero_reg__
  30               	.LM4:
  31 0010 8091 0000 		lds r24,Timebase_type
  32 0014 8460      		ori r24,lo8(4)
  33 0016 8093 0000 		sts Timebase_type,r24
  34               	.LM5:
  35 001a 8091 0000 		lds r24,Timebase_type
  36 001e 8770      		andi r24,lo8(7)
  37 0020 8093 0000 		sts Timebase_type,r24
  38               	.LM6:
  39 0024 81E0      		ldi r24,lo8(1)
  40 0026 90E0      		ldi r25,hi8(1)
  41 0028 9093 0000 		sts (Timebase_type+1)+1,r25
  42 002c 8093 0000 		sts Timebase_type+1,r24
  43               	.LM7:
  44 0030 1092 0000 		sts Timebase_type+3,__zero_reg__
  45               	.LM8:
  46 0034 1092 0000 		sts (Timebase_type+8)+1,__zero_reg__
  47 0038 1092 0000 		sts Timebase_type+8,__zero_reg__
  48               	.LM9:
  49 003c 1092 0000 		sts Timebase_type+10,__zero_reg__
  50 0040 1092 0000 		sts (Timebase_type+10)+1,__zero_reg__
  51 0044 1092 0000 		sts (Timebase_type+10)+2,__zero_reg__
  52 0048 1092 0000 		sts (Timebase_type+10)+3,__zero_reg__
  53               	.LM10:
  54 004c 1092 0000 		sts Timebase_type+4,__zero_reg__
  55 0050 1092 0000 		sts (Timebase_type+4)+1,__zero_reg__
  56 0054 1092 0000 		sts (Timebase_type+4)+2,__zero_reg__
  57 0058 1092 0000 		sts (Timebase_type+4)+3,__zero_reg__
  58               	.LM11:
  59 005c 1092 0000 		sts Timebase_type+20,__zero_reg__
  60 0060 1092 0000 		sts (Timebase_type+20)+1,__zero_reg__
  61 0064 1092 0000 		sts (Timebase_type+20)+2,__zero_reg__
  62 0068 1092 0000 		sts (Timebase_type+20)+3,__zero_reg__
  63               	.LM12:
  64 006c 1092 0000 		sts Timebase_type+24,__zero_reg__
  65 0070 1092 0000 		sts (Timebase_type+24)+1,__zero_reg__
  66 0074 1092 0000 		sts (Timebase_type+24)+2,__zero_reg__
  67 0078 1092 0000 		sts (Timebase_type+24)+3,__zero_reg__
  68               	.LM13:
  69 007c 1092 0000 		sts Timebase_type+28,__zero_reg__
  70               	.LM14:
  71 0080 1092 0000 		sts Timebase_type+29,__zero_reg__
  72               	.LM15:
  73 0084 1092 0000 		sts Timebase_type+30,__zero_reg__
  74               	.LBB662:
  75               	.LM16:
  76 0088 1092 0000 		sts Timebase_type+56,__zero_reg__
  77               	.LM17:
  78 008c 1092 0000 		sts Timebase_type+57,__zero_reg__
  79 0090 1092 0000 		sts (Timebase_type+57)+1,__zero_reg__
  80 0094 1092 0000 		sts (Timebase_type+57)+2,__zero_reg__
  81 0098 1092 0000 		sts (Timebase_type+57)+3,__zero_reg__
  82               	.LM18:
  83 009c 1092 0000 		sts Timebase_type+61,__zero_reg__
  84 00a0 1092 0000 		sts (Timebase_type+61)+1,__zero_reg__
  85 00a4 1092 0000 		sts (Timebase_type+61)+2,__zero_reg__
  86 00a8 1092 0000 		sts (Timebase_type+61)+3,__zero_reg__
  87               	.LM19:
  88 00ac 1092 0000 		sts Timebase_type+65,__zero_reg__
  89 00b0 1092 0000 		sts (Timebase_type+65)+1,__zero_reg__
  90 00b4 1092 0000 		sts (Timebase_type+65)+2,__zero_reg__
  91 00b8 1092 0000 		sts (Timebase_type+65)+3,__zero_reg__
  92               	.LM20:
  93 00bc 1092 0000 		sts Timebase_type+69,__zero_reg__
  94 00c0 1092 0000 		sts (Timebase_type+69)+1,__zero_reg__
  95 00c4 1092 0000 		sts (Timebase_type+69)+2,__zero_reg__
  96 00c8 1092 0000 		sts (Timebase_type+69)+3,__zero_reg__
  97               	.LM21:
  98 00cc 1092 0000 		sts Timebase_type+73,__zero_reg__
  99 00d0 1092 0000 		sts (Timebase_type+73)+1,__zero_reg__
 100 00d4 1092 0000 		sts (Timebase_type+73)+2,__zero_reg__
 101 00d8 1092 0000 		sts (Timebase_type+73)+3,__zero_reg__
 102               	.LBE662:
 103               	.LBB663:
 104               	.LM22:
 105 00dc 1092 0000 		sts Timebase_type+31,__zero_reg__
 106               	.LM23:
 107 00e0 1092 0000 		sts Timebase_type+32,__zero_reg__
 108 00e4 1092 0000 		sts (Timebase_type+32)+1,__zero_reg__
 109 00e8 1092 0000 		sts (Timebase_type+32)+2,__zero_reg__
 110 00ec 1092 0000 		sts (Timebase_type+32)+3,__zero_reg__
 111               	.LM24:
 112 00f0 1092 0000 		sts Timebase_type+36,__zero_reg__
 113 00f4 1092 0000 		sts (Timebase_type+36)+1,__zero_reg__
 114 00f8 1092 0000 		sts (Timebase_type+36)+2,__zero_reg__
 115 00fc 1092 0000 		sts (Timebase_type+36)+3,__zero_reg__
 116               	.LM25:
 117 0100 1092 0000 		sts Timebase_type+40,__zero_reg__
 118 0104 1092 0000 		sts (Timebase_type+40)+1,__zero_reg__
 119 0108 1092 0000 		sts (Timebase_type+40)+2,__zero_reg__
 120 010c 1092 0000 		sts (Timebase_type+40)+3,__zero_reg__
 121               	.LM26:
 122 0110 1092 0000 		sts Timebase_type+44,__zero_reg__
 123 0114 1092 0000 		sts (Timebase_type+44)+1,__zero_reg__
 124 0118 1092 0000 		sts (Timebase_type+44)+2,__zero_reg__
 125 011c 1092 0000 		sts (Timebase_type+44)+3,__zero_reg__
 126               	.LM27:
 127 0120 1092 0000 		sts Timebase_type+48,__zero_reg__
 128 0124 1092 0000 		sts (Timebase_type+48)+1,__zero_reg__
 129 0128 1092 0000 		sts (Timebase_type+48)+2,__zero_reg__
 130 012c 1092 0000 		sts (Timebase_type+48)+3,__zero_reg__
 131               	.LM28:
 132 0130 1092 0000 		sts Timebase_type+52,__zero_reg__
 133 0134 1092 0000 		sts (Timebase_type+52)+1,__zero_reg__
 134 0138 1092 0000 		sts (Timebase_type+52)+2,__zero_reg__
 135 013c 1092 0000 		sts (Timebase_type+52)+3,__zero_reg__
 136               	.LBE663:
 137               	.LBB664:
 138               	.LM29:
 139 0140 1092 0000 		sts Timebase_type+94,__zero_reg__
 140               	.LM30:
 141 0144 1092 0000 		sts Timebase_type+95,__zero_reg__
 142 0148 1092 0000 		sts (Timebase_type+95)+1,__zero_reg__
 143 014c 1092 0000 		sts (Timebase_type+95)+2,__zero_reg__
 144 0150 1092 0000 		sts (Timebase_type+95)+3,__zero_reg__
 145               	.LM31:
 146 0154 1092 0000 		sts Timebase_type+99,__zero_reg__
 147 0158 1092 0000 		sts (Timebase_type+99)+1,__zero_reg__
 148 015c 1092 0000 		sts (Timebase_type+99)+2,__zero_reg__
 149 0160 1092 0000 		sts (Timebase_type+99)+3,__zero_reg__
 150               	.LM32:
 151 0164 1092 0000 		sts Timebase_type+103,__zero_reg__
 152 0168 1092 0000 		sts (Timebase_type+103)+1,__zero_reg__
 153 016c 1092 0000 		sts (Timebase_type+103)+2,__zero_reg__
 154 0170 1092 0000 		sts (Timebase_type+103)+3,__zero_reg__
 155               	.LBE664:
 156               	.LBB665:
 157               	.LM33:
 158 0174 1092 0000 		sts Timebase_type+77,__zero_reg__
 159               	.LM34:
 160 0178 1092 0000 		sts Timebase_type+78,__zero_reg__
 161 017c 1092 0000 		sts (Timebase_type+78)+1,__zero_reg__
 162 0180 1092 0000 		sts (Timebase_type+78)+2,__zero_reg__
 163 0184 1092 0000 		sts (Timebase_type+78)+3,__zero_reg__
 164               	.LM35:
 165 0188 1092 0000 		sts Timebase_type+82,__zero_reg__
 166 018c 1092 0000 		sts (Timebase_type+82)+1,__zero_reg__
 167 0190 1092 0000 		sts (Timebase_type+82)+2,__zero_reg__
 168 0194 1092 0000 		sts (Timebase_type+82)+3,__zero_reg__
 169               	.LM36:
 170 0198 1092 0000 		sts Timebase_type+86,__zero_reg__
 171 019c 1092 0000 		sts (Timebase_type+86)+1,__zero_reg__
 172 01a0 1092 0000 		sts (Timebase_type+86)+2,__zero_reg__
 173 01a4 1092 0000 		sts (Timebase_type+86)+3,__zero_reg__
 174               	.LM37:
 175 01a8 1092 0000 		sts Timebase_type+90,__zero_reg__
 176 01ac 1092 0000 		sts (Timebase_type+90)+1,__zero_reg__
 177 01b0 1092 0000 		sts (Timebase_type+90)+2,__zero_reg__
 178 01b4 1092 0000 		sts (Timebase_type+90)+3,__zero_reg__
 179               	/* epilogue start */
 180               	.LBE665:
 181               	.LM38:
 182 01b8 0895      		ret
 183               	.LFE6:
 185               	.global	Timebase_Timer_Config
 187               	Timebase_Timer_Config:
 188               	.LFB7:
 189               	.LM39:
 190               	.LVL0:
 191 01ba 7F92      		push r7
 192 01bc 8F92      		push r8
 193 01be 9F92      		push r9
 194 01c0 AF92      		push r10
 195 01c2 BF92      		push r11
 196 01c4 CF92      		push r12
 197 01c6 DF92      		push r13
 198 01c8 EF92      		push r14
 199 01ca FF92      		push r15
 200 01cc 0F93      		push r16
 201 01ce 1F93      		push r17
 202 01d0 DF93      		push r29
 203 01d2 CF93      		push r28
 204 01d4 CDB7      		in r28,__SP_L__
 205 01d6 DEB7      		in r29,__SP_H__
 206 01d8 2A97      		sbiw r28,10
 207 01da 0FB6      		in __tmp_reg__,__SREG__
 208 01dc F894      		cli
 209 01de DEBF      		out __SP_H__,r29
 210 01e0 0FBE      		out __SREG__,__tmp_reg__
 211 01e2 CDBF      		out __SP_L__,r28
 212               	/* prologue: function */
 213               	/* frame size = 10 */
 214 01e4 8C01      		movw r16,r24
 215               	.LM40:
 216 01e6 C090 0000 		lds r12,Timebase
 217 01ea D090 0000 		lds r13,(Timebase)+1
 218 01ee F601      		movw r30,r12
 219 01f0 8081      		ld r24,Z
 220               	.LVL1:
 221 01f2 80FF      		sbrs r24,0
 222 01f4 00C0      		rjmp .L4
 223               	.LBB666:
 224               	.LM41:
 225 01f6 0130      		cpi r16,1
 226 01f8 1105      		cpc r17,__zero_reg__
 227 01fa 01F4      		brne .L5
 228 01fc 96E0      		ldi r25,lo8(6)
 229               	.LVL2:
 230 01fe 00C0      		rjmp .L6
 231               	.LVL3:
 232               	.L5:
 233               	.LM42:
 234 0200 0230      		cpi r16,2
 235 0202 1105      		cpc r17,__zero_reg__
 236 0204 01F4      		brne .L7
 237 0206 95E0      		ldi r25,lo8(5)
 238               	.LVL4:
 239 0208 00C0      		rjmp .L6
 240               	.LVL5:
 241               	.L7:
 242               	.LM43:
 243 020a 0430      		cpi r16,4
 244 020c 1105      		cpc r17,__zero_reg__
 245 020e 01F4      		brne .L8
 246 0210 94E0      		ldi r25,lo8(4)
 247               	.LVL6:
 248 0212 00C0      		rjmp .L6
 249               	.LVL7:
 250               	.L8:
 251               	.LM44:
 252 0214 0830      		cpi r16,8
 253 0216 1105      		cpc r17,__zero_reg__
 254 0218 01F4      		brne .L9
 255 021a 93E0      		ldi r25,lo8(3)
 256               	.LVL8:
 257 021c 00C0      		rjmp .L6
 258               	.LVL9:
 259               	.L9:
 260               	.LM45:
 261 021e 0031      		cpi r16,16
 262 0220 1105      		cpc r17,__zero_reg__
 263 0222 01F4      		brne .L10
 264 0224 92E0      		ldi r25,lo8(2)
 265               	.LVL10:
 266 0226 00C0      		rjmp .L6
 267               	.LVL11:
 268               	.L10:
 269 0228 90E0      		ldi r25,lo8(0)
 270               	.LVL12:
 271 022a 0032      		cpi r16,32
 272 022c 1105      		cpc r17,__zero_reg__
 273 022e 01F4      		brne .L6
 274 0230 91E0      		ldi r25,lo8(1)
 275               	.L6:
 276               	.LM46:
 277               	/* #APP */
 278               	 ;  271 "timebase.c" 1
 279 0232 F894      		cli
 280               	 ;  0 "" 2
 281               	.LM47:
 282               	/* #NOAPP */
 283 0234 84B7      		in r24,84-32
 284 0236 877F      		andi r24,lo8(-9)
 285 0238 84BF      		out 84-32,r24
 286               	.LM48:
 287 023a 8091 6000 		lds r24,96
 288 023e 8068      		ori r24,lo8(-128)
 289 0240 8093 6000 		sts 96,r24
 290               	.LM49:
 291 0244 8091 6000 		lds r24,96
 292 0248 8861      		ori r24,lo8(24)
 293 024a 8093 6000 		sts 96,r24
 294               	.LM50:
 295 024e 9064      		ori r25,lo8(64)
 296 0250 9093 6000 		sts 96,r25
 297               	.LM51:
 298               	/* #APP */
 299               	 ;  276 "timebase.c" 1
 300 0254 7894      		sei
 301               	 ;  0 "" 2
 302               	/* #NOAPP */
 303 0256 00C0      		rjmp .L12
 304               	.LVL13:
 305               	.L4:
 306               	.LBE666:
 307               	.LM52:
 308 0258 81FD      		sbrc r24,1
 309 025a 00C0      		rjmp .L12
 310               	.LM53:
 311 025c 82FF      		sbrs r24,2
 312 025e 00C0      		rjmp .L12
 313               	.LBB667:
 314               	.LM54:
 315 0260 DE01      		movw r26,r28
 316 0262 1196      		adiw r26,1
 317 0264 E0E0      		ldi r30,lo8(C.2.1696)
 318 0266 F0E0      		ldi r31,hi8(C.2.1696)
 319 0268 8AE0      		ldi r24,lo8(10)
 320               	.L13:
 321 026a 0190      		ld r0,Z+
 322 026c 0D92      		st X+,r0
 323 026e 8150      		subi r24,lo8(-(-1))
 324 0270 01F4      		brne .L13
 325               	.LM55:
 326 0272 9801      		movw r18,r16
 327 0274 40E0      		ldi r20,lo8(0)
 328 0276 50E0      		ldi r21,hi8(0)
 329               	.LVL14:
 330 0278 60E0      		ldi r22,lo8(12000000)
 331 027a 7BE1      		ldi r23,hi8(12000000)
 332 027c 87EB      		ldi r24,hlo8(12000000)
 333 027e 90E0      		ldi r25,hhi8(12000000)
 334 0280 0E94 0000 		call __divmodsi4
 335 0284 722E      		mov r7,r18
 336 0286 832E      		mov r8,r19
 337 0288 942E      		mov r9,r20
 338               	.LVL15:
 339 028a E52E      		mov r14,r21
 340 028c 5E01      		movw r10,r28
 341 028e 0894      		sec
 342 0290 A11C      		adc r10,__zero_reg__
 343 0292 B11C      		adc r11,__zero_reg__
 344 0294 C901      		movw r24,r18
 345 0296 DA01      		movw r26,r20
 346 0298 9C01      		movw r18,r24
 347 029a AD01      		movw r20,r26
 348               	.LVL16:
 349 029c FF24      		clr r15
 350               	.LVL17:
 351 029e 00C0      		rjmp .L14
 352               	.LVL18:
 353               	.L16:
 354               	.LM56:
 355 02a0 F501      		movw r30,r10
 356 02a2 2191      		ld r18,Z+
 357 02a4 3191      		ld r19,Z+
 358               	.LVL19:
 359 02a6 5F01      		movw r10,r30
 360 02a8 40E0      		ldi r20,lo8(0)
 361 02aa 50E0      		ldi r21,hi8(0)
 362 02ac 672D      		mov r22,r7
 363 02ae 782D      		mov r23,r8
 364 02b0 892D      		mov r24,r9
 365               	.LVL20:
 366 02b2 9E2D      		mov r25,r14
 367 02b4 0E94 0000 		call __divmodsi4
 368 02b8 C901      		movw r24,r18
 369 02ba DA01      		movw r26,r20
 370 02bc 9C01      		movw r18,r24
 371 02be AD01      		movw r20,r26
 372               	.LVL21:
 373               	.LM57:
 374 02c0 F394      		inc r15
 375               	.LM58:
 376 02c2 F5E0      		ldi r31,lo8(5)
 377 02c4 FF16      		cp r15,r31
 378 02c6 01F0      		breq .L15
 379               	.LVL22:
 380               	.L14:
 381               	.LM59:
 382 02c8 2F3F      		cpi r18,lo8(255)
 383 02ca 3105      		cpc r19,__zero_reg__
 384 02cc 4105      		cpc r20,__zero_reg__
 385 02ce 5105      		cpc r21,__zero_reg__
 386 02d0 01F0      		breq .+2
 387 02d2 04F4      		brge .L16
 388               	.L15:
 389               	.LM60:
 390 02d4 8F2D      		mov r24,r15
 391 02d6 8150      		subi r24,lo8(-(-1))
 392               	.LVL23:
 393               	.LM61:
 394 02d8 14BC      		out 68-32,__zero_reg__
 395               	.LM62:
 396 02da 15BC      		out 69-32,__zero_reg__
 397               	.LM63:
 398 02dc 1092 6E00 		sts 110,__zero_reg__
 399               	.LM64:
 400 02e0 15BA      		out 53-32,__zero_reg__
 401               	.LM65:
 402 02e2 17BC      		out 71-32,__zero_reg__
 403               	.LM66:
 404 02e4 18BC      		out 72-32,__zero_reg__
 405               	.LM67:
 406 02e6 16BC      		out 70-32,__zero_reg__
 407               	.LM68:
 408 02e8 17BC      		out 71-32,__zero_reg__
 409               	.LM69:
 410 02ea 8823      		tst r24
 411 02ec 01F4      		brne .L17
 412               	.LM70:
 413 02ee 81E0      		ldi r24,lo8(1)
 414               	.LVL24:
 415 02f0 00C0      		rjmp .L24
 416               	.LVL25:
 417               	.L17:
 418               	.LM71:
 419 02f2 8130      		cpi r24,lo8(1)
 420 02f4 01F4      		brne .L19
 421               	.LM72:
 422 02f6 82E0      		ldi r24,lo8(2)
 423               	.LVL26:
 424 02f8 00C0      		rjmp .L24
 425               	.LVL27:
 426               	.L19:
 427               	.LM73:
 428 02fa 8230      		cpi r24,lo8(2)
 429 02fc 01F4      		brne .L20
 430               	.LM74:
 431 02fe 83E0      		ldi r24,lo8(3)
 432               	.LVL28:
 433 0300 00C0      		rjmp .L24
 434               	.LVL29:
 435               	.L20:
 436               	.LM75:
 437 0302 8330      		cpi r24,lo8(3)
 438 0304 01F4      		brne .L21
 439               	.LM76:
 440 0306 84E0      		ldi r24,lo8(4)
 441               	.LVL30:
 442 0308 00C0      		rjmp .L24
 443               	.LVL31:
 444               	.L21:
 445               	.LM77:
 446 030a 8430      		cpi r24,lo8(4)
 447 030c 01F4      		brne .L18
 448               	.LM78:
 449 030e 85E0      		ldi r24,lo8(5)
 450               	.LVL32:
 451               	.L24:
 452 0310 85BD      		out 69-32,r24
 453               	.LVL33:
 454               	.L18:
 455               	.LM79:
 456 0312 822F      		mov r24,r18
 457               	.LVL34:
 458 0314 8095      		com r24
 459 0316 F601      		movw r30,r12
 460 0318 8383      		std Z+3,r24
 461               	.LM80:
 462 031a 8381      		ldd r24,Z+3
 463 031c 86BD      		out 70-32,r24
 464               	.LM81:
 465 031e 81E0      		ldi r24,lo8(1)
 466 0320 8093 6E00 		sts 110,r24
 467               	.LM82:
 468               	/* #APP */
 469               	 ;  324 "timebase.c" 1
 470 0324 7894      		sei
 471               	 ;  0 "" 2
 472               	.LVL35:
 473               	/* #NOAPP */
 474               	.L12:
 475               	.LBE667:
 476               	.LM83:
 477 0326 F601      		movw r30,r12
 478 0328 1283      		std Z+2,r17
 479 032a 0183      		std Z+1,r16
 480               	/* epilogue start */
 481               	.LM84:
 482 032c 2A96      		adiw r28,10
 483 032e 0FB6      		in __tmp_reg__,__SREG__
 484 0330 F894      		cli
 485 0332 DEBF      		out __SP_H__,r29
 486 0334 0FBE      		out __SREG__,__tmp_reg__
 487 0336 CDBF      		out __SP_L__,r28
 488 0338 CF91      		pop r28
 489 033a DF91      		pop r29
 490 033c 1F91      		pop r17
 491 033e 0F91      		pop r16
 492               	.LVL36:
 493 0340 FF90      		pop r15
 494 0342 EF90      		pop r14
 495 0344 DF90      		pop r13
 496 0346 CF90      		pop r12
 497 0348 BF90      		pop r11
 498 034a AF90      		pop r10
 499 034c 9F90      		pop r9
 500 034e 8F90      		pop r8
 501 0350 7F90      		pop r7
 502 0352 0895      		ret
 503               	.LFE7:
 505               	.global	Timebase_Atomic_Operation_Start
 507               	Timebase_Atomic_Operation_Start:
 508               	.LFB8:
 509               	.LM85:
 510               	/* prologue: function */
 511               	/* frame size = 0 */
 512               	.LM86:
 513               	/* #APP */
 514               	 ;  344 "timebase.c" 1
 515 0354 F894      		cli
 516               	 ;  0 "" 2
 517               	/* epilogue start */
 518               	.LM87:
 519               	/* #NOAPP */
 520 0356 0895      		ret
 521               	.LFE8:
 523               	.global	Timebase_Atomic_Operation_End
 525               	Timebase_Atomic_Operation_End:
 526               	.LFB9:
 527               	.LM88:
 528               	/* prologue: function */
 529               	/* frame size = 0 */
 530               	.LM89:
 531               	/* #APP */
 532               	 ;  348 "timebase.c" 1
 533 0358 7894      		sei
 534               	 ;  0 "" 2
 535               	/* epilogue start */
 536               	.LM90:
 537               	/* #NOAPP */
 538 035a 0895      		ret
 539               	.LFE9:
 541               	.global	Timebase_Token_Executing
 543               	Timebase_Token_Executing:
 544               	.LFB10:
 545               	.LM91:
 546               	/* prologue: function */
 547               	/* frame size = 0 */
 548               	.LM92:
 549 035c E091 0000 		lds r30,Timebase
 550 0360 F091 0000 		lds r31,(Timebase)+1
 551 0364 868D      		ldd r24,Z+30
 552               	/* epilogue start */
 553               	.LM93:
 554 0366 0895      		ret
 555               	.LFE10:
 557               	.global	Timebase_Token_Add
 559               	Timebase_Token_Add:
 560               	.LFB11:
 561               	.LM94:
 562               	/* prologue: function */
 563               	/* frame size = 0 */
 564               	.LBB668:
 565               	.LBB669:
 566               	.LM95:
 567 0368 E091 0000 		lds r30,Timebase
 568 036c F091 0000 		lds r31,(Timebase)+1
 569 0370 868D      		ldd r24,Z+30
 570               	.LBE669:
 571               	.LBE668:
 572               	.LM96:
 573 0372 8F33      		cpi r24,lo8(63)
 574 0374 00F4      		brsh .L33
 575               	.LM97:
 576 0376 868D      		ldd r24,Z+30
 577 0378 8F5F      		subi r24,lo8(-(1))
 578 037a 868F      		std Z+30,r24
 579               	.L33:
 580 037c 0895      		ret
 581               	.LFE11:
 583               	.global	Timebase_Token_Remove
 585               	Timebase_Token_Remove:
 586               	.LFB12:
 587               	.LM98:
 588               	/* prologue: function */
 589               	/* frame size = 0 */
 590               	.LBB670:
 591               	.LBB671:
 592               	.LM99:
 593 037e E091 0000 		lds r30,Timebase
 594 0382 F091 0000 		lds r31,(Timebase)+1
 595 0386 868D      		ldd r24,Z+30
 596               	.LBE671:
 597               	.LBE670:
 598               	.LM100:
 599 0388 8823      		tst r24
 600 038a 01F0      		breq .L36
 601               	.LM101:
 602 038c 868D      		ldd r24,Z+30
 603 038e 8150      		subi r24,lo8(-(-1))
 604 0390 868F      		std Z+30,r24
 605               	.L36:
 606 0392 0895      		ret
 607               	.LFE12:
 609               	.global	Timebase_Token_Remove_All
 611               	Timebase_Token_Remove_All:
 612               	.LFB13:
 613               	.LM102:
 614               	/* prologue: function */
 615               	/* frame size = 0 */
 616               	.LM103:
 617 0394 E091 0000 		lds r30,Timebase
 618 0398 F091 0000 		lds r31,(Timebase)+1
 619 039c 168E      		std Z+30,__zero_reg__
 620               	/* epilogue start */
 621               	.LM104:
 622 039e 0895      		ret
 623               	.LFE13:
 625               	.global	Timebase_Timer_Get_SubSeconds
 627               	Timebase_Timer_Get_SubSeconds:
 628               	.LFB14:
 629               	.LM105:
 630               	/* prologue: function */
 631               	/* frame size = 0 */
 632               	.LBB672:
 633               	.LBB673:
 634               	.LM106:
 635               	/* #APP */
 636               	 ;  344 "timebase.c" 1
 637 03a0 F894      		cli
 638               	 ;  0 "" 2
 639               	/* #NOAPP */
 640               	.LBE673:
 641               	.LBE672:
 642               	.LM107:
 643 03a2 E091 0000 		lds r30,Timebase
 644 03a6 F091 0000 		lds r31,(Timebase)+1
 645 03aa 2085      		ldd r18,Z+8
 646 03ac 3185      		ldd r19,Z+9
 647               	.LVL37:
 648               	.LBB674:
 649               	.LBB675:
 650               	.LM108:
 651               	/* #APP */
 652               	 ;  348 "timebase.c" 1
 653 03ae 7894      		sei
 654               	 ;  0 "" 2
 655               	/* #NOAPP */
 656               	.LBE675:
 657               	.LBE674:
 658               	.LM109:
 659 03b0 C901      		movw r24,r18
 660               	.LVL38:
 661               	/* epilogue start */
 662 03b2 0895      		ret
 663               	.LFE14:
 665               	.global	Timebase_Timer_Get_Seconds
 667               	Timebase_Timer_Get_Seconds:
 668               	.LFB15:
 669               	.LM110:
 670               	/* prologue: function */
 671               	/* frame size = 0 */
 672               	.LBB676:
 673               	.LBB677:
 674               	.LM111:
 675               	/* #APP */
 676               	 ;  344 "timebase.c" 1
 677 03b4 F894      		cli
 678               	 ;  0 "" 2
 679               	/* #NOAPP */
 680               	.LBE677:
 681               	.LBE676:
 682               	.LM112:
 683 03b6 E091 0000 		lds r30,Timebase
 684 03ba F091 0000 		lds r31,(Timebase)+1
 685 03be 2285      		ldd r18,Z+10
 686 03c0 3385      		ldd r19,Z+11
 687 03c2 4485      		ldd r20,Z+12
 688 03c4 5585      		ldd r21,Z+13
 689               	.LVL39:
 690               	.LBB678:
 691               	.LBB679:
 692               	.LM113:
 693               	/* #APP */
 694               	 ;  348 "timebase.c" 1
 695 03c6 7894      		sei
 696               	 ;  0 "" 2
 697               	/* #NOAPP */
 698               	.LBE679:
 699               	.LBE678:
 700               	.LM114:
 701 03c8 B901      		movw r22,r18
 702               	.LVL40:
 703 03ca CA01      		movw r24,r20
 704               	/* epilogue start */
 705 03cc 0895      		ret
 706               	.LFE15:
 708               	.global	Timebase_Timer_Set_SubSeconds
 710               	Timebase_Timer_Set_SubSeconds:
 711               	.LFB16:
 712               	.LM115:
 713               	.LVL41:
 714               	/* prologue: function */
 715               	/* frame size = 0 */
 716               	.LBB680:
 717               	.LBB681:
 718               	.LM116:
 719               	/* #APP */
 720               	 ;  344 "timebase.c" 1
 721 03ce F894      		cli
 722               	 ;  0 "" 2
 723               	/* #NOAPP */
 724               	.LBE681:
 725               	.LBE680:
 726               	.LM117:
 727 03d0 E091 0000 		lds r30,Timebase
 728 03d4 F091 0000 		lds r31,(Timebase)+1
 729 03d8 9187      		std Z+9,r25
 730 03da 8087      		std Z+8,r24
 731               	.LBB682:
 732               	.LBB683:
 733               	.LM118:
 734               	/* #APP */
 735               	 ;  348 "timebase.c" 1
 736 03dc 7894      		sei
 737               	 ;  0 "" 2
 738               	/* epilogue start */
 739               	/* #NOAPP */
 740               	.LBE683:
 741               	.LBE682:
 742               	.LM119:
 743 03de 0895      		ret
 744               	.LFE16:
 746               	.global	Timebase_Timer_Set_Seconds
 748               	Timebase_Timer_Set_Seconds:
 749               	.LFB17:
 750               	.LM120:
 751               	.LVL42:
 752               	/* prologue: function */
 753               	/* frame size = 0 */
 754               	.LBB684:
 755               	.LBB685:
 756               	.LM121:
 757               	/* #APP */
 758               	 ;  344 "timebase.c" 1
 759 03e0 F894      		cli
 760               	 ;  0 "" 2
 761               	/* #NOAPP */
 762               	.LBE685:
 763               	.LBE684:
 764               	.LM122:
 765 03e2 E091 0000 		lds r30,Timebase
 766 03e6 F091 0000 		lds r31,(Timebase)+1
 767 03ea 6287      		std Z+10,r22
 768 03ec 7387      		std Z+11,r23
 769 03ee 8487      		std Z+12,r24
 770 03f0 9587      		std Z+13,r25
 771               	.LBB686:
 772               	.LBB687:
 773               	.LM123:
 774               	/* #APP */
 775               	 ;  348 "timebase.c" 1
 776 03f2 7894      		sei
 777               	 ;  0 "" 2
 778               	/* epilogue start */
 779               	/* #NOAPP */
 780               	.LBE687:
 781               	.LBE686:
 782               	.LM124:
 783 03f4 0895      		ret
 784               	.LFE17:
 786               	.global	Timebase_Timer_Delay_SubSeconds
 788               	Timebase_Timer_Delay_SubSeconds:
 789               	.LFB18:
 790               	.LM125:
 791               	.LVL43:
 792 03f6 6F92      		push r6
 793 03f8 7F92      		push r7
 794 03fa 8F92      		push r8
 795 03fc 9F92      		push r9
 796 03fe AF92      		push r10
 797 0400 BF92      		push r11
 798 0402 CF92      		push r12
 799 0404 DF92      		push r13
 800 0406 EF92      		push r14
 801 0408 FF92      		push r15
 802 040a 0F93      		push r16
 803 040c 1F93      		push r17
 804 040e CF93      		push r28
 805 0410 DF93      		push r29
 806               	/* prologue: function */
 807               	/* frame size = 0 */
 808 0412 5C01      		movw r10,r24
 809               	.LBB688:
 810               	.LBB689:
 811               	.LBB690:
 812               	.LBB691:
 813               	.LM126:
 814               	/* #APP */
 815               	 ;  344 "timebase.c" 1
 816 0414 F894      		cli
 817               	 ;  0 "" 2
 818               	/* #NOAPP */
 819               	.LBE691:
 820               	.LBE690:
 821               	.LM127:
 822 0416 C091 0000 		lds r28,Timebase
 823 041a D091 0000 		lds r29,(Timebase)+1
 824 041e E884      		ldd r14,Y+8
 825 0420 F984      		ldd r15,Y+9
 826               	.LVL44:
 827               	.LBB692:
 828               	.LBB693:
 829               	.LM128:
 830               	/* #APP */
 831               	 ;  348 "timebase.c" 1
 832 0422 7894      		sei
 833               	 ;  0 "" 2
 834               	/* #NOAPP */
 835               	.LBE693:
 836               	.LBE692:
 837               	.LBE689:
 838               	.LBE688:
 839               	.LBB694:
 840               	.LBB695:
 841               	.LBB696:
 842               	.LBB697:
 843               	.LM129:
 844               	/* #APP */
 845               	 ;  344 "timebase.c" 1
 846 0424 F894      		cli
 847               	 ;  0 "" 2
 848               	/* #NOAPP */
 849               	.LBE697:
 850               	.LBE696:
 851               	.LM130:
 852 0426 2A85      		ldd r18,Y+10
 853 0428 3B85      		ldd r19,Y+11
 854 042a 4C85      		ldd r20,Y+12
 855 042c 5D85      		ldd r21,Y+13
 856               	.LVL45:
 857               	.LBB698:
 858               	.LBB699:
 859               	.LM131:
 860               	/* #APP */
 861               	 ;  348 "timebase.c" 1
 862 042e 7894      		sei
 863               	 ;  0 "" 2
 864               	/* #NOAPP */
 865               	.LBE699:
 866               	.LBE698:
 867               	.LBE695:
 868               	.LBE694:
 869               	.LM132:
 870 0430 6981      		ldd r22,Y+1
 871 0432 7A81      		ldd r23,Y+2
 872 0434 80E0      		ldi r24,lo8(0)
 873 0436 90E0      		ldi r25,hi8(0)
 874               	.LVL46:
 875 0438 0E94 0000 		call __mulsi3
 876               	.LVL47:
 877 043c 3B01      		movw r6,r22
 878 043e 4C01      		movw r8,r24
 879               	.LVL48:
 880               	.LM133:
 881 0440 00E0      		ldi r16,lo8(0)
 882 0442 10E0      		ldi r17,hi8(0)
 883               	.LVL49:
 884 0444 6E0C      		add r6,r14
 885 0446 7F1C      		adc r7,r15
 886 0448 801E      		adc r8,r16
 887 044a 911E      		adc r9,r17
 888               	.LM134:
 889 044c CC24      		clr r12
 890 044e DD24      		clr r13
 891               	.LVL50:
 892 0450 6A0C      		add r6,r10
 893 0452 7B1C      		adc r7,r11
 894 0454 8C1C      		adc r8,r12
 895 0456 9D1C      		adc r9,r13
 896 0458 60E0      		ldi r22,lo8(0)
 897 045a 70E0      		ldi r23,hi8(0)
 898 045c 80E0      		ldi r24,hlo8(0)
 899 045e 90E0      		ldi r25,hhi8(0)
 900               	.LVL51:
 901 0460 00C0      		rjmp .L48
 902               	.LVL52:
 903               	.L49:
 904               	.LBB700:
 905               	.LBB701:
 906               	.LBB702:
 907               	.LBB703:
 908               	.LM135:
 909               	/* #APP */
 910               	 ;  344 "timebase.c" 1
 911 0462 F894      		cli
 912               	 ;  0 "" 2
 913               	/* #NOAPP */
 914               	.LBE703:
 915               	.LBE702:
 916               	.LM136:
 917 0464 E884      		ldd r14,Y+8
 918 0466 F984      		ldd r15,Y+9
 919               	.LVL53:
 920               	.LBB704:
 921               	.LBB705:
 922               	.LM137:
 923               	/* #APP */
 924               	 ;  348 "timebase.c" 1
 925 0468 7894      		sei
 926               	 ;  0 "" 2
 927               	/* #NOAPP */
 928               	.LBE705:
 929               	.LBE704:
 930               	.LBE701:
 931               	.LBE700:
 932               	.LBB706:
 933               	.LBB707:
 934               	.LBB708:
 935               	.LBB709:
 936               	.LM138:
 937               	/* #APP */
 938               	 ;  344 "timebase.c" 1
 939 046a F894      		cli
 940               	 ;  0 "" 2
 941               	/* #NOAPP */
 942               	.LBE709:
 943               	.LBE708:
 944               	.LM139:
 945 046c 2A85      		ldd r18,Y+10
 946 046e 3B85      		ldd r19,Y+11
 947 0470 4C85      		ldd r20,Y+12
 948 0472 5D85      		ldd r21,Y+13
 949               	.LVL54:
 950               	.LBB710:
 951               	.LBB711:
 952               	.LM140:
 953               	/* #APP */
 954               	 ;  348 "timebase.c" 1
 955 0474 7894      		sei
 956               	 ;  0 "" 2
 957               	/* #NOAPP */
 958               	.LBE711:
 959               	.LBE710:
 960               	.LBE707:
 961               	.LBE706:
 962               	.LM141:
 963 0476 6981      		ldd r22,Y+1
 964 0478 7A81      		ldd r23,Y+2
 965               	.LVL55:
 966 047a 80E0      		ldi r24,lo8(0)
 967 047c 90E0      		ldi r25,hi8(0)
 968 047e 0E94 0000 		call __mulsi3
 969               	.LVL56:
 970               	.LM142:
 971 0482 00E0      		ldi r16,lo8(0)
 972 0484 10E0      		ldi r17,hi8(0)
 973               	.LVL57:
 974 0486 6E0D      		add r22,r14
 975 0488 7F1D      		adc r23,r15
 976 048a 801F      		adc r24,r16
 977 048c 911F      		adc r25,r17
 978               	.LVL58:
 979               	.L48:
 980               	.LM143:
 981 048e 6615      		cp r22,r6
 982 0490 7705      		cpc r23,r7
 983 0492 8805      		cpc r24,r8
 984 0494 9905      		cpc r25,r9
 985 0496 04F0      		brlt .L49
 986               	/* epilogue start */
 987               	.LM144:
 988 0498 DF91      		pop r29
 989 049a CF91      		pop r28
 990 049c 1F91      		pop r17
 991 049e 0F91      		pop r16
 992               	.LVL59:
 993 04a0 FF90      		pop r15
 994 04a2 EF90      		pop r14
 995               	.LVL60:
 996 04a4 DF90      		pop r13
 997 04a6 CF90      		pop r12
 998               	.LVL61:
 999 04a8 BF90      		pop r11
 1000 04aa AF90      		pop r10
 1001               	.LVL62:
 1002 04ac 9F90      		pop r9
 1003 04ae 8F90      		pop r8
 1004 04b0 7F90      		pop r7
 1005 04b2 6F90      		pop r6
 1006               	.LVL63:
 1007 04b4 0895      		ret
 1008               	.LFE18:
 1010               	.global	Timebase_Timer_Await_SubSeconds
 1012               	Timebase_Timer_Await_SubSeconds:
 1013               	.LFB19:
 1014               	.LM145:
 1015               	.LVL64:
 1016               	/* prologue: function */
 1017               	/* frame size = 0 */
 1018 04b6 BC01      		movw r22,r24
 1019               	.LBB712:
 1020               	.LBB713:
 1021               	.LM146:
 1022 04b8 E091 0000 		lds r30,Timebase
 1023 04bc F091 0000 		lds r31,(Timebase)+1
 1024               	.LVL65:
 1025               	.L52:
 1026               	.LBB714:
 1027               	.LBB715:
 1028               	.LM147:
 1029               	/* #APP */
 1030               	 ;  344 "timebase.c" 1
 1031 04c0 F894      		cli
 1032               	 ;  0 "" 2
 1033               	/* #NOAPP */
 1034               	.LBE715:
 1035               	.LBE714:
 1036               	.LM148:
 1037 04c2 8085      		ldd r24,Z+8
 1038 04c4 9185      		ldd r25,Z+9
 1039               	.LVL66:
 1040               	.LBB716:
 1041               	.LBB717:
 1042               	.LM149:
 1043               	/* #APP */
 1044               	 ;  348 "timebase.c" 1
 1045 04c6 7894      		sei
 1046               	 ;  0 "" 2
 1047               	/* #NOAPP */
 1048               	.LBE717:
 1049               	.LBE716:
 1050               	.LBE713:
 1051               	.LBE712:
 1052               	.LM150:
 1053 04c8 2481      		ldd r18,Z+4
 1054 04ca 3581      		ldd r19,Z+5
 1055 04cc 4681      		ldd r20,Z+6
 1056 04ce 5781      		ldd r21,Z+7
 1057 04d0 A0E0      		ldi r26,lo8(0)
 1058 04d2 B0E0      		ldi r27,hi8(0)
 1059               	.LVL67:
 1060 04d4 8217      		cp r24,r18
 1061 04d6 9307      		cpc r25,r19
 1062 04d8 A407      		cpc r26,r20
 1063 04da B507      		cpc r27,r21
 1064 04dc 01F4      		brne .L52
 1065               	.LBB718:
 1066               	.LBB719:
 1067               	.LBB720:
 1068               	.LBB721:
 1069               	.LM151:
 1070               	/* #APP */
 1071               	 ;  344 "timebase.c" 1
 1072 04de F894      		cli
 1073               	 ;  0 "" 2
 1074               	/* #NOAPP */
 1075               	.LBE721:
 1076               	.LBE720:
 1077               	.LM152:
 1078 04e0 8085      		ldd r24,Z+8
 1079 04e2 9185      		ldd r25,Z+9
 1080               	.LVL68:
 1081               	.LBB722:
 1082               	.LBB723:
 1083               	.LM153:
 1084               	/* #APP */
 1085               	 ;  348 "timebase.c" 1
 1086 04e4 7894      		sei
 1087               	 ;  0 "" 2
 1088               	/* #NOAPP */
 1089               	.LBE723:
 1090               	.LBE722:
 1091               	.LBE719:
 1092               	.LBE718:
 1093               	.LM154:
 1094 04e6 860F      		add r24,r22
 1095 04e8 971F      		adc r25,r23
 1096 04ea A0E0      		ldi r26,lo8(0)
 1097 04ec B0E0      		ldi r27,hi8(0)
 1098               	.LVL69:
 1099 04ee 8483      		std Z+4,r24
 1100 04f0 9583      		std Z+5,r25
 1101 04f2 A683      		std Z+6,r26
 1102 04f4 B783      		std Z+7,r27
 1103               	.LVL70:
 1104               	.LM155:
 1105 04f6 2481      		ldd r18,Z+4
 1106 04f8 3581      		ldd r19,Z+5
 1107 04fa 4681      		ldd r20,Z+6
 1108 04fc 5781      		ldd r21,Z+7
 1109 04fe 8181      		ldd r24,Z+1
 1110 0500 9281      		ldd r25,Z+2
 1111 0502 A0E0      		ldi r26,lo8(0)
 1112 0504 B0E0      		ldi r27,hi8(0)
 1113 0506 2817      		cp r18,r24
 1114 0508 3907      		cpc r19,r25
 1115 050a 4A07      		cpc r20,r26
 1116 050c 5B07      		cpc r21,r27
 1117 050e 04F0      		brlt .L54
 1118               	.LM156:
 1119 0510 2481      		ldd r18,Z+4
 1120 0512 3581      		ldd r19,Z+5
 1121 0514 4681      		ldd r20,Z+6
 1122 0516 5781      		ldd r21,Z+7
 1123 0518 8181      		ldd r24,Z+1
 1124 051a 9281      		ldd r25,Z+2
 1125 051c A0E0      		ldi r26,lo8(0)
 1126 051e B0E0      		ldi r27,hi8(0)
 1127 0520 281B      		sub r18,r24
 1128 0522 390B      		sbc r19,r25
 1129 0524 4A0B      		sbc r20,r26
 1130 0526 5B0B      		sbc r21,r27
 1131 0528 2483      		std Z+4,r18
 1132 052a 3583      		std Z+5,r19
 1133 052c 4683      		std Z+6,r20
 1134 052e 5783      		std Z+7,r21
 1135               	.L54:
 1136 0530 0895      		ret
 1137               	.LFE19:
 1139               	.global	Timebase_Timer_Delay_Seconds
 1141               	Timebase_Timer_Delay_Seconds:
 1142               	.LFB20:
 1143               	.LM157:
 1144               	.LVL71:
 1145               	/* prologue: function */
 1146               	/* frame size = 0 */
 1147               	.LBB724:
 1148               	.LBB725:
 1149               	.LBB726:
 1150               	.LBB727:
 1151               	.LM158:
 1152               	/* #APP */
 1153               	 ;  344 "timebase.c" 1
 1154 0532 F894      		cli
 1155               	 ;  0 "" 2
 1156               	/* #NOAPP */
 1157               	.LBE727:
 1158               	.LBE726:
 1159               	.LM159:
 1160 0534 E091 0000 		lds r30,Timebase
 1161 0538 F091 0000 		lds r31,(Timebase)+1
 1162 053c 2285      		ldd r18,Z+10
 1163 053e 3385      		ldd r19,Z+11
 1164 0540 4485      		ldd r20,Z+12
 1165 0542 5585      		ldd r21,Z+13
 1166               	.LVL72:
 1167               	.LBB728:
 1168               	.LBB729:
 1169               	.LM160:
 1170               	/* #APP */
 1171               	 ;  348 "timebase.c" 1
 1172 0544 7894      		sei
 1173               	 ;  0 "" 2
 1174               	/* #NOAPP */
 1175               	.LBE729:
 1176               	.LBE728:
 1177               	.LBE725:
 1178               	.LBE724:
 1179               	.LM161:
 1180 0546 A0E0      		ldi r26,lo8(0)
 1181 0548 B0E0      		ldi r27,hi8(0)
 1182               	.LVL73:
 1183 054a 820F      		add r24,r18
 1184 054c 931F      		adc r25,r19
 1185 054e A41F      		adc r26,r20
 1186 0550 B51F      		adc r27,r21
 1187               	.LVL74:
 1188 0552 20E0      		ldi r18,lo8(0)
 1189 0554 30E0      		ldi r19,hi8(0)
 1190 0556 40E0      		ldi r20,hlo8(0)
 1191 0558 50E0      		ldi r21,hhi8(0)
 1192               	.LVL75:
 1193 055a 00C0      		rjmp .L57
 1194               	.L58:
 1195               	.LBB730:
 1196               	.LBB731:
 1197               	.LBB732:
 1198               	.LBB733:
 1199               	.LM162:
 1200               	/* #APP */
 1201               	 ;  344 "timebase.c" 1
 1202 055c F894      		cli
 1203               	 ;  0 "" 2
 1204               	/* #NOAPP */
 1205               	.LBE733:
 1206               	.LBE732:
 1207               	.LM163:
 1208 055e 2285      		ldd r18,Z+10
 1209 0560 3385      		ldd r19,Z+11
 1210 0562 4485      		ldd r20,Z+12
 1211 0564 5585      		ldd r21,Z+13
 1212               	.LBB734:
 1213               	.LBB735:
 1214               	.LM164:
 1215               	/* #APP */
 1216               	 ;  348 "timebase.c" 1
 1217 0566 7894      		sei
 1218               	 ;  0 "" 2
 1219               	/* #NOAPP */
 1220               	.L57:
 1221               	.LBE735:
 1222               	.LBE734:
 1223               	.LBE731:
 1224               	.LBE730:
 1225               	.LM165:
 1226 0568 2817      		cp r18,r24
 1227 056a 3907      		cpc r19,r25
 1228 056c 4A07      		cpc r20,r26
 1229 056e 5B07      		cpc r21,r27
 1230 0570 04F0      		brlt .L58
 1231               	/* epilogue start */
 1232               	.LM166:
 1233 0572 0895      		ret
 1234               	.LFE20:
 1236               	.global	Timebase_Window_Timer_Reset
 1238               	Timebase_Window_Timer_Reset:
 1239               	.LFB21:
 1240               	.LM167:
 1241               	/* prologue: function */
 1242               	/* frame size = 0 */
 1243               	.LM168:
 1244 0574 E091 0000 		lds r30,Timebase
 1245 0578 F091 0000 		lds r31,(Timebase)+1
 1246 057c 148A      		std Z+20,__zero_reg__
 1247 057e 158A      		std Z+21,__zero_reg__
 1248 0580 168A      		std Z+22,__zero_reg__
 1249 0582 178A      		std Z+23,__zero_reg__
 1250               	.LM169:
 1251 0584 108E      		std Z+24,__zero_reg__
 1252 0586 118E      		std Z+25,__zero_reg__
 1253 0588 128E      		std Z+26,__zero_reg__
 1254 058a 138E      		std Z+27,__zero_reg__
 1255               	.LM170:
 1256 058c 148E      		std Z+28,__zero_reg__
 1257               	/* epilogue start */
 1258               	.LM171:
 1259 058e 0895      		ret
 1260               	.LFE21:
 1262               	.global	Timebase_Window_Timer_Start
 1264               	Timebase_Window_Timer_Start:
 1265               	.LFB22:
 1266               	.LM172:
 1267               	/* prologue: function */
 1268               	/* frame size = 0 */
 1269               	.LM173:
 1270 0590 E091 0000 		lds r30,Timebase
 1271 0594 F091 0000 		lds r31,(Timebase)+1
 1272 0598 848D      		ldd r24,Z+28
 1273 059a 8823      		tst r24
 1274 059c 01F4      		brne .L64
 1275               	.LBB736:
 1276               	.LBB737:
 1277               	.LBB738:
 1278               	.LBB739:
 1279               	.LM174:
 1280               	/* #APP */
 1281               	 ;  344 "timebase.c" 1
 1282 059e F894      		cli
 1283               	 ;  0 "" 2
 1284               	/* #NOAPP */
 1285               	.LBE739:
 1286               	.LBE738:
 1287               	.LM175:
 1288 05a0 8285      		ldd r24,Z+10
 1289 05a2 9385      		ldd r25,Z+11
 1290 05a4 A485      		ldd r26,Z+12
 1291 05a6 B585      		ldd r27,Z+13
 1292               	.LVL76:
 1293               	.LBB740:
 1294               	.LBB741:
 1295               	.LM176:
 1296               	/* #APP */
 1297               	 ;  348 "timebase.c" 1
 1298 05a8 7894      		sei
 1299               	 ;  0 "" 2
 1300               	/* #NOAPP */
 1301               	.LBE741:
 1302               	.LBE740:
 1303               	.LBE737:
 1304               	.LBE736:
 1305               	.LM177:
 1306 05aa 848B      		std Z+20,r24
 1307 05ac 958B      		std Z+21,r25
 1308 05ae A68B      		std Z+22,r26
 1309 05b0 B78B      		std Z+23,r27
 1310               	.LBB742:
 1311               	.LBB743:
 1312               	.LBB744:
 1313               	.LBB745:
 1314               	.LM178:
 1315               	/* #APP */
 1316               	 ;  344 "timebase.c" 1
 1317 05b2 F894      		cli
 1318               	 ;  0 "" 2
 1319               	/* #NOAPP */
 1320               	.LBE745:
 1321               	.LBE744:
 1322               	.LM179:
 1323 05b4 8085      		ldd r24,Z+8
 1324 05b6 9185      		ldd r25,Z+9
 1325               	.LVL77:
 1326               	.LBB746:
 1327               	.LBB747:
 1328               	.LM180:
 1329               	/* #APP */
 1330               	 ;  348 "timebase.c" 1
 1331 05b8 7894      		sei
 1332               	 ;  0 "" 2
 1333               	/* #NOAPP */
 1334               	.LBE747:
 1335               	.LBE746:
 1336               	.LBE743:
 1337               	.LBE742:
 1338               	.LM181:
 1339 05ba A0E0      		ldi r26,lo8(0)
 1340 05bc B0E0      		ldi r27,hi8(0)
 1341               	.LVL78:
 1342 05be 808F      		std Z+24,r24
 1343 05c0 918F      		std Z+25,r25
 1344 05c2 A28F      		std Z+26,r26
 1345 05c4 B38F      		std Z+27,r27
 1346               	.LM182:
 1347 05c6 81E0      		ldi r24,lo8(1)
 1348               	.LVL79:
 1349 05c8 848F      		std Z+28,r24
 1350               	.L64:
 1351 05ca 0895      		ret
 1352               	.LFE22:
 1354               	.global	Timebase_Window_Timer_Get_Interval
 1356               	Timebase_Window_Timer_Get_Interval:
 1357               	.LFB23:
 1358               	.LM183:
 1359 05cc EF92      		push r14
 1360 05ce FF92      		push r15
 1361 05d0 0F93      		push r16
 1362 05d2 1F93      		push r17
 1363 05d4 CF93      		push r28
 1364 05d6 DF93      		push r29
 1365               	/* prologue: function */
 1366               	/* frame size = 0 */
 1367               	.LM184:
 1368 05d8 C091 0000 		lds r28,Timebase
 1369 05dc D091 0000 		lds r29,(Timebase)+1
 1370 05e0 8C8D      		ldd r24,Y+28
 1371 05e2 8130      		cpi r24,lo8(1)
 1372 05e4 01F0      		breq .L66
 1373 05e6 EE24      		clr r14
 1374 05e8 FF24      		clr r15
 1375 05ea 8701      		movw r16,r14
 1376               	.LVL80:
 1377 05ec 00C0      		rjmp .L67
 1378               	.LVL81:
 1379               	.L66:
 1380               	.LBB748:
 1381               	.LBB749:
 1382               	.LBB750:
 1383               	.LBB751:
 1384               	.LM185:
 1385               	/* #APP */
 1386               	 ;  344 "timebase.c" 1
 1387 05ee F894      		cli
 1388               	 ;  0 "" 2
 1389               	/* #NOAPP */
 1390               	.LBE751:
 1391               	.LBE750:
 1392               	.LM186:
 1393 05f0 2A85      		ldd r18,Y+10
 1394 05f2 3B85      		ldd r19,Y+11
 1395 05f4 4C85      		ldd r20,Y+12
 1396 05f6 5D85      		ldd r21,Y+13
 1397               	.LVL82:
 1398               	.LBB752:
 1399               	.LBB753:
 1400               	.LM187:
 1401               	/* #APP */
 1402               	 ;  348 "timebase.c" 1
 1403 05f8 7894      		sei
 1404               	 ;  0 "" 2
 1405               	/* #NOAPP */
 1406               	.LBE753:
 1407               	.LBE752:
 1408               	.LBE749:
 1409               	.LBE748:
 1410               	.LBB754:
 1411               	.LBB755:
 1412               	.LBB756:
 1413               	.LBB757:
 1414               	.LM188:
 1415               	/* #APP */
 1416               	 ;  344 "timebase.c" 1
 1417 05fa F894      		cli
 1418               	 ;  0 "" 2
 1419               	/* #NOAPP */
 1420               	.LBE757:
 1421               	.LBE756:
 1422               	.LM189:
 1423 05fc 8885      		ldd r24,Y+8
 1424 05fe 9985      		ldd r25,Y+9
 1425               	.LVL83:
 1426               	.LBB758:
 1427               	.LBB759:
 1428               	.LM190:
 1429               	/* #APP */
 1430               	 ;  348 "timebase.c" 1
 1431 0600 7894      		sei
 1432               	 ;  0 "" 2
 1433               	/* #NOAPP */
 1434               	.LBE759:
 1435               	.LBE758:
 1436               	.LBE755:
 1437               	.LBE754:
 1438               	.LM191:
 1439 0602 7C01      		movw r14,r24
 1440               	.LVL84:
 1441 0604 00E0      		ldi r16,lo8(0)
 1442 0606 10E0      		ldi r17,hi8(0)
 1443               	.LVL85:
 1444               	.LM192:
 1445 0608 8C89      		ldd r24,Y+20
 1446 060a 9D89      		ldd r25,Y+21
 1447 060c AE89      		ldd r26,Y+22
 1448 060e BF89      		ldd r27,Y+23
 1449               	.LVL86:
 1450 0610 281B      		sub r18,r24
 1451 0612 390B      		sbc r19,r25
 1452 0614 4A0B      		sbc r20,r26
 1453 0616 5B0B      		sbc r21,r27
 1454               	.LVL87:
 1455               	.LM193:
 1456 0618 6981      		ldd r22,Y+1
 1457 061a 7A81      		ldd r23,Y+2
 1458 061c 80E0      		ldi r24,lo8(0)
 1459 061e 90E0      		ldi r25,hi8(0)
 1460 0620 0E94 0000 		call __mulsi3
 1461               	.LVL88:
 1462               	.LM194:
 1463 0624 288D      		ldd r18,Y+24
 1464 0626 398D      		ldd r19,Y+25
 1465 0628 4A8D      		ldd r20,Y+26
 1466 062a 5B8D      		ldd r21,Y+27
 1467 062c E21A      		sub r14,r18
 1468 062e F30A      		sbc r15,r19
 1469 0630 040B      		sbc r16,r20
 1470 0632 150B      		sbc r17,r21
 1471               	.LVL89:
 1472 0634 E60E      		add r14,r22
 1473 0636 F71E      		adc r15,r23
 1474 0638 081F      		adc r16,r24
 1475 063a 191F      		adc r17,r25
 1476               	.L67:
 1477               	.LM195:
 1478 063c B701      		movw r22,r14
 1479               	.LVL90:
 1480 063e C801      		movw r24,r16
 1481               	.LVL91:
 1482               	/* epilogue start */
 1483 0640 DF91      		pop r29
 1484 0642 CF91      		pop r28
 1485 0644 1F91      		pop r17
 1486 0646 0F91      		pop r16
 1487 0648 FF90      		pop r15
 1488 064a EF90      		pop r14
 1489 064c 0895      		ret
 1490               	.LFE23:
 1492               	.global	Timebase_Window_Timer_Get_Interval_Reset
 1494               	Timebase_Window_Timer_Get_Interval_Reset:
 1495               	.LFB24:
 1496               	.LM196:
 1497               	/* prologue: function */
 1498               	/* frame size = 0 */
 1499               	.LM197:
 1500 064e 0E94 0000 		call Timebase_Window_Timer_Get_Interval
 1501 0652 282F      		mov r18,r24
 1502               	.LVL92:
 1503               	.LM198:
 1504 0654 E091 0000 		lds r30,Timebase
 1505 0658 F091 0000 		lds r31,(Timebase)+1
 1506 065c 848D      		ldd r24,Z+28
 1507 065e 8130      		cpi r24,lo8(1)
 1508 0660 01F4      		brne .L70
 1509               	.LBB760:
 1510               	.LBB761:
 1511               	.LM199:
 1512 0662 148A      		std Z+20,__zero_reg__
 1513 0664 158A      		std Z+21,__zero_reg__
 1514 0666 168A      		std Z+22,__zero_reg__
 1515 0668 178A      		std Z+23,__zero_reg__
 1516               	.LM200:
 1517 066a 108E      		std Z+24,__zero_reg__
 1518 066c 118E      		std Z+25,__zero_reg__
 1519 066e 128E      		std Z+26,__zero_reg__
 1520 0670 138E      		std Z+27,__zero_reg__
 1521               	.LM201:
 1522 0672 148E      		std Z+28,__zero_reg__
 1523               	.L70:
 1524               	.LBE761:
 1525               	.LBE760:
 1526               	.LM202:
 1527 0674 822F      		mov r24,r18
 1528               	/* epilogue start */
 1529 0676 0895      		ret
 1530               	.LFE24:
 1532               	.global	Timebase_UpCounter_SS_Get_Status
 1534               	Timebase_UpCounter_SS_Get_Status:
 1535               	.LFB25:
 1536               	.LM203:
 1537               	.LVL93:
 1538               	/* prologue: function */
 1539               	/* frame size = 0 */
 1540               	.LM204:
 1541 0678 E091 0000 		lds r30,Timebase
 1542 067c F091 0000 		lds r31,(Timebase)+1
 1543 0680 90E0      		ldi r25,lo8(0)
 1544               	.LVL94:
 1545 0682 29E1      		ldi r18,lo8(25)
 1546 0684 30E0      		ldi r19,hi8(25)
 1547 0686 AC01      		movw r20,r24
 1548 0688 429F      		mul r20,r18
 1549 068a C001      		movw r24,r0
 1550 068c 439F      		mul r20,r19
 1551 068e 900D      		add r25,r0
 1552 0690 529F      		mul r21,r18
 1553 0692 900D      		add r25,r0
 1554 0694 1124      		clr r1
 1555               	.LVL95:
 1556 0696 E80F      		add r30,r24
 1557 0698 F91F      		adc r31,r25
 1558 069a 878D      		ldd r24,Z+31
 1559 069c 8695      		lsr r24
 1560               	.LM205:
 1561 069e 8F70      		andi r24,lo8(15)
 1562               	/* epilogue start */
 1563 06a0 0895      		ret
 1564               	.LFE25:
 1566               	.global	Timebase_UpCounter_SS_Set_Status
 1568               	Timebase_UpCounter_SS_Set_Status:
 1569               	.LFB26:
 1570               	.LM206:
 1571               	.LVL96:
 1572               	/* prologue: function */
 1573               	/* frame size = 0 */
 1574               	.LM207:
 1575 06a2 E091 0000 		lds r30,Timebase
 1576 06a6 F091 0000 		lds r31,(Timebase)+1
 1577 06aa 90E0      		ldi r25,lo8(0)
 1578               	.LVL97:
 1579 06ac 29E1      		ldi r18,lo8(25)
 1580 06ae 30E0      		ldi r19,hi8(25)
 1581 06b0 AC01      		movw r20,r24
 1582 06b2 429F      		mul r20,r18
 1583 06b4 C001      		movw r24,r0
 1584 06b6 439F      		mul r20,r19
 1585 06b8 900D      		add r25,r0
 1586 06ba 529F      		mul r21,r18
 1587 06bc 900D      		add r25,r0
 1588 06be 1124      		clr r1
 1589               	.LVL98:
 1590 06c0 E80F      		add r30,r24
 1591 06c2 F91F      		adc r31,r25
 1592 06c4 6F70      		andi r22,lo8(15)
 1593               	.LVL99:
 1594 06c6 660F      		lsl r22
 1595 06c8 878D      		ldd r24,Z+31
 1596 06ca 817E      		andi r24,lo8(-31)
 1597 06cc 862B      		or r24,r22
 1598 06ce 878F      		std Z+31,r24
 1599               	/* epilogue start */
 1600               	.LM208:
 1601 06d0 0895      		ret
 1602               	.LFE26:
 1604               	.global	Timebase_UpCounter_SS_Get_Value
 1606               	Timebase_UpCounter_SS_Get_Value:
 1607               	.LFB27:
 1608               	.LM209:
 1609               	.LVL100:
 1610               	/* prologue: function */
 1611               	/* frame size = 0 */
 1612               	.LM210:
 1613 06d2 E091 0000 		lds r30,Timebase
 1614 06d6 F091 0000 		lds r31,(Timebase)+1
 1615 06da 90E0      		ldi r25,lo8(0)
 1616               	.LVL101:
 1617 06dc 29E1      		ldi r18,lo8(25)
 1618 06de 30E0      		ldi r19,hi8(25)
 1619 06e0 AC01      		movw r20,r24
 1620 06e2 429F      		mul r20,r18
 1621 06e4 C001      		movw r24,r0
 1622 06e6 439F      		mul r20,r19
 1623 06e8 900D      		add r25,r0
 1624 06ea 529F      		mul r21,r18
 1625 06ec 900D      		add r25,r0
 1626 06ee 1124      		clr r1
 1627               	.LVL102:
 1628 06f0 E80F      		add r30,r24
 1629 06f2 F91F      		adc r31,r25
 1630 06f4 DF01      		movw r26,r30
 1631 06f6 D096      		adiw r26,48
 1632 06f8 60A9      		ldd r22,Z+48
 1633 06fa 1196      		adiw r26,1
 1634 06fc 7C91      		ld r23,X
 1635 06fe 1197      		sbiw r26,1
 1636               	.LM211:
 1637 0700 1296      		adiw r26,2
 1638 0702 8C91      		ld r24,X
 1639 0704 1297      		sbiw r26,2
 1640 0706 1396      		adiw r26,3
 1641 0708 9C91      		ld r25,X
 1642               	.LVL103:
 1643               	/* epilogue start */
 1644 070a 0895      		ret
 1645               	.LFE27:
 1647               	.global	Timebase_UpCounter_SS_Set_Value
 1649               	Timebase_UpCounter_SS_Set_Value:
 1650               	.LFB28:
 1651               	.LM212:
 1652               	.LVL104:
 1653               	/* prologue: function */
 1654               	/* frame size = 0 */
 1655               	.LM213:
 1656 070c E091 0000 		lds r30,Timebase
 1657 0710 F091 0000 		lds r31,(Timebase)+1
 1658 0714 90E0      		ldi r25,lo8(0)
 1659               	.LVL105:
 1660 0716 29E1      		ldi r18,lo8(25)
 1661 0718 30E0      		ldi r19,hi8(25)
 1662 071a DC01      		movw r26,r24
 1663 071c A29F      		mul r26,r18
 1664 071e C001      		movw r24,r0
 1665 0720 A39F      		mul r26,r19
 1666 0722 900D      		add r25,r0
 1667 0724 B29F      		mul r27,r18
 1668 0726 900D      		add r25,r0
 1669 0728 1124      		clr r1
 1670               	.LVL106:
 1671 072a E80F      		add r30,r24
 1672 072c F91F      		adc r31,r25
 1673 072e 40AB      		std Z+48,r20
 1674 0730 51AB      		std Z+49,r21
 1675 0732 62AB      		std Z+50,r22
 1676 0734 73AB      		std Z+51,r23
 1677               	/* epilogue start */
 1678               	.LM214:
 1679 0736 0895      		ret
 1680               	.LFE28:
 1682               	.global	Timebase_UpCounter_SS_Get_EndValueSec
 1684               	Timebase_UpCounter_SS_Get_EndValueSec:
 1685               	.LFB29:
 1686               	.LM215:
 1687               	.LVL107:
 1688               	/* prologue: function */
 1689               	/* frame size = 0 */
 1690               	.LM216:
 1691 0738 E091 0000 		lds r30,Timebase
 1692 073c F091 0000 		lds r31,(Timebase)+1
 1693 0740 90E0      		ldi r25,lo8(0)
 1694               	.LVL108:
 1695 0742 29E1      		ldi r18,lo8(25)
 1696 0744 30E0      		ldi r19,hi8(25)
 1697 0746 AC01      		movw r20,r24
 1698 0748 429F      		mul r20,r18
 1699 074a C001      		movw r24,r0
 1700 074c 439F      		mul r20,r19
 1701 074e 900D      		add r25,r0
 1702 0750 529F      		mul r21,r18
 1703 0752 900D      		add r25,r0
 1704 0754 1124      		clr r1
 1705               	.LVL109:
 1706 0756 E80F      		add r30,r24
 1707 0758 F91F      		adc r31,r25
 1708 075a DF01      		movw r26,r30
 1709 075c 9096      		adiw r26,32
 1710 075e 60A1      		ldd r22,Z+32
 1711 0760 1196      		adiw r26,1
 1712 0762 7C91      		ld r23,X
 1713 0764 1197      		sbiw r26,1
 1714               	.LM217:
 1715 0766 1296      		adiw r26,2
 1716 0768 8C91      		ld r24,X
 1717 076a 1297      		sbiw r26,2
 1718 076c 1396      		adiw r26,3
 1719 076e 9C91      		ld r25,X
 1720               	.LVL110:
 1721               	/* epilogue start */
 1722 0770 0895      		ret
 1723               	.LFE29:
 1725               	.global	Timebase_UpCounter_SS_Get_EndValueSubSec
 1727               	Timebase_UpCounter_SS_Get_EndValueSubSec:
 1728               	.LFB30:
 1729               	.LM218:
 1730               	.LVL111:
 1731               	/* prologue: function */
 1732               	/* frame size = 0 */
 1733               	.LM219:
 1734 0772 E091 0000 		lds r30,Timebase
 1735 0776 F091 0000 		lds r31,(Timebase)+1
 1736 077a 90E0      		ldi r25,lo8(0)
 1737               	.LVL112:
 1738 077c 29E1      		ldi r18,lo8(25)
 1739 077e 30E0      		ldi r19,hi8(25)
 1740 0780 AC01      		movw r20,r24
 1741 0782 429F      		mul r20,r18
 1742 0784 C001      		movw r24,r0
 1743 0786 439F      		mul r20,r19
 1744 0788 900D      		add r25,r0
 1745 078a 529F      		mul r21,r18
 1746 078c 900D      		add r25,r0
 1747 078e 1124      		clr r1
 1748               	.LVL113:
 1749 0790 E80F      		add r30,r24
 1750 0792 F91F      		adc r31,r25
 1751 0794 DF01      		movw r26,r30
 1752 0796 9496      		adiw r26,36
 1753 0798 64A1      		ldd r22,Z+36
 1754 079a 1196      		adiw r26,1
 1755 079c 7C91      		ld r23,X
 1756 079e 1197      		sbiw r26,1
 1757               	.LM220:
 1758 07a0 1296      		adiw r26,2
 1759 07a2 8C91      		ld r24,X
 1760 07a4 1297      		sbiw r26,2
 1761 07a6 1396      		adiw r26,3
 1762 07a8 9C91      		ld r25,X
 1763               	.LVL114:
 1764               	/* epilogue start */
 1765 07aa 0895      		ret
 1766               	.LFE30:
 1768               	.global	Timebase_UpCounter_SS_Set_EndValueSec
 1770               	Timebase_UpCounter_SS_Set_EndValueSec:
 1771               	.LFB31:
 1772               	.LM221:
 1773               	.LVL115:
 1774               	/* prologue: function */
 1775               	/* frame size = 0 */
 1776               	.LM222:
 1777 07ac E091 0000 		lds r30,Timebase
 1778 07b0 F091 0000 		lds r31,(Timebase)+1
 1779 07b4 90E0      		ldi r25,lo8(0)
 1780               	.LVL116:
 1781 07b6 29E1      		ldi r18,lo8(25)
 1782 07b8 30E0      		ldi r19,hi8(25)
 1783 07ba DC01      		movw r26,r24
 1784 07bc A29F      		mul r26,r18
 1785 07be C001      		movw r24,r0
 1786 07c0 A39F      		mul r26,r19
 1787 07c2 900D      		add r25,r0
 1788 07c4 B29F      		mul r27,r18
 1789 07c6 900D      		add r25,r0
 1790 07c8 1124      		clr r1
 1791               	.LVL117:
 1792 07ca E80F      		add r30,r24
 1793 07cc F91F      		adc r31,r25
 1794 07ce 40A3      		std Z+32,r20
 1795 07d0 51A3      		std Z+33,r21
 1796 07d2 62A3      		std Z+34,r22
 1797 07d4 73A3      		std Z+35,r23
 1798               	/* epilogue start */
 1799               	.LM223:
 1800 07d6 0895      		ret
 1801               	.LFE31:
 1803               	.global	Timebase_UpCounter_SS_Set_EndValueSubSec
 1805               	Timebase_UpCounter_SS_Set_EndValueSubSec:
 1806               	.LFB32:
 1807               	.LM224:
 1808               	.LVL118:
 1809               	/* prologue: function */
 1810               	/* frame size = 0 */
 1811               	.LM225:
 1812 07d8 E091 0000 		lds r30,Timebase
 1813 07dc F091 0000 		lds r31,(Timebase)+1
 1814 07e0 90E0      		ldi r25,lo8(0)
 1815               	.LVL119:
 1816 07e2 29E1      		ldi r18,lo8(25)
 1817 07e4 30E0      		ldi r19,hi8(25)
 1818 07e6 DC01      		movw r26,r24
 1819 07e8 A29F      		mul r26,r18
 1820 07ea C001      		movw r24,r0
 1821 07ec A39F      		mul r26,r19
 1822 07ee 900D      		add r25,r0
 1823 07f0 B29F      		mul r27,r18
 1824 07f2 900D      		add r25,r0
 1825 07f4 1124      		clr r1
 1826               	.LVL120:
 1827 07f6 E80F      		add r30,r24
 1828 07f8 F91F      		adc r31,r25
 1829 07fa 44A3      		std Z+36,r20
 1830 07fc 55A3      		std Z+37,r21
 1831 07fe 66A3      		std Z+38,r22
 1832 0800 77A3      		std Z+39,r23
 1833               	/* epilogue start */
 1834               	.LM226:
 1835 0802 0895      		ret
 1836               	.LFE32:
 1838               	.global	Timebase_UpCounter_SS_Get_TargetValue
 1840               	Timebase_UpCounter_SS_Get_TargetValue:
 1841               	.LFB33:
 1842               	.LM227:
 1843               	.LVL121:
 1844               	/* prologue: function */
 1845               	/* frame size = 0 */
 1846               	.LM228:
 1847 0804 E091 0000 		lds r30,Timebase
 1848 0808 F091 0000 		lds r31,(Timebase)+1
 1849 080c 90E0      		ldi r25,lo8(0)
 1850               	.LVL122:
 1851 080e 29E1      		ldi r18,lo8(25)
 1852 0810 30E0      		ldi r19,hi8(25)
 1853 0812 AC01      		movw r20,r24
 1854 0814 429F      		mul r20,r18
 1855 0816 C001      		movw r24,r0
 1856 0818 439F      		mul r20,r19
 1857 081a 900D      		add r25,r0
 1858 081c 529F      		mul r21,r18
 1859 081e 900D      		add r25,r0
 1860 0820 1124      		clr r1
 1861               	.LVL123:
 1862 0822 E80F      		add r30,r24
 1863 0824 F91F      		adc r31,r25
 1864 0826 DF01      		movw r26,r30
 1865 0828 9896      		adiw r26,40
 1866 082a 60A5      		ldd r22,Z+40
 1867 082c 1196      		adiw r26,1
 1868 082e 7C91      		ld r23,X
 1869 0830 1197      		sbiw r26,1
 1870               	.LM229:
 1871 0832 1296      		adiw r26,2
 1872 0834 8C91      		ld r24,X
 1873 0836 1297      		sbiw r26,2
 1874 0838 1396      		adiw r26,3
 1875 083a 9C91      		ld r25,X
 1876               	.LVL124:
 1877               	/* epilogue start */
 1878 083c 0895      		ret
 1879               	.LFE33:
 1881               	.global	Timebase_UpCounter_SS_Set_TargetValue
 1883               	Timebase_UpCounter_SS_Set_TargetValue:
 1884               	.LFB34:
 1885               	.LM230:
 1886               	.LVL125:
 1887               	/* prologue: function */
 1888               	/* frame size = 0 */
 1889               	.LM231:
 1890 083e E091 0000 		lds r30,Timebase
 1891 0842 F091 0000 		lds r31,(Timebase)+1
 1892 0846 90E0      		ldi r25,lo8(0)
 1893               	.LVL126:
 1894 0848 29E1      		ldi r18,lo8(25)
 1895 084a 30E0      		ldi r19,hi8(25)
 1896 084c DC01      		movw r26,r24
 1897 084e A29F      		mul r26,r18
 1898 0850 C001      		movw r24,r0
 1899 0852 A39F      		mul r26,r19
 1900 0854 900D      		add r25,r0
 1901 0856 B29F      		mul r27,r18
 1902 0858 900D      		add r25,r0
 1903 085a 1124      		clr r1
 1904               	.LVL127:
 1905 085c E80F      		add r30,r24
 1906 085e F91F      		adc r31,r25
 1907 0860 40A7      		std Z+40,r20
 1908 0862 51A7      		std Z+41,r21
 1909 0864 62A7      		std Z+42,r22
 1910 0866 73A7      		std Z+43,r23
 1911               	/* epilogue start */
 1912               	.LM232:
 1913 0868 0895      		ret
 1914               	.LFE34:
 1916               	.global	Timebase_UpCounter_SS_Get_TemporaryValue
 1918               	Timebase_UpCounter_SS_Get_TemporaryValue:
 1919               	.LFB35:
 1920               	.LM233:
 1921               	.LVL128:
 1922               	/* prologue: function */
 1923               	/* frame size = 0 */
 1924               	.LM234:
 1925 086a E091 0000 		lds r30,Timebase
 1926 086e F091 0000 		lds r31,(Timebase)+1
 1927 0872 90E0      		ldi r25,lo8(0)
 1928               	.LVL129:
 1929 0874 29E1      		ldi r18,lo8(25)
 1930 0876 30E0      		ldi r19,hi8(25)
 1931 0878 AC01      		movw r20,r24
 1932 087a 429F      		mul r20,r18
 1933 087c C001      		movw r24,r0
 1934 087e 439F      		mul r20,r19
 1935 0880 900D      		add r25,r0
 1936 0882 529F      		mul r21,r18
 1937 0884 900D      		add r25,r0
 1938 0886 1124      		clr r1
 1939               	.LVL130:
 1940 0888 E80F      		add r30,r24
 1941 088a F91F      		adc r31,r25
 1942 088c DF01      		movw r26,r30
 1943 088e 9C96      		adiw r26,44
 1944 0890 64A5      		ldd r22,Z+44
 1945 0892 1196      		adiw r26,1
 1946 0894 7C91      		ld r23,X
 1947 0896 1197      		sbiw r26,1
 1948               	.LM235:
 1949 0898 1296      		adiw r26,2
 1950 089a 8C91      		ld r24,X
 1951 089c 1297      		sbiw r26,2
 1952 089e 1396      		adiw r26,3
 1953 08a0 9C91      		ld r25,X
 1954               	.LVL131:
 1955               	/* epilogue start */
 1956 08a2 0895      		ret
 1957               	.LFE35:
 1959               	.global	Timebase_UpCounter_SS_Set_TemporaryValue
 1961               	Timebase_UpCounter_SS_Set_TemporaryValue:
 1962               	.LFB36:
 1963               	.LM236:
 1964               	.LVL132:
 1965               	/* prologue: function */
 1966               	/* frame size = 0 */
 1967               	.LM237:
 1968 08a4 E091 0000 		lds r30,Timebase
 1969 08a8 F091 0000 		lds r31,(Timebase)+1
 1970 08ac 90E0      		ldi r25,lo8(0)
 1971               	.LVL133:
 1972 08ae 29E1      		ldi r18,lo8(25)
 1973 08b0 30E0      		ldi r19,hi8(25)
 1974 08b2 DC01      		movw r26,r24
 1975 08b4 A29F      		mul r26,r18
 1976 08b6 C001      		movw r24,r0
 1977 08b8 A39F      		mul r26,r19
 1978 08ba 900D      		add r25,r0
 1979 08bc B29F      		mul r27,r18
 1980 08be 900D      		add r25,r0
 1981 08c0 1124      		clr r1
 1982               	.LVL134:
 1983 08c2 E80F      		add r30,r24
 1984 08c4 F91F      		adc r31,r25
 1985 08c6 44A7      		std Z+44,r20
 1986 08c8 55A7      		std Z+45,r21
 1987 08ca 66A7      		std Z+46,r22
 1988 08cc 77A7      		std Z+47,r23
 1989               	/* epilogue start */
 1990               	.LM238:
 1991 08ce 0895      		ret
 1992               	.LFE36:
 1994               	.global	Timebase_UpCounter_SS_Get_PeriodValue
 1996               	Timebase_UpCounter_SS_Get_PeriodValue:
 1997               	.LFB37:
 1998               	.LM239:
 1999               	.LVL135:
 2000               	/* prologue: function */
 2001               	/* frame size = 0 */
 2002               	.LM240:
 2003 08d0 E091 0000 		lds r30,Timebase
 2004 08d4 F091 0000 		lds r31,(Timebase)+1
 2005 08d8 90E0      		ldi r25,lo8(0)
 2006               	.LVL136:
 2007 08da 29E1      		ldi r18,lo8(25)
 2008 08dc 30E0      		ldi r19,hi8(25)
 2009 08de AC01      		movw r20,r24
 2010 08e0 429F      		mul r20,r18
 2011 08e2 C001      		movw r24,r0
 2012 08e4 439F      		mul r20,r19
 2013 08e6 900D      		add r25,r0
 2014 08e8 529F      		mul r21,r18
 2015 08ea 900D      		add r25,r0
 2016 08ec 1124      		clr r1
 2017               	.LVL137:
 2018 08ee E80F      		add r30,r24
 2019 08f0 F91F      		adc r31,r25
 2020 08f2 DF01      		movw r26,r30
 2021 08f4 D496      		adiw r26,52
 2022 08f6 64A9      		ldd r22,Z+52
 2023 08f8 1196      		adiw r26,1
 2024 08fa 7C91      		ld r23,X
 2025 08fc 1197      		sbiw r26,1
 2026               	.LM241:
 2027 08fe 1296      		adiw r26,2
 2028 0900 8C91      		ld r24,X
 2029 0902 1297      		sbiw r26,2
 2030 0904 1396      		adiw r26,3
 2031 0906 9C91      		ld r25,X
 2032               	.LVL138:
 2033               	/* epilogue start */
 2034 0908 0895      		ret
 2035               	.LFE37:
 2037               	.global	Timebase_UpCounter_SS_Set_PeriodValue
 2039               	Timebase_UpCounter_SS_Set_PeriodValue:
 2040               	.LFB38:
 2041               	.LM242:
 2042               	.LVL139:
 2043               	/* prologue: function */
 2044               	/* frame size = 0 */
 2045               	.LM243:
 2046 090a E091 0000 		lds r30,Timebase
 2047 090e F091 0000 		lds r31,(Timebase)+1
 2048 0912 90E0      		ldi r25,lo8(0)
 2049               	.LVL140:
 2050 0914 29E1      		ldi r18,lo8(25)
 2051 0916 30E0      		ldi r19,hi8(25)
 2052 0918 DC01      		movw r26,r24
 2053 091a A29F      		mul r26,r18
 2054 091c C001      		movw r24,r0
 2055 091e A39F      		mul r26,r19
 2056 0920 900D      		add r25,r0
 2057 0922 B29F      		mul r27,r18
 2058 0924 900D      		add r25,r0
 2059 0926 1124      		clr r1
 2060               	.LVL141:
 2061 0928 E80F      		add r30,r24
 2062 092a F91F      		adc r31,r25
 2063 092c 44AB      		std Z+52,r20
 2064 092e 55AB      		std Z+53,r21
 2065 0930 66AB      		std Z+54,r22
 2066 0932 77AB      		std Z+55,r23
 2067               	/* epilogue start */
 2068               	.LM244:
 2069 0934 0895      		ret
 2070               	.LFE38:
 2072               	.global	Timebase_UpCounter_SS_Get_Period_Flag
 2074               	Timebase_UpCounter_SS_Get_Period_Flag:
 2075               	.LFB39:
 2076               	.LM245:
 2077               	.LVL142:
 2078               	/* prologue: function */
 2079               	/* frame size = 0 */
 2080               	.LM246:
 2081 0936 E091 0000 		lds r30,Timebase
 2082 093a F091 0000 		lds r31,(Timebase)+1
 2083 093e 90E0      		ldi r25,lo8(0)
 2084               	.LVL143:
 2085 0940 29E1      		ldi r18,lo8(25)
 2086 0942 30E0      		ldi r19,hi8(25)
 2087 0944 AC01      		movw r20,r24
 2088 0946 429F      		mul r20,r18
 2089 0948 C001      		movw r24,r0
 2090 094a 439F      		mul r20,r19
 2091 094c 900D      		add r25,r0
 2092 094e 529F      		mul r21,r18
 2093 0950 900D      		add r25,r0
 2094 0952 1124      		clr r1
 2095               	.LVL144:
 2096 0954 E80F      		add r30,r24
 2097 0956 F91F      		adc r31,r25
 2098 0958 878D      		ldd r24,Z+31
 2099               	.LM247:
 2100 095a 8170      		andi r24,lo8(1)
 2101               	/* epilogue start */
 2102 095c 0895      		ret
 2103               	.LFE39:
 2105               	.global	Timebase_UpCounter_SS_Set_Period_Flag
 2107               	Timebase_UpCounter_SS_Set_Period_Flag:
 2108               	.LFB40:
 2109               	.LM248:
 2110               	.LVL145:
 2111               	/* prologue: function */
 2112               	/* frame size = 0 */
 2113               	.LM249:
 2114 095e E091 0000 		lds r30,Timebase
 2115 0962 F091 0000 		lds r31,(Timebase)+1
 2116 0966 90E0      		ldi r25,lo8(0)
 2117               	.LVL146:
 2118 0968 29E1      		ldi r18,lo8(25)
 2119 096a 30E0      		ldi r19,hi8(25)
 2120 096c AC01      		movw r20,r24
 2121 096e 429F      		mul r20,r18
 2122 0970 C001      		movw r24,r0
 2123 0972 439F      		mul r20,r19
 2124 0974 900D      		add r25,r0
 2125 0976 529F      		mul r21,r18
 2126 0978 900D      		add r25,r0
 2127 097a 1124      		clr r1
 2128               	.LVL147:
 2129 097c E80F      		add r30,r24
 2130 097e F91F      		adc r31,r25
 2131 0980 878D      		ldd r24,Z+31
 2132 0982 8160      		ori r24,lo8(1)
 2133 0984 878F      		std Z+31,r24
 2134               	/* epilogue start */
 2135               	.LM250:
 2136 0986 0895      		ret
 2137               	.LFE40:
 2139               	.global	Timebase_UpCounter_SS_Clear_Period_Flag
 2141               	Timebase_UpCounter_SS_Clear_Period_Flag:
 2142               	.LFB41:
 2143               	.LM251:
 2144               	.LVL148:
 2145               	/* prologue: function */
 2146               	/* frame size = 0 */
 2147               	.LM252:
 2148 0988 E091 0000 		lds r30,Timebase
 2149 098c F091 0000 		lds r31,(Timebase)+1
 2150 0990 90E0      		ldi r25,lo8(0)
 2151               	.LVL149:
 2152 0992 29E1      		ldi r18,lo8(25)
 2153 0994 30E0      		ldi r19,hi8(25)
 2154 0996 AC01      		movw r20,r24
 2155 0998 429F      		mul r20,r18
 2156 099a C001      		movw r24,r0
 2157 099c 439F      		mul r20,r19
 2158 099e 900D      		add r25,r0
 2159 09a0 529F      		mul r21,r18
 2160 09a2 900D      		add r25,r0
 2161 09a4 1124      		clr r1
 2162               	.LVL150:
 2163 09a6 E80F      		add r30,r24
 2164 09a8 F91F      		adc r31,r25
 2165 09aa 878D      		ldd r24,Z+31
 2166 09ac 8E7F      		andi r24,lo8(-2)
 2167 09ae 878F      		std Z+31,r24
 2168               	/* epilogue start */
 2169               	.LM253:
 2170 09b0 0895      		ret
 2171               	.LFE41:
 2173               	.global	Timebase_UpCounter_SS_Reset
 2175               	Timebase_UpCounter_SS_Reset:
 2176               	.LFB42:
 2177               	.LM254:
 2178               	.LVL151:
 2179               	/* prologue: function */
 2180               	/* frame size = 0 */
 2181               	.LBB762:
 2182               	.LBB763:
 2183               	.LM255:
 2184 09b2 E091 0000 		lds r30,Timebase
 2185 09b6 F091 0000 		lds r31,(Timebase)+1
 2186 09ba 90E0      		ldi r25,lo8(0)
 2187 09bc 29E1      		ldi r18,lo8(25)
 2188 09be 30E0      		ldi r19,hi8(25)
 2189 09c0 AC01      		movw r20,r24
 2190               	.LVL152:
 2191 09c2 429F      		mul r20,r18
 2192 09c4 C001      		movw r24,r0
 2193 09c6 439F      		mul r20,r19
 2194 09c8 900D      		add r25,r0
 2195 09ca 529F      		mul r21,r18
 2196 09cc 900D      		add r25,r0
 2197 09ce 1124      		clr r1
 2198 09d0 E80F      		add r30,r24
 2199 09d2 F91F      		adc r31,r25
 2200 09d4 878D      		ldd r24,Z+31
 2201               	.LBE763:
 2202               	.LBE762:
 2203               	.LBB764:
 2204               	.LBB765:
 2205               	.LM256:
 2206 09d6 10AA      		std Z+48,__zero_reg__
 2207 09d8 11AA      		std Z+49,__zero_reg__
 2208 09da 12AA      		std Z+50,__zero_reg__
 2209 09dc 13AA      		std Z+51,__zero_reg__
 2210               	.LBE765:
 2211               	.LBE764:
 2212               	.LBB766:
 2213               	.LBB767:
 2214               	.LM257:
 2215 09de 10A2      		std Z+32,__zero_reg__
 2216 09e0 11A2      		std Z+33,__zero_reg__
 2217 09e2 12A2      		std Z+34,__zero_reg__
 2218 09e4 13A2      		std Z+35,__zero_reg__
 2219               	.LBE767:
 2220               	.LBE766:
 2221               	.LBB768:
 2222               	.LBB769:
 2223               	.LM258:
 2224 09e6 14A2      		std Z+36,__zero_reg__
 2225 09e8 15A2      		std Z+37,__zero_reg__
 2226 09ea 16A2      		std Z+38,__zero_reg__
 2227 09ec 17A2      		std Z+39,__zero_reg__
 2228               	.LBE769:
 2229               	.LBE768:
 2230               	.LBB770:
 2231               	.LBB771:
 2232               	.LM259:
 2233 09ee 10A6      		std Z+40,__zero_reg__
 2234 09f0 11A6      		std Z+41,__zero_reg__
 2235 09f2 12A6      		std Z+42,__zero_reg__
 2236 09f4 13A6      		std Z+43,__zero_reg__
 2237               	.LBE771:
 2238               	.LBE770:
 2239               	.LBB772:
 2240               	.LBB773:
 2241               	.LM260:
 2242 09f6 14A6      		std Z+44,__zero_reg__
 2243 09f8 15A6      		std Z+45,__zero_reg__
 2244 09fa 16A6      		std Z+46,__zero_reg__
 2245 09fc 17A6      		std Z+47,__zero_reg__
 2246               	.LBE773:
 2247               	.LBE772:
 2248               	.LBB774:
 2249               	.LBB775:
 2250               	.LM261:
 2251 09fe 14AA      		std Z+52,__zero_reg__
 2252 0a00 15AA      		std Z+53,__zero_reg__
 2253 0a02 16AA      		std Z+54,__zero_reg__
 2254 0a04 17AA      		std Z+55,__zero_reg__
 2255               	.LBE775:
 2256               	.LBE774:
 2257               	.LBB776:
 2258               	.LBB777:
 2259               	.LM262:
 2260 0a06 807E      		andi r24,lo8(-32)
 2261 0a08 878F      		std Z+31,r24
 2262               	/* epilogue start */
 2263               	.LBE777:
 2264               	.LBE776:
 2265               	.LM263:
 2266 0a0a 0895      		ret
 2267               	.LFE42:
 2269               	.global	Timebase_UpCounter_SS_Clear_All_Flags
 2271               	Timebase_UpCounter_SS_Clear_All_Flags:
 2272               	.LFB43:
 2273               	.LM264:
 2274               	.LVL153:
 2275               	/* prologue: function */
 2276               	/* frame size = 0 */
 2277               	.LM265:
 2278 0a0c 0E94 0000 		call Timebase_UpCounter_SS_Reset
 2279               	.LVL154:
 2280               	/* epilogue start */
 2281               	.LM266:
 2282 0a10 0895      		ret
 2283               	.LFE43:
 2285               	.global	Timebase_UpCounter_SS_Start
 2287               	Timebase_UpCounter_SS_Start:
 2288               	.LFB44:
 2289               	.LM267:
 2290               	.LVL155:
 2291               	/* prologue: function */
 2292               	/* frame size = 0 */
 2293               	.LBB778:
 2294               	.LBB779:
 2295               	.LM268:
 2296 0a12 E091 0000 		lds r30,Timebase
 2297 0a16 F091 0000 		lds r31,(Timebase)+1
 2298 0a1a 90E0      		ldi r25,lo8(0)
 2299               	.LBE779:
 2300               	.LBE778:
 2301               	.LM269:
 2302 0a1c 29E1      		ldi r18,lo8(25)
 2303 0a1e 30E0      		ldi r19,hi8(25)
 2304 0a20 AC01      		movw r20,r24
 2305               	.LVL156:
 2306 0a22 429F      		mul r20,r18
 2307 0a24 C001      		movw r24,r0
 2308 0a26 439F      		mul r20,r19
 2309 0a28 900D      		add r25,r0
 2310 0a2a 529F      		mul r21,r18
 2311 0a2c 900D      		add r25,r0
 2312 0a2e 1124      		clr r1
 2313 0a30 E80F      		add r30,r24
 2314 0a32 F91F      		adc r31,r25
 2315 0a34 978D      		ldd r25,Z+31
 2316 0a36 892F      		mov r24,r25
 2317 0a38 8695      		lsr r24
 2318 0a3a 8F70      		andi r24,lo8(15)
 2319 0a3c 8130      		cpi r24,lo8(1)
 2320 0a3e 01F0      		breq .L112
 2321               	.LBB780:
 2322               	.LBB781:
 2323               	.LM270:
 2324 0a40 917E      		andi r25,lo8(-31)
 2325 0a42 9260      		ori r25,lo8(2)
 2326 0a44 978F      		std Z+31,r25
 2327               	.L112:
 2328 0a46 0895      		ret
 2329               	.LBE781:
 2330               	.LBE780:
 2331               	.LFE44:
 2333               	.global	Timebase_UpCounter_SS_Stop
 2335               	Timebase_UpCounter_SS_Stop:
 2336               	.LFB45:
 2337               	.LM271:
 2338               	.LVL157:
 2339               	/* prologue: function */
 2340               	/* frame size = 0 */
 2341               	.LBB782:
 2342               	.LBB783:
 2343               	.LM272:
 2344 0a48 E091 0000 		lds r30,Timebase
 2345 0a4c F091 0000 		lds r31,(Timebase)+1
 2346 0a50 90E0      		ldi r25,lo8(0)
 2347               	.LBE783:
 2348               	.LBE782:
 2349               	.LM273:
 2350 0a52 29E1      		ldi r18,lo8(25)
 2351 0a54 30E0      		ldi r19,hi8(25)
 2352 0a56 AC01      		movw r20,r24
 2353               	.LVL158:
 2354 0a58 429F      		mul r20,r18
 2355 0a5a C001      		movw r24,r0
 2356 0a5c 439F      		mul r20,r19
 2357 0a5e 900D      		add r25,r0
 2358 0a60 529F      		mul r21,r18
 2359 0a62 900D      		add r25,r0
 2360 0a64 1124      		clr r1
 2361 0a66 E80F      		add r30,r24
 2362 0a68 F91F      		adc r31,r25
 2363 0a6a 978D      		ldd r25,Z+31
 2364 0a6c 892F      		mov r24,r25
 2365 0a6e 8695      		lsr r24
 2366 0a70 8F70      		andi r24,lo8(15)
 2367 0a72 8230      		cpi r24,lo8(2)
 2368 0a74 01F0      		breq .L115
 2369               	.LBB784:
 2370               	.LBB785:
 2371               	.LM274:
 2372 0a76 917E      		andi r25,lo8(-31)
 2373 0a78 9460      		ori r25,lo8(4)
 2374 0a7a 978F      		std Z+31,r25
 2375               	.L115:
 2376 0a7c 0895      		ret
 2377               	.LBE785:
 2378               	.LBE784:
 2379               	.LFE45:
 2381               	.global	Timebase_UpCounter_SS_Set_Securely
 2383               	Timebase_UpCounter_SS_Set_Securely:
 2384               	.LFB46:
 2385               	.LM275:
 2386               	.LVL159:
 2387 0a7e 2F92      		push r2
 2388 0a80 3F92      		push r3
 2389 0a82 4F92      		push r4
 2390 0a84 5F92      		push r5
 2391 0a86 6F92      		push r6
 2392 0a88 7F92      		push r7
 2393 0a8a 8F92      		push r8
 2394 0a8c 9F92      		push r9
 2395 0a8e AF92      		push r10
 2396 0a90 BF92      		push r11
 2397 0a92 CF92      		push r12
 2398 0a94 DF92      		push r13
 2399 0a96 EF92      		push r14
 2400 0a98 FF92      		push r15
 2401 0a9a 0F93      		push r16
 2402 0a9c 1F93      		push r17
 2403 0a9e DF93      		push r29
 2404 0aa0 CF93      		push r28
 2405 0aa2 00D0      		rcall .
 2406 0aa4 00D0      		rcall .
 2407 0aa6 CDB7      		in r28,__SP_L__
 2408 0aa8 DEB7      		in r29,__SP_H__
 2409               	/* prologue: function */
 2410               	/* frame size = 4 */
 2411 0aaa 4A01      		movw r8,r20
 2412 0aac 5B01      		movw r10,r22
 2413               	.LBB786:
 2414               	.LBB787:
 2415               	.LM276:
 2416 0aae 2091 0000 		lds r18,Timebase
 2417 0ab2 3091 0000 		lds r19,(Timebase)+1
 2418 0ab6 3C83      		std Y+4,r19
 2419 0ab8 2B83      		std Y+3,r18
 2420 0aba A82F      		mov r26,r24
 2421 0abc B0E0      		ldi r27,lo8(0)
 2422 0abe BA83      		std Y+2,r27
 2423 0ac0 A983      		std Y+1,r26
 2424               	.LBE787:
 2425               	.LBE786:
 2426               	.LM277:
 2427 0ac2 89E1      		ldi r24,lo8(25)
 2428 0ac4 90E0      		ldi r25,hi8(25)
 2429               	.LVL160:
 2430 0ac6 A89F      		mul r26,r24
 2431 0ac8 F001      		movw r30,r0
 2432 0aca A99F      		mul r26,r25
 2433 0acc F00D      		add r31,r0
 2434 0ace B89F      		mul r27,r24
 2435 0ad0 F00D      		add r31,r0
 2436 0ad2 1124      		clr r1
 2437 0ad4 E20F      		add r30,r18
 2438 0ad6 F31F      		adc r31,r19
 2439 0ad8 878D      		ldd r24,Z+31
 2440 0ada 8695      		lsr r24
 2441 0adc 8F70      		andi r24,lo8(15)
 2442 0ade 01F0      		breq .+2
 2443 0ae0 00C0      		rjmp .L119
 2444               	.LVL161:
 2445               	.LBB788:
 2446               	.LBB789:
 2447               	.LBB790:
 2448               	.LM278:
 2449 0ae2 10AA      		std Z+48,__zero_reg__
 2450 0ae4 11AA      		std Z+49,__zero_reg__
 2451 0ae6 12AA      		std Z+50,__zero_reg__
 2452 0ae8 13AA      		std Z+51,__zero_reg__
 2453               	.LBE790:
 2454               	.LBE789:
 2455               	.LBB791:
 2456               	.LBB792:
 2457               	.LM279:
 2458 0aea 14A6      		std Z+44,__zero_reg__
 2459 0aec 15A6      		std Z+45,__zero_reg__
 2460 0aee 16A6      		std Z+46,__zero_reg__
 2461 0af0 17A6      		std Z+47,__zero_reg__
 2462               	.LBE792:
 2463               	.LBE791:
 2464               	.LBB793:
 2465               	.LBB794:
 2466               	.LBB795:
 2467               	.LBB796:
 2468               	.LM280:
 2469               	/* #APP */
 2470               	 ;  344 "timebase.c" 1
 2471 0af2 F894      		cli
 2472               	 ;  0 "" 2
 2473               	/* #NOAPP */
 2474               	.LBE796:
 2475               	.LBE795:
 2476               	.LM281:
 2477 0af4 F901      		movw r30,r18
 2478 0af6 8285      		ldd r24,Z+10
 2479 0af8 9385      		ldd r25,Z+11
 2480 0afa A485      		ldd r26,Z+12
 2481 0afc B585      		ldd r27,Z+13
 2482               	.LVL162:
 2483               	.LBB797:
 2484               	.LBB798:
 2485               	.LM282:
 2486               	/* #APP */
 2487               	 ;  348 "timebase.c" 1
 2488 0afe 7894      		sei
 2489               	 ;  0 "" 2
 2490               	/* #NOAPP */
 2491               	.LBE798:
 2492               	.LBE797:
 2493               	.LBE794:
 2494               	.LBE793:
 2495               	.LBB799:
 2496               	.LBB800:
 2497               	.LBB801:
 2498               	.LBB802:
 2499               	.LM283:
 2500               	/* #APP */
 2501               	 ;  344 "timebase.c" 1
 2502 0b00 F894      		cli
 2503               	 ;  0 "" 2
 2504               	/* #NOAPP */
 2505               	.LBE802:
 2506               	.LBE801:
 2507               	.LM284:
 2508 0b02 C084      		ldd r12,Z+8
 2509 0b04 D184      		ldd r13,Z+9
 2510               	.LVL163:
 2511               	.LBB803:
 2512               	.LBB804:
 2513               	.LM285:
 2514               	/* #APP */
 2515               	 ;  348 "timebase.c" 1
 2516 0b06 7894      		sei
 2517               	 ;  0 "" 2
 2518               	/* #NOAPP */
 2519               	.LBE804:
 2520               	.LBE803:
 2521               	.LBE800:
 2522               	.LBE799:
 2523               	.LBB805:
 2524               	.LBB806:
 2525               	.LBB807:
 2526               	.LBB808:
 2527               	.LM286:
 2528               	/* #APP */
 2529               	 ;  344 "timebase.c" 1
 2530 0b08 F894      		cli
 2531               	 ;  0 "" 2
 2532               	/* #NOAPP */
 2533               	.LBE808:
 2534               	.LBE807:
 2535               	.LM287:
 2536 0b0a 2284      		ldd r2,Z+10
 2537 0b0c 3384      		ldd r3,Z+11
 2538 0b0e 4484      		ldd r4,Z+12
 2539 0b10 5584      		ldd r5,Z+13
 2540               	.LVL164:
 2541               	.LBB809:
 2542               	.LBB810:
 2543               	.LM288:
 2544               	/* #APP */
 2545               	 ;  348 "timebase.c" 1
 2546 0b12 7894      		sei
 2547               	 ;  0 "" 2
 2548               	/* #NOAPP */
 2549               	.LBE810:
 2550               	.LBE809:
 2551               	.LBE806:
 2552               	.LBE805:
 2553               	.LM289:
 2554 0b14 2181      		ldd r18,Z+1
 2555 0b16 3281      		ldd r19,Z+2
 2556 0b18 40E0      		ldi r20,lo8(0)
 2557 0b1a 50E0      		ldi r21,hi8(0)
 2558 0b1c C501      		movw r24,r10
 2559 0b1e B401      		movw r22,r8
 2560 0b20 0E94 0000 		call __divmodsi4
 2561 0b24 7B01      		movw r14,r22
 2562 0b26 8C01      		movw r16,r24
 2563               	.LVL165:
 2564               	.LM290:
 2565 0b28 AB81      		ldd r26,Y+3
 2566 0b2a BC81      		ldd r27,Y+4
 2567 0b2c 1196      		adiw r26,1
 2568 0b2e 2D91      		ld r18,X+
 2569 0b30 3C91      		ld r19,X
 2570 0b32 1297      		sbiw r26,1+1
 2571 0b34 40E0      		ldi r20,lo8(0)
 2572 0b36 50E0      		ldi r21,hi8(0)
 2573 0b38 C501      		movw r24,r10
 2574 0b3a B401      		movw r22,r8
 2575 0b3c 0E94 0000 		call __divmodsi4
 2576 0b40 C901      		movw r24,r18
 2577 0b42 DA01      		movw r26,r20
 2578 0b44 3C01      		movw r6,r24
 2579 0b46 4D01      		movw r8,r26
 2580               	.LVL166:
 2581               	.LM291:
 2582 0b48 5601      		movw r10,r12
 2583               	.LVL167:
 2584 0b4a CC24      		clr r12
 2585 0b4c DD24      		clr r13
 2586               	.LVL168:
 2587 0b4e AE0C      		add r10,r14
 2588 0b50 BF1C      		adc r11,r15
 2589 0b52 C01E      		adc r12,r16
 2590 0b54 D11E      		adc r13,r17
 2591               	.LVL169:
 2592               	.LM292:
 2593 0b56 EB81      		ldd r30,Y+3
 2594 0b58 FC81      		ldd r31,Y+4
 2595 0b5a 8181      		ldd r24,Z+1
 2596 0b5c 9281      		ldd r25,Z+2
 2597               	.LVL170:
 2598 0b5e A0E0      		ldi r26,lo8(0)
 2599 0b60 B0E0      		ldi r27,hi8(0)
 2600 0b62 A816      		cp r10,r24
 2601 0b64 B906      		cpc r11,r25
 2602 0b66 CA06      		cpc r12,r26
 2603 0b68 DB06      		cpc r13,r27
 2604 0b6a 04F0      		brlt .L118
 2605               	.LM293:
 2606 0b6c 0894      		sec
 2607 0b6e 611C      		adc r6,__zero_reg__
 2608 0b70 711C      		adc r7,__zero_reg__
 2609 0b72 811C      		adc r8,__zero_reg__
 2610 0b74 911C      		adc r9,__zero_reg__
 2611               	.LM294:
 2612 0b76 2181      		ldd r18,Z+1
 2613 0b78 3281      		ldd r19,Z+2
 2614 0b7a 40E0      		ldi r20,lo8(0)
 2615 0b7c 50E0      		ldi r21,hi8(0)
 2616 0b7e C601      		movw r24,r12
 2617 0b80 B501      		movw r22,r10
 2618 0b82 0E94 0000 		call __divmodsi4
 2619 0b86 AC01      		movw r20,r24
 2620 0b88 CB01      		movw r24,r22
 2621 0b8a DA01      		movw r26,r20
 2622 0b8c 5C01      		movw r10,r24
 2623 0b8e 6D01      		movw r12,r26
 2624               	.L118:
 2625               	.LBB811:
 2626               	.LBB812:
 2627               	.LM295:
 2628 0b90 89E1      		ldi r24,lo8(25)
 2629 0b92 90E0      		ldi r25,hi8(25)
 2630 0b94 2981      		ldd r18,Y+1
 2631 0b96 3A81      		ldd r19,Y+2
 2632 0b98 289F      		mul r18,r24
 2633 0b9a F001      		movw r30,r0
 2634 0b9c 299F      		mul r18,r25
 2635 0b9e F00D      		add r31,r0
 2636 0ba0 389F      		mul r19,r24
 2637 0ba2 F00D      		add r31,r0
 2638 0ba4 1124      		clr r1
 2639 0ba6 8B81      		ldd r24,Y+3
 2640 0ba8 9C81      		ldd r25,Y+4
 2641 0baa E80F      		add r30,r24
 2642 0bac F91F      		adc r31,r25
 2643 0bae 260C      		add r2,r6
 2644 0bb0 371C      		adc r3,r7
 2645 0bb2 481C      		adc r4,r8
 2646 0bb4 591C      		adc r5,r9
 2647 0bb6 20A2      		std Z+32,r2
 2648 0bb8 31A2      		std Z+33,r3
 2649 0bba 42A2      		std Z+34,r4
 2650 0bbc 53A2      		std Z+35,r5
 2651               	.LBE812:
 2652               	.LBE811:
 2653               	.LBB813:
 2654               	.LBB814:
 2655               	.LM296:
 2656 0bbe A4A2      		std Z+36,r10
 2657 0bc0 B5A2      		std Z+37,r11
 2658 0bc2 C6A2      		std Z+38,r12
 2659 0bc4 D7A2      		std Z+39,r13
 2660               	.LBE814:
 2661               	.LBE813:
 2662               	.LBB815:
 2663               	.LBB816:
 2664               	.LM297:
 2665 0bc6 978D      		ldd r25,Z+31
 2666 0bc8 892F      		mov r24,r25
 2667 0bca 8695      		lsr r24
 2668 0bcc 8F70      		andi r24,lo8(15)
 2669 0bce 8130      		cpi r24,lo8(1)
 2670 0bd0 01F0      		breq .L119
 2671               	.LBB817:
 2672               	.LBB818:
 2673               	.LM298:
 2674 0bd2 917E      		andi r25,lo8(-31)
 2675 0bd4 9260      		ori r25,lo8(2)
 2676 0bd6 978F      		std Z+31,r25
 2677               	.LVL171:
 2678               	.L119:
 2679               	/* epilogue start */
 2680               	.LBE818:
 2681               	.LBE817:
 2682               	.LBE816:
 2683               	.LBE815:
 2684               	.LBE788:
 2685               	.LM299:
 2686 0bd8 0F90      		pop __tmp_reg__
 2687 0bda 0F90      		pop __tmp_reg__
 2688 0bdc 0F90      		pop __tmp_reg__
 2689 0bde 0F90      		pop __tmp_reg__
 2690 0be0 CF91      		pop r28
 2691 0be2 DF91      		pop r29
 2692 0be4 1F91      		pop r17
 2693 0be6 0F91      		pop r16
 2694 0be8 FF90      		pop r15
 2695 0bea EF90      		pop r14
 2696 0bec DF90      		pop r13
 2697 0bee CF90      		pop r12
 2698               	.LVL172:
 2699 0bf0 BF90      		pop r11
 2700 0bf2 AF90      		pop r10
 2701               	.LVL173:
 2702 0bf4 9F90      		pop r9
 2703 0bf6 8F90      		pop r8
 2704               	.LVL174:
 2705 0bf8 7F90      		pop r7
 2706 0bfa 6F90      		pop r6
 2707               	.LVL175:
 2708 0bfc 5F90      		pop r5
 2709 0bfe 4F90      		pop r4
 2710 0c00 3F90      		pop r3
 2711 0c02 2F90      		pop r2
 2712               	.LVL176:
 2713 0c04 0895      		ret
 2714               	.LFE46:
 2716               	.global	Timebase_UpCounter_SS_Set_Forcefully
 2718               	Timebase_UpCounter_SS_Set_Forcefully:
 2719               	.LFB47:
 2720               	.LM300:
 2721               	.LVL177:
 2722 0c06 DF92      		push r13
 2723 0c08 EF92      		push r14
 2724 0c0a FF92      		push r15
 2725 0c0c 0F93      		push r16
 2726 0c0e 1F93      		push r17
 2727               	/* prologue: function */
 2728               	/* frame size = 0 */
 2729 0c10 D82E      		mov r13,r24
 2730 0c12 7A01      		movw r14,r20
 2731 0c14 8B01      		movw r16,r22
 2732               	.LM301:
 2733 0c16 0E94 0000 		call Timebase_UpCounter_SS_Reset
 2734               	.LVL178:
 2735               	.LM302:
 2736 0c1a 8D2D      		mov r24,r13
 2737 0c1c B801      		movw r22,r16
 2738 0c1e A701      		movw r20,r14
 2739 0c20 0E94 0000 		call Timebase_UpCounter_SS_Set_Securely
 2740               	/* epilogue start */
 2741               	.LM303:
 2742 0c24 1F91      		pop r17
 2743 0c26 0F91      		pop r16
 2744 0c28 FF90      		pop r15
 2745 0c2a EF90      		pop r14
 2746               	.LVL179:
 2747 0c2c DF90      		pop r13
 2748               	.LVL180:
 2749 0c2e 0895      		ret
 2750               	.LFE47:
 2752               	.global	Timebase_UpCounter_SS_Update
 2754               	Timebase_UpCounter_SS_Update:
 2755               	.LFB48:
 2756               	.LM304:
 2757               	.LVL181:
 2758 0c30 EF92      		push r14
 2759 0c32 FF92      		push r15
 2760 0c34 0F93      		push r16
 2761 0c36 1F93      		push r17
 2762               	/* prologue: function */
 2763               	/* frame size = 0 */
 2764               	.LBB819:
 2765               	.LBB820:
 2766               	.LM305:
 2767 0c38 A091 0000 		lds r26,Timebase
 2768 0c3c B091 0000 		lds r27,(Timebase)+1
 2769 0c40 282F      		mov r18,r24
 2770 0c42 30E0      		ldi r19,lo8(0)
 2771 0c44 89E1      		ldi r24,lo8(25)
 2772 0c46 90E0      		ldi r25,hi8(25)
 2773               	.LVL182:
 2774 0c48 289F      		mul r18,r24
 2775 0c4a F001      		movw r30,r0
 2776 0c4c 299F      		mul r18,r25
 2777 0c4e F00D      		add r31,r0
 2778 0c50 389F      		mul r19,r24
 2779 0c52 F00D      		add r31,r0
 2780 0c54 1124      		clr r1
 2781 0c56 EA0F      		add r30,r26
 2782 0c58 FB1F      		adc r31,r27
 2783 0c5a 878D      		ldd r24,Z+31
 2784 0c5c 8695      		lsr r24
 2785 0c5e 8F70      		andi r24,lo8(15)
 2786               	.LBE820:
 2787               	.LBE819:
 2788               	.LM306:
 2789 0c60 8130      		cpi r24,lo8(1)
 2790 0c62 01F4      		brne .L123
 2791               	.LBB821:
 2792               	.LBB822:
 2793               	.LBB823:
 2794               	.LBB824:
 2795               	.LM307:
 2796               	/* #APP */
 2797               	 ;  344 "timebase.c" 1
 2798 0c64 F894      		cli
 2799               	 ;  0 "" 2
 2800               	/* #NOAPP */
 2801               	.LBE824:
 2802               	.LBE823:
 2803               	.LM308:
 2804 0c66 1A96      		adiw r26,10
 2805 0c68 4D91      		ld r20,X+
 2806 0c6a 5D91      		ld r21,X+
 2807 0c6c 6D91      		ld r22,X+
 2808 0c6e 7C91      		ld r23,X
 2809 0c70 1D97      		sbiw r26,10+3
 2810               	.LVL183:
 2811               	.LBB825:
 2812               	.LBB826:
 2813               	.LM309:
 2814               	/* #APP */
 2815               	 ;  348 "timebase.c" 1
 2816 0c72 7894      		sei
 2817               	 ;  0 "" 2
 2818               	/* #NOAPP */
 2819               	.LBE826:
 2820               	.LBE825:
 2821               	.LBE822:
 2822               	.LBE821:
 2823               	.LBB827:
 2824               	.LBB828:
 2825               	.LM310:
 2826 0c74 89E1      		ldi r24,lo8(25)
 2827 0c76 90E0      		ldi r25,hi8(25)
 2828 0c78 289F      		mul r18,r24
 2829 0c7a F001      		movw r30,r0
 2830 0c7c 299F      		mul r18,r25
 2831 0c7e F00D      		add r31,r0
 2832 0c80 389F      		mul r19,r24
 2833 0c82 F00D      		add r31,r0
 2834 0c84 1124      		clr r1
 2835 0c86 EA0F      		add r30,r26
 2836 0c88 FB1F      		adc r31,r27
 2837 0c8a E0A4      		ldd r14,Z+40
 2838 0c8c F1A4      		ldd r15,Z+41
 2839 0c8e 02A5      		ldd r16,Z+42
 2840 0c90 13A5      		ldd r17,Z+43
 2841 0c92 24A5      		ldd r18,Z+44
 2842 0c94 35A5      		ldd r19,Z+45
 2843 0c96 46A5      		ldd r20,Z+46
 2844 0c98 57A5      		ldd r21,Z+47
 2845 0c9a D801      		movw r26,r16
 2846 0c9c C701      		movw r24,r14
 2847 0c9e 821B      		sub r24,r18
 2848 0ca0 930B      		sbc r25,r19
 2849 0ca2 A40B      		sbc r26,r20
 2850 0ca4 B50B      		sbc r27,r21
 2851 0ca6 80AB      		std Z+48,r24
 2852 0ca8 91AB      		std Z+49,r25
 2853 0caa A2AB      		std Z+50,r26
 2854 0cac B3AB      		std Z+51,r27
 2855               	.LBE828:
 2856               	.LBE827:
 2857               	.LM311:
 2858 0cae 1216      		cp __zero_reg__,r18
 2859 0cb0 1306      		cpc __zero_reg__,r19
 2860 0cb2 1406      		cpc __zero_reg__,r20
 2861 0cb4 1506      		cpc __zero_reg__,r21
 2862 0cb6 04F0      		brlt .L125
 2863               	.LBB829:
 2864               	.LBB830:
 2865               	.LM312:
 2866 0cb8 14A6      		std Z+44,__zero_reg__
 2867 0cba 15A6      		std Z+45,__zero_reg__
 2868 0cbc 16A6      		std Z+46,__zero_reg__
 2869 0cbe 17A6      		std Z+47,__zero_reg__
 2870               	.LBE830:
 2871               	.LBE829:
 2872               	.LBB831:
 2873               	.LBB832:
 2874               	.LM313:
 2875 0cc0 E0AA      		std Z+48,r14
 2876 0cc2 F1AA      		std Z+49,r15
 2877 0cc4 02AB      		std Z+50,r16
 2878 0cc6 13AB      		std Z+51,r17
 2879               	.LBE832:
 2880               	.LBE831:
 2881               	.LBB833:
 2882               	.LBB834:
 2883               	.LM314:
 2884 0cc8 878D      		ldd r24,Z+31
 2885 0cca 817E      		andi r24,lo8(-31)
 2886 0ccc 8860      		ori r24,lo8(8)
 2887 0cce 878F      		std Z+31,r24
 2888 0cd0 00C0      		rjmp .L125
 2889               	.LVL184:
 2890               	.L123:
 2891               	.LBE834:
 2892               	.LBE833:
 2893               	.LM315:
 2894 0cd2 8230      		cpi r24,lo8(2)
 2895 0cd4 01F4      		brne .L125
 2896               	.LBB835:
 2897               	.LBB836:
 2898               	.LBB837:
 2899               	.LBB838:
 2900               	.LM316:
 2901               	/* #APP */
 2902               	 ;  344 "timebase.c" 1
 2903 0cd6 F894      		cli
 2904               	 ;  0 "" 2
 2905               	/* #NOAPP */
 2906               	.LBE838:
 2907               	.LBE837:
 2908               	.LM317:
 2909 0cd8 1A96      		adiw r26,10
 2910 0cda 4D91      		ld r20,X+
 2911 0cdc 5D91      		ld r21,X+
 2912 0cde 6D91      		ld r22,X+
 2913 0ce0 7C91      		ld r23,X
 2914 0ce2 1D97      		sbiw r26,10+3
 2915               	.LVL185:
 2916               	.LBB839:
 2917               	.LBB840:
 2918               	.LM318:
 2919               	/* #APP */
 2920               	 ;  348 "timebase.c" 1
 2921 0ce4 7894      		sei
 2922               	 ;  0 "" 2
 2923               	/* #NOAPP */
 2924               	.LBE840:
 2925               	.LBE839:
 2926               	.LBE836:
 2927               	.LBE835:
 2928               	.LBB841:
 2929               	.LBB842:
 2930               	.LM319:
 2931 0ce6 89E1      		ldi r24,lo8(25)
 2932 0ce8 90E0      		ldi r25,hi8(25)
 2933 0cea 289F      		mul r18,r24
 2934 0cec F001      		movw r30,r0
 2935 0cee 299F      		mul r18,r25
 2936 0cf0 F00D      		add r31,r0
 2937 0cf2 389F      		mul r19,r24
 2938 0cf4 F00D      		add r31,r0
 2939 0cf6 1124      		clr r1
 2940 0cf8 EA0F      		add r30,r26
 2941 0cfa FB1F      		adc r31,r27
 2942 0cfc 80A5      		ldd r24,Z+40
 2943 0cfe 91A5      		ldd r25,Z+41
 2944 0d00 A2A5      		ldd r26,Z+42
 2945 0d02 B3A5      		ldd r27,Z+43
 2946 0d04 24A5      		ldd r18,Z+44
 2947 0d06 35A5      		ldd r19,Z+45
 2948 0d08 46A5      		ldd r20,Z+46
 2949 0d0a 57A5      		ldd r21,Z+47
 2950 0d0c 821B      		sub r24,r18
 2951 0d0e 930B      		sbc r25,r19
 2952 0d10 A40B      		sbc r26,r20
 2953 0d12 B50B      		sbc r27,r21
 2954 0d14 80AB      		std Z+48,r24
 2955 0d16 91AB      		std Z+49,r25
 2956 0d18 A2AB      		std Z+50,r26
 2957 0d1a B3AB      		std Z+51,r27
 2958               	.L125:
 2959               	/* epilogue start */
 2960               	.LBE842:
 2961               	.LBE841:
 2962               	.LM320:
 2963 0d1c 1F91      		pop r17
 2964 0d1e 0F91      		pop r16
 2965 0d20 FF90      		pop r15
 2966 0d22 EF90      		pop r14
 2967 0d24 0895      		ret
 2968               	.LFE48:
 2970               	.global	Timebase_UpCounter_SS_Expired
 2972               	Timebase_UpCounter_SS_Expired:
 2973               	.LFB49:
 2974               	.LM321:
 2975               	.LVL186:
 2976               	/* prologue: function */
 2977               	/* frame size = 0 */
 2978               	.LM322:
 2979 0d26 40E0      		ldi r20,lo8(0)
 2980 0d28 E091 0000 		lds r30,Timebase
 2981 0d2c F091 0000 		lds r31,(Timebase)+1
 2982 0d30 90E0      		ldi r25,lo8(0)
 2983               	.LVL187:
 2984 0d32 29E1      		ldi r18,lo8(25)
 2985 0d34 30E0      		ldi r19,hi8(25)
 2986 0d36 BC01      		movw r22,r24
 2987 0d38 629F      		mul r22,r18
 2988 0d3a C001      		movw r24,r0
 2989 0d3c 639F      		mul r22,r19
 2990 0d3e 900D      		add r25,r0
 2991 0d40 729F      		mul r23,r18
 2992 0d42 900D      		add r25,r0
 2993 0d44 1124      		clr r1
 2994               	.LVL188:
 2995 0d46 E80F      		add r30,r24
 2996 0d48 F91F      		adc r31,r25
 2997 0d4a 878D      		ldd r24,Z+31
 2998 0d4c 8695      		lsr r24
 2999 0d4e 8F70      		andi r24,lo8(15)
 3000 0d50 8430      		cpi r24,lo8(4)
 3001 0d52 01F4      		brne .L127
 3002 0d54 41E0      		ldi r20,lo8(1)
 3003               	.L127:
 3004               	.LM323:
 3005 0d56 842F      		mov r24,r20
 3006               	/* epilogue start */
 3007 0d58 0895      		ret
 3008               	.LFE49:
 3010               	.global	Timebase_UpCounter_SS_Expired_Event
 3012               	Timebase_UpCounter_SS_Expired_Event:
 3013               	.LFB50:
 3014               	.LM324:
 3015               	.LVL189:
 3016               	/* prologue: function */
 3017               	/* frame size = 0 */
 3018 0d5a 482F      		mov r20,r24
 3019               	.LM325:
 3020 0d5c E091 0000 		lds r30,Timebase
 3021 0d60 F091 0000 		lds r31,(Timebase)+1
 3022 0d64 282F      		mov r18,r24
 3023 0d66 30E0      		ldi r19,lo8(0)
 3024               	.LVL190:
 3025 0d68 89E1      		ldi r24,lo8(25)
 3026 0d6a 90E0      		ldi r25,hi8(25)
 3027               	.LVL191:
 3028 0d6c BC01      		movw r22,r24
 3029 0d6e 269F      		mul r18,r22
 3030 0d70 C001      		movw r24,r0
 3031 0d72 279F      		mul r18,r23
 3032 0d74 900D      		add r25,r0
 3033 0d76 369F      		mul r19,r22
 3034 0d78 900D      		add r25,r0
 3035 0d7a 1124      		clr r1
 3036 0d7c E80F      		add r30,r24
 3037 0d7e F91F      		adc r31,r25
 3038 0d80 878D      		ldd r24,Z+31
 3039 0d82 8695      		lsr r24
 3040 0d84 8F70      		andi r24,lo8(15)
 3041 0d86 8430      		cpi r24,lo8(4)
 3042 0d88 01F0      		breq .L130
 3043 0d8a 80E0      		ldi r24,lo8(0)
 3044 0d8c 0895      		ret
 3045               	.L130:
 3046               	.LBB843:
 3047               	.LBB844:
 3048               	.LM326:
 3049 0d8e 842F      		mov r24,r20
 3050 0d90 0E94 0000 		call Timebase_UpCounter_SS_Reset
 3051               	.LVL192:
 3052 0d94 81E0      		ldi r24,lo8(1)
 3053               	.LBE844:
 3054               	.LBE843:
 3055               	.LM327:
 3056 0d96 0895      		ret
 3057               	.LFE50:
 3059               	.global	Timebase_UpCounter_SS_Set_Period_Value_Securely
 3061               	Timebase_UpCounter_SS_Set_Period_Value_Securely:
 3062               	.LFB51:
 3063               	.LM328:
 3064               	.LVL193:
 3065               	/* prologue: function */
 3066               	/* frame size = 0 */
 3067               	.LBB845:
 3068               	.LBB846:
 3069               	.LM329:
 3070 0d98 E091 0000 		lds r30,Timebase
 3071 0d9c F091 0000 		lds r31,(Timebase)+1
 3072 0da0 90E0      		ldi r25,lo8(0)
 3073               	.LBE846:
 3074               	.LBE845:
 3075               	.LM330:
 3076 0da2 29E1      		ldi r18,lo8(25)
 3077 0da4 30E0      		ldi r19,hi8(25)
 3078 0da6 DC01      		movw r26,r24
 3079               	.LVL194:
 3080 0da8 A29F      		mul r26,r18
 3081 0daa C001      		movw r24,r0
 3082 0dac A39F      		mul r26,r19
 3083 0dae 900D      		add r25,r0
 3084 0db0 B29F      		mul r27,r18
 3085 0db2 900D      		add r25,r0
 3086 0db4 1124      		clr r1
 3087 0db6 E80F      		add r30,r24
 3088 0db8 F91F      		adc r31,r25
 3089 0dba 878D      		ldd r24,Z+31
 3090 0dbc 80FD      		sbrc r24,0
 3091 0dbe 00C0      		rjmp .L135
 3092               	.LBB847:
 3093               	.LBB848:
 3094               	.LM331:
 3095 0dc0 80A9      		ldd r24,Z+48
 3096 0dc2 91A9      		ldd r25,Z+49
 3097 0dc4 A2A9      		ldd r26,Z+50
 3098 0dc6 B3A9      		ldd r27,Z+51
 3099 0dc8 840F      		add r24,r20
 3100 0dca 951F      		adc r25,r21
 3101 0dcc A61F      		adc r26,r22
 3102 0dce B71F      		adc r27,r23
 3103 0dd0 84AB      		std Z+52,r24
 3104 0dd2 95AB      		std Z+53,r25
 3105 0dd4 A6AB      		std Z+54,r26
 3106 0dd6 B7AB      		std Z+55,r27
 3107               	.LBE848:
 3108               	.LBE847:
 3109               	.LBB849:
 3110               	.LBB850:
 3111               	.LM332:
 3112 0dd8 878D      		ldd r24,Z+31
 3113 0dda 8160      		ori r24,lo8(1)
 3114 0ddc 878F      		std Z+31,r24
 3115               	.L135:
 3116 0dde 0895      		ret
 3117               	.LBE850:
 3118               	.LBE849:
 3119               	.LFE51:
 3121               	.global	Timebase_UpCounter_SS_Get_Remaining_Period_Value
 3123               	Timebase_UpCounter_SS_Get_Remaining_Period_Value:
 3124               	.LFB52:
 3125               	.LM333:
 3126               	.LVL195:
 3127               	/* prologue: function */
 3128               	/* frame size = 0 */
 3129               	.LBB851:
 3130               	.LBB852:
 3131               	.LM334:
 3132 0de0 E091 0000 		lds r30,Timebase
 3133 0de4 F091 0000 		lds r31,(Timebase)+1
 3134 0de8 90E0      		ldi r25,lo8(0)
 3135               	.LBE852:
 3136               	.LBE851:
 3137               	.LM335:
 3138 0dea 29E1      		ldi r18,lo8(25)
 3139 0dec 30E0      		ldi r19,hi8(25)
 3140 0dee AC01      		movw r20,r24
 3141               	.LVL196:
 3142 0df0 429F      		mul r20,r18
 3143 0df2 C001      		movw r24,r0
 3144 0df4 439F      		mul r20,r19
 3145 0df6 900D      		add r25,r0
 3146 0df8 529F      		mul r21,r18
 3147 0dfa 900D      		add r25,r0
 3148 0dfc 1124      		clr r1
 3149 0dfe E80F      		add r30,r24
 3150 0e00 F91F      		adc r31,r25
 3151 0e02 24A9      		ldd r18,Z+52
 3152 0e04 35A9      		ldd r19,Z+53
 3153 0e06 46A9      		ldd r20,Z+54
 3154 0e08 57A9      		ldd r21,Z+55
 3155               	.LVL197:
 3156 0e0a 80A9      		ldd r24,Z+48
 3157 0e0c 91A9      		ldd r25,Z+49
 3158 0e0e A2A9      		ldd r26,Z+50
 3159 0e10 B3A9      		ldd r27,Z+51
 3160 0e12 281B      		sub r18,r24
 3161 0e14 390B      		sbc r19,r25
 3162 0e16 4A0B      		sbc r20,r26
 3163 0e18 5B0B      		sbc r21,r27
 3164 0e1a 57FF      		sbrs r21,7
 3165 0e1c 00C0      		rjmp .L137
 3166 0e1e 20E0      		ldi r18,lo8(0)
 3167 0e20 30E0      		ldi r19,hi8(0)
 3168 0e22 40E0      		ldi r20,hlo8(0)
 3169 0e24 50E0      		ldi r21,hhi8(0)
 3170               	.L137:
 3171               	.LM336:
 3172 0e26 B901      		movw r22,r18
 3173               	.LVL198:
 3174 0e28 CA01      		movw r24,r20
 3175               	/* epilogue start */
 3176 0e2a 0895      		ret
 3177               	.LFE52:
 3179               	.global	Timebase_UpCounter_SS_Period_Value_Expired
 3181               	Timebase_UpCounter_SS_Period_Value_Expired:
 3182               	.LFB53:
 3183               	.LM337:
 3184               	.LVL199:
 3185 0e2c CF93      		push r28
 3186 0e2e DF93      		push r29
 3187               	/* prologue: function */
 3188               	/* frame size = 0 */
 3189               	.LBB853:
 3190               	.LBB854:
 3191               	.LBB855:
 3192               	.LBB856:
 3193               	.LM338:
 3194 0e30 C091 0000 		lds r28,Timebase
 3195 0e34 D091 0000 		lds r29,(Timebase)+1
 3196 0e38 682F      		mov r22,r24
 3197 0e3a 70E0      		ldi r23,lo8(0)
 3198               	.LBE856:
 3199               	.LBE855:
 3200               	.LM339:
 3201 0e3c 89E1      		ldi r24,lo8(25)
 3202 0e3e 90E0      		ldi r25,hi8(25)
 3203               	.LVL200:
 3204 0e40 689F      		mul r22,r24
 3205 0e42 F001      		movw r30,r0
 3206 0e44 699F      		mul r22,r25
 3207 0e46 F00D      		add r31,r0
 3208 0e48 789F      		mul r23,r24
 3209 0e4a F00D      		add r31,r0
 3210 0e4c 1124      		clr r1
 3211 0e4e EC0F      		add r30,r28
 3212 0e50 FD1F      		adc r31,r29
 3213 0e52 24A9      		ldd r18,Z+52
 3214 0e54 35A9      		ldd r19,Z+53
 3215 0e56 46A9      		ldd r20,Z+54
 3216 0e58 57A9      		ldd r21,Z+55
 3217               	.LVL201:
 3218 0e5a 80A9      		ldd r24,Z+48
 3219 0e5c 91A9      		ldd r25,Z+49
 3220 0e5e A2A9      		ldd r26,Z+50
 3221 0e60 B3A9      		ldd r27,Z+51
 3222 0e62 281B      		sub r18,r24
 3223 0e64 390B      		sbc r19,r25
 3224 0e66 4A0B      		sbc r20,r26
 3225 0e68 5B0B      		sbc r21,r27
 3226               	.LM340:
 3227 0e6a 57FD      		sbrc r21,7
 3228 0e6c 00C0      		rjmp .L140
 3229               	.LBE854:
 3230               	.LBE853:
 3231               	.LM341:
 3232 0e6e 2115      		cp r18,__zero_reg__
 3233 0e70 3105      		cpc r19,__zero_reg__
 3234 0e72 4105      		cpc r20,__zero_reg__
 3235 0e74 5105      		cpc r21,__zero_reg__
 3236 0e76 01F0      		breq .L140
 3237 0e78 20E0      		ldi r18,lo8(0)
 3238               	.LVL202:
 3239 0e7a 00C0      		rjmp .L141
 3240               	.LVL203:
 3241               	.L140:
 3242 0e7c 20E0      		ldi r18,lo8(0)
 3243               	.LVL204:
 3244 0e7e 89E1      		ldi r24,lo8(25)
 3245 0e80 90E0      		ldi r25,hi8(25)
 3246 0e82 AC01      		movw r20,r24
 3247 0e84 649F      		mul r22,r20
 3248 0e86 C001      		movw r24,r0
 3249 0e88 659F      		mul r22,r21
 3250 0e8a 900D      		add r25,r0
 3251 0e8c 749F      		mul r23,r20
 3252 0e8e 900D      		add r25,r0
 3253 0e90 1124      		clr r1
 3254 0e92 C80F      		add r28,r24
 3255 0e94 D91F      		adc r29,r25
 3256 0e96 8F8D      		ldd r24,Y+31
 3257 0e98 80FF      		sbrs r24,0
 3258 0e9a 21E0      		ldi r18,lo8(1)
 3259               	.L142:
 3260 0e9c 81E0      		ldi r24,lo8(1)
 3261 0e9e 2827      		eor r18,r24
 3262               	.L141:
 3263               	.LM342:
 3264 0ea0 822F      		mov r24,r18
 3265               	/* epilogue start */
 3266 0ea2 DF91      		pop r29
 3267 0ea4 CF91      		pop r28
 3268 0ea6 0895      		ret
 3269               	.LFE53:
 3271               	.global	Timebase_UpCounter_SS_Period_Value_Expired_Event
 3273               	Timebase_UpCounter_SS_Period_Value_Expired_Event:
 3274               	.LFB54:
 3275               	.LM343:
 3276               	.LVL205:
 3277 0ea8 1F93      		push r17
 3278               	/* prologue: function */
 3279               	/* frame size = 0 */
 3280 0eaa 182F      		mov r17,r24
 3281               	.LM344:
 3282 0eac 0E94 0000 		call Timebase_UpCounter_SS_Period_Value_Expired
 3283               	.LVL206:
 3284 0eb0 8130      		cpi r24,lo8(1)
 3285 0eb2 01F0      		breq .L145
 3286 0eb4 80E0      		ldi r24,lo8(0)
 3287 0eb6 00C0      		rjmp .L146
 3288               	.L145:
 3289               	.LBB857:
 3290               	.LBB858:
 3291               	.LM345:
 3292 0eb8 E091 0000 		lds r30,Timebase
 3293 0ebc F091 0000 		lds r31,(Timebase)+1
 3294 0ec0 212F      		mov r18,r17
 3295 0ec2 30E0      		ldi r19,lo8(0)
 3296               	.LVL207:
 3297 0ec4 89E1      		ldi r24,lo8(25)
 3298 0ec6 90E0      		ldi r25,hi8(25)
 3299 0ec8 AC01      		movw r20,r24
 3300 0eca 249F      		mul r18,r20
 3301 0ecc C001      		movw r24,r0
 3302 0ece 259F      		mul r18,r21
 3303 0ed0 900D      		add r25,r0
 3304 0ed2 349F      		mul r19,r20
 3305 0ed4 900D      		add r25,r0
 3306 0ed6 1124      		clr r1
 3307 0ed8 E80F      		add r30,r24
 3308 0eda F91F      		adc r31,r25
 3309 0edc 878D      		ldd r24,Z+31
 3310 0ede 8E7F      		andi r24,lo8(-2)
 3311 0ee0 878F      		std Z+31,r24
 3312 0ee2 81E0      		ldi r24,lo8(1)
 3313               	.L146:
 3314               	/* epilogue start */
 3315               	.LBE858:
 3316               	.LBE857:
 3317               	.LM346:
 3318 0ee4 1F91      		pop r17
 3319               	.LVL208:
 3320 0ee6 0895      		ret
 3321               	.LFE54:
 3323               	.global	Timebase_UpCounter_SS_Update_All
 3325               	Timebase_UpCounter_SS_Update_All:
 3326               	.LFB55:
 3327               	.LM347:
 3328               	/* prologue: function */
 3329               	/* frame size = 0 */
 3330               	.LBB859:
 3331               	.LM348:
 3332 0ee8 80E0      		ldi r24,lo8(0)
 3333 0eea 0E94 0000 		call Timebase_UpCounter_SS_Update
 3334               	/* epilogue start */
 3335               	.LBE859:
 3336               	.LM349:
 3337 0eee 0895      		ret
 3338               	.LFE55:
 3340               	.global	Timebase_UpCounter_SS_Reset_All
 3342               	Timebase_UpCounter_SS_Reset_All:
 3343               	.LFB56:
 3344               	.LM350:
 3345               	/* prologue: function */
 3346               	/* frame size = 0 */
 3347               	.LBB860:
 3348               	.LM351:
 3349 0ef0 80E0      		ldi r24,lo8(0)
 3350 0ef2 0E94 0000 		call Timebase_UpCounter_SS_Reset
 3351               	/* epilogue start */
 3352               	.LBE860:
 3353               	.LM352:
 3354 0ef6 0895      		ret
 3355               	.LFE56:
 3357               	.global	Timebase_UpCounter_Get_Status
 3359               	Timebase_UpCounter_Get_Status:
 3360               	.LFB57:
 3361               	.LM353:
 3362               	.LVL209:
 3363               	/* prologue: function */
 3364               	/* frame size = 0 */
 3365               	.LM354:
 3366 0ef8 E091 0000 		lds r30,Timebase
 3367 0efc F091 0000 		lds r31,(Timebase)+1
 3368 0f00 90E0      		ldi r25,lo8(0)
 3369               	.LVL210:
 3370 0f02 25E1      		ldi r18,lo8(21)
 3371 0f04 30E0      		ldi r19,hi8(21)
 3372 0f06 AC01      		movw r20,r24
 3373 0f08 429F      		mul r20,r18
 3374 0f0a C001      		movw r24,r0
 3375 0f0c 439F      		mul r20,r19
 3376 0f0e 900D      		add r25,r0
 3377 0f10 529F      		mul r21,r18
 3378 0f12 900D      		add r25,r0
 3379 0f14 1124      		clr r1
 3380               	.LVL211:
 3381 0f16 E80F      		add r30,r24
 3382 0f18 F91F      		adc r31,r25
 3383 0f1a 80AD      		ldd r24,Z+56
 3384 0f1c 8695      		lsr r24
 3385               	.LM355:
 3386 0f1e 8F70      		andi r24,lo8(15)
 3387               	/* epilogue start */
 3388 0f20 0895      		ret
 3389               	.LFE57:
 3391               	.global	Timebase_UpCounter_Set_Status
 3393               	Timebase_UpCounter_Set_Status:
 3394               	.LFB58:
 3395               	.LM356:
 3396               	.LVL212:
 3397               	/* prologue: function */
 3398               	/* frame size = 0 */
 3399               	.LM357:
 3400 0f22 E091 0000 		lds r30,Timebase
 3401 0f26 F091 0000 		lds r31,(Timebase)+1
 3402 0f2a 90E0      		ldi r25,lo8(0)
 3403               	.LVL213:
 3404 0f2c 25E1      		ldi r18,lo8(21)
 3405 0f2e 30E0      		ldi r19,hi8(21)
 3406 0f30 AC01      		movw r20,r24
 3407 0f32 429F      		mul r20,r18
 3408 0f34 C001      		movw r24,r0
 3409 0f36 439F      		mul r20,r19
 3410 0f38 900D      		add r25,r0
 3411 0f3a 529F      		mul r21,r18
 3412 0f3c 900D      		add r25,r0
 3413 0f3e 1124      		clr r1
 3414               	.LVL214:
 3415 0f40 E80F      		add r30,r24
 3416 0f42 F91F      		adc r31,r25
 3417 0f44 6F70      		andi r22,lo8(15)
 3418               	.LVL215:
 3419 0f46 660F      		lsl r22
 3420 0f48 80AD      		ldd r24,Z+56
 3421 0f4a 817E      		andi r24,lo8(-31)
 3422 0f4c 862B      		or r24,r22
 3423 0f4e 80AF      		std Z+56,r24
 3424               	/* epilogue start */
 3425               	.LM358:
 3426 0f50 0895      		ret
 3427               	.LFE58:
 3429               	.global	Timebase_UpCounter_Get_Value
 3431               	Timebase_UpCounter_Get_Value:
 3432               	.LFB59:
 3433               	.LM359:
 3434               	.LVL216:
 3435               	/* prologue: function */
 3436               	/* frame size = 0 */
 3437               	.LM360:
 3438 0f52 E091 0000 		lds r30,Timebase
 3439 0f56 F091 0000 		lds r31,(Timebase)+1
 3440 0f5a 90E0      		ldi r25,lo8(0)
 3441               	.LVL217:
 3442 0f5c 25E1      		ldi r18,lo8(21)
 3443 0f5e 30E0      		ldi r19,hi8(21)
 3444 0f60 AC01      		movw r20,r24
 3445 0f62 429F      		mul r20,r18
 3446 0f64 C001      		movw r24,r0
 3447 0f66 439F      		mul r20,r19
 3448 0f68 900D      		add r25,r0
 3449 0f6a 529F      		mul r21,r18
 3450 0f6c 900D      		add r25,r0
 3451 0f6e 1124      		clr r1
 3452               	.LVL218:
 3453 0f70 E80F      		add r30,r24
 3454 0f72 F91F      		adc r31,r25
 3455 0f74 EB5B      		subi r30,lo8(-(69))
 3456 0f76 FF4F      		sbci r31,hi8(-(69))
 3457 0f78 6081      		ld r22,Z
 3458 0f7a 7181      		ldd r23,Z+1
 3459               	.LM361:
 3460 0f7c 8281      		ldd r24,Z+2
 3461 0f7e 9381      		ldd r25,Z+3
 3462               	.LVL219:
 3463               	/* epilogue start */
 3464 0f80 0895      		ret
 3465               	.LFE59:
 3467               	.global	Timebase_UpCounter_Set_Value
 3469               	Timebase_UpCounter_Set_Value:
 3470               	.LFB60:
 3471               	.LM362:
 3472               	.LVL220:
 3473               	/* prologue: function */
 3474               	/* frame size = 0 */
 3475               	.LM363:
 3476 0f82 E091 0000 		lds r30,Timebase
 3477 0f86 F091 0000 		lds r31,(Timebase)+1
 3478 0f8a 90E0      		ldi r25,lo8(0)
 3479               	.LVL221:
 3480 0f8c 25E1      		ldi r18,lo8(21)
 3481 0f8e 30E0      		ldi r19,hi8(21)
 3482 0f90 DC01      		movw r26,r24
 3483 0f92 A29F      		mul r26,r18
 3484 0f94 C001      		movw r24,r0
 3485 0f96 A39F      		mul r26,r19
 3486 0f98 900D      		add r25,r0
 3487 0f9a B29F      		mul r27,r18
 3488 0f9c 900D      		add r25,r0
 3489 0f9e 1124      		clr r1
 3490               	.LVL222:
 3491 0fa0 E80F      		add r30,r24
 3492 0fa2 F91F      		adc r31,r25
 3493 0fa4 EB5B      		subi r30,lo8(-(69))
 3494 0fa6 FF4F      		sbci r31,hi8(-(69))
 3495 0fa8 4083      		st Z,r20
 3496 0faa 5183      		std Z+1,r21
 3497 0fac 6283      		std Z+2,r22
 3498 0fae 7383      		std Z+3,r23
 3499               	/* epilogue start */
 3500               	.LM364:
 3501 0fb0 0895      		ret
 3502               	.LFE60:
 3504               	.global	Timebase_UpCounter_Get_EndValue
 3506               	Timebase_UpCounter_Get_EndValue:
 3507               	.LFB61:
 3508               	.LM365:
 3509               	.LVL223:
 3510               	/* prologue: function */
 3511               	/* frame size = 0 */
 3512               	.LM366:
 3513 0fb2 E091 0000 		lds r30,Timebase
 3514 0fb6 F091 0000 		lds r31,(Timebase)+1
 3515 0fba 90E0      		ldi r25,lo8(0)
 3516               	.LVL224:
 3517 0fbc 25E1      		ldi r18,lo8(21)
 3518 0fbe 30E0      		ldi r19,hi8(21)
 3519 0fc0 AC01      		movw r20,r24
 3520 0fc2 429F      		mul r20,r18
 3521 0fc4 C001      		movw r24,r0
 3522 0fc6 439F      		mul r20,r19
 3523 0fc8 900D      		add r25,r0
 3524 0fca 529F      		mul r21,r18
 3525 0fcc 900D      		add r25,r0
 3526 0fce 1124      		clr r1
 3527               	.LVL225:
 3528 0fd0 E80F      		add r30,r24
 3529 0fd2 F91F      		adc r31,r25
 3530 0fd4 DF01      		movw r26,r30
 3531 0fd6 D996      		adiw r26,57
 3532 0fd8 61AD      		ldd r22,Z+57
 3533 0fda 1196      		adiw r26,1
 3534 0fdc 7C91      		ld r23,X
 3535 0fde 1197      		sbiw r26,1
 3536               	.LM367:
 3537 0fe0 1296      		adiw r26,2
 3538 0fe2 8C91      		ld r24,X
 3539 0fe4 1297      		sbiw r26,2
 3540 0fe6 1396      		adiw r26,3
 3541 0fe8 9C91      		ld r25,X
 3542               	.LVL226:
 3543               	/* epilogue start */
 3544 0fea 0895      		ret
 3545               	.LFE61:
 3547               	.global	Timebase_UpCounter_Set_EndValue
 3549               	Timebase_UpCounter_Set_EndValue:
 3550               	.LFB62:
 3551               	.LM368:
 3552               	.LVL227:
 3553               	/* prologue: function */
 3554               	/* frame size = 0 */
 3555               	.LM369:
 3556 0fec E091 0000 		lds r30,Timebase
 3557 0ff0 F091 0000 		lds r31,(Timebase)+1
 3558 0ff4 90E0      		ldi r25,lo8(0)
 3559               	.LVL228:
 3560 0ff6 25E1      		ldi r18,lo8(21)
 3561 0ff8 30E0      		ldi r19,hi8(21)
 3562 0ffa DC01      		movw r26,r24
 3563 0ffc A29F      		mul r26,r18
 3564 0ffe C001      		movw r24,r0
 3565 1000 A39F      		mul r26,r19
 3566 1002 900D      		add r25,r0
 3567 1004 B29F      		mul r27,r18
 3568 1006 900D      		add r25,r0
 3569 1008 1124      		clr r1
 3570               	.LVL229:
 3571 100a E80F      		add r30,r24
 3572 100c F91F      		adc r31,r25
 3573 100e 41AF      		std Z+57,r20
 3574 1010 52AF      		std Z+58,r21
 3575 1012 63AF      		std Z+59,r22
 3576 1014 74AF      		std Z+60,r23
 3577               	/* epilogue start */
 3578               	.LM370:
 3579 1016 0895      		ret
 3580               	.LFE62:
 3582               	.global	Timebase_UpCounter_Get_TargetValue
 3584               	Timebase_UpCounter_Get_TargetValue:
 3585               	.LFB63:
 3586               	.LM371:
 3587               	.LVL230:
 3588               	/* prologue: function */
 3589               	/* frame size = 0 */
 3590               	.LM372:
 3591 1018 E091 0000 		lds r30,Timebase
 3592 101c F091 0000 		lds r31,(Timebase)+1
 3593 1020 90E0      		ldi r25,lo8(0)
 3594               	.LVL231:
 3595 1022 25E1      		ldi r18,lo8(21)
 3596 1024 30E0      		ldi r19,hi8(21)
 3597 1026 AC01      		movw r20,r24
 3598 1028 429F      		mul r20,r18
 3599 102a C001      		movw r24,r0
 3600 102c 439F      		mul r20,r19
 3601 102e 900D      		add r25,r0
 3602 1030 529F      		mul r21,r18
 3603 1032 900D      		add r25,r0
 3604 1034 1124      		clr r1
 3605               	.LVL232:
 3606 1036 E80F      		add r30,r24
 3607 1038 F91F      		adc r31,r25
 3608 103a FD96      		adiw r30,61
 3609 103c 6081      		ld r22,Z
 3610 103e 7181      		ldd r23,Z+1
 3611               	.LM373:
 3612 1040 8281      		ldd r24,Z+2
 3613 1042 9381      		ldd r25,Z+3
 3614               	.LVL233:
 3615               	/* epilogue start */
 3616 1044 0895      		ret
 3617               	.LFE63:
 3619               	.global	Timebase_UpCounter_Set_TargetValue
 3621               	Timebase_UpCounter_Set_TargetValue:
 3622               	.LFB64:
 3623               	.LM374:
 3624               	.LVL234:
 3625               	/* prologue: function */
 3626               	/* frame size = 0 */
 3627               	.LM375:
 3628 1046 E091 0000 		lds r30,Timebase
 3629 104a F091 0000 		lds r31,(Timebase)+1
 3630 104e 90E0      		ldi r25,lo8(0)
 3631               	.LVL235:
 3632 1050 25E1      		ldi r18,lo8(21)
 3633 1052 30E0      		ldi r19,hi8(21)
 3634 1054 DC01      		movw r26,r24
 3635 1056 A29F      		mul r26,r18
 3636 1058 C001      		movw r24,r0
 3637 105a A39F      		mul r26,r19
 3638 105c 900D      		add r25,r0
 3639 105e B29F      		mul r27,r18
 3640 1060 900D      		add r25,r0
 3641 1062 1124      		clr r1
 3642               	.LVL236:
 3643 1064 E80F      		add r30,r24
 3644 1066 F91F      		adc r31,r25
 3645 1068 FD96      		adiw r30,61
 3646 106a 4083      		st Z,r20
 3647 106c 5183      		std Z+1,r21
 3648 106e 6283      		std Z+2,r22
 3649 1070 7383      		std Z+3,r23
 3650               	/* epilogue start */
 3651               	.LM376:
 3652 1072 0895      		ret
 3653               	.LFE64:
 3655               	.global	Timebase_UpCounter_Get_TemporaryValue
 3657               	Timebase_UpCounter_Get_TemporaryValue:
 3658               	.LFB65:
 3659               	.LM377:
 3660               	.LVL237:
 3661               	/* prologue: function */
 3662               	/* frame size = 0 */
 3663               	.LM378:
 3664 1074 E091 0000 		lds r30,Timebase
 3665 1078 F091 0000 		lds r31,(Timebase)+1
 3666 107c 90E0      		ldi r25,lo8(0)
 3667               	.LVL238:
 3668 107e 25E1      		ldi r18,lo8(21)
 3669 1080 30E0      		ldi r19,hi8(21)
 3670 1082 AC01      		movw r20,r24
 3671 1084 429F      		mul r20,r18
 3672 1086 C001      		movw r24,r0
 3673 1088 439F      		mul r20,r19
 3674 108a 900D      		add r25,r0
 3675 108c 529F      		mul r21,r18
 3676 108e 900D      		add r25,r0
 3677 1090 1124      		clr r1
 3678               	.LVL239:
 3679 1092 E80F      		add r30,r24
 3680 1094 F91F      		adc r31,r25
 3681 1096 EF5B      		subi r30,lo8(-(65))
 3682 1098 FF4F      		sbci r31,hi8(-(65))
 3683 109a 6081      		ld r22,Z
 3684 109c 7181      		ldd r23,Z+1
 3685               	.LM379:
 3686 109e 8281      		ldd r24,Z+2
 3687 10a0 9381      		ldd r25,Z+3
 3688               	.LVL240:
 3689               	/* epilogue start */
 3690 10a2 0895      		ret
 3691               	.LFE65:
 3693               	.global	Timebase_UpCounter_Set_TemporaryValue
 3695               	Timebase_UpCounter_Set_TemporaryValue:
 3696               	.LFB66:
 3697               	.LM380:
 3698               	.LVL241:
 3699               	/* prologue: function */
 3700               	/* frame size = 0 */
 3701               	.LM381:
 3702 10a4 E091 0000 		lds r30,Timebase
 3703 10a8 F091 0000 		lds r31,(Timebase)+1
 3704 10ac 90E0      		ldi r25,lo8(0)
 3705               	.LVL242:
 3706 10ae 25E1      		ldi r18,lo8(21)
 3707 10b0 30E0      		ldi r19,hi8(21)
 3708 10b2 DC01      		movw r26,r24
 3709 10b4 A29F      		mul r26,r18
 3710 10b6 C001      		movw r24,r0
 3711 10b8 A39F      		mul r26,r19
 3712 10ba 900D      		add r25,r0
 3713 10bc B29F      		mul r27,r18
 3714 10be 900D      		add r25,r0
 3715 10c0 1124      		clr r1
 3716               	.LVL243:
 3717 10c2 E80F      		add r30,r24
 3718 10c4 F91F      		adc r31,r25
 3719 10c6 EF5B      		subi r30,lo8(-(65))
 3720 10c8 FF4F      		sbci r31,hi8(-(65))
 3721 10ca 4083      		st Z,r20
 3722 10cc 5183      		std Z+1,r21
 3723 10ce 6283      		std Z+2,r22
 3724 10d0 7383      		std Z+3,r23
 3725               	/* epilogue start */
 3726               	.LM382:
 3727 10d2 0895      		ret
 3728               	.LFE66:
 3730               	.global	Timebase_UpCounter_Get_PeriodValue
 3732               	Timebase_UpCounter_Get_PeriodValue:
 3733               	.LFB67:
 3734               	.LM383:
 3735               	.LVL244:
 3736               	/* prologue: function */
 3737               	/* frame size = 0 */
 3738               	.LM384:
 3739 10d4 E091 0000 		lds r30,Timebase
 3740 10d8 F091 0000 		lds r31,(Timebase)+1
 3741 10dc 90E0      		ldi r25,lo8(0)
 3742               	.LVL245:
 3743 10de 25E1      		ldi r18,lo8(21)
 3744 10e0 30E0      		ldi r19,hi8(21)
 3745 10e2 AC01      		movw r20,r24
 3746 10e4 429F      		mul r20,r18
 3747 10e6 C001      		movw r24,r0
 3748 10e8 439F      		mul r20,r19
 3749 10ea 900D      		add r25,r0
 3750 10ec 529F      		mul r21,r18
 3751 10ee 900D      		add r25,r0
 3752 10f0 1124      		clr r1
 3753               	.LVL246:
 3754 10f2 E80F      		add r30,r24
 3755 10f4 F91F      		adc r31,r25
 3756 10f6 E75B      		subi r30,lo8(-(73))
 3757 10f8 FF4F      		sbci r31,hi8(-(73))
 3758 10fa 6081      		ld r22,Z
 3759 10fc 7181      		ldd r23,Z+1
 3760               	.LM385:
 3761 10fe 8281      		ldd r24,Z+2
 3762 1100 9381      		ldd r25,Z+3
 3763               	.LVL247:
 3764               	/* epilogue start */
 3765 1102 0895      		ret
 3766               	.LFE67:
 3768               	.global	Timebase_UpCounter_Set_PeriodValue
 3770               	Timebase_UpCounter_Set_PeriodValue:
 3771               	.LFB68:
 3772               	.LM386:
 3773               	.LVL248:
 3774               	/* prologue: function */
 3775               	/* frame size = 0 */
 3776               	.LM387:
 3777 1104 E091 0000 		lds r30,Timebase
 3778 1108 F091 0000 		lds r31,(Timebase)+1
 3779 110c 90E0      		ldi r25,lo8(0)
 3780               	.LVL249:
 3781 110e 25E1      		ldi r18,lo8(21)
 3782 1110 30E0      		ldi r19,hi8(21)
 3783 1112 DC01      		movw r26,r24
 3784 1114 A29F      		mul r26,r18
 3785 1116 C001      		movw r24,r0
 3786 1118 A39F      		mul r26,r19
 3787 111a 900D      		add r25,r0
 3788 111c B29F      		mul r27,r18
 3789 111e 900D      		add r25,r0
 3790 1120 1124      		clr r1
 3791               	.LVL250:
 3792 1122 E80F      		add r30,r24
 3793 1124 F91F      		adc r31,r25
 3794 1126 E75B      		subi r30,lo8(-(73))
 3795 1128 FF4F      		sbci r31,hi8(-(73))
 3796 112a 4083      		st Z,r20
 3797 112c 5183      		std Z+1,r21
 3798 112e 6283      		std Z+2,r22
 3799 1130 7383      		std Z+3,r23
 3800               	/* epilogue start */
 3801               	.LM388:
 3802 1132 0895      		ret
 3803               	.LFE68:
 3805               	.global	Timebase_UpCounter_Get_Period_Flag
 3807               	Timebase_UpCounter_Get_Period_Flag:
 3808               	.LFB69:
 3809               	.LM389:
 3810               	.LVL251:
 3811               	/* prologue: function */
 3812               	/* frame size = 0 */
 3813               	.LM390:
 3814 1134 E091 0000 		lds r30,Timebase
 3815 1138 F091 0000 		lds r31,(Timebase)+1
 3816 113c 90E0      		ldi r25,lo8(0)
 3817               	.LVL252:
 3818 113e 25E1      		ldi r18,lo8(21)
 3819 1140 30E0      		ldi r19,hi8(21)
 3820 1142 AC01      		movw r20,r24
 3821 1144 429F      		mul r20,r18
 3822 1146 C001      		movw r24,r0
 3823 1148 439F      		mul r20,r19
 3824 114a 900D      		add r25,r0
 3825 114c 529F      		mul r21,r18
 3826 114e 900D      		add r25,r0
 3827 1150 1124      		clr r1
 3828               	.LVL253:
 3829 1152 E80F      		add r30,r24
 3830 1154 F91F      		adc r31,r25
 3831 1156 80AD      		ldd r24,Z+56
 3832               	.LM391:
 3833 1158 8170      		andi r24,lo8(1)
 3834               	/* epilogue start */
 3835 115a 0895      		ret
 3836               	.LFE69:
 3838               	.global	Timebase_UpCounter_Set_Period_Flag
 3840               	Timebase_UpCounter_Set_Period_Flag:
 3841               	.LFB70:
 3842               	.LM392:
 3843               	.LVL254:
 3844               	/* prologue: function */
 3845               	/* frame size = 0 */
 3846               	.LM393:
 3847 115c E091 0000 		lds r30,Timebase
 3848 1160 F091 0000 		lds r31,(Timebase)+1
 3849 1164 90E0      		ldi r25,lo8(0)
 3850               	.LVL255:
 3851 1166 25E1      		ldi r18,lo8(21)
 3852 1168 30E0      		ldi r19,hi8(21)
 3853 116a AC01      		movw r20,r24
 3854 116c 429F      		mul r20,r18
 3855 116e C001      		movw r24,r0
 3856 1170 439F      		mul r20,r19
 3857 1172 900D      		add r25,r0
 3858 1174 529F      		mul r21,r18
 3859 1176 900D      		add r25,r0
 3860 1178 1124      		clr r1
 3861               	.LVL256:
 3862 117a E80F      		add r30,r24
 3863 117c F91F      		adc r31,r25
 3864 117e 80AD      		ldd r24,Z+56
 3865 1180 8160      		ori r24,lo8(1)
 3866 1182 80AF      		std Z+56,r24
 3867               	/* epilogue start */
 3868               	.LM394:
 3869 1184 0895      		ret
 3870               	.LFE70:
 3872               	.global	Timebase_UpCounter_Clear_Period_Flag
 3874               	Timebase_UpCounter_Clear_Period_Flag:
 3875               	.LFB71:
 3876               	.LM395:
 3877               	.LVL257:
 3878               	/* prologue: function */
 3879               	/* frame size = 0 */
 3880               	.LM396:
 3881 1186 E091 0000 		lds r30,Timebase
 3882 118a F091 0000 		lds r31,(Timebase)+1
 3883 118e 90E0      		ldi r25,lo8(0)
 3884               	.LVL258:
 3885 1190 25E1      		ldi r18,lo8(21)
 3886 1192 30E0      		ldi r19,hi8(21)
 3887 1194 AC01      		movw r20,r24
 3888 1196 429F      		mul r20,r18
 3889 1198 C001      		movw r24,r0
 3890 119a 439F      		mul r20,r19
 3891 119c 900D      		add r25,r0
 3892 119e 529F      		mul r21,r18
 3893 11a0 900D      		add r25,r0
 3894 11a2 1124      		clr r1
 3895               	.LVL259:
 3896 11a4 E80F      		add r30,r24
 3897 11a6 F91F      		adc r31,r25
 3898 11a8 80AD      		ldd r24,Z+56
 3899 11aa 8E7F      		andi r24,lo8(-2)
 3900 11ac 80AF      		std Z+56,r24
 3901               	/* epilogue start */
 3902               	.LM397:
 3903 11ae 0895      		ret
 3904               	.LFE71:
 3906               	.global	Timebase_UpCounter_Reset
 3908               	Timebase_UpCounter_Reset:
 3909               	.LFB72:
 3910               	.LM398:
 3911               	.LVL260:
 3912               	/* prologue: function */
 3913               	/* frame size = 0 */
 3914               	.LBB861:
 3915               	.LBB862:
 3916               	.LM399:
 3917 11b0 E091 0000 		lds r30,Timebase
 3918 11b4 F091 0000 		lds r31,(Timebase)+1
 3919 11b8 90E0      		ldi r25,lo8(0)
 3920 11ba 25E1      		ldi r18,lo8(21)
 3921 11bc 30E0      		ldi r19,hi8(21)
 3922 11be AC01      		movw r20,r24
 3923               	.LVL261:
 3924 11c0 429F      		mul r20,r18
 3925 11c2 C001      		movw r24,r0
 3926 11c4 439F      		mul r20,r19
 3927 11c6 900D      		add r25,r0
 3928 11c8 529F      		mul r21,r18
 3929 11ca 900D      		add r25,r0
 3930 11cc 1124      		clr r1
 3931 11ce E80F      		add r30,r24
 3932 11d0 F91F      		adc r31,r25
 3933 11d2 80AD      		ldd r24,Z+56
 3934               	.LBE862:
 3935               	.LBE861:
 3936               	.LBB863:
 3937               	.LBB864:
 3938               	.LM400:
 3939 11d4 EB5B      		subi r30,lo8(-(69))
 3940 11d6 FF4F      		sbci r31,hi8(-(69))
 3941 11d8 1082      		st Z,__zero_reg__
 3942 11da 1182      		std Z+1,__zero_reg__
 3943 11dc 1282      		std Z+2,__zero_reg__
 3944 11de 1382      		std Z+3,__zero_reg__
 3945 11e0 E554      		subi r30,lo8(-(-69))
 3946 11e2 F040      		sbci r31,hi8(-(-69))
 3947               	.LBE864:
 3948               	.LBE863:
 3949               	.LBB865:
 3950               	.LBB866:
 3951               	.LM401:
 3952 11e4 11AE      		std Z+57,__zero_reg__
 3953 11e6 12AE      		std Z+58,__zero_reg__
 3954 11e8 13AE      		std Z+59,__zero_reg__
 3955 11ea 14AE      		std Z+60,__zero_reg__
 3956               	.LBE866:
 3957               	.LBE865:
 3958               	.LBB867:
 3959               	.LBB868:
 3960               	.LM402:
 3961 11ec FD96      		adiw r30,61
 3962 11ee 1192      		st Z+,__zero_reg__
 3963 11f0 1192      		st Z+,__zero_reg__
 3964 11f2 1192      		st Z+,__zero_reg__
 3965 11f4 1192      		st Z+,__zero_reg__
 3966               	.LBE868:
 3967               	.LBE867:
 3968               	.LBB869:
 3969               	.LBB870:
 3970               	.LM403:
 3971 11f6 1082      		st Z,__zero_reg__
 3972 11f8 1182      		std Z+1,__zero_reg__
 3973 11fa 1282      		std Z+2,__zero_reg__
 3974 11fc 1382      		std Z+3,__zero_reg__
 3975               	.LBE870:
 3976               	.LBE869:
 3977               	.LBB871:
 3978               	.LBB872:
 3979               	.LM404:
 3980 11fe 3896      		adiw r30,8
 3981 1200 1082      		st Z,__zero_reg__
 3982 1202 1182      		std Z+1,__zero_reg__
 3983 1204 1282      		std Z+2,__zero_reg__
 3984 1206 1382      		std Z+3,__zero_reg__
 3985 1208 E954      		subi r30,lo8(-(-73))
 3986 120a F040      		sbci r31,hi8(-(-73))
 3987               	.LBE872:
 3988               	.LBE871:
 3989               	.LBB873:
 3990               	.LBB874:
 3991               	.LM405:
 3992 120c 807E      		andi r24,lo8(-32)
 3993 120e 80AF      		std Z+56,r24
 3994               	/* epilogue start */
 3995               	.LBE874:
 3996               	.LBE873:
 3997               	.LM406:
 3998 1210 0895      		ret
 3999               	.LFE72:
 4001               	.global	Timebase_UpCounter_Clear_All_Flags
 4003               	Timebase_UpCounter_Clear_All_Flags:
 4004               	.LFB73:
 4005               	.LM407:
 4006               	.LVL262:
 4007               	/* prologue: function */
 4008               	/* frame size = 0 */
 4009               	.LM408:
 4010 1212 0E94 0000 		call Timebase_UpCounter_Reset
 4011               	.LVL263:
 4012               	/* epilogue start */
 4013               	.LM409:
 4014 1216 0895      		ret
 4015               	.LFE73:
 4017               	.global	Timebase_UpCounter_Start
 4019               	Timebase_UpCounter_Start:
 4020               	.LFB74:
 4021               	.LM410:
 4022               	.LVL264:
 4023               	/* prologue: function */
 4024               	/* frame size = 0 */
 4025               	.LBB875:
 4026               	.LBB876:
 4027               	.LM411:
 4028 1218 E091 0000 		lds r30,Timebase
 4029 121c F091 0000 		lds r31,(Timebase)+1
 4030 1220 90E0      		ldi r25,lo8(0)
 4031               	.LBE876:
 4032               	.LBE875:
 4033               	.LM412:
 4034 1222 25E1      		ldi r18,lo8(21)
 4035 1224 30E0      		ldi r19,hi8(21)
 4036 1226 AC01      		movw r20,r24
 4037               	.LVL265:
 4038 1228 429F      		mul r20,r18
 4039 122a C001      		movw r24,r0
 4040 122c 439F      		mul r20,r19
 4041 122e 900D      		add r25,r0
 4042 1230 529F      		mul r21,r18
 4043 1232 900D      		add r25,r0
 4044 1234 1124      		clr r1
 4045 1236 E80F      		add r30,r24
 4046 1238 F91F      		adc r31,r25
 4047 123a 90AD      		ldd r25,Z+56
 4048 123c 892F      		mov r24,r25
 4049 123e 8695      		lsr r24
 4050 1240 8F70      		andi r24,lo8(15)
 4051 1242 8130      		cpi r24,lo8(1)
 4052 1244 01F0      		breq .L188
 4053               	.LBB877:
 4054               	.LBB878:
 4055               	.LM413:
 4056 1246 917E      		andi r25,lo8(-31)
 4057 1248 9260      		ori r25,lo8(2)
 4058 124a 90AF      		std Z+56,r25
 4059               	.L188:
 4060 124c 0895      		ret
 4061               	.LBE878:
 4062               	.LBE877:
 4063               	.LFE74:
 4065               	.global	Timebase_UpCounter_Stop
 4067               	Timebase_UpCounter_Stop:
 4068               	.LFB75:
 4069               	.LM414:
 4070               	.LVL266:
 4071               	/* prologue: function */
 4072               	/* frame size = 0 */
 4073               	.LBB879:
 4074               	.LBB880:
 4075               	.LM415:
 4076 124e E091 0000 		lds r30,Timebase
 4077 1252 F091 0000 		lds r31,(Timebase)+1
 4078 1256 90E0      		ldi r25,lo8(0)
 4079               	.LBE880:
 4080               	.LBE879:
 4081               	.LM416:
 4082 1258 25E1      		ldi r18,lo8(21)
 4083 125a 30E0      		ldi r19,hi8(21)
 4084 125c AC01      		movw r20,r24
 4085               	.LVL267:
 4086 125e 429F      		mul r20,r18
 4087 1260 C001      		movw r24,r0
 4088 1262 439F      		mul r20,r19
 4089 1264 900D      		add r25,r0
 4090 1266 529F      		mul r21,r18
 4091 1268 900D      		add r25,r0
 4092 126a 1124      		clr r1
 4093 126c E80F      		add r30,r24
 4094 126e F91F      		adc r31,r25
 4095 1270 90AD      		ldd r25,Z+56
 4096 1272 892F      		mov r24,r25
 4097 1274 8695      		lsr r24
 4098 1276 8F70      		andi r24,lo8(15)
 4099 1278 8230      		cpi r24,lo8(2)
 4100 127a 01F0      		breq .L191
 4101               	.LBB881:
 4102               	.LBB882:
 4103               	.LM417:
 4104 127c 917E      		andi r25,lo8(-31)
 4105 127e 9460      		ori r25,lo8(4)
 4106 1280 90AF      		std Z+56,r25
 4107               	.L191:
 4108 1282 0895      		ret
 4109               	.LBE882:
 4110               	.LBE881:
 4111               	.LFE75:
 4113               	.global	Timebase_UpCounter_Set_Securely
 4115               	Timebase_UpCounter_Set_Securely:
 4116               	.LFB76:
 4117               	.LM418:
 4118               	.LVL268:
 4119 1284 0F93      		push r16
 4120 1286 1F93      		push r17
 4121 1288 CF93      		push r28
 4122 128a DF93      		push r29
 4123               	/* prologue: function */
 4124               	/* frame size = 0 */
 4125               	.LBB883:
 4126               	.LBB884:
 4127               	.LM419:
 4128 128c C091 0000 		lds r28,Timebase
 4129 1290 D091 0000 		lds r29,(Timebase)+1
 4130 1294 082F      		mov r16,r24
 4131 1296 10E0      		ldi r17,lo8(0)
 4132               	.LBE884:
 4133               	.LBE883:
 4134               	.LM420:
 4135 1298 85E1      		ldi r24,lo8(21)
 4136 129a 90E0      		ldi r25,hi8(21)
 4137               	.LVL269:
 4138 129c 089F      		mul r16,r24
 4139 129e F001      		movw r30,r0
 4140 12a0 099F      		mul r16,r25
 4141 12a2 F00D      		add r31,r0
 4142 12a4 189F      		mul r17,r24
 4143 12a6 F00D      		add r31,r0
 4144 12a8 1124      		clr r1
 4145 12aa EC0F      		add r30,r28
 4146 12ac FD1F      		adc r31,r29
 4147 12ae 80AD      		ldd r24,Z+56
 4148 12b0 8695      		lsr r24
 4149 12b2 8F70      		andi r24,lo8(15)
 4150 12b4 01F4      		brne .L194
 4151               	.LBB885:
 4152               	.LBB886:
 4153               	.LM421:
 4154 12b6 EB5B      		subi r30,lo8(-(69))
 4155 12b8 FF4F      		sbci r31,hi8(-(69))
 4156 12ba 1082      		st Z,__zero_reg__
 4157 12bc 1182      		std Z+1,__zero_reg__
 4158 12be 1282      		std Z+2,__zero_reg__
 4159 12c0 1382      		std Z+3,__zero_reg__
 4160               	.LBE886:
 4161               	.LBE885:
 4162               	.LBB887:
 4163               	.LBB888:
 4164               	.LM422:
 4165 12c2 1292      		st -Z,__zero_reg__
 4166 12c4 1292      		st -Z,__zero_reg__
 4167 12c6 1292      		st -Z,__zero_reg__
 4168 12c8 1292      		st -Z,__zero_reg__
 4169               	.LBE888:
 4170               	.LBE887:
 4171               	.LBB889:
 4172               	.LBB890:
 4173               	.LM423:
 4174 12ca 7293      		st -Z,r23
 4175 12cc 6293      		st -Z,r22
 4176 12ce 5293      		st -Z,r21
 4177 12d0 4293      		st -Z,r20
 4178               	.LBE890:
 4179               	.LBE889:
 4180               	.LBB891:
 4181               	.LBB892:
 4182               	.LBB893:
 4183               	.LBB894:
 4184               	.LM424:
 4185               	/* #APP */
 4186               	 ;  344 "timebase.c" 1
 4187 12d2 F894      		cli
 4188               	 ;  0 "" 2
 4189               	/* #NOAPP */
 4190               	.LBE894:
 4191               	.LBE893:
 4192               	.LM425:
 4193 12d4 8A85      		ldd r24,Y+10
 4194 12d6 9B85      		ldd r25,Y+11
 4195 12d8 AC85      		ldd r26,Y+12
 4196 12da BD85      		ldd r27,Y+13
 4197               	.LVL270:
 4198               	.LBB895:
 4199               	.LBB896:
 4200               	.LM426:
 4201               	/* #APP */
 4202               	 ;  348 "timebase.c" 1
 4203 12dc 7894      		sei
 4204               	 ;  0 "" 2
 4205               	/* #NOAPP */
 4206               	.LBE896:
 4207               	.LBE895:
 4208               	.LBE892:
 4209               	.LBE891:
 4210               	.LBB897:
 4211               	.LBB898:
 4212               	.LM427:
 4213 12de 25E1      		ldi r18,lo8(21)
 4214 12e0 30E0      		ldi r19,hi8(21)
 4215 12e2 029F      		mul r16,r18
 4216 12e4 F001      		movw r30,r0
 4217 12e6 039F      		mul r16,r19
 4218 12e8 F00D      		add r31,r0
 4219 12ea 129F      		mul r17,r18
 4220 12ec F00D      		add r31,r0
 4221 12ee 1124      		clr r1
 4222 12f0 EC0F      		add r30,r28
 4223 12f2 FD1F      		adc r31,r29
 4224 12f4 840F      		add r24,r20
 4225 12f6 951F      		adc r25,r21
 4226 12f8 A61F      		adc r26,r22
 4227 12fa B71F      		adc r27,r23
 4228 12fc 81AF      		std Z+57,r24
 4229 12fe 92AF      		std Z+58,r25
 4230 1300 A3AF      		std Z+59,r26
 4231 1302 B4AF      		std Z+60,r27
 4232               	.LBE898:
 4233               	.LBE897:
 4234               	.LBB899:
 4235               	.LBB900:
 4236               	.LM428:
 4237 1304 90AD      		ldd r25,Z+56
 4238 1306 892F      		mov r24,r25
 4239               	.LVL271:
 4240 1308 8695      		lsr r24
 4241 130a 8F70      		andi r24,lo8(15)
 4242 130c 8130      		cpi r24,lo8(1)
 4243 130e 01F0      		breq .L194
 4244               	.LBB901:
 4245               	.LBB902:
 4246               	.LM429:
 4247 1310 917E      		andi r25,lo8(-31)
 4248 1312 9260      		ori r25,lo8(2)
 4249 1314 90AF      		std Z+56,r25
 4250               	.L194:
 4251               	/* epilogue start */
 4252               	.LBE902:
 4253               	.LBE901:
 4254               	.LBE900:
 4255               	.LBE899:
 4256               	.LM430:
 4257 1316 DF91      		pop r29
 4258 1318 CF91      		pop r28
 4259 131a 1F91      		pop r17
 4260 131c 0F91      		pop r16
 4261 131e 0895      		ret
 4262               	.LFE76:
 4264               	.global	Timebase_UpCounter_Set_Forcefully
 4266               	Timebase_UpCounter_Set_Forcefully:
 4267               	.LFB77:
 4268               	.LM431:
 4269               	.LVL272:
 4270 1320 DF92      		push r13
 4271 1322 EF92      		push r14
 4272 1324 FF92      		push r15
 4273 1326 0F93      		push r16
 4274 1328 1F93      		push r17
 4275               	/* prologue: function */
 4276               	/* frame size = 0 */
 4277 132a D82E      		mov r13,r24
 4278 132c 7A01      		movw r14,r20
 4279 132e 8B01      		movw r16,r22
 4280               	.LM432:
 4281 1330 0E94 0000 		call Timebase_UpCounter_Reset
 4282               	.LVL273:
 4283               	.LM433:
 4284 1334 8D2D      		mov r24,r13
 4285 1336 B801      		movw r22,r16
 4286 1338 A701      		movw r20,r14
 4287 133a 0E94 0000 		call Timebase_UpCounter_Set_Securely
 4288               	/* epilogue start */
 4289               	.LM434:
 4290 133e 1F91      		pop r17
 4291 1340 0F91      		pop r16
 4292 1342 FF90      		pop r15
 4293 1344 EF90      		pop r14
 4294               	.LVL274:
 4295 1346 DF90      		pop r13
 4296               	.LVL275:
 4297 1348 0895      		ret
 4298               	.LFE77:
 4300               	.global	Timebase_UpCounter_Update
 4302               	Timebase_UpCounter_Update:
 4303               	.LFB78:
 4304               	.LM435:
 4305               	.LVL276:
 4306 134a EF92      		push r14
 4307 134c FF92      		push r15
 4308 134e 0F93      		push r16
 4309 1350 1F93      		push r17
 4310 1352 CF93      		push r28
 4311 1354 DF93      		push r29
 4312               	/* prologue: function */
 4313               	/* frame size = 0 */
 4314               	.LBB903:
 4315               	.LBB904:
 4316               	.LM436:
 4317 1356 A091 0000 		lds r26,Timebase
 4318 135a B091 0000 		lds r27,(Timebase)+1
 4319 135e 682F      		mov r22,r24
 4320 1360 70E0      		ldi r23,lo8(0)
 4321 1362 85E1      		ldi r24,lo8(21)
 4322 1364 90E0      		ldi r25,hi8(21)
 4323               	.LVL277:
 4324 1366 689F      		mul r22,r24
 4325 1368 F001      		movw r30,r0
 4326 136a 699F      		mul r22,r25
 4327 136c F00D      		add r31,r0
 4328 136e 789F      		mul r23,r24
 4329 1370 F00D      		add r31,r0
 4330 1372 1124      		clr r1
 4331 1374 EA0F      		add r30,r26
 4332 1376 FB1F      		adc r31,r27
 4333 1378 80AD      		ldd r24,Z+56
 4334 137a 8695      		lsr r24
 4335 137c 8F70      		andi r24,lo8(15)
 4336               	.LBE904:
 4337               	.LBE903:
 4338               	.LM437:
 4339 137e 8130      		cpi r24,lo8(1)
 4340 1380 01F0      		breq .+2
 4341 1382 00C0      		rjmp .L198
 4342               	.LBB905:
 4343               	.LBB906:
 4344               	.LBB907:
 4345               	.LBB908:
 4346               	.LM438:
 4347               	/* #APP */
 4348               	 ;  344 "timebase.c" 1
 4349 1384 F894      		cli
 4350               	 ;  0 "" 2
 4351               	/* #NOAPP */
 4352               	.LBE908:
 4353               	.LBE907:
 4354               	.LM439:
 4355 1386 1A96      		adiw r26,10
 4356 1388 ED90      		ld r14,X+
 4357 138a FD90      		ld r15,X+
 4358 138c 0D91      		ld r16,X+
 4359 138e 1C91      		ld r17,X
 4360 1390 1D97      		sbiw r26,10+3
 4361               	.LVL278:
 4362               	.LBB909:
 4363               	.LBB910:
 4364               	.LM440:
 4365               	/* #APP */
 4366               	 ;  348 "timebase.c" 1
 4367 1392 7894      		sei
 4368               	 ;  0 "" 2
 4369               	/* #NOAPP */
 4370               	.LBE910:
 4371               	.LBE909:
 4372               	.LBE906:
 4373               	.LBE905:
 4374               	.LM441:
 4375 1394 85E1      		ldi r24,lo8(21)
 4376 1396 90E0      		ldi r25,hi8(21)
 4377 1398 689F      		mul r22,r24
 4378 139a F001      		movw r30,r0
 4379 139c 699F      		mul r22,r25
 4380 139e F00D      		add r31,r0
 4381 13a0 789F      		mul r23,r24
 4382 13a2 F00D      		add r31,r0
 4383 13a4 1124      		clr r1
 4384 13a6 EA0F      		add r30,r26
 4385 13a8 FB1F      		adc r31,r27
 4386 13aa 21AD      		ldd r18,Z+57
 4387 13ac 32AD      		ldd r19,Z+58
 4388 13ae 43AD      		ldd r20,Z+59
 4389 13b0 54AD      		ldd r21,Z+60
 4390 13b2 2E19      		sub r18,r14
 4391 13b4 3F09      		sbc r19,r15
 4392 13b6 400B      		sbc r20,r16
 4393 13b8 510B      		sbc r21,r17
 4394               	.LBB911:
 4395               	.LBB912:
 4396               	.LM442:
 4397 13ba BF01      		movw r22,r30
 4398 13bc 6F5B      		subi r22,lo8(-(65))
 4399 13be 7F4F      		sbci r23,hi8(-(65))
 4400 13c0 DB01      		movw r26,r22
 4401 13c2 2D93      		st X+,r18
 4402 13c4 3D93      		st X+,r19
 4403 13c6 4D93      		st X+,r20
 4404 13c8 5C93      		st X,r21
 4405 13ca 1397      		sbiw r26,3
 4406               	.LBE912:
 4407               	.LBE911:
 4408               	.LBB913:
 4409               	.LBB914:
 4410               	.LM443:
 4411 13cc EF01      		movw r28,r30
 4412 13ce CB5B      		subi r28,lo8(-(69))
 4413 13d0 DF4F      		sbci r29,hi8(-(69))
 4414 13d2 FD96      		adiw r30,61
 4415 13d4 E080      		ld r14,Z
 4416 13d6 F180      		ldd r15,Z+1
 4417 13d8 0281      		ldd r16,Z+2
 4418 13da 1381      		ldd r17,Z+3
 4419               	.LVL279:
 4420 13dc FD97      		sbiw r30,61
 4421 13de D801      		movw r26,r16
 4422 13e0 C701      		movw r24,r14
 4423 13e2 821B      		sub r24,r18
 4424 13e4 930B      		sbc r25,r19
 4425 13e6 A40B      		sbc r26,r20
 4426 13e8 B50B      		sbc r27,r21
 4427 13ea 8883      		st Y,r24
 4428 13ec 9983      		std Y+1,r25
 4429 13ee AA83      		std Y+2,r26
 4430 13f0 BB83      		std Y+3,r27
 4431               	.LBE914:
 4432               	.LBE913:
 4433               	.LM444:
 4434 13f2 1216      		cp __zero_reg__,r18
 4435 13f4 1306      		cpc __zero_reg__,r19
 4436 13f6 1406      		cpc __zero_reg__,r20
 4437 13f8 1506      		cpc __zero_reg__,r21
 4438 13fa 04F4      		brge .+2
 4439 13fc 00C0      		rjmp .L200
 4440               	.LBB915:
 4441               	.LBB916:
 4442               	.LM445:
 4443 13fe 11AE      		std Z+57,__zero_reg__
 4444 1400 12AE      		std Z+58,__zero_reg__
 4445 1402 13AE      		std Z+59,__zero_reg__
 4446 1404 14AE      		std Z+60,__zero_reg__
 4447               	.LBE916:
 4448               	.LBE915:
 4449               	.LBB917:
 4450               	.LBB918:
 4451               	.LM446:
 4452 1406 DB01      		movw r26,r22
 4453 1408 1D92      		st X+,__zero_reg__
 4454 140a 1D92      		st X+,__zero_reg__
 4455 140c 1D92      		st X+,__zero_reg__
 4456 140e 1C92      		st X,__zero_reg__
 4457 1410 1397      		sbiw r26,3
 4458               	.LBE918:
 4459               	.LBE917:
 4460               	.LBB919:
 4461               	.LBB920:
 4462               	.LM447:
 4463 1412 E882      		st Y,r14
 4464 1414 F982      		std Y+1,r15
 4465 1416 0A83      		std Y+2,r16
 4466 1418 1B83      		std Y+3,r17
 4467               	.LBE920:
 4468               	.LBE919:
 4469               	.LBB921:
 4470               	.LBB922:
 4471               	.LM448:
 4472 141a 80AD      		ldd r24,Z+56
 4473 141c 817E      		andi r24,lo8(-31)
 4474 141e 8860      		ori r24,lo8(8)
 4475 1420 80AF      		std Z+56,r24
 4476 1422 00C0      		rjmp .L200
 4477               	.L198:
 4478               	.LBE922:
 4479               	.LBE921:
 4480               	.LM449:
 4481 1424 8230      		cpi r24,lo8(2)
 4482 1426 01F4      		brne .L200
 4483               	.LBB923:
 4484               	.LBB924:
 4485               	.LBB925:
 4486               	.LBB926:
 4487               	.LM450:
 4488               	/* #APP */
 4489               	 ;  344 "timebase.c" 1
 4490 1428 F894      		cli
 4491               	 ;  0 "" 2
 4492               	/* #NOAPP */
 4493               	.LBE926:
 4494               	.LBE925:
 4495               	.LM451:
 4496 142a 1A96      		adiw r26,10
 4497 142c 2D91      		ld r18,X+
 4498 142e 3D91      		ld r19,X+
 4499 1430 4D91      		ld r20,X+
 4500 1432 5C91      		ld r21,X
 4501 1434 1D97      		sbiw r26,10+3
 4502               	.LVL280:
 4503               	.LBB927:
 4504               	.LBB928:
 4505               	.LM452:
 4506               	/* #APP */
 4507               	 ;  348 "timebase.c" 1
 4508 1436 7894      		sei
 4509               	 ;  0 "" 2
 4510               	/* #NOAPP */
 4511               	.LBE928:
 4512               	.LBE927:
 4513               	.LBE924:
 4514               	.LBE923:
 4515               	.LBB929:
 4516               	.LBB930:
 4517               	.LM453:
 4518 1438 85E1      		ldi r24,lo8(21)
 4519 143a 90E0      		ldi r25,hi8(21)
 4520 143c 689F      		mul r22,r24
 4521 143e F001      		movw r30,r0
 4522 1440 699F      		mul r22,r25
 4523 1442 F00D      		add r31,r0
 4524 1444 789F      		mul r23,r24
 4525 1446 F00D      		add r31,r0
 4526 1448 1124      		clr r1
 4527 144a EA0F      		add r30,r26
 4528 144c FB1F      		adc r31,r27
 4529 144e EF5B      		subi r30,lo8(-(65))
 4530 1450 FF4F      		sbci r31,hi8(-(65))
 4531 1452 E080      		ld r14,Z
 4532 1454 F180      		ldd r15,Z+1
 4533 1456 0281      		ldd r16,Z+2
 4534 1458 1381      		ldd r17,Z+3
 4535 145a E154      		subi r30,lo8(-(-65))
 4536 145c F040      		sbci r31,hi8(-(-65))
 4537 145e 2E0D      		add r18,r14
 4538 1460 3F1D      		adc r19,r15
 4539 1462 401F      		adc r20,r16
 4540 1464 511F      		adc r21,r17
 4541 1466 21AF      		std Z+57,r18
 4542 1468 32AF      		std Z+58,r19
 4543 146a 43AF      		std Z+59,r20
 4544 146c 54AF      		std Z+60,r21
 4545               	.LBE930:
 4546               	.LBE929:
 4547               	.LBB931:
 4548               	.LBB932:
 4549               	.LM454:
 4550 146e FD96      		adiw r30,61
 4551 1470 8081      		ld r24,Z
 4552 1472 9181      		ldd r25,Z+1
 4553 1474 A281      		ldd r26,Z+2
 4554 1476 B381      		ldd r27,Z+3
 4555 1478 8E19      		sub r24,r14
 4556 147a 9F09      		sbc r25,r15
 4557 147c A00B      		sbc r26,r16
 4558 147e B10B      		sbc r27,r17
 4559 1480 3896      		adiw r30,8
 4560 1482 8083      		st Z,r24
 4561 1484 9183      		std Z+1,r25
 4562 1486 A283      		std Z+2,r26
 4563 1488 B383      		std Z+3,r27
 4564               	.L200:
 4565               	/* epilogue start */
 4566               	.LBE932:
 4567               	.LBE931:
 4568               	.LM455:
 4569 148a DF91      		pop r29
 4570 148c CF91      		pop r28
 4571 148e 1F91      		pop r17
 4572 1490 0F91      		pop r16
 4573 1492 FF90      		pop r15
 4574 1494 EF90      		pop r14
 4575 1496 0895      		ret
 4576               	.LFE78:
 4578               	.global	Timebase_UpCounter_Expired
 4580               	Timebase_UpCounter_Expired:
 4581               	.LFB79:
 4582               	.LM456:
 4583               	.LVL281:
 4584               	/* prologue: function */
 4585               	/* frame size = 0 */
 4586               	.LM457:
 4587 1498 40E0      		ldi r20,lo8(0)
 4588 149a E091 0000 		lds r30,Timebase
 4589 149e F091 0000 		lds r31,(Timebase)+1
 4590 14a2 90E0      		ldi r25,lo8(0)
 4591               	.LVL282:
 4592 14a4 25E1      		ldi r18,lo8(21)
 4593 14a6 30E0      		ldi r19,hi8(21)
 4594 14a8 BC01      		movw r22,r24
 4595 14aa 629F      		mul r22,r18
 4596 14ac C001      		movw r24,r0
 4597 14ae 639F      		mul r22,r19
 4598 14b0 900D      		add r25,r0
 4599 14b2 729F      		mul r23,r18
 4600 14b4 900D      		add r25,r0
 4601 14b6 1124      		clr r1
 4602               	.LVL283:
 4603 14b8 E80F      		add r30,r24
 4604 14ba F91F      		adc r31,r25
 4605 14bc 80AD      		ldd r24,Z+56
 4606 14be 8695      		lsr r24
 4607 14c0 8F70      		andi r24,lo8(15)
 4608 14c2 8430      		cpi r24,lo8(4)
 4609 14c4 01F4      		brne .L202
 4610 14c6 41E0      		ldi r20,lo8(1)
 4611               	.L202:
 4612               	.LM458:
 4613 14c8 842F      		mov r24,r20
 4614               	/* epilogue start */
 4615 14ca 0895      		ret
 4616               	.LFE79:
 4618               	.global	Timebase_UpCounter_Expired_Event
 4620               	Timebase_UpCounter_Expired_Event:
 4621               	.LFB80:
 4622               	.LM459:
 4623               	.LVL284:
 4624               	/* prologue: function */
 4625               	/* frame size = 0 */
 4626 14cc 482F      		mov r20,r24
 4627               	.LM460:
 4628 14ce E091 0000 		lds r30,Timebase
 4629 14d2 F091 0000 		lds r31,(Timebase)+1
 4630 14d6 282F      		mov r18,r24
 4631 14d8 30E0      		ldi r19,lo8(0)
 4632               	.LVL285:
 4633 14da 85E1      		ldi r24,lo8(21)
 4634 14dc 90E0      		ldi r25,hi8(21)
 4635               	.LVL286:
 4636 14de BC01      		movw r22,r24
 4637 14e0 269F      		mul r18,r22
 4638 14e2 C001      		movw r24,r0
 4639 14e4 279F      		mul r18,r23
 4640 14e6 900D      		add r25,r0
 4641 14e8 369F      		mul r19,r22
 4642 14ea 900D      		add r25,r0
 4643 14ec 1124      		clr r1
 4644 14ee E80F      		add r30,r24
 4645 14f0 F91F      		adc r31,r25
 4646 14f2 80AD      		ldd r24,Z+56
 4647 14f4 8695      		lsr r24
 4648 14f6 8F70      		andi r24,lo8(15)
 4649 14f8 8430      		cpi r24,lo8(4)
 4650 14fa 01F0      		breq .L205
 4651 14fc 80E0      		ldi r24,lo8(0)
 4652 14fe 0895      		ret
 4653               	.L205:
 4654               	.LBB933:
 4655               	.LBB934:
 4656               	.LM461:
 4657 1500 842F      		mov r24,r20
 4658 1502 0E94 0000 		call Timebase_UpCounter_Reset
 4659               	.LVL287:
 4660 1506 81E0      		ldi r24,lo8(1)
 4661               	.LBE934:
 4662               	.LBE933:
 4663               	.LM462:
 4664 1508 0895      		ret
 4665               	.LFE80:
 4667               	.global	Timebase_UpCounter_Set_Period_Value_Securely
 4669               	Timebase_UpCounter_Set_Period_Value_Securely:
 4670               	.LFB81:
 4671               	.LM463:
 4672               	.LVL288:
 4673 150a CF93      		push r28
 4674 150c DF93      		push r29
 4675               	/* prologue: function */
 4676               	/* frame size = 0 */
 4677               	.LBB935:
 4678               	.LBB936:
 4679               	.LM464:
 4680 150e C091 0000 		lds r28,Timebase
 4681 1512 D091 0000 		lds r29,(Timebase)+1
 4682 1516 90E0      		ldi r25,lo8(0)
 4683               	.LBE936:
 4684               	.LBE935:
 4685               	.LM465:
 4686 1518 25E1      		ldi r18,lo8(21)
 4687 151a 30E0      		ldi r19,hi8(21)
 4688 151c FC01      		movw r30,r24
 4689               	.LVL289:
 4690 151e E29F      		mul r30,r18
 4691 1520 C001      		movw r24,r0
 4692 1522 E39F      		mul r30,r19
 4693 1524 900D      		add r25,r0
 4694 1526 F29F      		mul r31,r18
 4695 1528 900D      		add r25,r0
 4696 152a 1124      		clr r1
 4697 152c C80F      		add r28,r24
 4698 152e D91F      		adc r29,r25
 4699 1530 88AD      		ldd r24,Y+56
 4700 1532 80FD      		sbrc r24,0
 4701 1534 00C0      		rjmp .L210
 4702               	.LBB937:
 4703               	.LBB938:
 4704               	.LM466:
 4705 1536 FE01      		movw r30,r28
 4706 1538 E75B      		subi r30,lo8(-(73))
 4707 153a FF4F      		sbci r31,hi8(-(73))
 4708 153c CB5B      		subi r28,lo8(-(69))
 4709 153e DF4F      		sbci r29,hi8(-(69))
 4710 1540 8881      		ld r24,Y
 4711 1542 9981      		ldd r25,Y+1
 4712 1544 AA81      		ldd r26,Y+2
 4713 1546 BB81      		ldd r27,Y+3
 4714 1548 C554      		subi r28,lo8(-(-69))
 4715 154a D040      		sbci r29,hi8(-(-69))
 4716 154c 840F      		add r24,r20
 4717 154e 951F      		adc r25,r21
 4718 1550 A61F      		adc r26,r22
 4719 1552 B71F      		adc r27,r23
 4720 1554 8083      		st Z,r24
 4721 1556 9183      		std Z+1,r25
 4722 1558 A283      		std Z+2,r26
 4723 155a B383      		std Z+3,r27
 4724               	.LBE938:
 4725               	.LBE937:
 4726               	.LBB939:
 4727               	.LBB940:
 4728               	.LM467:
 4729 155c 88AD      		ldd r24,Y+56
 4730 155e 8160      		ori r24,lo8(1)
 4731 1560 88AF      		std Y+56,r24
 4732               	.L210:
 4733               	/* epilogue start */
 4734               	.LBE940:
 4735               	.LBE939:
 4736               	.LM468:
 4737 1562 DF91      		pop r29
 4738 1564 CF91      		pop r28
 4739 1566 0895      		ret
 4740               	.LFE81:
 4742               	.global	Timebase_UpCounter_Get_Remaining_Period_Value
 4744               	Timebase_UpCounter_Get_Remaining_Period_Value:
 4745               	.LFB82:
 4746               	.LM469:
 4747               	.LVL290:
 4748               	/* prologue: function */
 4749               	/* frame size = 0 */
 4750               	.LBB941:
 4751               	.LBB942:
 4752               	.LM470:
 4753 1568 E091 0000 		lds r30,Timebase
 4754 156c F091 0000 		lds r31,(Timebase)+1
 4755 1570 90E0      		ldi r25,lo8(0)
 4756               	.LBE942:
 4757               	.LBE941:
 4758               	.LM471:
 4759 1572 25E1      		ldi r18,lo8(21)
 4760 1574 30E0      		ldi r19,hi8(21)
 4761 1576 AC01      		movw r20,r24
 4762               	.LVL291:
 4763 1578 429F      		mul r20,r18
 4764 157a C001      		movw r24,r0
 4765 157c 439F      		mul r20,r19
 4766 157e 900D      		add r25,r0
 4767 1580 529F      		mul r21,r18
 4768 1582 900D      		add r25,r0
 4769 1584 1124      		clr r1
 4770 1586 E80F      		add r30,r24
 4771 1588 F91F      		adc r31,r25
 4772 158a DF01      		movw r26,r30
 4773 158c AB5B      		subi r26,lo8(-(69))
 4774 158e BF4F      		sbci r27,hi8(-(69))
 4775 1590 E75B      		subi r30,lo8(-(73))
 4776 1592 FF4F      		sbci r31,hi8(-(73))
 4777 1594 2081      		ld r18,Z
 4778 1596 3181      		ldd r19,Z+1
 4779 1598 4281      		ldd r20,Z+2
 4780 159a 5381      		ldd r21,Z+3
 4781               	.LVL292:
 4782 159c 8D91      		ld r24,X+
 4783 159e 9D91      		ld r25,X+
 4784 15a0 0D90      		ld __tmp_reg__,X+
 4785 15a2 BC91      		ld r27,X
 4786 15a4 A02D      		mov r26,__tmp_reg__
 4787 15a6 281B      		sub r18,r24
 4788 15a8 390B      		sbc r19,r25
 4789 15aa 4A0B      		sbc r20,r26
 4790 15ac 5B0B      		sbc r21,r27
 4791 15ae 57FF      		sbrs r21,7
 4792 15b0 00C0      		rjmp .L212
 4793 15b2 20E0      		ldi r18,lo8(0)
 4794 15b4 30E0      		ldi r19,hi8(0)
 4795 15b6 40E0      		ldi r20,hlo8(0)
 4796 15b8 50E0      		ldi r21,hhi8(0)
 4797               	.L212:
 4798               	.LM472:
 4799 15ba B901      		movw r22,r18
 4800               	.LVL293:
 4801 15bc CA01      		movw r24,r20
 4802               	/* epilogue start */
 4803 15be 0895      		ret
 4804               	.LFE82:
 4806               	.global	Timebase_UpCounter_Period_Value_Expired
 4808               	Timebase_UpCounter_Period_Value_Expired:
 4809               	.LFB83:
 4810               	.LM473:
 4811               	.LVL294:
 4812 15c0 CF93      		push r28
 4813 15c2 DF93      		push r29
 4814               	/* prologue: function */
 4815               	/* frame size = 0 */
 4816               	.LBB943:
 4817               	.LBB944:
 4818               	.LBB945:
 4819               	.LBB946:
 4820               	.LM474:
 4821 15c4 C091 0000 		lds r28,Timebase
 4822 15c8 D091 0000 		lds r29,(Timebase)+1
 4823 15cc 682F      		mov r22,r24
 4824 15ce 70E0      		ldi r23,lo8(0)
 4825               	.LBE946:
 4826               	.LBE945:
 4827               	.LM475:
 4828 15d0 85E1      		ldi r24,lo8(21)
 4829 15d2 90E0      		ldi r25,hi8(21)
 4830               	.LVL295:
 4831 15d4 689F      		mul r22,r24
 4832 15d6 F001      		movw r30,r0
 4833 15d8 699F      		mul r22,r25
 4834 15da F00D      		add r31,r0
 4835 15dc 789F      		mul r23,r24
 4836 15de F00D      		add r31,r0
 4837 15e0 1124      		clr r1
 4838 15e2 EC0F      		add r30,r28
 4839 15e4 FD1F      		adc r31,r29
 4840 15e6 DF01      		movw r26,r30
 4841 15e8 AB5B      		subi r26,lo8(-(69))
 4842 15ea BF4F      		sbci r27,hi8(-(69))
 4843 15ec E75B      		subi r30,lo8(-(73))
 4844 15ee FF4F      		sbci r31,hi8(-(73))
 4845 15f0 2081      		ld r18,Z
 4846 15f2 3181      		ldd r19,Z+1
 4847 15f4 4281      		ldd r20,Z+2
 4848 15f6 5381      		ldd r21,Z+3
 4849               	.LVL296:
 4850 15f8 8D91      		ld r24,X+
 4851 15fa 9D91      		ld r25,X+
 4852 15fc 0D90      		ld __tmp_reg__,X+
 4853 15fe BC91      		ld r27,X
 4854 1600 A02D      		mov r26,__tmp_reg__
 4855 1602 281B      		sub r18,r24
 4856 1604 390B      		sbc r19,r25
 4857 1606 4A0B      		sbc r20,r26
 4858 1608 5B0B      		sbc r21,r27
 4859               	.LM476:
 4860 160a 57FD      		sbrc r21,7
 4861 160c 00C0      		rjmp .L215
 4862               	.LBE944:
 4863               	.LBE943:
 4864               	.LM477:
 4865 160e 2115      		cp r18,__zero_reg__
 4866 1610 3105      		cpc r19,__zero_reg__
 4867 1612 4105      		cpc r20,__zero_reg__
 4868 1614 5105      		cpc r21,__zero_reg__
 4869 1616 01F0      		breq .L215
 4870 1618 20E0      		ldi r18,lo8(0)
 4871               	.LVL297:
 4872 161a 00C0      		rjmp .L216
 4873               	.LVL298:
 4874               	.L215:
 4875 161c 20E0      		ldi r18,lo8(0)
 4876               	.LVL299:
 4877 161e 85E1      		ldi r24,lo8(21)
 4878 1620 90E0      		ldi r25,hi8(21)
 4879 1622 AC01      		movw r20,r24
 4880 1624 649F      		mul r22,r20
 4881 1626 C001      		movw r24,r0
 4882 1628 659F      		mul r22,r21
 4883 162a 900D      		add r25,r0
 4884 162c 749F      		mul r23,r20
 4885 162e 900D      		add r25,r0
 4886 1630 1124      		clr r1
 4887 1632 C80F      		add r28,r24
 4888 1634 D91F      		adc r29,r25
 4889 1636 88AD      		ldd r24,Y+56
 4890 1638 80FF      		sbrs r24,0
 4891 163a 21E0      		ldi r18,lo8(1)
 4892               	.L217:
 4893 163c 81E0      		ldi r24,lo8(1)
 4894 163e 2827      		eor r18,r24
 4895               	.L216:
 4896               	.LM478:
 4897 1640 822F      		mov r24,r18
 4898               	/* epilogue start */
 4899 1642 DF91      		pop r29
 4900 1644 CF91      		pop r28
 4901 1646 0895      		ret
 4902               	.LFE83:
 4904               	.global	Timebase_UpCounter_Period_Value_Expired_Event
 4906               	Timebase_UpCounter_Period_Value_Expired_Event:
 4907               	.LFB84:
 4908               	.LM479:
 4909               	.LVL300:
 4910 1648 1F93      		push r17
 4911               	/* prologue: function */
 4912               	/* frame size = 0 */
 4913 164a 182F      		mov r17,r24
 4914               	.LM480:
 4915 164c 0E94 0000 		call Timebase_UpCounter_Period_Value_Expired
 4916               	.LVL301:
 4917 1650 8130      		cpi r24,lo8(1)
 4918 1652 01F0      		breq .L220
 4919 1654 80E0      		ldi r24,lo8(0)
 4920 1656 00C0      		rjmp .L221
 4921               	.L220:
 4922               	.LBB947:
 4923               	.LBB948:
 4924               	.LM481:
 4925 1658 E091 0000 		lds r30,Timebase
 4926 165c F091 0000 		lds r31,(Timebase)+1
 4927 1660 212F      		mov r18,r17
 4928 1662 30E0      		ldi r19,lo8(0)
 4929               	.LVL302:
 4930 1664 85E1      		ldi r24,lo8(21)
 4931 1666 90E0      		ldi r25,hi8(21)
 4932 1668 AC01      		movw r20,r24
 4933 166a 249F      		mul r18,r20
 4934 166c C001      		movw r24,r0
 4935 166e 259F      		mul r18,r21
 4936 1670 900D      		add r25,r0
 4937 1672 349F      		mul r19,r20
 4938 1674 900D      		add r25,r0
 4939 1676 1124      		clr r1
 4940 1678 E80F      		add r30,r24
 4941 167a F91F      		adc r31,r25
 4942 167c 80AD      		ldd r24,Z+56
 4943 167e 8E7F      		andi r24,lo8(-2)
 4944 1680 80AF      		std Z+56,r24
 4945 1682 81E0      		ldi r24,lo8(1)
 4946               	.L221:
 4947               	/* epilogue start */
 4948               	.LBE948:
 4949               	.LBE947:
 4950               	.LM482:
 4951 1684 1F91      		pop r17
 4952               	.LVL303:
 4953 1686 0895      		ret
 4954               	.LFE84:
 4956               	.global	Timebase_UpCounter_Update_All
 4958               	Timebase_UpCounter_Update_All:
 4959               	.LFB85:
 4960               	.LM483:
 4961               	/* prologue: function */
 4962               	/* frame size = 0 */
 4963               	.LBB949:
 4964               	.LM484:
 4965 1688 80E0      		ldi r24,lo8(0)
 4966 168a 0E94 0000 		call Timebase_UpCounter_Update
 4967               	/* epilogue start */
 4968               	.LBE949:
 4969               	.LM485:
 4970 168e 0895      		ret
 4971               	.LFE85:
 4973               	.global	Timebase_UpCounter_Reset_All
 4975               	Timebase_UpCounter_Reset_All:
 4976               	.LFB86:
 4977               	.LM486:
 4978               	/* prologue: function */
 4979               	/* frame size = 0 */
 4980               	.LBB950:
 4981               	.LM487:
 4982 1690 80E0      		ldi r24,lo8(0)
 4983 1692 0E94 0000 		call Timebase_UpCounter_Reset
 4984               	/* epilogue start */
 4985               	.LBE950:
 4986               	.LM488:
 4987 1696 0895      		ret
 4988               	.LFE86:
 4990               	.global	Timebase_DownCounter_SS_Get_Status
 4992               	Timebase_DownCounter_SS_Get_Status:
 4993               	.LFB87:
 4994               	.LM489:
 4995               	.LVL304:
 4996               	/* prologue: function */
 4997               	/* frame size = 0 */
 4998               	.LM490:
 4999 1698 E091 0000 		lds r30,Timebase
 5000 169c F091 0000 		lds r31,(Timebase)+1
 5001 16a0 90E0      		ldi r25,lo8(0)
 5002               	.LVL305:
 5003 16a2 9C01      		movw r18,r24
 5004 16a4 44E0      		ldi r20,4
 5005 16a6 220F      	1:	lsl r18
 5006 16a8 331F      		rol r19
 5007 16aa 4A95      		dec r20
 5008 16ac 01F4      		brne 1b
 5009 16ae 280F      		add r18,r24
 5010 16b0 391F      		adc r19,r25
 5011 16b2 E20F      		add r30,r18
 5012 16b4 F31F      		adc r31,r19
 5013 16b6 E35B      		subi r30,lo8(-(77))
 5014 16b8 FF4F      		sbci r31,hi8(-(77))
 5015 16ba 8081      		ld r24,Z
 5016               	.LVL306:
 5017 16bc 8695      		lsr r24
 5018               	.LM491:
 5019 16be 8F70      		andi r24,lo8(15)
 5020               	/* epilogue start */
 5021 16c0 0895      		ret
 5022               	.LFE87:
 5024               	.global	Timebase_DownCounter_SS_Set_Status
 5026               	Timebase_DownCounter_SS_Set_Status:
 5027               	.LFB88:
 5028               	.LM492:
 5029               	.LVL307:
 5030               	/* prologue: function */
 5031               	/* frame size = 0 */
 5032               	.LM493:
 5033 16c2 E091 0000 		lds r30,Timebase
 5034 16c6 F091 0000 		lds r31,(Timebase)+1
 5035 16ca 90E0      		ldi r25,lo8(0)
 5036               	.LVL308:
 5037 16cc 9C01      		movw r18,r24
 5038 16ce 54E0      		ldi r21,4
 5039 16d0 220F      	1:	lsl r18
 5040 16d2 331F      		rol r19
 5041 16d4 5A95      		dec r21
 5042 16d6 01F4      		brne 1b
 5043 16d8 280F      		add r18,r24
 5044 16da 391F      		adc r19,r25
 5045 16dc E20F      		add r30,r18
 5046 16de F31F      		adc r31,r19
 5047 16e0 E35B      		subi r30,lo8(-(77))
 5048 16e2 FF4F      		sbci r31,hi8(-(77))
 5049 16e4 6F70      		andi r22,lo8(15)
 5050               	.LVL309:
 5051 16e6 660F      		lsl r22
 5052 16e8 8081      		ld r24,Z
 5053               	.LVL310:
 5054 16ea 817E      		andi r24,lo8(-31)
 5055 16ec 862B      		or r24,r22
 5056 16ee 8083      		st Z,r24
 5057               	/* epilogue start */
 5058               	.LM494:
 5059 16f0 0895      		ret
 5060               	.LFE88:
 5062               	.global	Timebase_DownCounter_SS_Get_Value
 5064               	Timebase_DownCounter_SS_Get_Value:
 5065               	.LFB89:
 5066               	.LM495:
 5067               	.LVL311:
 5068               	/* prologue: function */
 5069               	/* frame size = 0 */
 5070               	.LM496:
 5071 16f2 E091 0000 		lds r30,Timebase
 5072 16f6 F091 0000 		lds r31,(Timebase)+1
 5073 16fa 90E0      		ldi r25,lo8(0)
 5074               	.LVL312:
 5075 16fc 9C01      		movw r18,r24
 5076 16fe 64E0      		ldi r22,4
 5077 1700 220F      	1:	lsl r18
 5078 1702 331F      		rol r19
 5079 1704 6A95      		dec r22
 5080 1706 01F4      		brne 1b
 5081 1708 280F      		add r18,r24
 5082 170a 391F      		adc r19,r25
 5083 170c E20F      		add r30,r18
 5084 170e F31F      		adc r31,r19
 5085 1710 EA5A      		subi r30,lo8(-(86))
 5086 1712 FF4F      		sbci r31,hi8(-(86))
 5087 1714 6081      		ld r22,Z
 5088 1716 7181      		ldd r23,Z+1
 5089               	.LM497:
 5090 1718 8281      		ldd r24,Z+2
 5091               	.LVL313:
 5092 171a 9381      		ldd r25,Z+3
 5093               	.LVL314:
 5094               	/* epilogue start */
 5095 171c 0895      		ret
 5096               	.LFE89:
 5098               	.global	Timebase_DownCounter_SS_Set_Value
 5100               	Timebase_DownCounter_SS_Set_Value:
 5101               	.LFB90:
 5102               	.LM498:
 5103               	.LVL315:
 5104               	/* prologue: function */
 5105               	/* frame size = 0 */
 5106               	.LM499:
 5107 171e E091 0000 		lds r30,Timebase
 5108 1722 F091 0000 		lds r31,(Timebase)+1
 5109 1726 90E0      		ldi r25,lo8(0)
 5110               	.LVL316:
 5111 1728 9C01      		movw r18,r24
 5112 172a A4E0      		ldi r26,4
 5113 172c 220F      	1:	lsl r18
 5114 172e 331F      		rol r19
 5115 1730 AA95      		dec r26
 5116 1732 01F4      		brne 1b
 5117 1734 280F      		add r18,r24
 5118 1736 391F      		adc r19,r25
 5119 1738 E20F      		add r30,r18
 5120 173a F31F      		adc r31,r19
 5121 173c EA5A      		subi r30,lo8(-(86))
 5122 173e FF4F      		sbci r31,hi8(-(86))
 5123 1740 4083      		st Z,r20
 5124 1742 5183      		std Z+1,r21
 5125 1744 6283      		std Z+2,r22
 5126 1746 7383      		std Z+3,r23
 5127               	/* epilogue start */
 5128               	.LM500:
 5129 1748 0895      		ret
 5130               	.LFE90:
 5132               	.global	Timebase_DownCounter_SS_Get_EndValueSec
 5134               	Timebase_DownCounter_SS_Get_EndValueSec:
 5135               	.LFB91:
 5136               	.LM501:
 5137               	.LVL317:
 5138               	/* prologue: function */
 5139               	/* frame size = 0 */
 5140               	.LM502:
 5141 174a E091 0000 		lds r30,Timebase
 5142 174e F091 0000 		lds r31,(Timebase)+1
 5143 1752 90E0      		ldi r25,lo8(0)
 5144               	.LVL318:
 5145 1754 9C01      		movw r18,r24
 5146 1756 B4E0      		ldi r27,4
 5147 1758 220F      	1:	lsl r18
 5148 175a 331F      		rol r19
 5149 175c BA95      		dec r27
 5150 175e 01F4      		brne 1b
 5151 1760 280F      		add r18,r24
 5152 1762 391F      		adc r19,r25
 5153 1764 E20F      		add r30,r18
 5154 1766 F31F      		adc r31,r19
 5155 1768 E25B      		subi r30,lo8(-(78))
 5156 176a FF4F      		sbci r31,hi8(-(78))
 5157 176c 6081      		ld r22,Z
 5158 176e 7181      		ldd r23,Z+1
 5159               	.LM503:
 5160 1770 8281      		ldd r24,Z+2
 5161               	.LVL319:
 5162 1772 9381      		ldd r25,Z+3
 5163               	.LVL320:
 5164               	/* epilogue start */
 5165 1774 0895      		ret
 5166               	.LFE91:
 5168               	.global	Timebase_DownCounter_SS_Get_EndValueSubSec
 5170               	Timebase_DownCounter_SS_Get_EndValueSubSec:
 5171               	.LFB92:
 5172               	.LM504:
 5173               	.LVL321:
 5174               	/* prologue: function */
 5175               	/* frame size = 0 */
 5176               	.LM505:
 5177 1776 E091 0000 		lds r30,Timebase
 5178 177a F091 0000 		lds r31,(Timebase)+1
 5179 177e 90E0      		ldi r25,lo8(0)
 5180               	.LVL322:
 5181 1780 9C01      		movw r18,r24
 5182 1782 44E0      		ldi r20,4
 5183 1784 220F      	1:	lsl r18
 5184 1786 331F      		rol r19
 5185 1788 4A95      		dec r20
 5186 178a 01F4      		brne 1b
 5187 178c 280F      		add r18,r24
 5188 178e 391F      		adc r19,r25
 5189 1790 E20F      		add r30,r18
 5190 1792 F31F      		adc r31,r19
 5191 1794 EE5A      		subi r30,lo8(-(82))
 5192 1796 FF4F      		sbci r31,hi8(-(82))
 5193 1798 6081      		ld r22,Z
 5194 179a 7181      		ldd r23,Z+1
 5195               	.LM506:
 5196 179c 8281      		ldd r24,Z+2
 5197               	.LVL323:
 5198 179e 9381      		ldd r25,Z+3
 5199               	.LVL324:
 5200               	/* epilogue start */
 5201 17a0 0895      		ret
 5202               	.LFE92:
 5204               	.global	Timebase_DownCounter_SS_Set_EndValueSec
 5206               	Timebase_DownCounter_SS_Set_EndValueSec:
 5207               	.LFB93:
 5208               	.LM507:
 5209               	.LVL325:
 5210               	/* prologue: function */
 5211               	/* frame size = 0 */
 5212               	.LM508:
 5213 17a2 E091 0000 		lds r30,Timebase
 5214 17a6 F091 0000 		lds r31,(Timebase)+1
 5215 17aa 90E0      		ldi r25,lo8(0)
 5216               	.LVL326:
 5217 17ac 9C01      		movw r18,r24
 5218 17ae A4E0      		ldi r26,4
 5219 17b0 220F      	1:	lsl r18
 5220 17b2 331F      		rol r19
 5221 17b4 AA95      		dec r26
 5222 17b6 01F4      		brne 1b
 5223 17b8 280F      		add r18,r24
 5224 17ba 391F      		adc r19,r25
 5225 17bc E20F      		add r30,r18
 5226 17be F31F      		adc r31,r19
 5227 17c0 E25B      		subi r30,lo8(-(78))
 5228 17c2 FF4F      		sbci r31,hi8(-(78))
 5229 17c4 4083      		st Z,r20
 5230 17c6 5183      		std Z+1,r21
 5231 17c8 6283      		std Z+2,r22
 5232 17ca 7383      		std Z+3,r23
 5233               	/* epilogue start */
 5234               	.LM509:
 5235 17cc 0895      		ret
 5236               	.LFE93:
 5238               	.global	Timebase_DownCounter_SS_Set_EndValueSubSec
 5240               	Timebase_DownCounter_SS_Set_EndValueSubSec:
 5241               	.LFB94:
 5242               	.LM510:
 5243               	.LVL327:
 5244               	/* prologue: function */
 5245               	/* frame size = 0 */
 5246               	.LM511:
 5247 17ce E091 0000 		lds r30,Timebase
 5248 17d2 F091 0000 		lds r31,(Timebase)+1
 5249 17d6 90E0      		ldi r25,lo8(0)
 5250               	.LVL328:
 5251 17d8 9C01      		movw r18,r24
 5252 17da B4E0      		ldi r27,4
 5253 17dc 220F      	1:	lsl r18
 5254 17de 331F      		rol r19
 5255 17e0 BA95      		dec r27
 5256 17e2 01F4      		brne 1b
 5257 17e4 280F      		add r18,r24
 5258 17e6 391F      		adc r19,r25
 5259 17e8 E20F      		add r30,r18
 5260 17ea F31F      		adc r31,r19
 5261 17ec EE5A      		subi r30,lo8(-(82))
 5262 17ee FF4F      		sbci r31,hi8(-(82))
 5263 17f0 4083      		st Z,r20
 5264 17f2 5183      		std Z+1,r21
 5265 17f4 6283      		std Z+2,r22
 5266 17f6 7383      		std Z+3,r23
 5267               	/* epilogue start */
 5268               	.LM512:
 5269 17f8 0895      		ret
 5270               	.LFE94:
 5272               	.global	Timebase_DownCounter_SS_Get_PeriodValue
 5274               	Timebase_DownCounter_SS_Get_PeriodValue:
 5275               	.LFB95:
 5276               	.LM513:
 5277               	.LVL329:
 5278               	/* prologue: function */
 5279               	/* frame size = 0 */
 5280               	.LM514:
 5281 17fa E091 0000 		lds r30,Timebase
 5282 17fe F091 0000 		lds r31,(Timebase)+1
 5283 1802 90E0      		ldi r25,lo8(0)
 5284               	.LVL330:
 5285 1804 9C01      		movw r18,r24
 5286 1806 44E0      		ldi r20,4
 5287 1808 220F      	1:	lsl r18
 5288 180a 331F      		rol r19
 5289 180c 4A95      		dec r20
 5290 180e 01F4      		brne 1b
 5291 1810 280F      		add r18,r24
 5292 1812 391F      		adc r19,r25
 5293 1814 E20F      		add r30,r18
 5294 1816 F31F      		adc r31,r19
 5295 1818 E65A      		subi r30,lo8(-(90))
 5296 181a FF4F      		sbci r31,hi8(-(90))
 5297 181c 6081      		ld r22,Z
 5298 181e 7181      		ldd r23,Z+1
 5299               	.LM515:
 5300 1820 8281      		ldd r24,Z+2
 5301               	.LVL331:
 5302 1822 9381      		ldd r25,Z+3
 5303               	.LVL332:
 5304               	/* epilogue start */
 5305 1824 0895      		ret
 5306               	.LFE95:
 5308               	.global	Timebase_DownCounter_SS_Set_PeriodValue
 5310               	Timebase_DownCounter_SS_Set_PeriodValue:
 5311               	.LFB96:
 5312               	.LM516:
 5313               	.LVL333:
 5314               	/* prologue: function */
 5315               	/* frame size = 0 */
 5316 1826 E091 0000 		lds r30,Timebase
 5317 182a F091 0000 		lds r31,(Timebase)+1
 5318 182e 282F      		mov r18,r24
 5319 1830 30E0      		ldi r19,lo8(0)
 5320               	.LVL334:
 5321               	.LM517:
 5322 1832 77FF      		sbrs r23,7
 5323 1834 00C0      		rjmp .L246
 5324               	.LVL335:
 5325               	.LM518:
 5326 1836 C901      		movw r24,r18
 5327 1838 B4E0      		ldi r27,4
 5328 183a 880F      	1:	lsl r24
 5329 183c 991F      		rol r25
 5330 183e BA95      		dec r27
 5331 1840 01F4      		brne 1b
 5332 1842 820F      		add r24,r18
 5333 1844 931F      		adc r25,r19
 5334 1846 E80F      		add r30,r24
 5335 1848 F91F      		adc r31,r25
 5336 184a E65A      		subi r30,lo8(-(90))
 5337 184c FF4F      		sbci r31,hi8(-(90))
 5338 184e 1082      		st Z,__zero_reg__
 5339 1850 1182      		std Z+1,__zero_reg__
 5340 1852 1282      		std Z+2,__zero_reg__
 5341 1854 1382      		std Z+3,__zero_reg__
 5342 1856 0895      		ret
 5343               	.LVL336:
 5344               	.L246:
 5345               	.LM519:
 5346 1858 C901      		movw r24,r18
 5347 185a A4E0      		ldi r26,4
 5348 185c 880F      	1:	lsl r24
 5349 185e 991F      		rol r25
 5350 1860 AA95      		dec r26
 5351 1862 01F4      		brne 1b
 5352 1864 820F      		add r24,r18
 5353 1866 931F      		adc r25,r19
 5354 1868 E80F      		add r30,r24
 5355 186a F91F      		adc r31,r25
 5356 186c E65A      		subi r30,lo8(-(90))
 5357 186e FF4F      		sbci r31,hi8(-(90))
 5358 1870 4083      		st Z,r20
 5359 1872 5183      		std Z+1,r21
 5360 1874 6283      		std Z+2,r22
 5361 1876 7383      		std Z+3,r23
 5362 1878 0895      		ret
 5363               	.LFE96:
 5365               	.global	Timebase_DownCounter_SS_Get_Period_Flag
 5367               	Timebase_DownCounter_SS_Get_Period_Flag:
 5368               	.LFB97:
 5369               	.LM520:
 5370               	.LVL337:
 5371               	/* prologue: function */
 5372               	/* frame size = 0 */
 5373               	.LM521:
 5374 187a E091 0000 		lds r30,Timebase
 5375 187e F091 0000 		lds r31,(Timebase)+1
 5376 1882 90E0      		ldi r25,lo8(0)
 5377               	.LVL338:
 5378 1884 9C01      		movw r18,r24
 5379 1886 44E0      		ldi r20,4
 5380 1888 220F      	1:	lsl r18
 5381 188a 331F      		rol r19
 5382 188c 4A95      		dec r20
 5383 188e 01F4      		brne 1b
 5384 1890 280F      		add r18,r24
 5385 1892 391F      		adc r19,r25
 5386 1894 E20F      		add r30,r18
 5387 1896 F31F      		adc r31,r19
 5388 1898 E35B      		subi r30,lo8(-(77))
 5389 189a FF4F      		sbci r31,hi8(-(77))
 5390 189c 8081      		ld r24,Z
 5391               	.LVL339:
 5392               	.LM522:
 5393 189e 8170      		andi r24,lo8(1)
 5394               	/* epilogue start */
 5395 18a0 0895      		ret
 5396               	.LFE97:
 5398               	.global	Timebase_DownCounter_SS_Set_Period_Flag
 5400               	Timebase_DownCounter_SS_Set_Period_Flag:
 5401               	.LFB98:
 5402               	.LM523:
 5403               	.LVL340:
 5404               	/* prologue: function */
 5405               	/* frame size = 0 */
 5406               	.LM524:
 5407 18a2 E091 0000 		lds r30,Timebase
 5408 18a6 F091 0000 		lds r31,(Timebase)+1
 5409 18aa 90E0      		ldi r25,lo8(0)
 5410               	.LVL341:
 5411 18ac 9C01      		movw r18,r24
 5412 18ae 54E0      		ldi r21,4
 5413 18b0 220F      	1:	lsl r18
 5414 18b2 331F      		rol r19
 5415 18b4 5A95      		dec r21
 5416 18b6 01F4      		brne 1b
 5417 18b8 280F      		add r18,r24
 5418 18ba 391F      		adc r19,r25
 5419 18bc E20F      		add r30,r18
 5420 18be F31F      		adc r31,r19
 5421 18c0 E35B      		subi r30,lo8(-(77))
 5422 18c2 FF4F      		sbci r31,hi8(-(77))
 5423 18c4 8081      		ld r24,Z
 5424               	.LVL342:
 5425 18c6 8160      		ori r24,lo8(1)
 5426 18c8 8083      		st Z,r24
 5427               	/* epilogue start */
 5428               	.LM525:
 5429 18ca 0895      		ret
 5430               	.LFE98:
 5432               	.global	Timebase_DownCounter_SS_Clear_Period_Flag
 5434               	Timebase_DownCounter_SS_Clear_Period_Flag:
 5435               	.LFB99:
 5436               	.LM526:
 5437               	.LVL343:
 5438               	/* prologue: function */
 5439               	/* frame size = 0 */
 5440               	.LM527:
 5441 18cc E091 0000 		lds r30,Timebase
 5442 18d0 F091 0000 		lds r31,(Timebase)+1
 5443 18d4 90E0      		ldi r25,lo8(0)
 5444               	.LVL344:
 5445 18d6 9C01      		movw r18,r24
 5446 18d8 64E0      		ldi r22,4
 5447 18da 220F      	1:	lsl r18
 5448 18dc 331F      		rol r19
 5449 18de 6A95      		dec r22
 5450 18e0 01F4      		brne 1b
 5451 18e2 280F      		add r18,r24
 5452 18e4 391F      		adc r19,r25
 5453 18e6 E20F      		add r30,r18
 5454 18e8 F31F      		adc r31,r19
 5455 18ea E35B      		subi r30,lo8(-(77))
 5456 18ec FF4F      		sbci r31,hi8(-(77))
 5457 18ee 8081      		ld r24,Z
 5458               	.LVL345:
 5459 18f0 8E7F      		andi r24,lo8(-2)
 5460 18f2 8083      		st Z,r24
 5461               	/* epilogue start */
 5462               	.LM528:
 5463 18f4 0895      		ret
 5464               	.LFE99:
 5466               	.global	Timebase_DownCounter_SS_Reset
 5468               	Timebase_DownCounter_SS_Reset:
 5469               	.LFB100:
 5470               	.LM529:
 5471               	.LVL346:
 5472               	/* prologue: function */
 5473               	/* frame size = 0 */
 5474               	.LBB951:
 5475               	.LBB952:
 5476               	.LM530:
 5477 18f6 E091 0000 		lds r30,Timebase
 5478 18fa F091 0000 		lds r31,(Timebase)+1
 5479 18fe 90E0      		ldi r25,lo8(0)
 5480 1900 9C01      		movw r18,r24
 5481               	.LVL347:
 5482 1902 74E0      		ldi r23,4
 5483 1904 220F      	1:	lsl r18
 5484 1906 331F      		rol r19
 5485 1908 7A95      		dec r23
 5486 190a 01F4      		brne 1b
 5487 190c 280F      		add r18,r24
 5488 190e 391F      		adc r19,r25
 5489 1910 E20F      		add r30,r18
 5490 1912 F31F      		adc r31,r19
 5491 1914 EE5A      		subi r30,lo8(-(82))
 5492 1916 FF4F      		sbci r31,hi8(-(82))
 5493 1918 1082      		st Z,__zero_reg__
 5494 191a 1182      		std Z+1,__zero_reg__
 5495 191c 1282      		std Z+2,__zero_reg__
 5496 191e 1382      		std Z+3,__zero_reg__
 5497               	.LBE952:
 5498               	.LBE951:
 5499               	.LBB953:
 5500               	.LBB954:
 5501               	.LM531:
 5502 1920 1292      		st -Z,__zero_reg__
 5503 1922 1292      		st -Z,__zero_reg__
 5504 1924 1292      		st -Z,__zero_reg__
 5505 1926 1292      		st -Z,__zero_reg__
 5506               	.LBE954:
 5507               	.LBE953:
 5508               	.LBB955:
 5509               	.LBB956:
 5510               	.LM532:
 5511 1928 3896      		adiw r30,8
 5512 192a 1082      		st Z,__zero_reg__
 5513 192c 1182      		std Z+1,__zero_reg__
 5514 192e 1282      		std Z+2,__zero_reg__
 5515 1930 1382      		std Z+3,__zero_reg__
 5516               	.LBE956:
 5517               	.LBE955:
 5518               	.LBB957:
 5519               	.LBB958:
 5520               	.LM533:
 5521 1932 3997      		sbiw r30,9
 5522 1934 8081      		ld r24,Z
 5523               	.LBE958:
 5524               	.LBE957:
 5525               	.LBB959:
 5526               	.LBB960:
 5527               	.LM534:
 5528 1936 807E      		andi r24,lo8(-32)
 5529 1938 8083      		st Z,r24
 5530               	/* epilogue start */
 5531               	.LBE960:
 5532               	.LBE959:
 5533               	.LM535:
 5534 193a 0895      		ret
 5535               	.LFE100:
 5537               	.global	Timebase_DownCounter_SS_Clear_All_Flags
 5539               	Timebase_DownCounter_SS_Clear_All_Flags:
 5540               	.LFB101:
 5541               	.LM536:
 5542               	.LVL348:
 5543               	/* prologue: function */
 5544               	/* frame size = 0 */
 5545               	.LBB961:
 5546               	.LBB962:
 5547               	.LBB963:
 5548               	.LBB964:
 5549               	.LM537:
 5550 193c E091 0000 		lds r30,Timebase
 5551 1940 F091 0000 		lds r31,(Timebase)+1
 5552 1944 90E0      		ldi r25,lo8(0)
 5553 1946 9C01      		movw r18,r24
 5554               	.LVL349:
 5555 1948 A4E0      		ldi r26,4
 5556 194a 220F      	1:	lsl r18
 5557 194c 331F      		rol r19
 5558 194e AA95      		dec r26
 5559 1950 01F4      		brne 1b
 5560 1952 280F      		add r18,r24
 5561 1954 391F      		adc r19,r25
 5562 1956 E20F      		add r30,r18
 5563 1958 F31F      		adc r31,r19
 5564 195a EE5A      		subi r30,lo8(-(82))
 5565 195c FF4F      		sbci r31,hi8(-(82))
 5566 195e 1082      		st Z,__zero_reg__
 5567 1960 1182      		std Z+1,__zero_reg__
 5568 1962 1282      		std Z+2,__zero_reg__
 5569 1964 1382      		std Z+3,__zero_reg__
 5570               	.LBE964:
 5571               	.LBE963:
 5572               	.LBB965:
 5573               	.LBB966:
 5574               	.LM538:
 5575 1966 1292      		st -Z,__zero_reg__
 5576 1968 1292      		st -Z,__zero_reg__
 5577 196a 1292      		st -Z,__zero_reg__
 5578 196c 1292      		st -Z,__zero_reg__
 5579               	.LBE966:
 5580               	.LBE965:
 5581               	.LBB967:
 5582               	.LBB968:
 5583               	.LM539:
 5584 196e 3896      		adiw r30,8
 5585 1970 1082      		st Z,__zero_reg__
 5586 1972 1182      		std Z+1,__zero_reg__
 5587 1974 1282      		std Z+2,__zero_reg__
 5588 1976 1382      		std Z+3,__zero_reg__
 5589               	.LBE968:
 5590               	.LBE967:
 5591               	.LBB969:
 5592               	.LBB970:
 5593               	.LM540:
 5594 1978 3997      		sbiw r30,9
 5595 197a 8081      		ld r24,Z
 5596               	.LBE970:
 5597               	.LBE969:
 5598               	.LBB971:
 5599               	.LBB972:
 5600               	.LM541:
 5601 197c 807E      		andi r24,lo8(-32)
 5602 197e 8083      		st Z,r24
 5603               	/* epilogue start */
 5604               	.LBE972:
 5605               	.LBE971:
 5606               	.LBE962:
 5607               	.LBE961:
 5608               	.LM542:
 5609 1980 0895      		ret
 5610               	.LFE101:
 5612               	.global	Timebase_DownCounter_SS_Start
 5614               	Timebase_DownCounter_SS_Start:
 5615               	.LFB102:
 5616               	.LM543:
 5617               	.LVL350:
 5618               	/* prologue: function */
 5619               	/* frame size = 0 */
 5620               	.LBB973:
 5621               	.LBB974:
 5622               	.LM544:
 5623 1982 E091 0000 		lds r30,Timebase
 5624 1986 F091 0000 		lds r31,(Timebase)+1
 5625 198a 90E0      		ldi r25,lo8(0)
 5626               	.LBE974:
 5627               	.LBE973:
 5628               	.LM545:
 5629 198c 9C01      		movw r18,r24
 5630               	.LVL351:
 5631 198e B4E0      		ldi r27,4
 5632 1990 220F      	1:	lsl r18
 5633 1992 331F      		rol r19
 5634 1994 BA95      		dec r27
 5635 1996 01F4      		brne 1b
 5636 1998 280F      		add r18,r24
 5637 199a 391F      		adc r19,r25
 5638 199c E20F      		add r30,r18
 5639 199e F31F      		adc r31,r19
 5640 19a0 E35B      		subi r30,lo8(-(77))
 5641 19a2 FF4F      		sbci r31,hi8(-(77))
 5642 19a4 9081      		ld r25,Z
 5643 19a6 892F      		mov r24,r25
 5644 19a8 8695      		lsr r24
 5645 19aa 8F70      		andi r24,lo8(15)
 5646 19ac 8130      		cpi r24,lo8(1)
 5647 19ae 01F0      		breq .L261
 5648               	.LBB975:
 5649               	.LBB976:
 5650               	.LM546:
 5651 19b0 917E      		andi r25,lo8(-31)
 5652 19b2 9260      		ori r25,lo8(2)
 5653 19b4 9083      		st Z,r25
 5654               	.L261:
 5655 19b6 0895      		ret
 5656               	.LBE976:
 5657               	.LBE975:
 5658               	.LFE102:
 5660               	.global	Timebase_DownCounter_SS_Stop
 5662               	Timebase_DownCounter_SS_Stop:
 5663               	.LFB103:
 5664               	.LM547:
 5665               	.LVL352:
 5666               	/* prologue: function */
 5667               	/* frame size = 0 */
 5668               	.LBB977:
 5669               	.LBB978:
 5670               	.LM548:
 5671 19b8 E091 0000 		lds r30,Timebase
 5672 19bc F091 0000 		lds r31,(Timebase)+1
 5673 19c0 90E0      		ldi r25,lo8(0)
 5674               	.LBE978:
 5675               	.LBE977:
 5676               	.LM549:
 5677 19c2 9C01      		movw r18,r24
 5678               	.LVL353:
 5679 19c4 44E0      		ldi r20,4
 5680 19c6 220F      	1:	lsl r18
 5681 19c8 331F      		rol r19
 5682 19ca 4A95      		dec r20
 5683 19cc 01F4      		brne 1b
 5684 19ce 280F      		add r18,r24
 5685 19d0 391F      		adc r19,r25
 5686 19d2 E20F      		add r30,r18
 5687 19d4 F31F      		adc r31,r19
 5688 19d6 E35B      		subi r30,lo8(-(77))
 5689 19d8 FF4F      		sbci r31,hi8(-(77))
 5690 19da 9081      		ld r25,Z
 5691 19dc 892F      		mov r24,r25
 5692 19de 8695      		lsr r24
 5693 19e0 8F70      		andi r24,lo8(15)
 5694 19e2 8230      		cpi r24,lo8(2)
 5695 19e4 01F0      		breq .L264
 5696               	.LBB979:
 5697               	.LBB980:
 5698               	.LM550:
 5699 19e6 917E      		andi r25,lo8(-31)
 5700 19e8 9460      		ori r25,lo8(4)
 5701 19ea 9083      		st Z,r25
 5702               	.L264:
 5703 19ec 0895      		ret
 5704               	.LBE980:
 5705               	.LBE979:
 5706               	.LFE103:
 5708               	.global	Timebase_DownCounter_SS_Set_Securely
 5710               	Timebase_DownCounter_SS_Set_Securely:
 5711               	.LFB104:
 5712               	.LM551:
 5713               	.LVL354:
 5714 19ee 2F92      		push r2
 5715 19f0 3F92      		push r3
 5716 19f2 4F92      		push r4
 5717 19f4 5F92      		push r5
 5718 19f6 6F92      		push r6
 5719 19f8 7F92      		push r7
 5720 19fa 8F92      		push r8
 5721 19fc 9F92      		push r9
 5722 19fe AF92      		push r10
 5723 1a00 BF92      		push r11
 5724 1a02 CF92      		push r12
 5725 1a04 DF92      		push r13
 5726 1a06 EF92      		push r14
 5727 1a08 FF92      		push r15
 5728 1a0a 0F93      		push r16
 5729 1a0c 1F93      		push r17
 5730 1a0e DF93      		push r29
 5731 1a10 CF93      		push r28
 5732 1a12 00D0      		rcall .
 5733 1a14 00D0      		rcall .
 5734 1a16 CDB7      		in r28,__SP_L__
 5735 1a18 DEB7      		in r29,__SP_H__
 5736               	/* prologue: function */
 5737               	/* frame size = 4 */
 5738 1a1a 4A01      		movw r8,r20
 5739 1a1c 5B01      		movw r10,r22
 5740               	.LBB981:
 5741               	.LBB982:
 5742               	.LM552:
 5743 1a1e 2091 0000 		lds r18,Timebase
 5744 1a22 3091 0000 		lds r19,(Timebase)+1
 5745 1a26 3C83      		std Y+4,r19
 5746 1a28 2B83      		std Y+3,r18
 5747 1a2a A82F      		mov r26,r24
 5748 1a2c B0E0      		ldi r27,lo8(0)
 5749 1a2e BA83      		std Y+2,r27
 5750 1a30 A983      		std Y+1,r26
 5751               	.LBE982:
 5752               	.LBE981:
 5753               	.LM553:
 5754 1a32 FD01      		movw r30,r26
 5755 1a34 64E0      		ldi r22,4
 5756 1a36 EE0F      	1:	lsl r30
 5757 1a38 FF1F      		rol r31
 5758 1a3a 6A95      		dec r22
 5759 1a3c 01F4      		brne 1b
 5760 1a3e EA0F      		add r30,r26
 5761 1a40 FB1F      		adc r31,r27
 5762 1a42 E20F      		add r30,r18
 5763 1a44 F31F      		adc r31,r19
 5764 1a46 E35B      		subi r30,lo8(-(77))
 5765 1a48 FF4F      		sbci r31,hi8(-(77))
 5766 1a4a 8081      		ld r24,Z
 5767               	.LVL355:
 5768 1a4c ED54      		subi r30,lo8(-(-77))
 5769 1a4e F040      		sbci r31,hi8(-(-77))
 5770 1a50 8695      		lsr r24
 5771 1a52 8F70      		andi r24,lo8(15)
 5772 1a54 01F0      		breq .+2
 5773 1a56 00C0      		rjmp .L268
 5774               	.LVL356:
 5775               	.LBB983:
 5776               	.LBB984:
 5777               	.LBB985:
 5778               	.LM554:
 5779 1a58 EA5A      		subi r30,lo8(-(86))
 5780 1a5a FF4F      		sbci r31,hi8(-(86))
 5781 1a5c 8082      		st Z,r8
 5782 1a5e 9182      		std Z+1,r9
 5783 1a60 A282      		std Z+2,r10
 5784 1a62 B382      		std Z+3,r11
 5785               	.LBE985:
 5786               	.LBE984:
 5787               	.LBB986:
 5788               	.LBB987:
 5789               	.LBB988:
 5790               	.LBB989:
 5791               	.LM555:
 5792               	/* #APP */
 5793               	 ;  344 "timebase.c" 1
 5794 1a64 F894      		cli
 5795               	 ;  0 "" 2
 5796               	/* #NOAPP */
 5797               	.LBE989:
 5798               	.LBE988:
 5799               	.LM556:
 5800 1a66 F901      		movw r30,r18
 5801 1a68 C084      		ldd r12,Z+8
 5802 1a6a D184      		ldd r13,Z+9
 5803               	.LVL357:
 5804               	.LBB990:
 5805               	.LBB991:
 5806               	.LM557:
 5807               	/* #APP */
 5808               	 ;  348 "timebase.c" 1
 5809 1a6c 7894      		sei
 5810               	 ;  0 "" 2
 5811               	/* #NOAPP */
 5812               	.LBE991:
 5813               	.LBE990:
 5814               	.LBE987:
 5815               	.LBE986:
 5816               	.LBB992:
 5817               	.LBB993:
 5818               	.LBB994:
 5819               	.LBB995:
 5820               	.LM558:
 5821               	/* #APP */
 5822               	 ;  344 "timebase.c" 1
 5823 1a6e F894      		cli
 5824               	 ;  0 "" 2
 5825               	/* #NOAPP */
 5826               	.LBE995:
 5827               	.LBE994:
 5828               	.LM559:
 5829 1a70 2284      		ldd r2,Z+10
 5830 1a72 3384      		ldd r3,Z+11
 5831 1a74 4484      		ldd r4,Z+12
 5832 1a76 5584      		ldd r5,Z+13
 5833               	.LVL358:
 5834               	.LBB996:
 5835               	.LBB997:
 5836               	.LM560:
 5837               	/* #APP */
 5838               	 ;  348 "timebase.c" 1
 5839 1a78 7894      		sei
 5840               	 ;  0 "" 2
 5841               	/* #NOAPP */
 5842               	.LBE997:
 5843               	.LBE996:
 5844               	.LBE993:
 5845               	.LBE992:
 5846               	.LM561:
 5847 1a7a 2181      		ldd r18,Z+1
 5848 1a7c 3281      		ldd r19,Z+2
 5849 1a7e 40E0      		ldi r20,lo8(0)
 5850 1a80 50E0      		ldi r21,hi8(0)
 5851 1a82 C501      		movw r24,r10
 5852 1a84 B401      		movw r22,r8
 5853 1a86 0E94 0000 		call __divmodsi4
 5854 1a8a 7B01      		movw r14,r22
 5855 1a8c 8C01      		movw r16,r24
 5856               	.LM562:
 5857 1a8e AB81      		ldd r26,Y+3
 5858 1a90 BC81      		ldd r27,Y+4
 5859 1a92 1196      		adiw r26,1
 5860 1a94 2D91      		ld r18,X+
 5861 1a96 3C91      		ld r19,X
 5862 1a98 1297      		sbiw r26,1+1
 5863 1a9a 40E0      		ldi r20,lo8(0)
 5864 1a9c 50E0      		ldi r21,hi8(0)
 5865 1a9e C501      		movw r24,r10
 5866 1aa0 B401      		movw r22,r8
 5867 1aa2 0E94 0000 		call __divmodsi4
 5868 1aa6 C901      		movw r24,r18
 5869 1aa8 DA01      		movw r26,r20
 5870 1aaa 3C01      		movw r6,r24
 5871 1aac 4D01      		movw r8,r26
 5872               	.LVL359:
 5873               	.LM563:
 5874 1aae 5601      		movw r10,r12
 5875               	.LVL360:
 5876 1ab0 CC24      		clr r12
 5877 1ab2 DD24      		clr r13
 5878               	.LVL361:
 5879 1ab4 AE0C      		add r10,r14
 5880 1ab6 BF1C      		adc r11,r15
 5881 1ab8 C01E      		adc r12,r16
 5882 1aba D11E      		adc r13,r17
 5883               	.LVL362:
 5884               	.LM564:
 5885 1abc EB81      		ldd r30,Y+3
 5886 1abe FC81      		ldd r31,Y+4
 5887 1ac0 8181      		ldd r24,Z+1
 5888 1ac2 9281      		ldd r25,Z+2
 5889               	.LVL363:
 5890 1ac4 A0E0      		ldi r26,lo8(0)
 5891 1ac6 B0E0      		ldi r27,hi8(0)
 5892 1ac8 A816      		cp r10,r24
 5893 1aca B906      		cpc r11,r25
 5894 1acc CA06      		cpc r12,r26
 5895 1ace DB06      		cpc r13,r27
 5896 1ad0 04F0      		brlt .L267
 5897               	.LM565:
 5898 1ad2 0894      		sec
 5899 1ad4 611C      		adc r6,__zero_reg__
 5900 1ad6 711C      		adc r7,__zero_reg__
 5901 1ad8 811C      		adc r8,__zero_reg__
 5902 1ada 911C      		adc r9,__zero_reg__
 5903               	.LM566:
 5904 1adc 2181      		ldd r18,Z+1
 5905 1ade 3281      		ldd r19,Z+2
 5906 1ae0 40E0      		ldi r20,lo8(0)
 5907 1ae2 50E0      		ldi r21,hi8(0)
 5908 1ae4 C601      		movw r24,r12
 5909 1ae6 B501      		movw r22,r10
 5910 1ae8 0E94 0000 		call __divmodsi4
 5911 1aec AC01      		movw r20,r24
 5912 1aee CB01      		movw r24,r22
 5913 1af0 DA01      		movw r26,r20
 5914 1af2 5C01      		movw r10,r24
 5915 1af4 6D01      		movw r12,r26
 5916               	.L267:
 5917               	.LBB998:
 5918               	.LBB999:
 5919               	.LM567:
 5920 1af6 E981      		ldd r30,Y+1
 5921 1af8 FA81      		ldd r31,Y+2
 5922 1afa 54E0      		ldi r21,4
 5923 1afc EE0F      	1:	lsl r30
 5924 1afe FF1F      		rol r31
 5925 1b00 5A95      		dec r21
 5926 1b02 01F4      		brne 1b
 5927 1b04 2981      		ldd r18,Y+1
 5928 1b06 3A81      		ldd r19,Y+2
 5929 1b08 E20F      		add r30,r18
 5930 1b0a F31F      		adc r31,r19
 5931 1b0c 8B81      		ldd r24,Y+3
 5932 1b0e 9C81      		ldd r25,Y+4
 5933 1b10 E80F      		add r30,r24
 5934 1b12 F91F      		adc r31,r25
 5935 1b14 E25B      		subi r30,lo8(-(78))
 5936 1b16 FF4F      		sbci r31,hi8(-(78))
 5937 1b18 260C      		add r2,r6
 5938 1b1a 371C      		adc r3,r7
 5939 1b1c 481C      		adc r4,r8
 5940 1b1e 591C      		adc r5,r9
 5941 1b20 2192      		st Z+,r2
 5942 1b22 3192      		st Z+,r3
 5943 1b24 4192      		st Z+,r4
 5944 1b26 5192      		st Z+,r5
 5945               	.LBE999:
 5946               	.LBE998:
 5947               	.LBB1000:
 5948               	.LBB1001:
 5949               	.LM568:
 5950 1b28 A082      		st Z,r10
 5951 1b2a B182      		std Z+1,r11
 5952 1b2c C282      		std Z+2,r12
 5953 1b2e D382      		std Z+3,r13
 5954               	.LBE1001:
 5955               	.LBE1000:
 5956               	.LBB1002:
 5957               	.LBB1003:
 5958               	.LM569:
 5959 1b30 3597      		sbiw r30,5
 5960 1b32 9081      		ld r25,Z
 5961 1b34 892F      		mov r24,r25
 5962 1b36 8695      		lsr r24
 5963 1b38 8F70      		andi r24,lo8(15)
 5964 1b3a 8130      		cpi r24,lo8(1)
 5965 1b3c 01F0      		breq .L268
 5966               	.LBB1004:
 5967               	.LBB1005:
 5968               	.LM570:
 5969 1b3e 917E      		andi r25,lo8(-31)
 5970 1b40 9260      		ori r25,lo8(2)
 5971 1b42 9083      		st Z,r25
 5972               	.LVL364:
 5973               	.L268:
 5974               	/* epilogue start */
 5975               	.LBE1005:
 5976               	.LBE1004:
 5977               	.LBE1003:
 5978               	.LBE1002:
 5979               	.LBE983:
 5980               	.LM571:
 5981 1b44 0F90      		pop __tmp_reg__
 5982 1b46 0F90      		pop __tmp_reg__
 5983 1b48 0F90      		pop __tmp_reg__
 5984 1b4a 0F90      		pop __tmp_reg__
 5985 1b4c CF91      		pop r28
 5986 1b4e DF91      		pop r29
 5987 1b50 1F91      		pop r17
 5988 1b52 0F91      		pop r16
 5989 1b54 FF90      		pop r15
 5990 1b56 EF90      		pop r14
 5991 1b58 DF90      		pop r13
 5992 1b5a CF90      		pop r12
 5993               	.LVL365:
 5994 1b5c BF90      		pop r11
 5995 1b5e AF90      		pop r10
 5996               	.LVL366:
 5997 1b60 9F90      		pop r9
 5998 1b62 8F90      		pop r8
 5999               	.LVL367:
 6000 1b64 7F90      		pop r7
 6001 1b66 6F90      		pop r6
 6002               	.LVL368:
 6003 1b68 5F90      		pop r5
 6004 1b6a 4F90      		pop r4
 6005 1b6c 3F90      		pop r3
 6006 1b6e 2F90      		pop r2
 6007               	.LVL369:
 6008 1b70 0895      		ret
 6009               	.LFE104:
 6011               	.global	Timebase_DownCounter_SS_Set_Forcefully
 6013               	Timebase_DownCounter_SS_Set_Forcefully:
 6014               	.LFB105:
 6015               	.LM572:
 6016               	.LVL370:
 6017               	/* prologue: function */
 6018               	/* frame size = 0 */
 6019               	.LBB1006:
 6020               	.LBB1007:
 6021               	.LBB1008:
 6022               	.LBB1009:
 6023               	.LM573:
 6024 1b72 E091 0000 		lds r30,Timebase
 6025 1b76 F091 0000 		lds r31,(Timebase)+1
 6026 1b7a A82F      		mov r26,r24
 6027 1b7c B0E0      		ldi r27,lo8(0)
 6028 1b7e 9D01      		movw r18,r26
 6029 1b80 94E0      		ldi r25,4
 6030 1b82 220F      	1:	lsl r18
 6031 1b84 331F      		rol r19
 6032 1b86 9A95      		dec r25
 6033 1b88 01F4      		brne 1b
 6034 1b8a 2A0F      		add r18,r26
 6035 1b8c 3B1F      		adc r19,r27
 6036 1b8e E20F      		add r30,r18
 6037 1b90 F31F      		adc r31,r19
 6038 1b92 EE5A      		subi r30,lo8(-(82))
 6039 1b94 FF4F      		sbci r31,hi8(-(82))
 6040 1b96 1082      		st Z,__zero_reg__
 6041 1b98 1182      		std Z+1,__zero_reg__
 6042 1b9a 1282      		std Z+2,__zero_reg__
 6043 1b9c 1382      		std Z+3,__zero_reg__
 6044               	.LBE1009:
 6045               	.LBE1008:
 6046               	.LBB1010:
 6047               	.LBB1011:
 6048               	.LM574:
 6049 1b9e 1292      		st -Z,__zero_reg__
 6050 1ba0 1292      		st -Z,__zero_reg__
 6051 1ba2 1292      		st -Z,__zero_reg__
 6052 1ba4 1292      		st -Z,__zero_reg__
 6053               	.LBE1011:
 6054               	.LBE1010:
 6055               	.LBB1012:
 6056               	.LBB1013:
 6057               	.LM575:
 6058 1ba6 3896      		adiw r30,8
 6059 1ba8 1082      		st Z,__zero_reg__
 6060 1baa 1182      		std Z+1,__zero_reg__
 6061 1bac 1282      		std Z+2,__zero_reg__
 6062 1bae 1382      		std Z+3,__zero_reg__
 6063               	.LBE1013:
 6064               	.LBE1012:
 6065               	.LBB1014:
 6066               	.LBB1015:
 6067               	.LM576:
 6068 1bb0 3997      		sbiw r30,9
 6069 1bb2 9081      		ld r25,Z
 6070               	.LBE1015:
 6071               	.LBE1014:
 6072               	.LBB1016:
 6073               	.LBB1017:
 6074               	.LM577:
 6075 1bb4 907E      		andi r25,lo8(-32)
 6076 1bb6 9083      		st Z,r25
 6077               	.LBE1017:
 6078               	.LBE1016:
 6079               	.LBE1007:
 6080               	.LBE1006:
 6081               	.LM578:
 6082 1bb8 0E94 0000 		call Timebase_DownCounter_SS_Set_Securely
 6083               	.LVL371:
 6084               	/* epilogue start */
 6085               	.LM579:
 6086 1bbc 0895      		ret
 6087               	.LFE105:
 6089               	.global	Timebase_DownCounter_SS_Update
 6091               	Timebase_DownCounter_SS_Update:
 6092               	.LFB106:
 6093               	.LM580:
 6094               	.LVL372:
 6095 1bbe 4F92      		push r4
 6096 1bc0 5F92      		push r5
 6097 1bc2 6F92      		push r6
 6098 1bc4 7F92      		push r7
 6099 1bc6 8F92      		push r8
 6100 1bc8 9F92      		push r9
 6101 1bca AF92      		push r10
 6102 1bcc BF92      		push r11
 6103 1bce CF92      		push r12
 6104 1bd0 DF92      		push r13
 6105 1bd2 EF92      		push r14
 6106 1bd4 FF92      		push r15
 6107 1bd6 0F93      		push r16
 6108 1bd8 1F93      		push r17
 6109 1bda DF93      		push r29
 6110 1bdc CF93      		push r28
 6111 1bde 00D0      		rcall .
 6112 1be0 00D0      		rcall .
 6113 1be2 CDB7      		in r28,__SP_L__
 6114 1be4 DEB7      		in r29,__SP_H__
 6115               	/* prologue: function */
 6116               	/* frame size = 4 */
 6117               	.LBB1018:
 6118               	.LBB1019:
 6119               	.LM581:
 6120 1be6 6090 0000 		lds r6,Timebase
 6121 1bea 7090 0000 		lds r7,(Timebase)+1
 6122 1bee C82E      		mov r12,r24
 6123 1bf0 DD24      		clr r13
 6124 1bf2 F601      		movw r30,r12
 6125 1bf4 54E0      		ldi r21,4
 6126 1bf6 EE0F      	1:	lsl r30
 6127 1bf8 FF1F      		rol r31
 6128 1bfa 5A95      		dec r21
 6129 1bfc 01F4      		brne 1b
 6130 1bfe EC0D      		add r30,r12
 6131 1c00 FD1D      		adc r31,r13
 6132 1c02 E60D      		add r30,r6
 6133 1c04 F71D      		adc r31,r7
 6134 1c06 E35B      		subi r30,lo8(-(77))
 6135 1c08 FF4F      		sbci r31,hi8(-(77))
 6136 1c0a E081      		ld r30,Z
 6137 1c0c E695      		lsr r30
 6138 1c0e EF70      		andi r30,lo8(15)
 6139               	.LBE1019:
 6140               	.LBE1018:
 6141               	.LM582:
 6142 1c10 E130      		cpi r30,lo8(1)
 6143 1c12 01F0      		breq .+2
 6144 1c14 00C0      		rjmp .L272
 6145               	.LBB1020:
 6146               	.LBB1021:
 6147               	.LBB1022:
 6148               	.LBB1023:
 6149               	.LBB1024:
 6150               	.LM583:
 6151               	/* #APP */
 6152               	 ;  344 "timebase.c" 1
 6153 1c16 F894      		cli
 6154               	 ;  0 "" 2
 6155               	/* #NOAPP */
 6156               	.LBE1024:
 6157               	.LBE1023:
 6158               	.LM584:
 6159 1c18 D301      		movw r26,r6
 6160 1c1a 1896      		adiw r26,8
 6161 1c1c 8D91      		ld r24,X+
 6162 1c1e 9C91      		ld r25,X
 6163 1c20 1997      		sbiw r26,8+1
 6164               	.LVL373:
 6165               	.LBB1025:
 6166               	.LBB1026:
 6167               	.LM585:
 6168               	/* #APP */
 6169               	 ;  348 "timebase.c" 1
 6170 1c22 7894      		sei
 6171               	 ;  0 "" 2
 6172               	/* #NOAPP */
 6173               	.LBE1026:
 6174               	.LBE1025:
 6175               	.LBE1022:
 6176               	.LBE1021:
 6177               	.LM586:
 6178 1c24 4C01      		movw r8,r24
 6179               	.LVL374:
 6180 1c26 AA24      		clr r10
 6181 1c28 BB24      		clr r11
 6182               	.LVL375:
 6183               	.LBB1027:
 6184               	.LBB1028:
 6185               	.LBB1029:
 6186               	.LBB1030:
 6187               	.LM587:
 6188               	/* #APP */
 6189               	 ;  344 "timebase.c" 1
 6190 1c2a F894      		cli
 6191               	 ;  0 "" 2
 6192               	/* #NOAPP */
 6193               	.LBE1030:
 6194               	.LBE1029:
 6195               	.LM588:
 6196 1c2c F301      		movw r30,r6
 6197 1c2e 8285      		ldd r24,Z+10
 6198 1c30 9385      		ldd r25,Z+11
 6199 1c32 A485      		ldd r26,Z+12
 6200 1c34 B585      		ldd r27,Z+13
 6201               	.LVL376:
 6202               	.LBB1031:
 6203               	.LBB1032:
 6204               	.LM589:
 6205               	/* #APP */
 6206               	 ;  348 "timebase.c" 1
 6207 1c36 7894      		sei
 6208               	 ;  0 "" 2
 6209               	/* #NOAPP */
 6210               	.LBE1032:
 6211               	.LBE1031:
 6212               	.LBE1028:
 6213               	.LBE1027:
 6214               	.LM590:
 6215 1c38 F601      		movw r30,r12
 6216 1c3a 44E0      		ldi r20,4
 6217 1c3c EE0F      	1:	lsl r30
 6218 1c3e FF1F      		rol r31
 6219 1c40 4A95      		dec r20
 6220 1c42 01F4      		brne 1b
 6221 1c44 EC0D      		add r30,r12
 6222 1c46 FD1D      		adc r31,r13
 6223 1c48 E60D      		add r30,r6
 6224 1c4a F71D      		adc r31,r7
 6225 1c4c E25B      		subi r30,lo8(-(78))
 6226 1c4e FF4F      		sbci r31,hi8(-(78))
 6227 1c50 E080      		ld r14,Z
 6228 1c52 F180      		ldd r15,Z+1
 6229 1c54 0281      		ldd r16,Z+2
 6230 1c56 1381      		ldd r17,Z+3
 6231               	.LVL377:
 6232 1c58 E81A      		sub r14,r24
 6233 1c5a F90A      		sbc r15,r25
 6234 1c5c 0A0B      		sbc r16,r26
 6235 1c5e 1B0B      		sbc r17,r27
 6236 1c60 17FF      		sbrs r17,7
 6237 1c62 00C0      		rjmp .L273
 6238 1c64 EE24      		clr r14
 6239 1c66 FF24      		clr r15
 6240 1c68 8701      		movw r16,r14
 6241               	.L273:
 6242               	.LM591:
 6243 1c6a D301      		movw r26,r6
 6244 1c6c 1196      		adiw r26,1
 6245 1c6e 2D91      		ld r18,X+
 6246 1c70 3C91      		ld r19,X
 6247 1c72 1297      		sbiw r26,1+1
 6248 1c74 40E0      		ldi r20,lo8(0)
 6249 1c76 50E0      		ldi r21,hi8(0)
 6250 1c78 C801      		movw r24,r16
 6251 1c7a B701      		movw r22,r14
 6252 1c7c 0E94 0000 		call __mulsi3
 6253               	.LM592:
 6254 1c80 F601      		movw r30,r12
 6255 1c82 34E0      		ldi r19,4
 6256 1c84 EE0F      	1:	lsl r30
 6257 1c86 FF1F      		rol r31
 6258 1c88 3A95      		dec r19
 6259 1c8a 01F4      		brne 1b
 6260 1c8c EC0D      		add r30,r12
 6261 1c8e FD1D      		adc r31,r13
 6262 1c90 E60D      		add r30,r6
 6263 1c92 F71D      		adc r31,r7
 6264 1c94 8F01      		movw r16,r30
 6265 1c96 0E5A      		subi r16,lo8(-(82))
 6266 1c98 1F4F      		sbci r17,hi8(-(82))
 6267 1c9a D801      		movw r26,r16
 6268 1c9c 2D91      		ld r18,X+
 6269 1c9e 3D91      		ld r19,X+
 6270 1ca0 4D91      		ld r20,X+
 6271 1ca2 5C91      		ld r21,X
 6272               	.LVL378:
 6273 1ca4 2819      		sub r18,r8
 6274 1ca6 3909      		sbc r19,r9
 6275 1ca8 4A09      		sbc r20,r10
 6276 1caa 5B09      		sbc r21,r11
 6277 1cac 260F      		add r18,r22
 6278 1cae 371F      		adc r19,r23
 6279 1cb0 481F      		adc r20,r24
 6280 1cb2 591F      		adc r21,r25
 6281               	.LBB1033:
 6282               	.LBB1034:
 6283               	.LM593:
 6284 1cb4 CF01      		movw r24,r30
 6285 1cb6 8A5A      		subi r24,lo8(-(86))
 6286 1cb8 9F4F      		sbci r25,hi8(-(86))
 6287 1cba DC01      		movw r26,r24
 6288 1cbc 2D93      		st X+,r18
 6289 1cbe 3D93      		st X+,r19
 6290 1cc0 4D93      		st X+,r20
 6291 1cc2 5C93      		st X,r21
 6292 1cc4 1397      		sbiw r26,3
 6293               	.LBE1034:
 6294               	.LBE1033:
 6295               	.LM594:
 6296 1cc6 1216      		cp __zero_reg__,r18
 6297 1cc8 1306      		cpc __zero_reg__,r19
 6298 1cca 1406      		cpc __zero_reg__,r20
 6299 1ccc 1506      		cpc __zero_reg__,r21
 6300 1cce 04F4      		brge .+2
 6301 1cd0 00C0      		rjmp .L275
 6302               	.LBB1035:
 6303               	.LBB1036:
 6304               	.LBB1037:
 6305               	.LBB1038:
 6306               	.LM595:
 6307 1cd2 D801      		movw r26,r16
 6308 1cd4 1D92      		st X+,__zero_reg__
 6309 1cd6 1D92      		st X+,__zero_reg__
 6310 1cd8 1D92      		st X+,__zero_reg__
 6311 1cda 1C92      		st X,__zero_reg__
 6312 1cdc 1397      		sbiw r26,3
 6313               	.LBE1038:
 6314               	.LBE1037:
 6315               	.LBB1039:
 6316               	.LBB1040:
 6317               	.LM596:
 6318 1cde E25B      		subi r30,lo8(-(78))
 6319 1ce0 FF4F      		sbci r31,hi8(-(78))
 6320 1ce2 1082      		st Z,__zero_reg__
 6321 1ce4 1182      		std Z+1,__zero_reg__
 6322 1ce6 1282      		std Z+2,__zero_reg__
 6323 1ce8 1382      		std Z+3,__zero_reg__
 6324               	.LBE1040:
 6325               	.LBE1039:
 6326               	.LBB1041:
 6327               	.LBB1042:
 6328               	.LM597:
 6329 1cea DC01      		movw r26,r24
 6330 1cec 1D92      		st X+,__zero_reg__
 6331 1cee 1D92      		st X+,__zero_reg__
 6332 1cf0 1D92      		st X+,__zero_reg__
 6333 1cf2 1C92      		st X,__zero_reg__
 6334 1cf4 1397      		sbiw r26,3
 6335               	.LBE1042:
 6336               	.LBE1041:
 6337               	.LBB1043:
 6338               	.LBB1044:
 6339               	.LM598:
 6340 1cf6 8291      		ld r24,-Z
 6341               	.LBE1044:
 6342               	.LBE1043:
 6343               	.LBE1036:
 6344               	.LBE1035:
 6345               	.LBB1045:
 6346               	.LBB1046:
 6347               	.LM599:
 6348 1cf8 807E      		andi r24,lo8(-32)
 6349 1cfa 8860      		ori r24,lo8(8)
 6350 1cfc 8083      		st Z,r24
 6351 1cfe 00C0      		rjmp .L275
 6352               	.LVL379:
 6353               	.L272:
 6354               	.LBE1046:
 6355               	.LBE1045:
 6356               	.LBE1020:
 6357               	.LM600:
 6358 1d00 E230      		cpi r30,lo8(2)
 6359 1d02 01F0      		breq .+2
 6360 1d04 00C0      		rjmp .L275
 6361               	.LBB1047:
 6362               	.LBB1048:
 6363               	.LBB1049:
 6364               	.LBB1050:
 6365               	.LBB1051:
 6366               	.LM601:
 6367               	/* #APP */
 6368               	 ;  344 "timebase.c" 1
 6369 1d06 F894      		cli
 6370               	 ;  0 "" 2
 6371               	/* #NOAPP */
 6372               	.LBE1051:
 6373               	.LBE1050:
 6374               	.LM602:
 6375 1d08 F301      		movw r30,r6
 6376 1d0a 4084      		ldd r4,Z+8
 6377 1d0c 5184      		ldd r5,Z+9
 6378               	.LVL380:
 6379               	.LBB1052:
 6380               	.LBB1053:
 6381               	.LM603:
 6382               	/* #APP */
 6383               	 ;  348 "timebase.c" 1
 6384 1d0e 7894      		sei
 6385               	 ;  0 "" 2
 6386               	/* #NOAPP */
 6387               	.LBE1053:
 6388               	.LBE1052:
 6389               	.LBE1049:
 6390               	.LBE1048:
 6391               	.LBB1054:
 6392               	.LBB1055:
 6393               	.LBB1056:
 6394               	.LBB1057:
 6395               	.LM604:
 6396               	/* #APP */
 6397               	 ;  344 "timebase.c" 1
 6398 1d10 F894      		cli
 6399               	 ;  0 "" 2
 6400               	/* #NOAPP */
 6401               	.LBE1057:
 6402               	.LBE1056:
 6403               	.LM605:
 6404 1d12 D301      		movw r26,r6
 6405 1d14 1A96      		adiw r26,10
 6406 1d16 8D90      		ld r8,X+
 6407 1d18 9D90      		ld r9,X+
 6408 1d1a AD90      		ld r10,X+
 6409 1d1c BC90      		ld r11,X
 6410 1d1e 1D97      		sbiw r26,10+3
 6411               	.LVL381:
 6412               	.LBB1058:
 6413               	.LBB1059:
 6414               	.LM606:
 6415               	/* #APP */
 6416               	 ;  348 "timebase.c" 1
 6417 1d20 7894      		sei
 6418               	 ;  0 "" 2
 6419               	/* #NOAPP */
 6420               	.LBE1059:
 6421               	.LBE1058:
 6422               	.LBE1055:
 6423               	.LBE1054:
 6424               	.LBB1060:
 6425               	.LBB1061:
 6426               	.LM607:
 6427 1d22 8601      		movw r16,r12
 6428 1d24 24E0      		ldi r18,4
 6429 1d26 000F      	1:	lsl r16
 6430 1d28 111F      		rol r17
 6431 1d2a 2A95      		dec r18
 6432 1d2c 01F4      		brne 1b
 6433 1d2e 0C0D      		add r16,r12
 6434 1d30 1D1D      		adc r17,r13
 6435 1d32 060D      		add r16,r6
 6436 1d34 171D      		adc r17,r7
 6437 1d36 0A5A      		subi r16,lo8(-(86))
 6438 1d38 1F4F      		sbci r17,hi8(-(86))
 6439 1d3a D801      		movw r26,r16
 6440 1d3c 8D91      		ld r24,X+
 6441 1d3e 9D91      		ld r25,X+
 6442 1d40 0D90      		ld __tmp_reg__,X+
 6443 1d42 BC91      		ld r27,X
 6444 1d44 A02D      		mov r26,__tmp_reg__
 6445               	.LVL382:
 6446 1d46 8983      		std Y+1,r24
 6447 1d48 9A83      		std Y+2,r25
 6448 1d4a AB83      		std Y+3,r26
 6449 1d4c BC83      		std Y+4,r27
 6450               	.LVL383:
 6451               	.LBE1061:
 6452               	.LBE1060:
 6453               	.LM608:
 6454 1d4e F301      		movw r30,r6
 6455 1d50 2181      		ldd r18,Z+1
 6456 1d52 3281      		ldd r19,Z+2
 6457               	.LM609:
 6458 1d54 C180      		ldd r12,Z+1
 6459 1d56 D280      		ldd r13,Z+2
 6460               	.LBB1062:
 6461               	.LBB1063:
 6462               	.LM610:
 6463 1d58 0850      		subi r16,lo8(-(-8))
 6464 1d5a 1040      		sbci r17,hi8(-(-8))
 6465 1d5c 40E0      		ldi r20,lo8(0)
 6466 1d5e 50E0      		ldi r21,hi8(0)
 6467 1d60 BC01      		movw r22,r24
 6468 1d62 CD01      		movw r24,r26
 6469 1d64 0E94 0000 		call __divmodsi4
 6470 1d68 820E      		add r8,r18
 6471 1d6a 931E      		adc r9,r19
 6472 1d6c A41E      		adc r10,r20
 6473 1d6e B51E      		adc r11,r21
 6474 1d70 D801      		movw r26,r16
 6475 1d72 8D92      		st X+,r8
 6476 1d74 9D92      		st X+,r9
 6477 1d76 AD92      		st X+,r10
 6478 1d78 BD92      		st X+,r11
 6479 1d7a 8D01      		movw r16,r26
 6480               	.LBE1063:
 6481               	.LBE1062:
 6482               	.LBB1064:
 6483               	.LBB1065:
 6484               	.LM611:
 6485 1d7c EE24      		clr r14
 6486 1d7e FF24      		clr r15
 6487 1d80 6981      		ldd r22,Y+1
 6488 1d82 7A81      		ldd r23,Y+2
 6489 1d84 8B81      		ldd r24,Y+3
 6490 1d86 9C81      		ldd r25,Y+4
 6491 1d88 A701      		movw r20,r14
 6492 1d8a 9601      		movw r18,r12
 6493 1d8c 0E94 0000 		call __divmodsi4
 6494 1d90 6624      		clr r6
 6495 1d92 7724      		clr r7
 6496               	.LVL384:
 6497 1d94 460E      		add r4,r22
 6498 1d96 571E      		adc r5,r23
 6499 1d98 681E      		adc r6,r24
 6500 1d9a 791E      		adc r7,r25
 6501               	.LVL385:
 6502 1d9c F801      		movw r30,r16
 6503 1d9e 4082      		st Z,r4
 6504 1da0 5182      		std Z+1,r5
 6505 1da2 6282      		std Z+2,r6
 6506 1da4 7382      		std Z+3,r7
 6507               	.LVL386:
 6508               	.L275:
 6509               	/* epilogue start */
 6510               	.LBE1065:
 6511               	.LBE1064:
 6512               	.LBE1047:
 6513               	.LM612:
 6514 1da6 0F90      		pop __tmp_reg__
 6515 1da8 0F90      		pop __tmp_reg__
 6516 1daa 0F90      		pop __tmp_reg__
 6517 1dac 0F90      		pop __tmp_reg__
 6518 1dae CF91      		pop r28
 6519 1db0 DF91      		pop r29
 6520 1db2 1F91      		pop r17
 6521 1db4 0F91      		pop r16
 6522 1db6 FF90      		pop r15
 6523 1db8 EF90      		pop r14
 6524 1dba DF90      		pop r13
 6525 1dbc CF90      		pop r12
 6526 1dbe BF90      		pop r11
 6527 1dc0 AF90      		pop r10
 6528               	.LVL387:
 6529 1dc2 9F90      		pop r9
 6530 1dc4 8F90      		pop r8
 6531               	.LVL388:
 6532 1dc6 7F90      		pop r7
 6533 1dc8 6F90      		pop r6
 6534               	.LVL389:
 6535 1dca 5F90      		pop r5
 6536 1dcc 4F90      		pop r4
 6537               	.LVL390:
 6538 1dce 0895      		ret
 6539               	.LFE106:
 6541               	.global	Timebase_DownCounter_SS_Expired
 6543               	Timebase_DownCounter_SS_Expired:
 6544               	.LFB107:
 6545               	.LM613:
 6546               	.LVL391:
 6547               	/* prologue: function */
 6548               	/* frame size = 0 */
 6549               	.LM614:
 6550 1dd0 40E0      		ldi r20,lo8(0)
 6551 1dd2 E091 0000 		lds r30,Timebase
 6552 1dd6 F091 0000 		lds r31,(Timebase)+1
 6553 1dda 90E0      		ldi r25,lo8(0)
 6554               	.LVL392:
 6555 1ddc 9C01      		movw r18,r24
 6556 1dde 64E0      		ldi r22,4
 6557 1de0 220F      	1:	lsl r18
 6558 1de2 331F      		rol r19
 6559 1de4 6A95      		dec r22
 6560 1de6 01F4      		brne 1b
 6561 1de8 280F      		add r18,r24
 6562 1dea 391F      		adc r19,r25
 6563 1dec E20F      		add r30,r18
 6564 1dee F31F      		adc r31,r19
 6565 1df0 E35B      		subi r30,lo8(-(77))
 6566 1df2 FF4F      		sbci r31,hi8(-(77))
 6567 1df4 8081      		ld r24,Z
 6568               	.LVL393:
 6569 1df6 8695      		lsr r24
 6570 1df8 8F70      		andi r24,lo8(15)
 6571 1dfa 8430      		cpi r24,lo8(4)
 6572 1dfc 01F4      		brne .L277
 6573 1dfe 41E0      		ldi r20,lo8(1)
 6574               	.L277:
 6575               	.LM615:
 6576 1e00 842F      		mov r24,r20
 6577               	/* epilogue start */
 6578 1e02 0895      		ret
 6579               	.LFE107:
 6581               	.global	Timebase_DownCounter_SS_Expired_Event
 6583               	Timebase_DownCounter_SS_Expired_Event:
 6584               	.LFB108:
 6585               	.LM616:
 6586               	.LVL394:
 6587               	/* prologue: function */
 6588               	/* frame size = 0 */
 6589               	.LBB1066:
 6590               	.LBB1067:
 6591               	.LM617:
 6592 1e04 E091 0000 		lds r30,Timebase
 6593 1e08 F091 0000 		lds r31,(Timebase)+1
 6594 1e0c 90E0      		ldi r25,lo8(0)
 6595               	.LBE1067:
 6596               	.LBE1066:
 6597               	.LM618:
 6598 1e0e 9C01      		movw r18,r24
 6599               	.LVL395:
 6600 1e10 74E0      		ldi r23,4
 6601 1e12 220F      	1:	lsl r18
 6602 1e14 331F      		rol r19
 6603 1e16 7A95      		dec r23
 6604 1e18 01F4      		brne 1b
 6605 1e1a 280F      		add r18,r24
 6606 1e1c 391F      		adc r19,r25
 6607 1e1e E20F      		add r30,r18
 6608 1e20 F31F      		adc r31,r19
 6609 1e22 DF01      		movw r26,r30
 6610 1e24 A35B      		subi r26,lo8(-(77))
 6611 1e26 BF4F      		sbci r27,hi8(-(77))
 6612 1e28 8C91      		ld r24,X
 6613 1e2a 8695      		lsr r24
 6614 1e2c 8F70      		andi r24,lo8(15)
 6615 1e2e 8430      		cpi r24,lo8(4)
 6616 1e30 01F0      		breq .L280
 6617 1e32 80E0      		ldi r24,lo8(0)
 6618 1e34 0895      		ret
 6619               	.L280:
 6620               	.LBB1068:
 6621               	.LBB1069:
 6622               	.LBB1070:
 6623               	.LBB1071:
 6624               	.LBB1072:
 6625               	.LBB1073:
 6626               	.LM619:
 6627 1e36 EE5A      		subi r30,lo8(-(82))
 6628 1e38 FF4F      		sbci r31,hi8(-(82))
 6629 1e3a 1082      		st Z,__zero_reg__
 6630 1e3c 1182      		std Z+1,__zero_reg__
 6631 1e3e 1282      		std Z+2,__zero_reg__
 6632 1e40 1382      		std Z+3,__zero_reg__
 6633               	.LBE1073:
 6634               	.LBE1072:
 6635               	.LBB1074:
 6636               	.LBB1075:
 6637               	.LM620:
 6638 1e42 1292      		st -Z,__zero_reg__
 6639 1e44 1292      		st -Z,__zero_reg__
 6640 1e46 1292      		st -Z,__zero_reg__
 6641 1e48 1292      		st -Z,__zero_reg__
 6642               	.LBE1075:
 6643               	.LBE1074:
 6644               	.LBB1076:
 6645               	.LBB1077:
 6646               	.LM621:
 6647 1e4a 3896      		adiw r30,8
 6648 1e4c 1082      		st Z,__zero_reg__
 6649 1e4e 1182      		std Z+1,__zero_reg__
 6650 1e50 1282      		std Z+2,__zero_reg__
 6651 1e52 1382      		std Z+3,__zero_reg__
 6652               	.LBE1077:
 6653               	.LBE1076:
 6654               	.LBB1078:
 6655               	.LBB1079:
 6656               	.LM622:
 6657 1e54 8C91      		ld r24,X
 6658               	.LBE1079:
 6659               	.LBE1078:
 6660               	.LBB1080:
 6661               	.LBB1081:
 6662               	.LM623:
 6663 1e56 807E      		andi r24,lo8(-32)
 6664 1e58 8C93      		st X,r24
 6665 1e5a 81E0      		ldi r24,lo8(1)
 6666               	.LBE1081:
 6667               	.LBE1080:
 6668               	.LBE1071:
 6669               	.LBE1070:
 6670               	.LBE1069:
 6671               	.LBE1068:
 6672               	.LM624:
 6673 1e5c 0895      		ret
 6674               	.LFE108:
 6676               	.global	Timebase_DownCounter_SS_Set_Period_Value_Securely
 6678               	Timebase_DownCounter_SS_Set_Period_Value_Securely:
 6679               	.LFB109:
 6680               	.LM625:
 6681               	.LVL396:
 6682 1e5e CF93      		push r28
 6683 1e60 DF93      		push r29
 6684               	/* prologue: function */
 6685               	/* frame size = 0 */
 6686               	.LBB1082:
 6687               	.LBB1083:
 6688               	.LM626:
 6689 1e62 C091 0000 		lds r28,Timebase
 6690 1e66 D091 0000 		lds r29,(Timebase)+1
 6691 1e6a 282F      		mov r18,r24
 6692 1e6c 30E0      		ldi r19,lo8(0)
 6693               	.LBE1083:
 6694               	.LBE1082:
 6695               	.LM627:
 6696 1e6e F901      		movw r30,r18
 6697 1e70 B4E0      		ldi r27,4
 6698 1e72 EE0F      	1:	lsl r30
 6699 1e74 FF1F      		rol r31
 6700 1e76 BA95      		dec r27
 6701 1e78 01F4      		brne 1b
 6702 1e7a E20F      		add r30,r18
 6703 1e7c F31F      		adc r31,r19
 6704 1e7e EC0F      		add r30,r28
 6705 1e80 FD1F      		adc r31,r29
 6706 1e82 E35B      		subi r30,lo8(-(77))
 6707 1e84 FF4F      		sbci r31,hi8(-(77))
 6708 1e86 8081      		ld r24,Z
 6709               	.LVL397:
 6710 1e88 ED54      		subi r30,lo8(-(-77))
 6711 1e8a F040      		sbci r31,hi8(-(-77))
 6712 1e8c 80FD      		sbrc r24,0
 6713 1e8e 00C0      		rjmp .L287
 6714               	.LM628:
 6715 1e90 EA5A      		subi r30,lo8(-(86))
 6716 1e92 FF4F      		sbci r31,hi8(-(86))
 6717 1e94 8191      		ld r24,Z+
 6718 1e96 9191      		ld r25,Z+
 6719 1e98 A191      		ld r26,Z+
 6720 1e9a B191      		ld r27,Z+
 6721 1e9c 841B      		sub r24,r20
 6722 1e9e 950B      		sbc r25,r21
 6723 1ea0 A60B      		sbc r26,r22
 6724 1ea2 B70B      		sbc r27,r23
 6725               	.LBB1084:
 6726               	.LBB1085:
 6727               	.LM629:
 6728 1ea4 B7FF      		sbrs r27,7
 6729 1ea6 00C0      		rjmp .L285
 6730               	.LM630:
 6731 1ea8 1082      		st Z,__zero_reg__
 6732 1eaa 1182      		std Z+1,__zero_reg__
 6733 1eac 1282      		std Z+2,__zero_reg__
 6734 1eae 1382      		std Z+3,__zero_reg__
 6735 1eb0 00C0      		rjmp .L286
 6736               	.L285:
 6737               	.LM631:
 6738 1eb2 8083      		st Z,r24
 6739 1eb4 9183      		std Z+1,r25
 6740 1eb6 A283      		std Z+2,r26
 6741 1eb8 B383      		std Z+3,r27
 6742               	.L286:
 6743               	.LBE1085:
 6744               	.LBE1084:
 6745               	.LBB1086:
 6746               	.LBB1087:
 6747               	.LM632:
 6748 1eba F901      		movw r30,r18
 6749 1ebc A4E0      		ldi r26,4
 6750 1ebe EE0F      	1:	lsl r30
 6751 1ec0 FF1F      		rol r31
 6752 1ec2 AA95      		dec r26
 6753 1ec4 01F4      		brne 1b
 6754 1ec6 E20F      		add r30,r18
 6755 1ec8 F31F      		adc r31,r19
 6756 1eca EC0F      		add r30,r28
 6757 1ecc FD1F      		adc r31,r29
 6758 1ece E35B      		subi r30,lo8(-(77))
 6759 1ed0 FF4F      		sbci r31,hi8(-(77))
 6760 1ed2 8081      		ld r24,Z
 6761 1ed4 8160      		ori r24,lo8(1)
 6762 1ed6 8083      		st Z,r24
 6763               	.L287:
 6764               	/* epilogue start */
 6765               	.LBE1087:
 6766               	.LBE1086:
 6767               	.LM633:
 6768 1ed8 DF91      		pop r29
 6769 1eda CF91      		pop r28
 6770 1edc 0895      		ret
 6771               	.LFE109:
 6773               	.global	Timebase_DownCounter_SS_Get_Remaining_Period_Value
 6775               	Timebase_DownCounter_SS_Get_Remaining_Period_Value:
 6776               	.LFB110:
 6777               	.LM634:
 6778               	.LVL398:
 6779               	/* prologue: function */
 6780               	/* frame size = 0 */
 6781               	.LBB1088:
 6782               	.LBB1089:
 6783               	.LM635:
 6784 1ede E091 0000 		lds r30,Timebase
 6785 1ee2 F091 0000 		lds r31,(Timebase)+1
 6786 1ee6 90E0      		ldi r25,lo8(0)
 6787               	.LBE1089:
 6788               	.LBE1088:
 6789               	.LM636:
 6790 1ee8 9C01      		movw r18,r24
 6791               	.LVL399:
 6792 1eea 44E0      		ldi r20,4
 6793 1eec 220F      	1:	lsl r18
 6794 1eee 331F      		rol r19
 6795 1ef0 4A95      		dec r20
 6796 1ef2 01F4      		brne 1b
 6797 1ef4 280F      		add r18,r24
 6798 1ef6 391F      		adc r19,r25
 6799 1ef8 E20F      		add r30,r18
 6800 1efa F31F      		adc r31,r19
 6801 1efc DF01      		movw r26,r30
 6802 1efe A65A      		subi r26,lo8(-(90))
 6803 1f00 BF4F      		sbci r27,hi8(-(90))
 6804 1f02 EA5A      		subi r30,lo8(-(86))
 6805 1f04 FF4F      		sbci r31,hi8(-(86))
 6806 1f06 2081      		ld r18,Z
 6807 1f08 3181      		ldd r19,Z+1
 6808 1f0a 4281      		ldd r20,Z+2
 6809 1f0c 5381      		ldd r21,Z+3
 6810               	.LVL400:
 6811 1f0e 8D91      		ld r24,X+
 6812 1f10 9D91      		ld r25,X+
 6813 1f12 0D90      		ld __tmp_reg__,X+
 6814 1f14 BC91      		ld r27,X
 6815 1f16 A02D      		mov r26,__tmp_reg__
 6816 1f18 281B      		sub r18,r24
 6817 1f1a 390B      		sbc r19,r25
 6818 1f1c 4A0B      		sbc r20,r26
 6819 1f1e 5B0B      		sbc r21,r27
 6820 1f20 57FF      		sbrs r21,7
 6821 1f22 00C0      		rjmp .L289
 6822 1f24 20E0      		ldi r18,lo8(0)
 6823 1f26 30E0      		ldi r19,hi8(0)
 6824 1f28 40E0      		ldi r20,hlo8(0)
 6825 1f2a 50E0      		ldi r21,hhi8(0)
 6826               	.L289:
 6827               	.LM637:
 6828 1f2c B901      		movw r22,r18
 6829               	.LVL401:
 6830 1f2e CA01      		movw r24,r20
 6831               	/* epilogue start */
 6832 1f30 0895      		ret
 6833               	.LFE110:
 6835               	.global	Timebase_DownCounter_SS_Period_Value_Expired
 6837               	Timebase_DownCounter_SS_Period_Value_Expired:
 6838               	.LFB111:
 6839               	.LM638:
 6840               	.LVL402:
 6841 1f32 CF93      		push r28
 6842 1f34 DF93      		push r29
 6843               	/* prologue: function */
 6844               	/* frame size = 0 */
 6845               	.LBB1090:
 6846               	.LBB1091:
 6847               	.LBB1092:
 6848               	.LBB1093:
 6849               	.LM639:
 6850 1f36 C091 0000 		lds r28,Timebase
 6851 1f3a D091 0000 		lds r29,(Timebase)+1
 6852 1f3e 682F      		mov r22,r24
 6853 1f40 70E0      		ldi r23,lo8(0)
 6854               	.LBE1093:
 6855               	.LBE1092:
 6856               	.LM640:
 6857 1f42 FB01      		movw r30,r22
 6858 1f44 A4E0      		ldi r26,4
 6859 1f46 EE0F      	1:	lsl r30
 6860 1f48 FF1F      		rol r31
 6861 1f4a AA95      		dec r26
 6862 1f4c 01F4      		brne 1b
 6863 1f4e E60F      		add r30,r22
 6864 1f50 F71F      		adc r31,r23
 6865 1f52 EC0F      		add r30,r28
 6866 1f54 FD1F      		adc r31,r29
 6867 1f56 DF01      		movw r26,r30
 6868 1f58 A65A      		subi r26,lo8(-(90))
 6869 1f5a BF4F      		sbci r27,hi8(-(90))
 6870 1f5c EA5A      		subi r30,lo8(-(86))
 6871 1f5e FF4F      		sbci r31,hi8(-(86))
 6872 1f60 2081      		ld r18,Z
 6873 1f62 3181      		ldd r19,Z+1
 6874 1f64 4281      		ldd r20,Z+2
 6875 1f66 5381      		ldd r21,Z+3
 6876               	.LVL403:
 6877 1f68 8D91      		ld r24,X+
 6878 1f6a 9D91      		ld r25,X+
 6879 1f6c 0D90      		ld __tmp_reg__,X+
 6880 1f6e BC91      		ld r27,X
 6881 1f70 A02D      		mov r26,__tmp_reg__
 6882               	.LVL404:
 6883 1f72 281B      		sub r18,r24
 6884 1f74 390B      		sbc r19,r25
 6885 1f76 4A0B      		sbc r20,r26
 6886 1f78 5B0B      		sbc r21,r27
 6887               	.LM641:
 6888 1f7a 57FD      		sbrc r21,7
 6889 1f7c 00C0      		rjmp .L292
 6890               	.LBE1091:
 6891               	.LBE1090:
 6892               	.LM642:
 6893 1f7e 2115      		cp r18,__zero_reg__
 6894 1f80 3105      		cpc r19,__zero_reg__
 6895 1f82 4105      		cpc r20,__zero_reg__
 6896 1f84 5105      		cpc r21,__zero_reg__
 6897 1f86 01F0      		breq .L292
 6898 1f88 20E0      		ldi r18,lo8(0)
 6899               	.LVL405:
 6900 1f8a 00C0      		rjmp .L293
 6901               	.LVL406:
 6902               	.L292:
 6903 1f8c 20E0      		ldi r18,lo8(0)
 6904               	.LVL407:
 6905 1f8e CB01      		movw r24,r22
 6906 1f90 54E0      		ldi r21,4
 6907 1f92 880F      	1:	lsl r24
 6908 1f94 991F      		rol r25
 6909 1f96 5A95      		dec r21
 6910 1f98 01F4      		brne 1b
 6911 1f9a 860F      		add r24,r22
 6912 1f9c 971F      		adc r25,r23
 6913 1f9e C80F      		add r28,r24
 6914 1fa0 D91F      		adc r29,r25
 6915 1fa2 C35B      		subi r28,lo8(-(77))
 6916 1fa4 DF4F      		sbci r29,hi8(-(77))
 6917 1fa6 8881      		ld r24,Y
 6918 1fa8 80FF      		sbrs r24,0
 6919 1faa 21E0      		ldi r18,lo8(1)
 6920               	.L294:
 6921 1fac 81E0      		ldi r24,lo8(1)
 6922 1fae 2827      		eor r18,r24
 6923               	.L293:
 6924               	.LM643:
 6925 1fb0 822F      		mov r24,r18
 6926               	/* epilogue start */
 6927 1fb2 DF91      		pop r29
 6928 1fb4 CF91      		pop r28
 6929 1fb6 0895      		ret
 6930               	.LFE111:
 6932               	.global	Timebase_DownCounter_SS_Period_Value_Expired_Event
 6934               	Timebase_DownCounter_SS_Period_Value_Expired_Event:
 6935               	.LFB112:
 6936               	.LM644:
 6937               	.LVL408:
 6938 1fb8 1F93      		push r17
 6939               	/* prologue: function */
 6940               	/* frame size = 0 */
 6941 1fba 182F      		mov r17,r24
 6942               	.LM645:
 6943 1fbc 0E94 0000 		call Timebase_DownCounter_SS_Period_Value_Expired
 6944               	.LVL409:
 6945 1fc0 8130      		cpi r24,lo8(1)
 6946 1fc2 01F0      		breq .L297
 6947 1fc4 80E0      		ldi r24,lo8(0)
 6948 1fc6 00C0      		rjmp .L298
 6949               	.L297:
 6950               	.LBB1094:
 6951               	.LBB1095:
 6952               	.LM646:
 6953 1fc8 E091 0000 		lds r30,Timebase
 6954 1fcc F091 0000 		lds r31,(Timebase)+1
 6955 1fd0 212F      		mov r18,r17
 6956 1fd2 30E0      		ldi r19,lo8(0)
 6957               	.LVL410:
 6958 1fd4 C901      		movw r24,r18
 6959 1fd6 B4E0      		ldi r27,4
 6960 1fd8 880F      	1:	lsl r24
 6961 1fda 991F      		rol r25
 6962 1fdc BA95      		dec r27
 6963 1fde 01F4      		brne 1b
 6964 1fe0 820F      		add r24,r18
 6965 1fe2 931F      		adc r25,r19
 6966 1fe4 E80F      		add r30,r24
 6967 1fe6 F91F      		adc r31,r25
 6968 1fe8 E35B      		subi r30,lo8(-(77))
 6969 1fea FF4F      		sbci r31,hi8(-(77))
 6970 1fec 8081      		ld r24,Z
 6971 1fee 8E7F      		andi r24,lo8(-2)
 6972 1ff0 8083      		st Z,r24
 6973 1ff2 81E0      		ldi r24,lo8(1)
 6974               	.L298:
 6975               	/* epilogue start */
 6976               	.LBE1095:
 6977               	.LBE1094:
 6978               	.LM647:
 6979 1ff4 1F91      		pop r17
 6980               	.LVL411:
 6981 1ff6 0895      		ret
 6982               	.LFE112:
 6984               	.global	Timebase_DownCounter_SS_Update_All
 6986               	Timebase_DownCounter_SS_Update_All:
 6987               	.LFB113:
 6988               	.LM648:
 6989               	/* prologue: function */
 6990               	/* frame size = 0 */
 6991               	.LBB1096:
 6992               	.LM649:
 6993 1ff8 80E0      		ldi r24,lo8(0)
 6994 1ffa 0E94 0000 		call Timebase_DownCounter_SS_Update
 6995               	/* epilogue start */
 6996               	.LBE1096:
 6997               	.LM650:
 6998 1ffe 0895      		ret
 6999               	.LFE113:
 7001               	.global	Timebase_DownCounter_SS_Reset_All
 7003               	Timebase_DownCounter_SS_Reset_All:
 7004               	.LFB114:
 7005               	.LM651:
 7006               	/* prologue: function */
 7007               	/* frame size = 0 */
 7008               	.LBB1097:
 7009               	.LBB1098:
 7010               	.LBB1099:
 7011               	.LBB1100:
 7012               	.LBB1101:
 7013               	.LM652:
 7014 2000 E091 0000 		lds r30,Timebase
 7015 2004 F091 0000 		lds r31,(Timebase)+1
 7016 2008 EE5A      		subi r30,lo8(-(82))
 7017 200a FF4F      		sbci r31,hi8(-(82))
 7018 200c 1082      		st Z,__zero_reg__
 7019 200e 1182      		std Z+1,__zero_reg__
 7020 2010 1282      		std Z+2,__zero_reg__
 7021 2012 1382      		std Z+3,__zero_reg__
 7022               	.LBE1101:
 7023               	.LBE1100:
 7024               	.LBB1102:
 7025               	.LBB1103:
 7026               	.LM653:
 7027 2014 1292      		st -Z,__zero_reg__
 7028 2016 1292      		st -Z,__zero_reg__
 7029 2018 1292      		st -Z,__zero_reg__
 7030 201a 1292      		st -Z,__zero_reg__
 7031               	.LBE1103:
 7032               	.LBE1102:
 7033               	.LBB1104:
 7034               	.LBB1105:
 7035               	.LM654:
 7036 201c 3896      		adiw r30,8
 7037 201e 1082      		st Z,__zero_reg__
 7038 2020 1182      		std Z+1,__zero_reg__
 7039 2022 1282      		std Z+2,__zero_reg__
 7040 2024 1382      		std Z+3,__zero_reg__
 7041               	.LBE1105:
 7042               	.LBE1104:
 7043               	.LBB1106:
 7044               	.LBB1107:
 7045               	.LM655:
 7046 2026 3997      		sbiw r30,9
 7047 2028 8081      		ld r24,Z
 7048               	.LBE1107:
 7049               	.LBE1106:
 7050               	.LBB1108:
 7051               	.LBB1109:
 7052               	.LM656:
 7053 202a 807E      		andi r24,lo8(-32)
 7054 202c 8083      		st Z,r24
 7055               	/* epilogue start */
 7056               	.LBE1109:
 7057               	.LBE1108:
 7058               	.LBE1099:
 7059               	.LBE1098:
 7060               	.LBE1097:
 7061               	.LM657:
 7062 202e 0895      		ret
 7063               	.LFE114:
 7065               	.global	Timebase_DownCounter_Get_Status
 7067               	Timebase_DownCounter_Get_Status:
 7068               	.LFB115:
 7069               	.LM658:
 7070               	.LVL412:
 7071               	/* prologue: function */
 7072               	/* frame size = 0 */
 7073               	.LM659:
 7074 2030 E091 0000 		lds r30,Timebase
 7075 2034 F091 0000 		lds r31,(Timebase)+1
 7076 2038 90E0      		ldi r25,lo8(0)
 7077               	.LVL413:
 7078 203a 2DE0      		ldi r18,lo8(13)
 7079 203c 30E0      		ldi r19,hi8(13)
 7080 203e AC01      		movw r20,r24
 7081 2040 429F      		mul r20,r18
 7082 2042 C001      		movw r24,r0
 7083 2044 439F      		mul r20,r19
 7084 2046 900D      		add r25,r0
 7085 2048 529F      		mul r21,r18
 7086 204a 900D      		add r25,r0
 7087 204c 1124      		clr r1
 7088               	.LVL414:
 7089 204e E80F      		add r30,r24
 7090 2050 F91F      		adc r31,r25
 7091 2052 E25A      		subi r30,lo8(-(94))
 7092 2054 FF4F      		sbci r31,hi8(-(94))
 7093 2056 8081      		ld r24,Z
 7094 2058 8695      		lsr r24
 7095               	.LM660:
 7096 205a 8F70      		andi r24,lo8(15)
 7097               	/* epilogue start */
 7098 205c 0895      		ret
 7099               	.LFE115:
 7101               	.global	Timebase_DownCounter_Set_Status
 7103               	Timebase_DownCounter_Set_Status:
 7104               	.LFB116:
 7105               	.LM661:
 7106               	.LVL415:
 7107               	/* prologue: function */
 7108               	/* frame size = 0 */
 7109               	.LM662:
 7110 205e E091 0000 		lds r30,Timebase
 7111 2062 F091 0000 		lds r31,(Timebase)+1
 7112 2066 90E0      		ldi r25,lo8(0)
 7113               	.LVL416:
 7114 2068 2DE0      		ldi r18,lo8(13)
 7115 206a 30E0      		ldi r19,hi8(13)
 7116 206c AC01      		movw r20,r24
 7117 206e 429F      		mul r20,r18
 7118 2070 C001      		movw r24,r0
 7119 2072 439F      		mul r20,r19
 7120 2074 900D      		add r25,r0
 7121 2076 529F      		mul r21,r18
 7122 2078 900D      		add r25,r0
 7123 207a 1124      		clr r1
 7124               	.LVL417:
 7125 207c E80F      		add r30,r24
 7126 207e F91F      		adc r31,r25
 7127 2080 E25A      		subi r30,lo8(-(94))
 7128 2082 FF4F      		sbci r31,hi8(-(94))
 7129 2084 6F70      		andi r22,lo8(15)
 7130               	.LVL418:
 7131 2086 660F      		lsl r22
 7132 2088 8081      		ld r24,Z
 7133 208a 817E      		andi r24,lo8(-31)
 7134 208c 862B      		or r24,r22
 7135 208e 8083      		st Z,r24
 7136               	/* epilogue start */
 7137               	.LM663:
 7138 2090 0895      		ret
 7139               	.LFE116:
 7141               	.global	Timebase_DownCounter_Get_Value
 7143               	Timebase_DownCounter_Get_Value:
 7144               	.LFB117:
 7145               	.LM664:
 7146               	.LVL419:
 7147               	/* prologue: function */
 7148               	/* frame size = 0 */
 7149               	.LM665:
 7150 2092 E091 0000 		lds r30,Timebase
 7151 2096 F091 0000 		lds r31,(Timebase)+1
 7152 209a 90E0      		ldi r25,lo8(0)
 7153               	.LVL420:
 7154 209c 2DE0      		ldi r18,lo8(13)
 7155 209e 30E0      		ldi r19,hi8(13)
 7156 20a0 AC01      		movw r20,r24
 7157 20a2 429F      		mul r20,r18
 7158 20a4 C001      		movw r24,r0
 7159 20a6 439F      		mul r20,r19
 7160 20a8 900D      		add r25,r0
 7161 20aa 529F      		mul r21,r18
 7162 20ac 900D      		add r25,r0
 7163 20ae 1124      		clr r1
 7164               	.LVL421:
 7165 20b0 E80F      		add r30,r24
 7166 20b2 F91F      		adc r31,r25
 7167 20b4 ED59      		subi r30,lo8(-(99))
 7168 20b6 FF4F      		sbci r31,hi8(-(99))
 7169 20b8 6081      		ld r22,Z
 7170 20ba 7181      		ldd r23,Z+1
 7171               	.LM666:
 7172 20bc 8281      		ldd r24,Z+2
 7173 20be 9381      		ldd r25,Z+3
 7174               	.LVL422:
 7175               	/* epilogue start */
 7176 20c0 0895      		ret
 7177               	.LFE117:
 7179               	.global	Timebase_DownCounter_Set_Value
 7181               	Timebase_DownCounter_Set_Value:
 7182               	.LFB118:
 7183               	.LM667:
 7184               	.LVL423:
 7185               	/* prologue: function */
 7186               	/* frame size = 0 */
 7187               	.LM668:
 7188 20c2 E091 0000 		lds r30,Timebase
 7189 20c6 F091 0000 		lds r31,(Timebase)+1
 7190 20ca 90E0      		ldi r25,lo8(0)
 7191               	.LVL424:
 7192 20cc 2DE0      		ldi r18,lo8(13)
 7193 20ce 30E0      		ldi r19,hi8(13)
 7194 20d0 DC01      		movw r26,r24
 7195 20d2 A29F      		mul r26,r18
 7196 20d4 C001      		movw r24,r0
 7197 20d6 A39F      		mul r26,r19
 7198 20d8 900D      		add r25,r0
 7199 20da B29F      		mul r27,r18
 7200 20dc 900D      		add r25,r0
 7201 20de 1124      		clr r1
 7202               	.LVL425:
 7203 20e0 E80F      		add r30,r24
 7204 20e2 F91F      		adc r31,r25
 7205 20e4 ED59      		subi r30,lo8(-(99))
 7206 20e6 FF4F      		sbci r31,hi8(-(99))
 7207 20e8 4083      		st Z,r20
 7208 20ea 5183      		std Z+1,r21
 7209 20ec 6283      		std Z+2,r22
 7210 20ee 7383      		std Z+3,r23
 7211               	/* epilogue start */
 7212               	.LM669:
 7213 20f0 0895      		ret
 7214               	.LFE118:
 7216               	.global	Timebase_DownCounter_Get_EndValue
 7218               	Timebase_DownCounter_Get_EndValue:
 7219               	.LFB119:
 7220               	.LM670:
 7221               	.LVL426:
 7222               	/* prologue: function */
 7223               	/* frame size = 0 */
 7224               	.LM671:
 7225 20f2 E091 0000 		lds r30,Timebase
 7226 20f6 F091 0000 		lds r31,(Timebase)+1
 7227 20fa 90E0      		ldi r25,lo8(0)
 7228               	.LVL427:
 7229 20fc 2DE0      		ldi r18,lo8(13)
 7230 20fe 30E0      		ldi r19,hi8(13)
 7231 2100 AC01      		movw r20,r24
 7232 2102 429F      		mul r20,r18
 7233 2104 C001      		movw r24,r0
 7234 2106 439F      		mul r20,r19
 7235 2108 900D      		add r25,r0
 7236 210a 529F      		mul r21,r18
 7237 210c 900D      		add r25,r0
 7238 210e 1124      		clr r1
 7239               	.LVL428:
 7240 2110 E80F      		add r30,r24
 7241 2112 F91F      		adc r31,r25
 7242 2114 E15A      		subi r30,lo8(-(95))
 7243 2116 FF4F      		sbci r31,hi8(-(95))
 7244 2118 6081      		ld r22,Z
 7245 211a 7181      		ldd r23,Z+1
 7246               	.LM672:
 7247 211c 8281      		ldd r24,Z+2
 7248 211e 9381      		ldd r25,Z+3
 7249               	.LVL429:
 7250               	/* epilogue start */
 7251 2120 0895      		ret
 7252               	.LFE119:
 7254               	.global	Timebase_DownCounter_Set_EndValue
 7256               	Timebase_DownCounter_Set_EndValue:
 7257               	.LFB120:
 7258               	.LM673:
 7259               	.LVL430:
 7260               	/* prologue: function */
 7261               	/* frame size = 0 */
 7262               	.LM674:
 7263 2122 E091 0000 		lds r30,Timebase
 7264 2126 F091 0000 		lds r31,(Timebase)+1
 7265 212a 90E0      		ldi r25,lo8(0)
 7266               	.LVL431:
 7267 212c 2DE0      		ldi r18,lo8(13)
 7268 212e 30E0      		ldi r19,hi8(13)
 7269 2130 DC01      		movw r26,r24
 7270 2132 A29F      		mul r26,r18
 7271 2134 C001      		movw r24,r0
 7272 2136 A39F      		mul r26,r19
 7273 2138 900D      		add r25,r0
 7274 213a B29F      		mul r27,r18
 7275 213c 900D      		add r25,r0
 7276 213e 1124      		clr r1
 7277               	.LVL432:
 7278 2140 E80F      		add r30,r24
 7279 2142 F91F      		adc r31,r25
 7280 2144 E15A      		subi r30,lo8(-(95))
 7281 2146 FF4F      		sbci r31,hi8(-(95))
 7282 2148 4083      		st Z,r20
 7283 214a 5183      		std Z+1,r21
 7284 214c 6283      		std Z+2,r22
 7285 214e 7383      		std Z+3,r23
 7286               	/* epilogue start */
 7287               	.LM675:
 7288 2150 0895      		ret
 7289               	.LFE120:
 7291               	.global	Timebase_DownCounter_Get_PeriodValue
 7293               	Timebase_DownCounter_Get_PeriodValue:
 7294               	.LFB121:
 7295               	.LM676:
 7296               	.LVL433:
 7297               	/* prologue: function */
 7298               	/* frame size = 0 */
 7299               	.LM677:
 7300 2152 E091 0000 		lds r30,Timebase
 7301 2156 F091 0000 		lds r31,(Timebase)+1
 7302 215a 90E0      		ldi r25,lo8(0)
 7303               	.LVL434:
 7304 215c 2DE0      		ldi r18,lo8(13)
 7305 215e 30E0      		ldi r19,hi8(13)
 7306 2160 AC01      		movw r20,r24
 7307 2162 429F      		mul r20,r18
 7308 2164 C001      		movw r24,r0
 7309 2166 439F      		mul r20,r19
 7310 2168 900D      		add r25,r0
 7311 216a 529F      		mul r21,r18
 7312 216c 900D      		add r25,r0
 7313 216e 1124      		clr r1
 7314               	.LVL435:
 7315 2170 E80F      		add r30,r24
 7316 2172 F91F      		adc r31,r25
 7317 2174 E959      		subi r30,lo8(-(103))
 7318 2176 FF4F      		sbci r31,hi8(-(103))
 7319 2178 6081      		ld r22,Z
 7320 217a 7181      		ldd r23,Z+1
 7321               	.LM678:
 7322 217c 8281      		ldd r24,Z+2
 7323 217e 9381      		ldd r25,Z+3
 7324               	.LVL436:
 7325               	/* epilogue start */
 7326 2180 0895      		ret
 7327               	.LFE121:
 7329               	.global	Timebase_DownCounter_Set_PeriodValue
 7331               	Timebase_DownCounter_Set_PeriodValue:
 7332               	.LFB122:
 7333               	.LM679:
 7334               	.LVL437:
 7335               	/* prologue: function */
 7336               	/* frame size = 0 */
 7337 2182 E091 0000 		lds r30,Timebase
 7338 2186 F091 0000 		lds r31,(Timebase)+1
 7339 218a 282F      		mov r18,r24
 7340 218c 30E0      		ldi r19,lo8(0)
 7341               	.LVL438:
 7342               	.LM680:
 7343 218e 77FF      		sbrs r23,7
 7344 2190 00C0      		rjmp .L319
 7345               	.LVL439:
 7346               	.LM681:
 7347 2192 8DE0      		ldi r24,lo8(13)
 7348 2194 90E0      		ldi r25,hi8(13)
 7349 2196 AC01      		movw r20,r24
 7350               	.LVL440:
 7351 2198 249F      		mul r18,r20
 7352 219a C001      		movw r24,r0
 7353 219c 259F      		mul r18,r21
 7354 219e 900D      		add r25,r0
 7355 21a0 349F      		mul r19,r20
 7356 21a2 900D      		add r25,r0
 7357 21a4 1124      		clr r1
 7358 21a6 E80F      		add r30,r24
 7359 21a8 F91F      		adc r31,r25
 7360 21aa E959      		subi r30,lo8(-(103))
 7361 21ac FF4F      		sbci r31,hi8(-(103))
 7362 21ae 1082      		st Z,__zero_reg__
 7363 21b0 1182      		std Z+1,__zero_reg__
 7364 21b2 1282      		std Z+2,__zero_reg__
 7365 21b4 1382      		std Z+3,__zero_reg__
 7366 21b6 0895      		ret
 7367               	.LVL441:
 7368               	.L319:
 7369               	.LM682:
 7370 21b8 8DE0      		ldi r24,lo8(13)
 7371 21ba 90E0      		ldi r25,hi8(13)
 7372 21bc DC01      		movw r26,r24
 7373 21be 2A9F      		mul r18,r26
 7374 21c0 C001      		movw r24,r0
 7375 21c2 2B9F      		mul r18,r27
 7376 21c4 900D      		add r25,r0
 7377 21c6 3A9F      		mul r19,r26
 7378 21c8 900D      		add r25,r0
 7379 21ca 1124      		clr r1
 7380 21cc E80F      		add r30,r24
 7381 21ce F91F      		adc r31,r25
 7382 21d0 E959      		subi r30,lo8(-(103))
 7383 21d2 FF4F      		sbci r31,hi8(-(103))
 7384 21d4 4083      		st Z,r20
 7385 21d6 5183      		std Z+1,r21
 7386 21d8 6283      		std Z+2,r22
 7387 21da 7383      		std Z+3,r23
 7388 21dc 0895      		ret
 7389               	.LFE122:
 7391               	.global	Timebase_DownCounter_Get_Period_Flag
 7393               	Timebase_DownCounter_Get_Period_Flag:
 7394               	.LFB123:
 7395               	.LM683:
 7396               	.LVL442:
 7397               	/* prologue: function */
 7398               	/* frame size = 0 */
 7399               	.LM684:
 7400 21de E091 0000 		lds r30,Timebase
 7401 21e2 F091 0000 		lds r31,(Timebase)+1
 7402 21e6 90E0      		ldi r25,lo8(0)
 7403               	.LVL443:
 7404 21e8 2DE0      		ldi r18,lo8(13)
 7405 21ea 30E0      		ldi r19,hi8(13)
 7406 21ec AC01      		movw r20,r24
 7407 21ee 429F      		mul r20,r18
 7408 21f0 C001      		movw r24,r0
 7409 21f2 439F      		mul r20,r19
 7410 21f4 900D      		add r25,r0
 7411 21f6 529F      		mul r21,r18
 7412 21f8 900D      		add r25,r0
 7413 21fa 1124      		clr r1
 7414               	.LVL444:
 7415 21fc E80F      		add r30,r24
 7416 21fe F91F      		adc r31,r25
 7417 2200 E25A      		subi r30,lo8(-(94))
 7418 2202 FF4F      		sbci r31,hi8(-(94))
 7419 2204 8081      		ld r24,Z
 7420               	.LM685:
 7421 2206 8170      		andi r24,lo8(1)
 7422               	/* epilogue start */
 7423 2208 0895      		ret
 7424               	.LFE123:
 7426               	.global	Timebase_DownCounter_Set_Period_Flag
 7428               	Timebase_DownCounter_Set_Period_Flag:
 7429               	.LFB124:
 7430               	.LM686:
 7431               	.LVL445:
 7432               	/* prologue: function */
 7433               	/* frame size = 0 */
 7434               	.LM687:
 7435 220a E091 0000 		lds r30,Timebase
 7436 220e F091 0000 		lds r31,(Timebase)+1
 7437 2212 90E0      		ldi r25,lo8(0)
 7438               	.LVL446:
 7439 2214 2DE0      		ldi r18,lo8(13)
 7440 2216 30E0      		ldi r19,hi8(13)
 7441 2218 AC01      		movw r20,r24
 7442 221a 429F      		mul r20,r18
 7443 221c C001      		movw r24,r0
 7444 221e 439F      		mul r20,r19
 7445 2220 900D      		add r25,r0
 7446 2222 529F      		mul r21,r18
 7447 2224 900D      		add r25,r0
 7448 2226 1124      		clr r1
 7449               	.LVL447:
 7450 2228 E80F      		add r30,r24
 7451 222a F91F      		adc r31,r25
 7452 222c E25A      		subi r30,lo8(-(94))
 7453 222e FF4F      		sbci r31,hi8(-(94))
 7454 2230 8081      		ld r24,Z
 7455 2232 8160      		ori r24,lo8(1)
 7456 2234 8083      		st Z,r24
 7457               	/* epilogue start */
 7458               	.LM688:
 7459 2236 0895      		ret
 7460               	.LFE124:
 7462               	.global	Timebase_DownCounter_Clear_Period_Flag
 7464               	Timebase_DownCounter_Clear_Period_Flag:
 7465               	.LFB125:
 7466               	.LM689:
 7467               	.LVL448:
 7468               	/* prologue: function */
 7469               	/* frame size = 0 */
 7470               	.LM690:
 7471 2238 E091 0000 		lds r30,Timebase
 7472 223c F091 0000 		lds r31,(Timebase)+1
 7473 2240 90E0      		ldi r25,lo8(0)
 7474               	.LVL449:
 7475 2242 2DE0      		ldi r18,lo8(13)
 7476 2244 30E0      		ldi r19,hi8(13)
 7477 2246 AC01      		movw r20,r24
 7478 2248 429F      		mul r20,r18
 7479 224a C001      		movw r24,r0
 7480 224c 439F      		mul r20,r19
 7481 224e 900D      		add r25,r0
 7482 2250 529F      		mul r21,r18
 7483 2252 900D      		add r25,r0
 7484 2254 1124      		clr r1
 7485               	.LVL450:
 7486 2256 E80F      		add r30,r24
 7487 2258 F91F      		adc r31,r25
 7488 225a E25A      		subi r30,lo8(-(94))
 7489 225c FF4F      		sbci r31,hi8(-(94))
 7490 225e 8081      		ld r24,Z
 7491 2260 8E7F      		andi r24,lo8(-2)
 7492 2262 8083      		st Z,r24
 7493               	/* epilogue start */
 7494               	.LM691:
 7495 2264 0895      		ret
 7496               	.LFE125:
 7498               	.global	Timebase_DownCounter_Reset
 7500               	Timebase_DownCounter_Reset:
 7501               	.LFB126:
 7502               	.LM692:
 7503               	.LVL451:
 7504               	/* prologue: function */
 7505               	/* frame size = 0 */
 7506               	.LBB1110:
 7507               	.LBB1111:
 7508               	.LM693:
 7509 2266 E091 0000 		lds r30,Timebase
 7510 226a F091 0000 		lds r31,(Timebase)+1
 7511 226e 90E0      		ldi r25,lo8(0)
 7512 2270 2DE0      		ldi r18,lo8(13)
 7513 2272 30E0      		ldi r19,hi8(13)
 7514 2274 AC01      		movw r20,r24
 7515               	.LVL452:
 7516 2276 429F      		mul r20,r18
 7517 2278 C001      		movw r24,r0
 7518 227a 439F      		mul r20,r19
 7519 227c 900D      		add r25,r0
 7520 227e 529F      		mul r21,r18
 7521 2280 900D      		add r25,r0
 7522 2282 1124      		clr r1
 7523 2284 E80F      		add r30,r24
 7524 2286 F91F      		adc r31,r25
 7525 2288 E15A      		subi r30,lo8(-(95))
 7526 228a FF4F      		sbci r31,hi8(-(95))
 7527 228c 1192      		st Z+,__zero_reg__
 7528 228e 1192      		st Z+,__zero_reg__
 7529 2290 1192      		st Z+,__zero_reg__
 7530 2292 1192      		st Z+,__zero_reg__
 7531               	.LBE1111:
 7532               	.LBE1110:
 7533               	.LBB1112:
 7534               	.LBB1113:
 7535               	.LM694:
 7536 2294 1082      		st Z,__zero_reg__
 7537 2296 1182      		std Z+1,__zero_reg__
 7538 2298 1282      		std Z+2,__zero_reg__
 7539 229a 1382      		std Z+3,__zero_reg__
 7540               	.LBE1113:
 7541               	.LBE1112:
 7542               	.LBB1114:
 7543               	.LBB1115:
 7544               	.LM695:
 7545 229c 3597      		sbiw r30,5
 7546 229e 8081      		ld r24,Z
 7547               	.LBE1115:
 7548               	.LBE1114:
 7549               	.LBB1116:
 7550               	.LBB1117:
 7551               	.LM696:
 7552 22a0 807E      		andi r24,lo8(-32)
 7553 22a2 8083      		st Z,r24
 7554               	/* epilogue start */
 7555               	.LBE1117:
 7556               	.LBE1116:
 7557               	.LM697:
 7558 22a4 0895      		ret
 7559               	.LFE126:
 7561               	.global	Timebase_DownCounter_Clear_All_Flags
 7563               	Timebase_DownCounter_Clear_All_Flags:
 7564               	.LFB127:
 7565               	.LM698:
 7566               	.LVL453:
 7567               	/* prologue: function */
 7568               	/* frame size = 0 */
 7569               	.LBB1118:
 7570               	.LBB1119:
 7571               	.LBB1120:
 7572               	.LBB1121:
 7573               	.LM699:
 7574 22a6 E091 0000 		lds r30,Timebase
 7575 22aa F091 0000 		lds r31,(Timebase)+1
 7576 22ae 90E0      		ldi r25,lo8(0)
 7577 22b0 2DE0      		ldi r18,lo8(13)
 7578 22b2 30E0      		ldi r19,hi8(13)
 7579 22b4 AC01      		movw r20,r24
 7580               	.LVL454:
 7581 22b6 429F      		mul r20,r18
 7582 22b8 C001      		movw r24,r0
 7583 22ba 439F      		mul r20,r19
 7584 22bc 900D      		add r25,r0
 7585 22be 529F      		mul r21,r18
 7586 22c0 900D      		add r25,r0
 7587 22c2 1124      		clr r1
 7588 22c4 E80F      		add r30,r24
 7589 22c6 F91F      		adc r31,r25
 7590 22c8 E15A      		subi r30,lo8(-(95))
 7591 22ca FF4F      		sbci r31,hi8(-(95))
 7592 22cc 1192      		st Z+,__zero_reg__
 7593 22ce 1192      		st Z+,__zero_reg__
 7594 22d0 1192      		st Z+,__zero_reg__
 7595 22d2 1192      		st Z+,__zero_reg__
 7596               	.LBE1121:
 7597               	.LBE1120:
 7598               	.LBB1122:
 7599               	.LBB1123:
 7600               	.LM700:
 7601 22d4 1082      		st Z,__zero_reg__
 7602 22d6 1182      		std Z+1,__zero_reg__
 7603 22d8 1282      		std Z+2,__zero_reg__
 7604 22da 1382      		std Z+3,__zero_reg__
 7605               	.LBE1123:
 7606               	.LBE1122:
 7607               	.LBB1124:
 7608               	.LBB1125:
 7609               	.LM701:
 7610 22dc 3597      		sbiw r30,5
 7611 22de 8081      		ld r24,Z
 7612               	.LBE1125:
 7613               	.LBE1124:
 7614               	.LBB1126:
 7615               	.LBB1127:
 7616               	.LM702:
 7617 22e0 807E      		andi r24,lo8(-32)
 7618 22e2 8083      		st Z,r24
 7619               	/* epilogue start */
 7620               	.LBE1127:
 7621               	.LBE1126:
 7622               	.LBE1119:
 7623               	.LBE1118:
 7624               	.LM703:
 7625 22e4 0895      		ret
 7626               	.LFE127:
 7628               	.global	Timebase_DownCounter_Start
 7630               	Timebase_DownCounter_Start:
 7631               	.LFB128:
 7632               	.LM704:
 7633               	.LVL455:
 7634               	/* prologue: function */
 7635               	/* frame size = 0 */
 7636               	.LBB1128:
 7637               	.LBB1129:
 7638               	.LM705:
 7639 22e6 E091 0000 		lds r30,Timebase
 7640 22ea F091 0000 		lds r31,(Timebase)+1
 7641 22ee 90E0      		ldi r25,lo8(0)
 7642               	.LBE1129:
 7643               	.LBE1128:
 7644               	.LM706:
 7645 22f0 2DE0      		ldi r18,lo8(13)
 7646 22f2 30E0      		ldi r19,hi8(13)
 7647 22f4 AC01      		movw r20,r24
 7648               	.LVL456:
 7649 22f6 429F      		mul r20,r18
 7650 22f8 C001      		movw r24,r0
 7651 22fa 439F      		mul r20,r19
 7652 22fc 900D      		add r25,r0
 7653 22fe 529F      		mul r21,r18
 7654 2300 900D      		add r25,r0
 7655 2302 1124      		clr r1
 7656 2304 E80F      		add r30,r24
 7657 2306 F91F      		adc r31,r25
 7658 2308 E25A      		subi r30,lo8(-(94))
 7659 230a FF4F      		sbci r31,hi8(-(94))
 7660 230c 9081      		ld r25,Z
 7661 230e 892F      		mov r24,r25
 7662 2310 8695      		lsr r24
 7663 2312 8F70      		andi r24,lo8(15)
 7664 2314 8130      		cpi r24,lo8(1)
 7665 2316 01F0      		breq .L334
 7666               	.LBB1130:
 7667               	.LBB1131:
 7668               	.LM707:
 7669 2318 917E      		andi r25,lo8(-31)
 7670 231a 9260      		ori r25,lo8(2)
 7671 231c 9083      		st Z,r25
 7672               	.L334:
 7673 231e 0895      		ret
 7674               	.LBE1131:
 7675               	.LBE1130:
 7676               	.LFE128:
 7678               	.global	Timebase_DownCounter_Stop
 7680               	Timebase_DownCounter_Stop:
 7681               	.LFB129:
 7682               	.LM708:
 7683               	.LVL457:
 7684               	/* prologue: function */
 7685               	/* frame size = 0 */
 7686               	.LBB1132:
 7687               	.LBB1133:
 7688               	.LM709:
 7689 2320 E091 0000 		lds r30,Timebase
 7690 2324 F091 0000 		lds r31,(Timebase)+1
 7691 2328 90E0      		ldi r25,lo8(0)
 7692               	.LBE1133:
 7693               	.LBE1132:
 7694               	.LM710:
 7695 232a 2DE0      		ldi r18,lo8(13)
 7696 232c 30E0      		ldi r19,hi8(13)
 7697 232e AC01      		movw r20,r24
 7698               	.LVL458:
 7699 2330 429F      		mul r20,r18
 7700 2332 C001      		movw r24,r0
 7701 2334 439F      		mul r20,r19
 7702 2336 900D      		add r25,r0
 7703 2338 529F      		mul r21,r18
 7704 233a 900D      		add r25,r0
 7705 233c 1124      		clr r1
 7706 233e E80F      		add r30,r24
 7707 2340 F91F      		adc r31,r25
 7708 2342 E25A      		subi r30,lo8(-(94))
 7709 2344 FF4F      		sbci r31,hi8(-(94))
 7710 2346 9081      		ld r25,Z
 7711 2348 892F      		mov r24,r25
 7712 234a 8695      		lsr r24
 7713 234c 8F70      		andi r24,lo8(15)
 7714 234e 8230      		cpi r24,lo8(2)
 7715 2350 01F0      		breq .L337
 7716               	.LBB1134:
 7717               	.LBB1135:
 7718               	.LM711:
 7719 2352 917E      		andi r25,lo8(-31)
 7720 2354 9460      		ori r25,lo8(4)
 7721 2356 9083      		st Z,r25
 7722               	.L337:
 7723 2358 0895      		ret
 7724               	.LBE1135:
 7725               	.LBE1134:
 7726               	.LFE129:
 7728               	.global	Timebase_DownCounter_Set_Securely
 7730               	Timebase_DownCounter_Set_Securely:
 7731               	.LFB130:
 7732               	.LM712:
 7733               	.LVL459:
 7734 235a 0F93      		push r16
 7735 235c 1F93      		push r17
 7736 235e CF93      		push r28
 7737 2360 DF93      		push r29
 7738               	/* prologue: function */
 7739               	/* frame size = 0 */
 7740               	.LBB1136:
 7741               	.LBB1137:
 7742               	.LM713:
 7743 2362 C091 0000 		lds r28,Timebase
 7744 2366 D091 0000 		lds r29,(Timebase)+1
 7745 236a 082F      		mov r16,r24
 7746 236c 10E0      		ldi r17,lo8(0)
 7747               	.LBE1137:
 7748               	.LBE1136:
 7749               	.LM714:
 7750 236e 8DE0      		ldi r24,lo8(13)
 7751 2370 90E0      		ldi r25,hi8(13)
 7752               	.LVL460:
 7753 2372 089F      		mul r16,r24
 7754 2374 F001      		movw r30,r0
 7755 2376 099F      		mul r16,r25
 7756 2378 F00D      		add r31,r0
 7757 237a 189F      		mul r17,r24
 7758 237c F00D      		add r31,r0
 7759 237e 1124      		clr r1
 7760 2380 EC0F      		add r30,r28
 7761 2382 FD1F      		adc r31,r29
 7762 2384 E25A      		subi r30,lo8(-(94))
 7763 2386 FF4F      		sbci r31,hi8(-(94))
 7764 2388 8081      		ld r24,Z
 7765 238a EE55      		subi r30,lo8(-(-94))
 7766 238c F040      		sbci r31,hi8(-(-94))
 7767 238e 8695      		lsr r24
 7768 2390 8F70      		andi r24,lo8(15)
 7769 2392 01F4      		brne .L340
 7770               	.LBB1138:
 7771               	.LBB1139:
 7772               	.LM715:
 7773 2394 ED59      		subi r30,lo8(-(99))
 7774 2396 FF4F      		sbci r31,hi8(-(99))
 7775 2398 4083      		st Z,r20
 7776 239a 5183      		std Z+1,r21
 7777 239c 6283      		std Z+2,r22
 7778 239e 7383      		std Z+3,r23
 7779               	.LBE1139:
 7780               	.LBE1138:
 7781               	.LBB1140:
 7782               	.LBB1141:
 7783               	.LBB1142:
 7784               	.LBB1143:
 7785               	.LM716:
 7786               	/* #APP */
 7787               	 ;  344 "timebase.c" 1
 7788 23a0 F894      		cli
 7789               	 ;  0 "" 2
 7790               	/* #NOAPP */
 7791               	.LBE1143:
 7792               	.LBE1142:
 7793               	.LM717:
 7794 23a2 8A85      		ldd r24,Y+10
 7795 23a4 9B85      		ldd r25,Y+11
 7796 23a6 AC85      		ldd r26,Y+12
 7797 23a8 BD85      		ldd r27,Y+13
 7798               	.LVL461:
 7799               	.LBB1144:
 7800               	.LBB1145:
 7801               	.LM718:
 7802               	/* #APP */
 7803               	 ;  348 "timebase.c" 1
 7804 23aa 7894      		sei
 7805               	 ;  0 "" 2
 7806               	/* #NOAPP */
 7807               	.LBE1145:
 7808               	.LBE1144:
 7809               	.LBE1141:
 7810               	.LBE1140:
 7811               	.LBB1146:
 7812               	.LBB1147:
 7813               	.LM719:
 7814 23ac 2DE0      		ldi r18,lo8(13)
 7815 23ae 30E0      		ldi r19,hi8(13)
 7816 23b0 029F      		mul r16,r18
 7817 23b2 F001      		movw r30,r0
 7818 23b4 039F      		mul r16,r19
 7819 23b6 F00D      		add r31,r0
 7820 23b8 129F      		mul r17,r18
 7821 23ba F00D      		add r31,r0
 7822 23bc 1124      		clr r1
 7823 23be EC0F      		add r30,r28
 7824 23c0 FD1F      		adc r31,r29
 7825 23c2 E15A      		subi r30,lo8(-(95))
 7826 23c4 FF4F      		sbci r31,hi8(-(95))
 7827 23c6 840F      		add r24,r20
 7828 23c8 951F      		adc r25,r21
 7829 23ca A61F      		adc r26,r22
 7830 23cc B71F      		adc r27,r23
 7831 23ce 8083      		st Z,r24
 7832 23d0 9183      		std Z+1,r25
 7833 23d2 A283      		std Z+2,r26
 7834 23d4 B383      		std Z+3,r27
 7835               	.LBE1147:
 7836               	.LBE1146:
 7837               	.LBB1148:
 7838               	.LBB1149:
 7839               	.LM720:
 7840 23d6 9291      		ld r25,-Z
 7841 23d8 892F      		mov r24,r25
 7842               	.LVL462:
 7843 23da 8695      		lsr r24
 7844 23dc 8F70      		andi r24,lo8(15)
 7845 23de 8130      		cpi r24,lo8(1)
 7846 23e0 01F0      		breq .L340
 7847               	.LBB1150:
 7848               	.LBB1151:
 7849               	.LM721:
 7850 23e2 917E      		andi r25,lo8(-31)
 7851 23e4 9260      		ori r25,lo8(2)
 7852 23e6 9083      		st Z,r25
 7853               	.L340:
 7854               	/* epilogue start */
 7855               	.LBE1151:
 7856               	.LBE1150:
 7857               	.LBE1149:
 7858               	.LBE1148:
 7859               	.LM722:
 7860 23e8 DF91      		pop r29
 7861 23ea CF91      		pop r28
 7862 23ec 1F91      		pop r17
 7863 23ee 0F91      		pop r16
 7864 23f0 0895      		ret
 7865               	.LFE130:
 7867               	.global	Timebase_DownCounter_Set_Forcefully
 7869               	Timebase_DownCounter_Set_Forcefully:
 7870               	.LFB131:
 7871               	.LM723:
 7872               	.LVL463:
 7873 23f2 CF93      		push r28
 7874 23f4 DF93      		push r29
 7875               	/* prologue: function */
 7876               	/* frame size = 0 */
 7877               	.LBB1152:
 7878               	.LBB1153:
 7879               	.LBB1154:
 7880               	.LBB1155:
 7881               	.LM724:
 7882 23f6 E091 0000 		lds r30,Timebase
 7883 23fa F091 0000 		lds r31,(Timebase)+1
 7884 23fe A82F      		mov r26,r24
 7885 2400 B0E0      		ldi r27,lo8(0)
 7886 2402 2DE0      		ldi r18,lo8(13)
 7887 2404 30E0      		ldi r19,hi8(13)
 7888 2406 E901      		movw r28,r18
 7889 2408 AC9F      		mul r26,r28
 7890 240a 9001      		movw r18,r0
 7891 240c AD9F      		mul r26,r29
 7892 240e 300D      		add r19,r0
 7893 2410 BC9F      		mul r27,r28
 7894 2412 300D      		add r19,r0
 7895 2414 1124      		clr r1
 7896 2416 E20F      		add r30,r18
 7897 2418 F31F      		adc r31,r19
 7898 241a E15A      		subi r30,lo8(-(95))
 7899 241c FF4F      		sbci r31,hi8(-(95))
 7900 241e 1192      		st Z+,__zero_reg__
 7901 2420 1192      		st Z+,__zero_reg__
 7902 2422 1192      		st Z+,__zero_reg__
 7903 2424 1192      		st Z+,__zero_reg__
 7904               	.LBE1155:
 7905               	.LBE1154:
 7906               	.LBB1156:
 7907               	.LBB1157:
 7908               	.LM725:
 7909 2426 1082      		st Z,__zero_reg__
 7910 2428 1182      		std Z+1,__zero_reg__
 7911 242a 1282      		std Z+2,__zero_reg__
 7912 242c 1382      		std Z+3,__zero_reg__
 7913               	.LBE1157:
 7914               	.LBE1156:
 7915               	.LBB1158:
 7916               	.LBB1159:
 7917               	.LM726:
 7918 242e 3597      		sbiw r30,5
 7919 2430 9081      		ld r25,Z
 7920               	.LBE1159:
 7921               	.LBE1158:
 7922               	.LBB1160:
 7923               	.LBB1161:
 7924               	.LM727:
 7925 2432 907E      		andi r25,lo8(-32)
 7926 2434 9083      		st Z,r25
 7927               	.LBE1161:
 7928               	.LBE1160:
 7929               	.LBE1153:
 7930               	.LBE1152:
 7931               	.LM728:
 7932 2436 0E94 0000 		call Timebase_DownCounter_Set_Securely
 7933               	.LVL464:
 7934               	/* epilogue start */
 7935               	.LM729:
 7936 243a DF91      		pop r29
 7937 243c CF91      		pop r28
 7938 243e 0895      		ret
 7939               	.LFE131:
 7941               	.global	Timebase_DownCounter_Update
 7943               	Timebase_DownCounter_Update:
 7944               	.LFB132:
 7945               	.LM730:
 7946               	.LVL465:
 7947 2440 CF93      		push r28
 7948 2442 DF93      		push r29
 7949               	/* prologue: function */
 7950               	/* frame size = 0 */
 7951               	.LBB1162:
 7952               	.LBB1163:
 7953               	.LM731:
 7954 2444 C091 0000 		lds r28,Timebase
 7955 2448 D091 0000 		lds r29,(Timebase)+1
 7956 244c 682F      		mov r22,r24
 7957 244e 70E0      		ldi r23,lo8(0)
 7958 2450 8DE0      		ldi r24,lo8(13)
 7959 2452 90E0      		ldi r25,hi8(13)
 7960               	.LVL466:
 7961 2454 689F      		mul r22,r24
 7962 2456 F001      		movw r30,r0
 7963 2458 699F      		mul r22,r25
 7964 245a F00D      		add r31,r0
 7965 245c 789F      		mul r23,r24
 7966 245e F00D      		add r31,r0
 7967 2460 1124      		clr r1
 7968 2462 EC0F      		add r30,r28
 7969 2464 FD1F      		adc r31,r29
 7970 2466 E25A      		subi r30,lo8(-(94))
 7971 2468 FF4F      		sbci r31,hi8(-(94))
 7972 246a E081      		ld r30,Z
 7973 246c E695      		lsr r30
 7974 246e EF70      		andi r30,lo8(15)
 7975               	.LBE1163:
 7976               	.LBE1162:
 7977               	.LM732:
 7978 2470 E130      		cpi r30,lo8(1)
 7979 2472 01F4      		brne .L344
 7980               	.LBB1164:
 7981               	.LBB1165:
 7982               	.LBB1166:
 7983               	.LBB1167:
 7984               	.LM733:
 7985               	/* #APP */
 7986               	 ;  344 "timebase.c" 1
 7987 2474 F894      		cli
 7988               	 ;  0 "" 2
 7989               	/* #NOAPP */
 7990               	.LBE1167:
 7991               	.LBE1166:
 7992               	.LM734:
 7993 2476 2A85      		ldd r18,Y+10
 7994 2478 3B85      		ldd r19,Y+11
 7995 247a 4C85      		ldd r20,Y+12
 7996 247c 5D85      		ldd r21,Y+13
 7997               	.LVL467:
 7998               	.LBB1168:
 7999               	.LBB1169:
 8000               	.LM735:
 8001               	/* #APP */
 8002               	 ;  348 "timebase.c" 1
 8003 247e 7894      		sei
 8004               	 ;  0 "" 2
 8005               	/* #NOAPP */
 8006               	.LBE1169:
 8007               	.LBE1168:
 8008               	.LBE1165:
 8009               	.LBE1164:
 8010               	.LM736:
 8011 2480 8DE0      		ldi r24,lo8(13)
 8012 2482 90E0      		ldi r25,hi8(13)
 8013 2484 689F      		mul r22,r24
 8014 2486 F001      		movw r30,r0
 8015 2488 699F      		mul r22,r25
 8016 248a F00D      		add r31,r0
 8017 248c 789F      		mul r23,r24
 8018 248e F00D      		add r31,r0
 8019 2490 1124      		clr r1
 8020 2492 EC0F      		add r30,r28
 8021 2494 FD1F      		adc r31,r29
 8022 2496 BF01      		movw r22,r30
 8023 2498 615A      		subi r22,lo8(-(95))
 8024 249a 7F4F      		sbci r23,hi8(-(95))
 8025 249c EB01      		movw r28,r22
 8026 249e 8881      		ld r24,Y
 8027 24a0 9981      		ldd r25,Y+1
 8028 24a2 AA81      		ldd r26,Y+2
 8029 24a4 BB81      		ldd r27,Y+3
 8030 24a6 821B      		sub r24,r18
 8031 24a8 930B      		sbc r25,r19
 8032 24aa A40B      		sbc r26,r20
 8033 24ac B50B      		sbc r27,r21
 8034               	.LBB1170:
 8035               	.LBB1171:
 8036               	.LM737:
 8037 24ae EF01      		movw r28,r30
 8038 24b0 CD59      		subi r28,lo8(-(99))
 8039 24b2 DF4F      		sbci r29,hi8(-(99))
 8040 24b4 8883      		st Y,r24
 8041 24b6 9983      		std Y+1,r25
 8042 24b8 AA83      		std Y+2,r26
 8043 24ba BB83      		std Y+3,r27
 8044               	.LBE1171:
 8045               	.LBE1170:
 8046               	.LM738:
 8047 24bc 1816      		cp __zero_reg__,r24
 8048 24be 1906      		cpc __zero_reg__,r25
 8049 24c0 1A06      		cpc __zero_reg__,r26
 8050 24c2 1B06      		cpc __zero_reg__,r27
 8051 24c4 04F0      		brlt .L346
 8052               	.LBB1172:
 8053               	.LBB1173:
 8054               	.LBB1174:
 8055               	.LBB1175:
 8056               	.LM739:
 8057 24c6 DB01      		movw r26,r22
 8058 24c8 1D92      		st X+,__zero_reg__
 8059 24ca 1D92      		st X+,__zero_reg__
 8060 24cc 1D92      		st X+,__zero_reg__
 8061 24ce 1C92      		st X,__zero_reg__
 8062 24d0 1397      		sbiw r26,3
 8063               	.LBE1175:
 8064               	.LBE1174:
 8065               	.LBB1176:
 8066               	.LBB1177:
 8067               	.LM740:
 8068 24d2 1882      		st Y,__zero_reg__
 8069 24d4 1982      		std Y+1,__zero_reg__
 8070 24d6 1A82      		std Y+2,__zero_reg__
 8071 24d8 1B82      		std Y+3,__zero_reg__
 8072               	.LBE1177:
 8073               	.LBE1176:
 8074               	.LBB1178:
 8075               	.LBB1179:
 8076               	.LM741:
 8077 24da E25A      		subi r30,lo8(-(94))
 8078 24dc FF4F      		sbci r31,hi8(-(94))
 8079 24de 8081      		ld r24,Z
 8080               	.LBE1179:
 8081               	.LBE1178:
 8082               	.LBE1173:
 8083               	.LBE1172:
 8084               	.LBB1180:
 8085               	.LBB1181:
 8086               	.LM742:
 8087 24e0 807E      		andi r24,lo8(-32)
 8088 24e2 8860      		ori r24,lo8(8)
 8089 24e4 8083      		st Z,r24
 8090 24e6 00C0      		rjmp .L346
 8091               	.LVL468:
 8092               	.L344:
 8093               	.LBE1181:
 8094               	.LBE1180:
 8095               	.LM743:
 8096 24e8 E230      		cpi r30,lo8(2)
 8097 24ea 01F4      		brne .L346
 8098               	.LBB1182:
 8099               	.LBB1183:
 8100               	.LBB1184:
 8101               	.LBB1185:
 8102               	.LM744:
 8103               	/* #APP */
 8104               	 ;  344 "timebase.c" 1
 8105 24ec F894      		cli
 8106               	 ;  0 "" 2
 8107               	/* #NOAPP */
 8108               	.LBE1185:
 8109               	.LBE1184:
 8110               	.LM745:
 8111 24ee 8A85      		ldd r24,Y+10
 8112 24f0 9B85      		ldd r25,Y+11
 8113 24f2 AC85      		ldd r26,Y+12
 8114 24f4 BD85      		ldd r27,Y+13
 8115               	.LVL469:
 8116               	.LBB1186:
 8117               	.LBB1187:
 8118               	.LM746:
 8119               	/* #APP */
 8120               	 ;  348 "timebase.c" 1
 8121 24f6 7894      		sei
 8122               	 ;  0 "" 2
 8123               	/* #NOAPP */
 8124               	.LBE1187:
 8125               	.LBE1186:
 8126               	.LBE1183:
 8127               	.LBE1182:
 8128               	.LBB1188:
 8129               	.LBB1189:
 8130               	.LM747:
 8131 24f8 2DE0      		ldi r18,lo8(13)
 8132 24fa 30E0      		ldi r19,hi8(13)
 8133 24fc 629F      		mul r22,r18
 8134 24fe F001      		movw r30,r0
 8135 2500 639F      		mul r22,r19
 8136 2502 F00D      		add r31,r0
 8137 2504 729F      		mul r23,r18
 8138 2506 F00D      		add r31,r0
 8139 2508 1124      		clr r1
 8140 250a EC0F      		add r30,r28
 8141 250c FD1F      		adc r31,r29
 8142 250e ED59      		subi r30,lo8(-(99))
 8143 2510 FF4F      		sbci r31,hi8(-(99))
 8144 2512 2081      		ld r18,Z
 8145 2514 3181      		ldd r19,Z+1
 8146 2516 4281      		ldd r20,Z+2
 8147 2518 5381      		ldd r21,Z+3
 8148 251a 820F      		add r24,r18
 8149 251c 931F      		adc r25,r19
 8150 251e A41F      		adc r26,r20
 8151 2520 B51F      		adc r27,r21
 8152 2522 B293      		st -Z,r27
 8153 2524 A293      		st -Z,r26
 8154 2526 9293      		st -Z,r25
 8155 2528 8293      		st -Z,r24
 8156               	.LVL470:
 8157               	.L346:
 8158               	/* epilogue start */
 8159               	.LBE1189:
 8160               	.LBE1188:
 8161               	.LM748:
 8162 252a DF91      		pop r29
 8163 252c CF91      		pop r28
 8164 252e 0895      		ret
 8165               	.LFE132:
 8167               	.global	Timebase_DownCounter_Expired
 8169               	Timebase_DownCounter_Expired:
 8170               	.LFB133:
 8171               	.LM749:
 8172               	.LVL471:
 8173               	/* prologue: function */
 8174               	/* frame size = 0 */
 8175               	.LM750:
 8176 2530 40E0      		ldi r20,lo8(0)
 8177 2532 E091 0000 		lds r30,Timebase
 8178 2536 F091 0000 		lds r31,(Timebase)+1
 8179 253a 90E0      		ldi r25,lo8(0)
 8180               	.LVL472:
 8181 253c 2DE0      		ldi r18,lo8(13)
 8182 253e 30E0      		ldi r19,hi8(13)
 8183 2540 BC01      		movw r22,r24
 8184 2542 629F      		mul r22,r18
 8185 2544 C001      		movw r24,r0
 8186 2546 639F      		mul r22,r19
 8187 2548 900D      		add r25,r0
 8188 254a 729F      		mul r23,r18
 8189 254c 900D      		add r25,r0
 8190 254e 1124      		clr r1
 8191               	.LVL473:
 8192 2550 E80F      		add r30,r24
 8193 2552 F91F      		adc r31,r25
 8194 2554 E25A      		subi r30,lo8(-(94))
 8195 2556 FF4F      		sbci r31,hi8(-(94))
 8196 2558 8081      		ld r24,Z
 8197 255a 8695      		lsr r24
 8198 255c 8F70      		andi r24,lo8(15)
 8199 255e 8430      		cpi r24,lo8(4)
 8200 2560 01F4      		brne .L348
 8201 2562 41E0      		ldi r20,lo8(1)
 8202               	.L348:
 8203               	.LM751:
 8204 2564 842F      		mov r24,r20
 8205               	/* epilogue start */
 8206 2566 0895      		ret
 8207               	.LFE133:
 8209               	.global	Timebase_DownCounter_Expired_Event
 8211               	Timebase_DownCounter_Expired_Event:
 8212               	.LFB134:
 8213               	.LM752:
 8214               	.LVL474:
 8215               	/* prologue: function */
 8216               	/* frame size = 0 */
 8217               	.LBB1190:
 8218               	.LBB1191:
 8219               	.LM753:
 8220 2568 E091 0000 		lds r30,Timebase
 8221 256c F091 0000 		lds r31,(Timebase)+1
 8222 2570 90E0      		ldi r25,lo8(0)
 8223               	.LBE1191:
 8224               	.LBE1190:
 8225               	.LM754:
 8226 2572 2DE0      		ldi r18,lo8(13)
 8227 2574 30E0      		ldi r19,hi8(13)
 8228 2576 AC01      		movw r20,r24
 8229               	.LVL475:
 8230 2578 429F      		mul r20,r18
 8231 257a C001      		movw r24,r0
 8232 257c 439F      		mul r20,r19
 8233 257e 900D      		add r25,r0
 8234 2580 529F      		mul r21,r18
 8235 2582 900D      		add r25,r0
 8236 2584 1124      		clr r1
 8237 2586 E80F      		add r30,r24
 8238 2588 F91F      		adc r31,r25
 8239 258a DF01      		movw r26,r30
 8240 258c A25A      		subi r26,lo8(-(94))
 8241 258e BF4F      		sbci r27,hi8(-(94))
 8242 2590 8C91      		ld r24,X
 8243 2592 8695      		lsr r24
 8244 2594 8F70      		andi r24,lo8(15)
 8245 2596 8430      		cpi r24,lo8(4)
 8246 2598 01F0      		breq .L351
 8247 259a 80E0      		ldi r24,lo8(0)
 8248 259c 0895      		ret
 8249               	.L351:
 8250               	.LBB1192:
 8251               	.LBB1193:
 8252               	.LBB1194:
 8253               	.LBB1195:
 8254               	.LBB1196:
 8255               	.LBB1197:
 8256               	.LM755:
 8257 259e E15A      		subi r30,lo8(-(95))
 8258 25a0 FF4F      		sbci r31,hi8(-(95))
 8259 25a2 1192      		st Z+,__zero_reg__
 8260 25a4 1192      		st Z+,__zero_reg__
 8261 25a6 1192      		st Z+,__zero_reg__
 8262 25a8 1192      		st Z+,__zero_reg__
 8263               	.LBE1197:
 8264               	.LBE1196:
 8265               	.LBB1198:
 8266               	.LBB1199:
 8267               	.LM756:
 8268 25aa 1082      		st Z,__zero_reg__
 8269 25ac 1182      		std Z+1,__zero_reg__
 8270 25ae 1282      		std Z+2,__zero_reg__
 8271 25b0 1382      		std Z+3,__zero_reg__
 8272               	.LBE1199:
 8273               	.LBE1198:
 8274               	.LBB1200:
 8275               	.LBB1201:
 8276               	.LM757:
 8277 25b2 8C91      		ld r24,X
 8278               	.LBE1201:
 8279               	.LBE1200:
 8280               	.LBB1202:
 8281               	.LBB1203:
 8282               	.LM758:
 8283 25b4 807E      		andi r24,lo8(-32)
 8284 25b6 8C93      		st X,r24
 8285 25b8 81E0      		ldi r24,lo8(1)
 8286               	.LBE1203:
 8287               	.LBE1202:
 8288               	.LBE1195:
 8289               	.LBE1194:
 8290               	.LBE1193:
 8291               	.LBE1192:
 8292               	.LM759:
 8293 25ba 0895      		ret
 8294               	.LFE134:
 8296               	.global	Timebase_DownCounter_Set_Period_Value_Securely
 8298               	Timebase_DownCounter_Set_Period_Value_Securely:
 8299               	.LFB135:
 8300               	.LM760:
 8301               	.LVL476:
 8302 25bc CF93      		push r28
 8303 25be DF93      		push r29
 8304               	/* prologue: function */
 8305               	/* frame size = 0 */
 8306               	.LBB1204:
 8307               	.LBB1205:
 8308               	.LM761:
 8309 25c0 C091 0000 		lds r28,Timebase
 8310 25c4 D091 0000 		lds r29,(Timebase)+1
 8311 25c8 282F      		mov r18,r24
 8312 25ca 30E0      		ldi r19,lo8(0)
 8313               	.LBE1205:
 8314               	.LBE1204:
 8315               	.LM762:
 8316 25cc 8DE0      		ldi r24,lo8(13)
 8317 25ce 90E0      		ldi r25,hi8(13)
 8318               	.LVL477:
 8319 25d0 289F      		mul r18,r24
 8320 25d2 F001      		movw r30,r0
 8321 25d4 299F      		mul r18,r25
 8322 25d6 F00D      		add r31,r0
 8323 25d8 389F      		mul r19,r24
 8324 25da F00D      		add r31,r0
 8325 25dc 1124      		clr r1
 8326 25de EC0F      		add r30,r28
 8327 25e0 FD1F      		adc r31,r29
 8328 25e2 E25A      		subi r30,lo8(-(94))
 8329 25e4 FF4F      		sbci r31,hi8(-(94))
 8330 25e6 8081      		ld r24,Z
 8331 25e8 EE55      		subi r30,lo8(-(-94))
 8332 25ea F040      		sbci r31,hi8(-(-94))
 8333 25ec 80FD      		sbrc r24,0
 8334 25ee 00C0      		rjmp .L358
 8335               	.LM763:
 8336 25f0 ED59      		subi r30,lo8(-(99))
 8337 25f2 FF4F      		sbci r31,hi8(-(99))
 8338 25f4 8191      		ld r24,Z+
 8339 25f6 9191      		ld r25,Z+
 8340 25f8 A191      		ld r26,Z+
 8341 25fa B191      		ld r27,Z+
 8342 25fc 841B      		sub r24,r20
 8343 25fe 950B      		sbc r25,r21
 8344 2600 A60B      		sbc r26,r22
 8345 2602 B70B      		sbc r27,r23
 8346               	.LBB1206:
 8347               	.LBB1207:
 8348               	.LM764:
 8349 2604 B7FF      		sbrs r27,7
 8350 2606 00C0      		rjmp .L356
 8351               	.LM765:
 8352 2608 1082      		st Z,__zero_reg__
 8353 260a 1182      		std Z+1,__zero_reg__
 8354 260c 1282      		std Z+2,__zero_reg__
 8355 260e 1382      		std Z+3,__zero_reg__
 8356 2610 00C0      		rjmp .L357
 8357               	.L356:
 8358               	.LM766:
 8359 2612 8083      		st Z,r24
 8360 2614 9183      		std Z+1,r25
 8361 2616 A283      		std Z+2,r26
 8362 2618 B383      		std Z+3,r27
 8363               	.L357:
 8364               	.LBE1207:
 8365               	.LBE1206:
 8366               	.LBB1208:
 8367               	.LBB1209:
 8368               	.LM767:
 8369 261a 8DE0      		ldi r24,lo8(13)
 8370 261c 90E0      		ldi r25,hi8(13)
 8371 261e 289F      		mul r18,r24
 8372 2620 F001      		movw r30,r0
 8373 2622 299F      		mul r18,r25
 8374 2624 F00D      		add r31,r0
 8375 2626 389F      		mul r19,r24
 8376 2628 F00D      		add r31,r0
 8377 262a 1124      		clr r1
 8378 262c EC0F      		add r30,r28
 8379 262e FD1F      		adc r31,r29
 8380 2630 E25A      		subi r30,lo8(-(94))
 8381 2632 FF4F      		sbci r31,hi8(-(94))
 8382 2634 8081      		ld r24,Z
 8383 2636 8160      		ori r24,lo8(1)
 8384 2638 8083      		st Z,r24
 8385               	.L358:
 8386               	/* epilogue start */
 8387               	.LBE1209:
 8388               	.LBE1208:
 8389               	.LM768:
 8390 263a DF91      		pop r29
 8391 263c CF91      		pop r28
 8392 263e 0895      		ret
 8393               	.LFE135:
 8395               	.global	Timebase_DownCounter_Get_Remaining_Period_Value
 8397               	Timebase_DownCounter_Get_Remaining_Period_Value:
 8398               	.LFB136:
 8399               	.LM769:
 8400               	.LVL478:
 8401               	/* prologue: function */
 8402               	/* frame size = 0 */
 8403               	.LBB1210:
 8404               	.LBB1211:
 8405               	.LM770:
 8406 2640 E091 0000 		lds r30,Timebase
 8407 2644 F091 0000 		lds r31,(Timebase)+1
 8408 2648 90E0      		ldi r25,lo8(0)
 8409               	.LBE1211:
 8410               	.LBE1210:
 8411               	.LM771:
 8412 264a 2DE0      		ldi r18,lo8(13)
 8413 264c 30E0      		ldi r19,hi8(13)
 8414 264e AC01      		movw r20,r24
 8415               	.LVL479:
 8416 2650 429F      		mul r20,r18
 8417 2652 C001      		movw r24,r0
 8418 2654 439F      		mul r20,r19
 8419 2656 900D      		add r25,r0
 8420 2658 529F      		mul r21,r18
 8421 265a 900D      		add r25,r0
 8422 265c 1124      		clr r1
 8423 265e E80F      		add r30,r24
 8424 2660 F91F      		adc r31,r25
 8425 2662 DF01      		movw r26,r30
 8426 2664 A959      		subi r26,lo8(-(103))
 8427 2666 BF4F      		sbci r27,hi8(-(103))
 8428 2668 ED59      		subi r30,lo8(-(99))
 8429 266a FF4F      		sbci r31,hi8(-(99))
 8430 266c 2081      		ld r18,Z
 8431 266e 3181      		ldd r19,Z+1
 8432 2670 4281      		ldd r20,Z+2
 8433 2672 5381      		ldd r21,Z+3
 8434               	.LVL480:
 8435 2674 8D91      		ld r24,X+
 8436 2676 9D91      		ld r25,X+
 8437 2678 0D90      		ld __tmp_reg__,X+
 8438 267a BC91      		ld r27,X
 8439 267c A02D      		mov r26,__tmp_reg__
 8440 267e 281B      		sub r18,r24
 8441 2680 390B      		sbc r19,r25
 8442 2682 4A0B      		sbc r20,r26
 8443 2684 5B0B      		sbc r21,r27
 8444 2686 57FF      		sbrs r21,7
 8445 2688 00C0      		rjmp .L360
 8446 268a 20E0      		ldi r18,lo8(0)
 8447 268c 30E0      		ldi r19,hi8(0)
 8448 268e 40E0      		ldi r20,hlo8(0)
 8449 2690 50E0      		ldi r21,hhi8(0)
 8450               	.L360:
 8451               	.LM772:
 8452 2692 B901      		movw r22,r18
 8453               	.LVL481:
 8454 2694 CA01      		movw r24,r20
 8455               	/* epilogue start */
 8456 2696 0895      		ret
 8457               	.LFE136:
 8459               	.global	Timebase_DownCounter_Period_Value_Expired
 8461               	Timebase_DownCounter_Period_Value_Expired:
 8462               	.LFB137:
 8463               	.LM773:
 8464               	.LVL482:
 8465 2698 CF93      		push r28
 8466 269a DF93      		push r29
 8467               	/* prologue: function */
 8468               	/* frame size = 0 */
 8469               	.LBB1212:
 8470               	.LBB1213:
 8471               	.LBB1214:
 8472               	.LBB1215:
 8473               	.LM774:
 8474 269c C091 0000 		lds r28,Timebase
 8475 26a0 D091 0000 		lds r29,(Timebase)+1
 8476 26a4 682F      		mov r22,r24
 8477 26a6 70E0      		ldi r23,lo8(0)
 8478               	.LBE1215:
 8479               	.LBE1214:
 8480               	.LM775:
 8481 26a8 8DE0      		ldi r24,lo8(13)
 8482 26aa 90E0      		ldi r25,hi8(13)
 8483               	.LVL483:
 8484 26ac 689F      		mul r22,r24
 8485 26ae F001      		movw r30,r0
 8486 26b0 699F      		mul r22,r25
 8487 26b2 F00D      		add r31,r0
 8488 26b4 789F      		mul r23,r24
 8489 26b6 F00D      		add r31,r0
 8490 26b8 1124      		clr r1
 8491 26ba EC0F      		add r30,r28
 8492 26bc FD1F      		adc r31,r29
 8493 26be DF01      		movw r26,r30
 8494 26c0 A959      		subi r26,lo8(-(103))
 8495 26c2 BF4F      		sbci r27,hi8(-(103))
 8496 26c4 ED59      		subi r30,lo8(-(99))
 8497 26c6 FF4F      		sbci r31,hi8(-(99))
 8498 26c8 2081      		ld r18,Z
 8499 26ca 3181      		ldd r19,Z+1
 8500 26cc 4281      		ldd r20,Z+2
 8501 26ce 5381      		ldd r21,Z+3
 8502               	.LVL484:
 8503 26d0 8D91      		ld r24,X+
 8504 26d2 9D91      		ld r25,X+
 8505 26d4 0D90      		ld __tmp_reg__,X+
 8506 26d6 BC91      		ld r27,X
 8507 26d8 A02D      		mov r26,__tmp_reg__
 8508 26da 281B      		sub r18,r24
 8509 26dc 390B      		sbc r19,r25
 8510 26de 4A0B      		sbc r20,r26
 8511 26e0 5B0B      		sbc r21,r27
 8512               	.LM776:
 8513 26e2 57FD      		sbrc r21,7
 8514 26e4 00C0      		rjmp .L363
 8515               	.LBE1213:
 8516               	.LBE1212:
 8517               	.LM777:
 8518 26e6 2115      		cp r18,__zero_reg__
 8519 26e8 3105      		cpc r19,__zero_reg__
 8520 26ea 4105      		cpc r20,__zero_reg__
 8521 26ec 5105      		cpc r21,__zero_reg__
 8522 26ee 01F0      		breq .L363
 8523 26f0 20E0      		ldi r18,lo8(0)
 8524               	.LVL485:
 8525 26f2 00C0      		rjmp .L364
 8526               	.LVL486:
 8527               	.L363:
 8528 26f4 20E0      		ldi r18,lo8(0)
 8529               	.LVL487:
 8530 26f6 8DE0      		ldi r24,lo8(13)
 8531 26f8 90E0      		ldi r25,hi8(13)
 8532 26fa AC01      		movw r20,r24
 8533 26fc 649F      		mul r22,r20
 8534 26fe C001      		movw r24,r0
 8535 2700 659F      		mul r22,r21
 8536 2702 900D      		add r25,r0
 8537 2704 749F      		mul r23,r20
 8538 2706 900D      		add r25,r0
 8539 2708 1124      		clr r1
 8540 270a C80F      		add r28,r24
 8541 270c D91F      		adc r29,r25
 8542 270e C25A      		subi r28,lo8(-(94))
 8543 2710 DF4F      		sbci r29,hi8(-(94))
 8544 2712 8881      		ld r24,Y
 8545 2714 80FF      		sbrs r24,0
 8546 2716 21E0      		ldi r18,lo8(1)
 8547               	.L365:
 8548 2718 81E0      		ldi r24,lo8(1)
 8549 271a 2827      		eor r18,r24
 8550               	.L364:
 8551               	.LM778:
 8552 271c 822F      		mov r24,r18
 8553               	/* epilogue start */
 8554 271e DF91      		pop r29
 8555 2720 CF91      		pop r28
 8556 2722 0895      		ret
 8557               	.LFE137:
 8559               	.global	Timebase_DownCounter_Period_Value_Expired_Event
 8561               	Timebase_DownCounter_Period_Value_Expired_Event:
 8562               	.LFB138:
 8563               	.LM779:
 8564               	.LVL488:
 8565 2724 1F93      		push r17
 8566               	/* prologue: function */
 8567               	/* frame size = 0 */
 8568 2726 182F      		mov r17,r24
 8569               	.LM780:
 8570 2728 0E94 0000 		call Timebase_DownCounter_Period_Value_Expired
 8571               	.LVL489:
 8572 272c 8130      		cpi r24,lo8(1)
 8573 272e 01F0      		breq .L368
 8574 2730 80E0      		ldi r24,lo8(0)
 8575 2732 00C0      		rjmp .L369
 8576               	.L368:
 8577               	.LBB1216:
 8578               	.LBB1217:
 8579               	.LM781:
 8580 2734 E091 0000 		lds r30,Timebase
 8581 2738 F091 0000 		lds r31,(Timebase)+1
 8582 273c 212F      		mov r18,r17
 8583 273e 30E0      		ldi r19,lo8(0)
 8584               	.LVL490:
 8585 2740 8DE0      		ldi r24,lo8(13)
 8586 2742 90E0      		ldi r25,hi8(13)
 8587 2744 AC01      		movw r20,r24
 8588 2746 249F      		mul r18,r20
 8589 2748 C001      		movw r24,r0
 8590 274a 259F      		mul r18,r21
 8591 274c 900D      		add r25,r0
 8592 274e 349F      		mul r19,r20
 8593 2750 900D      		add r25,r0
 8594 2752 1124      		clr r1
 8595 2754 E80F      		add r30,r24
 8596 2756 F91F      		adc r31,r25
 8597 2758 E25A      		subi r30,lo8(-(94))
 8598 275a FF4F      		sbci r31,hi8(-(94))
 8599 275c 8081      		ld r24,Z
 8600 275e 8E7F      		andi r24,lo8(-2)
 8601 2760 8083      		st Z,r24
 8602 2762 81E0      		ldi r24,lo8(1)
 8603               	.L369:
 8604               	/* epilogue start */
 8605               	.LBE1217:
 8606               	.LBE1216:
 8607               	.LM782:
 8608 2764 1F91      		pop r17
 8609               	.LVL491:
 8610 2766 0895      		ret
 8611               	.LFE138:
 8613               	.global	Timebase_DownCounter_Update_All
 8615               	Timebase_DownCounter_Update_All:
 8616               	.LFB139:
 8617               	.LM783:
 8618               	/* prologue: function */
 8619               	/* frame size = 0 */
 8620               	.LBB1218:
 8621               	.LM784:
 8622 2768 80E0      		ldi r24,lo8(0)
 8623 276a 0E94 0000 		call Timebase_DownCounter_Update
 8624               	/* epilogue start */
 8625               	.LBE1218:
 8626               	.LM785:
 8627 276e 0895      		ret
 8628               	.LFE139:
 8630               	.global	Timebase_DownCounter_Reset_All
 8632               	Timebase_DownCounter_Reset_All:
 8633               	.LFB140:
 8634               	.LM786:
 8635               	/* prologue: function */
 8636               	/* frame size = 0 */
 8637               	.LBB1219:
 8638               	.LBB1220:
 8639               	.LBB1221:
 8640               	.LBB1222:
 8641               	.LBB1223:
 8642               	.LM787:
 8643 2770 E091 0000 		lds r30,Timebase
 8644 2774 F091 0000 		lds r31,(Timebase)+1
 8645 2778 E15A      		subi r30,lo8(-(95))
 8646 277a FF4F      		sbci r31,hi8(-(95))
 8647 277c 1192      		st Z+,__zero_reg__
 8648 277e 1192      		st Z+,__zero_reg__
 8649 2780 1192      		st Z+,__zero_reg__
 8650 2782 1192      		st Z+,__zero_reg__
 8651               	.LBE1223:
 8652               	.LBE1222:
 8653               	.LBB1224:
 8654               	.LBB1225:
 8655               	.LM788:
 8656 2784 1082      		st Z,__zero_reg__
 8657 2786 1182      		std Z+1,__zero_reg__
 8658 2788 1282      		std Z+2,__zero_reg__
 8659 278a 1382      		std Z+3,__zero_reg__
 8660               	.LBE1225:
 8661               	.LBE1224:
 8662               	.LBB1226:
 8663               	.LBB1227:
 8664               	.LM789:
 8665 278c 3597      		sbiw r30,5
 8666 278e 8081      		ld r24,Z
 8667               	.LBE1227:
 8668               	.LBE1226:
 8669               	.LBB1228:
 8670               	.LBB1229:
 8671               	.LM790:
 8672 2790 807E      		andi r24,lo8(-32)
 8673 2792 8083      		st Z,r24
 8674               	/* epilogue start */
 8675               	.LBE1229:
 8676               	.LBE1228:
 8677               	.LBE1221:
 8678               	.LBE1220:
 8679               	.LBE1219:
 8680               	.LM791:
 8681 2794 0895      		ret
 8682               	.LFE140:
 8684               	.global	Timebase_Reset
 8686               	Timebase_Reset:
 8687               	.LFB141:
 8688               	.LM792:
 8689               	/* prologue: function */
 8690               	/* frame size = 0 */
 8691               	.LM793:
 8692 2796 0E94 0000 		call Timebase_UpCounter_Reset_All
 8693               	.LM794:
 8694 279a 0E94 0000 		call Timebase_DownCounter_SS_Reset_All
 8695               	.LM795:
 8696 279e 0E94 0000 		call Timebase_DownCounter_Reset_All
 8697               	/* epilogue start */
 8698               	.LM796:
 8699 27a2 0895      		ret
 8700               	.LFE141:
 8702               	.global	Timebase_Init
 8704               	Timebase_Init:
 8705               	.LFB142:
 8706               	.LM797:
 8707               	.LVL492:
 8708 27a4 0F93      		push r16
 8709 27a6 1F93      		push r17
 8710               	/* prologue: function */
 8711               	/* frame size = 0 */
 8712 27a8 8C01      		movw r16,r24
 8713               	.LM798:
 8714 27aa 0E94 0000 		call Timebase_Struct_Init
 8715               	.LVL493:
 8716               	.LM799:
 8717 27ae C801      		movw r24,r16
 8718 27b0 0E94 0000 		call Timebase_Timer_Config
 8719               	.LM800:
 8720 27b4 0E94 0000 		call Timebase_Reset
 8721               	/* epilogue start */
 8722               	.LM801:
 8723 27b8 1F91      		pop r17
 8724 27ba 0F91      		pop r16
 8725               	.LVL494:
 8726 27bc 0895      		ret
 8727               	.LFE142:
 8729               	.global	Timebase_Main_Loop_Executables
 8731               	Timebase_Main_Loop_Executables:
 8732               	.LFB143:
 8733               	.LM802:
 8734               	/* prologue: function */
 8735               	/* frame size = 0 */
 8736               	.LM803:
 8737 27be E091 0000 		lds r30,Timebase
 8738 27c2 F091 0000 		lds r31,(Timebase)+1
 8739 27c6 858D      		ldd r24,Z+29
 8740 27c8 82FF      		sbrs r24,2
 8741 27ca 00C0      		rjmp .L380
 8742               	.LM804:
 8743 27cc 858D      		ldd r24,Z+29
 8744 27ce 8B7F      		andi r24,lo8(-5)
 8745 27d0 858F      		std Z+29,r24
 8746               	.L380:
 8747               	.LM805:
 8748 27d2 858D      		ldd r24,Z+29
 8749 27d4 80FF      		sbrs r24,0
 8750 27d6 00C0      		rjmp .L381
 8751               	.LM806:
 8752 27d8 0E94 0000 		call Timebase_UpCounter_Update_All
 8753               	.LM807:
 8754 27dc E091 0000 		lds r30,Timebase
 8755 27e0 F091 0000 		lds r31,(Timebase)+1
 8756 27e4 858D      		ldd r24,Z+29
 8757 27e6 8E7F      		andi r24,lo8(-2)
 8758 27e8 858F      		std Z+29,r24
 8759               	.L381:
 8760               	.LM808:
 8761 27ea E091 0000 		lds r30,Timebase
 8762 27ee F091 0000 		lds r31,(Timebase)+1
 8763 27f2 858D      		ldd r24,Z+29
 8764 27f4 83FF      		sbrs r24,3
 8765 27f6 00C0      		rjmp .L382
 8766               	.LM809:
 8767 27f8 0E94 0000 		call Timebase_DownCounter_SS_Update_All
 8768               	.LM810:
 8769 27fc E091 0000 		lds r30,Timebase
 8770 2800 F091 0000 		lds r31,(Timebase)+1
 8771 2804 858D      		ldd r24,Z+29
 8772 2806 877F      		andi r24,lo8(-9)
 8773 2808 858F      		std Z+29,r24
 8774               	.L382:
 8775               	.LM811:
 8776 280a E091 0000 		lds r30,Timebase
 8777 280e F091 0000 		lds r31,(Timebase)+1
 8778 2812 858D      		ldd r24,Z+29
 8779 2814 81FF      		sbrs r24,1
 8780 2816 00C0      		rjmp .L384
 8781               	.LM812:
 8782 2818 0E94 0000 		call Timebase_DownCounter_Update_All
 8783               	.LM813:
 8784 281c E091 0000 		lds r30,Timebase
 8785 2820 F091 0000 		lds r31,(Timebase)+1
 8786 2824 858D      		ldd r24,Z+29
 8787 2826 8D7F      		andi r24,lo8(-3)
 8788 2828 858F      		std Z+29,r24
 8789               	.L384:
 8790 282a 0895      		ret
 8791               	.LFE143:
 8793               	.global	Timebase_ISR_Executables
 8795               	Timebase_ISR_Executables:
 8796               	.LFB144:
 8797               	.LM814:
 8798               	/* prologue: function */
 8799               	/* frame size = 0 */
 8800               	.LM815:
 8801 282c E091 0000 		lds r30,Timebase
 8802 2830 F091 0000 		lds r31,(Timebase)+1
 8803 2834 8085      		ldd r24,Z+8
 8804 2836 9185      		ldd r25,Z+9
 8805 2838 0196      		adiw r24,1
 8806 283a 9187      		std Z+9,r25
 8807 283c 8087      		std Z+8,r24
 8808               	.LM816:
 8809 283e 858D      		ldd r24,Z+29
 8810 2840 8460      		ori r24,lo8(4)
 8811 2842 858F      		std Z+29,r24
 8812               	.LM817:
 8813 2844 858D      		ldd r24,Z+29
 8814 2846 8860      		ori r24,lo8(8)
 8815 2848 858F      		std Z+29,r24
 8816               	.LM818:
 8817 284a 8085      		ldd r24,Z+8
 8818 284c 9185      		ldd r25,Z+9
 8819 284e 6181      		ldd r22,Z+1
 8820 2850 7281      		ldd r23,Z+2
 8821 2852 0E94 0000 		call __udivmodhi4
 8822 2856 892B      		or r24,r25
 8823 2858 01F4      		brne .L387
 8824               	.LM819:
 8825 285a 8285      		ldd r24,Z+10
 8826 285c 9385      		ldd r25,Z+11
 8827 285e A485      		ldd r26,Z+12
 8828 2860 B585      		ldd r27,Z+13
 8829 2862 0196      		adiw r24,1
 8830 2864 A11D      		adc r26,__zero_reg__
 8831 2866 B11D      		adc r27,__zero_reg__
 8832 2868 8287      		std Z+10,r24
 8833 286a 9387      		std Z+11,r25
 8834 286c A487      		std Z+12,r26
 8835 286e B587      		std Z+13,r27
 8836               	.LM820:
 8837 2870 1186      		std Z+9,__zero_reg__
 8838 2872 1086      		std Z+8,__zero_reg__
 8839               	.LM821:
 8840 2874 858D      		ldd r24,Z+29
 8841 2876 8160      		ori r24,lo8(1)
 8842 2878 858F      		std Z+29,r24
 8843               	.LM822:
 8844 287a 858D      		ldd r24,Z+29
 8845 287c 8260      		ori r24,lo8(2)
 8846 287e 858F      		std Z+29,r24
 8847               	.L387:
 8848 2880 0895      		ret
 8849               	.LFE144:
 8851               	.global	__vector_16
 8853               	__vector_16:
 8854               	.LFB145:
 8855               	.LM823:
 8856 2882 1F92      		push __zero_reg__
 8857 2884 0F92      		push r0
 8858 2886 0FB6      		in r0,__SREG__
 8859 2888 0F92      		push r0
 8860 288a 1124      		clr __zero_reg__
 8861 288c 2F93      		push r18
 8862 288e 3F93      		push r19
 8863 2890 4F93      		push r20
 8864 2892 5F93      		push r21
 8865 2894 6F93      		push r22
 8866 2896 7F93      		push r23
 8867 2898 8F93      		push r24
 8868 289a 9F93      		push r25
 8869 289c AF93      		push r26
 8870 289e BF93      		push r27
 8871 28a0 EF93      		push r30
 8872 28a2 FF93      		push r31
 8873               	/* prologue: Signal */
 8874               	/* frame size = 0 */
 8875               	.LM824:
 8876 28a4 E091 0000 		lds r30,Timebase
 8877 28a8 F091 0000 		lds r31,(Timebase)+1
 8878 28ac 8381      		ldd r24,Z+3
 8879 28ae 86BD      		out 70-32,r24
 8880               	.LM825:
 8881 28b0 0E94 0000 		call Timebase_ISR_Executables
 8882               	/* epilogue start */
 8883               	.LM826:
 8884 28b4 FF91      		pop r31
 8885 28b6 EF91      		pop r30
 8886 28b8 BF91      		pop r27
 8887 28ba AF91      		pop r26
 8888 28bc 9F91      		pop r25
 8889 28be 8F91      		pop r24
 8890 28c0 7F91      		pop r23
 8891 28c2 6F91      		pop r22
 8892 28c4 5F91      		pop r21
 8893 28c6 4F91      		pop r20
 8894 28c8 3F91      		pop r19
 8895 28ca 2F91      		pop r18
 8896 28cc 0F90      		pop r0
 8897 28ce 0FBE      		out __SREG__,r0
 8898 28d0 0F90      		pop r0
 8899 28d2 1F90      		pop __zero_reg__
 8900 28d4 1895      		reti
 8901               	.LFE145:
 8903               		.data
 8906               	C.2.1696:
 8907 0000 0100      		.word	1
 8908 0002 0800      		.word	8
 8909 0004 4000      		.word	64
 8910 0006 0001      		.word	256
 8911 0008 0004      		.word	1024
 8912               		.comm Timebase_type,107,1
 8913               		.comm Timebase,2,1
 10050               	.Letext0:
DEFINED SYMBOLS
                            *ABS*:00000000 timebase.c
C:\Users\FARIDU~1\AppData\Local\Temp/ccNzTcBk.s:2      *ABS*:0000003f __SREG__
C:\Users\FARIDU~1\AppData\Local\Temp/ccNzTcBk.s:3      *ABS*:0000003e __SP_H__
C:\Users\FARIDU~1\AppData\Local\Temp/ccNzTcBk.s:4      *ABS*:0000003d __SP_L__
C:\Users\FARIDU~1\AppData\Local\Temp/ccNzTcBk.s:5      *ABS*:00000034 __CCP__
C:\Users\FARIDU~1\AppData\Local\Temp/ccNzTcBk.s:6      *ABS*:00000000 __tmp_reg__
C:\Users\FARIDU~1\AppData\Local\Temp/ccNzTcBk.s:7      *ABS*:00000001 __zero_reg__
C:\Users\FARIDU~1\AppData\Local\Temp/ccNzTcBk.s:18     .text:00000000 Timebase_Struct_Init
                            *COM*:0000006b Timebase_type
                            *COM*:00000002 Timebase
C:\Users\FARIDU~1\AppData\Local\Temp/ccNzTcBk.s:187    .text:000001ba Timebase_Timer_Config
C:\Users\FARIDU~1\AppData\Local\Temp/ccNzTcBk.s:8906   .data:00000000 C.2.1696
C:\Users\FARIDU~1\AppData\Local\Temp/ccNzTcBk.s:507    .text:00000354 Timebase_Atomic_Operation_Start
C:\Users\FARIDU~1\AppData\Local\Temp/ccNzTcBk.s:525    .text:00000358 Timebase_Atomic_Operation_End
C:\Users\FARIDU~1\AppData\Local\Temp/ccNzTcBk.s:543    .text:0000035c Timebase_Token_Executing
C:\Users\FARIDU~1\AppData\Local\Temp/ccNzTcBk.s:559    .text:00000368 Timebase_Token_Add
C:\Users\FARIDU~1\AppData\Local\Temp/ccNzTcBk.s:585    .text:0000037e Timebase_Token_Remove
C:\Users\FARIDU~1\AppData\Local\Temp/ccNzTcBk.s:611    .text:00000394 Timebase_Token_Remove_All
C:\Users\FARIDU~1\AppData\Local\Temp/ccNzTcBk.s:627    .text:000003a0 Timebase_Timer_Get_SubSeconds
C:\Users\FARIDU~1\AppData\Local\Temp/ccNzTcBk.s:667    .text:000003b4 Timebase_Timer_Get_Seconds
C:\Users\FARIDU~1\AppData\Local\Temp/ccNzTcBk.s:710    .text:000003ce Timebase_Timer_Set_SubSeconds
C:\Users\FARIDU~1\AppData\Local\Temp/ccNzTcBk.s:748    .text:000003e0 Timebase_Timer_Set_Seconds
C:\Users\FARIDU~1\AppData\Local\Temp/ccNzTcBk.s:788    .text:000003f6 Timebase_Timer_Delay_SubSeconds
C:\Users\FARIDU~1\AppData\Local\Temp/ccNzTcBk.s:1012   .text:000004b6 Timebase_Timer_Await_SubSeconds
C:\Users\FARIDU~1\AppData\Local\Temp/ccNzTcBk.s:1141   .text:00000532 Timebase_Timer_Delay_Seconds
C:\Users\FARIDU~1\AppData\Local\Temp/ccNzTcBk.s:1238   .text:00000574 Timebase_Window_Timer_Reset
C:\Users\FARIDU~1\AppData\Local\Temp/ccNzTcBk.s:1264   .text:00000590 Timebase_Window_Timer_Start
C:\Users\FARIDU~1\AppData\Local\Temp/ccNzTcBk.s:1356   .text:000005cc Timebase_Window_Timer_Get_Interval
C:\Users\FARIDU~1\AppData\Local\Temp/ccNzTcBk.s:1494   .text:0000064e Timebase_Window_Timer_Get_Interval_Reset
C:\Users\FARIDU~1\AppData\Local\Temp/ccNzTcBk.s:1534   .text:00000678 Timebase_UpCounter_SS_Get_Status
C:\Users\FARIDU~1\AppData\Local\Temp/ccNzTcBk.s:1568   .text:000006a2 Timebase_UpCounter_SS_Set_Status
C:\Users\FARIDU~1\AppData\Local\Temp/ccNzTcBk.s:1606   .text:000006d2 Timebase_UpCounter_SS_Get_Value
C:\Users\FARIDU~1\AppData\Local\Temp/ccNzTcBk.s:1649   .text:0000070c Timebase_UpCounter_SS_Set_Value
C:\Users\FARIDU~1\AppData\Local\Temp/ccNzTcBk.s:1684   .text:00000738 Timebase_UpCounter_SS_Get_EndValueSec
C:\Users\FARIDU~1\AppData\Local\Temp/ccNzTcBk.s:1727   .text:00000772 Timebase_UpCounter_SS_Get_EndValueSubSec
C:\Users\FARIDU~1\AppData\Local\Temp/ccNzTcBk.s:1770   .text:000007ac Timebase_UpCounter_SS_Set_EndValueSec
C:\Users\FARIDU~1\AppData\Local\Temp/ccNzTcBk.s:1805   .text:000007d8 Timebase_UpCounter_SS_Set_EndValueSubSec
C:\Users\FARIDU~1\AppData\Local\Temp/ccNzTcBk.s:1840   .text:00000804 Timebase_UpCounter_SS_Get_TargetValue
C:\Users\FARIDU~1\AppData\Local\Temp/ccNzTcBk.s:1883   .text:0000083e Timebase_UpCounter_SS_Set_TargetValue
C:\Users\FARIDU~1\AppData\Local\Temp/ccNzTcBk.s:1918   .text:0000086a Timebase_UpCounter_SS_Get_TemporaryValue
C:\Users\FARIDU~1\AppData\Local\Temp/ccNzTcBk.s:1961   .text:000008a4 Timebase_UpCounter_SS_Set_TemporaryValue
C:\Users\FARIDU~1\AppData\Local\Temp/ccNzTcBk.s:1996   .text:000008d0 Timebase_UpCounter_SS_Get_PeriodValue
C:\Users\FARIDU~1\AppData\Local\Temp/ccNzTcBk.s:2039   .text:0000090a Timebase_UpCounter_SS_Set_PeriodValue
C:\Users\FARIDU~1\AppData\Local\Temp/ccNzTcBk.s:2074   .text:00000936 Timebase_UpCounter_SS_Get_Period_Flag
C:\Users\FARIDU~1\AppData\Local\Temp/ccNzTcBk.s:2107   .text:0000095e Timebase_UpCounter_SS_Set_Period_Flag
C:\Users\FARIDU~1\AppData\Local\Temp/ccNzTcBk.s:2141   .text:00000988 Timebase_UpCounter_SS_Clear_Period_Flag
C:\Users\FARIDU~1\AppData\Local\Temp/ccNzTcBk.s:2175   .text:000009b2 Timebase_UpCounter_SS_Reset
C:\Users\FARIDU~1\AppData\Local\Temp/ccNzTcBk.s:2271   .text:00000a0c Timebase_UpCounter_SS_Clear_All_Flags
C:\Users\FARIDU~1\AppData\Local\Temp/ccNzTcBk.s:2287   .text:00000a12 Timebase_UpCounter_SS_Start
C:\Users\FARIDU~1\AppData\Local\Temp/ccNzTcBk.s:2335   .text:00000a48 Timebase_UpCounter_SS_Stop
C:\Users\FARIDU~1\AppData\Local\Temp/ccNzTcBk.s:2383   .text:00000a7e Timebase_UpCounter_SS_Set_Securely
C:\Users\FARIDU~1\AppData\Local\Temp/ccNzTcBk.s:2718   .text:00000c06 Timebase_UpCounter_SS_Set_Forcefully
C:\Users\FARIDU~1\AppData\Local\Temp/ccNzTcBk.s:2754   .text:00000c30 Timebase_UpCounter_SS_Update
C:\Users\FARIDU~1\AppData\Local\Temp/ccNzTcBk.s:2972   .text:00000d26 Timebase_UpCounter_SS_Expired
C:\Users\FARIDU~1\AppData\Local\Temp/ccNzTcBk.s:3012   .text:00000d5a Timebase_UpCounter_SS_Expired_Event
C:\Users\FARIDU~1\AppData\Local\Temp/ccNzTcBk.s:3061   .text:00000d98 Timebase_UpCounter_SS_Set_Period_Value_Securely
C:\Users\FARIDU~1\AppData\Local\Temp/ccNzTcBk.s:3123   .text:00000de0 Timebase_UpCounter_SS_Get_Remaining_Period_Value
C:\Users\FARIDU~1\AppData\Local\Temp/ccNzTcBk.s:3181   .text:00000e2c Timebase_UpCounter_SS_Period_Value_Expired
C:\Users\FARIDU~1\AppData\Local\Temp/ccNzTcBk.s:3273   .text:00000ea8 Timebase_UpCounter_SS_Period_Value_Expired_Event
C:\Users\FARIDU~1\AppData\Local\Temp/ccNzTcBk.s:3325   .text:00000ee8 Timebase_UpCounter_SS_Update_All
C:\Users\FARIDU~1\AppData\Local\Temp/ccNzTcBk.s:3342   .text:00000ef0 Timebase_UpCounter_SS_Reset_All
C:\Users\FARIDU~1\AppData\Local\Temp/ccNzTcBk.s:3359   .text:00000ef8 Timebase_UpCounter_Get_Status
C:\Users\FARIDU~1\AppData\Local\Temp/ccNzTcBk.s:3393   .text:00000f22 Timebase_UpCounter_Set_Status
C:\Users\FARIDU~1\AppData\Local\Temp/ccNzTcBk.s:3431   .text:00000f52 Timebase_UpCounter_Get_Value
C:\Users\FARIDU~1\AppData\Local\Temp/ccNzTcBk.s:3469   .text:00000f82 Timebase_UpCounter_Set_Value
C:\Users\FARIDU~1\AppData\Local\Temp/ccNzTcBk.s:3506   .text:00000fb2 Timebase_UpCounter_Get_EndValue
C:\Users\FARIDU~1\AppData\Local\Temp/ccNzTcBk.s:3549   .text:00000fec Timebase_UpCounter_Set_EndValue
C:\Users\FARIDU~1\AppData\Local\Temp/ccNzTcBk.s:3584   .text:00001018 Timebase_UpCounter_Get_TargetValue
C:\Users\FARIDU~1\AppData\Local\Temp/ccNzTcBk.s:3621   .text:00001046 Timebase_UpCounter_Set_TargetValue
C:\Users\FARIDU~1\AppData\Local\Temp/ccNzTcBk.s:3657   .text:00001074 Timebase_UpCounter_Get_TemporaryValue
C:\Users\FARIDU~1\AppData\Local\Temp/ccNzTcBk.s:3695   .text:000010a4 Timebase_UpCounter_Set_TemporaryValue
C:\Users\FARIDU~1\AppData\Local\Temp/ccNzTcBk.s:3732   .text:000010d4 Timebase_UpCounter_Get_PeriodValue
C:\Users\FARIDU~1\AppData\Local\Temp/ccNzTcBk.s:3770   .text:00001104 Timebase_UpCounter_Set_PeriodValue
C:\Users\FARIDU~1\AppData\Local\Temp/ccNzTcBk.s:3807   .text:00001134 Timebase_UpCounter_Get_Period_Flag
C:\Users\FARIDU~1\AppData\Local\Temp/ccNzTcBk.s:3840   .text:0000115c Timebase_UpCounter_Set_Period_Flag
C:\Users\FARIDU~1\AppData\Local\Temp/ccNzTcBk.s:3874   .text:00001186 Timebase_UpCounter_Clear_Period_Flag
C:\Users\FARIDU~1\AppData\Local\Temp/ccNzTcBk.s:3908   .text:000011b0 Timebase_UpCounter_Reset
C:\Users\FARIDU~1\AppData\Local\Temp/ccNzTcBk.s:4003   .text:00001212 Timebase_UpCounter_Clear_All_Flags
C:\Users\FARIDU~1\AppData\Local\Temp/ccNzTcBk.s:4019   .text:00001218 Timebase_UpCounter_Start
C:\Users\FARIDU~1\AppData\Local\Temp/ccNzTcBk.s:4067   .text:0000124e Timebase_UpCounter_Stop
C:\Users\FARIDU~1\AppData\Local\Temp/ccNzTcBk.s:4115   .text:00001284 Timebase_UpCounter_Set_Securely
C:\Users\FARIDU~1\AppData\Local\Temp/ccNzTcBk.s:4266   .text:00001320 Timebase_UpCounter_Set_Forcefully
C:\Users\FARIDU~1\AppData\Local\Temp/ccNzTcBk.s:4302   .text:0000134a Timebase_UpCounter_Update
C:\Users\FARIDU~1\AppData\Local\Temp/ccNzTcBk.s:4580   .text:00001498 Timebase_UpCounter_Expired
C:\Users\FARIDU~1\AppData\Local\Temp/ccNzTcBk.s:4620   .text:000014cc Timebase_UpCounter_Expired_Event
C:\Users\FARIDU~1\AppData\Local\Temp/ccNzTcBk.s:4669   .text:0000150a Timebase_UpCounter_Set_Period_Value_Securely
C:\Users\FARIDU~1\AppData\Local\Temp/ccNzTcBk.s:4744   .text:00001568 Timebase_UpCounter_Get_Remaining_Period_Value
C:\Users\FARIDU~1\AppData\Local\Temp/ccNzTcBk.s:4808   .text:000015c0 Timebase_UpCounter_Period_Value_Expired
C:\Users\FARIDU~1\AppData\Local\Temp/ccNzTcBk.s:4906   .text:00001648 Timebase_UpCounter_Period_Value_Expired_Event
C:\Users\FARIDU~1\AppData\Local\Temp/ccNzTcBk.s:4958   .text:00001688 Timebase_UpCounter_Update_All
C:\Users\FARIDU~1\AppData\Local\Temp/ccNzTcBk.s:4975   .text:00001690 Timebase_UpCounter_Reset_All
C:\Users\FARIDU~1\AppData\Local\Temp/ccNzTcBk.s:4992   .text:00001698 Timebase_DownCounter_SS_Get_Status
C:\Users\FARIDU~1\AppData\Local\Temp/ccNzTcBk.s:5026   .text:000016c2 Timebase_DownCounter_SS_Set_Status
C:\Users\FARIDU~1\AppData\Local\Temp/ccNzTcBk.s:5064   .text:000016f2 Timebase_DownCounter_SS_Get_Value
C:\Users\FARIDU~1\AppData\Local\Temp/ccNzTcBk.s:5100   .text:0000171e Timebase_DownCounter_SS_Set_Value
C:\Users\FARIDU~1\AppData\Local\Temp/ccNzTcBk.s:5134   .text:0000174a Timebase_DownCounter_SS_Get_EndValueSec
C:\Users\FARIDU~1\AppData\Local\Temp/ccNzTcBk.s:5170   .text:00001776 Timebase_DownCounter_SS_Get_EndValueSubSec
C:\Users\FARIDU~1\AppData\Local\Temp/ccNzTcBk.s:5206   .text:000017a2 Timebase_DownCounter_SS_Set_EndValueSec
C:\Users\FARIDU~1\AppData\Local\Temp/ccNzTcBk.s:5240   .text:000017ce Timebase_DownCounter_SS_Set_EndValueSubSec
C:\Users\FARIDU~1\AppData\Local\Temp/ccNzTcBk.s:5274   .text:000017fa Timebase_DownCounter_SS_Get_PeriodValue
C:\Users\FARIDU~1\AppData\Local\Temp/ccNzTcBk.s:5310   .text:00001826 Timebase_DownCounter_SS_Set_PeriodValue
C:\Users\FARIDU~1\AppData\Local\Temp/ccNzTcBk.s:5367   .text:0000187a Timebase_DownCounter_SS_Get_Period_Flag
C:\Users\FARIDU~1\AppData\Local\Temp/ccNzTcBk.s:5400   .text:000018a2 Timebase_DownCounter_SS_Set_Period_Flag
C:\Users\FARIDU~1\AppData\Local\Temp/ccNzTcBk.s:5434   .text:000018cc Timebase_DownCounter_SS_Clear_Period_Flag
C:\Users\FARIDU~1\AppData\Local\Temp/ccNzTcBk.s:5468   .text:000018f6 Timebase_DownCounter_SS_Reset
C:\Users\FARIDU~1\AppData\Local\Temp/ccNzTcBk.s:5539   .text:0000193c Timebase_DownCounter_SS_Clear_All_Flags
C:\Users\FARIDU~1\AppData\Local\Temp/ccNzTcBk.s:5614   .text:00001982 Timebase_DownCounter_SS_Start
C:\Users\FARIDU~1\AppData\Local\Temp/ccNzTcBk.s:5662   .text:000019b8 Timebase_DownCounter_SS_Stop
C:\Users\FARIDU~1\AppData\Local\Temp/ccNzTcBk.s:5710   .text:000019ee Timebase_DownCounter_SS_Set_Securely
C:\Users\FARIDU~1\AppData\Local\Temp/ccNzTcBk.s:6013   .text:00001b72 Timebase_DownCounter_SS_Set_Forcefully
C:\Users\FARIDU~1\AppData\Local\Temp/ccNzTcBk.s:6091   .text:00001bbe Timebase_DownCounter_SS_Update
C:\Users\FARIDU~1\AppData\Local\Temp/ccNzTcBk.s:6543   .text:00001dd0 Timebase_DownCounter_SS_Expired
C:\Users\FARIDU~1\AppData\Local\Temp/ccNzTcBk.s:6583   .text:00001e04 Timebase_DownCounter_SS_Expired_Event
C:\Users\FARIDU~1\AppData\Local\Temp/ccNzTcBk.s:6678   .text:00001e5e Timebase_DownCounter_SS_Set_Period_Value_Securely
C:\Users\FARIDU~1\AppData\Local\Temp/ccNzTcBk.s:6775   .text:00001ede Timebase_DownCounter_SS_Get_Remaining_Period_Value
C:\Users\FARIDU~1\AppData\Local\Temp/ccNzTcBk.s:6837   .text:00001f32 Timebase_DownCounter_SS_Period_Value_Expired
C:\Users\FARIDU~1\AppData\Local\Temp/ccNzTcBk.s:6934   .text:00001fb8 Timebase_DownCounter_SS_Period_Value_Expired_Event
C:\Users\FARIDU~1\AppData\Local\Temp/ccNzTcBk.s:6986   .text:00001ff8 Timebase_DownCounter_SS_Update_All
C:\Users\FARIDU~1\AppData\Local\Temp/ccNzTcBk.s:7003   .text:00002000 Timebase_DownCounter_SS_Reset_All
C:\Users\FARIDU~1\AppData\Local\Temp/ccNzTcBk.s:7067   .text:00002030 Timebase_DownCounter_Get_Status
C:\Users\FARIDU~1\AppData\Local\Temp/ccNzTcBk.s:7103   .text:0000205e Timebase_DownCounter_Set_Status
C:\Users\FARIDU~1\AppData\Local\Temp/ccNzTcBk.s:7143   .text:00002092 Timebase_DownCounter_Get_Value
C:\Users\FARIDU~1\AppData\Local\Temp/ccNzTcBk.s:7181   .text:000020c2 Timebase_DownCounter_Set_Value
C:\Users\FARIDU~1\AppData\Local\Temp/ccNzTcBk.s:7218   .text:000020f2 Timebase_DownCounter_Get_EndValue
C:\Users\FARIDU~1\AppData\Local\Temp/ccNzTcBk.s:7256   .text:00002122 Timebase_DownCounter_Set_EndValue
C:\Users\FARIDU~1\AppData\Local\Temp/ccNzTcBk.s:7293   .text:00002152 Timebase_DownCounter_Get_PeriodValue
C:\Users\FARIDU~1\AppData\Local\Temp/ccNzTcBk.s:7331   .text:00002182 Timebase_DownCounter_Set_PeriodValue
C:\Users\FARIDU~1\AppData\Local\Temp/ccNzTcBk.s:7393   .text:000021de Timebase_DownCounter_Get_Period_Flag
C:\Users\FARIDU~1\AppData\Local\Temp/ccNzTcBk.s:7428   .text:0000220a Timebase_DownCounter_Set_Period_Flag
C:\Users\FARIDU~1\AppData\Local\Temp/ccNzTcBk.s:7464   .text:00002238 Timebase_DownCounter_Clear_Period_Flag
C:\Users\FARIDU~1\AppData\Local\Temp/ccNzTcBk.s:7500   .text:00002266 Timebase_DownCounter_Reset
C:\Users\FARIDU~1\AppData\Local\Temp/ccNzTcBk.s:7563   .text:000022a6 Timebase_DownCounter_Clear_All_Flags
C:\Users\FARIDU~1\AppData\Local\Temp/ccNzTcBk.s:7630   .text:000022e6 Timebase_DownCounter_Start
C:\Users\FARIDU~1\AppData\Local\Temp/ccNzTcBk.s:7680   .text:00002320 Timebase_DownCounter_Stop
C:\Users\FARIDU~1\AppData\Local\Temp/ccNzTcBk.s:7730   .text:0000235a Timebase_DownCounter_Set_Securely
C:\Users\FARIDU~1\AppData\Local\Temp/ccNzTcBk.s:7869   .text:000023f2 Timebase_DownCounter_Set_Forcefully
C:\Users\FARIDU~1\AppData\Local\Temp/ccNzTcBk.s:7943   .text:00002440 Timebase_DownCounter_Update
C:\Users\FARIDU~1\AppData\Local\Temp/ccNzTcBk.s:8169   .text:00002530 Timebase_DownCounter_Expired
C:\Users\FARIDU~1\AppData\Local\Temp/ccNzTcBk.s:8211   .text:00002568 Timebase_DownCounter_Expired_Event
C:\Users\FARIDU~1\AppData\Local\Temp/ccNzTcBk.s:8298   .text:000025bc Timebase_DownCounter_Set_Period_Value_Securely
C:\Users\FARIDU~1\AppData\Local\Temp/ccNzTcBk.s:8397   .text:00002640 Timebase_DownCounter_Get_Remaining_Period_Value
C:\Users\FARIDU~1\AppData\Local\Temp/ccNzTcBk.s:8461   .text:00002698 Timebase_DownCounter_Period_Value_Expired
C:\Users\FARIDU~1\AppData\Local\Temp/ccNzTcBk.s:8561   .text:00002724 Timebase_DownCounter_Period_Value_Expired_Event
C:\Users\FARIDU~1\AppData\Local\Temp/ccNzTcBk.s:8615   .text:00002768 Timebase_DownCounter_Update_All
C:\Users\FARIDU~1\AppData\Local\Temp/ccNzTcBk.s:8632   .text:00002770 Timebase_DownCounter_Reset_All
C:\Users\FARIDU~1\AppData\Local\Temp/ccNzTcBk.s:8686   .text:00002796 Timebase_Reset
C:\Users\FARIDU~1\AppData\Local\Temp/ccNzTcBk.s:8704   .text:000027a4 Timebase_Init
C:\Users\FARIDU~1\AppData\Local\Temp/ccNzTcBk.s:8731   .text:000027be Timebase_Main_Loop_Executables
C:\Users\FARIDU~1\AppData\Local\Temp/ccNzTcBk.s:8795   .text:0000282c Timebase_ISR_Executables
C:\Users\FARIDU~1\AppData\Local\Temp/ccNzTcBk.s:8853   .text:00002882 __vector_16

UNDEFINED SYMBOLS
__divmodsi4
__mulsi3
__udivmodhi4
__do_copy_data
__do_clear_bss
