   1               		.file	"timebase.c"
   2               	__SREG__ = 0x3f
   3               	__SP_H__ = 0x3e
   4               	__SP_L__ = 0x3d
   5               	__CCP__  = 0x34
   6               	__tmp_reg__ = 0
   7               	__zero_reg__ = 1
  15               	.Ltext0:
  16               	.global	Timebase_Struct_Init
  18               	Timebase_Struct_Init:
  19               	.LFB6:
  20               	.LM1:
  21               	/* prologue: function */
  22               	/* frame size = 0 */
  23               	.LM2:
  24 0000 80E0      		ldi r24,lo8(Timebase_type)
  25 0002 90E0      		ldi r25,hi8(Timebase_type)
  26 0004 9093 0000 		sts (Timebase)+1,r25
  27 0008 8093 0000 		sts Timebase,r24
  28               	.LM3:
  29 000c 1092 0000 		sts Timebase_type,__zero_reg__
  30               	.LM4:
  31 0010 8091 0000 		lds r24,Timebase_type
  32 0014 8460      		ori r24,lo8(4)
  33 0016 8093 0000 		sts Timebase_type,r24
  34               	.LM5:
  35 001a 8091 0000 		lds r24,Timebase_type
  36 001e 8770      		andi r24,lo8(7)
  37 0020 8093 0000 		sts Timebase_type,r24
  38               	.LM6:
  39 0024 81E0      		ldi r24,lo8(1)
  40 0026 90E0      		ldi r25,hi8(1)
  41 0028 9093 0000 		sts (Timebase_type+1)+1,r25
  42 002c 8093 0000 		sts Timebase_type+1,r24
  43               	.LM7:
  44 0030 1092 0000 		sts Timebase_type+3,__zero_reg__
  45               	.LM8:
  46 0034 1092 0000 		sts (Timebase_type+14)+1,__zero_reg__
  47 0038 1092 0000 		sts Timebase_type+14,__zero_reg__
  48               	.LM9:
  49 003c 1092 0000 		sts Timebase_type+16,__zero_reg__
  50 0040 1092 0000 		sts (Timebase_type+16)+1,__zero_reg__
  51 0044 1092 0000 		sts (Timebase_type+16)+2,__zero_reg__
  52 0048 1092 0000 		sts (Timebase_type+16)+3,__zero_reg__
  53               	.LM10:
  54 004c 1092 0000 		sts (Timebase_type+8)+1,__zero_reg__
  55 0050 1092 0000 		sts Timebase_type+8,__zero_reg__
  56               	.LM11:
  57 0054 1092 0000 		sts Timebase_type+10,__zero_reg__
  58 0058 1092 0000 		sts (Timebase_type+10)+1,__zero_reg__
  59 005c 1092 0000 		sts (Timebase_type+10)+2,__zero_reg__
  60 0060 1092 0000 		sts (Timebase_type+10)+3,__zero_reg__
  61               	.LM12:
  62 0064 1092 0000 		sts Timebase_type+4,__zero_reg__
  63 0068 1092 0000 		sts (Timebase_type+4)+1,__zero_reg__
  64 006c 1092 0000 		sts (Timebase_type+4)+2,__zero_reg__
  65 0070 1092 0000 		sts (Timebase_type+4)+3,__zero_reg__
  66               	.LM13:
  67 0074 1092 0000 		sts Timebase_type+20,__zero_reg__
  68 0078 1092 0000 		sts (Timebase_type+20)+1,__zero_reg__
  69 007c 1092 0000 		sts (Timebase_type+20)+2,__zero_reg__
  70 0080 1092 0000 		sts (Timebase_type+20)+3,__zero_reg__
  71               	.LM14:
  72 0084 1092 0000 		sts Timebase_type+24,__zero_reg__
  73 0088 1092 0000 		sts (Timebase_type+24)+1,__zero_reg__
  74 008c 1092 0000 		sts (Timebase_type+24)+2,__zero_reg__
  75 0090 1092 0000 		sts (Timebase_type+24)+3,__zero_reg__
  76               	.LM15:
  77 0094 1092 0000 		sts Timebase_type+28,__zero_reg__
  78               	.LM16:
  79 0098 1092 0000 		sts Timebase_type+29,__zero_reg__
  80               	.LM17:
  81 009c 1092 0000 		sts Timebase_type+30,__zero_reg__
  82               	.LBB574:
  83               	.LM18:
  84 00a0 1092 0000 		sts Timebase_type+56,__zero_reg__
  85               	.LM19:
  86 00a4 1092 0000 		sts Timebase_type+57,__zero_reg__
  87 00a8 1092 0000 		sts (Timebase_type+57)+1,__zero_reg__
  88 00ac 1092 0000 		sts (Timebase_type+57)+2,__zero_reg__
  89 00b0 1092 0000 		sts (Timebase_type+57)+3,__zero_reg__
  90               	.LM20:
  91 00b4 1092 0000 		sts Timebase_type+61,__zero_reg__
  92 00b8 1092 0000 		sts (Timebase_type+61)+1,__zero_reg__
  93 00bc 1092 0000 		sts (Timebase_type+61)+2,__zero_reg__
  94 00c0 1092 0000 		sts (Timebase_type+61)+3,__zero_reg__
  95               	.LM21:
  96 00c4 1092 0000 		sts Timebase_type+65,__zero_reg__
  97 00c8 1092 0000 		sts (Timebase_type+65)+1,__zero_reg__
  98 00cc 1092 0000 		sts (Timebase_type+65)+2,__zero_reg__
  99 00d0 1092 0000 		sts (Timebase_type+65)+3,__zero_reg__
 100               	.LM22:
 101 00d4 1092 0000 		sts Timebase_type+69,__zero_reg__
 102 00d8 1092 0000 		sts (Timebase_type+69)+1,__zero_reg__
 103 00dc 1092 0000 		sts (Timebase_type+69)+2,__zero_reg__
 104 00e0 1092 0000 		sts (Timebase_type+69)+3,__zero_reg__
 105               	.LM23:
 106 00e4 1092 0000 		sts Timebase_type+73,__zero_reg__
 107 00e8 1092 0000 		sts (Timebase_type+73)+1,__zero_reg__
 108 00ec 1092 0000 		sts (Timebase_type+73)+2,__zero_reg__
 109 00f0 1092 0000 		sts (Timebase_type+73)+3,__zero_reg__
 110               	.LBE574:
 111               	.LBB575:
 112               	.LM24:
 113 00f4 1092 0000 		sts Timebase_type+31,__zero_reg__
 114               	.LM25:
 115 00f8 1092 0000 		sts Timebase_type+32,__zero_reg__
 116 00fc 1092 0000 		sts (Timebase_type+32)+1,__zero_reg__
 117 0100 1092 0000 		sts (Timebase_type+32)+2,__zero_reg__
 118 0104 1092 0000 		sts (Timebase_type+32)+3,__zero_reg__
 119               	.LM26:
 120 0108 1092 0000 		sts Timebase_type+36,__zero_reg__
 121 010c 1092 0000 		sts (Timebase_type+36)+1,__zero_reg__
 122 0110 1092 0000 		sts (Timebase_type+36)+2,__zero_reg__
 123 0114 1092 0000 		sts (Timebase_type+36)+3,__zero_reg__
 124               	.LM27:
 125 0118 1092 0000 		sts Timebase_type+40,__zero_reg__
 126 011c 1092 0000 		sts (Timebase_type+40)+1,__zero_reg__
 127 0120 1092 0000 		sts (Timebase_type+40)+2,__zero_reg__
 128 0124 1092 0000 		sts (Timebase_type+40)+3,__zero_reg__
 129               	.LM28:
 130 0128 1092 0000 		sts Timebase_type+44,__zero_reg__
 131 012c 1092 0000 		sts (Timebase_type+44)+1,__zero_reg__
 132 0130 1092 0000 		sts (Timebase_type+44)+2,__zero_reg__
 133 0134 1092 0000 		sts (Timebase_type+44)+3,__zero_reg__
 134               	.LM29:
 135 0138 1092 0000 		sts Timebase_type+48,__zero_reg__
 136 013c 1092 0000 		sts (Timebase_type+48)+1,__zero_reg__
 137 0140 1092 0000 		sts (Timebase_type+48)+2,__zero_reg__
 138 0144 1092 0000 		sts (Timebase_type+48)+3,__zero_reg__
 139               	.LM30:
 140 0148 1092 0000 		sts Timebase_type+52,__zero_reg__
 141 014c 1092 0000 		sts (Timebase_type+52)+1,__zero_reg__
 142 0150 1092 0000 		sts (Timebase_type+52)+2,__zero_reg__
 143 0154 1092 0000 		sts (Timebase_type+52)+3,__zero_reg__
 144               	.LBE575:
 145               	.LBB576:
 146               	.LM31:
 147 0158 1092 0000 		sts Timebase_type+94,__zero_reg__
 148               	.LM32:
 149 015c 1092 0000 		sts Timebase_type+95,__zero_reg__
 150 0160 1092 0000 		sts (Timebase_type+95)+1,__zero_reg__
 151 0164 1092 0000 		sts (Timebase_type+95)+2,__zero_reg__
 152 0168 1092 0000 		sts (Timebase_type+95)+3,__zero_reg__
 153               	.LM33:
 154 016c 1092 0000 		sts Timebase_type+99,__zero_reg__
 155 0170 1092 0000 		sts (Timebase_type+99)+1,__zero_reg__
 156 0174 1092 0000 		sts (Timebase_type+99)+2,__zero_reg__
 157 0178 1092 0000 		sts (Timebase_type+99)+3,__zero_reg__
 158               	.LM34:
 159 017c 1092 0000 		sts Timebase_type+103,__zero_reg__
 160 0180 1092 0000 		sts (Timebase_type+103)+1,__zero_reg__
 161 0184 1092 0000 		sts (Timebase_type+103)+2,__zero_reg__
 162 0188 1092 0000 		sts (Timebase_type+103)+3,__zero_reg__
 163               	.LBE576:
 164               	.LBB577:
 165               	.LM35:
 166 018c 1092 0000 		sts Timebase_type+77,__zero_reg__
 167               	.LM36:
 168 0190 1092 0000 		sts Timebase_type+78,__zero_reg__
 169 0194 1092 0000 		sts (Timebase_type+78)+1,__zero_reg__
 170 0198 1092 0000 		sts (Timebase_type+78)+2,__zero_reg__
 171 019c 1092 0000 		sts (Timebase_type+78)+3,__zero_reg__
 172               	.LM37:
 173 01a0 1092 0000 		sts Timebase_type+82,__zero_reg__
 174 01a4 1092 0000 		sts (Timebase_type+82)+1,__zero_reg__
 175 01a8 1092 0000 		sts (Timebase_type+82)+2,__zero_reg__
 176 01ac 1092 0000 		sts (Timebase_type+82)+3,__zero_reg__
 177               	.LM38:
 178 01b0 1092 0000 		sts Timebase_type+86,__zero_reg__
 179 01b4 1092 0000 		sts (Timebase_type+86)+1,__zero_reg__
 180 01b8 1092 0000 		sts (Timebase_type+86)+2,__zero_reg__
 181 01bc 1092 0000 		sts (Timebase_type+86)+3,__zero_reg__
 182               	.LM39:
 183 01c0 1092 0000 		sts Timebase_type+90,__zero_reg__
 184 01c4 1092 0000 		sts (Timebase_type+90)+1,__zero_reg__
 185 01c8 1092 0000 		sts (Timebase_type+90)+2,__zero_reg__
 186 01cc 1092 0000 		sts (Timebase_type+90)+3,__zero_reg__
 187               	/* epilogue start */
 188               	.LBE577:
 189               	.LM40:
 190 01d0 0895      		ret
 191               	.LFE6:
 193               	.global	Timebase_Timer_Config
 195               	Timebase_Timer_Config:
 196               	.LFB7:
 197               	.LM41:
 198               	.LVL0:
 199 01d2 7F92      		push r7
 200 01d4 8F92      		push r8
 201 01d6 9F92      		push r9
 202 01d8 AF92      		push r10
 203 01da BF92      		push r11
 204 01dc CF92      		push r12
 205 01de DF92      		push r13
 206 01e0 EF92      		push r14
 207 01e2 FF92      		push r15
 208 01e4 0F93      		push r16
 209 01e6 1F93      		push r17
 210 01e8 DF93      		push r29
 211 01ea CF93      		push r28
 212 01ec CDB7      		in r28,__SP_L__
 213 01ee DEB7      		in r29,__SP_H__
 214 01f0 2A97      		sbiw r28,10
 215 01f2 0FB6      		in __tmp_reg__,__SREG__
 216 01f4 F894      		cli
 217 01f6 DEBF      		out __SP_H__,r29
 218 01f8 0FBE      		out __SREG__,__tmp_reg__
 219 01fa CDBF      		out __SP_L__,r28
 220               	/* prologue: function */
 221               	/* frame size = 10 */
 222 01fc 8C01      		movw r16,r24
 223               	.LM42:
 224 01fe C090 0000 		lds r12,Timebase
 225 0202 D090 0000 		lds r13,(Timebase)+1
 226 0206 F601      		movw r30,r12
 227 0208 8081      		ld r24,Z
 228               	.LVL1:
 229 020a 80FF      		sbrs r24,0
 230 020c 00C0      		rjmp .L4
 231               	.LBB578:
 232               	.LM43:
 233 020e 0130      		cpi r16,1
 234 0210 1105      		cpc r17,__zero_reg__
 235 0212 01F4      		brne .L5
 236 0214 96E0      		ldi r25,lo8(6)
 237               	.LVL2:
 238 0216 00C0      		rjmp .L6
 239               	.LVL3:
 240               	.L5:
 241               	.LM44:
 242 0218 0230      		cpi r16,2
 243 021a 1105      		cpc r17,__zero_reg__
 244 021c 01F4      		brne .L7
 245 021e 95E0      		ldi r25,lo8(5)
 246               	.LVL4:
 247 0220 00C0      		rjmp .L6
 248               	.LVL5:
 249               	.L7:
 250               	.LM45:
 251 0222 0430      		cpi r16,4
 252 0224 1105      		cpc r17,__zero_reg__
 253 0226 01F4      		brne .L8
 254 0228 94E0      		ldi r25,lo8(4)
 255               	.LVL6:
 256 022a 00C0      		rjmp .L6
 257               	.LVL7:
 258               	.L8:
 259               	.LM46:
 260 022c 0830      		cpi r16,8
 261 022e 1105      		cpc r17,__zero_reg__
 262 0230 01F4      		brne .L9
 263 0232 93E0      		ldi r25,lo8(3)
 264               	.LVL8:
 265 0234 00C0      		rjmp .L6
 266               	.LVL9:
 267               	.L9:
 268               	.LM47:
 269 0236 0031      		cpi r16,16
 270 0238 1105      		cpc r17,__zero_reg__
 271 023a 01F4      		brne .L10
 272 023c 92E0      		ldi r25,lo8(2)
 273               	.LVL10:
 274 023e 00C0      		rjmp .L6
 275               	.LVL11:
 276               	.L10:
 277 0240 90E0      		ldi r25,lo8(0)
 278               	.LVL12:
 279 0242 0032      		cpi r16,32
 280 0244 1105      		cpc r17,__zero_reg__
 281 0246 01F4      		brne .L6
 282 0248 91E0      		ldi r25,lo8(1)
 283               	.L6:
 284               	.LM48:
 285               	/* #APP */
 286               	 ;  271 "timebase.c" 1
 287 024a F894      		cli
 288               	 ;  0 "" 2
 289               	.LM49:
 290               	/* #NOAPP */
 291 024c 84B7      		in r24,84-32
 292 024e 877F      		andi r24,lo8(-9)
 293 0250 84BF      		out 84-32,r24
 294               	.LM50:
 295 0252 8091 6000 		lds r24,96
 296 0256 8068      		ori r24,lo8(-128)
 297 0258 8093 6000 		sts 96,r24
 298               	.LM51:
 299 025c 8091 6000 		lds r24,96
 300 0260 8861      		ori r24,lo8(24)
 301 0262 8093 6000 		sts 96,r24
 302               	.LM52:
 303 0266 9064      		ori r25,lo8(64)
 304 0268 9093 6000 		sts 96,r25
 305               	.LM53:
 306               	/* #APP */
 307               	 ;  276 "timebase.c" 1
 308 026c 7894      		sei
 309               	 ;  0 "" 2
 310               	/* #NOAPP */
 311 026e 00C0      		rjmp .L12
 312               	.LVL13:
 313               	.L4:
 314               	.LBE578:
 315               	.LM54:
 316 0270 81FD      		sbrc r24,1
 317 0272 00C0      		rjmp .L12
 318               	.LM55:
 319 0274 82FF      		sbrs r24,2
 320 0276 00C0      		rjmp .L12
 321               	.LBB579:
 322               	.LM56:
 323 0278 DE01      		movw r26,r28
 324 027a 1196      		adiw r26,1
 325 027c E0E0      		ldi r30,lo8(C.2.1702)
 326 027e F0E0      		ldi r31,hi8(C.2.1702)
 327 0280 8AE0      		ldi r24,lo8(10)
 328               	.L13:
 329 0282 0190      		ld r0,Z+
 330 0284 0D92      		st X+,r0
 331 0286 8150      		subi r24,lo8(-(-1))
 332 0288 01F4      		brne .L13
 333               	.LM57:
 334 028a 9801      		movw r18,r16
 335 028c 40E0      		ldi r20,lo8(0)
 336 028e 50E0      		ldi r21,hi8(0)
 337               	.LVL14:
 338 0290 60E0      		ldi r22,lo8(12000000)
 339 0292 7BE1      		ldi r23,hi8(12000000)
 340 0294 87EB      		ldi r24,hlo8(12000000)
 341 0296 90E0      		ldi r25,hhi8(12000000)
 342 0298 0E94 0000 		call __divmodsi4
 343 029c 722E      		mov r7,r18
 344 029e 832E      		mov r8,r19
 345 02a0 942E      		mov r9,r20
 346               	.LVL15:
 347 02a2 E52E      		mov r14,r21
 348 02a4 5E01      		movw r10,r28
 349 02a6 0894      		sec
 350 02a8 A11C      		adc r10,__zero_reg__
 351 02aa B11C      		adc r11,__zero_reg__
 352 02ac C901      		movw r24,r18
 353 02ae DA01      		movw r26,r20
 354 02b0 9C01      		movw r18,r24
 355 02b2 AD01      		movw r20,r26
 356               	.LVL16:
 357 02b4 FF24      		clr r15
 358               	.LVL17:
 359 02b6 00C0      		rjmp .L14
 360               	.LVL18:
 361               	.L16:
 362               	.LM58:
 363 02b8 F501      		movw r30,r10
 364 02ba 2191      		ld r18,Z+
 365 02bc 3191      		ld r19,Z+
 366               	.LVL19:
 367 02be 5F01      		movw r10,r30
 368 02c0 40E0      		ldi r20,lo8(0)
 369 02c2 50E0      		ldi r21,hi8(0)
 370 02c4 672D      		mov r22,r7
 371 02c6 782D      		mov r23,r8
 372 02c8 892D      		mov r24,r9
 373               	.LVL20:
 374 02ca 9E2D      		mov r25,r14
 375 02cc 0E94 0000 		call __divmodsi4
 376 02d0 C901      		movw r24,r18
 377 02d2 DA01      		movw r26,r20
 378 02d4 9C01      		movw r18,r24
 379 02d6 AD01      		movw r20,r26
 380               	.LVL21:
 381               	.LM59:
 382 02d8 F394      		inc r15
 383               	.LM60:
 384 02da F5E0      		ldi r31,lo8(5)
 385 02dc FF16      		cp r15,r31
 386 02de 01F0      		breq .L15
 387               	.LVL22:
 388               	.L14:
 389               	.LM61:
 390 02e0 2F3F      		cpi r18,lo8(255)
 391 02e2 3105      		cpc r19,__zero_reg__
 392 02e4 4105      		cpc r20,__zero_reg__
 393 02e6 5105      		cpc r21,__zero_reg__
 394 02e8 01F0      		breq .+2
 395 02ea 04F4      		brge .L16
 396               	.L15:
 397               	.LM62:
 398 02ec 8F2D      		mov r24,r15
 399 02ee 8150      		subi r24,lo8(-(-1))
 400               	.LVL23:
 401               	.LM63:
 402 02f0 14BC      		out 68-32,__zero_reg__
 403               	.LM64:
 404 02f2 15BC      		out 69-32,__zero_reg__
 405               	.LM65:
 406 02f4 1092 6E00 		sts 110,__zero_reg__
 407               	.LM66:
 408 02f8 15BA      		out 53-32,__zero_reg__
 409               	.LM67:
 410 02fa 17BC      		out 71-32,__zero_reg__
 411               	.LM68:
 412 02fc 18BC      		out 72-32,__zero_reg__
 413               	.LM69:
 414 02fe 16BC      		out 70-32,__zero_reg__
 415               	.LM70:
 416 0300 17BC      		out 71-32,__zero_reg__
 417               	.LM71:
 418 0302 8823      		tst r24
 419 0304 01F4      		brne .L17
 420               	.LM72:
 421 0306 81E0      		ldi r24,lo8(1)
 422               	.LVL24:
 423 0308 00C0      		rjmp .L24
 424               	.LVL25:
 425               	.L17:
 426               	.LM73:
 427 030a 8130      		cpi r24,lo8(1)
 428 030c 01F4      		brne .L19
 429               	.LM74:
 430 030e 82E0      		ldi r24,lo8(2)
 431               	.LVL26:
 432 0310 00C0      		rjmp .L24
 433               	.LVL27:
 434               	.L19:
 435               	.LM75:
 436 0312 8230      		cpi r24,lo8(2)
 437 0314 01F4      		brne .L20
 438               	.LM76:
 439 0316 83E0      		ldi r24,lo8(3)
 440               	.LVL28:
 441 0318 00C0      		rjmp .L24
 442               	.LVL29:
 443               	.L20:
 444               	.LM77:
 445 031a 8330      		cpi r24,lo8(3)
 446 031c 01F4      		brne .L21
 447               	.LM78:
 448 031e 84E0      		ldi r24,lo8(4)
 449               	.LVL30:
 450 0320 00C0      		rjmp .L24
 451               	.LVL31:
 452               	.L21:
 453               	.LM79:
 454 0322 8430      		cpi r24,lo8(4)
 455 0324 01F4      		brne .L18
 456               	.LM80:
 457 0326 85E0      		ldi r24,lo8(5)
 458               	.LVL32:
 459               	.L24:
 460 0328 85BD      		out 69-32,r24
 461               	.LVL33:
 462               	.L18:
 463               	.LM81:
 464 032a 822F      		mov r24,r18
 465               	.LVL34:
 466 032c 8095      		com r24
 467 032e F601      		movw r30,r12
 468 0330 8383      		std Z+3,r24
 469               	.LM82:
 470 0332 8381      		ldd r24,Z+3
 471 0334 86BD      		out 70-32,r24
 472               	.LM83:
 473 0336 81E0      		ldi r24,lo8(1)
 474 0338 8093 6E00 		sts 110,r24
 475               	.LM84:
 476               	/* #APP */
 477               	 ;  324 "timebase.c" 1
 478 033c 7894      		sei
 479               	 ;  0 "" 2
 480               	.LVL35:
 481               	/* #NOAPP */
 482               	.L12:
 483               	.LBE579:
 484               	.LM85:
 485 033e F601      		movw r30,r12
 486 0340 1283      		std Z+2,r17
 487 0342 0183      		std Z+1,r16
 488               	/* epilogue start */
 489               	.LM86:
 490 0344 2A96      		adiw r28,10
 491 0346 0FB6      		in __tmp_reg__,__SREG__
 492 0348 F894      		cli
 493 034a DEBF      		out __SP_H__,r29
 494 034c 0FBE      		out __SREG__,__tmp_reg__
 495 034e CDBF      		out __SP_L__,r28
 496 0350 CF91      		pop r28
 497 0352 DF91      		pop r29
 498 0354 1F91      		pop r17
 499 0356 0F91      		pop r16
 500               	.LVL36:
 501 0358 FF90      		pop r15
 502 035a EF90      		pop r14
 503 035c DF90      		pop r13
 504 035e CF90      		pop r12
 505 0360 BF90      		pop r11
 506 0362 AF90      		pop r10
 507 0364 9F90      		pop r9
 508 0366 8F90      		pop r8
 509 0368 7F90      		pop r7
 510 036a 0895      		ret
 511               	.LFE7:
 513               	.global	Timebase_Atomic_Operation_Start
 515               	Timebase_Atomic_Operation_Start:
 516               	.LFB8:
 517               	.LM87:
 518               	/* prologue: function */
 519               	/* frame size = 0 */
 520               	.LM88:
 521               	/* #APP */
 522               	 ;  344 "timebase.c" 1
 523 036c F894      		cli
 524               	 ;  0 "" 2
 525               	/* epilogue start */
 526               	.LM89:
 527               	/* #NOAPP */
 528 036e 0895      		ret
 529               	.LFE8:
 531               	.global	Timebase_Atomic_Operation_End
 533               	Timebase_Atomic_Operation_End:
 534               	.LFB9:
 535               	.LM90:
 536               	/* prologue: function */
 537               	/* frame size = 0 */
 538               	.LM91:
 539               	/* #APP */
 540               	 ;  348 "timebase.c" 1
 541 0370 7894      		sei
 542               	 ;  0 "" 2
 543               	/* epilogue start */
 544               	.LM92:
 545               	/* #NOAPP */
 546 0372 0895      		ret
 547               	.LFE9:
 549               	.global	Timebase_Token_Executing
 551               	Timebase_Token_Executing:
 552               	.LFB10:
 553               	.LM93:
 554               	/* prologue: function */
 555               	/* frame size = 0 */
 556               	.LM94:
 557 0374 E091 0000 		lds r30,Timebase
 558 0378 F091 0000 		lds r31,(Timebase)+1
 559 037c 868D      		ldd r24,Z+30
 560               	/* epilogue start */
 561               	.LM95:
 562 037e 0895      		ret
 563               	.LFE10:
 565               	.global	Timebase_Token_Add
 567               	Timebase_Token_Add:
 568               	.LFB11:
 569               	.LM96:
 570               	/* prologue: function */
 571               	/* frame size = 0 */
 572               	.LBB580:
 573               	.LBB581:
 574               	.LM97:
 575 0380 E091 0000 		lds r30,Timebase
 576 0384 F091 0000 		lds r31,(Timebase)+1
 577 0388 868D      		ldd r24,Z+30
 578               	.LBE581:
 579               	.LBE580:
 580               	.LM98:
 581 038a 8F33      		cpi r24,lo8(63)
 582 038c 00F4      		brsh .L33
 583               	.LM99:
 584 038e 868D      		ldd r24,Z+30
 585 0390 8F5F      		subi r24,lo8(-(1))
 586 0392 868F      		std Z+30,r24
 587               	.L33:
 588 0394 0895      		ret
 589               	.LFE11:
 591               	.global	Timebase_Token_Remove
 593               	Timebase_Token_Remove:
 594               	.LFB12:
 595               	.LM100:
 596               	/* prologue: function */
 597               	/* frame size = 0 */
 598               	.LBB582:
 599               	.LBB583:
 600               	.LM101:
 601 0396 E091 0000 		lds r30,Timebase
 602 039a F091 0000 		lds r31,(Timebase)+1
 603 039e 868D      		ldd r24,Z+30
 604               	.LBE583:
 605               	.LBE582:
 606               	.LM102:
 607 03a0 8823      		tst r24
 608 03a2 01F0      		breq .L36
 609               	.LM103:
 610 03a4 868D      		ldd r24,Z+30
 611 03a6 8150      		subi r24,lo8(-(-1))
 612 03a8 868F      		std Z+30,r24
 613               	.L36:
 614 03aa 0895      		ret
 615               	.LFE12:
 617               	.global	Timebase_Token_Remove_All
 619               	Timebase_Token_Remove_All:
 620               	.LFB13:
 621               	.LM104:
 622               	/* prologue: function */
 623               	/* frame size = 0 */
 624               	.LM105:
 625 03ac E091 0000 		lds r30,Timebase
 626 03b0 F091 0000 		lds r31,(Timebase)+1
 627 03b4 168E      		std Z+30,__zero_reg__
 628               	/* epilogue start */
 629               	.LM106:
 630 03b6 0895      		ret
 631               	.LFE13:
 633               	.global	Timebase_Timer_Get_SubSecondsShadow
 635               	Timebase_Timer_Get_SubSecondsShadow:
 636               	.LFB14:
 637               	.LM107:
 638               	/* prologue: function */
 639               	/* frame size = 0 */
 640               	.LM108:
 641 03b8 E091 0000 		lds r30,Timebase
 642 03bc F091 0000 		lds r31,(Timebase)+1
 643 03c0 2685      		ldd r18,Z+14
 644 03c2 3785      		ldd r19,Z+15
 645               	.LM109:
 646 03c4 C901      		movw r24,r18
 647               	/* epilogue start */
 648 03c6 0895      		ret
 649               	.LFE14:
 651               	.global	Timebase_Timer_Get_SecondsShadow
 653               	Timebase_Timer_Get_SecondsShadow:
 654               	.LFB15:
 655               	.LM110:
 656               	/* prologue: function */
 657               	/* frame size = 0 */
 658               	.LM111:
 659 03c8 E091 0000 		lds r30,Timebase
 660 03cc F091 0000 		lds r31,(Timebase)+1
 661 03d0 2089      		ldd r18,Z+16
 662 03d2 3189      		ldd r19,Z+17
 663 03d4 4289      		ldd r20,Z+18
 664 03d6 5389      		ldd r21,Z+19
 665               	.LM112:
 666 03d8 B901      		movw r22,r18
 667 03da CA01      		movw r24,r20
 668               	/* epilogue start */
 669 03dc 0895      		ret
 670               	.LFE15:
 672               	.global	Timebase_Timer_Get_SubSeconds
 674               	Timebase_Timer_Get_SubSeconds:
 675               	.LFB16:
 676               	.LM113:
 677               	/* prologue: function */
 678               	/* frame size = 0 */
 679               	.LM114:
 680 03de E091 0000 		lds r30,Timebase
 681 03e2 F091 0000 		lds r31,(Timebase)+1
 682 03e6 2085      		ldd r18,Z+8
 683 03e8 3185      		ldd r19,Z+9
 684               	.LM115:
 685 03ea C901      		movw r24,r18
 686               	/* epilogue start */
 687 03ec 0895      		ret
 688               	.LFE16:
 690               	.global	Timebase_Timer_Get_Seconds
 692               	Timebase_Timer_Get_Seconds:
 693               	.LFB17:
 694               	.LM116:
 695               	/* prologue: function */
 696               	/* frame size = 0 */
 697               	.LM117:
 698 03ee E091 0000 		lds r30,Timebase
 699 03f2 F091 0000 		lds r31,(Timebase)+1
 700 03f6 2285      		ldd r18,Z+10
 701 03f8 3385      		ldd r19,Z+11
 702 03fa 4485      		ldd r20,Z+12
 703 03fc 5585      		ldd r21,Z+13
 704               	.LM118:
 705 03fe B901      		movw r22,r18
 706 0400 CA01      		movw r24,r20
 707               	/* epilogue start */
 708 0402 0895      		ret
 709               	.LFE17:
 711               	.global	Timebase_Timer_Set_SubSeconds
 713               	Timebase_Timer_Set_SubSeconds:
 714               	.LFB18:
 715               	.LM119:
 716               	.LVL37:
 717               	/* prologue: function */
 718               	/* frame size = 0 */
 719               	.LM120:
 720 0404 E091 0000 		lds r30,Timebase
 721 0408 F091 0000 		lds r31,(Timebase)+1
 722 040c 9187      		std Z+9,r25
 723 040e 8087      		std Z+8,r24
 724               	/* epilogue start */
 725               	.LM121:
 726 0410 0895      		ret
 727               	.LFE18:
 729               	.global	Timebase_Timer_Set_Seconds
 731               	Timebase_Timer_Set_Seconds:
 732               	.LFB19:
 733               	.LM122:
 734               	.LVL38:
 735               	/* prologue: function */
 736               	/* frame size = 0 */
 737               	.LM123:
 738 0412 E091 0000 		lds r30,Timebase
 739 0416 F091 0000 		lds r31,(Timebase)+1
 740 041a 6287      		std Z+10,r22
 741 041c 7387      		std Z+11,r23
 742 041e 8487      		std Z+12,r24
 743 0420 9587      		std Z+13,r25
 744               	/* epilogue start */
 745               	.LM124:
 746 0422 0895      		ret
 747               	.LFE19:
 749               	.global	Timebase_Timer_Sync_With_Shadow_Variables
 751               	Timebase_Timer_Sync_With_Shadow_Variables:
 752               	.LFB20:
 753               	.LM125:
 754               	/* prologue: function */
 755               	/* frame size = 0 */
 756               	.LM126:
 757 0424 E091 0000 		lds r30,Timebase
 758 0428 F091 0000 		lds r31,(Timebase)+1
 759 042c 8685      		ldd r24,Z+14
 760 042e 9785      		ldd r25,Z+15
 761 0430 9187      		std Z+9,r25
 762 0432 8087      		std Z+8,r24
 763               	.LM127:
 764 0434 8089      		ldd r24,Z+16
 765 0436 9189      		ldd r25,Z+17
 766 0438 A289      		ldd r26,Z+18
 767 043a B389      		ldd r27,Z+19
 768 043c 8287      		std Z+10,r24
 769 043e 9387      		std Z+11,r25
 770 0440 A487      		std Z+12,r26
 771 0442 B587      		std Z+13,r27
 772               	/* epilogue start */
 773               	.LM128:
 774 0444 0895      		ret
 775               	.LFE20:
 777               	.global	Timebase_Timer_Delay_SubSeconds
 779               	Timebase_Timer_Delay_SubSeconds:
 780               	.LFB21:
 781               	.LM129:
 782               	.LVL39:
 783 0446 6F92      		push r6
 784 0448 7F92      		push r7
 785 044a 8F92      		push r8
 786 044c 9F92      		push r9
 787 044e AF92      		push r10
 788 0450 BF92      		push r11
 789 0452 CF92      		push r12
 790 0454 DF92      		push r13
 791 0456 EF92      		push r14
 792 0458 FF92      		push r15
 793 045a 0F93      		push r16
 794 045c 1F93      		push r17
 795 045e CF93      		push r28
 796 0460 DF93      		push r29
 797               	/* prologue: function */
 798               	/* frame size = 0 */
 799 0462 5C01      		movw r10,r24
 800               	.LBB584:
 801               	.LBB585:
 802               	.LM130:
 803               	/* #APP */
 804               	 ;  344 "timebase.c" 1
 805 0464 F894      		cli
 806               	 ;  0 "" 2
 807               	/* #NOAPP */
 808               	.LBE585:
 809               	.LBE584:
 810               	.LBB586:
 811               	.LBB587:
 812               	.LM131:
 813 0466 C091 0000 		lds r28,Timebase
 814 046a D091 0000 		lds r29,(Timebase)+1
 815 046e EE84      		ldd r14,Y+14
 816 0470 FF84      		ldd r15,Y+15
 817               	.LBE587:
 818               	.LBE586:
 819               	.LBB588:
 820               	.LBB589:
 821               	.LM132:
 822 0472 2889      		ldd r18,Y+16
 823 0474 3989      		ldd r19,Y+17
 824 0476 4A89      		ldd r20,Y+18
 825 0478 5B89      		ldd r21,Y+19
 826               	.LVL40:
 827               	.LBE589:
 828               	.LBE588:
 829               	.LBB590:
 830               	.LBB591:
 831               	.LM133:
 832               	/* #APP */
 833               	 ;  348 "timebase.c" 1
 834 047a 7894      		sei
 835               	 ;  0 "" 2
 836               	/* #NOAPP */
 837               	.LBE591:
 838               	.LBE590:
 839               	.LM134:
 840 047c 6981      		ldd r22,Y+1
 841 047e 7A81      		ldd r23,Y+2
 842 0480 80E0      		ldi r24,lo8(0)
 843 0482 90E0      		ldi r25,hi8(0)
 844               	.LVL41:
 845 0484 0E94 0000 		call __mulsi3
 846               	.LVL42:
 847 0488 3B01      		movw r6,r22
 848 048a 4C01      		movw r8,r24
 849               	.LVL43:
 850               	.LM135:
 851 048c 00E0      		ldi r16,lo8(0)
 852 048e 10E0      		ldi r17,hi8(0)
 853 0490 6E0C      		add r6,r14
 854 0492 7F1C      		adc r7,r15
 855 0494 801E      		adc r8,r16
 856 0496 911E      		adc r9,r17
 857               	.LM136:
 858 0498 CC24      		clr r12
 859 049a DD24      		clr r13
 860               	.LVL44:
 861 049c 6A0C      		add r6,r10
 862 049e 7B1C      		adc r7,r11
 863 04a0 8C1C      		adc r8,r12
 864 04a2 9D1C      		adc r9,r13
 865 04a4 60E0      		ldi r22,lo8(0)
 866 04a6 70E0      		ldi r23,hi8(0)
 867 04a8 80E0      		ldi r24,hlo8(0)
 868 04aa 90E0      		ldi r25,hhi8(0)
 869               	.LVL45:
 870 04ac 00C0      		rjmp .L54
 871               	.L55:
 872               	.LBB592:
 873               	.LBB593:
 874               	.LM137:
 875               	/* #APP */
 876               	 ;  344 "timebase.c" 1
 877 04ae F894      		cli
 878               	 ;  0 "" 2
 879               	/* #NOAPP */
 880               	.LBE593:
 881               	.LBE592:
 882               	.LBB594:
 883               	.LBB595:
 884               	.LM138:
 885 04b0 EE84      		ldd r14,Y+14
 886 04b2 FF84      		ldd r15,Y+15
 887               	.LBE595:
 888               	.LBE594:
 889               	.LBB596:
 890               	.LBB597:
 891               	.LM139:
 892 04b4 2889      		ldd r18,Y+16
 893 04b6 3989      		ldd r19,Y+17
 894 04b8 4A89      		ldd r20,Y+18
 895 04ba 5B89      		ldd r21,Y+19
 896               	.LVL46:
 897               	.LBE597:
 898               	.LBE596:
 899               	.LBB598:
 900               	.LBB599:
 901               	.LM140:
 902               	/* #APP */
 903               	 ;  348 "timebase.c" 1
 904 04bc 7894      		sei
 905               	 ;  0 "" 2
 906               	/* #NOAPP */
 907               	.LBE599:
 908               	.LBE598:
 909               	.LM141:
 910 04be 6981      		ldd r22,Y+1
 911 04c0 7A81      		ldd r23,Y+2
 912               	.LVL47:
 913 04c2 80E0      		ldi r24,lo8(0)
 914 04c4 90E0      		ldi r25,hi8(0)
 915 04c6 0E94 0000 		call __mulsi3
 916               	.LVL48:
 917               	.LM142:
 918 04ca 00E0      		ldi r16,lo8(0)
 919 04cc 10E0      		ldi r17,hi8(0)
 920 04ce 6E0D      		add r22,r14
 921 04d0 7F1D      		adc r23,r15
 922 04d2 801F      		adc r24,r16
 923 04d4 911F      		adc r25,r17
 924               	.LVL49:
 925               	.L54:
 926               	.LM143:
 927 04d6 6615      		cp r22,r6
 928 04d8 7705      		cpc r23,r7
 929 04da 8805      		cpc r24,r8
 930 04dc 9905      		cpc r25,r9
 931 04de 04F0      		brlt .L55
 932               	/* epilogue start */
 933               	.LM144:
 934 04e0 DF91      		pop r29
 935 04e2 CF91      		pop r28
 936 04e4 1F91      		pop r17
 937 04e6 0F91      		pop r16
 938 04e8 FF90      		pop r15
 939 04ea EF90      		pop r14
 940 04ec DF90      		pop r13
 941 04ee CF90      		pop r12
 942               	.LVL50:
 943 04f0 BF90      		pop r11
 944 04f2 AF90      		pop r10
 945               	.LVL51:
 946 04f4 9F90      		pop r9
 947 04f6 8F90      		pop r8
 948 04f8 7F90      		pop r7
 949 04fa 6F90      		pop r6
 950               	.LVL52:
 951 04fc 0895      		ret
 952               	.LFE21:
 954               	.global	Timebase_Timer_Await_SubSeconds
 956               	Timebase_Timer_Await_SubSeconds:
 957               	.LFB22:
 958               	.LM145:
 959               	.LVL53:
 960               	/* prologue: function */
 961               	/* frame size = 0 */
 962 04fe BC01      		movw r22,r24
 963               	.LBB600:
 964               	.LBB601:
 965               	.LM146:
 966               	/* #APP */
 967               	 ;  344 "timebase.c" 1
 968 0500 F894      		cli
 969               	 ;  0 "" 2
 970               	/* #NOAPP */
 971               	.LBE601:
 972               	.LBE600:
 973               	.LBB602:
 974               	.LBB603:
 975               	.LM147:
 976 0502 E091 0000 		lds r30,Timebase
 977 0506 F091 0000 		lds r31,(Timebase)+1
 978 050a 00C0      		rjmp .L62
 979               	.LVL54:
 980               	.L59:
 981               	.LBE603:
 982               	.LBE602:
 983               	.LBB604:
 984               	.LBB605:
 985               	.LM148:
 986               	/* #APP */
 987               	 ;  344 "timebase.c" 1
 988 050c F894      		cli
 989               	 ;  0 "" 2
 990               	.LVL55:
 991               	/* #NOAPP */
 992               	.L62:
 993               	.LBE605:
 994               	.LBE604:
 995               	.LBB606:
 996               	.LBB607:
 997               	.LM149:
 998 050e 8685      		ldd r24,Z+14
 999 0510 9785      		ldd r25,Z+15
 1000               	.LBE607:
 1001               	.LBE606:
 1002               	.LBB608:
 1003               	.LBB609:
 1004               	.LM150:
 1005               	/* #APP */
 1006               	 ;  348 "timebase.c" 1
 1007 0512 7894      		sei
 1008               	 ;  0 "" 2
 1009               	/* #NOAPP */
 1010               	.LBE609:
 1011               	.LBE608:
 1012               	.LM151:
 1013 0514 2481      		ldd r18,Z+4
 1014 0516 3581      		ldd r19,Z+5
 1015 0518 4681      		ldd r20,Z+6
 1016 051a 5781      		ldd r21,Z+7
 1017 051c A0E0      		ldi r26,lo8(0)
 1018 051e B0E0      		ldi r27,hi8(0)
 1019 0520 8217      		cp r24,r18
 1020 0522 9307      		cpc r25,r19
 1021 0524 A407      		cpc r26,r20
 1022 0526 B507      		cpc r27,r21
 1023 0528 01F4      		brne .L59
 1024               	.LBB610:
 1025               	.LBB611:
 1026               	.LM152:
 1027               	/* #APP */
 1028               	 ;  344 "timebase.c" 1
 1029 052a F894      		cli
 1030               	 ;  0 "" 2
 1031               	/* #NOAPP */
 1032               	.LBE611:
 1033               	.LBE610:
 1034               	.LBB612:
 1035               	.LBB613:
 1036               	.LM153:
 1037 052c 8685      		ldd r24,Z+14
 1038 052e 9785      		ldd r25,Z+15
 1039               	.LVL56:
 1040               	.LBE613:
 1041               	.LBE612:
 1042               	.LBB614:
 1043               	.LBB615:
 1044               	.LM154:
 1045               	/* #APP */
 1046               	 ;  348 "timebase.c" 1
 1047 0530 7894      		sei
 1048               	 ;  0 "" 2
 1049               	/* #NOAPP */
 1050               	.LBE615:
 1051               	.LBE614:
 1052               	.LM155:
 1053 0532 A0E0      		ldi r26,lo8(0)
 1054 0534 B0E0      		ldi r27,hi8(0)
 1055               	.LVL57:
 1056 0536 8483      		std Z+4,r24
 1057 0538 9583      		std Z+5,r25
 1058 053a A683      		std Z+6,r26
 1059 053c B783      		std Z+7,r27
 1060               	.LVL58:
 1061               	.LM156:
 1062 053e 2481      		ldd r18,Z+4
 1063 0540 3581      		ldd r19,Z+5
 1064 0542 4681      		ldd r20,Z+6
 1065 0544 5781      		ldd r21,Z+7
 1066 0546 CB01      		movw r24,r22
 1067 0548 A0E0      		ldi r26,lo8(0)
 1068 054a B0E0      		ldi r27,hi8(0)
 1069               	.LVL59:
 1070 054c 820F      		add r24,r18
 1071 054e 931F      		adc r25,r19
 1072 0550 A41F      		adc r26,r20
 1073 0552 B51F      		adc r27,r21
 1074               	.LVL60:
 1075 0554 8483      		std Z+4,r24
 1076 0556 9583      		std Z+5,r25
 1077 0558 A683      		std Z+6,r26
 1078 055a B783      		std Z+7,r27
 1079               	.LM157:
 1080 055c 2481      		ldd r18,Z+4
 1081 055e 3581      		ldd r19,Z+5
 1082 0560 4681      		ldd r20,Z+6
 1083 0562 5781      		ldd r21,Z+7
 1084 0564 8181      		ldd r24,Z+1
 1085 0566 9281      		ldd r25,Z+2
 1086               	.LVL61:
 1087 0568 A0E0      		ldi r26,lo8(0)
 1088 056a B0E0      		ldi r27,hi8(0)
 1089               	.LVL62:
 1090 056c 2817      		cp r18,r24
 1091 056e 3907      		cpc r19,r25
 1092 0570 4A07      		cpc r20,r26
 1093 0572 5B07      		cpc r21,r27
 1094 0574 04F0      		brlt .L61
 1095               	.LM158:
 1096 0576 2481      		ldd r18,Z+4
 1097 0578 3581      		ldd r19,Z+5
 1098 057a 4681      		ldd r20,Z+6
 1099 057c 5781      		ldd r21,Z+7
 1100 057e 8181      		ldd r24,Z+1
 1101 0580 9281      		ldd r25,Z+2
 1102 0582 A0E0      		ldi r26,lo8(0)
 1103 0584 B0E0      		ldi r27,hi8(0)
 1104 0586 281B      		sub r18,r24
 1105 0588 390B      		sbc r19,r25
 1106 058a 4A0B      		sbc r20,r26
 1107 058c 5B0B      		sbc r21,r27
 1108 058e 2483      		std Z+4,r18
 1109 0590 3583      		std Z+5,r19
 1110 0592 4683      		std Z+6,r20
 1111 0594 5783      		std Z+7,r21
 1112               	.L61:
 1113 0596 0895      		ret
 1114               	.LFE22:
 1116               	.global	Timebase_Timer_Delay_Seconds
 1118               	Timebase_Timer_Delay_Seconds:
 1119               	.LFB23:
 1120               	.LM159:
 1121               	.LVL63:
 1122               	/* prologue: function */
 1123               	/* frame size = 0 */
 1124               	.LBB616:
 1125               	.LBB617:
 1126               	.LM160:
 1127               	/* #APP */
 1128               	 ;  344 "timebase.c" 1
 1129 0598 F894      		cli
 1130               	 ;  0 "" 2
 1131               	/* #NOAPP */
 1132               	.LBE617:
 1133               	.LBE616:
 1134               	.LBB618:
 1135               	.LBB619:
 1136               	.LM161:
 1137 059a E091 0000 		lds r30,Timebase
 1138 059e F091 0000 		lds r31,(Timebase)+1
 1139 05a2 2089      		ldd r18,Z+16
 1140 05a4 3189      		ldd r19,Z+17
 1141 05a6 4289      		ldd r20,Z+18
 1142 05a8 5389      		ldd r21,Z+19
 1143               	.LVL64:
 1144               	.LBE619:
 1145               	.LBE618:
 1146               	.LBB620:
 1147               	.LBB621:
 1148               	.LM162:
 1149               	/* #APP */
 1150               	 ;  348 "timebase.c" 1
 1151 05aa 7894      		sei
 1152               	 ;  0 "" 2
 1153               	/* #NOAPP */
 1154               	.LBE621:
 1155               	.LBE620:
 1156               	.LM163:
 1157 05ac A0E0      		ldi r26,lo8(0)
 1158 05ae B0E0      		ldi r27,hi8(0)
 1159               	.LVL65:
 1160 05b0 820F      		add r24,r18
 1161 05b2 931F      		adc r25,r19
 1162 05b4 A41F      		adc r26,r20
 1163 05b6 B51F      		adc r27,r21
 1164               	.LVL66:
 1165 05b8 20E0      		ldi r18,lo8(0)
 1166 05ba 30E0      		ldi r19,hi8(0)
 1167 05bc 40E0      		ldi r20,hlo8(0)
 1168 05be 50E0      		ldi r21,hhi8(0)
 1169               	.LVL67:
 1170 05c0 00C0      		rjmp .L64
 1171               	.L65:
 1172               	.LBB622:
 1173               	.LBB623:
 1174               	.LM164:
 1175               	/* #APP */
 1176               	 ;  344 "timebase.c" 1
 1177 05c2 F894      		cli
 1178               	 ;  0 "" 2
 1179               	/* #NOAPP */
 1180               	.LBE623:
 1181               	.LBE622:
 1182               	.LBB624:
 1183               	.LBB625:
 1184               	.LM165:
 1185 05c4 2089      		ldd r18,Z+16
 1186 05c6 3189      		ldd r19,Z+17
 1187 05c8 4289      		ldd r20,Z+18
 1188 05ca 5389      		ldd r21,Z+19
 1189               	.LBE625:
 1190               	.LBE624:
 1191               	.LBB626:
 1192               	.LBB627:
 1193               	.LM166:
 1194               	/* #APP */
 1195               	 ;  348 "timebase.c" 1
 1196 05cc 7894      		sei
 1197               	 ;  0 "" 2
 1198               	/* #NOAPP */
 1199               	.L64:
 1200               	.LBE627:
 1201               	.LBE626:
 1202               	.LM167:
 1203 05ce 2817      		cp r18,r24
 1204 05d0 3907      		cpc r19,r25
 1205 05d2 4A07      		cpc r20,r26
 1206 05d4 5B07      		cpc r21,r27
 1207 05d6 04F0      		brlt .L65
 1208               	/* epilogue start */
 1209               	.LM168:
 1210 05d8 0895      		ret
 1211               	.LFE23:
 1213               	.global	Timebase_Window_Timer_Reset
 1215               	Timebase_Window_Timer_Reset:
 1216               	.LFB24:
 1217               	.LM169:
 1218               	/* prologue: function */
 1219               	/* frame size = 0 */
 1220               	.LM170:
 1221 05da E091 0000 		lds r30,Timebase
 1222 05de F091 0000 		lds r31,(Timebase)+1
 1223 05e2 148A      		std Z+20,__zero_reg__
 1224 05e4 158A      		std Z+21,__zero_reg__
 1225 05e6 168A      		std Z+22,__zero_reg__
 1226 05e8 178A      		std Z+23,__zero_reg__
 1227               	.LM171:
 1228 05ea 108E      		std Z+24,__zero_reg__
 1229 05ec 118E      		std Z+25,__zero_reg__
 1230 05ee 128E      		std Z+26,__zero_reg__
 1231 05f0 138E      		std Z+27,__zero_reg__
 1232               	.LM172:
 1233 05f2 148E      		std Z+28,__zero_reg__
 1234               	/* epilogue start */
 1235               	.LM173:
 1236 05f4 0895      		ret
 1237               	.LFE24:
 1239               	.global	Timebase_Window_Timer_Start
 1241               	Timebase_Window_Timer_Start:
 1242               	.LFB25:
 1243               	.LM174:
 1244               	/* prologue: function */
 1245               	/* frame size = 0 */
 1246               	.LM175:
 1247 05f6 E091 0000 		lds r30,Timebase
 1248 05fa F091 0000 		lds r31,(Timebase)+1
 1249 05fe 848D      		ldd r24,Z+28
 1250 0600 8823      		tst r24
 1251 0602 01F4      		brne .L71
 1252               	.LBB628:
 1253               	.LBB629:
 1254               	.LM176:
 1255               	/* #APP */
 1256               	 ;  344 "timebase.c" 1
 1257 0604 F894      		cli
 1258               	 ;  0 "" 2
 1259               	/* #NOAPP */
 1260               	.LBE629:
 1261               	.LBE628:
 1262               	.LBB630:
 1263               	.LBB631:
 1264               	.LM177:
 1265 0606 8089      		ldd r24,Z+16
 1266 0608 9189      		ldd r25,Z+17
 1267 060a A289      		ldd r26,Z+18
 1268 060c B389      		ldd r27,Z+19
 1269               	.LBE631:
 1270               	.LBE630:
 1271               	.LM178:
 1272 060e 848B      		std Z+20,r24
 1273 0610 958B      		std Z+21,r25
 1274 0612 A68B      		std Z+22,r26
 1275 0614 B78B      		std Z+23,r27
 1276               	.LBB632:
 1277               	.LBB633:
 1278               	.LM179:
 1279 0616 8685      		ldd r24,Z+14
 1280 0618 9785      		ldd r25,Z+15
 1281               	.LBE633:
 1282               	.LBE632:
 1283               	.LM180:
 1284 061a A0E0      		ldi r26,lo8(0)
 1285 061c B0E0      		ldi r27,hi8(0)
 1286 061e 808F      		std Z+24,r24
 1287 0620 918F      		std Z+25,r25
 1288 0622 A28F      		std Z+26,r26
 1289 0624 B38F      		std Z+27,r27
 1290               	.LBB634:
 1291               	.LBB635:
 1292               	.LM181:
 1293               	/* #APP */
 1294               	 ;  348 "timebase.c" 1
 1295 0626 7894      		sei
 1296               	 ;  0 "" 2
 1297               	/* #NOAPP */
 1298               	.LBE635:
 1299               	.LBE634:
 1300               	.LM182:
 1301 0628 81E0      		ldi r24,lo8(1)
 1302 062a 848F      		std Z+28,r24
 1303               	.L71:
 1304 062c 0895      		ret
 1305               	.LFE25:
 1307               	.global	Timebase_Window_Timer_Get_Interval
 1309               	Timebase_Window_Timer_Get_Interval:
 1310               	.LFB26:
 1311               	.LM183:
 1312 062e EF92      		push r14
 1313 0630 FF92      		push r15
 1314 0632 0F93      		push r16
 1315 0634 1F93      		push r17
 1316 0636 CF93      		push r28
 1317 0638 DF93      		push r29
 1318               	/* prologue: function */
 1319               	/* frame size = 0 */
 1320               	.LM184:
 1321 063a C091 0000 		lds r28,Timebase
 1322 063e D091 0000 		lds r29,(Timebase)+1
 1323 0642 8C8D      		ldd r24,Y+28
 1324 0644 8130      		cpi r24,lo8(1)
 1325 0646 01F0      		breq .L73
 1326 0648 EE24      		clr r14
 1327 064a FF24      		clr r15
 1328 064c 8701      		movw r16,r14
 1329               	.LVL68:
 1330 064e 00C0      		rjmp .L74
 1331               	.LVL69:
 1332               	.L73:
 1333               	.LBB636:
 1334               	.LBB637:
 1335               	.LM185:
 1336               	/* #APP */
 1337               	 ;  344 "timebase.c" 1
 1338 0650 F894      		cli
 1339               	 ;  0 "" 2
 1340               	/* #NOAPP */
 1341               	.LBE637:
 1342               	.LBE636:
 1343               	.LBB638:
 1344               	.LBB639:
 1345               	.LM186:
 1346 0652 2889      		ldd r18,Y+16
 1347 0654 3989      		ldd r19,Y+17
 1348 0656 4A89      		ldd r20,Y+18
 1349 0658 5B89      		ldd r21,Y+19
 1350               	.LVL70:
 1351               	.LBE639:
 1352               	.LBE638:
 1353               	.LBB640:
 1354               	.LBB641:
 1355               	.LM187:
 1356 065a 8E85      		ldd r24,Y+14
 1357 065c 9F85      		ldd r25,Y+15
 1358               	.LBE641:
 1359               	.LBE640:
 1360               	.LM188:
 1361 065e 7C01      		movw r14,r24
 1362               	.LVL71:
 1363 0660 00E0      		ldi r16,lo8(0)
 1364 0662 10E0      		ldi r17,hi8(0)
 1365               	.LVL72:
 1366               	.LBB642:
 1367               	.LBB643:
 1368               	.LM189:
 1369               	/* #APP */
 1370               	 ;  348 "timebase.c" 1
 1371 0664 7894      		sei
 1372               	 ;  0 "" 2
 1373               	/* #NOAPP */
 1374               	.LBE643:
 1375               	.LBE642:
 1376               	.LM190:
 1377 0666 8C89      		ldd r24,Y+20
 1378 0668 9D89      		ldd r25,Y+21
 1379 066a AE89      		ldd r26,Y+22
 1380 066c BF89      		ldd r27,Y+23
 1381 066e 281B      		sub r18,r24
 1382 0670 390B      		sbc r19,r25
 1383 0672 4A0B      		sbc r20,r26
 1384 0674 5B0B      		sbc r21,r27
 1385               	.LVL73:
 1386               	.LM191:
 1387 0676 6981      		ldd r22,Y+1
 1388 0678 7A81      		ldd r23,Y+2
 1389 067a 80E0      		ldi r24,lo8(0)
 1390 067c 90E0      		ldi r25,hi8(0)
 1391 067e 0E94 0000 		call __mulsi3
 1392               	.LVL74:
 1393               	.LM192:
 1394 0682 288D      		ldd r18,Y+24
 1395 0684 398D      		ldd r19,Y+25
 1396 0686 4A8D      		ldd r20,Y+26
 1397 0688 5B8D      		ldd r21,Y+27
 1398 068a E21A      		sub r14,r18
 1399 068c F30A      		sbc r15,r19
 1400 068e 040B      		sbc r16,r20
 1401 0690 150B      		sbc r17,r21
 1402               	.LVL75:
 1403 0692 E60E      		add r14,r22
 1404 0694 F71E      		adc r15,r23
 1405 0696 081F      		adc r16,r24
 1406 0698 191F      		adc r17,r25
 1407               	.L74:
 1408               	.LM193:
 1409 069a B701      		movw r22,r14
 1410               	.LVL76:
 1411 069c C801      		movw r24,r16
 1412               	.LVL77:
 1413               	/* epilogue start */
 1414 069e DF91      		pop r29
 1415 06a0 CF91      		pop r28
 1416 06a2 1F91      		pop r17
 1417 06a4 0F91      		pop r16
 1418 06a6 FF90      		pop r15
 1419 06a8 EF90      		pop r14
 1420 06aa 0895      		ret
 1421               	.LFE26:
 1423               	.global	Timebase_Window_Timer_Get_Interval_Reset
 1425               	Timebase_Window_Timer_Get_Interval_Reset:
 1426               	.LFB27:
 1427               	.LM194:
 1428               	/* prologue: function */
 1429               	/* frame size = 0 */
 1430               	.LM195:
 1431 06ac 0E94 0000 		call Timebase_Window_Timer_Get_Interval
 1432 06b0 282F      		mov r18,r24
 1433               	.LVL78:
 1434               	.LM196:
 1435 06b2 E091 0000 		lds r30,Timebase
 1436 06b6 F091 0000 		lds r31,(Timebase)+1
 1437 06ba 848D      		ldd r24,Z+28
 1438 06bc 8130      		cpi r24,lo8(1)
 1439 06be 01F4      		brne .L77
 1440               	.LBB644:
 1441               	.LBB645:
 1442               	.LM197:
 1443 06c0 148A      		std Z+20,__zero_reg__
 1444 06c2 158A      		std Z+21,__zero_reg__
 1445 06c4 168A      		std Z+22,__zero_reg__
 1446 06c6 178A      		std Z+23,__zero_reg__
 1447               	.LM198:
 1448 06c8 108E      		std Z+24,__zero_reg__
 1449 06ca 118E      		std Z+25,__zero_reg__
 1450 06cc 128E      		std Z+26,__zero_reg__
 1451 06ce 138E      		std Z+27,__zero_reg__
 1452               	.LM199:
 1453 06d0 148E      		std Z+28,__zero_reg__
 1454               	.L77:
 1455               	.LBE645:
 1456               	.LBE644:
 1457               	.LM200:
 1458 06d2 822F      		mov r24,r18
 1459               	/* epilogue start */
 1460 06d4 0895      		ret
 1461               	.LFE27:
 1463               	.global	Timebase_UpCounter_SS_Get_Status
 1465               	Timebase_UpCounter_SS_Get_Status:
 1466               	.LFB28:
 1467               	.LM201:
 1468               	.LVL79:
 1469               	/* prologue: function */
 1470               	/* frame size = 0 */
 1471               	.LM202:
 1472 06d6 E091 0000 		lds r30,Timebase
 1473 06da F091 0000 		lds r31,(Timebase)+1
 1474 06de 90E0      		ldi r25,lo8(0)
 1475               	.LVL80:
 1476 06e0 29E1      		ldi r18,lo8(25)
 1477 06e2 30E0      		ldi r19,hi8(25)
 1478 06e4 AC01      		movw r20,r24
 1479 06e6 429F      		mul r20,r18
 1480 06e8 C001      		movw r24,r0
 1481 06ea 439F      		mul r20,r19
 1482 06ec 900D      		add r25,r0
 1483 06ee 529F      		mul r21,r18
 1484 06f0 900D      		add r25,r0
 1485 06f2 1124      		clr r1
 1486               	.LVL81:
 1487 06f4 E80F      		add r30,r24
 1488 06f6 F91F      		adc r31,r25
 1489 06f8 878D      		ldd r24,Z+31
 1490 06fa 8695      		lsr r24
 1491               	.LM203:
 1492 06fc 8F70      		andi r24,lo8(15)
 1493               	/* epilogue start */
 1494 06fe 0895      		ret
 1495               	.LFE28:
 1497               	.global	Timebase_UpCounter_SS_Set_Status
 1499               	Timebase_UpCounter_SS_Set_Status:
 1500               	.LFB29:
 1501               	.LM204:
 1502               	.LVL82:
 1503               	/* prologue: function */
 1504               	/* frame size = 0 */
 1505               	.LM205:
 1506 0700 E091 0000 		lds r30,Timebase
 1507 0704 F091 0000 		lds r31,(Timebase)+1
 1508 0708 90E0      		ldi r25,lo8(0)
 1509               	.LVL83:
 1510 070a 29E1      		ldi r18,lo8(25)
 1511 070c 30E0      		ldi r19,hi8(25)
 1512 070e AC01      		movw r20,r24
 1513 0710 429F      		mul r20,r18
 1514 0712 C001      		movw r24,r0
 1515 0714 439F      		mul r20,r19
 1516 0716 900D      		add r25,r0
 1517 0718 529F      		mul r21,r18
 1518 071a 900D      		add r25,r0
 1519 071c 1124      		clr r1
 1520               	.LVL84:
 1521 071e E80F      		add r30,r24
 1522 0720 F91F      		adc r31,r25
 1523 0722 6F70      		andi r22,lo8(15)
 1524               	.LVL85:
 1525 0724 660F      		lsl r22
 1526 0726 878D      		ldd r24,Z+31
 1527 0728 817E      		andi r24,lo8(-31)
 1528 072a 862B      		or r24,r22
 1529 072c 878F      		std Z+31,r24
 1530               	/* epilogue start */
 1531               	.LM206:
 1532 072e 0895      		ret
 1533               	.LFE29:
 1535               	.global	Timebase_UpCounter_SS_Get_Value
 1537               	Timebase_UpCounter_SS_Get_Value:
 1538               	.LFB30:
 1539               	.LM207:
 1540               	.LVL86:
 1541               	/* prologue: function */
 1542               	/* frame size = 0 */
 1543               	.LM208:
 1544 0730 E091 0000 		lds r30,Timebase
 1545 0734 F091 0000 		lds r31,(Timebase)+1
 1546 0738 90E0      		ldi r25,lo8(0)
 1547               	.LVL87:
 1548 073a 29E1      		ldi r18,lo8(25)
 1549 073c 30E0      		ldi r19,hi8(25)
 1550 073e AC01      		movw r20,r24
 1551 0740 429F      		mul r20,r18
 1552 0742 C001      		movw r24,r0
 1553 0744 439F      		mul r20,r19
 1554 0746 900D      		add r25,r0
 1555 0748 529F      		mul r21,r18
 1556 074a 900D      		add r25,r0
 1557 074c 1124      		clr r1
 1558               	.LVL88:
 1559 074e E80F      		add r30,r24
 1560 0750 F91F      		adc r31,r25
 1561 0752 DF01      		movw r26,r30
 1562 0754 D096      		adiw r26,48
 1563 0756 60A9      		ldd r22,Z+48
 1564 0758 1196      		adiw r26,1
 1565 075a 7C91      		ld r23,X
 1566 075c 1197      		sbiw r26,1
 1567               	.LM209:
 1568 075e 1296      		adiw r26,2
 1569 0760 8C91      		ld r24,X
 1570 0762 1297      		sbiw r26,2
 1571 0764 1396      		adiw r26,3
 1572 0766 9C91      		ld r25,X
 1573               	.LVL89:
 1574               	/* epilogue start */
 1575 0768 0895      		ret
 1576               	.LFE30:
 1578               	.global	Timebase_UpCounter_SS_Set_Value
 1580               	Timebase_UpCounter_SS_Set_Value:
 1581               	.LFB31:
 1582               	.LM210:
 1583               	.LVL90:
 1584               	/* prologue: function */
 1585               	/* frame size = 0 */
 1586               	.LM211:
 1587 076a E091 0000 		lds r30,Timebase
 1588 076e F091 0000 		lds r31,(Timebase)+1
 1589 0772 90E0      		ldi r25,lo8(0)
 1590               	.LVL91:
 1591 0774 29E1      		ldi r18,lo8(25)
 1592 0776 30E0      		ldi r19,hi8(25)
 1593 0778 DC01      		movw r26,r24
 1594 077a A29F      		mul r26,r18
 1595 077c C001      		movw r24,r0
 1596 077e A39F      		mul r26,r19
 1597 0780 900D      		add r25,r0
 1598 0782 B29F      		mul r27,r18
 1599 0784 900D      		add r25,r0
 1600 0786 1124      		clr r1
 1601               	.LVL92:
 1602 0788 E80F      		add r30,r24
 1603 078a F91F      		adc r31,r25
 1604 078c 40AB      		std Z+48,r20
 1605 078e 51AB      		std Z+49,r21
 1606 0790 62AB      		std Z+50,r22
 1607 0792 73AB      		std Z+51,r23
 1608               	/* epilogue start */
 1609               	.LM212:
 1610 0794 0895      		ret
 1611               	.LFE31:
 1613               	.global	Timebase_UpCounter_SS_Get_EndValueSec
 1615               	Timebase_UpCounter_SS_Get_EndValueSec:
 1616               	.LFB32:
 1617               	.LM213:
 1618               	.LVL93:
 1619               	/* prologue: function */
 1620               	/* frame size = 0 */
 1621               	.LM214:
 1622 0796 E091 0000 		lds r30,Timebase
 1623 079a F091 0000 		lds r31,(Timebase)+1
 1624 079e 90E0      		ldi r25,lo8(0)
 1625               	.LVL94:
 1626 07a0 29E1      		ldi r18,lo8(25)
 1627 07a2 30E0      		ldi r19,hi8(25)
 1628 07a4 AC01      		movw r20,r24
 1629 07a6 429F      		mul r20,r18
 1630 07a8 C001      		movw r24,r0
 1631 07aa 439F      		mul r20,r19
 1632 07ac 900D      		add r25,r0
 1633 07ae 529F      		mul r21,r18
 1634 07b0 900D      		add r25,r0
 1635 07b2 1124      		clr r1
 1636               	.LVL95:
 1637 07b4 E80F      		add r30,r24
 1638 07b6 F91F      		adc r31,r25
 1639 07b8 DF01      		movw r26,r30
 1640 07ba 9096      		adiw r26,32
 1641 07bc 60A1      		ldd r22,Z+32
 1642 07be 1196      		adiw r26,1
 1643 07c0 7C91      		ld r23,X
 1644 07c2 1197      		sbiw r26,1
 1645               	.LM215:
 1646 07c4 1296      		adiw r26,2
 1647 07c6 8C91      		ld r24,X
 1648 07c8 1297      		sbiw r26,2
 1649 07ca 1396      		adiw r26,3
 1650 07cc 9C91      		ld r25,X
 1651               	.LVL96:
 1652               	/* epilogue start */
 1653 07ce 0895      		ret
 1654               	.LFE32:
 1656               	.global	Timebase_UpCounter_SS_Get_EndValueSubSec
 1658               	Timebase_UpCounter_SS_Get_EndValueSubSec:
 1659               	.LFB33:
 1660               	.LM216:
 1661               	.LVL97:
 1662               	/* prologue: function */
 1663               	/* frame size = 0 */
 1664               	.LM217:
 1665 07d0 E091 0000 		lds r30,Timebase
 1666 07d4 F091 0000 		lds r31,(Timebase)+1
 1667 07d8 90E0      		ldi r25,lo8(0)
 1668               	.LVL98:
 1669 07da 29E1      		ldi r18,lo8(25)
 1670 07dc 30E0      		ldi r19,hi8(25)
 1671 07de AC01      		movw r20,r24
 1672 07e0 429F      		mul r20,r18
 1673 07e2 C001      		movw r24,r0
 1674 07e4 439F      		mul r20,r19
 1675 07e6 900D      		add r25,r0
 1676 07e8 529F      		mul r21,r18
 1677 07ea 900D      		add r25,r0
 1678 07ec 1124      		clr r1
 1679               	.LVL99:
 1680 07ee E80F      		add r30,r24
 1681 07f0 F91F      		adc r31,r25
 1682 07f2 DF01      		movw r26,r30
 1683 07f4 9496      		adiw r26,36
 1684 07f6 64A1      		ldd r22,Z+36
 1685 07f8 1196      		adiw r26,1
 1686 07fa 7C91      		ld r23,X
 1687 07fc 1197      		sbiw r26,1
 1688               	.LM218:
 1689 07fe 1296      		adiw r26,2
 1690 0800 8C91      		ld r24,X
 1691 0802 1297      		sbiw r26,2
 1692 0804 1396      		adiw r26,3
 1693 0806 9C91      		ld r25,X
 1694               	.LVL100:
 1695               	/* epilogue start */
 1696 0808 0895      		ret
 1697               	.LFE33:
 1699               	.global	Timebase_UpCounter_SS_Set_EndValueSec
 1701               	Timebase_UpCounter_SS_Set_EndValueSec:
 1702               	.LFB34:
 1703               	.LM219:
 1704               	.LVL101:
 1705               	/* prologue: function */
 1706               	/* frame size = 0 */
 1707               	.LM220:
 1708 080a E091 0000 		lds r30,Timebase
 1709 080e F091 0000 		lds r31,(Timebase)+1
 1710 0812 90E0      		ldi r25,lo8(0)
 1711               	.LVL102:
 1712 0814 29E1      		ldi r18,lo8(25)
 1713 0816 30E0      		ldi r19,hi8(25)
 1714 0818 DC01      		movw r26,r24
 1715 081a A29F      		mul r26,r18
 1716 081c C001      		movw r24,r0
 1717 081e A39F      		mul r26,r19
 1718 0820 900D      		add r25,r0
 1719 0822 B29F      		mul r27,r18
 1720 0824 900D      		add r25,r0
 1721 0826 1124      		clr r1
 1722               	.LVL103:
 1723 0828 E80F      		add r30,r24
 1724 082a F91F      		adc r31,r25
 1725 082c 40A3      		std Z+32,r20
 1726 082e 51A3      		std Z+33,r21
 1727 0830 62A3      		std Z+34,r22
 1728 0832 73A3      		std Z+35,r23
 1729               	/* epilogue start */
 1730               	.LM221:
 1731 0834 0895      		ret
 1732               	.LFE34:
 1734               	.global	Timebase_UpCounter_SS_Set_EndValueSubSec
 1736               	Timebase_UpCounter_SS_Set_EndValueSubSec:
 1737               	.LFB35:
 1738               	.LM222:
 1739               	.LVL104:
 1740               	/* prologue: function */
 1741               	/* frame size = 0 */
 1742               	.LM223:
 1743 0836 E091 0000 		lds r30,Timebase
 1744 083a F091 0000 		lds r31,(Timebase)+1
 1745 083e 90E0      		ldi r25,lo8(0)
 1746               	.LVL105:
 1747 0840 29E1      		ldi r18,lo8(25)
 1748 0842 30E0      		ldi r19,hi8(25)
 1749 0844 DC01      		movw r26,r24
 1750 0846 A29F      		mul r26,r18
 1751 0848 C001      		movw r24,r0
 1752 084a A39F      		mul r26,r19
 1753 084c 900D      		add r25,r0
 1754 084e B29F      		mul r27,r18
 1755 0850 900D      		add r25,r0
 1756 0852 1124      		clr r1
 1757               	.LVL106:
 1758 0854 E80F      		add r30,r24
 1759 0856 F91F      		adc r31,r25
 1760 0858 44A3      		std Z+36,r20
 1761 085a 55A3      		std Z+37,r21
 1762 085c 66A3      		std Z+38,r22
 1763 085e 77A3      		std Z+39,r23
 1764               	/* epilogue start */
 1765               	.LM224:
 1766 0860 0895      		ret
 1767               	.LFE35:
 1769               	.global	Timebase_UpCounter_SS_Get_TargetValue
 1771               	Timebase_UpCounter_SS_Get_TargetValue:
 1772               	.LFB36:
 1773               	.LM225:
 1774               	.LVL107:
 1775               	/* prologue: function */
 1776               	/* frame size = 0 */
 1777               	.LM226:
 1778 0862 E091 0000 		lds r30,Timebase
 1779 0866 F091 0000 		lds r31,(Timebase)+1
 1780 086a 90E0      		ldi r25,lo8(0)
 1781               	.LVL108:
 1782 086c 29E1      		ldi r18,lo8(25)
 1783 086e 30E0      		ldi r19,hi8(25)
 1784 0870 AC01      		movw r20,r24
 1785 0872 429F      		mul r20,r18
 1786 0874 C001      		movw r24,r0
 1787 0876 439F      		mul r20,r19
 1788 0878 900D      		add r25,r0
 1789 087a 529F      		mul r21,r18
 1790 087c 900D      		add r25,r0
 1791 087e 1124      		clr r1
 1792               	.LVL109:
 1793 0880 E80F      		add r30,r24
 1794 0882 F91F      		adc r31,r25
 1795 0884 DF01      		movw r26,r30
 1796 0886 9896      		adiw r26,40
 1797 0888 60A5      		ldd r22,Z+40
 1798 088a 1196      		adiw r26,1
 1799 088c 7C91      		ld r23,X
 1800 088e 1197      		sbiw r26,1
 1801               	.LM227:
 1802 0890 1296      		adiw r26,2
 1803 0892 8C91      		ld r24,X
 1804 0894 1297      		sbiw r26,2
 1805 0896 1396      		adiw r26,3
 1806 0898 9C91      		ld r25,X
 1807               	.LVL110:
 1808               	/* epilogue start */
 1809 089a 0895      		ret
 1810               	.LFE36:
 1812               	.global	Timebase_UpCounter_SS_Set_TargetValue
 1814               	Timebase_UpCounter_SS_Set_TargetValue:
 1815               	.LFB37:
 1816               	.LM228:
 1817               	.LVL111:
 1818               	/* prologue: function */
 1819               	/* frame size = 0 */
 1820               	.LM229:
 1821 089c E091 0000 		lds r30,Timebase
 1822 08a0 F091 0000 		lds r31,(Timebase)+1
 1823 08a4 90E0      		ldi r25,lo8(0)
 1824               	.LVL112:
 1825 08a6 29E1      		ldi r18,lo8(25)
 1826 08a8 30E0      		ldi r19,hi8(25)
 1827 08aa DC01      		movw r26,r24
 1828 08ac A29F      		mul r26,r18
 1829 08ae C001      		movw r24,r0
 1830 08b0 A39F      		mul r26,r19
 1831 08b2 900D      		add r25,r0
 1832 08b4 B29F      		mul r27,r18
 1833 08b6 900D      		add r25,r0
 1834 08b8 1124      		clr r1
 1835               	.LVL113:
 1836 08ba E80F      		add r30,r24
 1837 08bc F91F      		adc r31,r25
 1838 08be 40A7      		std Z+40,r20
 1839 08c0 51A7      		std Z+41,r21
 1840 08c2 62A7      		std Z+42,r22
 1841 08c4 73A7      		std Z+43,r23
 1842               	/* epilogue start */
 1843               	.LM230:
 1844 08c6 0895      		ret
 1845               	.LFE37:
 1847               	.global	Timebase_UpCounter_SS_Get_TemporaryValue
 1849               	Timebase_UpCounter_SS_Get_TemporaryValue:
 1850               	.LFB38:
 1851               	.LM231:
 1852               	.LVL114:
 1853               	/* prologue: function */
 1854               	/* frame size = 0 */
 1855               	.LM232:
 1856 08c8 E091 0000 		lds r30,Timebase
 1857 08cc F091 0000 		lds r31,(Timebase)+1
 1858 08d0 90E0      		ldi r25,lo8(0)
 1859               	.LVL115:
 1860 08d2 29E1      		ldi r18,lo8(25)
 1861 08d4 30E0      		ldi r19,hi8(25)
 1862 08d6 AC01      		movw r20,r24
 1863 08d8 429F      		mul r20,r18
 1864 08da C001      		movw r24,r0
 1865 08dc 439F      		mul r20,r19
 1866 08de 900D      		add r25,r0
 1867 08e0 529F      		mul r21,r18
 1868 08e2 900D      		add r25,r0
 1869 08e4 1124      		clr r1
 1870               	.LVL116:
 1871 08e6 E80F      		add r30,r24
 1872 08e8 F91F      		adc r31,r25
 1873 08ea DF01      		movw r26,r30
 1874 08ec 9C96      		adiw r26,44
 1875 08ee 64A5      		ldd r22,Z+44
 1876 08f0 1196      		adiw r26,1
 1877 08f2 7C91      		ld r23,X
 1878 08f4 1197      		sbiw r26,1
 1879               	.LM233:
 1880 08f6 1296      		adiw r26,2
 1881 08f8 8C91      		ld r24,X
 1882 08fa 1297      		sbiw r26,2
 1883 08fc 1396      		adiw r26,3
 1884 08fe 9C91      		ld r25,X
 1885               	.LVL117:
 1886               	/* epilogue start */
 1887 0900 0895      		ret
 1888               	.LFE38:
 1890               	.global	Timebase_UpCounter_SS_Set_TemporaryValue
 1892               	Timebase_UpCounter_SS_Set_TemporaryValue:
 1893               	.LFB39:
 1894               	.LM234:
 1895               	.LVL118:
 1896               	/* prologue: function */
 1897               	/* frame size = 0 */
 1898               	.LM235:
 1899 0902 E091 0000 		lds r30,Timebase
 1900 0906 F091 0000 		lds r31,(Timebase)+1
 1901 090a 90E0      		ldi r25,lo8(0)
 1902               	.LVL119:
 1903 090c 29E1      		ldi r18,lo8(25)
 1904 090e 30E0      		ldi r19,hi8(25)
 1905 0910 DC01      		movw r26,r24
 1906 0912 A29F      		mul r26,r18
 1907 0914 C001      		movw r24,r0
 1908 0916 A39F      		mul r26,r19
 1909 0918 900D      		add r25,r0
 1910 091a B29F      		mul r27,r18
 1911 091c 900D      		add r25,r0
 1912 091e 1124      		clr r1
 1913               	.LVL120:
 1914 0920 E80F      		add r30,r24
 1915 0922 F91F      		adc r31,r25
 1916 0924 44A7      		std Z+44,r20
 1917 0926 55A7      		std Z+45,r21
 1918 0928 66A7      		std Z+46,r22
 1919 092a 77A7      		std Z+47,r23
 1920               	/* epilogue start */
 1921               	.LM236:
 1922 092c 0895      		ret
 1923               	.LFE39:
 1925               	.global	Timebase_UpCounter_SS_Get_PeriodValue
 1927               	Timebase_UpCounter_SS_Get_PeriodValue:
 1928               	.LFB40:
 1929               	.LM237:
 1930               	.LVL121:
 1931               	/* prologue: function */
 1932               	/* frame size = 0 */
 1933               	.LM238:
 1934 092e E091 0000 		lds r30,Timebase
 1935 0932 F091 0000 		lds r31,(Timebase)+1
 1936 0936 90E0      		ldi r25,lo8(0)
 1937               	.LVL122:
 1938 0938 29E1      		ldi r18,lo8(25)
 1939 093a 30E0      		ldi r19,hi8(25)
 1940 093c AC01      		movw r20,r24
 1941 093e 429F      		mul r20,r18
 1942 0940 C001      		movw r24,r0
 1943 0942 439F      		mul r20,r19
 1944 0944 900D      		add r25,r0
 1945 0946 529F      		mul r21,r18
 1946 0948 900D      		add r25,r0
 1947 094a 1124      		clr r1
 1948               	.LVL123:
 1949 094c E80F      		add r30,r24
 1950 094e F91F      		adc r31,r25
 1951 0950 DF01      		movw r26,r30
 1952 0952 D496      		adiw r26,52
 1953 0954 64A9      		ldd r22,Z+52
 1954 0956 1196      		adiw r26,1
 1955 0958 7C91      		ld r23,X
 1956 095a 1197      		sbiw r26,1
 1957               	.LM239:
 1958 095c 1296      		adiw r26,2
 1959 095e 8C91      		ld r24,X
 1960 0960 1297      		sbiw r26,2
 1961 0962 1396      		adiw r26,3
 1962 0964 9C91      		ld r25,X
 1963               	.LVL124:
 1964               	/* epilogue start */
 1965 0966 0895      		ret
 1966               	.LFE40:
 1968               	.global	Timebase_UpCounter_SS_Set_PeriodValue
 1970               	Timebase_UpCounter_SS_Set_PeriodValue:
 1971               	.LFB41:
 1972               	.LM240:
 1973               	.LVL125:
 1974               	/* prologue: function */
 1975               	/* frame size = 0 */
 1976               	.LM241:
 1977 0968 E091 0000 		lds r30,Timebase
 1978 096c F091 0000 		lds r31,(Timebase)+1
 1979 0970 90E0      		ldi r25,lo8(0)
 1980               	.LVL126:
 1981 0972 29E1      		ldi r18,lo8(25)
 1982 0974 30E0      		ldi r19,hi8(25)
 1983 0976 DC01      		movw r26,r24
 1984 0978 A29F      		mul r26,r18
 1985 097a C001      		movw r24,r0
 1986 097c A39F      		mul r26,r19
 1987 097e 900D      		add r25,r0
 1988 0980 B29F      		mul r27,r18
 1989 0982 900D      		add r25,r0
 1990 0984 1124      		clr r1
 1991               	.LVL127:
 1992 0986 E80F      		add r30,r24
 1993 0988 F91F      		adc r31,r25
 1994 098a 44AB      		std Z+52,r20
 1995 098c 55AB      		std Z+53,r21
 1996 098e 66AB      		std Z+54,r22
 1997 0990 77AB      		std Z+55,r23
 1998               	/* epilogue start */
 1999               	.LM242:
 2000 0992 0895      		ret
 2001               	.LFE41:
 2003               	.global	Timebase_UpCounter_SS_Get_Period_Flag
 2005               	Timebase_UpCounter_SS_Get_Period_Flag:
 2006               	.LFB42:
 2007               	.LM243:
 2008               	.LVL128:
 2009               	/* prologue: function */
 2010               	/* frame size = 0 */
 2011               	.LM244:
 2012 0994 E091 0000 		lds r30,Timebase
 2013 0998 F091 0000 		lds r31,(Timebase)+1
 2014 099c 90E0      		ldi r25,lo8(0)
 2015               	.LVL129:
 2016 099e 29E1      		ldi r18,lo8(25)
 2017 09a0 30E0      		ldi r19,hi8(25)
 2018 09a2 AC01      		movw r20,r24
 2019 09a4 429F      		mul r20,r18
 2020 09a6 C001      		movw r24,r0
 2021 09a8 439F      		mul r20,r19
 2022 09aa 900D      		add r25,r0
 2023 09ac 529F      		mul r21,r18
 2024 09ae 900D      		add r25,r0
 2025 09b0 1124      		clr r1
 2026               	.LVL130:
 2027 09b2 E80F      		add r30,r24
 2028 09b4 F91F      		adc r31,r25
 2029 09b6 878D      		ldd r24,Z+31
 2030               	.LM245:
 2031 09b8 8170      		andi r24,lo8(1)
 2032               	/* epilogue start */
 2033 09ba 0895      		ret
 2034               	.LFE42:
 2036               	.global	Timebase_UpCounter_SS_Set_Period_Flag
 2038               	Timebase_UpCounter_SS_Set_Period_Flag:
 2039               	.LFB43:
 2040               	.LM246:
 2041               	.LVL131:
 2042               	/* prologue: function */
 2043               	/* frame size = 0 */
 2044               	.LM247:
 2045 09bc E091 0000 		lds r30,Timebase
 2046 09c0 F091 0000 		lds r31,(Timebase)+1
 2047 09c4 90E0      		ldi r25,lo8(0)
 2048               	.LVL132:
 2049 09c6 29E1      		ldi r18,lo8(25)
 2050 09c8 30E0      		ldi r19,hi8(25)
 2051 09ca AC01      		movw r20,r24
 2052 09cc 429F      		mul r20,r18
 2053 09ce C001      		movw r24,r0
 2054 09d0 439F      		mul r20,r19
 2055 09d2 900D      		add r25,r0
 2056 09d4 529F      		mul r21,r18
 2057 09d6 900D      		add r25,r0
 2058 09d8 1124      		clr r1
 2059               	.LVL133:
 2060 09da E80F      		add r30,r24
 2061 09dc F91F      		adc r31,r25
 2062 09de 878D      		ldd r24,Z+31
 2063 09e0 8160      		ori r24,lo8(1)
 2064 09e2 878F      		std Z+31,r24
 2065               	/* epilogue start */
 2066               	.LM248:
 2067 09e4 0895      		ret
 2068               	.LFE43:
 2070               	.global	Timebase_UpCounter_SS_Clear_Period_Flag
 2072               	Timebase_UpCounter_SS_Clear_Period_Flag:
 2073               	.LFB44:
 2074               	.LM249:
 2075               	.LVL134:
 2076               	/* prologue: function */
 2077               	/* frame size = 0 */
 2078               	.LM250:
 2079 09e6 E091 0000 		lds r30,Timebase
 2080 09ea F091 0000 		lds r31,(Timebase)+1
 2081 09ee 90E0      		ldi r25,lo8(0)
 2082               	.LVL135:
 2083 09f0 29E1      		ldi r18,lo8(25)
 2084 09f2 30E0      		ldi r19,hi8(25)
 2085 09f4 AC01      		movw r20,r24
 2086 09f6 429F      		mul r20,r18
 2087 09f8 C001      		movw r24,r0
 2088 09fa 439F      		mul r20,r19
 2089 09fc 900D      		add r25,r0
 2090 09fe 529F      		mul r21,r18
 2091 0a00 900D      		add r25,r0
 2092 0a02 1124      		clr r1
 2093               	.LVL136:
 2094 0a04 E80F      		add r30,r24
 2095 0a06 F91F      		adc r31,r25
 2096 0a08 878D      		ldd r24,Z+31
 2097 0a0a 8E7F      		andi r24,lo8(-2)
 2098 0a0c 878F      		std Z+31,r24
 2099               	/* epilogue start */
 2100               	.LM251:
 2101 0a0e 0895      		ret
 2102               	.LFE44:
 2104               	.global	Timebase_UpCounter_SS_Reset
 2106               	Timebase_UpCounter_SS_Reset:
 2107               	.LFB45:
 2108               	.LM252:
 2109               	.LVL137:
 2110               	/* prologue: function */
 2111               	/* frame size = 0 */
 2112               	.LBB646:
 2113               	.LBB647:
 2114               	.LM253:
 2115 0a10 E091 0000 		lds r30,Timebase
 2116 0a14 F091 0000 		lds r31,(Timebase)+1
 2117 0a18 90E0      		ldi r25,lo8(0)
 2118 0a1a 29E1      		ldi r18,lo8(25)
 2119 0a1c 30E0      		ldi r19,hi8(25)
 2120 0a1e AC01      		movw r20,r24
 2121               	.LVL138:
 2122 0a20 429F      		mul r20,r18
 2123 0a22 C001      		movw r24,r0
 2124 0a24 439F      		mul r20,r19
 2125 0a26 900D      		add r25,r0
 2126 0a28 529F      		mul r21,r18
 2127 0a2a 900D      		add r25,r0
 2128 0a2c 1124      		clr r1
 2129 0a2e E80F      		add r30,r24
 2130 0a30 F91F      		adc r31,r25
 2131 0a32 878D      		ldd r24,Z+31
 2132               	.LBE647:
 2133               	.LBE646:
 2134               	.LBB648:
 2135               	.LBB649:
 2136               	.LM254:
 2137 0a34 10AA      		std Z+48,__zero_reg__
 2138 0a36 11AA      		std Z+49,__zero_reg__
 2139 0a38 12AA      		std Z+50,__zero_reg__
 2140 0a3a 13AA      		std Z+51,__zero_reg__
 2141               	.LBE649:
 2142               	.LBE648:
 2143               	.LBB650:
 2144               	.LBB651:
 2145               	.LM255:
 2146 0a3c 10A2      		std Z+32,__zero_reg__
 2147 0a3e 11A2      		std Z+33,__zero_reg__
 2148 0a40 12A2      		std Z+34,__zero_reg__
 2149 0a42 13A2      		std Z+35,__zero_reg__
 2150               	.LBE651:
 2151               	.LBE650:
 2152               	.LBB652:
 2153               	.LBB653:
 2154               	.LM256:
 2155 0a44 14A2      		std Z+36,__zero_reg__
 2156 0a46 15A2      		std Z+37,__zero_reg__
 2157 0a48 16A2      		std Z+38,__zero_reg__
 2158 0a4a 17A2      		std Z+39,__zero_reg__
 2159               	.LBE653:
 2160               	.LBE652:
 2161               	.LBB654:
 2162               	.LBB655:
 2163               	.LM257:
 2164 0a4c 10A6      		std Z+40,__zero_reg__
 2165 0a4e 11A6      		std Z+41,__zero_reg__
 2166 0a50 12A6      		std Z+42,__zero_reg__
 2167 0a52 13A6      		std Z+43,__zero_reg__
 2168               	.LBE655:
 2169               	.LBE654:
 2170               	.LBB656:
 2171               	.LBB657:
 2172               	.LM258:
 2173 0a54 14A6      		std Z+44,__zero_reg__
 2174 0a56 15A6      		std Z+45,__zero_reg__
 2175 0a58 16A6      		std Z+46,__zero_reg__
 2176 0a5a 17A6      		std Z+47,__zero_reg__
 2177               	.LBE657:
 2178               	.LBE656:
 2179               	.LBB658:
 2180               	.LBB659:
 2181               	.LM259:
 2182 0a5c 14AA      		std Z+52,__zero_reg__
 2183 0a5e 15AA      		std Z+53,__zero_reg__
 2184 0a60 16AA      		std Z+54,__zero_reg__
 2185 0a62 17AA      		std Z+55,__zero_reg__
 2186               	.LBE659:
 2187               	.LBE658:
 2188               	.LBB660:
 2189               	.LBB661:
 2190               	.LM260:
 2191 0a64 807E      		andi r24,lo8(-32)
 2192 0a66 878F      		std Z+31,r24
 2193               	/* epilogue start */
 2194               	.LBE661:
 2195               	.LBE660:
 2196               	.LM261:
 2197 0a68 0895      		ret
 2198               	.LFE45:
 2200               	.global	Timebase_UpCounter_SS_Clear_All_Flags
 2202               	Timebase_UpCounter_SS_Clear_All_Flags:
 2203               	.LFB46:
 2204               	.LM262:
 2205               	.LVL139:
 2206               	/* prologue: function */
 2207               	/* frame size = 0 */
 2208               	.LM263:
 2209 0a6a 0E94 0000 		call Timebase_UpCounter_SS_Reset
 2210               	.LVL140:
 2211               	/* epilogue start */
 2212               	.LM264:
 2213 0a6e 0895      		ret
 2214               	.LFE46:
 2216               	.global	Timebase_UpCounter_SS_Start
 2218               	Timebase_UpCounter_SS_Start:
 2219               	.LFB47:
 2220               	.LM265:
 2221               	.LVL141:
 2222               	/* prologue: function */
 2223               	/* frame size = 0 */
 2224               	.LBB662:
 2225               	.LBB663:
 2226               	.LM266:
 2227 0a70 E091 0000 		lds r30,Timebase
 2228 0a74 F091 0000 		lds r31,(Timebase)+1
 2229 0a78 90E0      		ldi r25,lo8(0)
 2230               	.LBE663:
 2231               	.LBE662:
 2232               	.LM267:
 2233 0a7a 29E1      		ldi r18,lo8(25)
 2234 0a7c 30E0      		ldi r19,hi8(25)
 2235 0a7e AC01      		movw r20,r24
 2236               	.LVL142:
 2237 0a80 429F      		mul r20,r18
 2238 0a82 C001      		movw r24,r0
 2239 0a84 439F      		mul r20,r19
 2240 0a86 900D      		add r25,r0
 2241 0a88 529F      		mul r21,r18
 2242 0a8a 900D      		add r25,r0
 2243 0a8c 1124      		clr r1
 2244 0a8e E80F      		add r30,r24
 2245 0a90 F91F      		adc r31,r25
 2246 0a92 978D      		ldd r25,Z+31
 2247 0a94 892F      		mov r24,r25
 2248 0a96 8695      		lsr r24
 2249 0a98 8F70      		andi r24,lo8(15)
 2250 0a9a 8130      		cpi r24,lo8(1)
 2251 0a9c 01F0      		breq .L119
 2252               	.LBB664:
 2253               	.LBB665:
 2254               	.LM268:
 2255 0a9e 917E      		andi r25,lo8(-31)
 2256 0aa0 9260      		ori r25,lo8(2)
 2257 0aa2 978F      		std Z+31,r25
 2258               	.L119:
 2259 0aa4 0895      		ret
 2260               	.LBE665:
 2261               	.LBE664:
 2262               	.LFE47:
 2264               	.global	Timebase_UpCounter_SS_Stop
 2266               	Timebase_UpCounter_SS_Stop:
 2267               	.LFB48:
 2268               	.LM269:
 2269               	.LVL143:
 2270               	/* prologue: function */
 2271               	/* frame size = 0 */
 2272               	.LBB666:
 2273               	.LBB667:
 2274               	.LM270:
 2275 0aa6 E091 0000 		lds r30,Timebase
 2276 0aaa F091 0000 		lds r31,(Timebase)+1
 2277 0aae 90E0      		ldi r25,lo8(0)
 2278               	.LBE667:
 2279               	.LBE666:
 2280               	.LM271:
 2281 0ab0 29E1      		ldi r18,lo8(25)
 2282 0ab2 30E0      		ldi r19,hi8(25)
 2283 0ab4 AC01      		movw r20,r24
 2284               	.LVL144:
 2285 0ab6 429F      		mul r20,r18
 2286 0ab8 C001      		movw r24,r0
 2287 0aba 439F      		mul r20,r19
 2288 0abc 900D      		add r25,r0
 2289 0abe 529F      		mul r21,r18
 2290 0ac0 900D      		add r25,r0
 2291 0ac2 1124      		clr r1
 2292 0ac4 E80F      		add r30,r24
 2293 0ac6 F91F      		adc r31,r25
 2294 0ac8 978D      		ldd r25,Z+31
 2295 0aca 892F      		mov r24,r25
 2296 0acc 8695      		lsr r24
 2297 0ace 8F70      		andi r24,lo8(15)
 2298 0ad0 8230      		cpi r24,lo8(2)
 2299 0ad2 01F0      		breq .L122
 2300               	.LBB668:
 2301               	.LBB669:
 2302               	.LM272:
 2303 0ad4 917E      		andi r25,lo8(-31)
 2304 0ad6 9460      		ori r25,lo8(4)
 2305 0ad8 978F      		std Z+31,r25
 2306               	.L122:
 2307 0ada 0895      		ret
 2308               	.LBE669:
 2309               	.LBE668:
 2310               	.LFE48:
 2312               	.global	Timebase_UpCounter_SS_Set_Securely
 2314               	Timebase_UpCounter_SS_Set_Securely:
 2315               	.LFB49:
 2316               	.LM273:
 2317               	.LVL145:
 2318 0adc 2F92      		push r2
 2319 0ade 3F92      		push r3
 2320 0ae0 4F92      		push r4
 2321 0ae2 5F92      		push r5
 2322 0ae4 6F92      		push r6
 2323 0ae6 7F92      		push r7
 2324 0ae8 8F92      		push r8
 2325 0aea 9F92      		push r9
 2326 0aec AF92      		push r10
 2327 0aee BF92      		push r11
 2328 0af0 CF92      		push r12
 2329 0af2 DF92      		push r13
 2330 0af4 EF92      		push r14
 2331 0af6 FF92      		push r15
 2332 0af8 0F93      		push r16
 2333 0afa 1F93      		push r17
 2334 0afc DF93      		push r29
 2335 0afe CF93      		push r28
 2336 0b00 00D0      		rcall .
 2337 0b02 00D0      		rcall .
 2338 0b04 CDB7      		in r28,__SP_L__
 2339 0b06 DEB7      		in r29,__SP_H__
 2340               	/* prologue: function */
 2341               	/* frame size = 4 */
 2342 0b08 4A01      		movw r8,r20
 2343 0b0a 5B01      		movw r10,r22
 2344               	.LBB670:
 2345               	.LBB671:
 2346               	.LM274:
 2347 0b0c 2091 0000 		lds r18,Timebase
 2348 0b10 3091 0000 		lds r19,(Timebase)+1
 2349 0b14 3C83      		std Y+4,r19
 2350 0b16 2B83      		std Y+3,r18
 2351 0b18 A82F      		mov r26,r24
 2352 0b1a B0E0      		ldi r27,lo8(0)
 2353 0b1c BA83      		std Y+2,r27
 2354 0b1e A983      		std Y+1,r26
 2355               	.LBE671:
 2356               	.LBE670:
 2357               	.LM275:
 2358 0b20 89E1      		ldi r24,lo8(25)
 2359 0b22 90E0      		ldi r25,hi8(25)
 2360               	.LVL146:
 2361 0b24 A89F      		mul r26,r24
 2362 0b26 F001      		movw r30,r0
 2363 0b28 A99F      		mul r26,r25
 2364 0b2a F00D      		add r31,r0
 2365 0b2c B89F      		mul r27,r24
 2366 0b2e F00D      		add r31,r0
 2367 0b30 1124      		clr r1
 2368 0b32 E20F      		add r30,r18
 2369 0b34 F31F      		adc r31,r19
 2370 0b36 878D      		ldd r24,Z+31
 2371 0b38 8695      		lsr r24
 2372 0b3a 8F70      		andi r24,lo8(15)
 2373 0b3c 01F0      		breq .+2
 2374 0b3e 00C0      		rjmp .L126
 2375               	.LVL147:
 2376               	.LBB672:
 2377               	.LBB673:
 2378               	.LBB674:
 2379               	.LM276:
 2380 0b40 10AA      		std Z+48,__zero_reg__
 2381 0b42 11AA      		std Z+49,__zero_reg__
 2382 0b44 12AA      		std Z+50,__zero_reg__
 2383 0b46 13AA      		std Z+51,__zero_reg__
 2384               	.LBE674:
 2385               	.LBE673:
 2386               	.LBB675:
 2387               	.LBB676:
 2388               	.LM277:
 2389 0b48 14A6      		std Z+44,__zero_reg__
 2390 0b4a 15A6      		std Z+45,__zero_reg__
 2391 0b4c 16A6      		std Z+46,__zero_reg__
 2392 0b4e 17A6      		std Z+47,__zero_reg__
 2393               	.LBE676:
 2394               	.LBE675:
 2395               	.LBB677:
 2396               	.LBB678:
 2397               	.LM278:
 2398 0b50 F901      		movw r30,r18
 2399 0b52 8285      		ldd r24,Z+10
 2400 0b54 9385      		ldd r25,Z+11
 2401 0b56 A485      		ldd r26,Z+12
 2402 0b58 B585      		ldd r27,Z+13
 2403               	.LVL148:
 2404               	.LBE678:
 2405               	.LBE677:
 2406               	.LBB679:
 2407               	.LBB680:
 2408               	.LM279:
 2409 0b5a C084      		ldd r12,Z+8
 2410 0b5c D184      		ldd r13,Z+9
 2411               	.LBE680:
 2412               	.LBE679:
 2413               	.LBB681:
 2414               	.LBB682:
 2415               	.LM280:
 2416 0b5e 2284      		ldd r2,Z+10
 2417 0b60 3384      		ldd r3,Z+11
 2418 0b62 4484      		ldd r4,Z+12
 2419 0b64 5584      		ldd r5,Z+13
 2420               	.LVL149:
 2421               	.LBE682:
 2422               	.LBE681:
 2423               	.LM281:
 2424 0b66 2181      		ldd r18,Z+1
 2425 0b68 3281      		ldd r19,Z+2
 2426 0b6a 40E0      		ldi r20,lo8(0)
 2427 0b6c 50E0      		ldi r21,hi8(0)
 2428 0b6e C501      		movw r24,r10
 2429 0b70 B401      		movw r22,r8
 2430 0b72 0E94 0000 		call __divmodsi4
 2431 0b76 7B01      		movw r14,r22
 2432 0b78 8C01      		movw r16,r24
 2433               	.LVL150:
 2434               	.LM282:
 2435 0b7a AB81      		ldd r26,Y+3
 2436 0b7c BC81      		ldd r27,Y+4
 2437 0b7e 1196      		adiw r26,1
 2438 0b80 2D91      		ld r18,X+
 2439 0b82 3C91      		ld r19,X
 2440 0b84 1297      		sbiw r26,1+1
 2441 0b86 40E0      		ldi r20,lo8(0)
 2442 0b88 50E0      		ldi r21,hi8(0)
 2443 0b8a C501      		movw r24,r10
 2444 0b8c B401      		movw r22,r8
 2445 0b8e 0E94 0000 		call __divmodsi4
 2446 0b92 C901      		movw r24,r18
 2447 0b94 DA01      		movw r26,r20
 2448 0b96 3C01      		movw r6,r24
 2449 0b98 4D01      		movw r8,r26
 2450               	.LVL151:
 2451               	.LM283:
 2452 0b9a 5601      		movw r10,r12
 2453               	.LVL152:
 2454 0b9c CC24      		clr r12
 2455 0b9e DD24      		clr r13
 2456               	.LVL153:
 2457 0ba0 AE0C      		add r10,r14
 2458 0ba2 BF1C      		adc r11,r15
 2459 0ba4 C01E      		adc r12,r16
 2460 0ba6 D11E      		adc r13,r17
 2461               	.LVL154:
 2462               	.LM284:
 2463 0ba8 EB81      		ldd r30,Y+3
 2464 0baa FC81      		ldd r31,Y+4
 2465 0bac 8181      		ldd r24,Z+1
 2466 0bae 9281      		ldd r25,Z+2
 2467               	.LVL155:
 2468 0bb0 A0E0      		ldi r26,lo8(0)
 2469 0bb2 B0E0      		ldi r27,hi8(0)
 2470 0bb4 A816      		cp r10,r24
 2471 0bb6 B906      		cpc r11,r25
 2472 0bb8 CA06      		cpc r12,r26
 2473 0bba DB06      		cpc r13,r27
 2474 0bbc 04F0      		brlt .L125
 2475               	.LM285:
 2476 0bbe 0894      		sec
 2477 0bc0 611C      		adc r6,__zero_reg__
 2478 0bc2 711C      		adc r7,__zero_reg__
 2479 0bc4 811C      		adc r8,__zero_reg__
 2480 0bc6 911C      		adc r9,__zero_reg__
 2481               	.LM286:
 2482 0bc8 2181      		ldd r18,Z+1
 2483 0bca 3281      		ldd r19,Z+2
 2484 0bcc 40E0      		ldi r20,lo8(0)
 2485 0bce 50E0      		ldi r21,hi8(0)
 2486 0bd0 C601      		movw r24,r12
 2487 0bd2 B501      		movw r22,r10
 2488 0bd4 0E94 0000 		call __divmodsi4
 2489 0bd8 AC01      		movw r20,r24
 2490 0bda CB01      		movw r24,r22
 2491 0bdc DA01      		movw r26,r20
 2492 0bde 5C01      		movw r10,r24
 2493 0be0 6D01      		movw r12,r26
 2494               	.L125:
 2495               	.LBB683:
 2496               	.LBB684:
 2497               	.LM287:
 2498 0be2 89E1      		ldi r24,lo8(25)
 2499 0be4 90E0      		ldi r25,hi8(25)
 2500 0be6 2981      		ldd r18,Y+1
 2501 0be8 3A81      		ldd r19,Y+2
 2502 0bea 289F      		mul r18,r24
 2503 0bec F001      		movw r30,r0
 2504 0bee 299F      		mul r18,r25
 2505 0bf0 F00D      		add r31,r0
 2506 0bf2 389F      		mul r19,r24
 2507 0bf4 F00D      		add r31,r0
 2508 0bf6 1124      		clr r1
 2509 0bf8 8B81      		ldd r24,Y+3
 2510 0bfa 9C81      		ldd r25,Y+4
 2511 0bfc E80F      		add r30,r24
 2512 0bfe F91F      		adc r31,r25
 2513 0c00 260C      		add r2,r6
 2514 0c02 371C      		adc r3,r7
 2515 0c04 481C      		adc r4,r8
 2516 0c06 591C      		adc r5,r9
 2517 0c08 20A2      		std Z+32,r2
 2518 0c0a 31A2      		std Z+33,r3
 2519 0c0c 42A2      		std Z+34,r4
 2520 0c0e 53A2      		std Z+35,r5
 2521               	.LBE684:
 2522               	.LBE683:
 2523               	.LBB685:
 2524               	.LBB686:
 2525               	.LM288:
 2526 0c10 A4A2      		std Z+36,r10
 2527 0c12 B5A2      		std Z+37,r11
 2528 0c14 C6A2      		std Z+38,r12
 2529 0c16 D7A2      		std Z+39,r13
 2530               	.LBE686:
 2531               	.LBE685:
 2532               	.LBB687:
 2533               	.LBB688:
 2534               	.LM289:
 2535 0c18 978D      		ldd r25,Z+31
 2536 0c1a 892F      		mov r24,r25
 2537 0c1c 8695      		lsr r24
 2538 0c1e 8F70      		andi r24,lo8(15)
 2539 0c20 8130      		cpi r24,lo8(1)
 2540 0c22 01F0      		breq .L126
 2541               	.LBB689:
 2542               	.LBB690:
 2543               	.LM290:
 2544 0c24 917E      		andi r25,lo8(-31)
 2545 0c26 9260      		ori r25,lo8(2)
 2546 0c28 978F      		std Z+31,r25
 2547               	.LVL156:
 2548               	.L126:
 2549               	/* epilogue start */
 2550               	.LBE690:
 2551               	.LBE689:
 2552               	.LBE688:
 2553               	.LBE687:
 2554               	.LBE672:
 2555               	.LM291:
 2556 0c2a 0F90      		pop __tmp_reg__
 2557 0c2c 0F90      		pop __tmp_reg__
 2558 0c2e 0F90      		pop __tmp_reg__
 2559 0c30 0F90      		pop __tmp_reg__
 2560 0c32 CF91      		pop r28
 2561 0c34 DF91      		pop r29
 2562 0c36 1F91      		pop r17
 2563 0c38 0F91      		pop r16
 2564 0c3a FF90      		pop r15
 2565 0c3c EF90      		pop r14
 2566 0c3e DF90      		pop r13
 2567 0c40 CF90      		pop r12
 2568               	.LVL157:
 2569 0c42 BF90      		pop r11
 2570 0c44 AF90      		pop r10
 2571               	.LVL158:
 2572 0c46 9F90      		pop r9
 2573 0c48 8F90      		pop r8
 2574               	.LVL159:
 2575 0c4a 7F90      		pop r7
 2576 0c4c 6F90      		pop r6
 2577               	.LVL160:
 2578 0c4e 5F90      		pop r5
 2579 0c50 4F90      		pop r4
 2580 0c52 3F90      		pop r3
 2581 0c54 2F90      		pop r2
 2582               	.LVL161:
 2583 0c56 0895      		ret
 2584               	.LFE49:
 2586               	.global	Timebase_UpCounter_SS_Set_Forcefully
 2588               	Timebase_UpCounter_SS_Set_Forcefully:
 2589               	.LFB50:
 2590               	.LM292:
 2591               	.LVL162:
 2592 0c58 DF92      		push r13
 2593 0c5a EF92      		push r14
 2594 0c5c FF92      		push r15
 2595 0c5e 0F93      		push r16
 2596 0c60 1F93      		push r17
 2597               	/* prologue: function */
 2598               	/* frame size = 0 */
 2599 0c62 D82E      		mov r13,r24
 2600 0c64 7A01      		movw r14,r20
 2601 0c66 8B01      		movw r16,r22
 2602               	.LM293:
 2603 0c68 0E94 0000 		call Timebase_UpCounter_SS_Reset
 2604               	.LVL163:
 2605               	.LM294:
 2606 0c6c 8D2D      		mov r24,r13
 2607 0c6e B801      		movw r22,r16
 2608 0c70 A701      		movw r20,r14
 2609 0c72 0E94 0000 		call Timebase_UpCounter_SS_Set_Securely
 2610               	/* epilogue start */
 2611               	.LM295:
 2612 0c76 1F91      		pop r17
 2613 0c78 0F91      		pop r16
 2614 0c7a FF90      		pop r15
 2615 0c7c EF90      		pop r14
 2616               	.LVL164:
 2617 0c7e DF90      		pop r13
 2618               	.LVL165:
 2619 0c80 0895      		ret
 2620               	.LFE50:
 2622               	.global	Timebase_UpCounter_SS_Update
 2624               	Timebase_UpCounter_SS_Update:
 2625               	.LFB51:
 2626               	.LM296:
 2627               	.LVL166:
 2628 0c82 EF92      		push r14
 2629 0c84 FF92      		push r15
 2630 0c86 0F93      		push r16
 2631 0c88 1F93      		push r17
 2632               	/* prologue: function */
 2633               	/* frame size = 0 */
 2634               	.LBB691:
 2635               	.LBB692:
 2636               	.LM297:
 2637 0c8a A091 0000 		lds r26,Timebase
 2638 0c8e B091 0000 		lds r27,(Timebase)+1
 2639 0c92 90E0      		ldi r25,lo8(0)
 2640 0c94 29E1      		ldi r18,lo8(25)
 2641 0c96 30E0      		ldi r19,hi8(25)
 2642 0c98 829F      		mul r24,r18
 2643 0c9a F001      		movw r30,r0
 2644 0c9c 839F      		mul r24,r19
 2645 0c9e F00D      		add r31,r0
 2646 0ca0 929F      		mul r25,r18
 2647 0ca2 F00D      		add r31,r0
 2648 0ca4 1124      		clr r1
 2649               	.LVL167:
 2650 0ca6 EA0F      		add r30,r26
 2651 0ca8 FB1F      		adc r31,r27
 2652 0caa 878D      		ldd r24,Z+31
 2653 0cac 8695      		lsr r24
 2654 0cae 8F70      		andi r24,lo8(15)
 2655               	.LBE692:
 2656               	.LBE691:
 2657               	.LM298:
 2658 0cb0 8130      		cpi r24,lo8(1)
 2659 0cb2 01F4      		brne .L130
 2660               	.LBB693:
 2661               	.LBB694:
 2662               	.LM299:
 2663 0cb4 1A96      		adiw r26,10
 2664 0cb6 8D91      		ld r24,X+
 2665 0cb8 9D91      		ld r25,X+
 2666 0cba 0D90      		ld __tmp_reg__,X+
 2667 0cbc BC91      		ld r27,X
 2668 0cbe A02D      		mov r26,__tmp_reg__
 2669               	.LVL168:
 2670               	.LBE694:
 2671               	.LBE693:
 2672               	.LBB695:
 2673               	.LBB696:
 2674               	.LM300:
 2675 0cc0 E0A4      		ldd r14,Z+40
 2676 0cc2 F1A4      		ldd r15,Z+41
 2677 0cc4 02A5      		ldd r16,Z+42
 2678 0cc6 13A5      		ldd r17,Z+43
 2679 0cc8 24A5      		ldd r18,Z+44
 2680 0cca 35A5      		ldd r19,Z+45
 2681 0ccc 46A5      		ldd r20,Z+46
 2682 0cce 57A5      		ldd r21,Z+47
 2683 0cd0 D801      		movw r26,r16
 2684 0cd2 C701      		movw r24,r14
 2685               	.LVL169:
 2686 0cd4 821B      		sub r24,r18
 2687 0cd6 930B      		sbc r25,r19
 2688 0cd8 A40B      		sbc r26,r20
 2689 0cda B50B      		sbc r27,r21
 2690 0cdc 80AB      		std Z+48,r24
 2691 0cde 91AB      		std Z+49,r25
 2692 0ce0 A2AB      		std Z+50,r26
 2693 0ce2 B3AB      		std Z+51,r27
 2694               	.LBE696:
 2695               	.LBE695:
 2696               	.LM301:
 2697 0ce4 1216      		cp __zero_reg__,r18
 2698 0ce6 1306      		cpc __zero_reg__,r19
 2699 0ce8 1406      		cpc __zero_reg__,r20
 2700 0cea 1506      		cpc __zero_reg__,r21
 2701 0cec 04F0      		brlt .L132
 2702               	.LBB697:
 2703               	.LBB698:
 2704               	.LM302:
 2705 0cee 14A6      		std Z+44,__zero_reg__
 2706 0cf0 15A6      		std Z+45,__zero_reg__
 2707 0cf2 16A6      		std Z+46,__zero_reg__
 2708 0cf4 17A6      		std Z+47,__zero_reg__
 2709               	.LBE698:
 2710               	.LBE697:
 2711               	.LBB699:
 2712               	.LBB700:
 2713               	.LM303:
 2714 0cf6 E0AA      		std Z+48,r14
 2715 0cf8 F1AA      		std Z+49,r15
 2716 0cfa 02AB      		std Z+50,r16
 2717 0cfc 13AB      		std Z+51,r17
 2718               	.LBE700:
 2719               	.LBE699:
 2720               	.LBB701:
 2721               	.LBB702:
 2722               	.LM304:
 2723 0cfe 878D      		ldd r24,Z+31
 2724 0d00 817E      		andi r24,lo8(-31)
 2725 0d02 8860      		ori r24,lo8(8)
 2726 0d04 878F      		std Z+31,r24
 2727 0d06 00C0      		rjmp .L132
 2728               	.L130:
 2729               	.LBE702:
 2730               	.LBE701:
 2731               	.LM305:
 2732 0d08 8230      		cpi r24,lo8(2)
 2733 0d0a 01F4      		brne .L132
 2734               	.LBB703:
 2735               	.LBB704:
 2736               	.LM306:
 2737 0d0c 1A96      		adiw r26,10
 2738 0d0e 8D91      		ld r24,X+
 2739 0d10 9D91      		ld r25,X+
 2740 0d12 0D90      		ld __tmp_reg__,X+
 2741 0d14 BC91      		ld r27,X
 2742 0d16 A02D      		mov r26,__tmp_reg__
 2743               	.LVL170:
 2744               	.LBE704:
 2745               	.LBE703:
 2746               	.LBB705:
 2747               	.LBB706:
 2748               	.LM307:
 2749 0d18 80A5      		ldd r24,Z+40
 2750 0d1a 91A5      		ldd r25,Z+41
 2751 0d1c A2A5      		ldd r26,Z+42
 2752 0d1e B3A5      		ldd r27,Z+43
 2753               	.LVL171:
 2754 0d20 24A5      		ldd r18,Z+44
 2755 0d22 35A5      		ldd r19,Z+45
 2756 0d24 46A5      		ldd r20,Z+46
 2757 0d26 57A5      		ldd r21,Z+47
 2758 0d28 821B      		sub r24,r18
 2759 0d2a 930B      		sbc r25,r19
 2760 0d2c A40B      		sbc r26,r20
 2761 0d2e B50B      		sbc r27,r21
 2762 0d30 80AB      		std Z+48,r24
 2763 0d32 91AB      		std Z+49,r25
 2764 0d34 A2AB      		std Z+50,r26
 2765 0d36 B3AB      		std Z+51,r27
 2766               	.L132:
 2767               	/* epilogue start */
 2768               	.LBE706:
 2769               	.LBE705:
 2770               	.LM308:
 2771 0d38 1F91      		pop r17
 2772 0d3a 0F91      		pop r16
 2773 0d3c FF90      		pop r15
 2774 0d3e EF90      		pop r14
 2775 0d40 0895      		ret
 2776               	.LFE51:
 2778               	.global	Timebase_UpCounter_SS_Expired
 2780               	Timebase_UpCounter_SS_Expired:
 2781               	.LFB52:
 2782               	.LM309:
 2783               	.LVL172:
 2784               	/* prologue: function */
 2785               	/* frame size = 0 */
 2786               	.LM310:
 2787 0d42 40E0      		ldi r20,lo8(0)
 2788 0d44 E091 0000 		lds r30,Timebase
 2789 0d48 F091 0000 		lds r31,(Timebase)+1
 2790 0d4c 90E0      		ldi r25,lo8(0)
 2791               	.LVL173:
 2792 0d4e 29E1      		ldi r18,lo8(25)
 2793 0d50 30E0      		ldi r19,hi8(25)
 2794 0d52 BC01      		movw r22,r24
 2795 0d54 629F      		mul r22,r18
 2796 0d56 C001      		movw r24,r0
 2797 0d58 639F      		mul r22,r19
 2798 0d5a 900D      		add r25,r0
 2799 0d5c 729F      		mul r23,r18
 2800 0d5e 900D      		add r25,r0
 2801 0d60 1124      		clr r1
 2802               	.LVL174:
 2803 0d62 E80F      		add r30,r24
 2804 0d64 F91F      		adc r31,r25
 2805 0d66 878D      		ldd r24,Z+31
 2806 0d68 8695      		lsr r24
 2807 0d6a 8F70      		andi r24,lo8(15)
 2808 0d6c 8430      		cpi r24,lo8(4)
 2809 0d6e 01F4      		brne .L134
 2810 0d70 41E0      		ldi r20,lo8(1)
 2811               	.L134:
 2812               	.LM311:
 2813 0d72 842F      		mov r24,r20
 2814               	/* epilogue start */
 2815 0d74 0895      		ret
 2816               	.LFE52:
 2818               	.global	Timebase_UpCounter_SS_Expired_Event
 2820               	Timebase_UpCounter_SS_Expired_Event:
 2821               	.LFB53:
 2822               	.LM312:
 2823               	.LVL175:
 2824               	/* prologue: function */
 2825               	/* frame size = 0 */
 2826 0d76 482F      		mov r20,r24
 2827               	.LM313:
 2828 0d78 E091 0000 		lds r30,Timebase
 2829 0d7c F091 0000 		lds r31,(Timebase)+1
 2830 0d80 282F      		mov r18,r24
 2831 0d82 30E0      		ldi r19,lo8(0)
 2832               	.LVL176:
 2833 0d84 89E1      		ldi r24,lo8(25)
 2834 0d86 90E0      		ldi r25,hi8(25)
 2835               	.LVL177:
 2836 0d88 BC01      		movw r22,r24
 2837 0d8a 269F      		mul r18,r22
 2838 0d8c C001      		movw r24,r0
 2839 0d8e 279F      		mul r18,r23
 2840 0d90 900D      		add r25,r0
 2841 0d92 369F      		mul r19,r22
 2842 0d94 900D      		add r25,r0
 2843 0d96 1124      		clr r1
 2844 0d98 E80F      		add r30,r24
 2845 0d9a F91F      		adc r31,r25
 2846 0d9c 878D      		ldd r24,Z+31
 2847 0d9e 8695      		lsr r24
 2848 0da0 8F70      		andi r24,lo8(15)
 2849 0da2 8430      		cpi r24,lo8(4)
 2850 0da4 01F0      		breq .L137
 2851 0da6 80E0      		ldi r24,lo8(0)
 2852 0da8 0895      		ret
 2853               	.L137:
 2854               	.LBB707:
 2855               	.LBB708:
 2856               	.LM314:
 2857 0daa 842F      		mov r24,r20
 2858 0dac 0E94 0000 		call Timebase_UpCounter_SS_Reset
 2859               	.LVL178:
 2860 0db0 81E0      		ldi r24,lo8(1)
 2861               	.LBE708:
 2862               	.LBE707:
 2863               	.LM315:
 2864 0db2 0895      		ret
 2865               	.LFE53:
 2867               	.global	Timebase_UpCounter_SS_Set_Period_Value_Securely
 2869               	Timebase_UpCounter_SS_Set_Period_Value_Securely:
 2870               	.LFB54:
 2871               	.LM316:
 2872               	.LVL179:
 2873               	/* prologue: function */
 2874               	/* frame size = 0 */
 2875               	.LBB709:
 2876               	.LBB710:
 2877               	.LM317:
 2878 0db4 E091 0000 		lds r30,Timebase
 2879 0db8 F091 0000 		lds r31,(Timebase)+1
 2880 0dbc 90E0      		ldi r25,lo8(0)
 2881               	.LBE710:
 2882               	.LBE709:
 2883               	.LM318:
 2884 0dbe 29E1      		ldi r18,lo8(25)
 2885 0dc0 30E0      		ldi r19,hi8(25)
 2886 0dc2 DC01      		movw r26,r24
 2887               	.LVL180:
 2888 0dc4 A29F      		mul r26,r18
 2889 0dc6 C001      		movw r24,r0
 2890 0dc8 A39F      		mul r26,r19
 2891 0dca 900D      		add r25,r0
 2892 0dcc B29F      		mul r27,r18
 2893 0dce 900D      		add r25,r0
 2894 0dd0 1124      		clr r1
 2895 0dd2 E80F      		add r30,r24
 2896 0dd4 F91F      		adc r31,r25
 2897 0dd6 878D      		ldd r24,Z+31
 2898 0dd8 80FD      		sbrc r24,0
 2899 0dda 00C0      		rjmp .L142
 2900               	.LBB711:
 2901               	.LBB712:
 2902               	.LM319:
 2903 0ddc 80A9      		ldd r24,Z+48
 2904 0dde 91A9      		ldd r25,Z+49
 2905 0de0 A2A9      		ldd r26,Z+50
 2906 0de2 B3A9      		ldd r27,Z+51
 2907 0de4 840F      		add r24,r20
 2908 0de6 951F      		adc r25,r21
 2909 0de8 A61F      		adc r26,r22
 2910 0dea B71F      		adc r27,r23
 2911 0dec 84AB      		std Z+52,r24
 2912 0dee 95AB      		std Z+53,r25
 2913 0df0 A6AB      		std Z+54,r26
 2914 0df2 B7AB      		std Z+55,r27
 2915               	.LBE712:
 2916               	.LBE711:
 2917               	.LBB713:
 2918               	.LBB714:
 2919               	.LM320:
 2920 0df4 878D      		ldd r24,Z+31
 2921 0df6 8160      		ori r24,lo8(1)
 2922 0df8 878F      		std Z+31,r24
 2923               	.L142:
 2924 0dfa 0895      		ret
 2925               	.LBE714:
 2926               	.LBE713:
 2927               	.LFE54:
 2929               	.global	Timebase_UpCounter_SS_Get_Remaining_Period_Value
 2931               	Timebase_UpCounter_SS_Get_Remaining_Period_Value:
 2932               	.LFB55:
 2933               	.LM321:
 2934               	.LVL181:
 2935               	/* prologue: function */
 2936               	/* frame size = 0 */
 2937               	.LBB715:
 2938               	.LBB716:
 2939               	.LM322:
 2940 0dfc E091 0000 		lds r30,Timebase
 2941 0e00 F091 0000 		lds r31,(Timebase)+1
 2942 0e04 90E0      		ldi r25,lo8(0)
 2943               	.LBE716:
 2944               	.LBE715:
 2945               	.LM323:
 2946 0e06 29E1      		ldi r18,lo8(25)
 2947 0e08 30E0      		ldi r19,hi8(25)
 2948 0e0a AC01      		movw r20,r24
 2949               	.LVL182:
 2950 0e0c 429F      		mul r20,r18
 2951 0e0e C001      		movw r24,r0
 2952 0e10 439F      		mul r20,r19
 2953 0e12 900D      		add r25,r0
 2954 0e14 529F      		mul r21,r18
 2955 0e16 900D      		add r25,r0
 2956 0e18 1124      		clr r1
 2957 0e1a E80F      		add r30,r24
 2958 0e1c F91F      		adc r31,r25
 2959 0e1e 24A9      		ldd r18,Z+52
 2960 0e20 35A9      		ldd r19,Z+53
 2961 0e22 46A9      		ldd r20,Z+54
 2962 0e24 57A9      		ldd r21,Z+55
 2963               	.LVL183:
 2964 0e26 80A9      		ldd r24,Z+48
 2965 0e28 91A9      		ldd r25,Z+49
 2966 0e2a A2A9      		ldd r26,Z+50
 2967 0e2c B3A9      		ldd r27,Z+51
 2968 0e2e 281B      		sub r18,r24
 2969 0e30 390B      		sbc r19,r25
 2970 0e32 4A0B      		sbc r20,r26
 2971 0e34 5B0B      		sbc r21,r27
 2972 0e36 57FF      		sbrs r21,7
 2973 0e38 00C0      		rjmp .L144
 2974 0e3a 20E0      		ldi r18,lo8(0)
 2975 0e3c 30E0      		ldi r19,hi8(0)
 2976 0e3e 40E0      		ldi r20,hlo8(0)
 2977 0e40 50E0      		ldi r21,hhi8(0)
 2978               	.L144:
 2979               	.LM324:
 2980 0e42 B901      		movw r22,r18
 2981               	.LVL184:
 2982 0e44 CA01      		movw r24,r20
 2983               	/* epilogue start */
 2984 0e46 0895      		ret
 2985               	.LFE55:
 2987               	.global	Timebase_UpCounter_SS_Period_Value_Expired
 2989               	Timebase_UpCounter_SS_Period_Value_Expired:
 2990               	.LFB56:
 2991               	.LM325:
 2992               	.LVL185:
 2993 0e48 CF93      		push r28
 2994 0e4a DF93      		push r29
 2995               	/* prologue: function */
 2996               	/* frame size = 0 */
 2997               	.LBB717:
 2998               	.LBB718:
 2999               	.LBB719:
 3000               	.LBB720:
 3001               	.LM326:
 3002 0e4c C091 0000 		lds r28,Timebase
 3003 0e50 D091 0000 		lds r29,(Timebase)+1
 3004 0e54 682F      		mov r22,r24
 3005 0e56 70E0      		ldi r23,lo8(0)
 3006               	.LBE720:
 3007               	.LBE719:
 3008               	.LM327:
 3009 0e58 89E1      		ldi r24,lo8(25)
 3010 0e5a 90E0      		ldi r25,hi8(25)
 3011               	.LVL186:
 3012 0e5c 689F      		mul r22,r24
 3013 0e5e F001      		movw r30,r0
 3014 0e60 699F      		mul r22,r25
 3015 0e62 F00D      		add r31,r0
 3016 0e64 789F      		mul r23,r24
 3017 0e66 F00D      		add r31,r0
 3018 0e68 1124      		clr r1
 3019 0e6a EC0F      		add r30,r28
 3020 0e6c FD1F      		adc r31,r29
 3021 0e6e 24A9      		ldd r18,Z+52
 3022 0e70 35A9      		ldd r19,Z+53
 3023 0e72 46A9      		ldd r20,Z+54
 3024 0e74 57A9      		ldd r21,Z+55
 3025               	.LVL187:
 3026 0e76 80A9      		ldd r24,Z+48
 3027 0e78 91A9      		ldd r25,Z+49
 3028 0e7a A2A9      		ldd r26,Z+50
 3029 0e7c B3A9      		ldd r27,Z+51
 3030 0e7e 281B      		sub r18,r24
 3031 0e80 390B      		sbc r19,r25
 3032 0e82 4A0B      		sbc r20,r26
 3033 0e84 5B0B      		sbc r21,r27
 3034               	.LM328:
 3035 0e86 57FD      		sbrc r21,7
 3036 0e88 00C0      		rjmp .L147
 3037               	.LBE718:
 3038               	.LBE717:
 3039               	.LM329:
 3040 0e8a 2115      		cp r18,__zero_reg__
 3041 0e8c 3105      		cpc r19,__zero_reg__
 3042 0e8e 4105      		cpc r20,__zero_reg__
 3043 0e90 5105      		cpc r21,__zero_reg__
 3044 0e92 01F0      		breq .L147
 3045 0e94 20E0      		ldi r18,lo8(0)
 3046               	.LVL188:
 3047 0e96 00C0      		rjmp .L148
 3048               	.LVL189:
 3049               	.L147:
 3050 0e98 20E0      		ldi r18,lo8(0)
 3051               	.LVL190:
 3052 0e9a 89E1      		ldi r24,lo8(25)
 3053 0e9c 90E0      		ldi r25,hi8(25)
 3054 0e9e AC01      		movw r20,r24
 3055 0ea0 649F      		mul r22,r20
 3056 0ea2 C001      		movw r24,r0
 3057 0ea4 659F      		mul r22,r21
 3058 0ea6 900D      		add r25,r0
 3059 0ea8 749F      		mul r23,r20
 3060 0eaa 900D      		add r25,r0
 3061 0eac 1124      		clr r1
 3062 0eae C80F      		add r28,r24
 3063 0eb0 D91F      		adc r29,r25
 3064 0eb2 8F8D      		ldd r24,Y+31
 3065 0eb4 80FF      		sbrs r24,0
 3066 0eb6 21E0      		ldi r18,lo8(1)
 3067               	.L149:
 3068 0eb8 81E0      		ldi r24,lo8(1)
 3069 0eba 2827      		eor r18,r24
 3070               	.L148:
 3071               	.LM330:
 3072 0ebc 822F      		mov r24,r18
 3073               	/* epilogue start */
 3074 0ebe DF91      		pop r29
 3075 0ec0 CF91      		pop r28
 3076 0ec2 0895      		ret
 3077               	.LFE56:
 3079               	.global	Timebase_UpCounter_SS_Period_Value_Expired_Event
 3081               	Timebase_UpCounter_SS_Period_Value_Expired_Event:
 3082               	.LFB57:
 3083               	.LM331:
 3084               	.LVL191:
 3085 0ec4 1F93      		push r17
 3086               	/* prologue: function */
 3087               	/* frame size = 0 */
 3088 0ec6 182F      		mov r17,r24
 3089               	.LM332:
 3090 0ec8 0E94 0000 		call Timebase_UpCounter_SS_Period_Value_Expired
 3091               	.LVL192:
 3092 0ecc 8130      		cpi r24,lo8(1)
 3093 0ece 01F0      		breq .L152
 3094 0ed0 80E0      		ldi r24,lo8(0)
 3095 0ed2 00C0      		rjmp .L153
 3096               	.L152:
 3097               	.LBB721:
 3098               	.LBB722:
 3099               	.LM333:
 3100 0ed4 E091 0000 		lds r30,Timebase
 3101 0ed8 F091 0000 		lds r31,(Timebase)+1
 3102 0edc 212F      		mov r18,r17
 3103 0ede 30E0      		ldi r19,lo8(0)
 3104               	.LVL193:
 3105 0ee0 89E1      		ldi r24,lo8(25)
 3106 0ee2 90E0      		ldi r25,hi8(25)
 3107 0ee4 AC01      		movw r20,r24
 3108 0ee6 249F      		mul r18,r20
 3109 0ee8 C001      		movw r24,r0
 3110 0eea 259F      		mul r18,r21
 3111 0eec 900D      		add r25,r0
 3112 0eee 349F      		mul r19,r20
 3113 0ef0 900D      		add r25,r0
 3114 0ef2 1124      		clr r1
 3115 0ef4 E80F      		add r30,r24
 3116 0ef6 F91F      		adc r31,r25
 3117 0ef8 878D      		ldd r24,Z+31
 3118 0efa 8E7F      		andi r24,lo8(-2)
 3119 0efc 878F      		std Z+31,r24
 3120 0efe 81E0      		ldi r24,lo8(1)
 3121               	.L153:
 3122               	/* epilogue start */
 3123               	.LBE722:
 3124               	.LBE721:
 3125               	.LM334:
 3126 0f00 1F91      		pop r17
 3127               	.LVL194:
 3128 0f02 0895      		ret
 3129               	.LFE57:
 3131               	.global	Timebase_UpCounter_SS_Update_All
 3133               	Timebase_UpCounter_SS_Update_All:
 3134               	.LFB58:
 3135               	.LM335:
 3136               	/* prologue: function */
 3137               	/* frame size = 0 */
 3138               	.LBB723:
 3139               	.LM336:
 3140 0f04 80E0      		ldi r24,lo8(0)
 3141 0f06 0E94 0000 		call Timebase_UpCounter_SS_Update
 3142               	/* epilogue start */
 3143               	.LBE723:
 3144               	.LM337:
 3145 0f0a 0895      		ret
 3146               	.LFE58:
 3148               	.global	Timebase_UpCounter_SS_Reset_All
 3150               	Timebase_UpCounter_SS_Reset_All:
 3151               	.LFB59:
 3152               	.LM338:
 3153               	/* prologue: function */
 3154               	/* frame size = 0 */
 3155               	.LBB724:
 3156               	.LM339:
 3157 0f0c 80E0      		ldi r24,lo8(0)
 3158 0f0e 0E94 0000 		call Timebase_UpCounter_SS_Reset
 3159               	/* epilogue start */
 3160               	.LBE724:
 3161               	.LM340:
 3162 0f12 0895      		ret
 3163               	.LFE59:
 3165               	.global	Timebase_UpCounter_Get_Status
 3167               	Timebase_UpCounter_Get_Status:
 3168               	.LFB60:
 3169               	.LM341:
 3170               	.LVL195:
 3171               	/* prologue: function */
 3172               	/* frame size = 0 */
 3173               	.LM342:
 3174 0f14 E091 0000 		lds r30,Timebase
 3175 0f18 F091 0000 		lds r31,(Timebase)+1
 3176 0f1c 90E0      		ldi r25,lo8(0)
 3177               	.LVL196:
 3178 0f1e 25E1      		ldi r18,lo8(21)
 3179 0f20 30E0      		ldi r19,hi8(21)
 3180 0f22 AC01      		movw r20,r24
 3181 0f24 429F      		mul r20,r18
 3182 0f26 C001      		movw r24,r0
 3183 0f28 439F      		mul r20,r19
 3184 0f2a 900D      		add r25,r0
 3185 0f2c 529F      		mul r21,r18
 3186 0f2e 900D      		add r25,r0
 3187 0f30 1124      		clr r1
 3188               	.LVL197:
 3189 0f32 E80F      		add r30,r24
 3190 0f34 F91F      		adc r31,r25
 3191 0f36 80AD      		ldd r24,Z+56
 3192 0f38 8695      		lsr r24
 3193               	.LM343:
 3194 0f3a 8F70      		andi r24,lo8(15)
 3195               	/* epilogue start */
 3196 0f3c 0895      		ret
 3197               	.LFE60:
 3199               	.global	Timebase_UpCounter_Set_Status
 3201               	Timebase_UpCounter_Set_Status:
 3202               	.LFB61:
 3203               	.LM344:
 3204               	.LVL198:
 3205               	/* prologue: function */
 3206               	/* frame size = 0 */
 3207               	.LM345:
 3208 0f3e E091 0000 		lds r30,Timebase
 3209 0f42 F091 0000 		lds r31,(Timebase)+1
 3210 0f46 90E0      		ldi r25,lo8(0)
 3211               	.LVL199:
 3212 0f48 25E1      		ldi r18,lo8(21)
 3213 0f4a 30E0      		ldi r19,hi8(21)
 3214 0f4c AC01      		movw r20,r24
 3215 0f4e 429F      		mul r20,r18
 3216 0f50 C001      		movw r24,r0
 3217 0f52 439F      		mul r20,r19
 3218 0f54 900D      		add r25,r0
 3219 0f56 529F      		mul r21,r18
 3220 0f58 900D      		add r25,r0
 3221 0f5a 1124      		clr r1
 3222               	.LVL200:
 3223 0f5c E80F      		add r30,r24
 3224 0f5e F91F      		adc r31,r25
 3225 0f60 6F70      		andi r22,lo8(15)
 3226               	.LVL201:
 3227 0f62 660F      		lsl r22
 3228 0f64 80AD      		ldd r24,Z+56
 3229 0f66 817E      		andi r24,lo8(-31)
 3230 0f68 862B      		or r24,r22
 3231 0f6a 80AF      		std Z+56,r24
 3232               	/* epilogue start */
 3233               	.LM346:
 3234 0f6c 0895      		ret
 3235               	.LFE61:
 3237               	.global	Timebase_UpCounter_Get_Value
 3239               	Timebase_UpCounter_Get_Value:
 3240               	.LFB62:
 3241               	.LM347:
 3242               	.LVL202:
 3243               	/* prologue: function */
 3244               	/* frame size = 0 */
 3245               	.LM348:
 3246 0f6e E091 0000 		lds r30,Timebase
 3247 0f72 F091 0000 		lds r31,(Timebase)+1
 3248 0f76 90E0      		ldi r25,lo8(0)
 3249               	.LVL203:
 3250 0f78 25E1      		ldi r18,lo8(21)
 3251 0f7a 30E0      		ldi r19,hi8(21)
 3252 0f7c AC01      		movw r20,r24
 3253 0f7e 429F      		mul r20,r18
 3254 0f80 C001      		movw r24,r0
 3255 0f82 439F      		mul r20,r19
 3256 0f84 900D      		add r25,r0
 3257 0f86 529F      		mul r21,r18
 3258 0f88 900D      		add r25,r0
 3259 0f8a 1124      		clr r1
 3260               	.LVL204:
 3261 0f8c E80F      		add r30,r24
 3262 0f8e F91F      		adc r31,r25
 3263 0f90 EB5B      		subi r30,lo8(-(69))
 3264 0f92 FF4F      		sbci r31,hi8(-(69))
 3265 0f94 6081      		ld r22,Z
 3266 0f96 7181      		ldd r23,Z+1
 3267               	.LM349:
 3268 0f98 8281      		ldd r24,Z+2
 3269 0f9a 9381      		ldd r25,Z+3
 3270               	.LVL205:
 3271               	/* epilogue start */
 3272 0f9c 0895      		ret
 3273               	.LFE62:
 3275               	.global	Timebase_UpCounter_Set_Value
 3277               	Timebase_UpCounter_Set_Value:
 3278               	.LFB63:
 3279               	.LM350:
 3280               	.LVL206:
 3281               	/* prologue: function */
 3282               	/* frame size = 0 */
 3283               	.LM351:
 3284 0f9e E091 0000 		lds r30,Timebase
 3285 0fa2 F091 0000 		lds r31,(Timebase)+1
 3286 0fa6 90E0      		ldi r25,lo8(0)
 3287               	.LVL207:
 3288 0fa8 25E1      		ldi r18,lo8(21)
 3289 0faa 30E0      		ldi r19,hi8(21)
 3290 0fac DC01      		movw r26,r24
 3291 0fae A29F      		mul r26,r18
 3292 0fb0 C001      		movw r24,r0
 3293 0fb2 A39F      		mul r26,r19
 3294 0fb4 900D      		add r25,r0
 3295 0fb6 B29F      		mul r27,r18
 3296 0fb8 900D      		add r25,r0
 3297 0fba 1124      		clr r1
 3298               	.LVL208:
 3299 0fbc E80F      		add r30,r24
 3300 0fbe F91F      		adc r31,r25
 3301 0fc0 EB5B      		subi r30,lo8(-(69))
 3302 0fc2 FF4F      		sbci r31,hi8(-(69))
 3303 0fc4 4083      		st Z,r20
 3304 0fc6 5183      		std Z+1,r21
 3305 0fc8 6283      		std Z+2,r22
 3306 0fca 7383      		std Z+3,r23
 3307               	/* epilogue start */
 3308               	.LM352:
 3309 0fcc 0895      		ret
 3310               	.LFE63:
 3312               	.global	Timebase_UpCounter_Get_EndValue
 3314               	Timebase_UpCounter_Get_EndValue:
 3315               	.LFB64:
 3316               	.LM353:
 3317               	.LVL209:
 3318               	/* prologue: function */
 3319               	/* frame size = 0 */
 3320               	.LM354:
 3321 0fce E091 0000 		lds r30,Timebase
 3322 0fd2 F091 0000 		lds r31,(Timebase)+1
 3323 0fd6 90E0      		ldi r25,lo8(0)
 3324               	.LVL210:
 3325 0fd8 25E1      		ldi r18,lo8(21)
 3326 0fda 30E0      		ldi r19,hi8(21)
 3327 0fdc AC01      		movw r20,r24
 3328 0fde 429F      		mul r20,r18
 3329 0fe0 C001      		movw r24,r0
 3330 0fe2 439F      		mul r20,r19
 3331 0fe4 900D      		add r25,r0
 3332 0fe6 529F      		mul r21,r18
 3333 0fe8 900D      		add r25,r0
 3334 0fea 1124      		clr r1
 3335               	.LVL211:
 3336 0fec E80F      		add r30,r24
 3337 0fee F91F      		adc r31,r25
 3338 0ff0 DF01      		movw r26,r30
 3339 0ff2 D996      		adiw r26,57
 3340 0ff4 61AD      		ldd r22,Z+57
 3341 0ff6 1196      		adiw r26,1
 3342 0ff8 7C91      		ld r23,X
 3343 0ffa 1197      		sbiw r26,1
 3344               	.LM355:
 3345 0ffc 1296      		adiw r26,2
 3346 0ffe 8C91      		ld r24,X
 3347 1000 1297      		sbiw r26,2
 3348 1002 1396      		adiw r26,3
 3349 1004 9C91      		ld r25,X
 3350               	.LVL212:
 3351               	/* epilogue start */
 3352 1006 0895      		ret
 3353               	.LFE64:
 3355               	.global	Timebase_UpCounter_Set_EndValue
 3357               	Timebase_UpCounter_Set_EndValue:
 3358               	.LFB65:
 3359               	.LM356:
 3360               	.LVL213:
 3361               	/* prologue: function */
 3362               	/* frame size = 0 */
 3363               	.LM357:
 3364 1008 E091 0000 		lds r30,Timebase
 3365 100c F091 0000 		lds r31,(Timebase)+1
 3366 1010 90E0      		ldi r25,lo8(0)
 3367               	.LVL214:
 3368 1012 25E1      		ldi r18,lo8(21)
 3369 1014 30E0      		ldi r19,hi8(21)
 3370 1016 DC01      		movw r26,r24
 3371 1018 A29F      		mul r26,r18
 3372 101a C001      		movw r24,r0
 3373 101c A39F      		mul r26,r19
 3374 101e 900D      		add r25,r0
 3375 1020 B29F      		mul r27,r18
 3376 1022 900D      		add r25,r0
 3377 1024 1124      		clr r1
 3378               	.LVL215:
 3379 1026 E80F      		add r30,r24
 3380 1028 F91F      		adc r31,r25
 3381 102a 41AF      		std Z+57,r20
 3382 102c 52AF      		std Z+58,r21
 3383 102e 63AF      		std Z+59,r22
 3384 1030 74AF      		std Z+60,r23
 3385               	/* epilogue start */
 3386               	.LM358:
 3387 1032 0895      		ret
 3388               	.LFE65:
 3390               	.global	Timebase_UpCounter_Get_TargetValue
 3392               	Timebase_UpCounter_Get_TargetValue:
 3393               	.LFB66:
 3394               	.LM359:
 3395               	.LVL216:
 3396               	/* prologue: function */
 3397               	/* frame size = 0 */
 3398               	.LM360:
 3399 1034 E091 0000 		lds r30,Timebase
 3400 1038 F091 0000 		lds r31,(Timebase)+1
 3401 103c 90E0      		ldi r25,lo8(0)
 3402               	.LVL217:
 3403 103e 25E1      		ldi r18,lo8(21)
 3404 1040 30E0      		ldi r19,hi8(21)
 3405 1042 AC01      		movw r20,r24
 3406 1044 429F      		mul r20,r18
 3407 1046 C001      		movw r24,r0
 3408 1048 439F      		mul r20,r19
 3409 104a 900D      		add r25,r0
 3410 104c 529F      		mul r21,r18
 3411 104e 900D      		add r25,r0
 3412 1050 1124      		clr r1
 3413               	.LVL218:
 3414 1052 E80F      		add r30,r24
 3415 1054 F91F      		adc r31,r25
 3416 1056 FD96      		adiw r30,61
 3417 1058 6081      		ld r22,Z
 3418 105a 7181      		ldd r23,Z+1
 3419               	.LM361:
 3420 105c 8281      		ldd r24,Z+2
 3421 105e 9381      		ldd r25,Z+3
 3422               	.LVL219:
 3423               	/* epilogue start */
 3424 1060 0895      		ret
 3425               	.LFE66:
 3427               	.global	Timebase_UpCounter_Set_TargetValue
 3429               	Timebase_UpCounter_Set_TargetValue:
 3430               	.LFB67:
 3431               	.LM362:
 3432               	.LVL220:
 3433               	/* prologue: function */
 3434               	/* frame size = 0 */
 3435               	.LM363:
 3436 1062 E091 0000 		lds r30,Timebase
 3437 1066 F091 0000 		lds r31,(Timebase)+1
 3438 106a 90E0      		ldi r25,lo8(0)
 3439               	.LVL221:
 3440 106c 25E1      		ldi r18,lo8(21)
 3441 106e 30E0      		ldi r19,hi8(21)
 3442 1070 DC01      		movw r26,r24
 3443 1072 A29F      		mul r26,r18
 3444 1074 C001      		movw r24,r0
 3445 1076 A39F      		mul r26,r19
 3446 1078 900D      		add r25,r0
 3447 107a B29F      		mul r27,r18
 3448 107c 900D      		add r25,r0
 3449 107e 1124      		clr r1
 3450               	.LVL222:
 3451 1080 E80F      		add r30,r24
 3452 1082 F91F      		adc r31,r25
 3453 1084 FD96      		adiw r30,61
 3454 1086 4083      		st Z,r20
 3455 1088 5183      		std Z+1,r21
 3456 108a 6283      		std Z+2,r22
 3457 108c 7383      		std Z+3,r23
 3458               	/* epilogue start */
 3459               	.LM364:
 3460 108e 0895      		ret
 3461               	.LFE67:
 3463               	.global	Timebase_UpCounter_Get_TemporaryValue
 3465               	Timebase_UpCounter_Get_TemporaryValue:
 3466               	.LFB68:
 3467               	.LM365:
 3468               	.LVL223:
 3469               	/* prologue: function */
 3470               	/* frame size = 0 */
 3471               	.LM366:
 3472 1090 E091 0000 		lds r30,Timebase
 3473 1094 F091 0000 		lds r31,(Timebase)+1
 3474 1098 90E0      		ldi r25,lo8(0)
 3475               	.LVL224:
 3476 109a 25E1      		ldi r18,lo8(21)
 3477 109c 30E0      		ldi r19,hi8(21)
 3478 109e AC01      		movw r20,r24
 3479 10a0 429F      		mul r20,r18
 3480 10a2 C001      		movw r24,r0
 3481 10a4 439F      		mul r20,r19
 3482 10a6 900D      		add r25,r0
 3483 10a8 529F      		mul r21,r18
 3484 10aa 900D      		add r25,r0
 3485 10ac 1124      		clr r1
 3486               	.LVL225:
 3487 10ae E80F      		add r30,r24
 3488 10b0 F91F      		adc r31,r25
 3489 10b2 EF5B      		subi r30,lo8(-(65))
 3490 10b4 FF4F      		sbci r31,hi8(-(65))
 3491 10b6 6081      		ld r22,Z
 3492 10b8 7181      		ldd r23,Z+1
 3493               	.LM367:
 3494 10ba 8281      		ldd r24,Z+2
 3495 10bc 9381      		ldd r25,Z+3
 3496               	.LVL226:
 3497               	/* epilogue start */
 3498 10be 0895      		ret
 3499               	.LFE68:
 3501               	.global	Timebase_UpCounter_Set_TemporaryValue
 3503               	Timebase_UpCounter_Set_TemporaryValue:
 3504               	.LFB69:
 3505               	.LM368:
 3506               	.LVL227:
 3507               	/* prologue: function */
 3508               	/* frame size = 0 */
 3509               	.LM369:
 3510 10c0 E091 0000 		lds r30,Timebase
 3511 10c4 F091 0000 		lds r31,(Timebase)+1
 3512 10c8 90E0      		ldi r25,lo8(0)
 3513               	.LVL228:
 3514 10ca 25E1      		ldi r18,lo8(21)
 3515 10cc 30E0      		ldi r19,hi8(21)
 3516 10ce DC01      		movw r26,r24
 3517 10d0 A29F      		mul r26,r18
 3518 10d2 C001      		movw r24,r0
 3519 10d4 A39F      		mul r26,r19
 3520 10d6 900D      		add r25,r0
 3521 10d8 B29F      		mul r27,r18
 3522 10da 900D      		add r25,r0
 3523 10dc 1124      		clr r1
 3524               	.LVL229:
 3525 10de E80F      		add r30,r24
 3526 10e0 F91F      		adc r31,r25
 3527 10e2 EF5B      		subi r30,lo8(-(65))
 3528 10e4 FF4F      		sbci r31,hi8(-(65))
 3529 10e6 4083      		st Z,r20
 3530 10e8 5183      		std Z+1,r21
 3531 10ea 6283      		std Z+2,r22
 3532 10ec 7383      		std Z+3,r23
 3533               	/* epilogue start */
 3534               	.LM370:
 3535 10ee 0895      		ret
 3536               	.LFE69:
 3538               	.global	Timebase_UpCounter_Get_PeriodValue
 3540               	Timebase_UpCounter_Get_PeriodValue:
 3541               	.LFB70:
 3542               	.LM371:
 3543               	.LVL230:
 3544               	/* prologue: function */
 3545               	/* frame size = 0 */
 3546               	.LM372:
 3547 10f0 E091 0000 		lds r30,Timebase
 3548 10f4 F091 0000 		lds r31,(Timebase)+1
 3549 10f8 90E0      		ldi r25,lo8(0)
 3550               	.LVL231:
 3551 10fa 25E1      		ldi r18,lo8(21)
 3552 10fc 30E0      		ldi r19,hi8(21)
 3553 10fe AC01      		movw r20,r24
 3554 1100 429F      		mul r20,r18
 3555 1102 C001      		movw r24,r0
 3556 1104 439F      		mul r20,r19
 3557 1106 900D      		add r25,r0
 3558 1108 529F      		mul r21,r18
 3559 110a 900D      		add r25,r0
 3560 110c 1124      		clr r1
 3561               	.LVL232:
 3562 110e E80F      		add r30,r24
 3563 1110 F91F      		adc r31,r25
 3564 1112 E75B      		subi r30,lo8(-(73))
 3565 1114 FF4F      		sbci r31,hi8(-(73))
 3566 1116 6081      		ld r22,Z
 3567 1118 7181      		ldd r23,Z+1
 3568               	.LM373:
 3569 111a 8281      		ldd r24,Z+2
 3570 111c 9381      		ldd r25,Z+3
 3571               	.LVL233:
 3572               	/* epilogue start */
 3573 111e 0895      		ret
 3574               	.LFE70:
 3576               	.global	Timebase_UpCounter_Set_PeriodValue
 3578               	Timebase_UpCounter_Set_PeriodValue:
 3579               	.LFB71:
 3580               	.LM374:
 3581               	.LVL234:
 3582               	/* prologue: function */
 3583               	/* frame size = 0 */
 3584               	.LM375:
 3585 1120 E091 0000 		lds r30,Timebase
 3586 1124 F091 0000 		lds r31,(Timebase)+1
 3587 1128 90E0      		ldi r25,lo8(0)
 3588               	.LVL235:
 3589 112a 25E1      		ldi r18,lo8(21)
 3590 112c 30E0      		ldi r19,hi8(21)
 3591 112e DC01      		movw r26,r24
 3592 1130 A29F      		mul r26,r18
 3593 1132 C001      		movw r24,r0
 3594 1134 A39F      		mul r26,r19
 3595 1136 900D      		add r25,r0
 3596 1138 B29F      		mul r27,r18
 3597 113a 900D      		add r25,r0
 3598 113c 1124      		clr r1
 3599               	.LVL236:
 3600 113e E80F      		add r30,r24
 3601 1140 F91F      		adc r31,r25
 3602 1142 E75B      		subi r30,lo8(-(73))
 3603 1144 FF4F      		sbci r31,hi8(-(73))
 3604 1146 4083      		st Z,r20
 3605 1148 5183      		std Z+1,r21
 3606 114a 6283      		std Z+2,r22
 3607 114c 7383      		std Z+3,r23
 3608               	/* epilogue start */
 3609               	.LM376:
 3610 114e 0895      		ret
 3611               	.LFE71:
 3613               	.global	Timebase_UpCounter_Get_Period_Flag
 3615               	Timebase_UpCounter_Get_Period_Flag:
 3616               	.LFB72:
 3617               	.LM377:
 3618               	.LVL237:
 3619               	/* prologue: function */
 3620               	/* frame size = 0 */
 3621               	.LM378:
 3622 1150 E091 0000 		lds r30,Timebase
 3623 1154 F091 0000 		lds r31,(Timebase)+1
 3624 1158 90E0      		ldi r25,lo8(0)
 3625               	.LVL238:
 3626 115a 25E1      		ldi r18,lo8(21)
 3627 115c 30E0      		ldi r19,hi8(21)
 3628 115e AC01      		movw r20,r24
 3629 1160 429F      		mul r20,r18
 3630 1162 C001      		movw r24,r0
 3631 1164 439F      		mul r20,r19
 3632 1166 900D      		add r25,r0
 3633 1168 529F      		mul r21,r18
 3634 116a 900D      		add r25,r0
 3635 116c 1124      		clr r1
 3636               	.LVL239:
 3637 116e E80F      		add r30,r24
 3638 1170 F91F      		adc r31,r25
 3639 1172 80AD      		ldd r24,Z+56
 3640               	.LM379:
 3641 1174 8170      		andi r24,lo8(1)
 3642               	/* epilogue start */
 3643 1176 0895      		ret
 3644               	.LFE72:
 3646               	.global	Timebase_UpCounter_Set_Period_Flag
 3648               	Timebase_UpCounter_Set_Period_Flag:
 3649               	.LFB73:
 3650               	.LM380:
 3651               	.LVL240:
 3652               	/* prologue: function */
 3653               	/* frame size = 0 */
 3654               	.LM381:
 3655 1178 E091 0000 		lds r30,Timebase
 3656 117c F091 0000 		lds r31,(Timebase)+1
 3657 1180 90E0      		ldi r25,lo8(0)
 3658               	.LVL241:
 3659 1182 25E1      		ldi r18,lo8(21)
 3660 1184 30E0      		ldi r19,hi8(21)
 3661 1186 AC01      		movw r20,r24
 3662 1188 429F      		mul r20,r18
 3663 118a C001      		movw r24,r0
 3664 118c 439F      		mul r20,r19
 3665 118e 900D      		add r25,r0
 3666 1190 529F      		mul r21,r18
 3667 1192 900D      		add r25,r0
 3668 1194 1124      		clr r1
 3669               	.LVL242:
 3670 1196 E80F      		add r30,r24
 3671 1198 F91F      		adc r31,r25
 3672 119a 80AD      		ldd r24,Z+56
 3673 119c 8160      		ori r24,lo8(1)
 3674 119e 80AF      		std Z+56,r24
 3675               	/* epilogue start */
 3676               	.LM382:
 3677 11a0 0895      		ret
 3678               	.LFE73:
 3680               	.global	Timebase_UpCounter_Clear_Period_Flag
 3682               	Timebase_UpCounter_Clear_Period_Flag:
 3683               	.LFB74:
 3684               	.LM383:
 3685               	.LVL243:
 3686               	/* prologue: function */
 3687               	/* frame size = 0 */
 3688               	.LM384:
 3689 11a2 E091 0000 		lds r30,Timebase
 3690 11a6 F091 0000 		lds r31,(Timebase)+1
 3691 11aa 90E0      		ldi r25,lo8(0)
 3692               	.LVL244:
 3693 11ac 25E1      		ldi r18,lo8(21)
 3694 11ae 30E0      		ldi r19,hi8(21)
 3695 11b0 AC01      		movw r20,r24
 3696 11b2 429F      		mul r20,r18
 3697 11b4 C001      		movw r24,r0
 3698 11b6 439F      		mul r20,r19
 3699 11b8 900D      		add r25,r0
 3700 11ba 529F      		mul r21,r18
 3701 11bc 900D      		add r25,r0
 3702 11be 1124      		clr r1
 3703               	.LVL245:
 3704 11c0 E80F      		add r30,r24
 3705 11c2 F91F      		adc r31,r25
 3706 11c4 80AD      		ldd r24,Z+56
 3707 11c6 8E7F      		andi r24,lo8(-2)
 3708 11c8 80AF      		std Z+56,r24
 3709               	/* epilogue start */
 3710               	.LM385:
 3711 11ca 0895      		ret
 3712               	.LFE74:
 3714               	.global	Timebase_UpCounter_Reset
 3716               	Timebase_UpCounter_Reset:
 3717               	.LFB75:
 3718               	.LM386:
 3719               	.LVL246:
 3720               	/* prologue: function */
 3721               	/* frame size = 0 */
 3722               	.LBB725:
 3723               	.LBB726:
 3724               	.LM387:
 3725 11cc E091 0000 		lds r30,Timebase
 3726 11d0 F091 0000 		lds r31,(Timebase)+1
 3727 11d4 90E0      		ldi r25,lo8(0)
 3728 11d6 25E1      		ldi r18,lo8(21)
 3729 11d8 30E0      		ldi r19,hi8(21)
 3730 11da AC01      		movw r20,r24
 3731               	.LVL247:
 3732 11dc 429F      		mul r20,r18
 3733 11de C001      		movw r24,r0
 3734 11e0 439F      		mul r20,r19
 3735 11e2 900D      		add r25,r0
 3736 11e4 529F      		mul r21,r18
 3737 11e6 900D      		add r25,r0
 3738 11e8 1124      		clr r1
 3739 11ea E80F      		add r30,r24
 3740 11ec F91F      		adc r31,r25
 3741 11ee 80AD      		ldd r24,Z+56
 3742               	.LBE726:
 3743               	.LBE725:
 3744               	.LBB727:
 3745               	.LBB728:
 3746               	.LM388:
 3747 11f0 EB5B      		subi r30,lo8(-(69))
 3748 11f2 FF4F      		sbci r31,hi8(-(69))
 3749 11f4 1082      		st Z,__zero_reg__
 3750 11f6 1182      		std Z+1,__zero_reg__
 3751 11f8 1282      		std Z+2,__zero_reg__
 3752 11fa 1382      		std Z+3,__zero_reg__
 3753 11fc E554      		subi r30,lo8(-(-69))
 3754 11fe F040      		sbci r31,hi8(-(-69))
 3755               	.LBE728:
 3756               	.LBE727:
 3757               	.LBB729:
 3758               	.LBB730:
 3759               	.LM389:
 3760 1200 11AE      		std Z+57,__zero_reg__
 3761 1202 12AE      		std Z+58,__zero_reg__
 3762 1204 13AE      		std Z+59,__zero_reg__
 3763 1206 14AE      		std Z+60,__zero_reg__
 3764               	.LBE730:
 3765               	.LBE729:
 3766               	.LBB731:
 3767               	.LBB732:
 3768               	.LM390:
 3769 1208 FD96      		adiw r30,61
 3770 120a 1192      		st Z+,__zero_reg__
 3771 120c 1192      		st Z+,__zero_reg__
 3772 120e 1192      		st Z+,__zero_reg__
 3773 1210 1192      		st Z+,__zero_reg__
 3774               	.LBE732:
 3775               	.LBE731:
 3776               	.LBB733:
 3777               	.LBB734:
 3778               	.LM391:
 3779 1212 1082      		st Z,__zero_reg__
 3780 1214 1182      		std Z+1,__zero_reg__
 3781 1216 1282      		std Z+2,__zero_reg__
 3782 1218 1382      		std Z+3,__zero_reg__
 3783               	.LBE734:
 3784               	.LBE733:
 3785               	.LBB735:
 3786               	.LBB736:
 3787               	.LM392:
 3788 121a 3896      		adiw r30,8
 3789 121c 1082      		st Z,__zero_reg__
 3790 121e 1182      		std Z+1,__zero_reg__
 3791 1220 1282      		std Z+2,__zero_reg__
 3792 1222 1382      		std Z+3,__zero_reg__
 3793 1224 E954      		subi r30,lo8(-(-73))
 3794 1226 F040      		sbci r31,hi8(-(-73))
 3795               	.LBE736:
 3796               	.LBE735:
 3797               	.LBB737:
 3798               	.LBB738:
 3799               	.LM393:
 3800 1228 807E      		andi r24,lo8(-32)
 3801 122a 80AF      		std Z+56,r24
 3802               	/* epilogue start */
 3803               	.LBE738:
 3804               	.LBE737:
 3805               	.LM394:
 3806 122c 0895      		ret
 3807               	.LFE75:
 3809               	.global	Timebase_UpCounter_Clear_All_Flags
 3811               	Timebase_UpCounter_Clear_All_Flags:
 3812               	.LFB76:
 3813               	.LM395:
 3814               	.LVL248:
 3815               	/* prologue: function */
 3816               	/* frame size = 0 */
 3817               	.LM396:
 3818 122e 0E94 0000 		call Timebase_UpCounter_Reset
 3819               	.LVL249:
 3820               	/* epilogue start */
 3821               	.LM397:
 3822 1232 0895      		ret
 3823               	.LFE76:
 3825               	.global	Timebase_UpCounter_Start
 3827               	Timebase_UpCounter_Start:
 3828               	.LFB77:
 3829               	.LM398:
 3830               	.LVL250:
 3831               	/* prologue: function */
 3832               	/* frame size = 0 */
 3833               	.LBB739:
 3834               	.LBB740:
 3835               	.LM399:
 3836 1234 E091 0000 		lds r30,Timebase
 3837 1238 F091 0000 		lds r31,(Timebase)+1
 3838 123c 90E0      		ldi r25,lo8(0)
 3839               	.LBE740:
 3840               	.LBE739:
 3841               	.LM400:
 3842 123e 25E1      		ldi r18,lo8(21)
 3843 1240 30E0      		ldi r19,hi8(21)
 3844 1242 AC01      		movw r20,r24
 3845               	.LVL251:
 3846 1244 429F      		mul r20,r18
 3847 1246 C001      		movw r24,r0
 3848 1248 439F      		mul r20,r19
 3849 124a 900D      		add r25,r0
 3850 124c 529F      		mul r21,r18
 3851 124e 900D      		add r25,r0
 3852 1250 1124      		clr r1
 3853 1252 E80F      		add r30,r24
 3854 1254 F91F      		adc r31,r25
 3855 1256 90AD      		ldd r25,Z+56
 3856 1258 892F      		mov r24,r25
 3857 125a 8695      		lsr r24
 3858 125c 8F70      		andi r24,lo8(15)
 3859 125e 8130      		cpi r24,lo8(1)
 3860 1260 01F0      		breq .L195
 3861               	.LBB741:
 3862               	.LBB742:
 3863               	.LM401:
 3864 1262 917E      		andi r25,lo8(-31)
 3865 1264 9260      		ori r25,lo8(2)
 3866 1266 90AF      		std Z+56,r25
 3867               	.L195:
 3868 1268 0895      		ret
 3869               	.LBE742:
 3870               	.LBE741:
 3871               	.LFE77:
 3873               	.global	Timebase_UpCounter_Stop
 3875               	Timebase_UpCounter_Stop:
 3876               	.LFB78:
 3877               	.LM402:
 3878               	.LVL252:
 3879               	/* prologue: function */
 3880               	/* frame size = 0 */
 3881               	.LBB743:
 3882               	.LBB744:
 3883               	.LM403:
 3884 126a E091 0000 		lds r30,Timebase
 3885 126e F091 0000 		lds r31,(Timebase)+1
 3886 1272 90E0      		ldi r25,lo8(0)
 3887               	.LBE744:
 3888               	.LBE743:
 3889               	.LM404:
 3890 1274 25E1      		ldi r18,lo8(21)
 3891 1276 30E0      		ldi r19,hi8(21)
 3892 1278 AC01      		movw r20,r24
 3893               	.LVL253:
 3894 127a 429F      		mul r20,r18
 3895 127c C001      		movw r24,r0
 3896 127e 439F      		mul r20,r19
 3897 1280 900D      		add r25,r0
 3898 1282 529F      		mul r21,r18
 3899 1284 900D      		add r25,r0
 3900 1286 1124      		clr r1
 3901 1288 E80F      		add r30,r24
 3902 128a F91F      		adc r31,r25
 3903 128c 90AD      		ldd r25,Z+56
 3904 128e 892F      		mov r24,r25
 3905 1290 8695      		lsr r24
 3906 1292 8F70      		andi r24,lo8(15)
 3907 1294 8230      		cpi r24,lo8(2)
 3908 1296 01F0      		breq .L198
 3909               	.LBB745:
 3910               	.LBB746:
 3911               	.LM405:
 3912 1298 917E      		andi r25,lo8(-31)
 3913 129a 9460      		ori r25,lo8(4)
 3914 129c 90AF      		std Z+56,r25
 3915               	.L198:
 3916 129e 0895      		ret
 3917               	.LBE746:
 3918               	.LBE745:
 3919               	.LFE78:
 3921               	.global	Timebase_UpCounter_Set_Securely
 3923               	Timebase_UpCounter_Set_Securely:
 3924               	.LFB79:
 3925               	.LM406:
 3926               	.LVL254:
 3927               	/* prologue: function */
 3928               	/* frame size = 0 */
 3929               	.LBB747:
 3930               	.LBB748:
 3931               	.LM407:
 3932 12a0 A091 0000 		lds r26,Timebase
 3933 12a4 B091 0000 		lds r27,(Timebase)+1
 3934 12a8 90E0      		ldi r25,lo8(0)
 3935               	.LBE748:
 3936               	.LBE747:
 3937               	.LM408:
 3938 12aa 25E1      		ldi r18,lo8(21)
 3939 12ac 30E0      		ldi r19,hi8(21)
 3940 12ae 829F      		mul r24,r18
 3941 12b0 F001      		movw r30,r0
 3942 12b2 839F      		mul r24,r19
 3943 12b4 F00D      		add r31,r0
 3944 12b6 929F      		mul r25,r18
 3945 12b8 F00D      		add r31,r0
 3946 12ba 1124      		clr r1
 3947               	.LVL255:
 3948 12bc EA0F      		add r30,r26
 3949 12be FB1F      		adc r31,r27
 3950 12c0 80AD      		ldd r24,Z+56
 3951 12c2 8695      		lsr r24
 3952 12c4 8F70      		andi r24,lo8(15)
 3953 12c6 01F4      		brne .L201
 3954               	.LBB749:
 3955               	.LBB750:
 3956               	.LM409:
 3957 12c8 EB5B      		subi r30,lo8(-(69))
 3958 12ca FF4F      		sbci r31,hi8(-(69))
 3959 12cc 1082      		st Z,__zero_reg__
 3960 12ce 1182      		std Z+1,__zero_reg__
 3961 12d0 1282      		std Z+2,__zero_reg__
 3962 12d2 1382      		std Z+3,__zero_reg__
 3963               	.LBE750:
 3964               	.LBE749:
 3965               	.LBB751:
 3966               	.LBB752:
 3967               	.LM410:
 3968 12d4 1292      		st -Z,__zero_reg__
 3969 12d6 1292      		st -Z,__zero_reg__
 3970 12d8 1292      		st -Z,__zero_reg__
 3971 12da 1292      		st -Z,__zero_reg__
 3972               	.LBE752:
 3973               	.LBE751:
 3974               	.LBB753:
 3975               	.LBB754:
 3976               	.LM411:
 3977 12dc 7293      		st -Z,r23
 3978 12de 6293      		st -Z,r22
 3979 12e0 5293      		st -Z,r21
 3980 12e2 4293      		st -Z,r20
 3981 12e4 FD97      		sbiw r30,61
 3982               	.LBE754:
 3983               	.LBE753:
 3984               	.LBB755:
 3985               	.LBB756:
 3986               	.LM412:
 3987 12e6 1A96      		adiw r26,10
 3988 12e8 8D91      		ld r24,X+
 3989 12ea 9D91      		ld r25,X+
 3990 12ec 0D90      		ld __tmp_reg__,X+
 3991 12ee BC91      		ld r27,X
 3992 12f0 A02D      		mov r26,__tmp_reg__
 3993               	.LVL256:
 3994               	.LBE756:
 3995               	.LBE755:
 3996               	.LBB757:
 3997               	.LBB758:
 3998               	.LM413:
 3999 12f2 840F      		add r24,r20
 4000 12f4 951F      		adc r25,r21
 4001 12f6 A61F      		adc r26,r22
 4002 12f8 B71F      		adc r27,r23
 4003 12fa 81AF      		std Z+57,r24
 4004 12fc 92AF      		std Z+58,r25
 4005 12fe A3AF      		std Z+59,r26
 4006 1300 B4AF      		std Z+60,r27
 4007               	.LBE758:
 4008               	.LBE757:
 4009               	.LBB759:
 4010               	.LBB760:
 4011               	.LM414:
 4012 1302 90AD      		ldd r25,Z+56
 4013 1304 892F      		mov r24,r25
 4014               	.LVL257:
 4015 1306 8695      		lsr r24
 4016 1308 8F70      		andi r24,lo8(15)
 4017 130a 8130      		cpi r24,lo8(1)
 4018 130c 01F0      		breq .L201
 4019               	.LBB761:
 4020               	.LBB762:
 4021               	.LM415:
 4022 130e 917E      		andi r25,lo8(-31)
 4023 1310 9260      		ori r25,lo8(2)
 4024 1312 90AF      		std Z+56,r25
 4025               	.L201:
 4026 1314 0895      		ret
 4027               	.LBE762:
 4028               	.LBE761:
 4029               	.LBE760:
 4030               	.LBE759:
 4031               	.LFE79:
 4033               	.global	Timebase_UpCounter_Set_Forcefully
 4035               	Timebase_UpCounter_Set_Forcefully:
 4036               	.LFB80:
 4037               	.LM416:
 4038               	.LVL258:
 4039 1316 DF92      		push r13
 4040 1318 EF92      		push r14
 4041 131a FF92      		push r15
 4042 131c 0F93      		push r16
 4043 131e 1F93      		push r17
 4044               	/* prologue: function */
 4045               	/* frame size = 0 */
 4046 1320 D82E      		mov r13,r24
 4047 1322 7A01      		movw r14,r20
 4048 1324 8B01      		movw r16,r22
 4049               	.LM417:
 4050 1326 0E94 0000 		call Timebase_UpCounter_Reset
 4051               	.LVL259:
 4052               	.LM418:
 4053 132a 8D2D      		mov r24,r13
 4054 132c B801      		movw r22,r16
 4055 132e A701      		movw r20,r14
 4056 1330 0E94 0000 		call Timebase_UpCounter_Set_Securely
 4057               	/* epilogue start */
 4058               	.LM419:
 4059 1334 1F91      		pop r17
 4060 1336 0F91      		pop r16
 4061 1338 FF90      		pop r15
 4062 133a EF90      		pop r14
 4063               	.LVL260:
 4064 133c DF90      		pop r13
 4065               	.LVL261:
 4066 133e 0895      		ret
 4067               	.LFE80:
 4069               	.global	Timebase_UpCounter_Update
 4071               	Timebase_UpCounter_Update:
 4072               	.LFB81:
 4073               	.LM420:
 4074               	.LVL262:
 4075 1340 EF92      		push r14
 4076 1342 FF92      		push r15
 4077 1344 0F93      		push r16
 4078 1346 1F93      		push r17
 4079 1348 CF93      		push r28
 4080 134a DF93      		push r29
 4081               	/* prologue: function */
 4082               	/* frame size = 0 */
 4083               	.LBB763:
 4084               	.LBB764:
 4085               	.LM421:
 4086 134c A091 0000 		lds r26,Timebase
 4087 1350 B091 0000 		lds r27,(Timebase)+1
 4088 1354 90E0      		ldi r25,lo8(0)
 4089 1356 25E1      		ldi r18,lo8(21)
 4090 1358 30E0      		ldi r19,hi8(21)
 4091 135a 829F      		mul r24,r18
 4092 135c F001      		movw r30,r0
 4093 135e 839F      		mul r24,r19
 4094 1360 F00D      		add r31,r0
 4095 1362 929F      		mul r25,r18
 4096 1364 F00D      		add r31,r0
 4097 1366 1124      		clr r1
 4098               	.LVL263:
 4099 1368 EA0F      		add r30,r26
 4100 136a FB1F      		adc r31,r27
 4101 136c 80AD      		ldd r24,Z+56
 4102 136e 8695      		lsr r24
 4103 1370 8F70      		andi r24,lo8(15)
 4104               	.LBE764:
 4105               	.LBE763:
 4106               	.LM422:
 4107 1372 8130      		cpi r24,lo8(1)
 4108 1374 01F0      		breq .+2
 4109 1376 00C0      		rjmp .L205
 4110               	.LBB765:
 4111               	.LBB766:
 4112               	.LM423:
 4113 1378 1A96      		adiw r26,10
 4114 137a 8D91      		ld r24,X+
 4115 137c 9D91      		ld r25,X+
 4116 137e 0D90      		ld __tmp_reg__,X+
 4117 1380 BC91      		ld r27,X
 4118 1382 A02D      		mov r26,__tmp_reg__
 4119               	.LVL264:
 4120               	.LBE766:
 4121               	.LBE765:
 4122               	.LM424:
 4123 1384 21AD      		ldd r18,Z+57
 4124 1386 32AD      		ldd r19,Z+58
 4125 1388 43AD      		ldd r20,Z+59
 4126 138a 54AD      		ldd r21,Z+60
 4127 138c 281B      		sub r18,r24
 4128 138e 390B      		sbc r19,r25
 4129 1390 4A0B      		sbc r20,r26
 4130 1392 5B0B      		sbc r21,r27
 4131               	.LBB767:
 4132               	.LBB768:
 4133               	.LM425:
 4134 1394 BF01      		movw r22,r30
 4135 1396 6F5B      		subi r22,lo8(-(65))
 4136 1398 7F4F      		sbci r23,hi8(-(65))
 4137 139a DB01      		movw r26,r22
 4138 139c 2D93      		st X+,r18
 4139 139e 3D93      		st X+,r19
 4140 13a0 4D93      		st X+,r20
 4141 13a2 5C93      		st X,r21
 4142 13a4 1397      		sbiw r26,3
 4143               	.LBE768:
 4144               	.LBE767:
 4145               	.LBB769:
 4146               	.LBB770:
 4147               	.LM426:
 4148 13a6 EF01      		movw r28,r30
 4149 13a8 CB5B      		subi r28,lo8(-(69))
 4150 13aa DF4F      		sbci r29,hi8(-(69))
 4151 13ac FD96      		adiw r30,61
 4152 13ae E080      		ld r14,Z
 4153 13b0 F180      		ldd r15,Z+1
 4154 13b2 0281      		ldd r16,Z+2
 4155 13b4 1381      		ldd r17,Z+3
 4156 13b6 FD97      		sbiw r30,61
 4157 13b8 D801      		movw r26,r16
 4158 13ba C701      		movw r24,r14
 4159               	.LVL265:
 4160 13bc 821B      		sub r24,r18
 4161 13be 930B      		sbc r25,r19
 4162 13c0 A40B      		sbc r26,r20
 4163 13c2 B50B      		sbc r27,r21
 4164 13c4 8883      		st Y,r24
 4165 13c6 9983      		std Y+1,r25
 4166 13c8 AA83      		std Y+2,r26
 4167 13ca BB83      		std Y+3,r27
 4168               	.LBE770:
 4169               	.LBE769:
 4170               	.LM427:
 4171 13cc 1216      		cp __zero_reg__,r18
 4172 13ce 1306      		cpc __zero_reg__,r19
 4173 13d0 1406      		cpc __zero_reg__,r20
 4174 13d2 1506      		cpc __zero_reg__,r21
 4175 13d4 04F0      		brlt .L207
 4176               	.LBB771:
 4177               	.LBB772:
 4178               	.LM428:
 4179 13d6 11AE      		std Z+57,__zero_reg__
 4180 13d8 12AE      		std Z+58,__zero_reg__
 4181 13da 13AE      		std Z+59,__zero_reg__
 4182 13dc 14AE      		std Z+60,__zero_reg__
 4183               	.LBE772:
 4184               	.LBE771:
 4185               	.LBB773:
 4186               	.LBB774:
 4187               	.LM429:
 4188 13de DB01      		movw r26,r22
 4189 13e0 1D92      		st X+,__zero_reg__
 4190 13e2 1D92      		st X+,__zero_reg__
 4191 13e4 1D92      		st X+,__zero_reg__
 4192 13e6 1C92      		st X,__zero_reg__
 4193 13e8 1397      		sbiw r26,3
 4194               	.LBE774:
 4195               	.LBE773:
 4196               	.LBB775:
 4197               	.LBB776:
 4198               	.LM430:
 4199 13ea E882      		st Y,r14
 4200 13ec F982      		std Y+1,r15
 4201 13ee 0A83      		std Y+2,r16
 4202 13f0 1B83      		std Y+3,r17
 4203               	.LBE776:
 4204               	.LBE775:
 4205               	.LBB777:
 4206               	.LBB778:
 4207               	.LM431:
 4208 13f2 80AD      		ldd r24,Z+56
 4209 13f4 817E      		andi r24,lo8(-31)
 4210 13f6 8860      		ori r24,lo8(8)
 4211 13f8 80AF      		std Z+56,r24
 4212 13fa 00C0      		rjmp .L207
 4213               	.L205:
 4214               	.LBE778:
 4215               	.LBE777:
 4216               	.LM432:
 4217 13fc 8230      		cpi r24,lo8(2)
 4218 13fe 01F4      		brne .L207
 4219               	.LBB779:
 4220               	.LBB780:
 4221               	.LM433:
 4222 1400 1A96      		adiw r26,10
 4223 1402 8D91      		ld r24,X+
 4224 1404 9D91      		ld r25,X+
 4225 1406 0D90      		ld __tmp_reg__,X+
 4226 1408 BC91      		ld r27,X
 4227 140a A02D      		mov r26,__tmp_reg__
 4228               	.LVL266:
 4229               	.LBE780:
 4230               	.LBE779:
 4231               	.LBB781:
 4232               	.LBB782:
 4233               	.LM434:
 4234 140c EF5B      		subi r30,lo8(-(65))
 4235 140e FF4F      		sbci r31,hi8(-(65))
 4236 1410 2081      		ld r18,Z
 4237 1412 3181      		ldd r19,Z+1
 4238 1414 4281      		ldd r20,Z+2
 4239 1416 5381      		ldd r21,Z+3
 4240 1418 E154      		subi r30,lo8(-(-65))
 4241 141a F040      		sbci r31,hi8(-(-65))
 4242 141c 820F      		add r24,r18
 4243 141e 931F      		adc r25,r19
 4244 1420 A41F      		adc r26,r20
 4245 1422 B51F      		adc r27,r21
 4246 1424 81AF      		std Z+57,r24
 4247 1426 92AF      		std Z+58,r25
 4248 1428 A3AF      		std Z+59,r26
 4249 142a B4AF      		std Z+60,r27
 4250               	.LBE782:
 4251               	.LBE781:
 4252               	.LBB783:
 4253               	.LBB784:
 4254               	.LM435:
 4255 142c FD96      		adiw r30,61
 4256 142e 8081      		ld r24,Z
 4257 1430 9181      		ldd r25,Z+1
 4258 1432 A281      		ldd r26,Z+2
 4259 1434 B381      		ldd r27,Z+3
 4260               	.LVL267:
 4261 1436 821B      		sub r24,r18
 4262 1438 930B      		sbc r25,r19
 4263 143a A40B      		sbc r26,r20
 4264 143c B50B      		sbc r27,r21
 4265 143e 3896      		adiw r30,8
 4266 1440 8083      		st Z,r24
 4267 1442 9183      		std Z+1,r25
 4268 1444 A283      		std Z+2,r26
 4269 1446 B383      		std Z+3,r27
 4270               	.L207:
 4271               	/* epilogue start */
 4272               	.LBE784:
 4273               	.LBE783:
 4274               	.LM436:
 4275 1448 DF91      		pop r29
 4276 144a CF91      		pop r28
 4277 144c 1F91      		pop r17
 4278 144e 0F91      		pop r16
 4279 1450 FF90      		pop r15
 4280 1452 EF90      		pop r14
 4281 1454 0895      		ret
 4282               	.LFE81:
 4284               	.global	Timebase_UpCounter_Expired
 4286               	Timebase_UpCounter_Expired:
 4287               	.LFB82:
 4288               	.LM437:
 4289               	.LVL268:
 4290               	/* prologue: function */
 4291               	/* frame size = 0 */
 4292               	.LM438:
 4293 1456 40E0      		ldi r20,lo8(0)
 4294 1458 E091 0000 		lds r30,Timebase
 4295 145c F091 0000 		lds r31,(Timebase)+1
 4296 1460 90E0      		ldi r25,lo8(0)
 4297               	.LVL269:
 4298 1462 25E1      		ldi r18,lo8(21)
 4299 1464 30E0      		ldi r19,hi8(21)
 4300 1466 BC01      		movw r22,r24
 4301 1468 629F      		mul r22,r18
 4302 146a C001      		movw r24,r0
 4303 146c 639F      		mul r22,r19
 4304 146e 900D      		add r25,r0
 4305 1470 729F      		mul r23,r18
 4306 1472 900D      		add r25,r0
 4307 1474 1124      		clr r1
 4308               	.LVL270:
 4309 1476 E80F      		add r30,r24
 4310 1478 F91F      		adc r31,r25
 4311 147a 80AD      		ldd r24,Z+56
 4312 147c 8695      		lsr r24
 4313 147e 8F70      		andi r24,lo8(15)
 4314 1480 8430      		cpi r24,lo8(4)
 4315 1482 01F4      		brne .L209
 4316 1484 41E0      		ldi r20,lo8(1)
 4317               	.L209:
 4318               	.LM439:
 4319 1486 842F      		mov r24,r20
 4320               	/* epilogue start */
 4321 1488 0895      		ret
 4322               	.LFE82:
 4324               	.global	Timebase_UpCounter_Expired_Event
 4326               	Timebase_UpCounter_Expired_Event:
 4327               	.LFB83:
 4328               	.LM440:
 4329               	.LVL271:
 4330               	/* prologue: function */
 4331               	/* frame size = 0 */
 4332 148a 482F      		mov r20,r24
 4333               	.LM441:
 4334 148c E091 0000 		lds r30,Timebase
 4335 1490 F091 0000 		lds r31,(Timebase)+1
 4336 1494 282F      		mov r18,r24
 4337 1496 30E0      		ldi r19,lo8(0)
 4338               	.LVL272:
 4339 1498 85E1      		ldi r24,lo8(21)
 4340 149a 90E0      		ldi r25,hi8(21)
 4341               	.LVL273:
 4342 149c BC01      		movw r22,r24
 4343 149e 269F      		mul r18,r22
 4344 14a0 C001      		movw r24,r0
 4345 14a2 279F      		mul r18,r23
 4346 14a4 900D      		add r25,r0
 4347 14a6 369F      		mul r19,r22
 4348 14a8 900D      		add r25,r0
 4349 14aa 1124      		clr r1
 4350 14ac E80F      		add r30,r24
 4351 14ae F91F      		adc r31,r25
 4352 14b0 80AD      		ldd r24,Z+56
 4353 14b2 8695      		lsr r24
 4354 14b4 8F70      		andi r24,lo8(15)
 4355 14b6 8430      		cpi r24,lo8(4)
 4356 14b8 01F0      		breq .L212
 4357 14ba 80E0      		ldi r24,lo8(0)
 4358 14bc 0895      		ret
 4359               	.L212:
 4360               	.LBB785:
 4361               	.LBB786:
 4362               	.LM442:
 4363 14be 842F      		mov r24,r20
 4364 14c0 0E94 0000 		call Timebase_UpCounter_Reset
 4365               	.LVL274:
 4366 14c4 81E0      		ldi r24,lo8(1)
 4367               	.LBE786:
 4368               	.LBE785:
 4369               	.LM443:
 4370 14c6 0895      		ret
 4371               	.LFE83:
 4373               	.global	Timebase_UpCounter_Set_Period_Value_Securely
 4375               	Timebase_UpCounter_Set_Period_Value_Securely:
 4376               	.LFB84:
 4377               	.LM444:
 4378               	.LVL275:
 4379 14c8 CF93      		push r28
 4380 14ca DF93      		push r29
 4381               	/* prologue: function */
 4382               	/* frame size = 0 */
 4383               	.LBB787:
 4384               	.LBB788:
 4385               	.LM445:
 4386 14cc C091 0000 		lds r28,Timebase
 4387 14d0 D091 0000 		lds r29,(Timebase)+1
 4388 14d4 90E0      		ldi r25,lo8(0)
 4389               	.LBE788:
 4390               	.LBE787:
 4391               	.LM446:
 4392 14d6 25E1      		ldi r18,lo8(21)
 4393 14d8 30E0      		ldi r19,hi8(21)
 4394 14da FC01      		movw r30,r24
 4395               	.LVL276:
 4396 14dc E29F      		mul r30,r18
 4397 14de C001      		movw r24,r0
 4398 14e0 E39F      		mul r30,r19
 4399 14e2 900D      		add r25,r0
 4400 14e4 F29F      		mul r31,r18
 4401 14e6 900D      		add r25,r0
 4402 14e8 1124      		clr r1
 4403 14ea C80F      		add r28,r24
 4404 14ec D91F      		adc r29,r25
 4405 14ee 88AD      		ldd r24,Y+56
 4406 14f0 80FD      		sbrc r24,0
 4407 14f2 00C0      		rjmp .L217
 4408               	.LBB789:
 4409               	.LBB790:
 4410               	.LM447:
 4411 14f4 FE01      		movw r30,r28
 4412 14f6 E75B      		subi r30,lo8(-(73))
 4413 14f8 FF4F      		sbci r31,hi8(-(73))
 4414 14fa CB5B      		subi r28,lo8(-(69))
 4415 14fc DF4F      		sbci r29,hi8(-(69))
 4416 14fe 8881      		ld r24,Y
 4417 1500 9981      		ldd r25,Y+1
 4418 1502 AA81      		ldd r26,Y+2
 4419 1504 BB81      		ldd r27,Y+3
 4420 1506 C554      		subi r28,lo8(-(-69))
 4421 1508 D040      		sbci r29,hi8(-(-69))
 4422 150a 840F      		add r24,r20
 4423 150c 951F      		adc r25,r21
 4424 150e A61F      		adc r26,r22
 4425 1510 B71F      		adc r27,r23
 4426 1512 8083      		st Z,r24
 4427 1514 9183      		std Z+1,r25
 4428 1516 A283      		std Z+2,r26
 4429 1518 B383      		std Z+3,r27
 4430               	.LBE790:
 4431               	.LBE789:
 4432               	.LBB791:
 4433               	.LBB792:
 4434               	.LM448:
 4435 151a 88AD      		ldd r24,Y+56
 4436 151c 8160      		ori r24,lo8(1)
 4437 151e 88AF      		std Y+56,r24
 4438               	.L217:
 4439               	/* epilogue start */
 4440               	.LBE792:
 4441               	.LBE791:
 4442               	.LM449:
 4443 1520 DF91      		pop r29
 4444 1522 CF91      		pop r28
 4445 1524 0895      		ret
 4446               	.LFE84:
 4448               	.global	Timebase_UpCounter_Get_Remaining_Period_Value
 4450               	Timebase_UpCounter_Get_Remaining_Period_Value:
 4451               	.LFB85:
 4452               	.LM450:
 4453               	.LVL277:
 4454               	/* prologue: function */
 4455               	/* frame size = 0 */
 4456               	.LBB793:
 4457               	.LBB794:
 4458               	.LM451:
 4459 1526 E091 0000 		lds r30,Timebase
 4460 152a F091 0000 		lds r31,(Timebase)+1
 4461 152e 90E0      		ldi r25,lo8(0)
 4462               	.LBE794:
 4463               	.LBE793:
 4464               	.LM452:
 4465 1530 25E1      		ldi r18,lo8(21)
 4466 1532 30E0      		ldi r19,hi8(21)
 4467 1534 AC01      		movw r20,r24
 4468               	.LVL278:
 4469 1536 429F      		mul r20,r18
 4470 1538 C001      		movw r24,r0
 4471 153a 439F      		mul r20,r19
 4472 153c 900D      		add r25,r0
 4473 153e 529F      		mul r21,r18
 4474 1540 900D      		add r25,r0
 4475 1542 1124      		clr r1
 4476 1544 E80F      		add r30,r24
 4477 1546 F91F      		adc r31,r25
 4478 1548 DF01      		movw r26,r30
 4479 154a AB5B      		subi r26,lo8(-(69))
 4480 154c BF4F      		sbci r27,hi8(-(69))
 4481 154e E75B      		subi r30,lo8(-(73))
 4482 1550 FF4F      		sbci r31,hi8(-(73))
 4483 1552 2081      		ld r18,Z
 4484 1554 3181      		ldd r19,Z+1
 4485 1556 4281      		ldd r20,Z+2
 4486 1558 5381      		ldd r21,Z+3
 4487               	.LVL279:
 4488 155a 8D91      		ld r24,X+
 4489 155c 9D91      		ld r25,X+
 4490 155e 0D90      		ld __tmp_reg__,X+
 4491 1560 BC91      		ld r27,X
 4492 1562 A02D      		mov r26,__tmp_reg__
 4493 1564 281B      		sub r18,r24
 4494 1566 390B      		sbc r19,r25
 4495 1568 4A0B      		sbc r20,r26
 4496 156a 5B0B      		sbc r21,r27
 4497 156c 57FF      		sbrs r21,7
 4498 156e 00C0      		rjmp .L219
 4499 1570 20E0      		ldi r18,lo8(0)
 4500 1572 30E0      		ldi r19,hi8(0)
 4501 1574 40E0      		ldi r20,hlo8(0)
 4502 1576 50E0      		ldi r21,hhi8(0)
 4503               	.L219:
 4504               	.LM453:
 4505 1578 B901      		movw r22,r18
 4506               	.LVL280:
 4507 157a CA01      		movw r24,r20
 4508               	/* epilogue start */
 4509 157c 0895      		ret
 4510               	.LFE85:
 4512               	.global	Timebase_UpCounter_Period_Value_Expired
 4514               	Timebase_UpCounter_Period_Value_Expired:
 4515               	.LFB86:
 4516               	.LM454:
 4517               	.LVL281:
 4518 157e CF93      		push r28
 4519 1580 DF93      		push r29
 4520               	/* prologue: function */
 4521               	/* frame size = 0 */
 4522               	.LBB795:
 4523               	.LBB796:
 4524               	.LBB797:
 4525               	.LBB798:
 4526               	.LM455:
 4527 1582 C091 0000 		lds r28,Timebase
 4528 1586 D091 0000 		lds r29,(Timebase)+1
 4529 158a 682F      		mov r22,r24
 4530 158c 70E0      		ldi r23,lo8(0)
 4531               	.LBE798:
 4532               	.LBE797:
 4533               	.LM456:
 4534 158e 85E1      		ldi r24,lo8(21)
 4535 1590 90E0      		ldi r25,hi8(21)
 4536               	.LVL282:
 4537 1592 689F      		mul r22,r24
 4538 1594 F001      		movw r30,r0
 4539 1596 699F      		mul r22,r25
 4540 1598 F00D      		add r31,r0
 4541 159a 789F      		mul r23,r24
 4542 159c F00D      		add r31,r0
 4543 159e 1124      		clr r1
 4544 15a0 EC0F      		add r30,r28
 4545 15a2 FD1F      		adc r31,r29
 4546 15a4 DF01      		movw r26,r30
 4547 15a6 AB5B      		subi r26,lo8(-(69))
 4548 15a8 BF4F      		sbci r27,hi8(-(69))
 4549 15aa E75B      		subi r30,lo8(-(73))
 4550 15ac FF4F      		sbci r31,hi8(-(73))
 4551 15ae 2081      		ld r18,Z
 4552 15b0 3181      		ldd r19,Z+1
 4553 15b2 4281      		ldd r20,Z+2
 4554 15b4 5381      		ldd r21,Z+3
 4555               	.LVL283:
 4556 15b6 8D91      		ld r24,X+
 4557 15b8 9D91      		ld r25,X+
 4558 15ba 0D90      		ld __tmp_reg__,X+
 4559 15bc BC91      		ld r27,X
 4560 15be A02D      		mov r26,__tmp_reg__
 4561 15c0 281B      		sub r18,r24
 4562 15c2 390B      		sbc r19,r25
 4563 15c4 4A0B      		sbc r20,r26
 4564 15c6 5B0B      		sbc r21,r27
 4565               	.LM457:
 4566 15c8 57FD      		sbrc r21,7
 4567 15ca 00C0      		rjmp .L222
 4568               	.LBE796:
 4569               	.LBE795:
 4570               	.LM458:
 4571 15cc 2115      		cp r18,__zero_reg__
 4572 15ce 3105      		cpc r19,__zero_reg__
 4573 15d0 4105      		cpc r20,__zero_reg__
 4574 15d2 5105      		cpc r21,__zero_reg__
 4575 15d4 01F0      		breq .L222
 4576 15d6 20E0      		ldi r18,lo8(0)
 4577               	.LVL284:
 4578 15d8 00C0      		rjmp .L223
 4579               	.LVL285:
 4580               	.L222:
 4581 15da 20E0      		ldi r18,lo8(0)
 4582               	.LVL286:
 4583 15dc 85E1      		ldi r24,lo8(21)
 4584 15de 90E0      		ldi r25,hi8(21)
 4585 15e0 AC01      		movw r20,r24
 4586 15e2 649F      		mul r22,r20
 4587 15e4 C001      		movw r24,r0
 4588 15e6 659F      		mul r22,r21
 4589 15e8 900D      		add r25,r0
 4590 15ea 749F      		mul r23,r20
 4591 15ec 900D      		add r25,r0
 4592 15ee 1124      		clr r1
 4593 15f0 C80F      		add r28,r24
 4594 15f2 D91F      		adc r29,r25
 4595 15f4 88AD      		ldd r24,Y+56
 4596 15f6 80FF      		sbrs r24,0
 4597 15f8 21E0      		ldi r18,lo8(1)
 4598               	.L224:
 4599 15fa 81E0      		ldi r24,lo8(1)
 4600 15fc 2827      		eor r18,r24
 4601               	.L223:
 4602               	.LM459:
 4603 15fe 822F      		mov r24,r18
 4604               	/* epilogue start */
 4605 1600 DF91      		pop r29
 4606 1602 CF91      		pop r28
 4607 1604 0895      		ret
 4608               	.LFE86:
 4610               	.global	Timebase_UpCounter_Period_Value_Expired_Event
 4612               	Timebase_UpCounter_Period_Value_Expired_Event:
 4613               	.LFB87:
 4614               	.LM460:
 4615               	.LVL287:
 4616 1606 1F93      		push r17
 4617               	/* prologue: function */
 4618               	/* frame size = 0 */
 4619 1608 182F      		mov r17,r24
 4620               	.LM461:
 4621 160a 0E94 0000 		call Timebase_UpCounter_Period_Value_Expired
 4622               	.LVL288:
 4623 160e 8130      		cpi r24,lo8(1)
 4624 1610 01F0      		breq .L227
 4625 1612 80E0      		ldi r24,lo8(0)
 4626 1614 00C0      		rjmp .L228
 4627               	.L227:
 4628               	.LBB799:
 4629               	.LBB800:
 4630               	.LM462:
 4631 1616 E091 0000 		lds r30,Timebase
 4632 161a F091 0000 		lds r31,(Timebase)+1
 4633 161e 212F      		mov r18,r17
 4634 1620 30E0      		ldi r19,lo8(0)
 4635               	.LVL289:
 4636 1622 85E1      		ldi r24,lo8(21)
 4637 1624 90E0      		ldi r25,hi8(21)
 4638 1626 AC01      		movw r20,r24
 4639 1628 249F      		mul r18,r20
 4640 162a C001      		movw r24,r0
 4641 162c 259F      		mul r18,r21
 4642 162e 900D      		add r25,r0
 4643 1630 349F      		mul r19,r20
 4644 1632 900D      		add r25,r0
 4645 1634 1124      		clr r1
 4646 1636 E80F      		add r30,r24
 4647 1638 F91F      		adc r31,r25
 4648 163a 80AD      		ldd r24,Z+56
 4649 163c 8E7F      		andi r24,lo8(-2)
 4650 163e 80AF      		std Z+56,r24
 4651 1640 81E0      		ldi r24,lo8(1)
 4652               	.L228:
 4653               	/* epilogue start */
 4654               	.LBE800:
 4655               	.LBE799:
 4656               	.LM463:
 4657 1642 1F91      		pop r17
 4658               	.LVL290:
 4659 1644 0895      		ret
 4660               	.LFE87:
 4662               	.global	Timebase_UpCounter_Update_All
 4664               	Timebase_UpCounter_Update_All:
 4665               	.LFB88:
 4666               	.LM464:
 4667               	/* prologue: function */
 4668               	/* frame size = 0 */
 4669               	.LBB801:
 4670               	.LM465:
 4671 1646 80E0      		ldi r24,lo8(0)
 4672 1648 0E94 0000 		call Timebase_UpCounter_Update
 4673               	/* epilogue start */
 4674               	.LBE801:
 4675               	.LM466:
 4676 164c 0895      		ret
 4677               	.LFE88:
 4679               	.global	Timebase_UpCounter_Reset_All
 4681               	Timebase_UpCounter_Reset_All:
 4682               	.LFB89:
 4683               	.LM467:
 4684               	/* prologue: function */
 4685               	/* frame size = 0 */
 4686               	.LBB802:
 4687               	.LM468:
 4688 164e 80E0      		ldi r24,lo8(0)
 4689 1650 0E94 0000 		call Timebase_UpCounter_Reset
 4690               	/* epilogue start */
 4691               	.LBE802:
 4692               	.LM469:
 4693 1654 0895      		ret
 4694               	.LFE89:
 4696               	.global	Timebase_DownCounter_SS_Get_Status
 4698               	Timebase_DownCounter_SS_Get_Status:
 4699               	.LFB90:
 4700               	.LM470:
 4701               	.LVL291:
 4702               	/* prologue: function */
 4703               	/* frame size = 0 */
 4704               	.LM471:
 4705 1656 E091 0000 		lds r30,Timebase
 4706 165a F091 0000 		lds r31,(Timebase)+1
 4707 165e 90E0      		ldi r25,lo8(0)
 4708               	.LVL292:
 4709 1660 9C01      		movw r18,r24
 4710 1662 44E0      		ldi r20,4
 4711 1664 220F      	1:	lsl r18
 4712 1666 331F      		rol r19
 4713 1668 4A95      		dec r20
 4714 166a 01F4      		brne 1b
 4715 166c 280F      		add r18,r24
 4716 166e 391F      		adc r19,r25
 4717 1670 E20F      		add r30,r18
 4718 1672 F31F      		adc r31,r19
 4719 1674 E35B      		subi r30,lo8(-(77))
 4720 1676 FF4F      		sbci r31,hi8(-(77))
 4721 1678 8081      		ld r24,Z
 4722               	.LVL293:
 4723 167a 8695      		lsr r24
 4724               	.LM472:
 4725 167c 8F70      		andi r24,lo8(15)
 4726               	/* epilogue start */
 4727 167e 0895      		ret
 4728               	.LFE90:
 4730               	.global	Timebase_DownCounter_SS_Set_Status
 4732               	Timebase_DownCounter_SS_Set_Status:
 4733               	.LFB91:
 4734               	.LM473:
 4735               	.LVL294:
 4736               	/* prologue: function */
 4737               	/* frame size = 0 */
 4738               	.LM474:
 4739 1680 E091 0000 		lds r30,Timebase
 4740 1684 F091 0000 		lds r31,(Timebase)+1
 4741 1688 90E0      		ldi r25,lo8(0)
 4742               	.LVL295:
 4743 168a 9C01      		movw r18,r24
 4744 168c 54E0      		ldi r21,4
 4745 168e 220F      	1:	lsl r18
 4746 1690 331F      		rol r19
 4747 1692 5A95      		dec r21
 4748 1694 01F4      		brne 1b
 4749 1696 280F      		add r18,r24
 4750 1698 391F      		adc r19,r25
 4751 169a E20F      		add r30,r18
 4752 169c F31F      		adc r31,r19
 4753 169e E35B      		subi r30,lo8(-(77))
 4754 16a0 FF4F      		sbci r31,hi8(-(77))
 4755 16a2 6F70      		andi r22,lo8(15)
 4756               	.LVL296:
 4757 16a4 660F      		lsl r22
 4758 16a6 8081      		ld r24,Z
 4759               	.LVL297:
 4760 16a8 817E      		andi r24,lo8(-31)
 4761 16aa 862B      		or r24,r22
 4762 16ac 8083      		st Z,r24
 4763               	/* epilogue start */
 4764               	.LM475:
 4765 16ae 0895      		ret
 4766               	.LFE91:
 4768               	.global	Timebase_DownCounter_SS_Get_Value
 4770               	Timebase_DownCounter_SS_Get_Value:
 4771               	.LFB92:
 4772               	.LM476:
 4773               	.LVL298:
 4774               	/* prologue: function */
 4775               	/* frame size = 0 */
 4776               	.LM477:
 4777 16b0 E091 0000 		lds r30,Timebase
 4778 16b4 F091 0000 		lds r31,(Timebase)+1
 4779 16b8 90E0      		ldi r25,lo8(0)
 4780               	.LVL299:
 4781 16ba 9C01      		movw r18,r24
 4782 16bc 64E0      		ldi r22,4
 4783 16be 220F      	1:	lsl r18
 4784 16c0 331F      		rol r19
 4785 16c2 6A95      		dec r22
 4786 16c4 01F4      		brne 1b
 4787 16c6 280F      		add r18,r24
 4788 16c8 391F      		adc r19,r25
 4789 16ca E20F      		add r30,r18
 4790 16cc F31F      		adc r31,r19
 4791 16ce EA5A      		subi r30,lo8(-(86))
 4792 16d0 FF4F      		sbci r31,hi8(-(86))
 4793 16d2 6081      		ld r22,Z
 4794 16d4 7181      		ldd r23,Z+1
 4795               	.LM478:
 4796 16d6 8281      		ldd r24,Z+2
 4797               	.LVL300:
 4798 16d8 9381      		ldd r25,Z+3
 4799               	.LVL301:
 4800               	/* epilogue start */
 4801 16da 0895      		ret
 4802               	.LFE92:
 4804               	.global	Timebase_DownCounter_SS_Set_Value
 4806               	Timebase_DownCounter_SS_Set_Value:
 4807               	.LFB93:
 4808               	.LM479:
 4809               	.LVL302:
 4810               	/* prologue: function */
 4811               	/* frame size = 0 */
 4812               	.LM480:
 4813 16dc E091 0000 		lds r30,Timebase
 4814 16e0 F091 0000 		lds r31,(Timebase)+1
 4815 16e4 90E0      		ldi r25,lo8(0)
 4816               	.LVL303:
 4817 16e6 9C01      		movw r18,r24
 4818 16e8 A4E0      		ldi r26,4
 4819 16ea 220F      	1:	lsl r18
 4820 16ec 331F      		rol r19
 4821 16ee AA95      		dec r26
 4822 16f0 01F4      		brne 1b
 4823 16f2 280F      		add r18,r24
 4824 16f4 391F      		adc r19,r25
 4825 16f6 E20F      		add r30,r18
 4826 16f8 F31F      		adc r31,r19
 4827 16fa EA5A      		subi r30,lo8(-(86))
 4828 16fc FF4F      		sbci r31,hi8(-(86))
 4829 16fe 4083      		st Z,r20
 4830 1700 5183      		std Z+1,r21
 4831 1702 6283      		std Z+2,r22
 4832 1704 7383      		std Z+3,r23
 4833               	/* epilogue start */
 4834               	.LM481:
 4835 1706 0895      		ret
 4836               	.LFE93:
 4838               	.global	Timebase_DownCounter_SS_Get_EndValueSec
 4840               	Timebase_DownCounter_SS_Get_EndValueSec:
 4841               	.LFB94:
 4842               	.LM482:
 4843               	.LVL304:
 4844               	/* prologue: function */
 4845               	/* frame size = 0 */
 4846               	.LM483:
 4847 1708 E091 0000 		lds r30,Timebase
 4848 170c F091 0000 		lds r31,(Timebase)+1
 4849 1710 90E0      		ldi r25,lo8(0)
 4850               	.LVL305:
 4851 1712 9C01      		movw r18,r24
 4852 1714 B4E0      		ldi r27,4
 4853 1716 220F      	1:	lsl r18
 4854 1718 331F      		rol r19
 4855 171a BA95      		dec r27
 4856 171c 01F4      		brne 1b
 4857 171e 280F      		add r18,r24
 4858 1720 391F      		adc r19,r25
 4859 1722 E20F      		add r30,r18
 4860 1724 F31F      		adc r31,r19
 4861 1726 E25B      		subi r30,lo8(-(78))
 4862 1728 FF4F      		sbci r31,hi8(-(78))
 4863 172a 6081      		ld r22,Z
 4864 172c 7181      		ldd r23,Z+1
 4865               	.LM484:
 4866 172e 8281      		ldd r24,Z+2
 4867               	.LVL306:
 4868 1730 9381      		ldd r25,Z+3
 4869               	.LVL307:
 4870               	/* epilogue start */
 4871 1732 0895      		ret
 4872               	.LFE94:
 4874               	.global	Timebase_DownCounter_SS_Get_EndValueSubSec
 4876               	Timebase_DownCounter_SS_Get_EndValueSubSec:
 4877               	.LFB95:
 4878               	.LM485:
 4879               	.LVL308:
 4880               	/* prologue: function */
 4881               	/* frame size = 0 */
 4882               	.LM486:
 4883 1734 E091 0000 		lds r30,Timebase
 4884 1738 F091 0000 		lds r31,(Timebase)+1
 4885 173c 90E0      		ldi r25,lo8(0)
 4886               	.LVL309:
 4887 173e 9C01      		movw r18,r24
 4888 1740 44E0      		ldi r20,4
 4889 1742 220F      	1:	lsl r18
 4890 1744 331F      		rol r19
 4891 1746 4A95      		dec r20
 4892 1748 01F4      		brne 1b
 4893 174a 280F      		add r18,r24
 4894 174c 391F      		adc r19,r25
 4895 174e E20F      		add r30,r18
 4896 1750 F31F      		adc r31,r19
 4897 1752 EE5A      		subi r30,lo8(-(82))
 4898 1754 FF4F      		sbci r31,hi8(-(82))
 4899 1756 6081      		ld r22,Z
 4900 1758 7181      		ldd r23,Z+1
 4901               	.LM487:
 4902 175a 8281      		ldd r24,Z+2
 4903               	.LVL310:
 4904 175c 9381      		ldd r25,Z+3
 4905               	.LVL311:
 4906               	/* epilogue start */
 4907 175e 0895      		ret
 4908               	.LFE95:
 4910               	.global	Timebase_DownCounter_SS_Set_EndValueSec
 4912               	Timebase_DownCounter_SS_Set_EndValueSec:
 4913               	.LFB96:
 4914               	.LM488:
 4915               	.LVL312:
 4916               	/* prologue: function */
 4917               	/* frame size = 0 */
 4918               	.LM489:
 4919 1760 E091 0000 		lds r30,Timebase
 4920 1764 F091 0000 		lds r31,(Timebase)+1
 4921 1768 90E0      		ldi r25,lo8(0)
 4922               	.LVL313:
 4923 176a 9C01      		movw r18,r24
 4924 176c A4E0      		ldi r26,4
 4925 176e 220F      	1:	lsl r18
 4926 1770 331F      		rol r19
 4927 1772 AA95      		dec r26
 4928 1774 01F4      		brne 1b
 4929 1776 280F      		add r18,r24
 4930 1778 391F      		adc r19,r25
 4931 177a E20F      		add r30,r18
 4932 177c F31F      		adc r31,r19
 4933 177e E25B      		subi r30,lo8(-(78))
 4934 1780 FF4F      		sbci r31,hi8(-(78))
 4935 1782 4083      		st Z,r20
 4936 1784 5183      		std Z+1,r21
 4937 1786 6283      		std Z+2,r22
 4938 1788 7383      		std Z+3,r23
 4939               	/* epilogue start */
 4940               	.LM490:
 4941 178a 0895      		ret
 4942               	.LFE96:
 4944               	.global	Timebase_DownCounter_SS_Set_EndValueSubSec
 4946               	Timebase_DownCounter_SS_Set_EndValueSubSec:
 4947               	.LFB97:
 4948               	.LM491:
 4949               	.LVL314:
 4950               	/* prologue: function */
 4951               	/* frame size = 0 */
 4952               	.LM492:
 4953 178c E091 0000 		lds r30,Timebase
 4954 1790 F091 0000 		lds r31,(Timebase)+1
 4955 1794 90E0      		ldi r25,lo8(0)
 4956               	.LVL315:
 4957 1796 9C01      		movw r18,r24
 4958 1798 B4E0      		ldi r27,4
 4959 179a 220F      	1:	lsl r18
 4960 179c 331F      		rol r19
 4961 179e BA95      		dec r27
 4962 17a0 01F4      		brne 1b
 4963 17a2 280F      		add r18,r24
 4964 17a4 391F      		adc r19,r25
 4965 17a6 E20F      		add r30,r18
 4966 17a8 F31F      		adc r31,r19
 4967 17aa EE5A      		subi r30,lo8(-(82))
 4968 17ac FF4F      		sbci r31,hi8(-(82))
 4969 17ae 4083      		st Z,r20
 4970 17b0 5183      		std Z+1,r21
 4971 17b2 6283      		std Z+2,r22
 4972 17b4 7383      		std Z+3,r23
 4973               	/* epilogue start */
 4974               	.LM493:
 4975 17b6 0895      		ret
 4976               	.LFE97:
 4978               	.global	Timebase_DownCounter_SS_Get_PeriodValue
 4980               	Timebase_DownCounter_SS_Get_PeriodValue:
 4981               	.LFB98:
 4982               	.LM494:
 4983               	.LVL316:
 4984               	/* prologue: function */
 4985               	/* frame size = 0 */
 4986               	.LM495:
 4987 17b8 E091 0000 		lds r30,Timebase
 4988 17bc F091 0000 		lds r31,(Timebase)+1
 4989 17c0 90E0      		ldi r25,lo8(0)
 4990               	.LVL317:
 4991 17c2 9C01      		movw r18,r24
 4992 17c4 44E0      		ldi r20,4
 4993 17c6 220F      	1:	lsl r18
 4994 17c8 331F      		rol r19
 4995 17ca 4A95      		dec r20
 4996 17cc 01F4      		brne 1b
 4997 17ce 280F      		add r18,r24
 4998 17d0 391F      		adc r19,r25
 4999 17d2 E20F      		add r30,r18
 5000 17d4 F31F      		adc r31,r19
 5001 17d6 E65A      		subi r30,lo8(-(90))
 5002 17d8 FF4F      		sbci r31,hi8(-(90))
 5003 17da 6081      		ld r22,Z
 5004 17dc 7181      		ldd r23,Z+1
 5005               	.LM496:
 5006 17de 8281      		ldd r24,Z+2
 5007               	.LVL318:
 5008 17e0 9381      		ldd r25,Z+3
 5009               	.LVL319:
 5010               	/* epilogue start */
 5011 17e2 0895      		ret
 5012               	.LFE98:
 5014               	.global	Timebase_DownCounter_SS_Set_PeriodValue
 5016               	Timebase_DownCounter_SS_Set_PeriodValue:
 5017               	.LFB99:
 5018               	.LM497:
 5019               	.LVL320:
 5020               	/* prologue: function */
 5021               	/* frame size = 0 */
 5022 17e4 E091 0000 		lds r30,Timebase
 5023 17e8 F091 0000 		lds r31,(Timebase)+1
 5024 17ec 282F      		mov r18,r24
 5025 17ee 30E0      		ldi r19,lo8(0)
 5026               	.LVL321:
 5027               	.LM498:
 5028 17f0 77FF      		sbrs r23,7
 5029 17f2 00C0      		rjmp .L253
 5030               	.LVL322:
 5031               	.LM499:
 5032 17f4 C901      		movw r24,r18
 5033 17f6 B4E0      		ldi r27,4
 5034 17f8 880F      	1:	lsl r24
 5035 17fa 991F      		rol r25
 5036 17fc BA95      		dec r27
 5037 17fe 01F4      		brne 1b
 5038 1800 820F      		add r24,r18
 5039 1802 931F      		adc r25,r19
 5040 1804 E80F      		add r30,r24
 5041 1806 F91F      		adc r31,r25
 5042 1808 E65A      		subi r30,lo8(-(90))
 5043 180a FF4F      		sbci r31,hi8(-(90))
 5044 180c 1082      		st Z,__zero_reg__
 5045 180e 1182      		std Z+1,__zero_reg__
 5046 1810 1282      		std Z+2,__zero_reg__
 5047 1812 1382      		std Z+3,__zero_reg__
 5048 1814 0895      		ret
 5049               	.LVL323:
 5050               	.L253:
 5051               	.LM500:
 5052 1816 C901      		movw r24,r18
 5053 1818 A4E0      		ldi r26,4
 5054 181a 880F      	1:	lsl r24
 5055 181c 991F      		rol r25
 5056 181e AA95      		dec r26
 5057 1820 01F4      		brne 1b
 5058 1822 820F      		add r24,r18
 5059 1824 931F      		adc r25,r19
 5060 1826 E80F      		add r30,r24
 5061 1828 F91F      		adc r31,r25
 5062 182a E65A      		subi r30,lo8(-(90))
 5063 182c FF4F      		sbci r31,hi8(-(90))
 5064 182e 4083      		st Z,r20
 5065 1830 5183      		std Z+1,r21
 5066 1832 6283      		std Z+2,r22
 5067 1834 7383      		std Z+3,r23
 5068 1836 0895      		ret
 5069               	.LFE99:
 5071               	.global	Timebase_DownCounter_SS_Get_Period_Flag
 5073               	Timebase_DownCounter_SS_Get_Period_Flag:
 5074               	.LFB100:
 5075               	.LM501:
 5076               	.LVL324:
 5077               	/* prologue: function */
 5078               	/* frame size = 0 */
 5079               	.LM502:
 5080 1838 E091 0000 		lds r30,Timebase
 5081 183c F091 0000 		lds r31,(Timebase)+1
 5082 1840 90E0      		ldi r25,lo8(0)
 5083               	.LVL325:
 5084 1842 9C01      		movw r18,r24
 5085 1844 44E0      		ldi r20,4
 5086 1846 220F      	1:	lsl r18
 5087 1848 331F      		rol r19
 5088 184a 4A95      		dec r20
 5089 184c 01F4      		brne 1b
 5090 184e 280F      		add r18,r24
 5091 1850 391F      		adc r19,r25
 5092 1852 E20F      		add r30,r18
 5093 1854 F31F      		adc r31,r19
 5094 1856 E35B      		subi r30,lo8(-(77))
 5095 1858 FF4F      		sbci r31,hi8(-(77))
 5096 185a 8081      		ld r24,Z
 5097               	.LVL326:
 5098               	.LM503:
 5099 185c 8170      		andi r24,lo8(1)
 5100               	/* epilogue start */
 5101 185e 0895      		ret
 5102               	.LFE100:
 5104               	.global	Timebase_DownCounter_SS_Set_Period_Flag
 5106               	Timebase_DownCounter_SS_Set_Period_Flag:
 5107               	.LFB101:
 5108               	.LM504:
 5109               	.LVL327:
 5110               	/* prologue: function */
 5111               	/* frame size = 0 */
 5112               	.LM505:
 5113 1860 E091 0000 		lds r30,Timebase
 5114 1864 F091 0000 		lds r31,(Timebase)+1
 5115 1868 90E0      		ldi r25,lo8(0)
 5116               	.LVL328:
 5117 186a 9C01      		movw r18,r24
 5118 186c 54E0      		ldi r21,4
 5119 186e 220F      	1:	lsl r18
 5120 1870 331F      		rol r19
 5121 1872 5A95      		dec r21
 5122 1874 01F4      		brne 1b
 5123 1876 280F      		add r18,r24
 5124 1878 391F      		adc r19,r25
 5125 187a E20F      		add r30,r18
 5126 187c F31F      		adc r31,r19
 5127 187e E35B      		subi r30,lo8(-(77))
 5128 1880 FF4F      		sbci r31,hi8(-(77))
 5129 1882 8081      		ld r24,Z
 5130               	.LVL329:
 5131 1884 8160      		ori r24,lo8(1)
 5132 1886 8083      		st Z,r24
 5133               	/* epilogue start */
 5134               	.LM506:
 5135 1888 0895      		ret
 5136               	.LFE101:
 5138               	.global	Timebase_DownCounter_SS_Clear_Period_Flag
 5140               	Timebase_DownCounter_SS_Clear_Period_Flag:
 5141               	.LFB102:
 5142               	.LM507:
 5143               	.LVL330:
 5144               	/* prologue: function */
 5145               	/* frame size = 0 */
 5146               	.LM508:
 5147 188a E091 0000 		lds r30,Timebase
 5148 188e F091 0000 		lds r31,(Timebase)+1
 5149 1892 90E0      		ldi r25,lo8(0)
 5150               	.LVL331:
 5151 1894 9C01      		movw r18,r24
 5152 1896 64E0      		ldi r22,4
 5153 1898 220F      	1:	lsl r18
 5154 189a 331F      		rol r19
 5155 189c 6A95      		dec r22
 5156 189e 01F4      		brne 1b
 5157 18a0 280F      		add r18,r24
 5158 18a2 391F      		adc r19,r25
 5159 18a4 E20F      		add r30,r18
 5160 18a6 F31F      		adc r31,r19
 5161 18a8 E35B      		subi r30,lo8(-(77))
 5162 18aa FF4F      		sbci r31,hi8(-(77))
 5163 18ac 8081      		ld r24,Z
 5164               	.LVL332:
 5165 18ae 8E7F      		andi r24,lo8(-2)
 5166 18b0 8083      		st Z,r24
 5167               	/* epilogue start */
 5168               	.LM509:
 5169 18b2 0895      		ret
 5170               	.LFE102:
 5172               	.global	Timebase_DownCounter_SS_Reset
 5174               	Timebase_DownCounter_SS_Reset:
 5175               	.LFB103:
 5176               	.LM510:
 5177               	.LVL333:
 5178               	/* prologue: function */
 5179               	/* frame size = 0 */
 5180               	.LBB803:
 5181               	.LBB804:
 5182               	.LM511:
 5183 18b4 E091 0000 		lds r30,Timebase
 5184 18b8 F091 0000 		lds r31,(Timebase)+1
 5185 18bc 90E0      		ldi r25,lo8(0)
 5186 18be 9C01      		movw r18,r24
 5187               	.LVL334:
 5188 18c0 74E0      		ldi r23,4
 5189 18c2 220F      	1:	lsl r18
 5190 18c4 331F      		rol r19
 5191 18c6 7A95      		dec r23
 5192 18c8 01F4      		brne 1b
 5193 18ca 280F      		add r18,r24
 5194 18cc 391F      		adc r19,r25
 5195 18ce E20F      		add r30,r18
 5196 18d0 F31F      		adc r31,r19
 5197 18d2 EE5A      		subi r30,lo8(-(82))
 5198 18d4 FF4F      		sbci r31,hi8(-(82))
 5199 18d6 1082      		st Z,__zero_reg__
 5200 18d8 1182      		std Z+1,__zero_reg__
 5201 18da 1282      		std Z+2,__zero_reg__
 5202 18dc 1382      		std Z+3,__zero_reg__
 5203               	.LBE804:
 5204               	.LBE803:
 5205               	.LBB805:
 5206               	.LBB806:
 5207               	.LM512:
 5208 18de 1292      		st -Z,__zero_reg__
 5209 18e0 1292      		st -Z,__zero_reg__
 5210 18e2 1292      		st -Z,__zero_reg__
 5211 18e4 1292      		st -Z,__zero_reg__
 5212               	.LBE806:
 5213               	.LBE805:
 5214               	.LBB807:
 5215               	.LBB808:
 5216               	.LM513:
 5217 18e6 3896      		adiw r30,8
 5218 18e8 1082      		st Z,__zero_reg__
 5219 18ea 1182      		std Z+1,__zero_reg__
 5220 18ec 1282      		std Z+2,__zero_reg__
 5221 18ee 1382      		std Z+3,__zero_reg__
 5222               	.LBE808:
 5223               	.LBE807:
 5224               	.LBB809:
 5225               	.LBB810:
 5226               	.LM514:
 5227 18f0 3997      		sbiw r30,9
 5228 18f2 8081      		ld r24,Z
 5229               	.LBE810:
 5230               	.LBE809:
 5231               	.LBB811:
 5232               	.LBB812:
 5233               	.LM515:
 5234 18f4 807E      		andi r24,lo8(-32)
 5235 18f6 8083      		st Z,r24
 5236               	/* epilogue start */
 5237               	.LBE812:
 5238               	.LBE811:
 5239               	.LM516:
 5240 18f8 0895      		ret
 5241               	.LFE103:
 5243               	.global	Timebase_DownCounter_SS_Clear_All_Flags
 5245               	Timebase_DownCounter_SS_Clear_All_Flags:
 5246               	.LFB104:
 5247               	.LM517:
 5248               	.LVL335:
 5249               	/* prologue: function */
 5250               	/* frame size = 0 */
 5251               	.LBB813:
 5252               	.LBB814:
 5253               	.LBB815:
 5254               	.LBB816:
 5255               	.LM518:
 5256 18fa E091 0000 		lds r30,Timebase
 5257 18fe F091 0000 		lds r31,(Timebase)+1
 5258 1902 90E0      		ldi r25,lo8(0)
 5259 1904 9C01      		movw r18,r24
 5260               	.LVL336:
 5261 1906 A4E0      		ldi r26,4
 5262 1908 220F      	1:	lsl r18
 5263 190a 331F      		rol r19
 5264 190c AA95      		dec r26
 5265 190e 01F4      		brne 1b
 5266 1910 280F      		add r18,r24
 5267 1912 391F      		adc r19,r25
 5268 1914 E20F      		add r30,r18
 5269 1916 F31F      		adc r31,r19
 5270 1918 EE5A      		subi r30,lo8(-(82))
 5271 191a FF4F      		sbci r31,hi8(-(82))
 5272 191c 1082      		st Z,__zero_reg__
 5273 191e 1182      		std Z+1,__zero_reg__
 5274 1920 1282      		std Z+2,__zero_reg__
 5275 1922 1382      		std Z+3,__zero_reg__
 5276               	.LBE816:
 5277               	.LBE815:
 5278               	.LBB817:
 5279               	.LBB818:
 5280               	.LM519:
 5281 1924 1292      		st -Z,__zero_reg__
 5282 1926 1292      		st -Z,__zero_reg__
 5283 1928 1292      		st -Z,__zero_reg__
 5284 192a 1292      		st -Z,__zero_reg__
 5285               	.LBE818:
 5286               	.LBE817:
 5287               	.LBB819:
 5288               	.LBB820:
 5289               	.LM520:
 5290 192c 3896      		adiw r30,8
 5291 192e 1082      		st Z,__zero_reg__
 5292 1930 1182      		std Z+1,__zero_reg__
 5293 1932 1282      		std Z+2,__zero_reg__
 5294 1934 1382      		std Z+3,__zero_reg__
 5295               	.LBE820:
 5296               	.LBE819:
 5297               	.LBB821:
 5298               	.LBB822:
 5299               	.LM521:
 5300 1936 3997      		sbiw r30,9
 5301 1938 8081      		ld r24,Z
 5302               	.LBE822:
 5303               	.LBE821:
 5304               	.LBB823:
 5305               	.LBB824:
 5306               	.LM522:
 5307 193a 807E      		andi r24,lo8(-32)
 5308 193c 8083      		st Z,r24
 5309               	/* epilogue start */
 5310               	.LBE824:
 5311               	.LBE823:
 5312               	.LBE814:
 5313               	.LBE813:
 5314               	.LM523:
 5315 193e 0895      		ret
 5316               	.LFE104:
 5318               	.global	Timebase_DownCounter_SS_Start
 5320               	Timebase_DownCounter_SS_Start:
 5321               	.LFB105:
 5322               	.LM524:
 5323               	.LVL337:
 5324               	/* prologue: function */
 5325               	/* frame size = 0 */
 5326               	.LBB825:
 5327               	.LBB826:
 5328               	.LM525:
 5329 1940 E091 0000 		lds r30,Timebase
 5330 1944 F091 0000 		lds r31,(Timebase)+1
 5331 1948 90E0      		ldi r25,lo8(0)
 5332               	.LBE826:
 5333               	.LBE825:
 5334               	.LM526:
 5335 194a 9C01      		movw r18,r24
 5336               	.LVL338:
 5337 194c B4E0      		ldi r27,4
 5338 194e 220F      	1:	lsl r18
 5339 1950 331F      		rol r19
 5340 1952 BA95      		dec r27
 5341 1954 01F4      		brne 1b
 5342 1956 280F      		add r18,r24
 5343 1958 391F      		adc r19,r25
 5344 195a E20F      		add r30,r18
 5345 195c F31F      		adc r31,r19
 5346 195e E35B      		subi r30,lo8(-(77))
 5347 1960 FF4F      		sbci r31,hi8(-(77))
 5348 1962 9081      		ld r25,Z
 5349 1964 892F      		mov r24,r25
 5350 1966 8695      		lsr r24
 5351 1968 8F70      		andi r24,lo8(15)
 5352 196a 8130      		cpi r24,lo8(1)
 5353 196c 01F0      		breq .L268
 5354               	.LBB827:
 5355               	.LBB828:
 5356               	.LM527:
 5357 196e 917E      		andi r25,lo8(-31)
 5358 1970 9260      		ori r25,lo8(2)
 5359 1972 9083      		st Z,r25
 5360               	.L268:
 5361 1974 0895      		ret
 5362               	.LBE828:
 5363               	.LBE827:
 5364               	.LFE105:
 5366               	.global	Timebase_DownCounter_SS_Stop
 5368               	Timebase_DownCounter_SS_Stop:
 5369               	.LFB106:
 5370               	.LM528:
 5371               	.LVL339:
 5372               	/* prologue: function */
 5373               	/* frame size = 0 */
 5374               	.LBB829:
 5375               	.LBB830:
 5376               	.LM529:
 5377 1976 E091 0000 		lds r30,Timebase
 5378 197a F091 0000 		lds r31,(Timebase)+1
 5379 197e 90E0      		ldi r25,lo8(0)
 5380               	.LBE830:
 5381               	.LBE829:
 5382               	.LM530:
 5383 1980 9C01      		movw r18,r24
 5384               	.LVL340:
 5385 1982 44E0      		ldi r20,4
 5386 1984 220F      	1:	lsl r18
 5387 1986 331F      		rol r19
 5388 1988 4A95      		dec r20
 5389 198a 01F4      		brne 1b
 5390 198c 280F      		add r18,r24
 5391 198e 391F      		adc r19,r25
 5392 1990 E20F      		add r30,r18
 5393 1992 F31F      		adc r31,r19
 5394 1994 E35B      		subi r30,lo8(-(77))
 5395 1996 FF4F      		sbci r31,hi8(-(77))
 5396 1998 9081      		ld r25,Z
 5397 199a 892F      		mov r24,r25
 5398 199c 8695      		lsr r24
 5399 199e 8F70      		andi r24,lo8(15)
 5400 19a0 8230      		cpi r24,lo8(2)
 5401 19a2 01F0      		breq .L271
 5402               	.LBB831:
 5403               	.LBB832:
 5404               	.LM531:
 5405 19a4 917E      		andi r25,lo8(-31)
 5406 19a6 9460      		ori r25,lo8(4)
 5407 19a8 9083      		st Z,r25
 5408               	.L271:
 5409 19aa 0895      		ret
 5410               	.LBE832:
 5411               	.LBE831:
 5412               	.LFE106:
 5414               	.global	Timebase_DownCounter_SS_Set_Securely
 5416               	Timebase_DownCounter_SS_Set_Securely:
 5417               	.LFB107:
 5418               	.LM532:
 5419               	.LVL341:
 5420 19ac 2F92      		push r2
 5421 19ae 3F92      		push r3
 5422 19b0 4F92      		push r4
 5423 19b2 5F92      		push r5
 5424 19b4 6F92      		push r6
 5425 19b6 7F92      		push r7
 5426 19b8 8F92      		push r8
 5427 19ba 9F92      		push r9
 5428 19bc AF92      		push r10
 5429 19be BF92      		push r11
 5430 19c0 CF92      		push r12
 5431 19c2 DF92      		push r13
 5432 19c4 EF92      		push r14
 5433 19c6 FF92      		push r15
 5434 19c8 0F93      		push r16
 5435 19ca 1F93      		push r17
 5436 19cc DF93      		push r29
 5437 19ce CF93      		push r28
 5438 19d0 00D0      		rcall .
 5439 19d2 00D0      		rcall .
 5440 19d4 CDB7      		in r28,__SP_L__
 5441 19d6 DEB7      		in r29,__SP_H__
 5442               	/* prologue: function */
 5443               	/* frame size = 4 */
 5444 19d8 4A01      		movw r8,r20
 5445 19da 5B01      		movw r10,r22
 5446               	.LBB833:
 5447               	.LBB834:
 5448               	.LM533:
 5449 19dc 2091 0000 		lds r18,Timebase
 5450 19e0 3091 0000 		lds r19,(Timebase)+1
 5451 19e4 3C83      		std Y+4,r19
 5452 19e6 2B83      		std Y+3,r18
 5453 19e8 A82F      		mov r26,r24
 5454 19ea B0E0      		ldi r27,lo8(0)
 5455 19ec BA83      		std Y+2,r27
 5456 19ee A983      		std Y+1,r26
 5457               	.LBE834:
 5458               	.LBE833:
 5459               	.LM534:
 5460 19f0 FD01      		movw r30,r26
 5461 19f2 64E0      		ldi r22,4
 5462 19f4 EE0F      	1:	lsl r30
 5463 19f6 FF1F      		rol r31
 5464 19f8 6A95      		dec r22
 5465 19fa 01F4      		brne 1b
 5466 19fc EA0F      		add r30,r26
 5467 19fe FB1F      		adc r31,r27
 5468 1a00 E20F      		add r30,r18
 5469 1a02 F31F      		adc r31,r19
 5470 1a04 E35B      		subi r30,lo8(-(77))
 5471 1a06 FF4F      		sbci r31,hi8(-(77))
 5472 1a08 8081      		ld r24,Z
 5473               	.LVL342:
 5474 1a0a ED54      		subi r30,lo8(-(-77))
 5475 1a0c F040      		sbci r31,hi8(-(-77))
 5476 1a0e 8695      		lsr r24
 5477 1a10 8F70      		andi r24,lo8(15)
 5478 1a12 01F0      		breq .+2
 5479 1a14 00C0      		rjmp .L275
 5480               	.LVL343:
 5481               	.LBB835:
 5482               	.LBB836:
 5483               	.LBB837:
 5484               	.LM535:
 5485 1a16 EA5A      		subi r30,lo8(-(86))
 5486 1a18 FF4F      		sbci r31,hi8(-(86))
 5487 1a1a 8082      		st Z,r8
 5488 1a1c 9182      		std Z+1,r9
 5489 1a1e A282      		std Z+2,r10
 5490 1a20 B382      		std Z+3,r11
 5491               	.LBE837:
 5492               	.LBE836:
 5493               	.LBB838:
 5494               	.LBB839:
 5495               	.LM536:
 5496 1a22 F901      		movw r30,r18
 5497 1a24 C084      		ldd r12,Z+8
 5498 1a26 D184      		ldd r13,Z+9
 5499               	.LBE839:
 5500               	.LBE838:
 5501               	.LBB840:
 5502               	.LBB841:
 5503               	.LM537:
 5504 1a28 2284      		ldd r2,Z+10
 5505 1a2a 3384      		ldd r3,Z+11
 5506 1a2c 4484      		ldd r4,Z+12
 5507 1a2e 5584      		ldd r5,Z+13
 5508               	.LVL344:
 5509               	.LBE841:
 5510               	.LBE840:
 5511               	.LM538:
 5512 1a30 2181      		ldd r18,Z+1
 5513 1a32 3281      		ldd r19,Z+2
 5514 1a34 40E0      		ldi r20,lo8(0)
 5515 1a36 50E0      		ldi r21,hi8(0)
 5516 1a38 C501      		movw r24,r10
 5517 1a3a B401      		movw r22,r8
 5518 1a3c 0E94 0000 		call __divmodsi4
 5519 1a40 7B01      		movw r14,r22
 5520 1a42 8C01      		movw r16,r24
 5521               	.LM539:
 5522 1a44 AB81      		ldd r26,Y+3
 5523 1a46 BC81      		ldd r27,Y+4
 5524 1a48 1196      		adiw r26,1
 5525 1a4a 2D91      		ld r18,X+
 5526 1a4c 3C91      		ld r19,X
 5527 1a4e 1297      		sbiw r26,1+1
 5528 1a50 40E0      		ldi r20,lo8(0)
 5529 1a52 50E0      		ldi r21,hi8(0)
 5530 1a54 C501      		movw r24,r10
 5531 1a56 B401      		movw r22,r8
 5532 1a58 0E94 0000 		call __divmodsi4
 5533 1a5c C901      		movw r24,r18
 5534 1a5e DA01      		movw r26,r20
 5535 1a60 3C01      		movw r6,r24
 5536 1a62 4D01      		movw r8,r26
 5537               	.LVL345:
 5538               	.LM540:
 5539 1a64 5601      		movw r10,r12
 5540               	.LVL346:
 5541 1a66 CC24      		clr r12
 5542 1a68 DD24      		clr r13
 5543               	.LVL347:
 5544 1a6a AE0C      		add r10,r14
 5545 1a6c BF1C      		adc r11,r15
 5546 1a6e C01E      		adc r12,r16
 5547 1a70 D11E      		adc r13,r17
 5548               	.LVL348:
 5549               	.LM541:
 5550 1a72 EB81      		ldd r30,Y+3
 5551 1a74 FC81      		ldd r31,Y+4
 5552 1a76 8181      		ldd r24,Z+1
 5553 1a78 9281      		ldd r25,Z+2
 5554               	.LVL349:
 5555 1a7a A0E0      		ldi r26,lo8(0)
 5556 1a7c B0E0      		ldi r27,hi8(0)
 5557 1a7e A816      		cp r10,r24
 5558 1a80 B906      		cpc r11,r25
 5559 1a82 CA06      		cpc r12,r26
 5560 1a84 DB06      		cpc r13,r27
 5561 1a86 04F0      		brlt .L274
 5562               	.LM542:
 5563 1a88 0894      		sec
 5564 1a8a 611C      		adc r6,__zero_reg__
 5565 1a8c 711C      		adc r7,__zero_reg__
 5566 1a8e 811C      		adc r8,__zero_reg__
 5567 1a90 911C      		adc r9,__zero_reg__
 5568               	.LM543:
 5569 1a92 2181      		ldd r18,Z+1
 5570 1a94 3281      		ldd r19,Z+2
 5571 1a96 40E0      		ldi r20,lo8(0)
 5572 1a98 50E0      		ldi r21,hi8(0)
 5573 1a9a C601      		movw r24,r12
 5574 1a9c B501      		movw r22,r10
 5575 1a9e 0E94 0000 		call __divmodsi4
 5576 1aa2 AC01      		movw r20,r24
 5577 1aa4 CB01      		movw r24,r22
 5578 1aa6 DA01      		movw r26,r20
 5579 1aa8 5C01      		movw r10,r24
 5580 1aaa 6D01      		movw r12,r26
 5581               	.L274:
 5582               	.LBB842:
 5583               	.LBB843:
 5584               	.LM544:
 5585 1aac E981      		ldd r30,Y+1
 5586 1aae FA81      		ldd r31,Y+2
 5587 1ab0 54E0      		ldi r21,4
 5588 1ab2 EE0F      	1:	lsl r30
 5589 1ab4 FF1F      		rol r31
 5590 1ab6 5A95      		dec r21
 5591 1ab8 01F4      		brne 1b
 5592 1aba 2981      		ldd r18,Y+1
 5593 1abc 3A81      		ldd r19,Y+2
 5594 1abe E20F      		add r30,r18
 5595 1ac0 F31F      		adc r31,r19
 5596 1ac2 8B81      		ldd r24,Y+3
 5597 1ac4 9C81      		ldd r25,Y+4
 5598 1ac6 E80F      		add r30,r24
 5599 1ac8 F91F      		adc r31,r25
 5600 1aca E25B      		subi r30,lo8(-(78))
 5601 1acc FF4F      		sbci r31,hi8(-(78))
 5602 1ace 260C      		add r2,r6
 5603 1ad0 371C      		adc r3,r7
 5604 1ad2 481C      		adc r4,r8
 5605 1ad4 591C      		adc r5,r9
 5606 1ad6 2192      		st Z+,r2
 5607 1ad8 3192      		st Z+,r3
 5608 1ada 4192      		st Z+,r4
 5609 1adc 5192      		st Z+,r5
 5610               	.LBE843:
 5611               	.LBE842:
 5612               	.LBB844:
 5613               	.LBB845:
 5614               	.LM545:
 5615 1ade A082      		st Z,r10
 5616 1ae0 B182      		std Z+1,r11
 5617 1ae2 C282      		std Z+2,r12
 5618 1ae4 D382      		std Z+3,r13
 5619               	.LBE845:
 5620               	.LBE844:
 5621               	.LBB846:
 5622               	.LBB847:
 5623               	.LM546:
 5624 1ae6 3597      		sbiw r30,5
 5625 1ae8 9081      		ld r25,Z
 5626 1aea 892F      		mov r24,r25
 5627 1aec 8695      		lsr r24
 5628 1aee 8F70      		andi r24,lo8(15)
 5629 1af0 8130      		cpi r24,lo8(1)
 5630 1af2 01F0      		breq .L275
 5631               	.LBB848:
 5632               	.LBB849:
 5633               	.LM547:
 5634 1af4 917E      		andi r25,lo8(-31)
 5635 1af6 9260      		ori r25,lo8(2)
 5636 1af8 9083      		st Z,r25
 5637               	.LVL350:
 5638               	.L275:
 5639               	/* epilogue start */
 5640               	.LBE849:
 5641               	.LBE848:
 5642               	.LBE847:
 5643               	.LBE846:
 5644               	.LBE835:
 5645               	.LM548:
 5646 1afa 0F90      		pop __tmp_reg__
 5647 1afc 0F90      		pop __tmp_reg__
 5648 1afe 0F90      		pop __tmp_reg__
 5649 1b00 0F90      		pop __tmp_reg__
 5650 1b02 CF91      		pop r28
 5651 1b04 DF91      		pop r29
 5652 1b06 1F91      		pop r17
 5653 1b08 0F91      		pop r16
 5654 1b0a FF90      		pop r15
 5655 1b0c EF90      		pop r14
 5656 1b0e DF90      		pop r13
 5657 1b10 CF90      		pop r12
 5658               	.LVL351:
 5659 1b12 BF90      		pop r11
 5660 1b14 AF90      		pop r10
 5661               	.LVL352:
 5662 1b16 9F90      		pop r9
 5663 1b18 8F90      		pop r8
 5664               	.LVL353:
 5665 1b1a 7F90      		pop r7
 5666 1b1c 6F90      		pop r6
 5667               	.LVL354:
 5668 1b1e 5F90      		pop r5
 5669 1b20 4F90      		pop r4
 5670 1b22 3F90      		pop r3
 5671 1b24 2F90      		pop r2
 5672               	.LVL355:
 5673 1b26 0895      		ret
 5674               	.LFE107:
 5676               	.global	Timebase_DownCounter_SS_Set_Forcefully
 5678               	Timebase_DownCounter_SS_Set_Forcefully:
 5679               	.LFB108:
 5680               	.LM549:
 5681               	.LVL356:
 5682               	/* prologue: function */
 5683               	/* frame size = 0 */
 5684               	.LBB850:
 5685               	.LBB851:
 5686               	.LBB852:
 5687               	.LBB853:
 5688               	.LM550:
 5689 1b28 E091 0000 		lds r30,Timebase
 5690 1b2c F091 0000 		lds r31,(Timebase)+1
 5691 1b30 A82F      		mov r26,r24
 5692 1b32 B0E0      		ldi r27,lo8(0)
 5693 1b34 9D01      		movw r18,r26
 5694 1b36 94E0      		ldi r25,4
 5695 1b38 220F      	1:	lsl r18
 5696 1b3a 331F      		rol r19
 5697 1b3c 9A95      		dec r25
 5698 1b3e 01F4      		brne 1b
 5699 1b40 2A0F      		add r18,r26
 5700 1b42 3B1F      		adc r19,r27
 5701 1b44 E20F      		add r30,r18
 5702 1b46 F31F      		adc r31,r19
 5703 1b48 EE5A      		subi r30,lo8(-(82))
 5704 1b4a FF4F      		sbci r31,hi8(-(82))
 5705 1b4c 1082      		st Z,__zero_reg__
 5706 1b4e 1182      		std Z+1,__zero_reg__
 5707 1b50 1282      		std Z+2,__zero_reg__
 5708 1b52 1382      		std Z+3,__zero_reg__
 5709               	.LBE853:
 5710               	.LBE852:
 5711               	.LBB854:
 5712               	.LBB855:
 5713               	.LM551:
 5714 1b54 1292      		st -Z,__zero_reg__
 5715 1b56 1292      		st -Z,__zero_reg__
 5716 1b58 1292      		st -Z,__zero_reg__
 5717 1b5a 1292      		st -Z,__zero_reg__
 5718               	.LBE855:
 5719               	.LBE854:
 5720               	.LBB856:
 5721               	.LBB857:
 5722               	.LM552:
 5723 1b5c 3896      		adiw r30,8
 5724 1b5e 1082      		st Z,__zero_reg__
 5725 1b60 1182      		std Z+1,__zero_reg__
 5726 1b62 1282      		std Z+2,__zero_reg__
 5727 1b64 1382      		std Z+3,__zero_reg__
 5728               	.LBE857:
 5729               	.LBE856:
 5730               	.LBB858:
 5731               	.LBB859:
 5732               	.LM553:
 5733 1b66 3997      		sbiw r30,9
 5734 1b68 9081      		ld r25,Z
 5735               	.LBE859:
 5736               	.LBE858:
 5737               	.LBB860:
 5738               	.LBB861:
 5739               	.LM554:
 5740 1b6a 907E      		andi r25,lo8(-32)
 5741 1b6c 9083      		st Z,r25
 5742               	.LBE861:
 5743               	.LBE860:
 5744               	.LBE851:
 5745               	.LBE850:
 5746               	.LM555:
 5747 1b6e 0E94 0000 		call Timebase_DownCounter_SS_Set_Securely
 5748               	.LVL357:
 5749               	/* epilogue start */
 5750               	.LM556:
 5751 1b72 0895      		ret
 5752               	.LFE108:
 5754               	.global	Timebase_DownCounter_SS_Update
 5756               	Timebase_DownCounter_SS_Update:
 5757               	.LFB109:
 5758               	.LM557:
 5759               	.LVL358:
 5760 1b74 2F92      		push r2
 5761 1b76 3F92      		push r3
 5762 1b78 4F92      		push r4
 5763 1b7a 5F92      		push r5
 5764 1b7c 6F92      		push r6
 5765 1b7e 7F92      		push r7
 5766 1b80 8F92      		push r8
 5767 1b82 9F92      		push r9
 5768 1b84 AF92      		push r10
 5769 1b86 BF92      		push r11
 5770 1b88 CF92      		push r12
 5771 1b8a DF92      		push r13
 5772 1b8c EF92      		push r14
 5773 1b8e FF92      		push r15
 5774 1b90 0F93      		push r16
 5775 1b92 1F93      		push r17
 5776 1b94 CF93      		push r28
 5777 1b96 DF93      		push r29
 5778               	/* prologue: function */
 5779               	/* frame size = 0 */
 5780               	.LBB862:
 5781               	.LBB863:
 5782               	.LM558:
 5783 1b98 C090 0000 		lds r12,Timebase
 5784 1b9c D090 0000 		lds r13,(Timebase)+1
 5785 1ba0 082F      		mov r16,r24
 5786 1ba2 10E0      		ldi r17,lo8(0)
 5787 1ba4 E801      		movw r28,r16
 5788 1ba6 34E0      		ldi r19,4
 5789 1ba8 CC0F      	1:	lsl r28
 5790 1baa DD1F      		rol r29
 5791 1bac 3A95      		dec r19
 5792 1bae 01F4      		brne 1b
 5793 1bb0 C00F      		add r28,r16
 5794 1bb2 D11F      		adc r29,r17
 5795 1bb4 CC0D      		add r28,r12
 5796 1bb6 DD1D      		adc r29,r13
 5797 1bb8 C35B      		subi r28,lo8(-(77))
 5798 1bba DF4F      		sbci r29,hi8(-(77))
 5799 1bbc 8881      		ld r24,Y
 5800               	.LVL359:
 5801 1bbe CD54      		subi r28,lo8(-(-77))
 5802 1bc0 D040      		sbci r29,hi8(-(-77))
 5803 1bc2 8695      		lsr r24
 5804 1bc4 8F70      		andi r24,lo8(15)
 5805               	.LBE863:
 5806               	.LBE862:
 5807               	.LM559:
 5808 1bc6 8130      		cpi r24,lo8(1)
 5809 1bc8 01F0      		breq .+2
 5810 1bca 00C0      		rjmp .L279
 5811               	.LBB864:
 5812               	.LBB865:
 5813               	.LBB866:
 5814               	.LM560:
 5815 1bcc F601      		movw r30,r12
 5816 1bce 8085      		ldd r24,Z+8
 5817 1bd0 9185      		ldd r25,Z+9
 5818               	.LBE866:
 5819               	.LBE865:
 5820               	.LM561:
 5821 1bd2 4C01      		movw r8,r24
 5822               	.LVL360:
 5823 1bd4 AA24      		clr r10
 5824 1bd6 BB24      		clr r11
 5825               	.LVL361:
 5826               	.LBB867:
 5827               	.LBB868:
 5828               	.LM562:
 5829 1bd8 8285      		ldd r24,Z+10
 5830 1bda 9385      		ldd r25,Z+11
 5831 1bdc A485      		ldd r26,Z+12
 5832 1bde B585      		ldd r27,Z+13
 5833               	.LVL362:
 5834               	.LBE868:
 5835               	.LBE867:
 5836               	.LM563:
 5837 1be0 C25B      		subi r28,lo8(-(78))
 5838 1be2 DF4F      		sbci r29,hi8(-(78))
 5839 1be4 2880      		ld r2,Y
 5840 1be6 3980      		ldd r3,Y+1
 5841 1be8 4A80      		ldd r4,Y+2
 5842 1bea 5B80      		ldd r5,Y+3
 5843               	.LVL363:
 5844 1bec 281A      		sub r2,r24
 5845 1bee 390A      		sbc r3,r25
 5846 1bf0 4A0A      		sbc r4,r26
 5847 1bf2 5B0A      		sbc r5,r27
 5848 1bf4 57FE      		sbrs r5,7
 5849 1bf6 00C0      		rjmp .L280
 5850 1bf8 2224      		clr r2
 5851 1bfa 3324      		clr r3
 5852 1bfc 2101      		movw r4,r2
 5853               	.L280:
 5854               	.LM564:
 5855 1bfe F601      		movw r30,r12
 5856 1c00 2181      		ldd r18,Z+1
 5857 1c02 3281      		ldd r19,Z+2
 5858 1c04 40E0      		ldi r20,lo8(0)
 5859 1c06 50E0      		ldi r21,hi8(0)
 5860 1c08 C201      		movw r24,r4
 5861 1c0a B101      		movw r22,r2
 5862 1c0c 0E94 0000 		call __mulsi3
 5863               	.LM565:
 5864 1c10 F801      		movw r30,r16
 5865 1c12 24E0      		ldi r18,4
 5866 1c14 EE0F      	1:	lsl r30
 5867 1c16 FF1F      		rol r31
 5868 1c18 2A95      		dec r18
 5869 1c1a 01F4      		brne 1b
 5870 1c1c E00F      		add r30,r16
 5871 1c1e F11F      		adc r31,r17
 5872 1c20 EC0D      		add r30,r12
 5873 1c22 FD1D      		adc r31,r13
 5874 1c24 EF01      		movw r28,r30
 5875 1c26 CE5A      		subi r28,lo8(-(82))
 5876 1c28 DF4F      		sbci r29,hi8(-(82))
 5877 1c2a 2881      		ld r18,Y
 5878 1c2c 3981      		ldd r19,Y+1
 5879 1c2e 4A81      		ldd r20,Y+2
 5880 1c30 5B81      		ldd r21,Y+3
 5881               	.LVL364:
 5882 1c32 2819      		sub r18,r8
 5883 1c34 3909      		sbc r19,r9
 5884 1c36 4A09      		sbc r20,r10
 5885 1c38 5B09      		sbc r21,r11
 5886 1c3a 260F      		add r18,r22
 5887 1c3c 371F      		adc r19,r23
 5888 1c3e 481F      		adc r20,r24
 5889 1c40 591F      		adc r21,r25
 5890               	.LBB869:
 5891               	.LBB870:
 5892               	.LM566:
 5893 1c42 DF01      		movw r26,r30
 5894 1c44 AA5A      		subi r26,lo8(-(86))
 5895 1c46 BF4F      		sbci r27,hi8(-(86))
 5896 1c48 2D93      		st X+,r18
 5897 1c4a 3D93      		st X+,r19
 5898 1c4c 4D93      		st X+,r20
 5899 1c4e 5C93      		st X,r21
 5900 1c50 1397      		sbiw r26,3
 5901               	.LBE870:
 5902               	.LBE869:
 5903               	.LM567:
 5904 1c52 1216      		cp __zero_reg__,r18
 5905 1c54 1306      		cpc __zero_reg__,r19
 5906 1c56 1406      		cpc __zero_reg__,r20
 5907 1c58 1506      		cpc __zero_reg__,r21
 5908 1c5a 04F4      		brge .+2
 5909 1c5c 00C0      		rjmp .L282
 5910               	.LBB871:
 5911               	.LBB872:
 5912               	.LBB873:
 5913               	.LBB874:
 5914               	.LM568:
 5915 1c5e 1882      		st Y,__zero_reg__
 5916 1c60 1982      		std Y+1,__zero_reg__
 5917 1c62 1A82      		std Y+2,__zero_reg__
 5918 1c64 1B82      		std Y+3,__zero_reg__
 5919               	.LBE874:
 5920               	.LBE873:
 5921               	.LBB875:
 5922               	.LBB876:
 5923               	.LM569:
 5924 1c66 E25B      		subi r30,lo8(-(78))
 5925 1c68 FF4F      		sbci r31,hi8(-(78))
 5926 1c6a 1082      		st Z,__zero_reg__
 5927 1c6c 1182      		std Z+1,__zero_reg__
 5928 1c6e 1282      		std Z+2,__zero_reg__
 5929 1c70 1382      		std Z+3,__zero_reg__
 5930               	.LBE876:
 5931               	.LBE875:
 5932               	.LBB877:
 5933               	.LBB878:
 5934               	.LM570:
 5935 1c72 1D92      		st X+,__zero_reg__
 5936 1c74 1D92      		st X+,__zero_reg__
 5937 1c76 1D92      		st X+,__zero_reg__
 5938 1c78 1C92      		st X,__zero_reg__
 5939 1c7a 1397      		sbiw r26,3
 5940               	.LBE878:
 5941               	.LBE877:
 5942               	.LBB879:
 5943               	.LBB880:
 5944               	.LM571:
 5945 1c7c 8291      		ld r24,-Z
 5946               	.LBE880:
 5947               	.LBE879:
 5948               	.LBE872:
 5949               	.LBE871:
 5950               	.LBB881:
 5951               	.LBB882:
 5952               	.LM572:
 5953 1c7e 807E      		andi r24,lo8(-32)
 5954 1c80 8860      		ori r24,lo8(8)
 5955 1c82 8083      		st Z,r24
 5956 1c84 00C0      		rjmp .L282
 5957               	.LVL365:
 5958               	.L279:
 5959               	.LBE882:
 5960               	.LBE881:
 5961               	.LBE864:
 5962               	.LM573:
 5963 1c86 8230      		cpi r24,lo8(2)
 5964 1c88 01F4      		brne .L282
 5965               	.LBB883:
 5966               	.LBB884:
 5967               	.LBB885:
 5968               	.LM574:
 5969 1c8a F601      		movw r30,r12
 5970 1c8c 6084      		ldd r6,Z+8
 5971 1c8e 7184      		ldd r7,Z+9
 5972               	.LBE885:
 5973               	.LBE884:
 5974               	.LBB886:
 5975               	.LBB887:
 5976               	.LM575:
 5977 1c90 E284      		ldd r14,Z+10
 5978 1c92 F384      		ldd r15,Z+11
 5979 1c94 0485      		ldd r16,Z+12
 5980 1c96 1585      		ldd r17,Z+13
 5981               	.LVL366:
 5982               	.LBE887:
 5983               	.LBE886:
 5984               	.LBB888:
 5985               	.LBB889:
 5986               	.LM576:
 5987 1c98 CA5A      		subi r28,lo8(-(86))
 5988 1c9a DF4F      		sbci r29,hi8(-(86))
 5989 1c9c 2880      		ld r2,Y
 5990 1c9e 3980      		ldd r3,Y+1
 5991 1ca0 4A80      		ldd r4,Y+2
 5992 1ca2 5B80      		ldd r5,Y+3
 5993               	.LVL367:
 5994               	.LBE889:
 5995               	.LBE888:
 5996               	.LM577:
 5997 1ca4 2181      		ldd r18,Z+1
 5998 1ca6 3281      		ldd r19,Z+2
 5999               	.LM578:
 6000 1ca8 A180      		ldd r10,Z+1
 6001 1caa B280      		ldd r11,Z+2
 6002               	.LBB890:
 6003               	.LBB891:
 6004               	.LM579:
 6005 1cac 2897      		sbiw r28,8
 6006 1cae 40E0      		ldi r20,lo8(0)
 6007 1cb0 50E0      		ldi r21,hi8(0)
 6008 1cb2 C201      		movw r24,r4
 6009 1cb4 B101      		movw r22,r2
 6010 1cb6 0E94 0000 		call __divmodsi4
 6011 1cba E20E      		add r14,r18
 6012 1cbc F31E      		adc r15,r19
 6013 1cbe 041F      		adc r16,r20
 6014 1cc0 151F      		adc r17,r21
 6015 1cc2 E992      		st Y+,r14
 6016 1cc4 F992      		st Y+,r15
 6017 1cc6 0993      		st Y+,r16
 6018 1cc8 1993      		st Y+,r17
 6019               	.LBE891:
 6020               	.LBE890:
 6021               	.LBB892:
 6022               	.LBB893:
 6023               	.LM580:
 6024 1cca CC24      		clr r12
 6025 1ccc DD24      		clr r13
 6026 1cce C201      		movw r24,r4
 6027 1cd0 B101      		movw r22,r2
 6028 1cd2 A601      		movw r20,r12
 6029 1cd4 9501      		movw r18,r10
 6030 1cd6 0E94 0000 		call __divmodsi4
 6031 1cda 8824      		clr r8
 6032 1cdc 9924      		clr r9
 6033 1cde 660E      		add r6,r22
 6034 1ce0 771E      		adc r7,r23
 6035 1ce2 881E      		adc r8,r24
 6036 1ce4 991E      		adc r9,r25
 6037 1ce6 6882      		st Y,r6
 6038 1ce8 7982      		std Y+1,r7
 6039 1cea 8A82      		std Y+2,r8
 6040 1cec 9B82      		std Y+3,r9
 6041               	.LVL368:
 6042               	.L282:
 6043               	/* epilogue start */
 6044               	.LBE893:
 6045               	.LBE892:
 6046               	.LBE883:
 6047               	.LM581:
 6048 1cee DF91      		pop r29
 6049 1cf0 CF91      		pop r28
 6050 1cf2 1F91      		pop r17
 6051 1cf4 0F91      		pop r16
 6052 1cf6 FF90      		pop r15
 6053 1cf8 EF90      		pop r14
 6054               	.LVL369:
 6055 1cfa DF90      		pop r13
 6056 1cfc CF90      		pop r12
 6057 1cfe BF90      		pop r11
 6058 1d00 AF90      		pop r10
 6059               	.LVL370:
 6060 1d02 9F90      		pop r9
 6061 1d04 8F90      		pop r8
 6062               	.LVL371:
 6063 1d06 7F90      		pop r7
 6064 1d08 6F90      		pop r6
 6065 1d0a 5F90      		pop r5
 6066 1d0c 4F90      		pop r4
 6067 1d0e 3F90      		pop r3
 6068 1d10 2F90      		pop r2
 6069               	.LVL372:
 6070 1d12 0895      		ret
 6071               	.LFE109:
 6073               	.global	Timebase_DownCounter_SS_Expired
 6075               	Timebase_DownCounter_SS_Expired:
 6076               	.LFB110:
 6077               	.LM582:
 6078               	.LVL373:
 6079               	/* prologue: function */
 6080               	/* frame size = 0 */
 6081               	.LM583:
 6082 1d14 40E0      		ldi r20,lo8(0)
 6083 1d16 E091 0000 		lds r30,Timebase
 6084 1d1a F091 0000 		lds r31,(Timebase)+1
 6085 1d1e 90E0      		ldi r25,lo8(0)
 6086               	.LVL374:
 6087 1d20 9C01      		movw r18,r24
 6088 1d22 54E0      		ldi r21,4
 6089 1d24 220F      	1:	lsl r18
 6090 1d26 331F      		rol r19
 6091 1d28 5A95      		dec r21
 6092 1d2a 01F4      		brne 1b
 6093 1d2c 280F      		add r18,r24
 6094 1d2e 391F      		adc r19,r25
 6095 1d30 E20F      		add r30,r18
 6096 1d32 F31F      		adc r31,r19
 6097 1d34 E35B      		subi r30,lo8(-(77))
 6098 1d36 FF4F      		sbci r31,hi8(-(77))
 6099 1d38 8081      		ld r24,Z
 6100               	.LVL375:
 6101 1d3a 8695      		lsr r24
 6102 1d3c 8F70      		andi r24,lo8(15)
 6103 1d3e 8430      		cpi r24,lo8(4)
 6104 1d40 01F4      		brne .L284
 6105 1d42 41E0      		ldi r20,lo8(1)
 6106               	.L284:
 6107               	.LM584:
 6108 1d44 842F      		mov r24,r20
 6109               	/* epilogue start */
 6110 1d46 0895      		ret
 6111               	.LFE110:
 6113               	.global	Timebase_DownCounter_SS_Expired_Event
 6115               	Timebase_DownCounter_SS_Expired_Event:
 6116               	.LFB111:
 6117               	.LM585:
 6118               	.LVL376:
 6119               	/* prologue: function */
 6120               	/* frame size = 0 */
 6121               	.LBB894:
 6122               	.LBB895:
 6123               	.LM586:
 6124 1d48 E091 0000 		lds r30,Timebase
 6125 1d4c F091 0000 		lds r31,(Timebase)+1
 6126 1d50 90E0      		ldi r25,lo8(0)
 6127               	.LBE895:
 6128               	.LBE894:
 6129               	.LM587:
 6130 1d52 9C01      		movw r18,r24
 6131               	.LVL377:
 6132 1d54 64E0      		ldi r22,4
 6133 1d56 220F      	1:	lsl r18
 6134 1d58 331F      		rol r19
 6135 1d5a 6A95      		dec r22
 6136 1d5c 01F4      		brne 1b
 6137 1d5e 280F      		add r18,r24
 6138 1d60 391F      		adc r19,r25
 6139 1d62 E20F      		add r30,r18
 6140 1d64 F31F      		adc r31,r19
 6141 1d66 DF01      		movw r26,r30
 6142 1d68 A35B      		subi r26,lo8(-(77))
 6143 1d6a BF4F      		sbci r27,hi8(-(77))
 6144 1d6c 8C91      		ld r24,X
 6145 1d6e 8695      		lsr r24
 6146 1d70 8F70      		andi r24,lo8(15)
 6147 1d72 8430      		cpi r24,lo8(4)
 6148 1d74 01F0      		breq .L287
 6149 1d76 80E0      		ldi r24,lo8(0)
 6150 1d78 0895      		ret
 6151               	.L287:
 6152               	.LBB896:
 6153               	.LBB897:
 6154               	.LBB898:
 6155               	.LBB899:
 6156               	.LBB900:
 6157               	.LBB901:
 6158               	.LM588:
 6159 1d7a EE5A      		subi r30,lo8(-(82))
 6160 1d7c FF4F      		sbci r31,hi8(-(82))
 6161 1d7e 1082      		st Z,__zero_reg__
 6162 1d80 1182      		std Z+1,__zero_reg__
 6163 1d82 1282      		std Z+2,__zero_reg__
 6164 1d84 1382      		std Z+3,__zero_reg__
 6165               	.LBE901:
 6166               	.LBE900:
 6167               	.LBB902:
 6168               	.LBB903:
 6169               	.LM589:
 6170 1d86 1292      		st -Z,__zero_reg__
 6171 1d88 1292      		st -Z,__zero_reg__
 6172 1d8a 1292      		st -Z,__zero_reg__
 6173 1d8c 1292      		st -Z,__zero_reg__
 6174               	.LBE903:
 6175               	.LBE902:
 6176               	.LBB904:
 6177               	.LBB905:
 6178               	.LM590:
 6179 1d8e 3896      		adiw r30,8
 6180 1d90 1082      		st Z,__zero_reg__
 6181 1d92 1182      		std Z+1,__zero_reg__
 6182 1d94 1282      		std Z+2,__zero_reg__
 6183 1d96 1382      		std Z+3,__zero_reg__
 6184               	.LBE905:
 6185               	.LBE904:
 6186               	.LBB906:
 6187               	.LBB907:
 6188               	.LM591:
 6189 1d98 8C91      		ld r24,X
 6190               	.LBE907:
 6191               	.LBE906:
 6192               	.LBB908:
 6193               	.LBB909:
 6194               	.LM592:
 6195 1d9a 807E      		andi r24,lo8(-32)
 6196 1d9c 8C93      		st X,r24
 6197 1d9e 81E0      		ldi r24,lo8(1)
 6198               	.LBE909:
 6199               	.LBE908:
 6200               	.LBE899:
 6201               	.LBE898:
 6202               	.LBE897:
 6203               	.LBE896:
 6204               	.LM593:
 6205 1da0 0895      		ret
 6206               	.LFE111:
 6208               	.global	Timebase_DownCounter_SS_Set_Period_Value_Securely
 6210               	Timebase_DownCounter_SS_Set_Period_Value_Securely:
 6211               	.LFB112:
 6212               	.LM594:
 6213               	.LVL378:
 6214 1da2 CF93      		push r28
 6215 1da4 DF93      		push r29
 6216               	/* prologue: function */
 6217               	/* frame size = 0 */
 6218               	.LBB910:
 6219               	.LBB911:
 6220               	.LM595:
 6221 1da6 C091 0000 		lds r28,Timebase
 6222 1daa D091 0000 		lds r29,(Timebase)+1
 6223 1dae 282F      		mov r18,r24
 6224 1db0 30E0      		ldi r19,lo8(0)
 6225               	.LBE911:
 6226               	.LBE910:
 6227               	.LM596:
 6228 1db2 F901      		movw r30,r18
 6229 1db4 A4E0      		ldi r26,4
 6230 1db6 EE0F      	1:	lsl r30
 6231 1db8 FF1F      		rol r31
 6232 1dba AA95      		dec r26
 6233 1dbc 01F4      		brne 1b
 6234 1dbe E20F      		add r30,r18
 6235 1dc0 F31F      		adc r31,r19
 6236 1dc2 EC0F      		add r30,r28
 6237 1dc4 FD1F      		adc r31,r29
 6238 1dc6 E35B      		subi r30,lo8(-(77))
 6239 1dc8 FF4F      		sbci r31,hi8(-(77))
 6240 1dca 8081      		ld r24,Z
 6241               	.LVL379:
 6242 1dcc ED54      		subi r30,lo8(-(-77))
 6243 1dce F040      		sbci r31,hi8(-(-77))
 6244 1dd0 80FD      		sbrc r24,0
 6245 1dd2 00C0      		rjmp .L294
 6246               	.LM597:
 6247 1dd4 EA5A      		subi r30,lo8(-(86))
 6248 1dd6 FF4F      		sbci r31,hi8(-(86))
 6249 1dd8 8191      		ld r24,Z+
 6250 1dda 9191      		ld r25,Z+
 6251 1ddc A191      		ld r26,Z+
 6252 1dde B191      		ld r27,Z+
 6253 1de0 841B      		sub r24,r20
 6254 1de2 950B      		sbc r25,r21
 6255 1de4 A60B      		sbc r26,r22
 6256 1de6 B70B      		sbc r27,r23
 6257               	.LBB912:
 6258               	.LBB913:
 6259               	.LM598:
 6260 1de8 B7FF      		sbrs r27,7
 6261 1dea 00C0      		rjmp .L292
 6262               	.LM599:
 6263 1dec 1082      		st Z,__zero_reg__
 6264 1dee 1182      		std Z+1,__zero_reg__
 6265 1df0 1282      		std Z+2,__zero_reg__
 6266 1df2 1382      		std Z+3,__zero_reg__
 6267 1df4 00C0      		rjmp .L293
 6268               	.L292:
 6269               	.LM600:
 6270 1df6 8083      		st Z,r24
 6271 1df8 9183      		std Z+1,r25
 6272 1dfa A283      		std Z+2,r26
 6273 1dfc B383      		std Z+3,r27
 6274               	.L293:
 6275               	.LBE913:
 6276               	.LBE912:
 6277               	.LBB914:
 6278               	.LBB915:
 6279               	.LM601:
 6280 1dfe F901      		movw r30,r18
 6281 1e00 74E0      		ldi r23,4
 6282 1e02 EE0F      	1:	lsl r30
 6283 1e04 FF1F      		rol r31
 6284 1e06 7A95      		dec r23
 6285 1e08 01F4      		brne 1b
 6286 1e0a E20F      		add r30,r18
 6287 1e0c F31F      		adc r31,r19
 6288 1e0e EC0F      		add r30,r28
 6289 1e10 FD1F      		adc r31,r29
 6290 1e12 E35B      		subi r30,lo8(-(77))
 6291 1e14 FF4F      		sbci r31,hi8(-(77))
 6292 1e16 8081      		ld r24,Z
 6293 1e18 8160      		ori r24,lo8(1)
 6294 1e1a 8083      		st Z,r24
 6295               	.L294:
 6296               	/* epilogue start */
 6297               	.LBE915:
 6298               	.LBE914:
 6299               	.LM602:
 6300 1e1c DF91      		pop r29
 6301 1e1e CF91      		pop r28
 6302 1e20 0895      		ret
 6303               	.LFE112:
 6305               	.global	Timebase_DownCounter_SS_Get_Remaining_Period_Value
 6307               	Timebase_DownCounter_SS_Get_Remaining_Period_Value:
 6308               	.LFB113:
 6309               	.LM603:
 6310               	.LVL380:
 6311               	/* prologue: function */
 6312               	/* frame size = 0 */
 6313               	.LBB916:
 6314               	.LBB917:
 6315               	.LM604:
 6316 1e22 E091 0000 		lds r30,Timebase
 6317 1e26 F091 0000 		lds r31,(Timebase)+1
 6318 1e2a 90E0      		ldi r25,lo8(0)
 6319               	.LBE917:
 6320               	.LBE916:
 6321               	.LM605:
 6322 1e2c 9C01      		movw r18,r24
 6323               	.LVL381:
 6324 1e2e B4E0      		ldi r27,4
 6325 1e30 220F      	1:	lsl r18
 6326 1e32 331F      		rol r19
 6327 1e34 BA95      		dec r27
 6328 1e36 01F4      		brne 1b
 6329 1e38 280F      		add r18,r24
 6330 1e3a 391F      		adc r19,r25
 6331 1e3c E20F      		add r30,r18
 6332 1e3e F31F      		adc r31,r19
 6333 1e40 DF01      		movw r26,r30
 6334 1e42 A65A      		subi r26,lo8(-(90))
 6335 1e44 BF4F      		sbci r27,hi8(-(90))
 6336 1e46 EA5A      		subi r30,lo8(-(86))
 6337 1e48 FF4F      		sbci r31,hi8(-(86))
 6338 1e4a 2081      		ld r18,Z
 6339 1e4c 3181      		ldd r19,Z+1
 6340 1e4e 4281      		ldd r20,Z+2
 6341 1e50 5381      		ldd r21,Z+3
 6342               	.LVL382:
 6343 1e52 8D91      		ld r24,X+
 6344 1e54 9D91      		ld r25,X+
 6345 1e56 0D90      		ld __tmp_reg__,X+
 6346 1e58 BC91      		ld r27,X
 6347 1e5a A02D      		mov r26,__tmp_reg__
 6348 1e5c 281B      		sub r18,r24
 6349 1e5e 390B      		sbc r19,r25
 6350 1e60 4A0B      		sbc r20,r26
 6351 1e62 5B0B      		sbc r21,r27
 6352 1e64 57FF      		sbrs r21,7
 6353 1e66 00C0      		rjmp .L296
 6354 1e68 20E0      		ldi r18,lo8(0)
 6355 1e6a 30E0      		ldi r19,hi8(0)
 6356 1e6c 40E0      		ldi r20,hlo8(0)
 6357 1e6e 50E0      		ldi r21,hhi8(0)
 6358               	.L296:
 6359               	.LM606:
 6360 1e70 B901      		movw r22,r18
 6361               	.LVL383:
 6362 1e72 CA01      		movw r24,r20
 6363               	/* epilogue start */
 6364 1e74 0895      		ret
 6365               	.LFE113:
 6367               	.global	Timebase_DownCounter_SS_Period_Value_Expired
 6369               	Timebase_DownCounter_SS_Period_Value_Expired:
 6370               	.LFB114:
 6371               	.LM607:
 6372               	.LVL384:
 6373 1e76 CF93      		push r28
 6374 1e78 DF93      		push r29
 6375               	/* prologue: function */
 6376               	/* frame size = 0 */
 6377               	.LBB918:
 6378               	.LBB919:
 6379               	.LBB920:
 6380               	.LBB921:
 6381               	.LM608:
 6382 1e7a C091 0000 		lds r28,Timebase
 6383 1e7e D091 0000 		lds r29,(Timebase)+1
 6384 1e82 682F      		mov r22,r24
 6385 1e84 70E0      		ldi r23,lo8(0)
 6386               	.LBE921:
 6387               	.LBE920:
 6388               	.LM609:
 6389 1e86 FB01      		movw r30,r22
 6390 1e88 44E0      		ldi r20,4
 6391 1e8a EE0F      	1:	lsl r30
 6392 1e8c FF1F      		rol r31
 6393 1e8e 4A95      		dec r20
 6394 1e90 01F4      		brne 1b
 6395 1e92 E60F      		add r30,r22
 6396 1e94 F71F      		adc r31,r23
 6397 1e96 EC0F      		add r30,r28
 6398 1e98 FD1F      		adc r31,r29
 6399 1e9a DF01      		movw r26,r30
 6400 1e9c A65A      		subi r26,lo8(-(90))
 6401 1e9e BF4F      		sbci r27,hi8(-(90))
 6402 1ea0 EA5A      		subi r30,lo8(-(86))
 6403 1ea2 FF4F      		sbci r31,hi8(-(86))
 6404 1ea4 2081      		ld r18,Z
 6405 1ea6 3181      		ldd r19,Z+1
 6406 1ea8 4281      		ldd r20,Z+2
 6407 1eaa 5381      		ldd r21,Z+3
 6408               	.LVL385:
 6409 1eac 8D91      		ld r24,X+
 6410 1eae 9D91      		ld r25,X+
 6411 1eb0 0D90      		ld __tmp_reg__,X+
 6412 1eb2 BC91      		ld r27,X
 6413 1eb4 A02D      		mov r26,__tmp_reg__
 6414               	.LVL386:
 6415 1eb6 281B      		sub r18,r24
 6416 1eb8 390B      		sbc r19,r25
 6417 1eba 4A0B      		sbc r20,r26
 6418 1ebc 5B0B      		sbc r21,r27
 6419               	.LM610:
 6420 1ebe 57FD      		sbrc r21,7
 6421 1ec0 00C0      		rjmp .L299
 6422               	.LBE919:
 6423               	.LBE918:
 6424               	.LM611:
 6425 1ec2 2115      		cp r18,__zero_reg__
 6426 1ec4 3105      		cpc r19,__zero_reg__
 6427 1ec6 4105      		cpc r20,__zero_reg__
 6428 1ec8 5105      		cpc r21,__zero_reg__
 6429 1eca 01F0      		breq .L299
 6430 1ecc 20E0      		ldi r18,lo8(0)
 6431               	.LVL387:
 6432 1ece 00C0      		rjmp .L300
 6433               	.LVL388:
 6434               	.L299:
 6435 1ed0 20E0      		ldi r18,lo8(0)
 6436               	.LVL389:
 6437 1ed2 CB01      		movw r24,r22
 6438 1ed4 34E0      		ldi r19,4
 6439 1ed6 880F      	1:	lsl r24
 6440 1ed8 991F      		rol r25
 6441 1eda 3A95      		dec r19
 6442 1edc 01F4      		brne 1b
 6443 1ede 860F      		add r24,r22
 6444 1ee0 971F      		adc r25,r23
 6445 1ee2 C80F      		add r28,r24
 6446 1ee4 D91F      		adc r29,r25
 6447 1ee6 C35B      		subi r28,lo8(-(77))
 6448 1ee8 DF4F      		sbci r29,hi8(-(77))
 6449 1eea 8881      		ld r24,Y
 6450 1eec 80FF      		sbrs r24,0
 6451 1eee 21E0      		ldi r18,lo8(1)
 6452               	.L301:
 6453 1ef0 81E0      		ldi r24,lo8(1)
 6454 1ef2 2827      		eor r18,r24
 6455               	.L300:
 6456               	.LM612:
 6457 1ef4 822F      		mov r24,r18
 6458               	/* epilogue start */
 6459 1ef6 DF91      		pop r29
 6460 1ef8 CF91      		pop r28
 6461 1efa 0895      		ret
 6462               	.LFE114:
 6464               	.global	Timebase_DownCounter_SS_Period_Value_Expired_Event
 6466               	Timebase_DownCounter_SS_Period_Value_Expired_Event:
 6467               	.LFB115:
 6468               	.LM613:
 6469               	.LVL390:
 6470 1efc 1F93      		push r17
 6471               	/* prologue: function */
 6472               	/* frame size = 0 */
 6473 1efe 182F      		mov r17,r24
 6474               	.LM614:
 6475 1f00 0E94 0000 		call Timebase_DownCounter_SS_Period_Value_Expired
 6476               	.LVL391:
 6477 1f04 8130      		cpi r24,lo8(1)
 6478 1f06 01F0      		breq .L304
 6479 1f08 80E0      		ldi r24,lo8(0)
 6480 1f0a 00C0      		rjmp .L305
 6481               	.L304:
 6482               	.LBB922:
 6483               	.LBB923:
 6484               	.LM615:
 6485 1f0c E091 0000 		lds r30,Timebase
 6486 1f10 F091 0000 		lds r31,(Timebase)+1
 6487 1f14 212F      		mov r18,r17
 6488 1f16 30E0      		ldi r19,lo8(0)
 6489               	.LVL392:
 6490 1f18 C901      		movw r24,r18
 6491 1f1a 54E0      		ldi r21,4
 6492 1f1c 880F      	1:	lsl r24
 6493 1f1e 991F      		rol r25
 6494 1f20 5A95      		dec r21
 6495 1f22 01F4      		brne 1b
 6496 1f24 820F      		add r24,r18
 6497 1f26 931F      		adc r25,r19
 6498 1f28 E80F      		add r30,r24
 6499 1f2a F91F      		adc r31,r25
 6500 1f2c E35B      		subi r30,lo8(-(77))
 6501 1f2e FF4F      		sbci r31,hi8(-(77))
 6502 1f30 8081      		ld r24,Z
 6503 1f32 8E7F      		andi r24,lo8(-2)
 6504 1f34 8083      		st Z,r24
 6505 1f36 81E0      		ldi r24,lo8(1)
 6506               	.L305:
 6507               	/* epilogue start */
 6508               	.LBE923:
 6509               	.LBE922:
 6510               	.LM616:
 6511 1f38 1F91      		pop r17
 6512               	.LVL393:
 6513 1f3a 0895      		ret
 6514               	.LFE115:
 6516               	.global	Timebase_DownCounter_SS_Update_All
 6518               	Timebase_DownCounter_SS_Update_All:
 6519               	.LFB116:
 6520               	.LM617:
 6521               	/* prologue: function */
 6522               	/* frame size = 0 */
 6523               	.LBB924:
 6524               	.LM618:
 6525 1f3c 80E0      		ldi r24,lo8(0)
 6526 1f3e 0E94 0000 		call Timebase_DownCounter_SS_Update
 6527               	/* epilogue start */
 6528               	.LBE924:
 6529               	.LM619:
 6530 1f42 0895      		ret
 6531               	.LFE116:
 6533               	.global	Timebase_DownCounter_SS_Reset_All
 6535               	Timebase_DownCounter_SS_Reset_All:
 6536               	.LFB117:
 6537               	.LM620:
 6538               	/* prologue: function */
 6539               	/* frame size = 0 */
 6540               	.LBB925:
 6541               	.LBB926:
 6542               	.LBB927:
 6543               	.LBB928:
 6544               	.LBB929:
 6545               	.LM621:
 6546 1f44 E091 0000 		lds r30,Timebase
 6547 1f48 F091 0000 		lds r31,(Timebase)+1
 6548 1f4c EE5A      		subi r30,lo8(-(82))
 6549 1f4e FF4F      		sbci r31,hi8(-(82))
 6550 1f50 1082      		st Z,__zero_reg__
 6551 1f52 1182      		std Z+1,__zero_reg__
 6552 1f54 1282      		std Z+2,__zero_reg__
 6553 1f56 1382      		std Z+3,__zero_reg__
 6554               	.LBE929:
 6555               	.LBE928:
 6556               	.LBB930:
 6557               	.LBB931:
 6558               	.LM622:
 6559 1f58 1292      		st -Z,__zero_reg__
 6560 1f5a 1292      		st -Z,__zero_reg__
 6561 1f5c 1292      		st -Z,__zero_reg__
 6562 1f5e 1292      		st -Z,__zero_reg__
 6563               	.LBE931:
 6564               	.LBE930:
 6565               	.LBB932:
 6566               	.LBB933:
 6567               	.LM623:
 6568 1f60 3896      		adiw r30,8
 6569 1f62 1082      		st Z,__zero_reg__
 6570 1f64 1182      		std Z+1,__zero_reg__
 6571 1f66 1282      		std Z+2,__zero_reg__
 6572 1f68 1382      		std Z+3,__zero_reg__
 6573               	.LBE933:
 6574               	.LBE932:
 6575               	.LBB934:
 6576               	.LBB935:
 6577               	.LM624:
 6578 1f6a 3997      		sbiw r30,9
 6579 1f6c 8081      		ld r24,Z
 6580               	.LBE935:
 6581               	.LBE934:
 6582               	.LBB936:
 6583               	.LBB937:
 6584               	.LM625:
 6585 1f6e 807E      		andi r24,lo8(-32)
 6586 1f70 8083      		st Z,r24
 6587               	/* epilogue start */
 6588               	.LBE937:
 6589               	.LBE936:
 6590               	.LBE927:
 6591               	.LBE926:
 6592               	.LBE925:
 6593               	.LM626:
 6594 1f72 0895      		ret
 6595               	.LFE117:
 6597               	.global	Timebase_DownCounter_Get_Status
 6599               	Timebase_DownCounter_Get_Status:
 6600               	.LFB118:
 6601               	.LM627:
 6602               	.LVL394:
 6603               	/* prologue: function */
 6604               	/* frame size = 0 */
 6605               	.LM628:
 6606 1f74 E091 0000 		lds r30,Timebase
 6607 1f78 F091 0000 		lds r31,(Timebase)+1
 6608 1f7c 90E0      		ldi r25,lo8(0)
 6609               	.LVL395:
 6610 1f7e 2DE0      		ldi r18,lo8(13)
 6611 1f80 30E0      		ldi r19,hi8(13)
 6612 1f82 AC01      		movw r20,r24
 6613 1f84 429F      		mul r20,r18
 6614 1f86 C001      		movw r24,r0
 6615 1f88 439F      		mul r20,r19
 6616 1f8a 900D      		add r25,r0
 6617 1f8c 529F      		mul r21,r18
 6618 1f8e 900D      		add r25,r0
 6619 1f90 1124      		clr r1
 6620               	.LVL396:
 6621 1f92 E80F      		add r30,r24
 6622 1f94 F91F      		adc r31,r25
 6623 1f96 E25A      		subi r30,lo8(-(94))
 6624 1f98 FF4F      		sbci r31,hi8(-(94))
 6625 1f9a 8081      		ld r24,Z
 6626 1f9c 8695      		lsr r24
 6627               	.LM629:
 6628 1f9e 8F70      		andi r24,lo8(15)
 6629               	/* epilogue start */
 6630 1fa0 0895      		ret
 6631               	.LFE118:
 6633               	.global	Timebase_DownCounter_Set_Status
 6635               	Timebase_DownCounter_Set_Status:
 6636               	.LFB119:
 6637               	.LM630:
 6638               	.LVL397:
 6639               	/* prologue: function */
 6640               	/* frame size = 0 */
 6641               	.LM631:
 6642 1fa2 E091 0000 		lds r30,Timebase
 6643 1fa6 F091 0000 		lds r31,(Timebase)+1
 6644 1faa 90E0      		ldi r25,lo8(0)
 6645               	.LVL398:
 6646 1fac 2DE0      		ldi r18,lo8(13)
 6647 1fae 30E0      		ldi r19,hi8(13)
 6648 1fb0 AC01      		movw r20,r24
 6649 1fb2 429F      		mul r20,r18
 6650 1fb4 C001      		movw r24,r0
 6651 1fb6 439F      		mul r20,r19
 6652 1fb8 900D      		add r25,r0
 6653 1fba 529F      		mul r21,r18
 6654 1fbc 900D      		add r25,r0
 6655 1fbe 1124      		clr r1
 6656               	.LVL399:
 6657 1fc0 E80F      		add r30,r24
 6658 1fc2 F91F      		adc r31,r25
 6659 1fc4 E25A      		subi r30,lo8(-(94))
 6660 1fc6 FF4F      		sbci r31,hi8(-(94))
 6661 1fc8 6F70      		andi r22,lo8(15)
 6662               	.LVL400:
 6663 1fca 660F      		lsl r22
 6664 1fcc 8081      		ld r24,Z
 6665 1fce 817E      		andi r24,lo8(-31)
 6666 1fd0 862B      		or r24,r22
 6667 1fd2 8083      		st Z,r24
 6668               	/* epilogue start */
 6669               	.LM632:
 6670 1fd4 0895      		ret
 6671               	.LFE119:
 6673               	.global	Timebase_DownCounter_Get_Value
 6675               	Timebase_DownCounter_Get_Value:
 6676               	.LFB120:
 6677               	.LM633:
 6678               	.LVL401:
 6679               	/* prologue: function */
 6680               	/* frame size = 0 */
 6681               	.LM634:
 6682 1fd6 E091 0000 		lds r30,Timebase
 6683 1fda F091 0000 		lds r31,(Timebase)+1
 6684 1fde 90E0      		ldi r25,lo8(0)
 6685               	.LVL402:
 6686 1fe0 2DE0      		ldi r18,lo8(13)
 6687 1fe2 30E0      		ldi r19,hi8(13)
 6688 1fe4 AC01      		movw r20,r24
 6689 1fe6 429F      		mul r20,r18
 6690 1fe8 C001      		movw r24,r0
 6691 1fea 439F      		mul r20,r19
 6692 1fec 900D      		add r25,r0
 6693 1fee 529F      		mul r21,r18
 6694 1ff0 900D      		add r25,r0
 6695 1ff2 1124      		clr r1
 6696               	.LVL403:
 6697 1ff4 E80F      		add r30,r24
 6698 1ff6 F91F      		adc r31,r25
 6699 1ff8 ED59      		subi r30,lo8(-(99))
 6700 1ffa FF4F      		sbci r31,hi8(-(99))
 6701 1ffc 6081      		ld r22,Z
 6702 1ffe 7181      		ldd r23,Z+1
 6703               	.LM635:
 6704 2000 8281      		ldd r24,Z+2
 6705 2002 9381      		ldd r25,Z+3
 6706               	.LVL404:
 6707               	/* epilogue start */
 6708 2004 0895      		ret
 6709               	.LFE120:
 6711               	.global	Timebase_DownCounter_Set_Value
 6713               	Timebase_DownCounter_Set_Value:
 6714               	.LFB121:
 6715               	.LM636:
 6716               	.LVL405:
 6717               	/* prologue: function */
 6718               	/* frame size = 0 */
 6719               	.LM637:
 6720 2006 E091 0000 		lds r30,Timebase
 6721 200a F091 0000 		lds r31,(Timebase)+1
 6722 200e 90E0      		ldi r25,lo8(0)
 6723               	.LVL406:
 6724 2010 2DE0      		ldi r18,lo8(13)
 6725 2012 30E0      		ldi r19,hi8(13)
 6726 2014 DC01      		movw r26,r24
 6727 2016 A29F      		mul r26,r18
 6728 2018 C001      		movw r24,r0
 6729 201a A39F      		mul r26,r19
 6730 201c 900D      		add r25,r0
 6731 201e B29F      		mul r27,r18
 6732 2020 900D      		add r25,r0
 6733 2022 1124      		clr r1
 6734               	.LVL407:
 6735 2024 E80F      		add r30,r24
 6736 2026 F91F      		adc r31,r25
 6737 2028 ED59      		subi r30,lo8(-(99))
 6738 202a FF4F      		sbci r31,hi8(-(99))
 6739 202c 4083      		st Z,r20
 6740 202e 5183      		std Z+1,r21
 6741 2030 6283      		std Z+2,r22
 6742 2032 7383      		std Z+3,r23
 6743               	/* epilogue start */
 6744               	.LM638:
 6745 2034 0895      		ret
 6746               	.LFE121:
 6748               	.global	Timebase_DownCounter_Get_EndValue
 6750               	Timebase_DownCounter_Get_EndValue:
 6751               	.LFB122:
 6752               	.LM639:
 6753               	.LVL408:
 6754               	/* prologue: function */
 6755               	/* frame size = 0 */
 6756               	.LM640:
 6757 2036 E091 0000 		lds r30,Timebase
 6758 203a F091 0000 		lds r31,(Timebase)+1
 6759 203e 90E0      		ldi r25,lo8(0)
 6760               	.LVL409:
 6761 2040 2DE0      		ldi r18,lo8(13)
 6762 2042 30E0      		ldi r19,hi8(13)
 6763 2044 AC01      		movw r20,r24
 6764 2046 429F      		mul r20,r18
 6765 2048 C001      		movw r24,r0
 6766 204a 439F      		mul r20,r19
 6767 204c 900D      		add r25,r0
 6768 204e 529F      		mul r21,r18
 6769 2050 900D      		add r25,r0
 6770 2052 1124      		clr r1
 6771               	.LVL410:
 6772 2054 E80F      		add r30,r24
 6773 2056 F91F      		adc r31,r25
 6774 2058 E15A      		subi r30,lo8(-(95))
 6775 205a FF4F      		sbci r31,hi8(-(95))
 6776 205c 6081      		ld r22,Z
 6777 205e 7181      		ldd r23,Z+1
 6778               	.LM641:
 6779 2060 8281      		ldd r24,Z+2
 6780 2062 9381      		ldd r25,Z+3
 6781               	.LVL411:
 6782               	/* epilogue start */
 6783 2064 0895      		ret
 6784               	.LFE122:
 6786               	.global	Timebase_DownCounter_Set_EndValue
 6788               	Timebase_DownCounter_Set_EndValue:
 6789               	.LFB123:
 6790               	.LM642:
 6791               	.LVL412:
 6792               	/* prologue: function */
 6793               	/* frame size = 0 */
 6794               	.LM643:
 6795 2066 E091 0000 		lds r30,Timebase
 6796 206a F091 0000 		lds r31,(Timebase)+1
 6797 206e 90E0      		ldi r25,lo8(0)
 6798               	.LVL413:
 6799 2070 2DE0      		ldi r18,lo8(13)
 6800 2072 30E0      		ldi r19,hi8(13)
 6801 2074 DC01      		movw r26,r24
 6802 2076 A29F      		mul r26,r18
 6803 2078 C001      		movw r24,r0
 6804 207a A39F      		mul r26,r19
 6805 207c 900D      		add r25,r0
 6806 207e B29F      		mul r27,r18
 6807 2080 900D      		add r25,r0
 6808 2082 1124      		clr r1
 6809               	.LVL414:
 6810 2084 E80F      		add r30,r24
 6811 2086 F91F      		adc r31,r25
 6812 2088 E15A      		subi r30,lo8(-(95))
 6813 208a FF4F      		sbci r31,hi8(-(95))
 6814 208c 4083      		st Z,r20
 6815 208e 5183      		std Z+1,r21
 6816 2090 6283      		std Z+2,r22
 6817 2092 7383      		std Z+3,r23
 6818               	/* epilogue start */
 6819               	.LM644:
 6820 2094 0895      		ret
 6821               	.LFE123:
 6823               	.global	Timebase_DownCounter_Get_PeriodValue
 6825               	Timebase_DownCounter_Get_PeriodValue:
 6826               	.LFB124:
 6827               	.LM645:
 6828               	.LVL415:
 6829               	/* prologue: function */
 6830               	/* frame size = 0 */
 6831               	.LM646:
 6832 2096 E091 0000 		lds r30,Timebase
 6833 209a F091 0000 		lds r31,(Timebase)+1
 6834 209e 90E0      		ldi r25,lo8(0)
 6835               	.LVL416:
 6836 20a0 2DE0      		ldi r18,lo8(13)
 6837 20a2 30E0      		ldi r19,hi8(13)
 6838 20a4 AC01      		movw r20,r24
 6839 20a6 429F      		mul r20,r18
 6840 20a8 C001      		movw r24,r0
 6841 20aa 439F      		mul r20,r19
 6842 20ac 900D      		add r25,r0
 6843 20ae 529F      		mul r21,r18
 6844 20b0 900D      		add r25,r0
 6845 20b2 1124      		clr r1
 6846               	.LVL417:
 6847 20b4 E80F      		add r30,r24
 6848 20b6 F91F      		adc r31,r25
 6849 20b8 E959      		subi r30,lo8(-(103))
 6850 20ba FF4F      		sbci r31,hi8(-(103))
 6851 20bc 6081      		ld r22,Z
 6852 20be 7181      		ldd r23,Z+1
 6853               	.LM647:
 6854 20c0 8281      		ldd r24,Z+2
 6855 20c2 9381      		ldd r25,Z+3
 6856               	.LVL418:
 6857               	/* epilogue start */
 6858 20c4 0895      		ret
 6859               	.LFE124:
 6861               	.global	Timebase_DownCounter_Set_PeriodValue
 6863               	Timebase_DownCounter_Set_PeriodValue:
 6864               	.LFB125:
 6865               	.LM648:
 6866               	.LVL419:
 6867               	/* prologue: function */
 6868               	/* frame size = 0 */
 6869 20c6 E091 0000 		lds r30,Timebase
 6870 20ca F091 0000 		lds r31,(Timebase)+1
 6871 20ce 282F      		mov r18,r24
 6872 20d0 30E0      		ldi r19,lo8(0)
 6873               	.LVL420:
 6874               	.LM649:
 6875 20d2 77FF      		sbrs r23,7
 6876 20d4 00C0      		rjmp .L326
 6877               	.LVL421:
 6878               	.LM650:
 6879 20d6 8DE0      		ldi r24,lo8(13)
 6880 20d8 90E0      		ldi r25,hi8(13)
 6881 20da AC01      		movw r20,r24
 6882               	.LVL422:
 6883 20dc 249F      		mul r18,r20
 6884 20de C001      		movw r24,r0
 6885 20e0 259F      		mul r18,r21
 6886 20e2 900D      		add r25,r0
 6887 20e4 349F      		mul r19,r20
 6888 20e6 900D      		add r25,r0
 6889 20e8 1124      		clr r1
 6890 20ea E80F      		add r30,r24
 6891 20ec F91F      		adc r31,r25
 6892 20ee E959      		subi r30,lo8(-(103))
 6893 20f0 FF4F      		sbci r31,hi8(-(103))
 6894 20f2 1082      		st Z,__zero_reg__
 6895 20f4 1182      		std Z+1,__zero_reg__
 6896 20f6 1282      		std Z+2,__zero_reg__
 6897 20f8 1382      		std Z+3,__zero_reg__
 6898 20fa 0895      		ret
 6899               	.LVL423:
 6900               	.L326:
 6901               	.LM651:
 6902 20fc 8DE0      		ldi r24,lo8(13)
 6903 20fe 90E0      		ldi r25,hi8(13)
 6904 2100 DC01      		movw r26,r24
 6905 2102 2A9F      		mul r18,r26
 6906 2104 C001      		movw r24,r0
 6907 2106 2B9F      		mul r18,r27
 6908 2108 900D      		add r25,r0
 6909 210a 3A9F      		mul r19,r26
 6910 210c 900D      		add r25,r0
 6911 210e 1124      		clr r1
 6912 2110 E80F      		add r30,r24
 6913 2112 F91F      		adc r31,r25
 6914 2114 E959      		subi r30,lo8(-(103))
 6915 2116 FF4F      		sbci r31,hi8(-(103))
 6916 2118 4083      		st Z,r20
 6917 211a 5183      		std Z+1,r21
 6918 211c 6283      		std Z+2,r22
 6919 211e 7383      		std Z+3,r23
 6920 2120 0895      		ret
 6921               	.LFE125:
 6923               	.global	Timebase_DownCounter_Get_Period_Flag
 6925               	Timebase_DownCounter_Get_Period_Flag:
 6926               	.LFB126:
 6927               	.LM652:
 6928               	.LVL424:
 6929               	/* prologue: function */
 6930               	/* frame size = 0 */
 6931               	.LM653:
 6932 2122 E091 0000 		lds r30,Timebase
 6933 2126 F091 0000 		lds r31,(Timebase)+1
 6934 212a 90E0      		ldi r25,lo8(0)
 6935               	.LVL425:
 6936 212c 2DE0      		ldi r18,lo8(13)
 6937 212e 30E0      		ldi r19,hi8(13)
 6938 2130 AC01      		movw r20,r24
 6939 2132 429F      		mul r20,r18
 6940 2134 C001      		movw r24,r0
 6941 2136 439F      		mul r20,r19
 6942 2138 900D      		add r25,r0
 6943 213a 529F      		mul r21,r18
 6944 213c 900D      		add r25,r0
 6945 213e 1124      		clr r1
 6946               	.LVL426:
 6947 2140 E80F      		add r30,r24
 6948 2142 F91F      		adc r31,r25
 6949 2144 E25A      		subi r30,lo8(-(94))
 6950 2146 FF4F      		sbci r31,hi8(-(94))
 6951 2148 8081      		ld r24,Z
 6952               	.LM654:
 6953 214a 8170      		andi r24,lo8(1)
 6954               	/* epilogue start */
 6955 214c 0895      		ret
 6956               	.LFE126:
 6958               	.global	Timebase_DownCounter_Set_Period_Flag
 6960               	Timebase_DownCounter_Set_Period_Flag:
 6961               	.LFB127:
 6962               	.LM655:
 6963               	.LVL427:
 6964               	/* prologue: function */
 6965               	/* frame size = 0 */
 6966               	.LM656:
 6967 214e E091 0000 		lds r30,Timebase
 6968 2152 F091 0000 		lds r31,(Timebase)+1
 6969 2156 90E0      		ldi r25,lo8(0)
 6970               	.LVL428:
 6971 2158 2DE0      		ldi r18,lo8(13)
 6972 215a 30E0      		ldi r19,hi8(13)
 6973 215c AC01      		movw r20,r24
 6974 215e 429F      		mul r20,r18
 6975 2160 C001      		movw r24,r0
 6976 2162 439F      		mul r20,r19
 6977 2164 900D      		add r25,r0
 6978 2166 529F      		mul r21,r18
 6979 2168 900D      		add r25,r0
 6980 216a 1124      		clr r1
 6981               	.LVL429:
 6982 216c E80F      		add r30,r24
 6983 216e F91F      		adc r31,r25
 6984 2170 E25A      		subi r30,lo8(-(94))
 6985 2172 FF4F      		sbci r31,hi8(-(94))
 6986 2174 8081      		ld r24,Z
 6987 2176 8160      		ori r24,lo8(1)
 6988 2178 8083      		st Z,r24
 6989               	/* epilogue start */
 6990               	.LM657:
 6991 217a 0895      		ret
 6992               	.LFE127:
 6994               	.global	Timebase_DownCounter_Clear_Period_Flag
 6996               	Timebase_DownCounter_Clear_Period_Flag:
 6997               	.LFB128:
 6998               	.LM658:
 6999               	.LVL430:
 7000               	/* prologue: function */
 7001               	/* frame size = 0 */
 7002               	.LM659:
 7003 217c E091 0000 		lds r30,Timebase
 7004 2180 F091 0000 		lds r31,(Timebase)+1
 7005 2184 90E0      		ldi r25,lo8(0)
 7006               	.LVL431:
 7007 2186 2DE0      		ldi r18,lo8(13)
 7008 2188 30E0      		ldi r19,hi8(13)
 7009 218a AC01      		movw r20,r24
 7010 218c 429F      		mul r20,r18
 7011 218e C001      		movw r24,r0
 7012 2190 439F      		mul r20,r19
 7013 2192 900D      		add r25,r0
 7014 2194 529F      		mul r21,r18
 7015 2196 900D      		add r25,r0
 7016 2198 1124      		clr r1
 7017               	.LVL432:
 7018 219a E80F      		add r30,r24
 7019 219c F91F      		adc r31,r25
 7020 219e E25A      		subi r30,lo8(-(94))
 7021 21a0 FF4F      		sbci r31,hi8(-(94))
 7022 21a2 8081      		ld r24,Z
 7023 21a4 8E7F      		andi r24,lo8(-2)
 7024 21a6 8083      		st Z,r24
 7025               	/* epilogue start */
 7026               	.LM660:
 7027 21a8 0895      		ret
 7028               	.LFE128:
 7030               	.global	Timebase_DownCounter_Reset
 7032               	Timebase_DownCounter_Reset:
 7033               	.LFB129:
 7034               	.LM661:
 7035               	.LVL433:
 7036               	/* prologue: function */
 7037               	/* frame size = 0 */
 7038               	.LBB938:
 7039               	.LBB939:
 7040               	.LM662:
 7041 21aa E091 0000 		lds r30,Timebase
 7042 21ae F091 0000 		lds r31,(Timebase)+1
 7043 21b2 90E0      		ldi r25,lo8(0)
 7044 21b4 2DE0      		ldi r18,lo8(13)
 7045 21b6 30E0      		ldi r19,hi8(13)
 7046 21b8 AC01      		movw r20,r24
 7047               	.LVL434:
 7048 21ba 429F      		mul r20,r18
 7049 21bc C001      		movw r24,r0
 7050 21be 439F      		mul r20,r19
 7051 21c0 900D      		add r25,r0
 7052 21c2 529F      		mul r21,r18
 7053 21c4 900D      		add r25,r0
 7054 21c6 1124      		clr r1
 7055 21c8 E80F      		add r30,r24
 7056 21ca F91F      		adc r31,r25
 7057 21cc E15A      		subi r30,lo8(-(95))
 7058 21ce FF4F      		sbci r31,hi8(-(95))
 7059 21d0 1192      		st Z+,__zero_reg__
 7060 21d2 1192      		st Z+,__zero_reg__
 7061 21d4 1192      		st Z+,__zero_reg__
 7062 21d6 1192      		st Z+,__zero_reg__
 7063               	.LBE939:
 7064               	.LBE938:
 7065               	.LBB940:
 7066               	.LBB941:
 7067               	.LM663:
 7068 21d8 1082      		st Z,__zero_reg__
 7069 21da 1182      		std Z+1,__zero_reg__
 7070 21dc 1282      		std Z+2,__zero_reg__
 7071 21de 1382      		std Z+3,__zero_reg__
 7072               	.LBE941:
 7073               	.LBE940:
 7074               	.LBB942:
 7075               	.LBB943:
 7076               	.LM664:
 7077 21e0 3597      		sbiw r30,5
 7078 21e2 8081      		ld r24,Z
 7079               	.LBE943:
 7080               	.LBE942:
 7081               	.LBB944:
 7082               	.LBB945:
 7083               	.LM665:
 7084 21e4 807E      		andi r24,lo8(-32)
 7085 21e6 8083      		st Z,r24
 7086               	/* epilogue start */
 7087               	.LBE945:
 7088               	.LBE944:
 7089               	.LM666:
 7090 21e8 0895      		ret
 7091               	.LFE129:
 7093               	.global	Timebase_DownCounter_Clear_All_Flags
 7095               	Timebase_DownCounter_Clear_All_Flags:
 7096               	.LFB130:
 7097               	.LM667:
 7098               	.LVL435:
 7099               	/* prologue: function */
 7100               	/* frame size = 0 */
 7101               	.LBB946:
 7102               	.LBB947:
 7103               	.LBB948:
 7104               	.LBB949:
 7105               	.LM668:
 7106 21ea E091 0000 		lds r30,Timebase
 7107 21ee F091 0000 		lds r31,(Timebase)+1
 7108 21f2 90E0      		ldi r25,lo8(0)
 7109 21f4 2DE0      		ldi r18,lo8(13)
 7110 21f6 30E0      		ldi r19,hi8(13)
 7111 21f8 AC01      		movw r20,r24
 7112               	.LVL436:
 7113 21fa 429F      		mul r20,r18
 7114 21fc C001      		movw r24,r0
 7115 21fe 439F      		mul r20,r19
 7116 2200 900D      		add r25,r0
 7117 2202 529F      		mul r21,r18
 7118 2204 900D      		add r25,r0
 7119 2206 1124      		clr r1
 7120 2208 E80F      		add r30,r24
 7121 220a F91F      		adc r31,r25
 7122 220c E15A      		subi r30,lo8(-(95))
 7123 220e FF4F      		sbci r31,hi8(-(95))
 7124 2210 1192      		st Z+,__zero_reg__
 7125 2212 1192      		st Z+,__zero_reg__
 7126 2214 1192      		st Z+,__zero_reg__
 7127 2216 1192      		st Z+,__zero_reg__
 7128               	.LBE949:
 7129               	.LBE948:
 7130               	.LBB950:
 7131               	.LBB951:
 7132               	.LM669:
 7133 2218 1082      		st Z,__zero_reg__
 7134 221a 1182      		std Z+1,__zero_reg__
 7135 221c 1282      		std Z+2,__zero_reg__
 7136 221e 1382      		std Z+3,__zero_reg__
 7137               	.LBE951:
 7138               	.LBE950:
 7139               	.LBB952:
 7140               	.LBB953:
 7141               	.LM670:
 7142 2220 3597      		sbiw r30,5
 7143 2222 8081      		ld r24,Z
 7144               	.LBE953:
 7145               	.LBE952:
 7146               	.LBB954:
 7147               	.LBB955:
 7148               	.LM671:
 7149 2224 807E      		andi r24,lo8(-32)
 7150 2226 8083      		st Z,r24
 7151               	/* epilogue start */
 7152               	.LBE955:
 7153               	.LBE954:
 7154               	.LBE947:
 7155               	.LBE946:
 7156               	.LM672:
 7157 2228 0895      		ret
 7158               	.LFE130:
 7160               	.global	Timebase_DownCounter_Start
 7162               	Timebase_DownCounter_Start:
 7163               	.LFB131:
 7164               	.LM673:
 7165               	.LVL437:
 7166               	/* prologue: function */
 7167               	/* frame size = 0 */
 7168               	.LBB956:
 7169               	.LBB957:
 7170               	.LM674:
 7171 222a E091 0000 		lds r30,Timebase
 7172 222e F091 0000 		lds r31,(Timebase)+1
 7173 2232 90E0      		ldi r25,lo8(0)
 7174               	.LBE957:
 7175               	.LBE956:
 7176               	.LM675:
 7177 2234 2DE0      		ldi r18,lo8(13)
 7178 2236 30E0      		ldi r19,hi8(13)
 7179 2238 AC01      		movw r20,r24
 7180               	.LVL438:
 7181 223a 429F      		mul r20,r18
 7182 223c C001      		movw r24,r0
 7183 223e 439F      		mul r20,r19
 7184 2240 900D      		add r25,r0
 7185 2242 529F      		mul r21,r18
 7186 2244 900D      		add r25,r0
 7187 2246 1124      		clr r1
 7188 2248 E80F      		add r30,r24
 7189 224a F91F      		adc r31,r25
 7190 224c E25A      		subi r30,lo8(-(94))
 7191 224e FF4F      		sbci r31,hi8(-(94))
 7192 2250 9081      		ld r25,Z
 7193 2252 892F      		mov r24,r25
 7194 2254 8695      		lsr r24
 7195 2256 8F70      		andi r24,lo8(15)
 7196 2258 8130      		cpi r24,lo8(1)
 7197 225a 01F0      		breq .L341
 7198               	.LBB958:
 7199               	.LBB959:
 7200               	.LM676:
 7201 225c 917E      		andi r25,lo8(-31)
 7202 225e 9260      		ori r25,lo8(2)
 7203 2260 9083      		st Z,r25
 7204               	.L341:
 7205 2262 0895      		ret
 7206               	.LBE959:
 7207               	.LBE958:
 7208               	.LFE131:
 7210               	.global	Timebase_DownCounter_Stop
 7212               	Timebase_DownCounter_Stop:
 7213               	.LFB132:
 7214               	.LM677:
 7215               	.LVL439:
 7216               	/* prologue: function */
 7217               	/* frame size = 0 */
 7218               	.LBB960:
 7219               	.LBB961:
 7220               	.LM678:
 7221 2264 E091 0000 		lds r30,Timebase
 7222 2268 F091 0000 		lds r31,(Timebase)+1
 7223 226c 90E0      		ldi r25,lo8(0)
 7224               	.LBE961:
 7225               	.LBE960:
 7226               	.LM679:
 7227 226e 2DE0      		ldi r18,lo8(13)
 7228 2270 30E0      		ldi r19,hi8(13)
 7229 2272 AC01      		movw r20,r24
 7230               	.LVL440:
 7231 2274 429F      		mul r20,r18
 7232 2276 C001      		movw r24,r0
 7233 2278 439F      		mul r20,r19
 7234 227a 900D      		add r25,r0
 7235 227c 529F      		mul r21,r18
 7236 227e 900D      		add r25,r0
 7237 2280 1124      		clr r1
 7238 2282 E80F      		add r30,r24
 7239 2284 F91F      		adc r31,r25
 7240 2286 E25A      		subi r30,lo8(-(94))
 7241 2288 FF4F      		sbci r31,hi8(-(94))
 7242 228a 9081      		ld r25,Z
 7243 228c 892F      		mov r24,r25
 7244 228e 8695      		lsr r24
 7245 2290 8F70      		andi r24,lo8(15)
 7246 2292 8230      		cpi r24,lo8(2)
 7247 2294 01F0      		breq .L344
 7248               	.LBB962:
 7249               	.LBB963:
 7250               	.LM680:
 7251 2296 917E      		andi r25,lo8(-31)
 7252 2298 9460      		ori r25,lo8(4)
 7253 229a 9083      		st Z,r25
 7254               	.L344:
 7255 229c 0895      		ret
 7256               	.LBE963:
 7257               	.LBE962:
 7258               	.LFE132:
 7260               	.global	Timebase_DownCounter_Set_Securely
 7262               	Timebase_DownCounter_Set_Securely:
 7263               	.LFB133:
 7264               	.LM681:
 7265               	.LVL441:
 7266 229e CF93      		push r28
 7267 22a0 DF93      		push r29
 7268               	/* prologue: function */
 7269               	/* frame size = 0 */
 7270               	.LBB964:
 7271               	.LBB965:
 7272               	.LM682:
 7273 22a2 A091 0000 		lds r26,Timebase
 7274 22a6 B091 0000 		lds r27,(Timebase)+1
 7275 22aa 90E0      		ldi r25,lo8(0)
 7276               	.LBE965:
 7277               	.LBE964:
 7278               	.LM683:
 7279 22ac 2DE0      		ldi r18,lo8(13)
 7280 22ae 30E0      		ldi r19,hi8(13)
 7281 22b0 829F      		mul r24,r18
 7282 22b2 F001      		movw r30,r0
 7283 22b4 839F      		mul r24,r19
 7284 22b6 F00D      		add r31,r0
 7285 22b8 929F      		mul r25,r18
 7286 22ba F00D      		add r31,r0
 7287 22bc 1124      		clr r1
 7288               	.LVL442:
 7289 22be EA0F      		add r30,r26
 7290 22c0 FB1F      		adc r31,r27
 7291 22c2 EF01      		movw r28,r30
 7292 22c4 C25A      		subi r28,lo8(-(94))
 7293 22c6 DF4F      		sbci r29,hi8(-(94))
 7294 22c8 8881      		ld r24,Y
 7295 22ca 8695      		lsr r24
 7296 22cc 8F70      		andi r24,lo8(15)
 7297 22ce 01F4      		brne .L347
 7298               	.LBB966:
 7299               	.LBB967:
 7300               	.LM684:
 7301 22d0 ED59      		subi r30,lo8(-(99))
 7302 22d2 FF4F      		sbci r31,hi8(-(99))
 7303 22d4 4083      		st Z,r20
 7304 22d6 5183      		std Z+1,r21
 7305 22d8 6283      		std Z+2,r22
 7306 22da 7383      		std Z+3,r23
 7307               	.LBE967:
 7308               	.LBE966:
 7309               	.LBB968:
 7310               	.LBB969:
 7311               	.LM685:
 7312 22dc 1A96      		adiw r26,10
 7313 22de 8D91      		ld r24,X+
 7314 22e0 9D91      		ld r25,X+
 7315 22e2 0D90      		ld __tmp_reg__,X+
 7316 22e4 BC91      		ld r27,X
 7317 22e6 A02D      		mov r26,__tmp_reg__
 7318               	.LBE969:
 7319               	.LBE968:
 7320               	.LBB970:
 7321               	.LBB971:
 7322               	.LM686:
 7323 22e8 840F      		add r24,r20
 7324 22ea 951F      		adc r25,r21
 7325 22ec A61F      		adc r26,r22
 7326 22ee B71F      		adc r27,r23
 7327 22f0 B293      		st -Z,r27
 7328 22f2 A293      		st -Z,r26
 7329 22f4 9293      		st -Z,r25
 7330 22f6 8293      		st -Z,r24
 7331               	.LBE971:
 7332               	.LBE970:
 7333               	.LBB972:
 7334               	.LBB973:
 7335               	.LM687:
 7336 22f8 9881      		ld r25,Y
 7337 22fa 892F      		mov r24,r25
 7338 22fc 8695      		lsr r24
 7339 22fe 8F70      		andi r24,lo8(15)
 7340 2300 8130      		cpi r24,lo8(1)
 7341 2302 01F0      		breq .L347
 7342               	.LBB974:
 7343               	.LBB975:
 7344               	.LM688:
 7345 2304 917E      		andi r25,lo8(-31)
 7346 2306 9260      		ori r25,lo8(2)
 7347 2308 9883      		st Y,r25
 7348               	.L347:
 7349               	/* epilogue start */
 7350               	.LBE975:
 7351               	.LBE974:
 7352               	.LBE973:
 7353               	.LBE972:
 7354               	.LM689:
 7355 230a DF91      		pop r29
 7356 230c CF91      		pop r28
 7357 230e 0895      		ret
 7358               	.LFE133:
 7360               	.global	Timebase_DownCounter_Set_Forcefully
 7362               	Timebase_DownCounter_Set_Forcefully:
 7363               	.LFB134:
 7364               	.LM690:
 7365               	.LVL443:
 7366 2310 CF93      		push r28
 7367 2312 DF93      		push r29
 7368               	/* prologue: function */
 7369               	/* frame size = 0 */
 7370               	.LBB976:
 7371               	.LBB977:
 7372               	.LBB978:
 7373               	.LBB979:
 7374               	.LM691:
 7375 2314 E091 0000 		lds r30,Timebase
 7376 2318 F091 0000 		lds r31,(Timebase)+1
 7377 231c A82F      		mov r26,r24
 7378 231e B0E0      		ldi r27,lo8(0)
 7379 2320 2DE0      		ldi r18,lo8(13)
 7380 2322 30E0      		ldi r19,hi8(13)
 7381 2324 E901      		movw r28,r18
 7382 2326 AC9F      		mul r26,r28
 7383 2328 9001      		movw r18,r0
 7384 232a AD9F      		mul r26,r29
 7385 232c 300D      		add r19,r0
 7386 232e BC9F      		mul r27,r28
 7387 2330 300D      		add r19,r0
 7388 2332 1124      		clr r1
 7389 2334 E20F      		add r30,r18
 7390 2336 F31F      		adc r31,r19
 7391 2338 E15A      		subi r30,lo8(-(95))
 7392 233a FF4F      		sbci r31,hi8(-(95))
 7393 233c 1192      		st Z+,__zero_reg__
 7394 233e 1192      		st Z+,__zero_reg__
 7395 2340 1192      		st Z+,__zero_reg__
 7396 2342 1192      		st Z+,__zero_reg__
 7397               	.LBE979:
 7398               	.LBE978:
 7399               	.LBB980:
 7400               	.LBB981:
 7401               	.LM692:
 7402 2344 1082      		st Z,__zero_reg__
 7403 2346 1182      		std Z+1,__zero_reg__
 7404 2348 1282      		std Z+2,__zero_reg__
 7405 234a 1382      		std Z+3,__zero_reg__
 7406               	.LBE981:
 7407               	.LBE980:
 7408               	.LBB982:
 7409               	.LBB983:
 7410               	.LM693:
 7411 234c 3597      		sbiw r30,5
 7412 234e 9081      		ld r25,Z
 7413               	.LBE983:
 7414               	.LBE982:
 7415               	.LBB984:
 7416               	.LBB985:
 7417               	.LM694:
 7418 2350 907E      		andi r25,lo8(-32)
 7419 2352 9083      		st Z,r25
 7420               	.LBE985:
 7421               	.LBE984:
 7422               	.LBE977:
 7423               	.LBE976:
 7424               	.LM695:
 7425 2354 0E94 0000 		call Timebase_DownCounter_Set_Securely
 7426               	.LVL444:
 7427               	/* epilogue start */
 7428               	.LM696:
 7429 2358 DF91      		pop r29
 7430 235a CF91      		pop r28
 7431 235c 0895      		ret
 7432               	.LFE134:
 7434               	.global	Timebase_DownCounter_Update
 7436               	Timebase_DownCounter_Update:
 7437               	.LFB135:
 7438               	.LM697:
 7439               	.LVL445:
 7440 235e 0F93      		push r16
 7441 2360 1F93      		push r17
 7442 2362 CF93      		push r28
 7443 2364 DF93      		push r29
 7444               	/* prologue: function */
 7445               	/* frame size = 0 */
 7446               	.LBB986:
 7447               	.LBB987:
 7448               	.LM698:
 7449 2366 A091 0000 		lds r26,Timebase
 7450 236a B091 0000 		lds r27,(Timebase)+1
 7451 236e 90E0      		ldi r25,lo8(0)
 7452 2370 2DE0      		ldi r18,lo8(13)
 7453 2372 30E0      		ldi r19,hi8(13)
 7454 2374 829F      		mul r24,r18
 7455 2376 F001      		movw r30,r0
 7456 2378 839F      		mul r24,r19
 7457 237a F00D      		add r31,r0
 7458 237c 929F      		mul r25,r18
 7459 237e F00D      		add r31,r0
 7460 2380 1124      		clr r1
 7461               	.LVL446:
 7462 2382 EA0F      		add r30,r26
 7463 2384 FB1F      		adc r31,r27
 7464 2386 8F01      		movw r16,r30
 7465 2388 025A      		subi r16,lo8(-(94))
 7466 238a 1F4F      		sbci r17,hi8(-(94))
 7467 238c E801      		movw r28,r16
 7468 238e 8881      		ld r24,Y
 7469 2390 8695      		lsr r24
 7470 2392 8F70      		andi r24,lo8(15)
 7471               	.LBE987:
 7472               	.LBE986:
 7473               	.LM699:
 7474 2394 8130      		cpi r24,lo8(1)
 7475 2396 01F4      		brne .L351
 7476               	.LBB988:
 7477               	.LBB989:
 7478               	.LM700:
 7479 2398 1A96      		adiw r26,10
 7480 239a 2D91      		ld r18,X+
 7481 239c 3D91      		ld r19,X+
 7482 239e 4D91      		ld r20,X+
 7483 23a0 5C91      		ld r21,X
 7484 23a2 1D97      		sbiw r26,10+3
 7485               	.LBE989:
 7486               	.LBE988:
 7487               	.LM701:
 7488 23a4 BF01      		movw r22,r30
 7489 23a6 615A      		subi r22,lo8(-(95))
 7490 23a8 7F4F      		sbci r23,hi8(-(95))
 7491 23aa EB01      		movw r28,r22
 7492 23ac 8881      		ld r24,Y
 7493 23ae 9981      		ldd r25,Y+1
 7494 23b0 AA81      		ldd r26,Y+2
 7495 23b2 BB81      		ldd r27,Y+3
 7496 23b4 821B      		sub r24,r18
 7497 23b6 930B      		sbc r25,r19
 7498 23b8 A40B      		sbc r26,r20
 7499 23ba B50B      		sbc r27,r21
 7500               	.LBB990:
 7501               	.LBB991:
 7502               	.LM702:
 7503 23bc ED59      		subi r30,lo8(-(99))
 7504 23be FF4F      		sbci r31,hi8(-(99))
 7505 23c0 8083      		st Z,r24
 7506 23c2 9183      		std Z+1,r25
 7507 23c4 A283      		std Z+2,r26
 7508 23c6 B383      		std Z+3,r27
 7509               	.LBE991:
 7510               	.LBE990:
 7511               	.LM703:
 7512 23c8 1816      		cp __zero_reg__,r24
 7513 23ca 1906      		cpc __zero_reg__,r25
 7514 23cc 1A06      		cpc __zero_reg__,r26
 7515 23ce 1B06      		cpc __zero_reg__,r27
 7516 23d0 04F0      		brlt .L353
 7517               	.LBB992:
 7518               	.LBB993:
 7519               	.LBB994:
 7520               	.LBB995:
 7521               	.LM704:
 7522 23d2 DB01      		movw r26,r22
 7523 23d4 1D92      		st X+,__zero_reg__
 7524 23d6 1D92      		st X+,__zero_reg__
 7525 23d8 1D92      		st X+,__zero_reg__
 7526 23da 1C92      		st X,__zero_reg__
 7527 23dc 1397      		sbiw r26,3
 7528               	.LBE995:
 7529               	.LBE994:
 7530               	.LBB996:
 7531               	.LBB997:
 7532               	.LM705:
 7533 23de 1082      		st Z,__zero_reg__
 7534 23e0 1182      		std Z+1,__zero_reg__
 7535 23e2 1282      		std Z+2,__zero_reg__
 7536 23e4 1382      		std Z+3,__zero_reg__
 7537               	.LBE997:
 7538               	.LBE996:
 7539               	.LBB998:
 7540               	.LBB999:
 7541               	.LM706:
 7542 23e6 E801      		movw r28,r16
 7543 23e8 8881      		ld r24,Y
 7544               	.LBE999:
 7545               	.LBE998:
 7546               	.LBE993:
 7547               	.LBE992:
 7548               	.LBB1000:
 7549               	.LBB1001:
 7550               	.LM707:
 7551 23ea 807E      		andi r24,lo8(-32)
 7552 23ec 8860      		ori r24,lo8(8)
 7553 23ee 8883      		st Y,r24
 7554 23f0 00C0      		rjmp .L353
 7555               	.L351:
 7556               	.LBE1001:
 7557               	.LBE1000:
 7558               	.LM708:
 7559 23f2 8230      		cpi r24,lo8(2)
 7560 23f4 01F4      		brne .L353
 7561               	.LBB1002:
 7562               	.LBB1003:
 7563               	.LM709:
 7564 23f6 1A96      		adiw r26,10
 7565 23f8 8D91      		ld r24,X+
 7566 23fa 9D91      		ld r25,X+
 7567 23fc 0D90      		ld __tmp_reg__,X+
 7568 23fe BC91      		ld r27,X
 7569 2400 A02D      		mov r26,__tmp_reg__
 7570               	.LBE1003:
 7571               	.LBE1002:
 7572               	.LBB1004:
 7573               	.LBB1005:
 7574               	.LM710:
 7575 2402 ED59      		subi r30,lo8(-(99))
 7576 2404 FF4F      		sbci r31,hi8(-(99))
 7577 2406 2081      		ld r18,Z
 7578 2408 3181      		ldd r19,Z+1
 7579 240a 4281      		ldd r20,Z+2
 7580 240c 5381      		ldd r21,Z+3
 7581 240e 820F      		add r24,r18
 7582 2410 931F      		adc r25,r19
 7583 2412 A41F      		adc r26,r20
 7584 2414 B51F      		adc r27,r21
 7585 2416 B293      		st -Z,r27
 7586 2418 A293      		st -Z,r26
 7587 241a 9293      		st -Z,r25
 7588 241c 8293      		st -Z,r24
 7589               	.L353:
 7590               	/* epilogue start */
 7591               	.LBE1005:
 7592               	.LBE1004:
 7593               	.LM711:
 7594 241e DF91      		pop r29
 7595 2420 CF91      		pop r28
 7596 2422 1F91      		pop r17
 7597 2424 0F91      		pop r16
 7598 2426 0895      		ret
 7599               	.LFE135:
 7601               	.global	Timebase_DownCounter_Expired
 7603               	Timebase_DownCounter_Expired:
 7604               	.LFB136:
 7605               	.LM712:
 7606               	.LVL447:
 7607               	/* prologue: function */
 7608               	/* frame size = 0 */
 7609               	.LM713:
 7610 2428 40E0      		ldi r20,lo8(0)
 7611 242a E091 0000 		lds r30,Timebase
 7612 242e F091 0000 		lds r31,(Timebase)+1
 7613 2432 90E0      		ldi r25,lo8(0)
 7614               	.LVL448:
 7615 2434 2DE0      		ldi r18,lo8(13)
 7616 2436 30E0      		ldi r19,hi8(13)
 7617 2438 BC01      		movw r22,r24
 7618 243a 629F      		mul r22,r18
 7619 243c C001      		movw r24,r0
 7620 243e 639F      		mul r22,r19
 7621 2440 900D      		add r25,r0
 7622 2442 729F      		mul r23,r18
 7623 2444 900D      		add r25,r0
 7624 2446 1124      		clr r1
 7625               	.LVL449:
 7626 2448 E80F      		add r30,r24
 7627 244a F91F      		adc r31,r25
 7628 244c E25A      		subi r30,lo8(-(94))
 7629 244e FF4F      		sbci r31,hi8(-(94))
 7630 2450 8081      		ld r24,Z
 7631 2452 8695      		lsr r24
 7632 2454 8F70      		andi r24,lo8(15)
 7633 2456 8430      		cpi r24,lo8(4)
 7634 2458 01F4      		brne .L355
 7635 245a 41E0      		ldi r20,lo8(1)
 7636               	.L355:
 7637               	.LM714:
 7638 245c 842F      		mov r24,r20
 7639               	/* epilogue start */
 7640 245e 0895      		ret
 7641               	.LFE136:
 7643               	.global	Timebase_DownCounter_Expired_Event
 7645               	Timebase_DownCounter_Expired_Event:
 7646               	.LFB137:
 7647               	.LM715:
 7648               	.LVL450:
 7649               	/* prologue: function */
 7650               	/* frame size = 0 */
 7651               	.LBB1006:
 7652               	.LBB1007:
 7653               	.LM716:
 7654 2460 E091 0000 		lds r30,Timebase
 7655 2464 F091 0000 		lds r31,(Timebase)+1
 7656 2468 90E0      		ldi r25,lo8(0)
 7657               	.LBE1007:
 7658               	.LBE1006:
 7659               	.LM717:
 7660 246a 2DE0      		ldi r18,lo8(13)
 7661 246c 30E0      		ldi r19,hi8(13)
 7662 246e AC01      		movw r20,r24
 7663               	.LVL451:
 7664 2470 429F      		mul r20,r18
 7665 2472 C001      		movw r24,r0
 7666 2474 439F      		mul r20,r19
 7667 2476 900D      		add r25,r0
 7668 2478 529F      		mul r21,r18
 7669 247a 900D      		add r25,r0
 7670 247c 1124      		clr r1
 7671 247e E80F      		add r30,r24
 7672 2480 F91F      		adc r31,r25
 7673 2482 DF01      		movw r26,r30
 7674 2484 A25A      		subi r26,lo8(-(94))
 7675 2486 BF4F      		sbci r27,hi8(-(94))
 7676 2488 8C91      		ld r24,X
 7677 248a 8695      		lsr r24
 7678 248c 8F70      		andi r24,lo8(15)
 7679 248e 8430      		cpi r24,lo8(4)
 7680 2490 01F0      		breq .L358
 7681 2492 80E0      		ldi r24,lo8(0)
 7682 2494 0895      		ret
 7683               	.L358:
 7684               	.LBB1008:
 7685               	.LBB1009:
 7686               	.LBB1010:
 7687               	.LBB1011:
 7688               	.LBB1012:
 7689               	.LBB1013:
 7690               	.LM718:
 7691 2496 E15A      		subi r30,lo8(-(95))
 7692 2498 FF4F      		sbci r31,hi8(-(95))
 7693 249a 1192      		st Z+,__zero_reg__
 7694 249c 1192      		st Z+,__zero_reg__
 7695 249e 1192      		st Z+,__zero_reg__
 7696 24a0 1192      		st Z+,__zero_reg__
 7697               	.LBE1013:
 7698               	.LBE1012:
 7699               	.LBB1014:
 7700               	.LBB1015:
 7701               	.LM719:
 7702 24a2 1082      		st Z,__zero_reg__
 7703 24a4 1182      		std Z+1,__zero_reg__
 7704 24a6 1282      		std Z+2,__zero_reg__
 7705 24a8 1382      		std Z+3,__zero_reg__
 7706               	.LBE1015:
 7707               	.LBE1014:
 7708               	.LBB1016:
 7709               	.LBB1017:
 7710               	.LM720:
 7711 24aa 8C91      		ld r24,X
 7712               	.LBE1017:
 7713               	.LBE1016:
 7714               	.LBB1018:
 7715               	.LBB1019:
 7716               	.LM721:
 7717 24ac 807E      		andi r24,lo8(-32)
 7718 24ae 8C93      		st X,r24
 7719 24b0 81E0      		ldi r24,lo8(1)
 7720               	.LBE1019:
 7721               	.LBE1018:
 7722               	.LBE1011:
 7723               	.LBE1010:
 7724               	.LBE1009:
 7725               	.LBE1008:
 7726               	.LM722:
 7727 24b2 0895      		ret
 7728               	.LFE137:
 7730               	.global	Timebase_DownCounter_Set_Period_Value_Securely
 7732               	Timebase_DownCounter_Set_Period_Value_Securely:
 7733               	.LFB138:
 7734               	.LM723:
 7735               	.LVL452:
 7736 24b4 CF93      		push r28
 7737 24b6 DF93      		push r29
 7738               	/* prologue: function */
 7739               	/* frame size = 0 */
 7740               	.LBB1020:
 7741               	.LBB1021:
 7742               	.LM724:
 7743 24b8 C091 0000 		lds r28,Timebase
 7744 24bc D091 0000 		lds r29,(Timebase)+1
 7745 24c0 282F      		mov r18,r24
 7746 24c2 30E0      		ldi r19,lo8(0)
 7747               	.LBE1021:
 7748               	.LBE1020:
 7749               	.LM725:
 7750 24c4 8DE0      		ldi r24,lo8(13)
 7751 24c6 90E0      		ldi r25,hi8(13)
 7752               	.LVL453:
 7753 24c8 289F      		mul r18,r24
 7754 24ca F001      		movw r30,r0
 7755 24cc 299F      		mul r18,r25
 7756 24ce F00D      		add r31,r0
 7757 24d0 389F      		mul r19,r24
 7758 24d2 F00D      		add r31,r0
 7759 24d4 1124      		clr r1
 7760 24d6 EC0F      		add r30,r28
 7761 24d8 FD1F      		adc r31,r29
 7762 24da E25A      		subi r30,lo8(-(94))
 7763 24dc FF4F      		sbci r31,hi8(-(94))
 7764 24de 8081      		ld r24,Z
 7765 24e0 EE55      		subi r30,lo8(-(-94))
 7766 24e2 F040      		sbci r31,hi8(-(-94))
 7767 24e4 80FD      		sbrc r24,0
 7768 24e6 00C0      		rjmp .L365
 7769               	.LM726:
 7770 24e8 ED59      		subi r30,lo8(-(99))
 7771 24ea FF4F      		sbci r31,hi8(-(99))
 7772 24ec 8191      		ld r24,Z+
 7773 24ee 9191      		ld r25,Z+
 7774 24f0 A191      		ld r26,Z+
 7775 24f2 B191      		ld r27,Z+
 7776 24f4 841B      		sub r24,r20
 7777 24f6 950B      		sbc r25,r21
 7778 24f8 A60B      		sbc r26,r22
 7779 24fa B70B      		sbc r27,r23
 7780               	.LBB1022:
 7781               	.LBB1023:
 7782               	.LM727:
 7783 24fc B7FF      		sbrs r27,7
 7784 24fe 00C0      		rjmp .L363
 7785               	.LM728:
 7786 2500 1082      		st Z,__zero_reg__
 7787 2502 1182      		std Z+1,__zero_reg__
 7788 2504 1282      		std Z+2,__zero_reg__
 7789 2506 1382      		std Z+3,__zero_reg__
 7790 2508 00C0      		rjmp .L364
 7791               	.L363:
 7792               	.LM729:
 7793 250a 8083      		st Z,r24
 7794 250c 9183      		std Z+1,r25
 7795 250e A283      		std Z+2,r26
 7796 2510 B383      		std Z+3,r27
 7797               	.L364:
 7798               	.LBE1023:
 7799               	.LBE1022:
 7800               	.LBB1024:
 7801               	.LBB1025:
 7802               	.LM730:
 7803 2512 8DE0      		ldi r24,lo8(13)
 7804 2514 90E0      		ldi r25,hi8(13)
 7805 2516 289F      		mul r18,r24
 7806 2518 F001      		movw r30,r0
 7807 251a 299F      		mul r18,r25
 7808 251c F00D      		add r31,r0
 7809 251e 389F      		mul r19,r24
 7810 2520 F00D      		add r31,r0
 7811 2522 1124      		clr r1
 7812 2524 EC0F      		add r30,r28
 7813 2526 FD1F      		adc r31,r29
 7814 2528 E25A      		subi r30,lo8(-(94))
 7815 252a FF4F      		sbci r31,hi8(-(94))
 7816 252c 8081      		ld r24,Z
 7817 252e 8160      		ori r24,lo8(1)
 7818 2530 8083      		st Z,r24
 7819               	.L365:
 7820               	/* epilogue start */
 7821               	.LBE1025:
 7822               	.LBE1024:
 7823               	.LM731:
 7824 2532 DF91      		pop r29
 7825 2534 CF91      		pop r28
 7826 2536 0895      		ret
 7827               	.LFE138:
 7829               	.global	Timebase_DownCounter_Get_Remaining_Period_Value
 7831               	Timebase_DownCounter_Get_Remaining_Period_Value:
 7832               	.LFB139:
 7833               	.LM732:
 7834               	.LVL454:
 7835               	/* prologue: function */
 7836               	/* frame size = 0 */
 7837               	.LBB1026:
 7838               	.LBB1027:
 7839               	.LM733:
 7840 2538 E091 0000 		lds r30,Timebase
 7841 253c F091 0000 		lds r31,(Timebase)+1
 7842 2540 90E0      		ldi r25,lo8(0)
 7843               	.LBE1027:
 7844               	.LBE1026:
 7845               	.LM734:
 7846 2542 2DE0      		ldi r18,lo8(13)
 7847 2544 30E0      		ldi r19,hi8(13)
 7848 2546 AC01      		movw r20,r24
 7849               	.LVL455:
 7850 2548 429F      		mul r20,r18
 7851 254a C001      		movw r24,r0
 7852 254c 439F      		mul r20,r19
 7853 254e 900D      		add r25,r0
 7854 2550 529F      		mul r21,r18
 7855 2552 900D      		add r25,r0
 7856 2554 1124      		clr r1
 7857 2556 E80F      		add r30,r24
 7858 2558 F91F      		adc r31,r25
 7859 255a DF01      		movw r26,r30
 7860 255c A959      		subi r26,lo8(-(103))
 7861 255e BF4F      		sbci r27,hi8(-(103))
 7862 2560 ED59      		subi r30,lo8(-(99))
 7863 2562 FF4F      		sbci r31,hi8(-(99))
 7864 2564 2081      		ld r18,Z
 7865 2566 3181      		ldd r19,Z+1
 7866 2568 4281      		ldd r20,Z+2
 7867 256a 5381      		ldd r21,Z+3
 7868               	.LVL456:
 7869 256c 8D91      		ld r24,X+
 7870 256e 9D91      		ld r25,X+
 7871 2570 0D90      		ld __tmp_reg__,X+
 7872 2572 BC91      		ld r27,X
 7873 2574 A02D      		mov r26,__tmp_reg__
 7874 2576 281B      		sub r18,r24
 7875 2578 390B      		sbc r19,r25
 7876 257a 4A0B      		sbc r20,r26
 7877 257c 5B0B      		sbc r21,r27
 7878 257e 57FF      		sbrs r21,7
 7879 2580 00C0      		rjmp .L367
 7880 2582 20E0      		ldi r18,lo8(0)
 7881 2584 30E0      		ldi r19,hi8(0)
 7882 2586 40E0      		ldi r20,hlo8(0)
 7883 2588 50E0      		ldi r21,hhi8(0)
 7884               	.L367:
 7885               	.LM735:
 7886 258a B901      		movw r22,r18
 7887               	.LVL457:
 7888 258c CA01      		movw r24,r20
 7889               	/* epilogue start */
 7890 258e 0895      		ret
 7891               	.LFE139:
 7893               	.global	Timebase_DownCounter_Period_Value_Expired
 7895               	Timebase_DownCounter_Period_Value_Expired:
 7896               	.LFB140:
 7897               	.LM736:
 7898               	.LVL458:
 7899 2590 CF93      		push r28
 7900 2592 DF93      		push r29
 7901               	/* prologue: function */
 7902               	/* frame size = 0 */
 7903               	.LBB1028:
 7904               	.LBB1029:
 7905               	.LBB1030:
 7906               	.LBB1031:
 7907               	.LM737:
 7908 2594 C091 0000 		lds r28,Timebase
 7909 2598 D091 0000 		lds r29,(Timebase)+1
 7910 259c 682F      		mov r22,r24
 7911 259e 70E0      		ldi r23,lo8(0)
 7912               	.LBE1031:
 7913               	.LBE1030:
 7914               	.LM738:
 7915 25a0 8DE0      		ldi r24,lo8(13)
 7916 25a2 90E0      		ldi r25,hi8(13)
 7917               	.LVL459:
 7918 25a4 689F      		mul r22,r24
 7919 25a6 F001      		movw r30,r0
 7920 25a8 699F      		mul r22,r25
 7921 25aa F00D      		add r31,r0
 7922 25ac 789F      		mul r23,r24
 7923 25ae F00D      		add r31,r0
 7924 25b0 1124      		clr r1
 7925 25b2 EC0F      		add r30,r28
 7926 25b4 FD1F      		adc r31,r29
 7927 25b6 DF01      		movw r26,r30
 7928 25b8 A959      		subi r26,lo8(-(103))
 7929 25ba BF4F      		sbci r27,hi8(-(103))
 7930 25bc ED59      		subi r30,lo8(-(99))
 7931 25be FF4F      		sbci r31,hi8(-(99))
 7932 25c0 2081      		ld r18,Z
 7933 25c2 3181      		ldd r19,Z+1
 7934 25c4 4281      		ldd r20,Z+2
 7935 25c6 5381      		ldd r21,Z+3
 7936               	.LVL460:
 7937 25c8 8D91      		ld r24,X+
 7938 25ca 9D91      		ld r25,X+
 7939 25cc 0D90      		ld __tmp_reg__,X+
 7940 25ce BC91      		ld r27,X
 7941 25d0 A02D      		mov r26,__tmp_reg__
 7942 25d2 281B      		sub r18,r24
 7943 25d4 390B      		sbc r19,r25
 7944 25d6 4A0B      		sbc r20,r26
 7945 25d8 5B0B      		sbc r21,r27
 7946               	.LM739:
 7947 25da 57FD      		sbrc r21,7
 7948 25dc 00C0      		rjmp .L370
 7949               	.LBE1029:
 7950               	.LBE1028:
 7951               	.LM740:
 7952 25de 2115      		cp r18,__zero_reg__
 7953 25e0 3105      		cpc r19,__zero_reg__
 7954 25e2 4105      		cpc r20,__zero_reg__
 7955 25e4 5105      		cpc r21,__zero_reg__
 7956 25e6 01F0      		breq .L370
 7957 25e8 20E0      		ldi r18,lo8(0)
 7958               	.LVL461:
 7959 25ea 00C0      		rjmp .L371
 7960               	.LVL462:
 7961               	.L370:
 7962 25ec 20E0      		ldi r18,lo8(0)
 7963               	.LVL463:
 7964 25ee 8DE0      		ldi r24,lo8(13)
 7965 25f0 90E0      		ldi r25,hi8(13)
 7966 25f2 AC01      		movw r20,r24
 7967 25f4 649F      		mul r22,r20
 7968 25f6 C001      		movw r24,r0
 7969 25f8 659F      		mul r22,r21
 7970 25fa 900D      		add r25,r0
 7971 25fc 749F      		mul r23,r20
 7972 25fe 900D      		add r25,r0
 7973 2600 1124      		clr r1
 7974 2602 C80F      		add r28,r24
 7975 2604 D91F      		adc r29,r25
 7976 2606 C25A      		subi r28,lo8(-(94))
 7977 2608 DF4F      		sbci r29,hi8(-(94))
 7978 260a 8881      		ld r24,Y
 7979 260c 80FF      		sbrs r24,0
 7980 260e 21E0      		ldi r18,lo8(1)
 7981               	.L372:
 7982 2610 81E0      		ldi r24,lo8(1)
 7983 2612 2827      		eor r18,r24
 7984               	.L371:
 7985               	.LM741:
 7986 2614 822F      		mov r24,r18
 7987               	/* epilogue start */
 7988 2616 DF91      		pop r29
 7989 2618 CF91      		pop r28
 7990 261a 0895      		ret
 7991               	.LFE140:
 7993               	.global	Timebase_DownCounter_Period_Value_Expired_Event
 7995               	Timebase_DownCounter_Period_Value_Expired_Event:
 7996               	.LFB141:
 7997               	.LM742:
 7998               	.LVL464:
 7999 261c 1F93      		push r17
 8000               	/* prologue: function */
 8001               	/* frame size = 0 */
 8002 261e 182F      		mov r17,r24
 8003               	.LM743:
 8004 2620 0E94 0000 		call Timebase_DownCounter_Period_Value_Expired
 8005               	.LVL465:
 8006 2624 8130      		cpi r24,lo8(1)
 8007 2626 01F0      		breq .L375
 8008 2628 80E0      		ldi r24,lo8(0)
 8009 262a 00C0      		rjmp .L376
 8010               	.L375:
 8011               	.LBB1032:
 8012               	.LBB1033:
 8013               	.LM744:
 8014 262c E091 0000 		lds r30,Timebase
 8015 2630 F091 0000 		lds r31,(Timebase)+1
 8016 2634 212F      		mov r18,r17
 8017 2636 30E0      		ldi r19,lo8(0)
 8018               	.LVL466:
 8019 2638 8DE0      		ldi r24,lo8(13)
 8020 263a 90E0      		ldi r25,hi8(13)
 8021 263c AC01      		movw r20,r24
 8022 263e 249F      		mul r18,r20
 8023 2640 C001      		movw r24,r0
 8024 2642 259F      		mul r18,r21
 8025 2644 900D      		add r25,r0
 8026 2646 349F      		mul r19,r20
 8027 2648 900D      		add r25,r0
 8028 264a 1124      		clr r1
 8029 264c E80F      		add r30,r24
 8030 264e F91F      		adc r31,r25
 8031 2650 E25A      		subi r30,lo8(-(94))
 8032 2652 FF4F      		sbci r31,hi8(-(94))
 8033 2654 8081      		ld r24,Z
 8034 2656 8E7F      		andi r24,lo8(-2)
 8035 2658 8083      		st Z,r24
 8036 265a 81E0      		ldi r24,lo8(1)
 8037               	.L376:
 8038               	/* epilogue start */
 8039               	.LBE1033:
 8040               	.LBE1032:
 8041               	.LM745:
 8042 265c 1F91      		pop r17
 8043               	.LVL467:
 8044 265e 0895      		ret
 8045               	.LFE141:
 8047               	.global	Timebase_DownCounter_Update_All
 8049               	Timebase_DownCounter_Update_All:
 8050               	.LFB142:
 8051               	.LM746:
 8052               	/* prologue: function */
 8053               	/* frame size = 0 */
 8054               	.LBB1034:
 8055               	.LM747:
 8056 2660 80E0      		ldi r24,lo8(0)
 8057 2662 0E94 0000 		call Timebase_DownCounter_Update
 8058               	/* epilogue start */
 8059               	.LBE1034:
 8060               	.LM748:
 8061 2666 0895      		ret
 8062               	.LFE142:
 8064               	.global	Timebase_DownCounter_Reset_All
 8066               	Timebase_DownCounter_Reset_All:
 8067               	.LFB143:
 8068               	.LM749:
 8069               	/* prologue: function */
 8070               	/* frame size = 0 */
 8071               	.LBB1035:
 8072               	.LBB1036:
 8073               	.LBB1037:
 8074               	.LBB1038:
 8075               	.LBB1039:
 8076               	.LM750:
 8077 2668 E091 0000 		lds r30,Timebase
 8078 266c F091 0000 		lds r31,(Timebase)+1
 8079 2670 E15A      		subi r30,lo8(-(95))
 8080 2672 FF4F      		sbci r31,hi8(-(95))
 8081 2674 1192      		st Z+,__zero_reg__
 8082 2676 1192      		st Z+,__zero_reg__
 8083 2678 1192      		st Z+,__zero_reg__
 8084 267a 1192      		st Z+,__zero_reg__
 8085               	.LBE1039:
 8086               	.LBE1038:
 8087               	.LBB1040:
 8088               	.LBB1041:
 8089               	.LM751:
 8090 267c 1082      		st Z,__zero_reg__
 8091 267e 1182      		std Z+1,__zero_reg__
 8092 2680 1282      		std Z+2,__zero_reg__
 8093 2682 1382      		std Z+3,__zero_reg__
 8094               	.LBE1041:
 8095               	.LBE1040:
 8096               	.LBB1042:
 8097               	.LBB1043:
 8098               	.LM752:
 8099 2684 3597      		sbiw r30,5
 8100 2686 8081      		ld r24,Z
 8101               	.LBE1043:
 8102               	.LBE1042:
 8103               	.LBB1044:
 8104               	.LBB1045:
 8105               	.LM753:
 8106 2688 807E      		andi r24,lo8(-32)
 8107 268a 8083      		st Z,r24
 8108               	/* epilogue start */
 8109               	.LBE1045:
 8110               	.LBE1044:
 8111               	.LBE1037:
 8112               	.LBE1036:
 8113               	.LBE1035:
 8114               	.LM754:
 8115 268c 0895      		ret
 8116               	.LFE143:
 8118               	.global	Timebase_Reset
 8120               	Timebase_Reset:
 8121               	.LFB144:
 8122               	.LM755:
 8123               	/* prologue: function */
 8124               	/* frame size = 0 */
 8125               	.LM756:
 8126 268e 0E94 0000 		call Timebase_UpCounter_Reset_All
 8127               	.LM757:
 8128 2692 0E94 0000 		call Timebase_DownCounter_SS_Reset_All
 8129               	.LM758:
 8130 2696 0E94 0000 		call Timebase_DownCounter_Reset_All
 8131               	/* epilogue start */
 8132               	.LM759:
 8133 269a 0895      		ret
 8134               	.LFE144:
 8136               	.global	Timebase_Init
 8138               	Timebase_Init:
 8139               	.LFB145:
 8140               	.LM760:
 8141               	.LVL468:
 8142 269c 0F93      		push r16
 8143 269e 1F93      		push r17
 8144               	/* prologue: function */
 8145               	/* frame size = 0 */
 8146 26a0 8C01      		movw r16,r24
 8147               	.LM761:
 8148 26a2 0E94 0000 		call Timebase_Struct_Init
 8149               	.LVL469:
 8150               	.LM762:
 8151 26a6 C801      		movw r24,r16
 8152 26a8 0E94 0000 		call Timebase_Timer_Config
 8153               	.LM763:
 8154 26ac 0E94 0000 		call Timebase_Reset
 8155               	/* epilogue start */
 8156               	.LM764:
 8157 26b0 1F91      		pop r17
 8158 26b2 0F91      		pop r16
 8159               	.LVL470:
 8160 26b4 0895      		ret
 8161               	.LFE145:
 8163               	.global	Timebase_Main_Loop_Executables
 8165               	Timebase_Main_Loop_Executables:
 8166               	.LFB146:
 8167               	.LM765:
 8168               	/* prologue: function */
 8169               	/* frame size = 0 */
 8170               	.LBB1046:
 8171               	.LBB1047:
 8172               	.LM766:
 8173               	/* #APP */
 8174               	 ;  344 "timebase.c" 1
 8175 26b6 F894      		cli
 8176               	 ;  0 "" 2
 8177               	/* #NOAPP */
 8178               	.LBE1047:
 8179               	.LBE1046:
 8180               	.LBB1048:
 8181               	.LBB1049:
 8182               	.LM767:
 8183 26b8 E091 0000 		lds r30,Timebase
 8184 26bc F091 0000 		lds r31,(Timebase)+1
 8185 26c0 8685      		ldd r24,Z+14
 8186 26c2 9785      		ldd r25,Z+15
 8187 26c4 9187      		std Z+9,r25
 8188 26c6 8087      		std Z+8,r24
 8189               	.LM768:
 8190 26c8 8089      		ldd r24,Z+16
 8191 26ca 9189      		ldd r25,Z+17
 8192 26cc A289      		ldd r26,Z+18
 8193 26ce B389      		ldd r27,Z+19
 8194 26d0 8287      		std Z+10,r24
 8195 26d2 9387      		std Z+11,r25
 8196 26d4 A487      		std Z+12,r26
 8197 26d6 B587      		std Z+13,r27
 8198               	.LBE1049:
 8199               	.LBE1048:
 8200               	.LBB1050:
 8201               	.LBB1051:
 8202               	.LM769:
 8203               	/* #APP */
 8204               	 ;  348 "timebase.c" 1
 8205 26d8 7894      		sei
 8206               	 ;  0 "" 2
 8207               	/* #NOAPP */
 8208               	.LBE1051:
 8209               	.LBE1050:
 8210               	.LM770:
 8211 26da 858D      		ldd r24,Z+29
 8212 26dc 82FF      		sbrs r24,2
 8213 26de 00C0      		rjmp .L387
 8214               	.LM771:
 8215 26e0 858D      		ldd r24,Z+29
 8216 26e2 8B7F      		andi r24,lo8(-5)
 8217 26e4 858F      		std Z+29,r24
 8218               	.L387:
 8219               	.LM772:
 8220 26e6 858D      		ldd r24,Z+29
 8221 26e8 80FF      		sbrs r24,0
 8222 26ea 00C0      		rjmp .L388
 8223               	.LM773:
 8224 26ec 0E94 0000 		call Timebase_UpCounter_Update_All
 8225               	.LM774:
 8226 26f0 E091 0000 		lds r30,Timebase
 8227 26f4 F091 0000 		lds r31,(Timebase)+1
 8228 26f8 858D      		ldd r24,Z+29
 8229 26fa 8E7F      		andi r24,lo8(-2)
 8230 26fc 858F      		std Z+29,r24
 8231               	.L388:
 8232               	.LM775:
 8233 26fe E091 0000 		lds r30,Timebase
 8234 2702 F091 0000 		lds r31,(Timebase)+1
 8235 2706 858D      		ldd r24,Z+29
 8236 2708 83FF      		sbrs r24,3
 8237 270a 00C0      		rjmp .L389
 8238               	.LM776:
 8239 270c 0E94 0000 		call Timebase_DownCounter_SS_Update_All
 8240               	.LM777:
 8241 2710 E091 0000 		lds r30,Timebase
 8242 2714 F091 0000 		lds r31,(Timebase)+1
 8243 2718 858D      		ldd r24,Z+29
 8244 271a 877F      		andi r24,lo8(-9)
 8245 271c 858F      		std Z+29,r24
 8246               	.L389:
 8247               	.LM778:
 8248 271e E091 0000 		lds r30,Timebase
 8249 2722 F091 0000 		lds r31,(Timebase)+1
 8250 2726 858D      		ldd r24,Z+29
 8251 2728 81FF      		sbrs r24,1
 8252 272a 00C0      		rjmp .L391
 8253               	.LM779:
 8254 272c 0E94 0000 		call Timebase_DownCounter_Update_All
 8255               	.LM780:
 8256 2730 E091 0000 		lds r30,Timebase
 8257 2734 F091 0000 		lds r31,(Timebase)+1
 8258 2738 858D      		ldd r24,Z+29
 8259 273a 8D7F      		andi r24,lo8(-3)
 8260 273c 858F      		std Z+29,r24
 8261               	.L391:
 8262 273e 0895      		ret
 8263               	.LFE146:
 8265               	.global	Timebase_ISR_Executables
 8267               	Timebase_ISR_Executables:
 8268               	.LFB147:
 8269               	.LM781:
 8270               	/* prologue: function */
 8271               	/* frame size = 0 */
 8272               	.LM782:
 8273 2740 E091 0000 		lds r30,Timebase
 8274 2744 F091 0000 		lds r31,(Timebase)+1
 8275 2748 8685      		ldd r24,Z+14
 8276 274a 9785      		ldd r25,Z+15
 8277 274c 0196      		adiw r24,1
 8278 274e 9787      		std Z+15,r25
 8279 2750 8687      		std Z+14,r24
 8280               	.LM783:
 8281 2752 858D      		ldd r24,Z+29
 8282 2754 8460      		ori r24,lo8(4)
 8283 2756 858F      		std Z+29,r24
 8284               	.LM784:
 8285 2758 858D      		ldd r24,Z+29
 8286 275a 8860      		ori r24,lo8(8)
 8287 275c 858F      		std Z+29,r24
 8288               	.LM785:
 8289 275e 8685      		ldd r24,Z+14
 8290 2760 9785      		ldd r25,Z+15
 8291 2762 6181      		ldd r22,Z+1
 8292 2764 7281      		ldd r23,Z+2
 8293 2766 0E94 0000 		call __udivmodhi4
 8294 276a 892B      		or r24,r25
 8295 276c 01F4      		brne .L394
 8296               	.LM786:
 8297 276e 8089      		ldd r24,Z+16
 8298 2770 9189      		ldd r25,Z+17
 8299 2772 A289      		ldd r26,Z+18
 8300 2774 B389      		ldd r27,Z+19
 8301 2776 0196      		adiw r24,1
 8302 2778 A11D      		adc r26,__zero_reg__
 8303 277a B11D      		adc r27,__zero_reg__
 8304 277c 808B      		std Z+16,r24
 8305 277e 918B      		std Z+17,r25
 8306 2780 A28B      		std Z+18,r26
 8307 2782 B38B      		std Z+19,r27
 8308               	.LM787:
 8309 2784 1786      		std Z+15,__zero_reg__
 8310 2786 1686      		std Z+14,__zero_reg__
 8311               	.LM788:
 8312 2788 858D      		ldd r24,Z+29
 8313 278a 8160      		ori r24,lo8(1)
 8314 278c 858F      		std Z+29,r24
 8315               	.LM789:
 8316 278e 858D      		ldd r24,Z+29
 8317 2790 8260      		ori r24,lo8(2)
 8318 2792 858F      		std Z+29,r24
 8319               	.L394:
 8320 2794 0895      		ret
 8321               	.LFE147:
 8323               	.global	__vector_16
 8325               	__vector_16:
 8326               	.LFB148:
 8327               	.LM790:
 8328 2796 1F92      		push __zero_reg__
 8329 2798 0F92      		push r0
 8330 279a 0FB6      		in r0,__SREG__
 8331 279c 0F92      		push r0
 8332 279e 1124      		clr __zero_reg__
 8333 27a0 2F93      		push r18
 8334 27a2 3F93      		push r19
 8335 27a4 4F93      		push r20
 8336 27a6 5F93      		push r21
 8337 27a8 6F93      		push r22
 8338 27aa 7F93      		push r23
 8339 27ac 8F93      		push r24
 8340 27ae 9F93      		push r25
 8341 27b0 AF93      		push r26
 8342 27b2 BF93      		push r27
 8343 27b4 EF93      		push r30
 8344 27b6 FF93      		push r31
 8345               	/* prologue: Signal */
 8346               	/* frame size = 0 */
 8347               	.LM791:
 8348 27b8 E091 0000 		lds r30,Timebase
 8349 27bc F091 0000 		lds r31,(Timebase)+1
 8350 27c0 8381      		ldd r24,Z+3
 8351 27c2 86BD      		out 70-32,r24
 8352               	.LM792:
 8353 27c4 0E94 0000 		call Timebase_ISR_Executables
 8354               	/* epilogue start */
 8355               	.LM793:
 8356 27c8 FF91      		pop r31
 8357 27ca EF91      		pop r30
 8358 27cc BF91      		pop r27
 8359 27ce AF91      		pop r26
 8360 27d0 9F91      		pop r25
 8361 27d2 8F91      		pop r24
 8362 27d4 7F91      		pop r23
 8363 27d6 6F91      		pop r22
 8364 27d8 5F91      		pop r21
 8365 27da 4F91      		pop r20
 8366 27dc 3F91      		pop r19
 8367 27de 2F91      		pop r18
 8368 27e0 0F90      		pop r0
 8369 27e2 0FBE      		out __SREG__,r0
 8370 27e4 0F90      		pop r0
 8371 27e6 1F90      		pop __zero_reg__
 8372 27e8 1895      		reti
 8373               	.LFE148:
 8375               		.data
 8378               	C.2.1702:
 8379 0000 0100      		.word	1
 8380 0002 0800      		.word	8
 8381 0004 4000      		.word	64
 8382 0006 0001      		.word	256
 8383 0008 0004      		.word	1024
 8384               		.comm Timebase_type,107,1
 8385               		.comm Timebase,2,1
 9546               	.Letext0:
DEFINED SYMBOLS
                            *ABS*:00000000 timebase.c
C:\Users\WALTON\AppData\Local\Temp/ccKSFa8e.s:2      *ABS*:0000003f __SREG__
C:\Users\WALTON\AppData\Local\Temp/ccKSFa8e.s:3      *ABS*:0000003e __SP_H__
C:\Users\WALTON\AppData\Local\Temp/ccKSFa8e.s:4      *ABS*:0000003d __SP_L__
C:\Users\WALTON\AppData\Local\Temp/ccKSFa8e.s:5      *ABS*:00000034 __CCP__
C:\Users\WALTON\AppData\Local\Temp/ccKSFa8e.s:6      *ABS*:00000000 __tmp_reg__
C:\Users\WALTON\AppData\Local\Temp/ccKSFa8e.s:7      *ABS*:00000001 __zero_reg__
C:\Users\WALTON\AppData\Local\Temp/ccKSFa8e.s:18     .text:00000000 Timebase_Struct_Init
                            *COM*:0000006b Timebase_type
                            *COM*:00000002 Timebase
C:\Users\WALTON\AppData\Local\Temp/ccKSFa8e.s:195    .text:000001d2 Timebase_Timer_Config
C:\Users\WALTON\AppData\Local\Temp/ccKSFa8e.s:8378   .data:00000000 C.2.1702
C:\Users\WALTON\AppData\Local\Temp/ccKSFa8e.s:515    .text:0000036c Timebase_Atomic_Operation_Start
C:\Users\WALTON\AppData\Local\Temp/ccKSFa8e.s:533    .text:00000370 Timebase_Atomic_Operation_End
C:\Users\WALTON\AppData\Local\Temp/ccKSFa8e.s:551    .text:00000374 Timebase_Token_Executing
C:\Users\WALTON\AppData\Local\Temp/ccKSFa8e.s:567    .text:00000380 Timebase_Token_Add
C:\Users\WALTON\AppData\Local\Temp/ccKSFa8e.s:593    .text:00000396 Timebase_Token_Remove
C:\Users\WALTON\AppData\Local\Temp/ccKSFa8e.s:619    .text:000003ac Timebase_Token_Remove_All
C:\Users\WALTON\AppData\Local\Temp/ccKSFa8e.s:635    .text:000003b8 Timebase_Timer_Get_SubSecondsShadow
C:\Users\WALTON\AppData\Local\Temp/ccKSFa8e.s:653    .text:000003c8 Timebase_Timer_Get_SecondsShadow
C:\Users\WALTON\AppData\Local\Temp/ccKSFa8e.s:674    .text:000003de Timebase_Timer_Get_SubSeconds
C:\Users\WALTON\AppData\Local\Temp/ccKSFa8e.s:692    .text:000003ee Timebase_Timer_Get_Seconds
C:\Users\WALTON\AppData\Local\Temp/ccKSFa8e.s:713    .text:00000404 Timebase_Timer_Set_SubSeconds
C:\Users\WALTON\AppData\Local\Temp/ccKSFa8e.s:731    .text:00000412 Timebase_Timer_Set_Seconds
C:\Users\WALTON\AppData\Local\Temp/ccKSFa8e.s:751    .text:00000424 Timebase_Timer_Sync_With_Shadow_Variables
C:\Users\WALTON\AppData\Local\Temp/ccKSFa8e.s:779    .text:00000446 Timebase_Timer_Delay_SubSeconds
C:\Users\WALTON\AppData\Local\Temp/ccKSFa8e.s:956    .text:000004fe Timebase_Timer_Await_SubSeconds
C:\Users\WALTON\AppData\Local\Temp/ccKSFa8e.s:1118   .text:00000598 Timebase_Timer_Delay_Seconds
C:\Users\WALTON\AppData\Local\Temp/ccKSFa8e.s:1215   .text:000005da Timebase_Window_Timer_Reset
C:\Users\WALTON\AppData\Local\Temp/ccKSFa8e.s:1241   .text:000005f6 Timebase_Window_Timer_Start
C:\Users\WALTON\AppData\Local\Temp/ccKSFa8e.s:1309   .text:0000062e Timebase_Window_Timer_Get_Interval
C:\Users\WALTON\AppData\Local\Temp/ccKSFa8e.s:1425   .text:000006ac Timebase_Window_Timer_Get_Interval_Reset
C:\Users\WALTON\AppData\Local\Temp/ccKSFa8e.s:1465   .text:000006d6 Timebase_UpCounter_SS_Get_Status
C:\Users\WALTON\AppData\Local\Temp/ccKSFa8e.s:1499   .text:00000700 Timebase_UpCounter_SS_Set_Status
C:\Users\WALTON\AppData\Local\Temp/ccKSFa8e.s:1537   .text:00000730 Timebase_UpCounter_SS_Get_Value
C:\Users\WALTON\AppData\Local\Temp/ccKSFa8e.s:1580   .text:0000076a Timebase_UpCounter_SS_Set_Value
C:\Users\WALTON\AppData\Local\Temp/ccKSFa8e.s:1615   .text:00000796 Timebase_UpCounter_SS_Get_EndValueSec
C:\Users\WALTON\AppData\Local\Temp/ccKSFa8e.s:1658   .text:000007d0 Timebase_UpCounter_SS_Get_EndValueSubSec
C:\Users\WALTON\AppData\Local\Temp/ccKSFa8e.s:1701   .text:0000080a Timebase_UpCounter_SS_Set_EndValueSec
C:\Users\WALTON\AppData\Local\Temp/ccKSFa8e.s:1736   .text:00000836 Timebase_UpCounter_SS_Set_EndValueSubSec
C:\Users\WALTON\AppData\Local\Temp/ccKSFa8e.s:1771   .text:00000862 Timebase_UpCounter_SS_Get_TargetValue
C:\Users\WALTON\AppData\Local\Temp/ccKSFa8e.s:1814   .text:0000089c Timebase_UpCounter_SS_Set_TargetValue
C:\Users\WALTON\AppData\Local\Temp/ccKSFa8e.s:1849   .text:000008c8 Timebase_UpCounter_SS_Get_TemporaryValue
C:\Users\WALTON\AppData\Local\Temp/ccKSFa8e.s:1892   .text:00000902 Timebase_UpCounter_SS_Set_TemporaryValue
C:\Users\WALTON\AppData\Local\Temp/ccKSFa8e.s:1927   .text:0000092e Timebase_UpCounter_SS_Get_PeriodValue
C:\Users\WALTON\AppData\Local\Temp/ccKSFa8e.s:1970   .text:00000968 Timebase_UpCounter_SS_Set_PeriodValue
C:\Users\WALTON\AppData\Local\Temp/ccKSFa8e.s:2005   .text:00000994 Timebase_UpCounter_SS_Get_Period_Flag
C:\Users\WALTON\AppData\Local\Temp/ccKSFa8e.s:2038   .text:000009bc Timebase_UpCounter_SS_Set_Period_Flag
C:\Users\WALTON\AppData\Local\Temp/ccKSFa8e.s:2072   .text:000009e6 Timebase_UpCounter_SS_Clear_Period_Flag
C:\Users\WALTON\AppData\Local\Temp/ccKSFa8e.s:2106   .text:00000a10 Timebase_UpCounter_SS_Reset
C:\Users\WALTON\AppData\Local\Temp/ccKSFa8e.s:2202   .text:00000a6a Timebase_UpCounter_SS_Clear_All_Flags
C:\Users\WALTON\AppData\Local\Temp/ccKSFa8e.s:2218   .text:00000a70 Timebase_UpCounter_SS_Start
C:\Users\WALTON\AppData\Local\Temp/ccKSFa8e.s:2266   .text:00000aa6 Timebase_UpCounter_SS_Stop
C:\Users\WALTON\AppData\Local\Temp/ccKSFa8e.s:2314   .text:00000adc Timebase_UpCounter_SS_Set_Securely
C:\Users\WALTON\AppData\Local\Temp/ccKSFa8e.s:2588   .text:00000c58 Timebase_UpCounter_SS_Set_Forcefully
C:\Users\WALTON\AppData\Local\Temp/ccKSFa8e.s:2624   .text:00000c82 Timebase_UpCounter_SS_Update
C:\Users\WALTON\AppData\Local\Temp/ccKSFa8e.s:2780   .text:00000d42 Timebase_UpCounter_SS_Expired
C:\Users\WALTON\AppData\Local\Temp/ccKSFa8e.s:2820   .text:00000d76 Timebase_UpCounter_SS_Expired_Event
C:\Users\WALTON\AppData\Local\Temp/ccKSFa8e.s:2869   .text:00000db4 Timebase_UpCounter_SS_Set_Period_Value_Securely
C:\Users\WALTON\AppData\Local\Temp/ccKSFa8e.s:2931   .text:00000dfc Timebase_UpCounter_SS_Get_Remaining_Period_Value
C:\Users\WALTON\AppData\Local\Temp/ccKSFa8e.s:2989   .text:00000e48 Timebase_UpCounter_SS_Period_Value_Expired
C:\Users\WALTON\AppData\Local\Temp/ccKSFa8e.s:3081   .text:00000ec4 Timebase_UpCounter_SS_Period_Value_Expired_Event
C:\Users\WALTON\AppData\Local\Temp/ccKSFa8e.s:3133   .text:00000f04 Timebase_UpCounter_SS_Update_All
C:\Users\WALTON\AppData\Local\Temp/ccKSFa8e.s:3150   .text:00000f0c Timebase_UpCounter_SS_Reset_All
C:\Users\WALTON\AppData\Local\Temp/ccKSFa8e.s:3167   .text:00000f14 Timebase_UpCounter_Get_Status
C:\Users\WALTON\AppData\Local\Temp/ccKSFa8e.s:3201   .text:00000f3e Timebase_UpCounter_Set_Status
C:\Users\WALTON\AppData\Local\Temp/ccKSFa8e.s:3239   .text:00000f6e Timebase_UpCounter_Get_Value
C:\Users\WALTON\AppData\Local\Temp/ccKSFa8e.s:3277   .text:00000f9e Timebase_UpCounter_Set_Value
C:\Users\WALTON\AppData\Local\Temp/ccKSFa8e.s:3314   .text:00000fce Timebase_UpCounter_Get_EndValue
C:\Users\WALTON\AppData\Local\Temp/ccKSFa8e.s:3357   .text:00001008 Timebase_UpCounter_Set_EndValue
C:\Users\WALTON\AppData\Local\Temp/ccKSFa8e.s:3392   .text:00001034 Timebase_UpCounter_Get_TargetValue
C:\Users\WALTON\AppData\Local\Temp/ccKSFa8e.s:3429   .text:00001062 Timebase_UpCounter_Set_TargetValue
C:\Users\WALTON\AppData\Local\Temp/ccKSFa8e.s:3465   .text:00001090 Timebase_UpCounter_Get_TemporaryValue
C:\Users\WALTON\AppData\Local\Temp/ccKSFa8e.s:3503   .text:000010c0 Timebase_UpCounter_Set_TemporaryValue
C:\Users\WALTON\AppData\Local\Temp/ccKSFa8e.s:3540   .text:000010f0 Timebase_UpCounter_Get_PeriodValue
C:\Users\WALTON\AppData\Local\Temp/ccKSFa8e.s:3578   .text:00001120 Timebase_UpCounter_Set_PeriodValue
C:\Users\WALTON\AppData\Local\Temp/ccKSFa8e.s:3615   .text:00001150 Timebase_UpCounter_Get_Period_Flag
C:\Users\WALTON\AppData\Local\Temp/ccKSFa8e.s:3648   .text:00001178 Timebase_UpCounter_Set_Period_Flag
C:\Users\WALTON\AppData\Local\Temp/ccKSFa8e.s:3682   .text:000011a2 Timebase_UpCounter_Clear_Period_Flag
C:\Users\WALTON\AppData\Local\Temp/ccKSFa8e.s:3716   .text:000011cc Timebase_UpCounter_Reset
C:\Users\WALTON\AppData\Local\Temp/ccKSFa8e.s:3811   .text:0000122e Timebase_UpCounter_Clear_All_Flags
C:\Users\WALTON\AppData\Local\Temp/ccKSFa8e.s:3827   .text:00001234 Timebase_UpCounter_Start
C:\Users\WALTON\AppData\Local\Temp/ccKSFa8e.s:3875   .text:0000126a Timebase_UpCounter_Stop
C:\Users\WALTON\AppData\Local\Temp/ccKSFa8e.s:3923   .text:000012a0 Timebase_UpCounter_Set_Securely
C:\Users\WALTON\AppData\Local\Temp/ccKSFa8e.s:4035   .text:00001316 Timebase_UpCounter_Set_Forcefully
C:\Users\WALTON\AppData\Local\Temp/ccKSFa8e.s:4071   .text:00001340 Timebase_UpCounter_Update
C:\Users\WALTON\AppData\Local\Temp/ccKSFa8e.s:4286   .text:00001456 Timebase_UpCounter_Expired
C:\Users\WALTON\AppData\Local\Temp/ccKSFa8e.s:4326   .text:0000148a Timebase_UpCounter_Expired_Event
C:\Users\WALTON\AppData\Local\Temp/ccKSFa8e.s:4375   .text:000014c8 Timebase_UpCounter_Set_Period_Value_Securely
C:\Users\WALTON\AppData\Local\Temp/ccKSFa8e.s:4450   .text:00001526 Timebase_UpCounter_Get_Remaining_Period_Value
C:\Users\WALTON\AppData\Local\Temp/ccKSFa8e.s:4514   .text:0000157e Timebase_UpCounter_Period_Value_Expired
C:\Users\WALTON\AppData\Local\Temp/ccKSFa8e.s:4612   .text:00001606 Timebase_UpCounter_Period_Value_Expired_Event
C:\Users\WALTON\AppData\Local\Temp/ccKSFa8e.s:4664   .text:00001646 Timebase_UpCounter_Update_All
C:\Users\WALTON\AppData\Local\Temp/ccKSFa8e.s:4681   .text:0000164e Timebase_UpCounter_Reset_All
C:\Users\WALTON\AppData\Local\Temp/ccKSFa8e.s:4698   .text:00001656 Timebase_DownCounter_SS_Get_Status
C:\Users\WALTON\AppData\Local\Temp/ccKSFa8e.s:4732   .text:00001680 Timebase_DownCounter_SS_Set_Status
C:\Users\WALTON\AppData\Local\Temp/ccKSFa8e.s:4770   .text:000016b0 Timebase_DownCounter_SS_Get_Value
C:\Users\WALTON\AppData\Local\Temp/ccKSFa8e.s:4806   .text:000016dc Timebase_DownCounter_SS_Set_Value
C:\Users\WALTON\AppData\Local\Temp/ccKSFa8e.s:4840   .text:00001708 Timebase_DownCounter_SS_Get_EndValueSec
C:\Users\WALTON\AppData\Local\Temp/ccKSFa8e.s:4876   .text:00001734 Timebase_DownCounter_SS_Get_EndValueSubSec
C:\Users\WALTON\AppData\Local\Temp/ccKSFa8e.s:4912   .text:00001760 Timebase_DownCounter_SS_Set_EndValueSec
C:\Users\WALTON\AppData\Local\Temp/ccKSFa8e.s:4946   .text:0000178c Timebase_DownCounter_SS_Set_EndValueSubSec
C:\Users\WALTON\AppData\Local\Temp/ccKSFa8e.s:4980   .text:000017b8 Timebase_DownCounter_SS_Get_PeriodValue
C:\Users\WALTON\AppData\Local\Temp/ccKSFa8e.s:5016   .text:000017e4 Timebase_DownCounter_SS_Set_PeriodValue
C:\Users\WALTON\AppData\Local\Temp/ccKSFa8e.s:5073   .text:00001838 Timebase_DownCounter_SS_Get_Period_Flag
C:\Users\WALTON\AppData\Local\Temp/ccKSFa8e.s:5106   .text:00001860 Timebase_DownCounter_SS_Set_Period_Flag
C:\Users\WALTON\AppData\Local\Temp/ccKSFa8e.s:5140   .text:0000188a Timebase_DownCounter_SS_Clear_Period_Flag
C:\Users\WALTON\AppData\Local\Temp/ccKSFa8e.s:5174   .text:000018b4 Timebase_DownCounter_SS_Reset
C:\Users\WALTON\AppData\Local\Temp/ccKSFa8e.s:5245   .text:000018fa Timebase_DownCounter_SS_Clear_All_Flags
C:\Users\WALTON\AppData\Local\Temp/ccKSFa8e.s:5320   .text:00001940 Timebase_DownCounter_SS_Start
C:\Users\WALTON\AppData\Local\Temp/ccKSFa8e.s:5368   .text:00001976 Timebase_DownCounter_SS_Stop
C:\Users\WALTON\AppData\Local\Temp/ccKSFa8e.s:5416   .text:000019ac Timebase_DownCounter_SS_Set_Securely
C:\Users\WALTON\AppData\Local\Temp/ccKSFa8e.s:5678   .text:00001b28 Timebase_DownCounter_SS_Set_Forcefully
C:\Users\WALTON\AppData\Local\Temp/ccKSFa8e.s:5756   .text:00001b74 Timebase_DownCounter_SS_Update
C:\Users\WALTON\AppData\Local\Temp/ccKSFa8e.s:6075   .text:00001d14 Timebase_DownCounter_SS_Expired
C:\Users\WALTON\AppData\Local\Temp/ccKSFa8e.s:6115   .text:00001d48 Timebase_DownCounter_SS_Expired_Event
C:\Users\WALTON\AppData\Local\Temp/ccKSFa8e.s:6210   .text:00001da2 Timebase_DownCounter_SS_Set_Period_Value_Securely
C:\Users\WALTON\AppData\Local\Temp/ccKSFa8e.s:6307   .text:00001e22 Timebase_DownCounter_SS_Get_Remaining_Period_Value
C:\Users\WALTON\AppData\Local\Temp/ccKSFa8e.s:6369   .text:00001e76 Timebase_DownCounter_SS_Period_Value_Expired
C:\Users\WALTON\AppData\Local\Temp/ccKSFa8e.s:6466   .text:00001efc Timebase_DownCounter_SS_Period_Value_Expired_Event
C:\Users\WALTON\AppData\Local\Temp/ccKSFa8e.s:6518   .text:00001f3c Timebase_DownCounter_SS_Update_All
C:\Users\WALTON\AppData\Local\Temp/ccKSFa8e.s:6535   .text:00001f44 Timebase_DownCounter_SS_Reset_All
C:\Users\WALTON\AppData\Local\Temp/ccKSFa8e.s:6599   .text:00001f74 Timebase_DownCounter_Get_Status
C:\Users\WALTON\AppData\Local\Temp/ccKSFa8e.s:6635   .text:00001fa2 Timebase_DownCounter_Set_Status
C:\Users\WALTON\AppData\Local\Temp/ccKSFa8e.s:6675   .text:00001fd6 Timebase_DownCounter_Get_Value
C:\Users\WALTON\AppData\Local\Temp/ccKSFa8e.s:6713   .text:00002006 Timebase_DownCounter_Set_Value
C:\Users\WALTON\AppData\Local\Temp/ccKSFa8e.s:6750   .text:00002036 Timebase_DownCounter_Get_EndValue
C:\Users\WALTON\AppData\Local\Temp/ccKSFa8e.s:6788   .text:00002066 Timebase_DownCounter_Set_EndValue
C:\Users\WALTON\AppData\Local\Temp/ccKSFa8e.s:6825   .text:00002096 Timebase_DownCounter_Get_PeriodValue
C:\Users\WALTON\AppData\Local\Temp/ccKSFa8e.s:6863   .text:000020c6 Timebase_DownCounter_Set_PeriodValue
C:\Users\WALTON\AppData\Local\Temp/ccKSFa8e.s:6925   .text:00002122 Timebase_DownCounter_Get_Period_Flag
C:\Users\WALTON\AppData\Local\Temp/ccKSFa8e.s:6960   .text:0000214e Timebase_DownCounter_Set_Period_Flag
C:\Users\WALTON\AppData\Local\Temp/ccKSFa8e.s:6996   .text:0000217c Timebase_DownCounter_Clear_Period_Flag
C:\Users\WALTON\AppData\Local\Temp/ccKSFa8e.s:7032   .text:000021aa Timebase_DownCounter_Reset
C:\Users\WALTON\AppData\Local\Temp/ccKSFa8e.s:7095   .text:000021ea Timebase_DownCounter_Clear_All_Flags
C:\Users\WALTON\AppData\Local\Temp/ccKSFa8e.s:7162   .text:0000222a Timebase_DownCounter_Start
C:\Users\WALTON\AppData\Local\Temp/ccKSFa8e.s:7212   .text:00002264 Timebase_DownCounter_Stop
C:\Users\WALTON\AppData\Local\Temp/ccKSFa8e.s:7262   .text:0000229e Timebase_DownCounter_Set_Securely
C:\Users\WALTON\AppData\Local\Temp/ccKSFa8e.s:7362   .text:00002310 Timebase_DownCounter_Set_Forcefully
C:\Users\WALTON\AppData\Local\Temp/ccKSFa8e.s:7436   .text:0000235e Timebase_DownCounter_Update
C:\Users\WALTON\AppData\Local\Temp/ccKSFa8e.s:7603   .text:00002428 Timebase_DownCounter_Expired
C:\Users\WALTON\AppData\Local\Temp/ccKSFa8e.s:7645   .text:00002460 Timebase_DownCounter_Expired_Event
C:\Users\WALTON\AppData\Local\Temp/ccKSFa8e.s:7732   .text:000024b4 Timebase_DownCounter_Set_Period_Value_Securely
C:\Users\WALTON\AppData\Local\Temp/ccKSFa8e.s:7831   .text:00002538 Timebase_DownCounter_Get_Remaining_Period_Value
C:\Users\WALTON\AppData\Local\Temp/ccKSFa8e.s:7895   .text:00002590 Timebase_DownCounter_Period_Value_Expired
C:\Users\WALTON\AppData\Local\Temp/ccKSFa8e.s:7995   .text:0000261c Timebase_DownCounter_Period_Value_Expired_Event
C:\Users\WALTON\AppData\Local\Temp/ccKSFa8e.s:8049   .text:00002660 Timebase_DownCounter_Update_All
C:\Users\WALTON\AppData\Local\Temp/ccKSFa8e.s:8066   .text:00002668 Timebase_DownCounter_Reset_All
C:\Users\WALTON\AppData\Local\Temp/ccKSFa8e.s:8120   .text:0000268e Timebase_Reset
C:\Users\WALTON\AppData\Local\Temp/ccKSFa8e.s:8138   .text:0000269c Timebase_Init
C:\Users\WALTON\AppData\Local\Temp/ccKSFa8e.s:8165   .text:000026b6 Timebase_Main_Loop_Executables
C:\Users\WALTON\AppData\Local\Temp/ccKSFa8e.s:8267   .text:00002740 Timebase_ISR_Executables
C:\Users\WALTON\AppData\Local\Temp/ccKSFa8e.s:8325   .text:00002796 __vector_16

UNDEFINED SYMBOLS
__divmodsi4
__mulsi3
__udivmodhi4
__do_copy_data
__do_clear_bss
