   1               		.file	"timebase.c"
   2               	__SREG__ = 0x3f
   3               	__SP_H__ = 0x3e
   4               	__SP_L__ = 0x3d
   5               	__CCP__  = 0x34
   6               	__tmp_reg__ = 0
   7               	__zero_reg__ = 1
  15               	.Ltext0:
  16               	.global	Timebase_Struct_Init
  18               	Timebase_Struct_Init:
  19               	.LFB6:
  20               	.LM1:
  21               	/* prologue: function */
  22               	/* frame size = 0 */
  23               	.LM2:
  24 0000 80E0      		ldi r24,lo8(Timebase_type)
  25 0002 90E0      		ldi r25,hi8(Timebase_type)
  26 0004 9093 0000 		sts (Timebase)+1,r25
  27 0008 8093 0000 		sts Timebase,r24
  28               	.LM3:
  29 000c 81E0      		ldi r24,lo8(1)
  30 000e 90E0      		ldi r25,hi8(1)
  31 0010 9093 0000 		sts (Timebase_type)+1,r25
  32 0014 8093 0000 		sts Timebase_type,r24
  33               	.LM4:
  34 0018 1092 0000 		sts (Timebase_type+2)+1,__zero_reg__
  35 001c 1092 0000 		sts Timebase_type+2,__zero_reg__
  36               	.LM5:
  37 0020 1092 0000 		sts (Timebase_type+14)+1,__zero_reg__
  38 0024 1092 0000 		sts Timebase_type+14,__zero_reg__
  39               	.LM6:
  40 0028 1092 0000 		sts Timebase_type+16,__zero_reg__
  41 002c 1092 0000 		sts (Timebase_type+16)+1,__zero_reg__
  42 0030 1092 0000 		sts (Timebase_type+16)+2,__zero_reg__
  43 0034 1092 0000 		sts (Timebase_type+16)+3,__zero_reg__
  44               	.LM7:
  45 0038 1092 0000 		sts (Timebase_type+8)+1,__zero_reg__
  46 003c 1092 0000 		sts Timebase_type+8,__zero_reg__
  47               	.LM8:
  48 0040 1092 0000 		sts Timebase_type+10,__zero_reg__
  49 0044 1092 0000 		sts (Timebase_type+10)+1,__zero_reg__
  50 0048 1092 0000 		sts (Timebase_type+10)+2,__zero_reg__
  51 004c 1092 0000 		sts (Timebase_type+10)+3,__zero_reg__
  52               	.LM9:
  53 0050 1092 0000 		sts Timebase_type+20,__zero_reg__
  54               	.LM10:
  55 0054 1092 0000 		sts Timebase_type+4,__zero_reg__
  56 0058 1092 0000 		sts (Timebase_type+4)+1,__zero_reg__
  57 005c 1092 0000 		sts (Timebase_type+4)+2,__zero_reg__
  58 0060 1092 0000 		sts (Timebase_type+4)+3,__zero_reg__
  59               	.LM11:
  60 0064 1092 0000 		sts Timebase_type+21,__zero_reg__
  61               	.LBB221:
  62               	.LM12:
  63 0068 1092 0000 		sts Timebase_type+22,__zero_reg__
  64               	.LM13:
  65 006c 1092 0000 		sts Timebase_type+23,__zero_reg__
  66 0070 1092 0000 		sts (Timebase_type+23)+1,__zero_reg__
  67 0074 1092 0000 		sts (Timebase_type+23)+2,__zero_reg__
  68 0078 1092 0000 		sts (Timebase_type+23)+3,__zero_reg__
  69               	.LM14:
  70 007c 1092 0000 		sts Timebase_type+27,__zero_reg__
  71 0080 1092 0000 		sts (Timebase_type+27)+1,__zero_reg__
  72 0084 1092 0000 		sts (Timebase_type+27)+2,__zero_reg__
  73 0088 1092 0000 		sts (Timebase_type+27)+3,__zero_reg__
  74               	.LM15:
  75 008c 1092 0000 		sts Timebase_type+31,__zero_reg__
  76 0090 1092 0000 		sts (Timebase_type+31)+1,__zero_reg__
  77 0094 1092 0000 		sts (Timebase_type+31)+2,__zero_reg__
  78 0098 1092 0000 		sts (Timebase_type+31)+3,__zero_reg__
  79               	.LM16:
  80 009c 1092 0000 		sts Timebase_type+35,__zero_reg__
  81 00a0 1092 0000 		sts (Timebase_type+35)+1,__zero_reg__
  82 00a4 1092 0000 		sts (Timebase_type+35)+2,__zero_reg__
  83 00a8 1092 0000 		sts (Timebase_type+35)+3,__zero_reg__
  84               	.LM17:
  85 00ac 1092 0000 		sts Timebase_type+39,__zero_reg__
  86 00b0 1092 0000 		sts (Timebase_type+39)+1,__zero_reg__
  87 00b4 1092 0000 		sts (Timebase_type+39)+2,__zero_reg__
  88 00b8 1092 0000 		sts (Timebase_type+39)+3,__zero_reg__
  89               	/* epilogue start */
  90               	.LBE221:
  91               	.LM18:
  92 00bc 0895      		ret
  93               	.LFE6:
  95               	.global	Timebase_Timer_Enable
  97               	Timebase_Timer_Enable:
  98               	.LFB7:
  99               	.LM19:
 100               	.LVL0:
 101 00be 8F92      		push r8
 102 00c0 9F92      		push r9
 103 00c2 BF92      		push r11
 104 00c4 CF92      		push r12
 105 00c6 DF92      		push r13
 106 00c8 EF92      		push r14
 107 00ca FF92      		push r15
 108 00cc 0F93      		push r16
 109 00ce 1F93      		push r17
 110 00d0 DF93      		push r29
 111 00d2 CF93      		push r28
 112 00d4 CDB7      		in r28,__SP_L__
 113 00d6 DEB7      		in r29,__SP_H__
 114 00d8 2A97      		sbiw r28,10
 115 00da 0FB6      		in __tmp_reg__,__SREG__
 116 00dc F894      		cli
 117 00de DEBF      		out __SP_H__,r29
 118 00e0 0FBE      		out __SREG__,__tmp_reg__
 119 00e2 CDBF      		out __SP_L__,r28
 120               	/* prologue: function */
 121               	/* frame size = 10 */
 122 00e4 4C01      		movw r8,r24
 123               	.LM20:
 124 00e6 DE01      		movw r26,r28
 125 00e8 1196      		adiw r26,1
 126 00ea E0E0      		ldi r30,lo8(C.1.1769)
 127 00ec F0E0      		ldi r31,hi8(C.1.1769)
 128 00ee 8AE0      		ldi r24,lo8(10)
 129               	.LVL1:
 130               	.L4:
 131 00f0 0190      		ld r0,Z+
 132 00f2 0D92      		st X+,r0
 133 00f4 8150      		subi r24,lo8(-(-1))
 134 00f6 01F4      		brne .L4
 135               	.LM21:
 136 00f8 9401      		movw r18,r8
 137 00fa 40E0      		ldi r20,lo8(0)
 138 00fc 50E0      		ldi r21,hi8(0)
 139               	.LVL2:
 140 00fe 60E0      		ldi r22,lo8(12000000)
 141 0100 7BE1      		ldi r23,hi8(12000000)
 142 0102 87EB      		ldi r24,hlo8(12000000)
 143 0104 90E0      		ldi r25,hhi8(12000000)
 144 0106 0E94 0000 		call __divmodsi4
 145 010a B22E      		mov r11,r18
 146 010c C32E      		mov r12,r19
 147 010e D42E      		mov r13,r20
 148               	.LVL3:
 149 0110 052F      		mov r16,r21
 150 0112 7E01      		movw r14,r28
 151 0114 0894      		sec
 152 0116 E11C      		adc r14,__zero_reg__
 153 0118 F11C      		adc r15,__zero_reg__
 154 011a C901      		movw r24,r18
 155 011c DA01      		movw r26,r20
 156 011e 9C01      		movw r18,r24
 157 0120 AD01      		movw r20,r26
 158               	.LVL4:
 159 0122 10E0      		ldi r17,lo8(0)
 160               	.LVL5:
 161 0124 00C0      		rjmp .L5
 162               	.LVL6:
 163               	.L7:
 164               	.LM22:
 165 0126 F701      		movw r30,r14
 166 0128 2191      		ld r18,Z+
 167 012a 3191      		ld r19,Z+
 168               	.LVL7:
 169 012c 7F01      		movw r14,r30
 170 012e 40E0      		ldi r20,lo8(0)
 171 0130 50E0      		ldi r21,hi8(0)
 172 0132 6B2D      		mov r22,r11
 173 0134 7C2D      		mov r23,r12
 174 0136 8D2D      		mov r24,r13
 175               	.LVL8:
 176 0138 902F      		mov r25,r16
 177 013a 0E94 0000 		call __divmodsi4
 178 013e C901      		movw r24,r18
 179 0140 DA01      		movw r26,r20
 180 0142 9C01      		movw r18,r24
 181 0144 AD01      		movw r20,r26
 182               	.LVL9:
 183               	.LM23:
 184 0146 1F5F      		subi r17,lo8(-(1))
 185               	.LM24:
 186 0148 1530      		cpi r17,lo8(5)
 187 014a 01F0      		breq .L6
 188               	.LVL10:
 189               	.L5:
 190               	.LM25:
 191 014c 2F3F      		cpi r18,lo8(255)
 192 014e 3105      		cpc r19,__zero_reg__
 193 0150 4105      		cpc r20,__zero_reg__
 194 0152 5105      		cpc r21,__zero_reg__
 195 0154 01F0      		breq .+2
 196 0156 04F4      		brge .L7
 197               	.L6:
 198               	.LM26:
 199 0158 812F      		mov r24,r17
 200 015a 8150      		subi r24,lo8(-(-1))
 201               	.LVL11:
 202               	.LM27:
 203 015c 14BC      		out 68-32,__zero_reg__
 204               	.LM28:
 205 015e 15BC      		out 69-32,__zero_reg__
 206               	.LM29:
 207 0160 1092 6E00 		sts 110,__zero_reg__
 208               	.LM30:
 209 0164 15BA      		out 53-32,__zero_reg__
 210               	.LM31:
 211 0166 17BC      		out 71-32,__zero_reg__
 212               	.LM32:
 213 0168 18BC      		out 72-32,__zero_reg__
 214               	.LM33:
 215 016a 16BC      		out 70-32,__zero_reg__
 216               	.LM34:
 217 016c 17BC      		out 71-32,__zero_reg__
 218               	.LM35:
 219 016e 8823      		tst r24
 220 0170 01F4      		brne .L8
 221               	.LM36:
 222 0172 81E0      		ldi r24,lo8(1)
 223               	.LVL12:
 224 0174 00C0      		rjmp .L15
 225               	.LVL13:
 226               	.L8:
 227               	.LM37:
 228 0176 8130      		cpi r24,lo8(1)
 229 0178 01F4      		brne .L10
 230               	.LM38:
 231 017a 82E0      		ldi r24,lo8(2)
 232               	.LVL14:
 233 017c 00C0      		rjmp .L15
 234               	.LVL15:
 235               	.L10:
 236               	.LM39:
 237 017e 8230      		cpi r24,lo8(2)
 238 0180 01F4      		brne .L11
 239               	.LM40:
 240 0182 83E0      		ldi r24,lo8(3)
 241               	.LVL16:
 242 0184 00C0      		rjmp .L15
 243               	.LVL17:
 244               	.L11:
 245               	.LM41:
 246 0186 8330      		cpi r24,lo8(3)
 247 0188 01F4      		brne .L12
 248               	.LM42:
 249 018a 84E0      		ldi r24,lo8(4)
 250               	.LVL18:
 251 018c 00C0      		rjmp .L15
 252               	.LVL19:
 253               	.L12:
 254               	.LM43:
 255 018e 8430      		cpi r24,lo8(4)
 256 0190 01F4      		brne .L9
 257               	.LM44:
 258 0192 85E0      		ldi r24,lo8(5)
 259               	.LVL20:
 260               	.L15:
 261 0194 85BD      		out 69-32,r24
 262               	.LVL21:
 263               	.L9:
 264               	.LM45:
 265 0196 E091 0000 		lds r30,Timebase
 266 019a F091 0000 		lds r31,(Timebase)+1
 267 019e 8FEF      		ldi r24,lo8(255)
 268 01a0 90E0      		ldi r25,hi8(255)
 269               	.LVL22:
 270 01a2 821B      		sub r24,r18
 271 01a4 930B      		sbc r25,r19
 272 01a6 9383      		std Z+3,r25
 273 01a8 8283      		std Z+2,r24
 274               	.LM46:
 275 01aa 8281      		ldd r24,Z+2
 276 01ac 9381      		ldd r25,Z+3
 277 01ae 86BD      		out 70-32,r24
 278               	.LM47:
 279 01b0 81E0      		ldi r24,lo8(1)
 280 01b2 8093 6E00 		sts 110,r24
 281               	.LM48:
 282               	/* #APP */
 283               	 ;  353 "timebase.c" 1
 284 01b6 7894      		sei
 285               	 ;  0 "" 2
 286               	.LM49:
 287               	/* #NOAPP */
 288 01b8 9182      		std Z+1,r9
 289 01ba 8082      		st Z,r8
 290               	/* epilogue start */
 291               	.LM50:
 292 01bc 2A96      		adiw r28,10
 293 01be 0FB6      		in __tmp_reg__,__SREG__
 294 01c0 F894      		cli
 295 01c2 DEBF      		out __SP_H__,r29
 296 01c4 0FBE      		out __SREG__,__tmp_reg__
 297 01c6 CDBF      		out __SP_L__,r28
 298 01c8 CF91      		pop r28
 299 01ca DF91      		pop r29
 300 01cc 1F91      		pop r17
 301 01ce 0F91      		pop r16
 302 01d0 FF90      		pop r15
 303 01d2 EF90      		pop r14
 304 01d4 DF90      		pop r13
 305 01d6 CF90      		pop r12
 306 01d8 BF90      		pop r11
 307 01da 9F90      		pop r9
 308 01dc 8F90      		pop r8
 309               	.LVL23:
 310 01de 0895      		ret
 311               	.LFE7:
 313               	.global	Timebase_Timer_Disable
 315               	Timebase_Timer_Disable:
 316               	.LFB8:
 317               	.LM51:
 318               	/* prologue: function */
 319               	/* frame size = 0 */
 320               	.LM52:
 321 01e0 14BC      		out 68-32,__zero_reg__
 322               	.LM53:
 323 01e2 15BC      		out 69-32,__zero_reg__
 324               	.LM54:
 325 01e4 1092 6E00 		sts 110,__zero_reg__
 326               	.LM55:
 327 01e8 87E0      		ldi r24,lo8(7)
 328 01ea 85BB      		out 53-32,r24
 329               	.LM56:
 330 01ec 17BC      		out 71-32,__zero_reg__
 331               	.LM57:
 332 01ee 18BC      		out 72-32,__zero_reg__
 333               	.LM58:
 334 01f0 16BC      		out 70-32,__zero_reg__
 335               	/* epilogue start */
 336               	.LM59:
 337 01f2 0895      		ret
 338               	.LFE8:
 340               	.global	Timebase_Atomic_Operation_Start
 342               	Timebase_Atomic_Operation_Start:
 343               	.LFB9:
 344               	.LM60:
 345               	/* prologue: function */
 346               	/* frame size = 0 */
 347               	.LM61:
 348               	/* #APP */
 349               	 ;  431 "timebase.c" 1
 350 01f4 F894      		cli
 351               	 ;  0 "" 2
 352               	/* epilogue start */
 353               	.LM62:
 354               	/* #NOAPP */
 355 01f6 0895      		ret
 356               	.LFE9:
 358               	.global	Timebase_Atomic_Operation_End
 360               	Timebase_Atomic_Operation_End:
 361               	.LFB10:
 362               	.LM63:
 363               	/* prologue: function */
 364               	/* frame size = 0 */
 365               	.LM64:
 366               	/* #APP */
 367               	 ;  436 "timebase.c" 1
 368 01f8 7894      		sei
 369               	 ;  0 "" 2
 370               	/* epilogue start */
 371               	.LM65:
 372               	/* #NOAPP */
 373 01fa 0895      		ret
 374               	.LFE10:
 376               	.global	Timebase_Timer_Get_SubSecondsShadow
 378               	Timebase_Timer_Get_SubSecondsShadow:
 379               	.LFB12:
 380               	.LM66:
 381               	/* prologue: function */
 382               	/* frame size = 0 */
 383               	.LM67:
 384 01fc E091 0000 		lds r30,Timebase
 385 0200 F091 0000 		lds r31,(Timebase)+1
 386 0204 2685      		ldd r18,Z+14
 387 0206 3785      		ldd r19,Z+15
 388               	.LM68:
 389 0208 C901      		movw r24,r18
 390               	/* epilogue start */
 391 020a 0895      		ret
 392               	.LFE12:
 394               	.global	Timebase_Timer_Get_SecondsShadow
 396               	Timebase_Timer_Get_SecondsShadow:
 397               	.LFB13:
 398               	.LM69:
 399               	/* prologue: function */
 400               	/* frame size = 0 */
 401               	.LM70:
 402 020c E091 0000 		lds r30,Timebase
 403 0210 F091 0000 		lds r31,(Timebase)+1
 404 0214 2089      		ldd r18,Z+16
 405 0216 3189      		ldd r19,Z+17
 406 0218 4289      		ldd r20,Z+18
 407 021a 5389      		ldd r21,Z+19
 408               	.LM71:
 409 021c B901      		movw r22,r18
 410 021e CA01      		movw r24,r20
 411               	/* epilogue start */
 412 0220 0895      		ret
 413               	.LFE13:
 415               	.global	Timebase_Timer_Get_SubSeconds
 417               	Timebase_Timer_Get_SubSeconds:
 418               	.LFB14:
 419               	.LM72:
 420               	/* prologue: function */
 421               	/* frame size = 0 */
 422               	.LM73:
 423 0222 E091 0000 		lds r30,Timebase
 424 0226 F091 0000 		lds r31,(Timebase)+1
 425 022a 2085      		ldd r18,Z+8
 426 022c 3185      		ldd r19,Z+9
 427               	.LM74:
 428 022e C901      		movw r24,r18
 429               	/* epilogue start */
 430 0230 0895      		ret
 431               	.LFE14:
 433               	.global	Timebase_Timer_Get_Seconds
 435               	Timebase_Timer_Get_Seconds:
 436               	.LFB15:
 437               	.LM75:
 438               	/* prologue: function */
 439               	/* frame size = 0 */
 440               	.LM76:
 441 0232 E091 0000 		lds r30,Timebase
 442 0236 F091 0000 		lds r31,(Timebase)+1
 443 023a 2285      		ldd r18,Z+10
 444 023c 3385      		ldd r19,Z+11
 445 023e 4485      		ldd r20,Z+12
 446 0240 5585      		ldd r21,Z+13
 447               	.LM77:
 448 0242 B901      		movw r22,r18
 449 0244 CA01      		movw r24,r20
 450               	/* epilogue start */
 451 0246 0895      		ret
 452               	.LFE15:
 454               	.global	Timebase_Timer_Set_SubSeconds
 456               	Timebase_Timer_Set_SubSeconds:
 457               	.LFB16:
 458               	.LM78:
 459               	.LVL24:
 460               	/* prologue: function */
 461               	/* frame size = 0 */
 462               	.LM79:
 463 0248 E091 0000 		lds r30,Timebase
 464 024c F091 0000 		lds r31,(Timebase)+1
 465 0250 9187      		std Z+9,r25
 466 0252 8087      		std Z+8,r24
 467               	/* epilogue start */
 468               	.LM80:
 469 0254 0895      		ret
 470               	.LFE16:
 472               	.global	Timebase_Timer_Set_Seconds
 474               	Timebase_Timer_Set_Seconds:
 475               	.LFB17:
 476               	.LM81:
 477               	.LVL25:
 478               	/* prologue: function */
 479               	/* frame size = 0 */
 480               	.LM82:
 481 0256 E091 0000 		lds r30,Timebase
 482 025a F091 0000 		lds r31,(Timebase)+1
 483 025e 6287      		std Z+10,r22
 484 0260 7387      		std Z+11,r23
 485 0262 8487      		std Z+12,r24
 486 0264 9587      		std Z+13,r25
 487               	/* epilogue start */
 488               	.LM83:
 489 0266 0895      		ret
 490               	.LFE17:
 492               	.global	Timebase_Timer_Get_SubSecondsShadow_Securely
 494               	Timebase_Timer_Get_SubSecondsShadow_Securely:
 495               	.LFB18:
 496               	.LM84:
 497               	/* prologue: function */
 498               	/* frame size = 0 */
 499               	.LM85:
 500 0268 E091 0000 		lds r30,Timebase
 501 026c F091 0000 		lds r31,(Timebase)+1
 502               	.L35:
 503 0270 2685      		ldd r18,Z+14
 504 0272 3785      		ldd r19,Z+15
 505               	.LVL26:
 506               	.LM86:
 507 0274 8685      		ldd r24,Z+14
 508 0276 9785      		ldd r25,Z+15
 509               	.LVL27:
 510               	.LM87:
 511 0278 2817      		cp r18,r24
 512 027a 3907      		cpc r19,r25
 513 027c 01F4      		brne .L35
 514               	.LM88:
 515 027e C901      		movw r24,r18
 516               	.LVL28:
 517               	/* epilogue start */
 518 0280 0895      		ret
 519               	.LFE18:
 521               	.global	Timebase_Timer_Get_SecondsShadow_Securely
 523               	Timebase_Timer_Get_SecondsShadow_Securely:
 524               	.LFB19:
 525               	.LM89:
 526               	/* prologue: function */
 527               	/* frame size = 0 */
 528               	.LM90:
 529 0282 E091 0000 		lds r30,Timebase
 530 0286 F091 0000 		lds r31,(Timebase)+1
 531               	.L39:
 532 028a 2089      		ldd r18,Z+16
 533 028c 3189      		ldd r19,Z+17
 534 028e 4289      		ldd r20,Z+18
 535 0290 5389      		ldd r21,Z+19
 536               	.LVL29:
 537               	.LM91:
 538 0292 8089      		ldd r24,Z+16
 539 0294 9189      		ldd r25,Z+17
 540 0296 A289      		ldd r26,Z+18
 541 0298 B389      		ldd r27,Z+19
 542               	.LVL30:
 543               	.LM92:
 544 029a 2817      		cp r18,r24
 545 029c 3907      		cpc r19,r25
 546 029e 4A07      		cpc r20,r26
 547 02a0 5B07      		cpc r21,r27
 548 02a2 01F4      		brne .L39
 549               	.LM93:
 550 02a4 B901      		movw r22,r18
 551               	.LVL31:
 552 02a6 CA01      		movw r24,r20
 553               	.LVL32:
 554               	/* epilogue start */
 555 02a8 0895      		ret
 556               	.LFE19:
 558               	.global	Timebase_Timer_Sync_With_Shadow_Variables
 560               	Timebase_Timer_Sync_With_Shadow_Variables:
 561               	.LFB20:
 562               	.LM94:
 563               	/* prologue: function */
 564               	/* frame size = 0 */
 565               	.LM95:
 566 02aa E091 0000 		lds r30,Timebase
 567 02ae F091 0000 		lds r31,(Timebase)+1
 568 02b2 8489      		ldd r24,Z+20
 569 02b4 8823      		tst r24
 570 02b6 01F4      		brne .L46
 571               	.L47:
 572               	.LBB222:
 573               	.LBB223:
 574               	.LM96:
 575 02b8 2685      		ldd r18,Z+14
 576 02ba 3785      		ldd r19,Z+15
 577               	.LVL33:
 578               	.LM97:
 579 02bc 8685      		ldd r24,Z+14
 580 02be 9785      		ldd r25,Z+15
 581               	.LVL34:
 582               	.LM98:
 583 02c0 2817      		cp r18,r24
 584 02c2 3907      		cpc r19,r25
 585 02c4 01F4      		brne .L47
 586               	.LBE223:
 587               	.LBE222:
 588               	.LM99:
 589 02c6 3187      		std Z+9,r19
 590 02c8 2087      		std Z+8,r18
 591               	.L45:
 592               	.LBB224:
 593               	.LBB225:
 594               	.LM100:
 595 02ca 2089      		ldd r18,Z+16
 596 02cc 3189      		ldd r19,Z+17
 597 02ce 4289      		ldd r20,Z+18
 598 02d0 5389      		ldd r21,Z+19
 599               	.LVL35:
 600               	.LM101:
 601 02d2 8089      		ldd r24,Z+16
 602 02d4 9189      		ldd r25,Z+17
 603 02d6 A289      		ldd r26,Z+18
 604 02d8 B389      		ldd r27,Z+19
 605               	.LVL36:
 606               	.LM102:
 607 02da 2817      		cp r18,r24
 608 02dc 3907      		cpc r19,r25
 609 02de 4A07      		cpc r20,r26
 610 02e0 5B07      		cpc r21,r27
 611 02e2 01F4      		brne .L45
 612               	.LBE225:
 613               	.LBE224:
 614               	.LM103:
 615 02e4 2287      		std Z+10,r18
 616 02e6 3387      		std Z+11,r19
 617 02e8 4487      		std Z+12,r20
 618 02ea 5587      		std Z+13,r21
 619               	.LM104:
 620 02ec 81E0      		ldi r24,lo8(1)
 621               	.LVL37:
 622 02ee 848B      		std Z+20,r24
 623               	.L46:
 624 02f0 0895      		ret
 625               	.LFE20:
 627               	.global	Timebase_Timer_Delay_SubSeconds
 629               	Timebase_Timer_Delay_SubSeconds:
 630               	.LFB21:
 631               	.LM105:
 632               	.LVL38:
 633 02f2 8F92      		push r8
 634 02f4 9F92      		push r9
 635 02f6 AF92      		push r10
 636 02f8 BF92      		push r11
 637 02fa CF92      		push r12
 638 02fc DF92      		push r13
 639 02fe EF92      		push r14
 640 0300 FF92      		push r15
 641 0302 0F93      		push r16
 642 0304 1F93      		push r17
 643 0306 CF93      		push r28
 644 0308 DF93      		push r29
 645               	/* prologue: function */
 646               	/* frame size = 0 */
 647 030a 5C01      		movw r10,r24
 648               	.LBB226:
 649               	.LBB227:
 650               	.LM106:
 651 030c C091 0000 		lds r28,Timebase
 652 0310 D091 0000 		lds r29,(Timebase)+1
 653               	.LVL39:
 654               	.L51:
 655 0314 CE84      		ldd r12,Y+14
 656 0316 DF84      		ldd r13,Y+15
 657               	.LVL40:
 658               	.LM107:
 659 0318 8E85      		ldd r24,Y+14
 660 031a 9F85      		ldd r25,Y+15
 661               	.LVL41:
 662               	.LM108:
 663 031c C816      		cp r12,r24
 664 031e D906      		cpc r13,r25
 665 0320 01F4      		brne .L51
 666               	.L59:
 667               	.LBE227:
 668               	.LBE226:
 669               	.LBB228:
 670               	.LBB229:
 671               	.LM109:
 672 0322 E888      		ldd r14,Y+16
 673 0324 F988      		ldd r15,Y+17
 674 0326 0A89      		ldd r16,Y+18
 675 0328 1B89      		ldd r17,Y+19
 676               	.LVL42:
 677               	.LM110:
 678 032a 8889      		ldd r24,Y+16
 679 032c 9989      		ldd r25,Y+17
 680 032e AA89      		ldd r26,Y+18
 681 0330 BB89      		ldd r27,Y+19
 682               	.LVL43:
 683               	.LM111:
 684 0332 E816      		cp r14,r24
 685 0334 F906      		cpc r15,r25
 686 0336 0A07      		cpc r16,r26
 687 0338 1B07      		cpc r17,r27
 688 033a 01F4      		brne .L59
 689               	.LBE229:
 690               	.LBE228:
 691               	.LM112:
 692 033c 2881      		ld r18,Y
 693 033e 3981      		ldd r19,Y+1
 694 0340 40E0      		ldi r20,lo8(0)
 695 0342 50E0      		ldi r21,hi8(0)
 696 0344 C801      		movw r24,r16
 697 0346 B701      		movw r22,r14
 698 0348 0E94 0000 		call __mulsi3
 699               	.LM113:
 700 034c 7601      		movw r14,r12
 701               	.LVL44:
 702 034e 00E0      		ldi r16,lo8(0)
 703 0350 10E0      		ldi r17,hi8(0)
 704               	.LVL45:
 705 0352 9501      		movw r18,r10
 706 0354 40E0      		ldi r20,lo8(0)
 707 0356 50E0      		ldi r21,hi8(0)
 708               	.LVL46:
 709 0358 E20E      		add r14,r18
 710 035a F31E      		adc r15,r19
 711 035c 041F      		adc r16,r20
 712 035e 151F      		adc r17,r21
 713               	.LVL47:
 714               	.LM114:
 715 0360 E60E      		add r14,r22
 716 0362 F71E      		adc r15,r23
 717 0364 081F      		adc r16,r24
 718 0366 191F      		adc r17,r25
 719 0368 20E0      		ldi r18,lo8(0)
 720 036a 30E0      		ldi r19,hi8(0)
 721 036c 40E0      		ldi r20,hlo8(0)
 722 036e 50E0      		ldi r21,hhi8(0)
 723               	.LVL48:
 724 0370 00C0      		rjmp .L53
 725               	.LVL49:
 726               	.L58:
 727               	.LBB230:
 728               	.LBB231:
 729               	.LM115:
 730 0372 8E84      		ldd r8,Y+14
 731 0374 9F84      		ldd r9,Y+15
 732               	.LM116:
 733 0376 8E85      		ldd r24,Y+14
 734 0378 9F85      		ldd r25,Y+15
 735               	.LVL50:
 736               	.LM117:
 737 037a 8816      		cp r8,r24
 738 037c 9906      		cpc r9,r25
 739 037e 01F4      		brne .L58
 740               	.LVL51:
 741               	.L57:
 742               	.LBE231:
 743               	.LBE230:
 744               	.LBB232:
 745               	.LBB233:
 746               	.LM118:
 747 0380 A888      		ldd r10,Y+16
 748 0382 B988      		ldd r11,Y+17
 749 0384 CA88      		ldd r12,Y+18
 750 0386 DB88      		ldd r13,Y+19
 751               	.LVL52:
 752               	.LM119:
 753 0388 8889      		ldd r24,Y+16
 754 038a 9989      		ldd r25,Y+17
 755 038c AA89      		ldd r26,Y+18
 756 038e BB89      		ldd r27,Y+19
 757               	.LVL53:
 758               	.LM120:
 759 0390 A816      		cp r10,r24
 760 0392 B906      		cpc r11,r25
 761 0394 CA06      		cpc r12,r26
 762 0396 DB06      		cpc r13,r27
 763 0398 01F4      		brne .L57
 764               	.LBE233:
 765               	.LBE232:
 766               	.LM121:
 767 039a 2881      		ld r18,Y
 768 039c 3981      		ldd r19,Y+1
 769               	.LVL54:
 770 039e 40E0      		ldi r20,lo8(0)
 771 03a0 50E0      		ldi r21,hi8(0)
 772               	.LVL55:
 773 03a2 C601      		movw r24,r12
 774 03a4 B501      		movw r22,r10
 775 03a6 0E94 0000 		call __mulsi3
 776               	.LVL56:
 777 03aa 9B01      		movw r18,r22
 778 03ac AC01      		movw r20,r24
 779               	.LVL57:
 780               	.LM122:
 781 03ae C401      		movw r24,r8
 782               	.LVL58:
 783 03b0 A0E0      		ldi r26,lo8(0)
 784 03b2 B0E0      		ldi r27,hi8(0)
 785               	.LVL59:
 786 03b4 280F      		add r18,r24
 787 03b6 391F      		adc r19,r25
 788 03b8 4A1F      		adc r20,r26
 789 03ba 5B1F      		adc r21,r27
 790               	.LVL60:
 791               	.L53:
 792               	.LM123:
 793 03bc 2E15      		cp r18,r14
 794 03be 3F05      		cpc r19,r15
 795 03c0 4007      		cpc r20,r16
 796 03c2 5107      		cpc r21,r17
 797 03c4 04F0      		brlt .L58
 798               	/* epilogue start */
 799               	.LM124:
 800 03c6 DF91      		pop r29
 801 03c8 CF91      		pop r28
 802 03ca 1F91      		pop r17
 803 03cc 0F91      		pop r16
 804               	.LVL61:
 805 03ce FF90      		pop r15
 806 03d0 EF90      		pop r14
 807               	.LVL62:
 808 03d2 DF90      		pop r13
 809 03d4 CF90      		pop r12
 810               	.LVL63:
 811 03d6 BF90      		pop r11
 812 03d8 AF90      		pop r10
 813               	.LVL64:
 814 03da 9F90      		pop r9
 815 03dc 8F90      		pop r8
 816 03de 0895      		ret
 817               	.LFE21:
 819               	.global	Timebase_Timer_Await_SubSeconds
 821               	Timebase_Timer_Await_SubSeconds:
 822               	.LFB22:
 823               	.LM125:
 824               	.LVL65:
 825 03e0 CF93      		push r28
 826 03e2 DF93      		push r29
 827               	/* prologue: function */
 828               	/* frame size = 0 */
 829 03e4 EC01      		movw r28,r24
 830               	.LBB234:
 831               	.LBB235:
 832               	.LM126:
 833 03e6 E091 0000 		lds r30,Timebase
 834 03ea F091 0000 		lds r31,(Timebase)+1
 835               	.LVL66:
 836               	.L66:
 837 03ee 6685      		ldd r22,Z+14
 838 03f0 7785      		ldd r23,Z+15
 839               	.LVL67:
 840               	.LM127:
 841 03f2 8685      		ldd r24,Z+14
 842 03f4 9785      		ldd r25,Z+15
 843               	.LVL68:
 844               	.LM128:
 845 03f6 6817      		cp r22,r24
 846 03f8 7907      		cpc r23,r25
 847 03fa 01F4      		brne .L66
 848 03fc 00C0      		rjmp .L75
 849               	.LVL69:
 850               	.L72:
 851               	.LBE235:
 852               	.LBE234:
 853               	.LBB236:
 854               	.LBB237:
 855               	.LM129:
 856 03fe 6685      		ldd r22,Z+14
 857 0400 7785      		ldd r23,Z+15
 858               	.LVL70:
 859               	.LM130:
 860 0402 8685      		ldd r24,Z+14
 861 0404 9785      		ldd r25,Z+15
 862               	.LVL71:
 863               	.LM131:
 864 0406 6817      		cp r22,r24
 865 0408 7907      		cpc r23,r25
 866 040a 01F4      		brne .L72
 867               	.LVL72:
 868               	.L75:
 869               	.LBE237:
 870               	.LBE236:
 871               	.LM132:
 872 040c 2481      		ldd r18,Z+4
 873 040e 3581      		ldd r19,Z+5
 874 0410 4681      		ldd r20,Z+6
 875 0412 5781      		ldd r21,Z+7
 876 0414 CB01      		movw r24,r22
 877               	.LVL73:
 878 0416 A0E0      		ldi r26,lo8(0)
 879 0418 B0E0      		ldi r27,hi8(0)
 880 041a 8217      		cp r24,r18
 881 041c 9307      		cpc r25,r19
 882 041e A407      		cpc r26,r20
 883 0420 B507      		cpc r27,r21
 884 0422 01F4      		brne .L72
 885               	.LVL74:
 886               	.L71:
 887               	.LBB238:
 888               	.LBB239:
 889               	.LM133:
 890 0424 2685      		ldd r18,Z+14
 891 0426 3785      		ldd r19,Z+15
 892               	.LVL75:
 893               	.LM134:
 894 0428 8685      		ldd r24,Z+14
 895 042a 9785      		ldd r25,Z+15
 896               	.LVL76:
 897               	.LM135:
 898 042c 2817      		cp r18,r24
 899 042e 3907      		cpc r19,r25
 900 0430 01F4      		brne .L71
 901               	.LBE239:
 902               	.LBE238:
 903               	.LM136:
 904 0432 C901      		movw r24,r18
 905               	.LVL77:
 906 0434 A0E0      		ldi r26,lo8(0)
 907 0436 B0E0      		ldi r27,hi8(0)
 908               	.LVL78:
 909 0438 8483      		std Z+4,r24
 910 043a 9583      		std Z+5,r25
 911 043c A683      		std Z+6,r26
 912 043e B783      		std Z+7,r27
 913               	.LM137:
 914 0440 2481      		ldd r18,Z+4
 915 0442 3581      		ldd r19,Z+5
 916 0444 4681      		ldd r20,Z+6
 917 0446 5781      		ldd r21,Z+7
 918               	.LVL79:
 919 0448 CE01      		movw r24,r28
 920 044a A0E0      		ldi r26,lo8(0)
 921 044c B0E0      		ldi r27,hi8(0)
 922               	.LVL80:
 923 044e 820F      		add r24,r18
 924 0450 931F      		adc r25,r19
 925 0452 A41F      		adc r26,r20
 926 0454 B51F      		adc r27,r21
 927               	.LVL81:
 928 0456 8483      		std Z+4,r24
 929 0458 9583      		std Z+5,r25
 930 045a A683      		std Z+6,r26
 931 045c B783      		std Z+7,r27
 932               	.LM138:
 933 045e 2481      		ldd r18,Z+4
 934 0460 3581      		ldd r19,Z+5
 935 0462 4681      		ldd r20,Z+6
 936 0464 5781      		ldd r21,Z+7
 937 0466 8081      		ld r24,Z
 938 0468 9181      		ldd r25,Z+1
 939               	.LVL82:
 940 046a A0E0      		ldi r26,lo8(0)
 941 046c B0E0      		ldi r27,hi8(0)
 942               	.LVL83:
 943 046e 2817      		cp r18,r24
 944 0470 3907      		cpc r19,r25
 945 0472 4A07      		cpc r20,r26
 946 0474 5B07      		cpc r21,r27
 947 0476 04F0      		brlt .L70
 948               	.LM139:
 949 0478 2481      		ldd r18,Z+4
 950 047a 3581      		ldd r19,Z+5
 951 047c 4681      		ldd r20,Z+6
 952 047e 5781      		ldd r21,Z+7
 953 0480 8081      		ld r24,Z
 954 0482 9181      		ldd r25,Z+1
 955 0484 A0E0      		ldi r26,lo8(0)
 956 0486 B0E0      		ldi r27,hi8(0)
 957 0488 281B      		sub r18,r24
 958 048a 390B      		sbc r19,r25
 959 048c 4A0B      		sbc r20,r26
 960 048e 5B0B      		sbc r21,r27
 961 0490 2483      		std Z+4,r18
 962 0492 3583      		std Z+5,r19
 963 0494 4683      		std Z+6,r20
 964 0496 5783      		std Z+7,r21
 965               	.L70:
 966               	/* epilogue start */
 967               	.LM140:
 968 0498 DF91      		pop r29
 969 049a CF91      		pop r28
 970 049c 0895      		ret
 971               	.LFE22:
 973               	.global	Timebase_Timer_Delay_Seconds
 975               	Timebase_Timer_Delay_Seconds:
 976               	.LFB23:
 977               	.LM141:
 978               	.LVL84:
 979 049e EF92      		push r14
 980 04a0 FF92      		push r15
 981 04a2 0F93      		push r16
 982 04a4 1F93      		push r17
 983               	/* prologue: function */
 984               	/* frame size = 0 */
 985 04a6 BC01      		movw r22,r24
 986               	.LBB240:
 987               	.LBB241:
 988               	.LM142:
 989 04a8 E091 0000 		lds r30,Timebase
 990 04ac F091 0000 		lds r31,(Timebase)+1
 991               	.LVL85:
 992               	.L77:
 993 04b0 2089      		ldd r18,Z+16
 994 04b2 3189      		ldd r19,Z+17
 995 04b4 4289      		ldd r20,Z+18
 996 04b6 5389      		ldd r21,Z+19
 997               	.LVL86:
 998               	.LM143:
 999 04b8 8089      		ldd r24,Z+16
 1000 04ba 9189      		ldd r25,Z+17
 1001 04bc A289      		ldd r26,Z+18
 1002 04be B389      		ldd r27,Z+19
 1003               	.LVL87:
 1004               	.LM144:
 1005 04c0 2817      		cp r18,r24
 1006 04c2 3907      		cpc r19,r25
 1007 04c4 4A07      		cpc r20,r26
 1008 04c6 5B07      		cpc r21,r27
 1009 04c8 01F4      		brne .L77
 1010               	.LBE241:
 1011               	.LBE240:
 1012               	.LM145:
 1013 04ca 7B01      		movw r14,r22
 1014               	.LVL88:
 1015 04cc 00E0      		ldi r16,lo8(0)
 1016 04ce 10E0      		ldi r17,hi8(0)
 1017               	.LVL89:
 1018 04d0 E20E      		add r14,r18
 1019 04d2 F31E      		adc r15,r19
 1020 04d4 041F      		adc r16,r20
 1021 04d6 151F      		adc r17,r21
 1022               	.LVL90:
 1023 04d8 20E0      		ldi r18,lo8(0)
 1024 04da 30E0      		ldi r19,hi8(0)
 1025 04dc 40E0      		ldi r20,hlo8(0)
 1026 04de 50E0      		ldi r21,hhi8(0)
 1027               	.LVL91:
 1028 04e0 00C0      		rjmp .L78
 1029               	.LVL92:
 1030               	.L81:
 1031               	.LBB242:
 1032               	.LBB243:
 1033               	.LM146:
 1034 04e2 2089      		ldd r18,Z+16
 1035 04e4 3189      		ldd r19,Z+17
 1036 04e6 4289      		ldd r20,Z+18
 1037 04e8 5389      		ldd r21,Z+19
 1038               	.LM147:
 1039 04ea 8089      		ldd r24,Z+16
 1040 04ec 9189      		ldd r25,Z+17
 1041 04ee A289      		ldd r26,Z+18
 1042 04f0 B389      		ldd r27,Z+19
 1043               	.LVL93:
 1044               	.LM148:
 1045 04f2 2817      		cp r18,r24
 1046 04f4 3907      		cpc r19,r25
 1047 04f6 4A07      		cpc r20,r26
 1048 04f8 5B07      		cpc r21,r27
 1049 04fa 01F4      		brne .L81
 1050               	.LVL94:
 1051               	.L78:
 1052               	.LBE243:
 1053               	.LBE242:
 1054               	.LM149:
 1055 04fc 2E15      		cp r18,r14
 1056 04fe 3F05      		cpc r19,r15
 1057 0500 4007      		cpc r20,r16
 1058 0502 5107      		cpc r21,r17
 1059 0504 04F0      		brlt .L81
 1060               	/* epilogue start */
 1061               	.LM150:
 1062 0506 1F91      		pop r17
 1063 0508 0F91      		pop r16
 1064               	.LVL95:
 1065 050a FF90      		pop r15
 1066 050c EF90      		pop r14
 1067               	.LVL96:
 1068 050e 0895      		ret
 1069               	.LFE23:
 1071               	.global	Timebase_DownCounter_SS_Get_Status
 1073               	Timebase_DownCounter_SS_Get_Status:
 1074               	.LFB24:
 1075               	.LM151:
 1076               	.LVL97:
 1077               	/* prologue: function */
 1078               	/* frame size = 0 */
 1079               	.LM152:
 1080 0510 E091 0000 		lds r30,Timebase
 1081 0514 F091 0000 		lds r31,(Timebase)+1
 1082 0518 90E0      		ldi r25,lo8(0)
 1083               	.LVL98:
 1084 051a 25E1      		ldi r18,lo8(21)
 1085 051c 30E0      		ldi r19,hi8(21)
 1086 051e AC01      		movw r20,r24
 1087 0520 429F      		mul r20,r18
 1088 0522 C001      		movw r24,r0
 1089 0524 439F      		mul r20,r19
 1090 0526 900D      		add r25,r0
 1091 0528 529F      		mul r21,r18
 1092 052a 900D      		add r25,r0
 1093 052c 1124      		clr r1
 1094               	.LVL99:
 1095 052e E80F      		add r30,r24
 1096 0530 F91F      		adc r31,r25
 1097 0532 8689      		ldd r24,Z+22
 1098 0534 8695      		lsr r24
 1099               	.LM153:
 1100 0536 8F70      		andi r24,lo8(15)
 1101               	/* epilogue start */
 1102 0538 0895      		ret
 1103               	.LFE24:
 1105               	.global	Timebase_DownCounter_SS_Set_Status
 1107               	Timebase_DownCounter_SS_Set_Status:
 1108               	.LFB25:
 1109               	.LM154:
 1110               	.LVL100:
 1111               	/* prologue: function */
 1112               	/* frame size = 0 */
 1113               	.LM155:
 1114 053a E091 0000 		lds r30,Timebase
 1115 053e F091 0000 		lds r31,(Timebase)+1
 1116 0542 90E0      		ldi r25,lo8(0)
 1117               	.LVL101:
 1118 0544 25E1      		ldi r18,lo8(21)
 1119 0546 30E0      		ldi r19,hi8(21)
 1120 0548 AC01      		movw r20,r24
 1121 054a 429F      		mul r20,r18
 1122 054c C001      		movw r24,r0
 1123 054e 439F      		mul r20,r19
 1124 0550 900D      		add r25,r0
 1125 0552 529F      		mul r21,r18
 1126 0554 900D      		add r25,r0
 1127 0556 1124      		clr r1
 1128               	.LVL102:
 1129 0558 E80F      		add r30,r24
 1130 055a F91F      		adc r31,r25
 1131 055c 6F70      		andi r22,lo8(15)
 1132               	.LVL103:
 1133 055e 660F      		lsl r22
 1134 0560 8689      		ldd r24,Z+22
 1135 0562 817E      		andi r24,lo8(-31)
 1136 0564 862B      		or r24,r22
 1137 0566 868B      		std Z+22,r24
 1138               	/* epilogue start */
 1139               	.LM156:
 1140 0568 0895      		ret
 1141               	.LFE25:
 1143               	.global	Timebase_DownCounter_SS_Get_Value
 1145               	Timebase_DownCounter_SS_Get_Value:
 1146               	.LFB26:
 1147               	.LM157:
 1148               	.LVL104:
 1149               	/* prologue: function */
 1150               	/* frame size = 0 */
 1151               	.LM158:
 1152 056a E091 0000 		lds r30,Timebase
 1153 056e F091 0000 		lds r31,(Timebase)+1
 1154 0572 90E0      		ldi r25,lo8(0)
 1155               	.LVL105:
 1156 0574 25E1      		ldi r18,lo8(21)
 1157 0576 30E0      		ldi r19,hi8(21)
 1158 0578 AC01      		movw r20,r24
 1159 057a 429F      		mul r20,r18
 1160 057c C001      		movw r24,r0
 1161 057e 439F      		mul r20,r19
 1162 0580 900D      		add r25,r0
 1163 0582 529F      		mul r21,r18
 1164 0584 900D      		add r25,r0
 1165 0586 1124      		clr r1
 1166               	.LVL106:
 1167 0588 E80F      		add r30,r24
 1168 058a F91F      		adc r31,r25
 1169 058c DF01      		movw r26,r30
 1170 058e 5F96      		adiw r26,31
 1171 0590 678D      		ldd r22,Z+31
 1172 0592 1196      		adiw r26,1
 1173 0594 7C91      		ld r23,X
 1174 0596 1197      		sbiw r26,1
 1175               	.LM159:
 1176 0598 1296      		adiw r26,2
 1177 059a 8C91      		ld r24,X
 1178 059c 1297      		sbiw r26,2
 1179 059e 1396      		adiw r26,3
 1180 05a0 9C91      		ld r25,X
 1181               	.LVL107:
 1182               	/* epilogue start */
 1183 05a2 0895      		ret
 1184               	.LFE26:
 1186               	.global	Timebase_DownCounter_SS_Set_Value
 1188               	Timebase_DownCounter_SS_Set_Value:
 1189               	.LFB27:
 1190               	.LM160:
 1191               	.LVL108:
 1192               	/* prologue: function */
 1193               	/* frame size = 0 */
 1194               	.LM161:
 1195 05a4 E091 0000 		lds r30,Timebase
 1196 05a8 F091 0000 		lds r31,(Timebase)+1
 1197 05ac 90E0      		ldi r25,lo8(0)
 1198               	.LVL109:
 1199 05ae 25E1      		ldi r18,lo8(21)
 1200 05b0 30E0      		ldi r19,hi8(21)
 1201 05b2 DC01      		movw r26,r24
 1202 05b4 A29F      		mul r26,r18
 1203 05b6 C001      		movw r24,r0
 1204 05b8 A39F      		mul r26,r19
 1205 05ba 900D      		add r25,r0
 1206 05bc B29F      		mul r27,r18
 1207 05be 900D      		add r25,r0
 1208 05c0 1124      		clr r1
 1209               	.LVL110:
 1210 05c2 E80F      		add r30,r24
 1211 05c4 F91F      		adc r31,r25
 1212 05c6 478F      		std Z+31,r20
 1213 05c8 50A3      		std Z+32,r21
 1214 05ca 61A3      		std Z+33,r22
 1215 05cc 72A3      		std Z+34,r23
 1216               	/* epilogue start */
 1217               	.LM162:
 1218 05ce 0895      		ret
 1219               	.LFE27:
 1221               	.global	Timebase_DownCounter_SS_Get_EndValueSec
 1223               	Timebase_DownCounter_SS_Get_EndValueSec:
 1224               	.LFB28:
 1225               	.LM163:
 1226               	.LVL111:
 1227               	/* prologue: function */
 1228               	/* frame size = 0 */
 1229               	.LM164:
 1230 05d0 E091 0000 		lds r30,Timebase
 1231 05d4 F091 0000 		lds r31,(Timebase)+1
 1232 05d8 90E0      		ldi r25,lo8(0)
 1233               	.LVL112:
 1234 05da 25E1      		ldi r18,lo8(21)
 1235 05dc 30E0      		ldi r19,hi8(21)
 1236 05de AC01      		movw r20,r24
 1237 05e0 429F      		mul r20,r18
 1238 05e2 C001      		movw r24,r0
 1239 05e4 439F      		mul r20,r19
 1240 05e6 900D      		add r25,r0
 1241 05e8 529F      		mul r21,r18
 1242 05ea 900D      		add r25,r0
 1243 05ec 1124      		clr r1
 1244               	.LVL113:
 1245 05ee E80F      		add r30,r24
 1246 05f0 F91F      		adc r31,r25
 1247 05f2 DF01      		movw r26,r30
 1248 05f4 5796      		adiw r26,23
 1249 05f6 6789      		ldd r22,Z+23
 1250 05f8 1196      		adiw r26,1
 1251 05fa 7C91      		ld r23,X
 1252 05fc 1197      		sbiw r26,1
 1253               	.LM165:
 1254 05fe 1296      		adiw r26,2
 1255 0600 8C91      		ld r24,X
 1256 0602 1297      		sbiw r26,2
 1257 0604 1396      		adiw r26,3
 1258 0606 9C91      		ld r25,X
 1259               	.LVL114:
 1260               	/* epilogue start */
 1261 0608 0895      		ret
 1262               	.LFE28:
 1264               	.global	Timebase_DownCounter_SS_Get_EndValueSubSec
 1266               	Timebase_DownCounter_SS_Get_EndValueSubSec:
 1267               	.LFB29:
 1268               	.LM166:
 1269               	.LVL115:
 1270               	/* prologue: function */
 1271               	/* frame size = 0 */
 1272               	.LM167:
 1273 060a E091 0000 		lds r30,Timebase
 1274 060e F091 0000 		lds r31,(Timebase)+1
 1275 0612 90E0      		ldi r25,lo8(0)
 1276               	.LVL116:
 1277 0614 25E1      		ldi r18,lo8(21)
 1278 0616 30E0      		ldi r19,hi8(21)
 1279 0618 AC01      		movw r20,r24
 1280 061a 429F      		mul r20,r18
 1281 061c C001      		movw r24,r0
 1282 061e 439F      		mul r20,r19
 1283 0620 900D      		add r25,r0
 1284 0622 529F      		mul r21,r18
 1285 0624 900D      		add r25,r0
 1286 0626 1124      		clr r1
 1287               	.LVL117:
 1288 0628 E80F      		add r30,r24
 1289 062a F91F      		adc r31,r25
 1290 062c DF01      		movw r26,r30
 1291 062e 5B96      		adiw r26,27
 1292 0630 638D      		ldd r22,Z+27
 1293 0632 1196      		adiw r26,1
 1294 0634 7C91      		ld r23,X
 1295 0636 1197      		sbiw r26,1
 1296               	.LM168:
 1297 0638 1296      		adiw r26,2
 1298 063a 8C91      		ld r24,X
 1299 063c 1297      		sbiw r26,2
 1300 063e 1396      		adiw r26,3
 1301 0640 9C91      		ld r25,X
 1302               	.LVL118:
 1303               	/* epilogue start */
 1304 0642 0895      		ret
 1305               	.LFE29:
 1307               	.global	Timebase_DownCounter_SS_Set_EndValueSec
 1309               	Timebase_DownCounter_SS_Set_EndValueSec:
 1310               	.LFB30:
 1311               	.LM169:
 1312               	.LVL119:
 1313               	/* prologue: function */
 1314               	/* frame size = 0 */
 1315               	.LM170:
 1316 0644 E091 0000 		lds r30,Timebase
 1317 0648 F091 0000 		lds r31,(Timebase)+1
 1318 064c 90E0      		ldi r25,lo8(0)
 1319               	.LVL120:
 1320 064e 25E1      		ldi r18,lo8(21)
 1321 0650 30E0      		ldi r19,hi8(21)
 1322 0652 DC01      		movw r26,r24
 1323 0654 A29F      		mul r26,r18
 1324 0656 C001      		movw r24,r0
 1325 0658 A39F      		mul r26,r19
 1326 065a 900D      		add r25,r0
 1327 065c B29F      		mul r27,r18
 1328 065e 900D      		add r25,r0
 1329 0660 1124      		clr r1
 1330               	.LVL121:
 1331 0662 E80F      		add r30,r24
 1332 0664 F91F      		adc r31,r25
 1333 0666 478B      		std Z+23,r20
 1334 0668 508F      		std Z+24,r21
 1335 066a 618F      		std Z+25,r22
 1336 066c 728F      		std Z+26,r23
 1337               	/* epilogue start */
 1338               	.LM171:
 1339 066e 0895      		ret
 1340               	.LFE30:
 1342               	.global	Timebase_DownCounter_SS_Set_EndValueSubSec
 1344               	Timebase_DownCounter_SS_Set_EndValueSubSec:
 1345               	.LFB31:
 1346               	.LM172:
 1347               	.LVL122:
 1348               	/* prologue: function */
 1349               	/* frame size = 0 */
 1350               	.LM173:
 1351 0670 E091 0000 		lds r30,Timebase
 1352 0674 F091 0000 		lds r31,(Timebase)+1
 1353 0678 90E0      		ldi r25,lo8(0)
 1354               	.LVL123:
 1355 067a 25E1      		ldi r18,lo8(21)
 1356 067c 30E0      		ldi r19,hi8(21)
 1357 067e DC01      		movw r26,r24
 1358 0680 A29F      		mul r26,r18
 1359 0682 C001      		movw r24,r0
 1360 0684 A39F      		mul r26,r19
 1361 0686 900D      		add r25,r0
 1362 0688 B29F      		mul r27,r18
 1363 068a 900D      		add r25,r0
 1364 068c 1124      		clr r1
 1365               	.LVL124:
 1366 068e E80F      		add r30,r24
 1367 0690 F91F      		adc r31,r25
 1368 0692 438F      		std Z+27,r20
 1369 0694 548F      		std Z+28,r21
 1370 0696 658F      		std Z+29,r22
 1371 0698 768F      		std Z+30,r23
 1372               	/* epilogue start */
 1373               	.LM174:
 1374 069a 0895      		ret
 1375               	.LFE31:
 1377               	.global	Timebase_DownCounter_SS_Get_PeriodValue
 1379               	Timebase_DownCounter_SS_Get_PeriodValue:
 1380               	.LFB32:
 1381               	.LM175:
 1382               	.LVL125:
 1383               	/* prologue: function */
 1384               	/* frame size = 0 */
 1385               	.LM176:
 1386 069c E091 0000 		lds r30,Timebase
 1387 06a0 F091 0000 		lds r31,(Timebase)+1
 1388 06a4 90E0      		ldi r25,lo8(0)
 1389               	.LVL126:
 1390 06a6 25E1      		ldi r18,lo8(21)
 1391 06a8 30E0      		ldi r19,hi8(21)
 1392 06aa AC01      		movw r20,r24
 1393 06ac 429F      		mul r20,r18
 1394 06ae C001      		movw r24,r0
 1395 06b0 439F      		mul r20,r19
 1396 06b2 900D      		add r25,r0
 1397 06b4 529F      		mul r21,r18
 1398 06b6 900D      		add r25,r0
 1399 06b8 1124      		clr r1
 1400               	.LVL127:
 1401 06ba E80F      		add r30,r24
 1402 06bc F91F      		adc r31,r25
 1403 06be DF01      		movw r26,r30
 1404 06c0 9396      		adiw r26,35
 1405 06c2 63A1      		ldd r22,Z+35
 1406 06c4 1196      		adiw r26,1
 1407 06c6 7C91      		ld r23,X
 1408 06c8 1197      		sbiw r26,1
 1409               	.LM177:
 1410 06ca 1296      		adiw r26,2
 1411 06cc 8C91      		ld r24,X
 1412 06ce 1297      		sbiw r26,2
 1413 06d0 1396      		adiw r26,3
 1414 06d2 9C91      		ld r25,X
 1415               	.LVL128:
 1416               	/* epilogue start */
 1417 06d4 0895      		ret
 1418               	.LFE32:
 1420               	.global	Timebase_DownCounter_SS_Set_PeriodValue
 1422               	Timebase_DownCounter_SS_Set_PeriodValue:
 1423               	.LFB33:
 1424               	.LM178:
 1425               	.LVL129:
 1426               	/* prologue: function */
 1427               	/* frame size = 0 */
 1428 06d6 E091 0000 		lds r30,Timebase
 1429 06da F091 0000 		lds r31,(Timebase)+1
 1430 06de 282F      		mov r18,r24
 1431 06e0 30E0      		ldi r19,lo8(0)
 1432               	.LVL130:
 1433               	.LM179:
 1434 06e2 77FF      		sbrs r23,7
 1435 06e4 00C0      		rjmp .L103
 1436               	.LVL131:
 1437               	.LM180:
 1438 06e6 85E1      		ldi r24,lo8(21)
 1439 06e8 90E0      		ldi r25,hi8(21)
 1440 06ea AC01      		movw r20,r24
 1441               	.LVL132:
 1442 06ec 249F      		mul r18,r20
 1443 06ee C001      		movw r24,r0
 1444 06f0 259F      		mul r18,r21
 1445 06f2 900D      		add r25,r0
 1446 06f4 349F      		mul r19,r20
 1447 06f6 900D      		add r25,r0
 1448 06f8 1124      		clr r1
 1449 06fa E80F      		add r30,r24
 1450 06fc F91F      		adc r31,r25
 1451 06fe 13A2      		std Z+35,__zero_reg__
 1452 0700 14A2      		std Z+36,__zero_reg__
 1453 0702 15A2      		std Z+37,__zero_reg__
 1454 0704 16A2      		std Z+38,__zero_reg__
 1455 0706 0895      		ret
 1456               	.LVL133:
 1457               	.L103:
 1458               	.LM181:
 1459 0708 85E1      		ldi r24,lo8(21)
 1460 070a 90E0      		ldi r25,hi8(21)
 1461 070c DC01      		movw r26,r24
 1462 070e 2A9F      		mul r18,r26
 1463 0710 C001      		movw r24,r0
 1464 0712 2B9F      		mul r18,r27
 1465 0714 900D      		add r25,r0
 1466 0716 3A9F      		mul r19,r26
 1467 0718 900D      		add r25,r0
 1468 071a 1124      		clr r1
 1469 071c E80F      		add r30,r24
 1470 071e F91F      		adc r31,r25
 1471 0720 43A3      		std Z+35,r20
 1472 0722 54A3      		std Z+36,r21
 1473 0724 65A3      		std Z+37,r22
 1474 0726 76A3      		std Z+38,r23
 1475 0728 0895      		ret
 1476               	.LFE33:
 1478               	.global	Timebase_DownCounter_SS_Get_Period_Flag
 1480               	Timebase_DownCounter_SS_Get_Period_Flag:
 1481               	.LFB34:
 1482               	.LM182:
 1483               	.LVL134:
 1484               	/* prologue: function */
 1485               	/* frame size = 0 */
 1486               	.LM183:
 1487 072a E091 0000 		lds r30,Timebase
 1488 072e F091 0000 		lds r31,(Timebase)+1
 1489 0732 90E0      		ldi r25,lo8(0)
 1490               	.LVL135:
 1491 0734 25E1      		ldi r18,lo8(21)
 1492 0736 30E0      		ldi r19,hi8(21)
 1493 0738 AC01      		movw r20,r24
 1494 073a 429F      		mul r20,r18
 1495 073c C001      		movw r24,r0
 1496 073e 439F      		mul r20,r19
 1497 0740 900D      		add r25,r0
 1498 0742 529F      		mul r21,r18
 1499 0744 900D      		add r25,r0
 1500 0746 1124      		clr r1
 1501               	.LVL136:
 1502 0748 E80F      		add r30,r24
 1503 074a F91F      		adc r31,r25
 1504 074c 8689      		ldd r24,Z+22
 1505               	.LM184:
 1506 074e 8170      		andi r24,lo8(1)
 1507               	/* epilogue start */
 1508 0750 0895      		ret
 1509               	.LFE34:
 1511               	.global	Timebase_DownCounter_SS_Set_Period_Flag
 1513               	Timebase_DownCounter_SS_Set_Period_Flag:
 1514               	.LFB35:
 1515               	.LM185:
 1516               	.LVL137:
 1517               	/* prologue: function */
 1518               	/* frame size = 0 */
 1519               	.LM186:
 1520 0752 E091 0000 		lds r30,Timebase
 1521 0756 F091 0000 		lds r31,(Timebase)+1
 1522 075a 90E0      		ldi r25,lo8(0)
 1523               	.LVL138:
 1524 075c 25E1      		ldi r18,lo8(21)
 1525 075e 30E0      		ldi r19,hi8(21)
 1526 0760 AC01      		movw r20,r24
 1527 0762 429F      		mul r20,r18
 1528 0764 C001      		movw r24,r0
 1529 0766 439F      		mul r20,r19
 1530 0768 900D      		add r25,r0
 1531 076a 529F      		mul r21,r18
 1532 076c 900D      		add r25,r0
 1533 076e 1124      		clr r1
 1534               	.LVL139:
 1535 0770 E80F      		add r30,r24
 1536 0772 F91F      		adc r31,r25
 1537 0774 8689      		ldd r24,Z+22
 1538 0776 8160      		ori r24,lo8(1)
 1539 0778 868B      		std Z+22,r24
 1540               	/* epilogue start */
 1541               	.LM187:
 1542 077a 0895      		ret
 1543               	.LFE35:
 1545               	.global	Timebase_DownCounter_SS_Clear_Period_Flag
 1547               	Timebase_DownCounter_SS_Clear_Period_Flag:
 1548               	.LFB36:
 1549               	.LM188:
 1550               	.LVL140:
 1551               	/* prologue: function */
 1552               	/* frame size = 0 */
 1553               	.LM189:
 1554 077c E091 0000 		lds r30,Timebase
 1555 0780 F091 0000 		lds r31,(Timebase)+1
 1556 0784 90E0      		ldi r25,lo8(0)
 1557               	.LVL141:
 1558 0786 25E1      		ldi r18,lo8(21)
 1559 0788 30E0      		ldi r19,hi8(21)
 1560 078a AC01      		movw r20,r24
 1561 078c 429F      		mul r20,r18
 1562 078e C001      		movw r24,r0
 1563 0790 439F      		mul r20,r19
 1564 0792 900D      		add r25,r0
 1565 0794 529F      		mul r21,r18
 1566 0796 900D      		add r25,r0
 1567 0798 1124      		clr r1
 1568               	.LVL142:
 1569 079a E80F      		add r30,r24
 1570 079c F91F      		adc r31,r25
 1571 079e 8689      		ldd r24,Z+22
 1572 07a0 8E7F      		andi r24,lo8(-2)
 1573 07a2 868B      		std Z+22,r24
 1574               	/* epilogue start */
 1575               	.LM190:
 1576 07a4 0895      		ret
 1577               	.LFE36:
 1579               	.global	Timebase_DownCounter_SS_Get_ReloadValue
 1581               	Timebase_DownCounter_SS_Get_ReloadValue:
 1582               	.LFB37:
 1583               	.LM191:
 1584               	.LVL143:
 1585               	/* prologue: function */
 1586               	/* frame size = 0 */
 1587               	.LM192:
 1588 07a6 E091 0000 		lds r30,Timebase
 1589 07aa F091 0000 		lds r31,(Timebase)+1
 1590 07ae 90E0      		ldi r25,lo8(0)
 1591               	.LVL144:
 1592 07b0 25E1      		ldi r18,lo8(21)
 1593 07b2 30E0      		ldi r19,hi8(21)
 1594 07b4 AC01      		movw r20,r24
 1595 07b6 429F      		mul r20,r18
 1596 07b8 C001      		movw r24,r0
 1597 07ba 439F      		mul r20,r19
 1598 07bc 900D      		add r25,r0
 1599 07be 529F      		mul r21,r18
 1600 07c0 900D      		add r25,r0
 1601 07c2 1124      		clr r1
 1602               	.LVL145:
 1603 07c4 E80F      		add r30,r24
 1604 07c6 F91F      		adc r31,r25
 1605 07c8 DF01      		movw r26,r30
 1606 07ca 9796      		adiw r26,39
 1607 07cc 67A1      		ldd r22,Z+39
 1608 07ce 1196      		adiw r26,1
 1609 07d0 7C91      		ld r23,X
 1610 07d2 1197      		sbiw r26,1
 1611               	.LM193:
 1612 07d4 1296      		adiw r26,2
 1613 07d6 8C91      		ld r24,X
 1614 07d8 1297      		sbiw r26,2
 1615 07da 1396      		adiw r26,3
 1616 07dc 9C91      		ld r25,X
 1617               	.LVL146:
 1618               	/* epilogue start */
 1619 07de 0895      		ret
 1620               	.LFE37:
 1622               	.global	Timebase_DownCounter_SS_Set_ReloadValue
 1624               	Timebase_DownCounter_SS_Set_ReloadValue:
 1625               	.LFB38:
 1626               	.LM194:
 1627               	.LVL147:
 1628               	/* prologue: function */
 1629               	/* frame size = 0 */
 1630               	.LM195:
 1631 07e0 E091 0000 		lds r30,Timebase
 1632 07e4 F091 0000 		lds r31,(Timebase)+1
 1633 07e8 90E0      		ldi r25,lo8(0)
 1634               	.LVL148:
 1635 07ea 25E1      		ldi r18,lo8(21)
 1636 07ec 30E0      		ldi r19,hi8(21)
 1637 07ee DC01      		movw r26,r24
 1638 07f0 A29F      		mul r26,r18
 1639 07f2 C001      		movw r24,r0
 1640 07f4 A39F      		mul r26,r19
 1641 07f6 900D      		add r25,r0
 1642 07f8 B29F      		mul r27,r18
 1643 07fa 900D      		add r25,r0
 1644 07fc 1124      		clr r1
 1645               	.LVL149:
 1646 07fe E80F      		add r30,r24
 1647 0800 F91F      		adc r31,r25
 1648 0802 47A3      		std Z+39,r20
 1649 0804 50A7      		std Z+40,r21
 1650 0806 61A7      		std Z+41,r22
 1651 0808 72A7      		std Z+42,r23
 1652               	/* epilogue start */
 1653               	.LM196:
 1654 080a 0895      		ret
 1655               	.LFE38:
 1657               	.global	Timebase_DownCounter_SS_Reset
 1659               	Timebase_DownCounter_SS_Reset:
 1660               	.LFB39:
 1661               	.LM197:
 1662               	.LVL150:
 1663               	/* prologue: function */
 1664               	/* frame size = 0 */
 1665               	.LBB244:
 1666               	.LBB245:
 1667               	.LM198:
 1668 080c E091 0000 		lds r30,Timebase
 1669 0810 F091 0000 		lds r31,(Timebase)+1
 1670 0814 90E0      		ldi r25,lo8(0)
 1671 0816 25E1      		ldi r18,lo8(21)
 1672 0818 30E0      		ldi r19,hi8(21)
 1673 081a AC01      		movw r20,r24
 1674               	.LVL151:
 1675 081c 429F      		mul r20,r18
 1676 081e C001      		movw r24,r0
 1677 0820 439F      		mul r20,r19
 1678 0822 900D      		add r25,r0
 1679 0824 529F      		mul r21,r18
 1680 0826 900D      		add r25,r0
 1681 0828 1124      		clr r1
 1682 082a E80F      		add r30,r24
 1683 082c F91F      		adc r31,r25
 1684 082e 138E      		std Z+27,__zero_reg__
 1685 0830 148E      		std Z+28,__zero_reg__
 1686 0832 158E      		std Z+29,__zero_reg__
 1687 0834 168E      		std Z+30,__zero_reg__
 1688               	.LBE245:
 1689               	.LBE244:
 1690               	.LBB246:
 1691               	.LBB247:
 1692               	.LM199:
 1693 0836 178A      		std Z+23,__zero_reg__
 1694 0838 108E      		std Z+24,__zero_reg__
 1695 083a 118E      		std Z+25,__zero_reg__
 1696 083c 128E      		std Z+26,__zero_reg__
 1697               	.LBE247:
 1698               	.LBE246:
 1699               	.LBB248:
 1700               	.LBB249:
 1701               	.LM200:
 1702 083e 178E      		std Z+31,__zero_reg__
 1703 0840 10A2      		std Z+32,__zero_reg__
 1704 0842 11A2      		std Z+33,__zero_reg__
 1705 0844 12A2      		std Z+34,__zero_reg__
 1706               	.LBE249:
 1707               	.LBE248:
 1708               	.LBB250:
 1709               	.LBB251:
 1710               	.LM201:
 1711 0846 8689      		ldd r24,Z+22
 1712               	.LBE251:
 1713               	.LBE250:
 1714               	.LBB252:
 1715               	.LBB253:
 1716               	.LM202:
 1717 0848 807E      		andi r24,lo8(-32)
 1718 084a 868B      		std Z+22,r24
 1719               	.LBE253:
 1720               	.LBE252:
 1721               	.LBB254:
 1722               	.LBB255:
 1723               	.LM203:
 1724 084c 17A2      		std Z+39,__zero_reg__
 1725 084e 10A6      		std Z+40,__zero_reg__
 1726 0850 11A6      		std Z+41,__zero_reg__
 1727 0852 12A6      		std Z+42,__zero_reg__
 1728               	/* epilogue start */
 1729               	.LBE255:
 1730               	.LBE254:
 1731               	.LM204:
 1732 0854 0895      		ret
 1733               	.LFE39:
 1735               	.global	Timebase_DownCounter_SS_Clear_All_Flags
 1737               	Timebase_DownCounter_SS_Clear_All_Flags:
 1738               	.LFB40:
 1739               	.LM205:
 1740               	.LVL152:
 1741               	/* prologue: function */
 1742               	/* frame size = 0 */
 1743               	.LBB256:
 1744               	.LBB257:
 1745               	.LBB258:
 1746               	.LBB259:
 1747               	.LM206:
 1748 0856 E091 0000 		lds r30,Timebase
 1749 085a F091 0000 		lds r31,(Timebase)+1
 1750 085e 90E0      		ldi r25,lo8(0)
 1751 0860 25E1      		ldi r18,lo8(21)
 1752 0862 30E0      		ldi r19,hi8(21)
 1753 0864 AC01      		movw r20,r24
 1754               	.LVL153:
 1755 0866 429F      		mul r20,r18
 1756 0868 C001      		movw r24,r0
 1757 086a 439F      		mul r20,r19
 1758 086c 900D      		add r25,r0
 1759 086e 529F      		mul r21,r18
 1760 0870 900D      		add r25,r0
 1761 0872 1124      		clr r1
 1762 0874 E80F      		add r30,r24
 1763 0876 F91F      		adc r31,r25
 1764 0878 138E      		std Z+27,__zero_reg__
 1765 087a 148E      		std Z+28,__zero_reg__
 1766 087c 158E      		std Z+29,__zero_reg__
 1767 087e 168E      		std Z+30,__zero_reg__
 1768               	.LBE259:
 1769               	.LBE258:
 1770               	.LBB260:
 1771               	.LBB261:
 1772               	.LM207:
 1773 0880 178A      		std Z+23,__zero_reg__
 1774 0882 108E      		std Z+24,__zero_reg__
 1775 0884 118E      		std Z+25,__zero_reg__
 1776 0886 128E      		std Z+26,__zero_reg__
 1777               	.LBE261:
 1778               	.LBE260:
 1779               	.LBB262:
 1780               	.LBB263:
 1781               	.LM208:
 1782 0888 178E      		std Z+31,__zero_reg__
 1783 088a 10A2      		std Z+32,__zero_reg__
 1784 088c 11A2      		std Z+33,__zero_reg__
 1785 088e 12A2      		std Z+34,__zero_reg__
 1786               	.LBE263:
 1787               	.LBE262:
 1788               	.LBB264:
 1789               	.LBB265:
 1790               	.LM209:
 1791 0890 8689      		ldd r24,Z+22
 1792               	.LBE265:
 1793               	.LBE264:
 1794               	.LBB266:
 1795               	.LBB267:
 1796               	.LM210:
 1797 0892 807E      		andi r24,lo8(-32)
 1798 0894 868B      		std Z+22,r24
 1799               	.LBE267:
 1800               	.LBE266:
 1801               	.LBB268:
 1802               	.LBB269:
 1803               	.LM211:
 1804 0896 17A2      		std Z+39,__zero_reg__
 1805 0898 10A6      		std Z+40,__zero_reg__
 1806 089a 11A6      		std Z+41,__zero_reg__
 1807 089c 12A6      		std Z+42,__zero_reg__
 1808               	/* epilogue start */
 1809               	.LBE269:
 1810               	.LBE268:
 1811               	.LBE257:
 1812               	.LBE256:
 1813               	.LM212:
 1814 089e 0895      		ret
 1815               	.LFE40:
 1817               	.global	Timebase_DownCounter_SS_Start
 1819               	Timebase_DownCounter_SS_Start:
 1820               	.LFB41:
 1821               	.LM213:
 1822               	.LVL154:
 1823               	/* prologue: function */
 1824               	/* frame size = 0 */
 1825               	.LBB270:
 1826               	.LBB271:
 1827               	.LM214:
 1828 08a0 E091 0000 		lds r30,Timebase
 1829 08a4 F091 0000 		lds r31,(Timebase)+1
 1830 08a8 90E0      		ldi r25,lo8(0)
 1831               	.LBE271:
 1832               	.LBE270:
 1833               	.LM215:
 1834 08aa 25E1      		ldi r18,lo8(21)
 1835 08ac 30E0      		ldi r19,hi8(21)
 1836 08ae AC01      		movw r20,r24
 1837               	.LVL155:
 1838 08b0 429F      		mul r20,r18
 1839 08b2 C001      		movw r24,r0
 1840 08b4 439F      		mul r20,r19
 1841 08b6 900D      		add r25,r0
 1842 08b8 529F      		mul r21,r18
 1843 08ba 900D      		add r25,r0
 1844 08bc 1124      		clr r1
 1845 08be E80F      		add r30,r24
 1846 08c0 F91F      		adc r31,r25
 1847 08c2 9689      		ldd r25,Z+22
 1848 08c4 892F      		mov r24,r25
 1849 08c6 8695      		lsr r24
 1850 08c8 8F70      		andi r24,lo8(15)
 1851 08ca 8130      		cpi r24,lo8(1)
 1852 08cc 01F0      		breq .L122
 1853               	.LBB272:
 1854               	.LBB273:
 1855               	.LM216:
 1856 08ce 917E      		andi r25,lo8(-31)
 1857 08d0 9260      		ori r25,lo8(2)
 1858 08d2 968B      		std Z+22,r25
 1859               	.L122:
 1860 08d4 0895      		ret
 1861               	.LBE273:
 1862               	.LBE272:
 1863               	.LFE41:
 1865               	.global	Timebase_DownCounter_SS_Stop
 1867               	Timebase_DownCounter_SS_Stop:
 1868               	.LFB42:
 1869               	.LM217:
 1870               	.LVL156:
 1871               	/* prologue: function */
 1872               	/* frame size = 0 */
 1873               	.LBB274:
 1874               	.LBB275:
 1875               	.LM218:
 1876 08d6 E091 0000 		lds r30,Timebase
 1877 08da F091 0000 		lds r31,(Timebase)+1
 1878 08de 90E0      		ldi r25,lo8(0)
 1879               	.LBE275:
 1880               	.LBE274:
 1881               	.LM219:
 1882 08e0 25E1      		ldi r18,lo8(21)
 1883 08e2 30E0      		ldi r19,hi8(21)
 1884 08e4 AC01      		movw r20,r24
 1885               	.LVL157:
 1886 08e6 429F      		mul r20,r18
 1887 08e8 C001      		movw r24,r0
 1888 08ea 439F      		mul r20,r19
 1889 08ec 900D      		add r25,r0
 1890 08ee 529F      		mul r21,r18
 1891 08f0 900D      		add r25,r0
 1892 08f2 1124      		clr r1
 1893 08f4 E80F      		add r30,r24
 1894 08f6 F91F      		adc r31,r25
 1895 08f8 9689      		ldd r25,Z+22
 1896 08fa 892F      		mov r24,r25
 1897 08fc 8695      		lsr r24
 1898 08fe 8F70      		andi r24,lo8(15)
 1899 0900 8230      		cpi r24,lo8(2)
 1900 0902 01F0      		breq .L125
 1901               	.LBB276:
 1902               	.LBB277:
 1903               	.LM220:
 1904 0904 917E      		andi r25,lo8(-31)
 1905 0906 9460      		ori r25,lo8(4)
 1906 0908 968B      		std Z+22,r25
 1907               	.L125:
 1908 090a 0895      		ret
 1909               	.LBE277:
 1910               	.LBE276:
 1911               	.LFE42:
 1913               	.global	Timebase_DownCounter_SS_Set_Securely
 1915               	Timebase_DownCounter_SS_Set_Securely:
 1916               	.LFB43:
 1917               	.LM221:
 1918               	.LVL158:
 1919 090c 2F92      		push r2
 1920 090e 3F92      		push r3
 1921 0910 4F92      		push r4
 1922 0912 5F92      		push r5
 1923 0914 6F92      		push r6
 1924 0916 7F92      		push r7
 1925 0918 8F92      		push r8
 1926 091a 9F92      		push r9
 1927 091c AF92      		push r10
 1928 091e BF92      		push r11
 1929 0920 CF92      		push r12
 1930 0922 DF92      		push r13
 1931 0924 EF92      		push r14
 1932 0926 FF92      		push r15
 1933 0928 0F93      		push r16
 1934 092a 1F93      		push r17
 1935 092c DF93      		push r29
 1936 092e CF93      		push r28
 1937 0930 CDB7      		in r28,__SP_L__
 1938 0932 DEB7      		in r29,__SP_H__
 1939 0934 2897      		sbiw r28,8
 1940 0936 0FB6      		in __tmp_reg__,__SREG__
 1941 0938 F894      		cli
 1942 093a DEBF      		out __SP_H__,r29
 1943 093c 0FBE      		out __SREG__,__tmp_reg__
 1944 093e CDBF      		out __SP_L__,r28
 1945               	/* prologue: function */
 1946               	/* frame size = 8 */
 1947 0940 1A01      		movw r2,r20
 1948 0942 2B01      		movw r4,r22
 1949               	.LBB278:
 1950               	.LBB279:
 1951               	.LM222:
 1952 0944 2091 0000 		lds r18,Timebase
 1953 0948 3091 0000 		lds r19,(Timebase)+1
 1954 094c 3887      		std Y+8,r19
 1955 094e 2F83      		std Y+7,r18
 1956 0950 A82F      		mov r26,r24
 1957 0952 B0E0      		ldi r27,lo8(0)
 1958 0954 BA83      		std Y+2,r27
 1959 0956 A983      		std Y+1,r26
 1960               	.LBE279:
 1961               	.LBE278:
 1962               	.LM223:
 1963 0958 85E1      		ldi r24,lo8(21)
 1964 095a 90E0      		ldi r25,hi8(21)
 1965               	.LVL159:
 1966 095c A89F      		mul r26,r24
 1967 095e F001      		movw r30,r0
 1968 0960 A99F      		mul r26,r25
 1969 0962 F00D      		add r31,r0
 1970 0964 B89F      		mul r27,r24
 1971 0966 F00D      		add r31,r0
 1972 0968 1124      		clr r1
 1973 096a E20F      		add r30,r18
 1974 096c F31F      		adc r31,r19
 1975 096e 8689      		ldd r24,Z+22
 1976 0970 8695      		lsr r24
 1977 0972 8F70      		andi r24,lo8(15)
 1978 0974 01F0      		breq .+2
 1979 0976 00C0      		rjmp .L129
 1980               	.LVL160:
 1981               	.LBB280:
 1982               	.LBB281:
 1983               	.LM224:
 1984 0978 478F      		std Z+31,r20
 1985 097a 50A3      		std Z+32,r21
 1986 097c 61A3      		std Z+33,r22
 1987 097e 72A3      		std Z+34,r23
 1988               	.LBE281:
 1989               	.LBE280:
 1990               	.LBB282:
 1991               	.LBB283:
 1992               	.LM225:
 1993 0980 F901      		movw r30,r18
 1994 0982 C084      		ldd r12,Z+8
 1995 0984 D184      		ldd r13,Z+9
 1996               	.LBE283:
 1997               	.LBE282:
 1998               	.LBB284:
 1999               	.LBB285:
 2000               	.LM226:
 2001 0986 D901      		movw r26,r18
 2002 0988 1A96      		adiw r26,10
 2003 098a 8D91      		ld r24,X+
 2004 098c 9D91      		ld r25,X+
 2005 098e 0D90      		ld __tmp_reg__,X+
 2006 0990 BC91      		ld r27,X
 2007 0992 A02D      		mov r26,__tmp_reg__
 2008 0994 8B83      		std Y+3,r24
 2009 0996 9C83      		std Y+4,r25
 2010 0998 AD83      		std Y+5,r26
 2011 099a BE83      		std Y+6,r27
 2012               	.LVL161:
 2013               	.LBE285:
 2014               	.LBE284:
 2015               	.LM227:
 2016 099c 2081      		ld r18,Z
 2017 099e 3181      		ldd r19,Z+1
 2018 09a0 40E0      		ldi r20,lo8(0)
 2019 09a2 50E0      		ldi r21,hi8(0)
 2020 09a4 C201      		movw r24,r4
 2021 09a6 B101      		movw r22,r2
 2022 09a8 0E94 0000 		call __divmodsi4
 2023 09ac 7B01      		movw r14,r22
 2024 09ae 8C01      		movw r16,r24
 2025               	.LM228:
 2026 09b0 EF81      		ldd r30,Y+7
 2027 09b2 F885      		ldd r31,Y+8
 2028 09b4 2081      		ld r18,Z
 2029 09b6 3181      		ldd r19,Z+1
 2030 09b8 40E0      		ldi r20,lo8(0)
 2031 09ba 50E0      		ldi r21,hi8(0)
 2032 09bc C201      		movw r24,r4
 2033 09be B101      		movw r22,r2
 2034 09c0 0E94 0000 		call __divmodsi4
 2035 09c4 C901      		movw r24,r18
 2036 09c6 DA01      		movw r26,r20
 2037 09c8 3C01      		movw r6,r24
 2038 09ca 4D01      		movw r8,r26
 2039               	.LVL162:
 2040               	.LM229:
 2041 09cc 5601      		movw r10,r12
 2042               	.LVL163:
 2043 09ce CC24      		clr r12
 2044 09d0 DD24      		clr r13
 2045               	.LVL164:
 2046 09d2 AE0C      		add r10,r14
 2047 09d4 BF1C      		adc r11,r15
 2048 09d6 C01E      		adc r12,r16
 2049 09d8 D11E      		adc r13,r17
 2050               	.LVL165:
 2051               	.LM230:
 2052 09da AF81      		ldd r26,Y+7
 2053 09dc B885      		ldd r27,Y+8
 2054 09de 8D91      		ld r24,X+
 2055 09e0 9C91      		ld r25,X
 2056               	.LVL166:
 2057 09e2 A0E0      		ldi r26,lo8(0)
 2058 09e4 B0E0      		ldi r27,hi8(0)
 2059 09e6 A816      		cp r10,r24
 2060 09e8 B906      		cpc r11,r25
 2061 09ea CA06      		cpc r12,r26
 2062 09ec DB06      		cpc r13,r27
 2063 09ee 04F0      		brlt .L128
 2064               	.LM231:
 2065 09f0 0894      		sec
 2066 09f2 611C      		adc r6,__zero_reg__
 2067 09f4 711C      		adc r7,__zero_reg__
 2068 09f6 811C      		adc r8,__zero_reg__
 2069 09f8 911C      		adc r9,__zero_reg__
 2070               	.LM232:
 2071 09fa EF81      		ldd r30,Y+7
 2072 09fc F885      		ldd r31,Y+8
 2073 09fe 2081      		ld r18,Z
 2074 0a00 3181      		ldd r19,Z+1
 2075 0a02 40E0      		ldi r20,lo8(0)
 2076 0a04 50E0      		ldi r21,hi8(0)
 2077 0a06 C601      		movw r24,r12
 2078 0a08 B501      		movw r22,r10
 2079 0a0a 0E94 0000 		call __divmodsi4
 2080 0a0e AC01      		movw r20,r24
 2081 0a10 CB01      		movw r24,r22
 2082 0a12 DA01      		movw r26,r20
 2083 0a14 5C01      		movw r10,r24
 2084 0a16 6D01      		movw r12,r26
 2085               	.L128:
 2086               	.LBB286:
 2087               	.LBB287:
 2088               	.LM233:
 2089 0a18 85E1      		ldi r24,lo8(21)
 2090 0a1a 90E0      		ldi r25,hi8(21)
 2091 0a1c 2981      		ldd r18,Y+1
 2092 0a1e 3A81      		ldd r19,Y+2
 2093 0a20 289F      		mul r18,r24
 2094 0a22 A001      		movw r20,r0
 2095 0a24 299F      		mul r18,r25
 2096 0a26 500D      		add r21,r0
 2097 0a28 389F      		mul r19,r24
 2098 0a2a 500D      		add r21,r0
 2099 0a2c 1124      		clr r1
 2100 0a2e 8F81      		ldd r24,Y+7
 2101 0a30 9885      		ldd r25,Y+8
 2102 0a32 480F      		add r20,r24
 2103 0a34 591F      		adc r21,r25
 2104 0a36 8B81      		ldd r24,Y+3
 2105 0a38 9C81      		ldd r25,Y+4
 2106 0a3a AD81      		ldd r26,Y+5
 2107 0a3c BE81      		ldd r27,Y+6
 2108 0a3e 860D      		add r24,r6
 2109 0a40 971D      		adc r25,r7
 2110 0a42 A81D      		adc r26,r8
 2111 0a44 B91D      		adc r27,r9
 2112 0a46 FA01      		movw r30,r20
 2113 0a48 878B      		std Z+23,r24
 2114 0a4a 908F      		std Z+24,r25
 2115 0a4c A18F      		std Z+25,r26
 2116 0a4e B28F      		std Z+26,r27
 2117               	.LBE287:
 2118               	.LBE286:
 2119               	.LBB288:
 2120               	.LBB289:
 2121               	.LM234:
 2122 0a50 DA01      		movw r26,r20
 2123 0a52 5B96      		adiw r26,27
 2124 0a54 AD92      		st X+,r10
 2125 0a56 BD92      		st X+,r11
 2126 0a58 CD92      		st X+,r12
 2127 0a5a DC92      		st X,r13
 2128 0a5c 5E97      		sbiw r26,27+3
 2129               	.LBE289:
 2130               	.LBE288:
 2131               	.LBB290:
 2132               	.LBB291:
 2133               	.LM235:
 2134 0a5e 27A2      		std Z+39,r2
 2135 0a60 30A6      		std Z+40,r3
 2136 0a62 41A6      		std Z+41,r4
 2137 0a64 52A6      		std Z+42,r5
 2138               	.LBE291:
 2139               	.LBE290:
 2140               	.LBB292:
 2141               	.LBB293:
 2142               	.LM236:
 2143 0a66 9689      		ldd r25,Z+22
 2144 0a68 892F      		mov r24,r25
 2145 0a6a 8695      		lsr r24
 2146 0a6c 8F70      		andi r24,lo8(15)
 2147 0a6e 8130      		cpi r24,lo8(1)
 2148 0a70 01F0      		breq .L129
 2149               	.LBB294:
 2150               	.LBB295:
 2151               	.LM237:
 2152 0a72 917E      		andi r25,lo8(-31)
 2153 0a74 9260      		ori r25,lo8(2)
 2154 0a76 968B      		std Z+22,r25
 2155               	.LVL167:
 2156               	.L129:
 2157               	/* epilogue start */
 2158               	.LBE295:
 2159               	.LBE294:
 2160               	.LBE293:
 2161               	.LBE292:
 2162               	.LM238:
 2163 0a78 2896      		adiw r28,8
 2164 0a7a 0FB6      		in __tmp_reg__,__SREG__
 2165 0a7c F894      		cli
 2166 0a7e DEBF      		out __SP_H__,r29
 2167 0a80 0FBE      		out __SREG__,__tmp_reg__
 2168 0a82 CDBF      		out __SP_L__,r28
 2169 0a84 CF91      		pop r28
 2170 0a86 DF91      		pop r29
 2171 0a88 1F91      		pop r17
 2172 0a8a 0F91      		pop r16
 2173 0a8c FF90      		pop r15
 2174 0a8e EF90      		pop r14
 2175 0a90 DF90      		pop r13
 2176 0a92 CF90      		pop r12
 2177               	.LVL168:
 2178 0a94 BF90      		pop r11
 2179 0a96 AF90      		pop r10
 2180               	.LVL169:
 2181 0a98 9F90      		pop r9
 2182 0a9a 8F90      		pop r8
 2183 0a9c 7F90      		pop r7
 2184 0a9e 6F90      		pop r6
 2185               	.LVL170:
 2186 0aa0 5F90      		pop r5
 2187 0aa2 4F90      		pop r4
 2188 0aa4 3F90      		pop r3
 2189 0aa6 2F90      		pop r2
 2190               	.LVL171:
 2191 0aa8 0895      		ret
 2192               	.LFE43:
 2194               	.global	Timebase_DownCounter_SS_Set_Forcefully
 2196               	Timebase_DownCounter_SS_Set_Forcefully:
 2197               	.LFB44:
 2198               	.LM239:
 2199               	.LVL172:
 2200 0aaa CF92      		push r12
 2201 0aac DF92      		push r13
 2202 0aae EF92      		push r14
 2203 0ab0 FF92      		push r15
 2204 0ab2 0F93      		push r16
 2205 0ab4 1F93      		push r17
 2206               	/* prologue: function */
 2207               	/* frame size = 0 */
 2208 0ab6 7A01      		movw r14,r20
 2209 0ab8 8B01      		movw r16,r22
 2210               	.LBB296:
 2211               	.LBB297:
 2212               	.LBB298:
 2213               	.LBB299:
 2214               	.LM240:
 2215 0aba E091 0000 		lds r30,Timebase
 2216 0abe F091 0000 		lds r31,(Timebase)+1
 2217 0ac2 482F      		mov r20,r24
 2218               	.LVL173:
 2219 0ac4 50E0      		ldi r21,lo8(0)
 2220 0ac6 25E1      		ldi r18,lo8(21)
 2221 0ac8 30E0      		ldi r19,hi8(21)
 2222 0aca 429F      		mul r20,r18
 2223 0acc 6001      		movw r12,r0
 2224 0ace 439F      		mul r20,r19
 2225 0ad0 D00C      		add r13,r0
 2226 0ad2 529F      		mul r21,r18
 2227 0ad4 D00C      		add r13,r0
 2228 0ad6 1124      		clr r1
 2229 0ad8 EC0D      		add r30,r12
 2230 0ada FD1D      		adc r31,r13
 2231 0adc 138E      		std Z+27,__zero_reg__
 2232 0ade 148E      		std Z+28,__zero_reg__
 2233 0ae0 158E      		std Z+29,__zero_reg__
 2234 0ae2 168E      		std Z+30,__zero_reg__
 2235               	.LBE299:
 2236               	.LBE298:
 2237               	.LBB300:
 2238               	.LBB301:
 2239               	.LM241:
 2240 0ae4 178A      		std Z+23,__zero_reg__
 2241 0ae6 108E      		std Z+24,__zero_reg__
 2242 0ae8 118E      		std Z+25,__zero_reg__
 2243 0aea 128E      		std Z+26,__zero_reg__
 2244               	.LBE301:
 2245               	.LBE300:
 2246               	.LBB302:
 2247               	.LBB303:
 2248               	.LM242:
 2249 0aec 178E      		std Z+31,__zero_reg__
 2250 0aee 10A2      		std Z+32,__zero_reg__
 2251 0af0 11A2      		std Z+33,__zero_reg__
 2252 0af2 12A2      		std Z+34,__zero_reg__
 2253               	.LBE303:
 2254               	.LBE302:
 2255               	.LBB304:
 2256               	.LBB305:
 2257               	.LM243:
 2258 0af4 9689      		ldd r25,Z+22
 2259               	.LBE305:
 2260               	.LBE304:
 2261               	.LBB306:
 2262               	.LBB307:
 2263               	.LM244:
 2264 0af6 907E      		andi r25,lo8(-32)
 2265 0af8 968B      		std Z+22,r25
 2266               	.LBE307:
 2267               	.LBE306:
 2268               	.LBB308:
 2269               	.LBB309:
 2270               	.LM245:
 2271 0afa 17A2      		std Z+39,__zero_reg__
 2272 0afc 10A6      		std Z+40,__zero_reg__
 2273 0afe 11A6      		std Z+41,__zero_reg__
 2274 0b00 12A6      		std Z+42,__zero_reg__
 2275               	.LBE309:
 2276               	.LBE308:
 2277               	.LBE297:
 2278               	.LBE296:
 2279               	.LM246:
 2280 0b02 B801      		movw r22,r16
 2281 0b04 A701      		movw r20,r14
 2282 0b06 0E94 0000 		call Timebase_DownCounter_SS_Set_Securely
 2283               	.LVL174:
 2284               	.LBB310:
 2285               	.LBB311:
 2286               	.LM247:
 2287 0b0a E091 0000 		lds r30,Timebase
 2288 0b0e F091 0000 		lds r31,(Timebase)+1
 2289 0b12 EC0D      		add r30,r12
 2290 0b14 FD1D      		adc r31,r13
 2291 0b16 E7A2      		std Z+39,r14
 2292 0b18 F0A6      		std Z+40,r15
 2293 0b1a 01A7      		std Z+41,r16
 2294 0b1c 12A7      		std Z+42,r17
 2295               	/* epilogue start */
 2296               	.LBE311:
 2297               	.LBE310:
 2298               	.LM248:
 2299 0b1e 1F91      		pop r17
 2300 0b20 0F91      		pop r16
 2301 0b22 FF90      		pop r15
 2302 0b24 EF90      		pop r14
 2303               	.LVL175:
 2304 0b26 DF90      		pop r13
 2305 0b28 CF90      		pop r12
 2306 0b2a 0895      		ret
 2307               	.LFE44:
 2309               	.global	Timebase_DownCounter_SS_Update
 2311               	Timebase_DownCounter_SS_Update:
 2312               	.LFB45:
 2313               	.LM249:
 2314               	.LVL176:
 2315 0b2c 2F92      		push r2
 2316 0b2e 3F92      		push r3
 2317 0b30 4F92      		push r4
 2318 0b32 5F92      		push r5
 2319 0b34 6F92      		push r6
 2320 0b36 7F92      		push r7
 2321 0b38 8F92      		push r8
 2322 0b3a 9F92      		push r9
 2323 0b3c AF92      		push r10
 2324 0b3e BF92      		push r11
 2325 0b40 CF92      		push r12
 2326 0b42 DF92      		push r13
 2327 0b44 EF92      		push r14
 2328 0b46 FF92      		push r15
 2329 0b48 0F93      		push r16
 2330 0b4a 1F93      		push r17
 2331 0b4c CF93      		push r28
 2332 0b4e DF93      		push r29
 2333               	/* prologue: function */
 2334               	/* frame size = 0 */
 2335               	.LBB312:
 2336               	.LBB313:
 2337               	.LM250:
 2338 0b50 E091 0000 		lds r30,Timebase
 2339 0b54 F091 0000 		lds r31,(Timebase)+1
 2340 0b58 90E0      		ldi r25,lo8(0)
 2341 0b5a 25E1      		ldi r18,lo8(21)
 2342 0b5c 30E0      		ldi r19,hi8(21)
 2343 0b5e 829F      		mul r24,r18
 2344 0b60 E001      		movw r28,r0
 2345 0b62 839F      		mul r24,r19
 2346 0b64 D00D      		add r29,r0
 2347 0b66 929F      		mul r25,r18
 2348 0b68 D00D      		add r29,r0
 2349 0b6a 1124      		clr r1
 2350               	.LVL177:
 2351 0b6c CE0F      		add r28,r30
 2352 0b6e DF1F      		adc r29,r31
 2353 0b70 8E89      		ldd r24,Y+22
 2354 0b72 8695      		lsr r24
 2355 0b74 8F70      		andi r24,lo8(15)
 2356               	.LBE313:
 2357               	.LBE312:
 2358               	.LM251:
 2359 0b76 8130      		cpi r24,lo8(1)
 2360 0b78 01F0      		breq .+2
 2361 0b7a 00C0      		rjmp .L133
 2362               	.LBB314:
 2363               	.LBB315:
 2364               	.LM252:
 2365 0b7c E084      		ldd r14,Z+8
 2366 0b7e F184      		ldd r15,Z+9
 2367               	.LBE315:
 2368               	.LBE314:
 2369               	.LM253:
 2370 0b80 00E0      		ldi r16,lo8(0)
 2371 0b82 10E0      		ldi r17,hi8(0)
 2372               	.LVL178:
 2373               	.LBB316:
 2374               	.LBB317:
 2375               	.LM254:
 2376 0b84 8285      		ldd r24,Z+10
 2377 0b86 9385      		ldd r25,Z+11
 2378 0b88 A485      		ldd r26,Z+12
 2379 0b8a B585      		ldd r27,Z+13
 2380               	.LVL179:
 2381               	.LBE317:
 2382               	.LBE316:
 2383               	.LM255:
 2384 0b8c 2F89      		ldd r18,Y+23
 2385 0b8e 388D      		ldd r19,Y+24
 2386 0b90 498D      		ldd r20,Y+25
 2387 0b92 5A8D      		ldd r21,Y+26
 2388 0b94 281B      		sub r18,r24
 2389 0b96 390B      		sbc r19,r25
 2390 0b98 4A0B      		sbc r20,r26
 2391 0b9a 5B0B      		sbc r21,r27
 2392               	.LM256:
 2393 0b9c 6081      		ld r22,Z
 2394 0b9e 7181      		ldd r23,Z+1
 2395               	.LM257:
 2396 0ba0 80E0      		ldi r24,lo8(0)
 2397 0ba2 90E0      		ldi r25,hi8(0)
 2398               	.LVL180:
 2399 0ba4 0E94 0000 		call __mulsi3
 2400 0ba8 6E19      		sub r22,r14
 2401 0baa 7F09      		sbc r23,r15
 2402 0bac 800B      		sbc r24,r16
 2403 0bae 910B      		sbc r25,r17
 2404               	.LVL181:
 2405               	.LM258:
 2406 0bb0 2B8D      		ldd r18,Y+27
 2407 0bb2 3C8D      		ldd r19,Y+28
 2408 0bb4 4D8D      		ldd r20,Y+29
 2409 0bb6 5E8D      		ldd r21,Y+30
 2410 0bb8 620F      		add r22,r18
 2411 0bba 731F      		adc r23,r19
 2412 0bbc 841F      		adc r24,r20
 2413 0bbe 951F      		adc r25,r21
 2414               	.LBB318:
 2415               	.LBB319:
 2416               	.LM259:
 2417 0bc0 6F8F      		std Y+31,r22
 2418 0bc2 78A3      		std Y+32,r23
 2419 0bc4 89A3      		std Y+33,r24
 2420 0bc6 9AA3      		std Y+34,r25
 2421               	.LBE319:
 2422               	.LBE318:
 2423               	.LM260:
 2424 0bc8 1616      		cp __zero_reg__,r22
 2425 0bca 1706      		cpc __zero_reg__,r23
 2426 0bcc 1806      		cpc __zero_reg__,r24
 2427 0bce 1906      		cpc __zero_reg__,r25
 2428 0bd0 04F4      		brge .+2
 2429 0bd2 00C0      		rjmp .L135
 2430               	.LBB320:
 2431               	.LBB321:
 2432               	.LBB322:
 2433               	.LM261:
 2434 0bd4 8FA1      		ldd r24,Y+39
 2435 0bd6 98A5      		ldd r25,Y+40
 2436 0bd8 A9A5      		ldd r26,Y+41
 2437 0bda BAA5      		ldd r27,Y+42
 2438               	.LVL182:
 2439               	.LBE322:
 2440               	.LBE321:
 2441               	.LBB323:
 2442               	.LBB324:
 2443               	.LBB325:
 2444               	.LBB326:
 2445               	.LM262:
 2446 0bdc 1B8E      		std Y+27,__zero_reg__
 2447 0bde 1C8E      		std Y+28,__zero_reg__
 2448 0be0 1D8E      		std Y+29,__zero_reg__
 2449 0be2 1E8E      		std Y+30,__zero_reg__
 2450               	.LBE326:
 2451               	.LBE325:
 2452               	.LBB327:
 2453               	.LBB328:
 2454               	.LM263:
 2455 0be4 1F8A      		std Y+23,__zero_reg__
 2456 0be6 188E      		std Y+24,__zero_reg__
 2457 0be8 198E      		std Y+25,__zero_reg__
 2458 0bea 1A8E      		std Y+26,__zero_reg__
 2459               	.LBE328:
 2460               	.LBE327:
 2461               	.LBB329:
 2462               	.LBB330:
 2463               	.LM264:
 2464 0bec 1F8E      		std Y+31,__zero_reg__
 2465 0bee 18A2      		std Y+32,__zero_reg__
 2466 0bf0 19A2      		std Y+33,__zero_reg__
 2467 0bf2 1AA2      		std Y+34,__zero_reg__
 2468               	.LBE330:
 2469               	.LBE329:
 2470               	.LBB331:
 2471               	.LBB332:
 2472               	.LM265:
 2473 0bf4 2E89      		ldd r18,Y+22
 2474 0bf6 2E7F      		andi r18,lo8(-2)
 2475 0bf8 2E8B      		std Y+22,r18
 2476               	.LBE332:
 2477               	.LBE331:
 2478               	.LBE324:
 2479               	.LBE323:
 2480               	.LBB333:
 2481               	.LBB334:
 2482               	.LM266:
 2483 0bfa 8FA3      		std Y+39,r24
 2484 0bfc 98A7      		std Y+40,r25
 2485 0bfe A9A7      		std Y+41,r26
 2486 0c00 BAA7      		std Y+42,r27
 2487               	.LBE334:
 2488               	.LBE333:
 2489               	.LBB335:
 2490               	.LBB336:
 2491               	.LM267:
 2492 0c02 8E89      		ldd r24,Y+22
 2493               	.LVL183:
 2494 0c04 817E      		andi r24,lo8(-31)
 2495 0c06 8860      		ori r24,lo8(8)
 2496 0c08 8E8B      		std Y+22,r24
 2497 0c0a 00C0      		rjmp .L135
 2498               	.LVL184:
 2499               	.L133:
 2500               	.LBE336:
 2501               	.LBE335:
 2502               	.LBE320:
 2503               	.LM268:
 2504 0c0c 8230      		cpi r24,lo8(2)
 2505 0c0e 01F4      		brne .L135
 2506               	.LBB337:
 2507               	.LBB338:
 2508               	.LM269:
 2509 0c10 6084      		ldd r6,Z+8
 2510 0c12 7184      		ldd r7,Z+9
 2511               	.LBE338:
 2512               	.LBE337:
 2513               	.LBB339:
 2514               	.LBB340:
 2515               	.LM270:
 2516 0c14 E284      		ldd r14,Z+10
 2517 0c16 F384      		ldd r15,Z+11
 2518 0c18 0485      		ldd r16,Z+12
 2519 0c1a 1585      		ldd r17,Z+13
 2520               	.LVL185:
 2521               	.LBE340:
 2522               	.LBE339:
 2523               	.LBB341:
 2524               	.LBB342:
 2525               	.LM271:
 2526 0c1c 2F8C      		ldd r2,Y+31
 2527 0c1e 38A0      		ldd r3,Y+32
 2528 0c20 49A0      		ldd r4,Y+33
 2529 0c22 5AA0      		ldd r5,Y+34
 2530               	.LVL186:
 2531               	.LBE342:
 2532               	.LBE341:
 2533               	.LM272:
 2534 0c24 2081      		ld r18,Z
 2535 0c26 3181      		ldd r19,Z+1
 2536               	.LM273:
 2537 0c28 A080      		ld r10,Z
 2538 0c2a B180      		ldd r11,Z+1
 2539               	.LBB343:
 2540               	.LBB344:
 2541               	.LM274:
 2542 0c2c 40E0      		ldi r20,lo8(0)
 2543 0c2e 50E0      		ldi r21,hi8(0)
 2544 0c30 C201      		movw r24,r4
 2545 0c32 B101      		movw r22,r2
 2546 0c34 0E94 0000 		call __divmodsi4
 2547 0c38 E20E      		add r14,r18
 2548 0c3a F31E      		adc r15,r19
 2549 0c3c 041F      		adc r16,r20
 2550 0c3e 151F      		adc r17,r21
 2551 0c40 EF8A      		std Y+23,r14
 2552 0c42 F88E      		std Y+24,r15
 2553 0c44 098F      		std Y+25,r16
 2554 0c46 1A8F      		std Y+26,r17
 2555               	.LBE344:
 2556               	.LBE343:
 2557               	.LBB345:
 2558               	.LBB346:
 2559               	.LM275:
 2560 0c48 CC24      		clr r12
 2561 0c4a DD24      		clr r13
 2562 0c4c C201      		movw r24,r4
 2563 0c4e B101      		movw r22,r2
 2564 0c50 A601      		movw r20,r12
 2565 0c52 9501      		movw r18,r10
 2566 0c54 0E94 0000 		call __divmodsi4
 2567 0c58 8824      		clr r8
 2568 0c5a 9924      		clr r9
 2569 0c5c 660E      		add r6,r22
 2570 0c5e 771E      		adc r7,r23
 2571 0c60 881E      		adc r8,r24
 2572 0c62 991E      		adc r9,r25
 2573 0c64 6B8E      		std Y+27,r6
 2574 0c66 7C8E      		std Y+28,r7
 2575 0c68 8D8E      		std Y+29,r8
 2576 0c6a 9E8E      		std Y+30,r9
 2577               	.LVL187:
 2578               	.L135:
 2579               	/* epilogue start */
 2580               	.LBE346:
 2581               	.LBE345:
 2582               	.LM276:
 2583 0c6c DF91      		pop r29
 2584 0c6e CF91      		pop r28
 2585 0c70 1F91      		pop r17
 2586 0c72 0F91      		pop r16
 2587               	.LVL188:
 2588 0c74 FF90      		pop r15
 2589 0c76 EF90      		pop r14
 2590               	.LVL189:
 2591 0c78 DF90      		pop r13
 2592 0c7a CF90      		pop r12
 2593 0c7c BF90      		pop r11
 2594 0c7e AF90      		pop r10
 2595 0c80 9F90      		pop r9
 2596 0c82 8F90      		pop r8
 2597 0c84 7F90      		pop r7
 2598 0c86 6F90      		pop r6
 2599 0c88 5F90      		pop r5
 2600 0c8a 4F90      		pop r4
 2601 0c8c 3F90      		pop r3
 2602 0c8e 2F90      		pop r2
 2603               	.LVL190:
 2604 0c90 0895      		ret
 2605               	.LFE45:
 2607               	.global	Timebase_DownCounter_SS_Expired
 2609               	Timebase_DownCounter_SS_Expired:
 2610               	.LFB46:
 2611               	.LM277:
 2612               	.LVL191:
 2613               	/* prologue: function */
 2614               	/* frame size = 0 */
 2615               	.LM278:
 2616 0c92 40E0      		ldi r20,lo8(0)
 2617 0c94 E091 0000 		lds r30,Timebase
 2618 0c98 F091 0000 		lds r31,(Timebase)+1
 2619 0c9c 90E0      		ldi r25,lo8(0)
 2620               	.LVL192:
 2621 0c9e 25E1      		ldi r18,lo8(21)
 2622 0ca0 30E0      		ldi r19,hi8(21)
 2623 0ca2 BC01      		movw r22,r24
 2624 0ca4 629F      		mul r22,r18
 2625 0ca6 C001      		movw r24,r0
 2626 0ca8 639F      		mul r22,r19
 2627 0caa 900D      		add r25,r0
 2628 0cac 729F      		mul r23,r18
 2629 0cae 900D      		add r25,r0
 2630 0cb0 1124      		clr r1
 2631               	.LVL193:
 2632 0cb2 E80F      		add r30,r24
 2633 0cb4 F91F      		adc r31,r25
 2634 0cb6 8689      		ldd r24,Z+22
 2635 0cb8 8695      		lsr r24
 2636 0cba 8F70      		andi r24,lo8(15)
 2637 0cbc 8430      		cpi r24,lo8(4)
 2638 0cbe 01F4      		brne .L137
 2639 0cc0 41E0      		ldi r20,lo8(1)
 2640               	.L137:
 2641               	.LM279:
 2642 0cc2 842F      		mov r24,r20
 2643               	/* epilogue start */
 2644 0cc4 0895      		ret
 2645               	.LFE46:
 2647               	.global	Timebase_DownCounter_SS_Expired_Event
 2649               	Timebase_DownCounter_SS_Expired_Event:
 2650               	.LFB47:
 2651               	.LM280:
 2652               	.LVL194:
 2653               	/* prologue: function */
 2654               	/* frame size = 0 */
 2655               	.LBB347:
 2656               	.LBB348:
 2657               	.LM281:
 2658 0cc6 E091 0000 		lds r30,Timebase
 2659 0cca F091 0000 		lds r31,(Timebase)+1
 2660 0cce 90E0      		ldi r25,lo8(0)
 2661               	.LBE348:
 2662               	.LBE347:
 2663               	.LM282:
 2664 0cd0 25E1      		ldi r18,lo8(21)
 2665 0cd2 30E0      		ldi r19,hi8(21)
 2666 0cd4 AC01      		movw r20,r24
 2667               	.LVL195:
 2668 0cd6 429F      		mul r20,r18
 2669 0cd8 C001      		movw r24,r0
 2670 0cda 439F      		mul r20,r19
 2671 0cdc 900D      		add r25,r0
 2672 0cde 529F      		mul r21,r18
 2673 0ce0 900D      		add r25,r0
 2674 0ce2 1124      		clr r1
 2675 0ce4 E80F      		add r30,r24
 2676 0ce6 F91F      		adc r31,r25
 2677 0ce8 8689      		ldd r24,Z+22
 2678 0cea 8695      		lsr r24
 2679 0cec 8F70      		andi r24,lo8(15)
 2680 0cee 8430      		cpi r24,lo8(4)
 2681 0cf0 01F0      		breq .L140
 2682 0cf2 80E0      		ldi r24,lo8(0)
 2683 0cf4 0895      		ret
 2684               	.L140:
 2685               	.LBB349:
 2686               	.LBB350:
 2687               	.LBB351:
 2688               	.LBB352:
 2689               	.LBB353:
 2690               	.LBB354:
 2691               	.LM283:
 2692 0cf6 138E      		std Z+27,__zero_reg__
 2693 0cf8 148E      		std Z+28,__zero_reg__
 2694 0cfa 158E      		std Z+29,__zero_reg__
 2695 0cfc 168E      		std Z+30,__zero_reg__
 2696               	.LBE354:
 2697               	.LBE353:
 2698               	.LBB355:
 2699               	.LBB356:
 2700               	.LM284:
 2701 0cfe 178A      		std Z+23,__zero_reg__
 2702 0d00 108E      		std Z+24,__zero_reg__
 2703 0d02 118E      		std Z+25,__zero_reg__
 2704 0d04 128E      		std Z+26,__zero_reg__
 2705               	.LBE356:
 2706               	.LBE355:
 2707               	.LBB357:
 2708               	.LBB358:
 2709               	.LM285:
 2710 0d06 178E      		std Z+31,__zero_reg__
 2711 0d08 10A2      		std Z+32,__zero_reg__
 2712 0d0a 11A2      		std Z+33,__zero_reg__
 2713 0d0c 12A2      		std Z+34,__zero_reg__
 2714               	.LBE358:
 2715               	.LBE357:
 2716               	.LBB359:
 2717               	.LBB360:
 2718               	.LM286:
 2719 0d0e 8689      		ldd r24,Z+22
 2720               	.LBE360:
 2721               	.LBE359:
 2722               	.LBB361:
 2723               	.LBB362:
 2724               	.LM287:
 2725 0d10 807E      		andi r24,lo8(-32)
 2726 0d12 868B      		std Z+22,r24
 2727               	.LBE362:
 2728               	.LBE361:
 2729               	.LBB363:
 2730               	.LBB364:
 2731               	.LM288:
 2732 0d14 17A2      		std Z+39,__zero_reg__
 2733 0d16 10A6      		std Z+40,__zero_reg__
 2734 0d18 11A6      		std Z+41,__zero_reg__
 2735 0d1a 12A6      		std Z+42,__zero_reg__
 2736 0d1c 81E0      		ldi r24,lo8(1)
 2737               	.LBE364:
 2738               	.LBE363:
 2739               	.LBE352:
 2740               	.LBE351:
 2741               	.LBE350:
 2742               	.LBE349:
 2743               	.LM289:
 2744 0d1e 0895      		ret
 2745               	.LFE47:
 2747               	.global	Timebase_DownCounter_SS_Oneshot_Expired_Event
 2749               	Timebase_DownCounter_SS_Oneshot_Expired_Event:
 2750               	.LFB48:
 2751               	.LM290:
 2752               	.LVL196:
 2753               	/* prologue: function */
 2754               	/* frame size = 0 */
 2755               	.LM291:
 2756 0d20 0E94 0000 		call Timebase_DownCounter_SS_Expired_Event
 2757               	.LVL197:
 2758               	/* epilogue start */
 2759               	.LM292:
 2760 0d24 0895      		ret
 2761               	.LFE48:
 2763               	.global	Timebase_DownCounter_SS_Continuous_Expired_Event
 2765               	Timebase_DownCounter_SS_Continuous_Expired_Event:
 2766               	.LFB49:
 2767               	.LM293:
 2768               	.LVL198:
 2769               	/* prologue: function */
 2770               	/* frame size = 0 */
 2771 0d26 A82F      		mov r26,r24
 2772               	.LBB365:
 2773               	.LBB366:
 2774               	.LM294:
 2775 0d28 E091 0000 		lds r30,Timebase
 2776 0d2c F091 0000 		lds r31,(Timebase)+1
 2777 0d30 282F      		mov r18,r24
 2778 0d32 30E0      		ldi r19,lo8(0)
 2779               	.LBE366:
 2780               	.LBE365:
 2781               	.LM295:
 2782 0d34 85E1      		ldi r24,lo8(21)
 2783 0d36 90E0      		ldi r25,hi8(21)
 2784               	.LVL199:
 2785 0d38 AC01      		movw r20,r24
 2786 0d3a 249F      		mul r18,r20
 2787 0d3c C001      		movw r24,r0
 2788 0d3e 259F      		mul r18,r21
 2789 0d40 900D      		add r25,r0
 2790 0d42 349F      		mul r19,r20
 2791 0d44 900D      		add r25,r0
 2792 0d46 1124      		clr r1
 2793 0d48 E80F      		add r30,r24
 2794 0d4a F91F      		adc r31,r25
 2795 0d4c 8689      		ldd r24,Z+22
 2796 0d4e 8695      		lsr r24
 2797 0d50 8F70      		andi r24,lo8(15)
 2798 0d52 8430      		cpi r24,lo8(4)
 2799 0d54 01F0      		breq .L146
 2800 0d56 80E0      		ldi r24,lo8(0)
 2801 0d58 0895      		ret
 2802               	.L146:
 2803               	.LBB367:
 2804               	.LBB368:
 2805               	.LBB369:
 2806               	.LM296:
 2807 0d5a 47A1      		ldd r20,Z+39
 2808 0d5c 50A5      		ldd r21,Z+40
 2809 0d5e 61A5      		ldd r22,Z+41
 2810 0d60 72A5      		ldd r23,Z+42
 2811               	.LVL200:
 2812               	.LBE369:
 2813               	.LBE368:
 2814               	.LBB370:
 2815               	.LBB371:
 2816               	.LBB372:
 2817               	.LBB373:
 2818               	.LBB374:
 2819               	.LBB375:
 2820               	.LM297:
 2821 0d62 138E      		std Z+27,__zero_reg__
 2822 0d64 148E      		std Z+28,__zero_reg__
 2823 0d66 158E      		std Z+29,__zero_reg__
 2824 0d68 168E      		std Z+30,__zero_reg__
 2825               	.LBE375:
 2826               	.LBE374:
 2827               	.LBB376:
 2828               	.LBB377:
 2829               	.LM298:
 2830 0d6a 178A      		std Z+23,__zero_reg__
 2831 0d6c 108E      		std Z+24,__zero_reg__
 2832 0d6e 118E      		std Z+25,__zero_reg__
 2833 0d70 128E      		std Z+26,__zero_reg__
 2834               	.LBE377:
 2835               	.LBE376:
 2836               	.LBB378:
 2837               	.LBB379:
 2838               	.LM299:
 2839 0d72 178E      		std Z+31,__zero_reg__
 2840 0d74 10A2      		std Z+32,__zero_reg__
 2841 0d76 11A2      		std Z+33,__zero_reg__
 2842 0d78 12A2      		std Z+34,__zero_reg__
 2843               	.LBE379:
 2844               	.LBE378:
 2845               	.LBB380:
 2846               	.LBB381:
 2847               	.LM300:
 2848 0d7a 8689      		ldd r24,Z+22
 2849               	.LBE381:
 2850               	.LBE380:
 2851               	.LBB382:
 2852               	.LBB383:
 2853               	.LM301:
 2854 0d7c 807E      		andi r24,lo8(-32)
 2855 0d7e 868B      		std Z+22,r24
 2856               	.LBE383:
 2857               	.LBE382:
 2858               	.LBB384:
 2859               	.LBB385:
 2860               	.LM302:
 2861 0d80 17A2      		std Z+39,__zero_reg__
 2862 0d82 10A6      		std Z+40,__zero_reg__
 2863 0d84 11A6      		std Z+41,__zero_reg__
 2864 0d86 12A6      		std Z+42,__zero_reg__
 2865               	.LBE385:
 2866               	.LBE384:
 2867               	.LBE373:
 2868               	.LBE372:
 2869               	.LBE371:
 2870               	.LBE370:
 2871               	.LM303:
 2872 0d88 8A2F      		mov r24,r26
 2873 0d8a 0E94 0000 		call Timebase_DownCounter_SS_Set_Securely
 2874               	.LVL201:
 2875 0d8e 81E0      		ldi r24,lo8(1)
 2876               	.LBE367:
 2877               	.LM304:
 2878 0d90 0895      		ret
 2879               	.LFE49:
 2881               	.global	Timebase_DownCounter_SS_Set_Period_Value_Securely
 2883               	Timebase_DownCounter_SS_Set_Period_Value_Securely:
 2884               	.LFB50:
 2885               	.LM305:
 2886               	.LVL202:
 2887 0d92 CF93      		push r28
 2888 0d94 DF93      		push r29
 2889               	/* prologue: function */
 2890               	/* frame size = 0 */
 2891               	.LBB386:
 2892               	.LBB387:
 2893               	.LM306:
 2894 0d96 C091 0000 		lds r28,Timebase
 2895 0d9a D091 0000 		lds r29,(Timebase)+1
 2896 0d9e 282F      		mov r18,r24
 2897 0da0 30E0      		ldi r19,lo8(0)
 2898               	.LBE387:
 2899               	.LBE386:
 2900               	.LM307:
 2901 0da2 85E1      		ldi r24,lo8(21)
 2902 0da4 90E0      		ldi r25,hi8(21)
 2903               	.LVL203:
 2904 0da6 289F      		mul r18,r24
 2905 0da8 F001      		movw r30,r0
 2906 0daa 299F      		mul r18,r25
 2907 0dac F00D      		add r31,r0
 2908 0dae 389F      		mul r19,r24
 2909 0db0 F00D      		add r31,r0
 2910 0db2 1124      		clr r1
 2911 0db4 EC0F      		add r30,r28
 2912 0db6 FD1F      		adc r31,r29
 2913 0db8 8689      		ldd r24,Z+22
 2914 0dba 80FD      		sbrc r24,0
 2915 0dbc 00C0      		rjmp .L153
 2916               	.LM308:
 2917 0dbe 878D      		ldd r24,Z+31
 2918 0dc0 90A1      		ldd r25,Z+32
 2919 0dc2 A1A1      		ldd r26,Z+33
 2920 0dc4 B2A1      		ldd r27,Z+34
 2921 0dc6 841B      		sub r24,r20
 2922 0dc8 950B      		sbc r25,r21
 2923 0dca A60B      		sbc r26,r22
 2924 0dcc B70B      		sbc r27,r23
 2925               	.LBB388:
 2926               	.LBB389:
 2927               	.LM309:
 2928 0dce B7FF      		sbrs r27,7
 2929 0dd0 00C0      		rjmp .L151
 2930               	.LM310:
 2931 0dd2 13A2      		std Z+35,__zero_reg__
 2932 0dd4 14A2      		std Z+36,__zero_reg__
 2933 0dd6 15A2      		std Z+37,__zero_reg__
 2934 0dd8 16A2      		std Z+38,__zero_reg__
 2935 0dda 00C0      		rjmp .L152
 2936               	.L151:
 2937               	.LM311:
 2938 0ddc 83A3      		std Z+35,r24
 2939 0dde 94A3      		std Z+36,r25
 2940 0de0 A5A3      		std Z+37,r26
 2941 0de2 B6A3      		std Z+38,r27
 2942               	.L152:
 2943               	.LBE389:
 2944               	.LBE388:
 2945               	.LBB390:
 2946               	.LBB391:
 2947               	.LM312:
 2948 0de4 85E1      		ldi r24,lo8(21)
 2949 0de6 90E0      		ldi r25,hi8(21)
 2950 0de8 289F      		mul r18,r24
 2951 0dea F001      		movw r30,r0
 2952 0dec 299F      		mul r18,r25
 2953 0dee F00D      		add r31,r0
 2954 0df0 389F      		mul r19,r24
 2955 0df2 F00D      		add r31,r0
 2956 0df4 1124      		clr r1
 2957 0df6 EC0F      		add r30,r28
 2958 0df8 FD1F      		adc r31,r29
 2959 0dfa 8689      		ldd r24,Z+22
 2960 0dfc 8160      		ori r24,lo8(1)
 2961 0dfe 868B      		std Z+22,r24
 2962               	.L153:
 2963               	/* epilogue start */
 2964               	.LBE391:
 2965               	.LBE390:
 2966               	.LM313:
 2967 0e00 DF91      		pop r29
 2968 0e02 CF91      		pop r28
 2969 0e04 0895      		ret
 2970               	.LFE50:
 2972               	.global	Timebase_DownCounter_SS_Get_Remaining_Period_Value
 2974               	Timebase_DownCounter_SS_Get_Remaining_Period_Value:
 2975               	.LFB51:
 2976               	.LM314:
 2977               	.LVL204:
 2978               	/* prologue: function */
 2979               	/* frame size = 0 */
 2980               	.LBB392:
 2981               	.LBB393:
 2982               	.LM315:
 2983 0e06 E091 0000 		lds r30,Timebase
 2984 0e0a F091 0000 		lds r31,(Timebase)+1
 2985 0e0e 90E0      		ldi r25,lo8(0)
 2986               	.LBE393:
 2987               	.LBE392:
 2988               	.LM316:
 2989 0e10 25E1      		ldi r18,lo8(21)
 2990 0e12 30E0      		ldi r19,hi8(21)
 2991 0e14 AC01      		movw r20,r24
 2992               	.LVL205:
 2993 0e16 429F      		mul r20,r18
 2994 0e18 C001      		movw r24,r0
 2995 0e1a 439F      		mul r20,r19
 2996 0e1c 900D      		add r25,r0
 2997 0e1e 529F      		mul r21,r18
 2998 0e20 900D      		add r25,r0
 2999 0e22 1124      		clr r1
 3000 0e24 E80F      		add r30,r24
 3001 0e26 F91F      		adc r31,r25
 3002 0e28 278D      		ldd r18,Z+31
 3003 0e2a 30A1      		ldd r19,Z+32
 3004 0e2c 41A1      		ldd r20,Z+33
 3005 0e2e 52A1      		ldd r21,Z+34
 3006               	.LVL206:
 3007 0e30 83A1      		ldd r24,Z+35
 3008 0e32 94A1      		ldd r25,Z+36
 3009 0e34 A5A1      		ldd r26,Z+37
 3010 0e36 B6A1      		ldd r27,Z+38
 3011 0e38 281B      		sub r18,r24
 3012 0e3a 390B      		sbc r19,r25
 3013 0e3c 4A0B      		sbc r20,r26
 3014 0e3e 5B0B      		sbc r21,r27
 3015 0e40 57FF      		sbrs r21,7
 3016 0e42 00C0      		rjmp .L155
 3017 0e44 20E0      		ldi r18,lo8(0)
 3018 0e46 30E0      		ldi r19,hi8(0)
 3019 0e48 40E0      		ldi r20,hlo8(0)
 3020 0e4a 50E0      		ldi r21,hhi8(0)
 3021               	.L155:
 3022               	.LM317:
 3023 0e4c B901      		movw r22,r18
 3024               	.LVL207:
 3025 0e4e CA01      		movw r24,r20
 3026               	/* epilogue start */
 3027 0e50 0895      		ret
 3028               	.LFE51:
 3030               	.global	Timebase_DownCounter_SS_Period_Value_Expired
 3032               	Timebase_DownCounter_SS_Period_Value_Expired:
 3033               	.LFB52:
 3034               	.LM318:
 3035               	.LVL208:
 3036 0e52 CF93      		push r28
 3037 0e54 DF93      		push r29
 3038               	/* prologue: function */
 3039               	/* frame size = 0 */
 3040               	.LBB394:
 3041               	.LBB395:
 3042               	.LBB396:
 3043               	.LBB397:
 3044               	.LM319:
 3045 0e56 C091 0000 		lds r28,Timebase
 3046 0e5a D091 0000 		lds r29,(Timebase)+1
 3047 0e5e 682F      		mov r22,r24
 3048 0e60 70E0      		ldi r23,lo8(0)
 3049               	.LBE397:
 3050               	.LBE396:
 3051               	.LM320:
 3052 0e62 85E1      		ldi r24,lo8(21)
 3053 0e64 90E0      		ldi r25,hi8(21)
 3054               	.LVL209:
 3055 0e66 689F      		mul r22,r24
 3056 0e68 F001      		movw r30,r0
 3057 0e6a 699F      		mul r22,r25
 3058 0e6c F00D      		add r31,r0
 3059 0e6e 789F      		mul r23,r24
 3060 0e70 F00D      		add r31,r0
 3061 0e72 1124      		clr r1
 3062 0e74 EC0F      		add r30,r28
 3063 0e76 FD1F      		adc r31,r29
 3064 0e78 278D      		ldd r18,Z+31
 3065 0e7a 30A1      		ldd r19,Z+32
 3066 0e7c 41A1      		ldd r20,Z+33
 3067 0e7e 52A1      		ldd r21,Z+34
 3068               	.LVL210:
 3069 0e80 83A1      		ldd r24,Z+35
 3070 0e82 94A1      		ldd r25,Z+36
 3071 0e84 A5A1      		ldd r26,Z+37
 3072 0e86 B6A1      		ldd r27,Z+38
 3073 0e88 281B      		sub r18,r24
 3074 0e8a 390B      		sbc r19,r25
 3075 0e8c 4A0B      		sbc r20,r26
 3076 0e8e 5B0B      		sbc r21,r27
 3077               	.LM321:
 3078 0e90 57FD      		sbrc r21,7
 3079 0e92 00C0      		rjmp .L158
 3080               	.LBE395:
 3081               	.LBE394:
 3082               	.LM322:
 3083 0e94 2115      		cp r18,__zero_reg__
 3084 0e96 3105      		cpc r19,__zero_reg__
 3085 0e98 4105      		cpc r20,__zero_reg__
 3086 0e9a 5105      		cpc r21,__zero_reg__
 3087 0e9c 01F0      		breq .L158
 3088 0e9e 20E0      		ldi r18,lo8(0)
 3089               	.LVL211:
 3090 0ea0 00C0      		rjmp .L159
 3091               	.LVL212:
 3092               	.L158:
 3093 0ea2 20E0      		ldi r18,lo8(0)
 3094               	.LVL213:
 3095 0ea4 85E1      		ldi r24,lo8(21)
 3096 0ea6 90E0      		ldi r25,hi8(21)
 3097 0ea8 AC01      		movw r20,r24
 3098 0eaa 649F      		mul r22,r20
 3099 0eac C001      		movw r24,r0
 3100 0eae 659F      		mul r22,r21
 3101 0eb0 900D      		add r25,r0
 3102 0eb2 749F      		mul r23,r20
 3103 0eb4 900D      		add r25,r0
 3104 0eb6 1124      		clr r1
 3105 0eb8 C80F      		add r28,r24
 3106 0eba D91F      		adc r29,r25
 3107 0ebc 8E89      		ldd r24,Y+22
 3108 0ebe 80FF      		sbrs r24,0
 3109 0ec0 21E0      		ldi r18,lo8(1)
 3110               	.L160:
 3111 0ec2 81E0      		ldi r24,lo8(1)
 3112 0ec4 2827      		eor r18,r24
 3113               	.L159:
 3114               	.LM323:
 3115 0ec6 822F      		mov r24,r18
 3116               	/* epilogue start */
 3117 0ec8 DF91      		pop r29
 3118 0eca CF91      		pop r28
 3119 0ecc 0895      		ret
 3120               	.LFE52:
 3122               	.global	Timebase_DownCounter_SS_Period_Value_Expired_Event
 3124               	Timebase_DownCounter_SS_Period_Value_Expired_Event:
 3125               	.LFB53:
 3126               	.LM324:
 3127               	.LVL214:
 3128 0ece 1F93      		push r17
 3129               	/* prologue: function */
 3130               	/* frame size = 0 */
 3131 0ed0 182F      		mov r17,r24
 3132               	.LM325:
 3133 0ed2 0E94 0000 		call Timebase_DownCounter_SS_Period_Value_Expired
 3134               	.LVL215:
 3135 0ed6 8130      		cpi r24,lo8(1)
 3136 0ed8 01F0      		breq .L163
 3137 0eda 80E0      		ldi r24,lo8(0)
 3138 0edc 00C0      		rjmp .L164
 3139               	.L163:
 3140               	.LBB398:
 3141               	.LBB399:
 3142               	.LM326:
 3143 0ede E091 0000 		lds r30,Timebase
 3144 0ee2 F091 0000 		lds r31,(Timebase)+1
 3145 0ee6 212F      		mov r18,r17
 3146 0ee8 30E0      		ldi r19,lo8(0)
 3147               	.LVL216:
 3148 0eea 85E1      		ldi r24,lo8(21)
 3149 0eec 90E0      		ldi r25,hi8(21)
 3150 0eee AC01      		movw r20,r24
 3151 0ef0 249F      		mul r18,r20
 3152 0ef2 C001      		movw r24,r0
 3153 0ef4 259F      		mul r18,r21
 3154 0ef6 900D      		add r25,r0
 3155 0ef8 349F      		mul r19,r20
 3156 0efa 900D      		add r25,r0
 3157 0efc 1124      		clr r1
 3158 0efe E80F      		add r30,r24
 3159 0f00 F91F      		adc r31,r25
 3160 0f02 8689      		ldd r24,Z+22
 3161 0f04 8E7F      		andi r24,lo8(-2)
 3162 0f06 868B      		std Z+22,r24
 3163 0f08 81E0      		ldi r24,lo8(1)
 3164               	.L164:
 3165               	/* epilogue start */
 3166               	.LBE399:
 3167               	.LBE398:
 3168               	.LM327:
 3169 0f0a 1F91      		pop r17
 3170               	.LVL217:
 3171 0f0c 0895      		ret
 3172               	.LFE53:
 3174               	.global	Timebase_DownCounter_SS_Update_All
 3176               	Timebase_DownCounter_SS_Update_All:
 3177               	.LFB54:
 3178               	.LM328:
 3179               	/* prologue: function */
 3180               	/* frame size = 0 */
 3181               	.LBB400:
 3182               	.LM329:
 3183 0f0e 80E0      		ldi r24,lo8(0)
 3184 0f10 0E94 0000 		call Timebase_DownCounter_SS_Update
 3185               	/* epilogue start */
 3186               	.LBE400:
 3187               	.LM330:
 3188 0f14 0895      		ret
 3189               	.LFE54:
 3191               	.global	Timebase_DownCounter_SS_Reset_All
 3193               	Timebase_DownCounter_SS_Reset_All:
 3194               	.LFB55:
 3195               	.LM331:
 3196               	/* prologue: function */
 3197               	/* frame size = 0 */
 3198               	.LBB401:
 3199               	.LBB402:
 3200               	.LBB403:
 3201               	.LBB404:
 3202               	.LBB405:
 3203               	.LM332:
 3204 0f16 E091 0000 		lds r30,Timebase
 3205 0f1a F091 0000 		lds r31,(Timebase)+1
 3206 0f1e 138E      		std Z+27,__zero_reg__
 3207 0f20 148E      		std Z+28,__zero_reg__
 3208 0f22 158E      		std Z+29,__zero_reg__
 3209 0f24 168E      		std Z+30,__zero_reg__
 3210               	.LBE405:
 3211               	.LBE404:
 3212               	.LBB406:
 3213               	.LBB407:
 3214               	.LM333:
 3215 0f26 178A      		std Z+23,__zero_reg__
 3216 0f28 108E      		std Z+24,__zero_reg__
 3217 0f2a 118E      		std Z+25,__zero_reg__
 3218 0f2c 128E      		std Z+26,__zero_reg__
 3219               	.LBE407:
 3220               	.LBE406:
 3221               	.LBB408:
 3222               	.LBB409:
 3223               	.LM334:
 3224 0f2e 178E      		std Z+31,__zero_reg__
 3225 0f30 10A2      		std Z+32,__zero_reg__
 3226 0f32 11A2      		std Z+33,__zero_reg__
 3227 0f34 12A2      		std Z+34,__zero_reg__
 3228               	.LBE409:
 3229               	.LBE408:
 3230               	.LBB410:
 3231               	.LBB411:
 3232               	.LM335:
 3233 0f36 8689      		ldd r24,Z+22
 3234               	.LBE411:
 3235               	.LBE410:
 3236               	.LBB412:
 3237               	.LBB413:
 3238               	.LM336:
 3239 0f38 807E      		andi r24,lo8(-32)
 3240 0f3a 868B      		std Z+22,r24
 3241               	.LBE413:
 3242               	.LBE412:
 3243               	.LBB414:
 3244               	.LBB415:
 3245               	.LM337:
 3246 0f3c 17A2      		std Z+39,__zero_reg__
 3247 0f3e 10A6      		std Z+40,__zero_reg__
 3248 0f40 11A6      		std Z+41,__zero_reg__
 3249 0f42 12A6      		std Z+42,__zero_reg__
 3250               	/* epilogue start */
 3251               	.LBE415:
 3252               	.LBE414:
 3253               	.LBE403:
 3254               	.LBE402:
 3255               	.LBE401:
 3256               	.LM338:
 3257 0f44 0895      		ret
 3258               	.LFE55:
 3260               	.global	Timebase_Get_Update_Req_Sts
 3262               	Timebase_Get_Update_Req_Sts:
 3263               	.LFB56:
 3264               	.LM339:
 3265               	/* prologue: function */
 3266               	/* frame size = 0 */
 3267               	.LM340:
 3268 0f46 E091 0000 		lds r30,Timebase
 3269 0f4a F091 0000 		lds r31,(Timebase)+1
 3270 0f4e 8589      		ldd r24,Z+21
 3271               	/* epilogue start */
 3272               	.LM341:
 3273 0f50 0895      		ret
 3274               	.LFE56:
 3276               	.global	Timebase_Reset
 3278               	Timebase_Reset:
 3279               	.LFB57:
 3280               	.LM342:
 3281               	/* prologue: function */
 3282               	/* frame size = 0 */
 3283               	.LM343:
 3284 0f52 0E94 0000 		call Timebase_DownCounter_SS_Reset_All
 3285               	/* epilogue start */
 3286               	.LM344:
 3287 0f56 0895      		ret
 3288               	.LFE57:
 3290               	.global	Timebase_LP_Reset
 3292               	Timebase_LP_Reset:
 3293               	.LFB58:
 3294               	.LM345:
 3295               	/* prologue: function */
 3296               	/* frame size = 0 */
 3297               	/* epilogue start */
 3298               	.LM346:
 3299 0f58 0895      		ret
 3300               	.LFE58:
 3302               	.global	Timebase_Init
 3304               	Timebase_Init:
 3305               	.LFB59:
 3306               	.LM347:
 3307               	.LVL218:
 3308 0f5a 0F93      		push r16
 3309 0f5c 1F93      		push r17
 3310               	/* prologue: function */
 3311               	/* frame size = 0 */
 3312 0f5e 8C01      		movw r16,r24
 3313               	.LM348:
 3314 0f60 0E94 0000 		call Timebase_Struct_Init
 3315               	.LVL219:
 3316               	.LM349:
 3317 0f64 C801      		movw r24,r16
 3318 0f66 0E94 0000 		call Timebase_Timer_Enable
 3319               	.LBB416:
 3320               	.LBB417:
 3321               	.LM350:
 3322 0f6a 0E94 0000 		call Timebase_DownCounter_SS_Reset_All
 3323               	/* epilogue start */
 3324               	.LBE417:
 3325               	.LBE416:
 3326               	.LM351:
 3327 0f6e 1F91      		pop r17
 3328 0f70 0F91      		pop r16
 3329               	.LVL220:
 3330 0f72 0895      		ret
 3331               	.LFE59:
 3333               	.global	Timebase_Main_Loop_Executables
 3335               	Timebase_Main_Loop_Executables:
 3336               	.LFB60:
 3337               	.LM352:
 3338               	/* prologue: function */
 3339               	/* frame size = 0 */
 3340               	.LM353:
 3341 0f74 E091 0000 		lds r30,Timebase
 3342 0f78 F091 0000 		lds r31,(Timebase)+1
 3343 0f7c 8589      		ldd r24,Z+21
 3344 0f7e 83FF      		sbrs r24,3
 3345 0f80 00C0      		rjmp .L179
 3346               	.LM354:
 3347 0f82 0E94 0000 		call Timebase_Timer_Sync_With_Shadow_Variables
 3348               	.LM355:
 3349 0f86 0E94 0000 		call Timebase_DownCounter_SS_Update_All
 3350               	.LM356:
 3351 0f8a E091 0000 		lds r30,Timebase
 3352 0f8e F091 0000 		lds r31,(Timebase)+1
 3353 0f92 8589      		ldd r24,Z+21
 3354 0f94 877F      		andi r24,lo8(-9)
 3355 0f96 858B      		std Z+21,r24
 3356               	.L179:
 3357               	.LM357:
 3358 0f98 E091 0000 		lds r30,Timebase
 3359 0f9c F091 0000 		lds r31,(Timebase)+1
 3360 0fa0 148A      		std Z+20,__zero_reg__
 3361               	/* epilogue start */
 3362               	.LM358:
 3363 0fa2 0895      		ret
 3364               	.LFE60:
 3366               	.global	Timebase_ISR_Executables
 3368               	Timebase_ISR_Executables:
 3369               	.LFB61:
 3370               	.LM359:
 3371               	/* prologue: function */
 3372               	/* frame size = 0 */
 3373               	.LM360:
 3374 0fa4 E091 0000 		lds r30,Timebase
 3375 0fa8 F091 0000 		lds r31,(Timebase)+1
 3376 0fac 8685      		ldd r24,Z+14
 3377 0fae 9785      		ldd r25,Z+15
 3378 0fb0 0196      		adiw r24,1
 3379 0fb2 9787      		std Z+15,r25
 3380 0fb4 8687      		std Z+14,r24
 3381               	.LM361:
 3382 0fb6 8589      		ldd r24,Z+21
 3383 0fb8 8860      		ori r24,lo8(8)
 3384 0fba 858B      		std Z+21,r24
 3385               	.LM362:
 3386 0fbc 2685      		ldd r18,Z+14
 3387 0fbe 3785      		ldd r19,Z+15
 3388 0fc0 8081      		ld r24,Z
 3389 0fc2 9181      		ldd r25,Z+1
 3390 0fc4 2817      		cp r18,r24
 3391 0fc6 3907      		cpc r19,r25
 3392 0fc8 00F0      		brlo .L183
 3393               	.LM363:
 3394 0fca 1786      		std Z+15,__zero_reg__
 3395 0fcc 1686      		std Z+14,__zero_reg__
 3396               	.LM364:
 3397 0fce 8089      		ldd r24,Z+16
 3398 0fd0 9189      		ldd r25,Z+17
 3399 0fd2 A289      		ldd r26,Z+18
 3400 0fd4 B389      		ldd r27,Z+19
 3401 0fd6 0196      		adiw r24,1
 3402 0fd8 A11D      		adc r26,__zero_reg__
 3403 0fda B11D      		adc r27,__zero_reg__
 3404 0fdc 808B      		std Z+16,r24
 3405 0fde 918B      		std Z+17,r25
 3406 0fe0 A28B      		std Z+18,r26
 3407 0fe2 B38B      		std Z+19,r27
 3408               	.L183:
 3409 0fe4 0895      		ret
 3410               	.LFE61:
 3412               	.global	__vector_16
 3414               	__vector_16:
 3415               	.LFB11:
 3416               	.LM365:
 3417 0fe6 1F92      		push __zero_reg__
 3418 0fe8 0F92      		push r0
 3419 0fea 0FB6      		in r0,__SREG__
 3420 0fec 0F92      		push r0
 3421 0fee 1124      		clr __zero_reg__
 3422 0ff0 2F93      		push r18
 3423 0ff2 3F93      		push r19
 3424 0ff4 4F93      		push r20
 3425 0ff6 5F93      		push r21
 3426 0ff8 6F93      		push r22
 3427 0ffa 7F93      		push r23
 3428 0ffc 8F93      		push r24
 3429 0ffe 9F93      		push r25
 3430 1000 AF93      		push r26
 3431 1002 BF93      		push r27
 3432 1004 EF93      		push r30
 3433 1006 FF93      		push r31
 3434               	/* prologue: Signal */
 3435               	/* frame size = 0 */
 3436               	.LM366:
 3437 1008 E091 0000 		lds r30,Timebase
 3438 100c F091 0000 		lds r31,(Timebase)+1
 3439 1010 8281      		ldd r24,Z+2
 3440 1012 9381      		ldd r25,Z+3
 3441 1014 86BD      		out 70-32,r24
 3442               	.LM367:
 3443 1016 0E94 0000 		call Timebase_ISR_Executables
 3444               	/* epilogue start */
 3445               	.LM368:
 3446 101a FF91      		pop r31
 3447 101c EF91      		pop r30
 3448 101e BF91      		pop r27
 3449 1020 AF91      		pop r26
 3450 1022 9F91      		pop r25
 3451 1024 8F91      		pop r24
 3452 1026 7F91      		pop r23
 3453 1028 6F91      		pop r22
 3454 102a 5F91      		pop r21
 3455 102c 4F91      		pop r20
 3456 102e 3F91      		pop r19
 3457 1030 2F91      		pop r18
 3458 1032 0F90      		pop r0
 3459 1034 0FBE      		out __SREG__,r0
 3460 1036 0F90      		pop r0
 3461 1038 1F90      		pop __zero_reg__
 3462 103a 1895      		reti
 3463               	.LFE11:
 3465               	.global	Timebase_LP_ISR_Executables
 3467               	Timebase_LP_ISR_Executables:
 3468               	.LFB62:
 3469               	.LM369:
 3470               	/* prologue: function */
 3471               	/* frame size = 0 */
 3472               	/* epilogue start */
 3473               	.LM370:
 3474 103c 0895      		ret
 3475               	.LFE62:
 3477               		.data
 3480               	C.1.1769:
 3481 0000 0100      		.word	1
 3482 0002 0800      		.word	8
 3483 0004 4000      		.word	64
 3484 0006 0001      		.word	256
 3485 0008 0004      		.word	1024
 3486               		.comm Timebase_type,43,1
 3487               		.comm Timebase,2,1
 3960               	.Letext0:
DEFINED SYMBOLS
                            *ABS*:00000000 timebase.c
C:\Users\WALTON\AppData\Local\Temp/ccrF69ak.s:2      *ABS*:0000003f __SREG__
C:\Users\WALTON\AppData\Local\Temp/ccrF69ak.s:3      *ABS*:0000003e __SP_H__
C:\Users\WALTON\AppData\Local\Temp/ccrF69ak.s:4      *ABS*:0000003d __SP_L__
C:\Users\WALTON\AppData\Local\Temp/ccrF69ak.s:5      *ABS*:00000034 __CCP__
C:\Users\WALTON\AppData\Local\Temp/ccrF69ak.s:6      *ABS*:00000000 __tmp_reg__
C:\Users\WALTON\AppData\Local\Temp/ccrF69ak.s:7      *ABS*:00000001 __zero_reg__
C:\Users\WALTON\AppData\Local\Temp/ccrF69ak.s:18     .text:00000000 Timebase_Struct_Init
                            *COM*:0000002b Timebase_type
                            *COM*:00000002 Timebase
C:\Users\WALTON\AppData\Local\Temp/ccrF69ak.s:97     .text:000000be Timebase_Timer_Enable
C:\Users\WALTON\AppData\Local\Temp/ccrF69ak.s:3480   .data:00000000 C.1.1769
C:\Users\WALTON\AppData\Local\Temp/ccrF69ak.s:315    .text:000001e0 Timebase_Timer_Disable
C:\Users\WALTON\AppData\Local\Temp/ccrF69ak.s:342    .text:000001f4 Timebase_Atomic_Operation_Start
C:\Users\WALTON\AppData\Local\Temp/ccrF69ak.s:360    .text:000001f8 Timebase_Atomic_Operation_End
C:\Users\WALTON\AppData\Local\Temp/ccrF69ak.s:378    .text:000001fc Timebase_Timer_Get_SubSecondsShadow
C:\Users\WALTON\AppData\Local\Temp/ccrF69ak.s:396    .text:0000020c Timebase_Timer_Get_SecondsShadow
C:\Users\WALTON\AppData\Local\Temp/ccrF69ak.s:417    .text:00000222 Timebase_Timer_Get_SubSeconds
C:\Users\WALTON\AppData\Local\Temp/ccrF69ak.s:435    .text:00000232 Timebase_Timer_Get_Seconds
C:\Users\WALTON\AppData\Local\Temp/ccrF69ak.s:456    .text:00000248 Timebase_Timer_Set_SubSeconds
C:\Users\WALTON\AppData\Local\Temp/ccrF69ak.s:474    .text:00000256 Timebase_Timer_Set_Seconds
C:\Users\WALTON\AppData\Local\Temp/ccrF69ak.s:494    .text:00000268 Timebase_Timer_Get_SubSecondsShadow_Securely
C:\Users\WALTON\AppData\Local\Temp/ccrF69ak.s:523    .text:00000282 Timebase_Timer_Get_SecondsShadow_Securely
C:\Users\WALTON\AppData\Local\Temp/ccrF69ak.s:560    .text:000002aa Timebase_Timer_Sync_With_Shadow_Variables
C:\Users\WALTON\AppData\Local\Temp/ccrF69ak.s:629    .text:000002f2 Timebase_Timer_Delay_SubSeconds
C:\Users\WALTON\AppData\Local\Temp/ccrF69ak.s:821    .text:000003e0 Timebase_Timer_Await_SubSeconds
C:\Users\WALTON\AppData\Local\Temp/ccrF69ak.s:975    .text:0000049e Timebase_Timer_Delay_Seconds
C:\Users\WALTON\AppData\Local\Temp/ccrF69ak.s:1073   .text:00000510 Timebase_DownCounter_SS_Get_Status
C:\Users\WALTON\AppData\Local\Temp/ccrF69ak.s:1107   .text:0000053a Timebase_DownCounter_SS_Set_Status
C:\Users\WALTON\AppData\Local\Temp/ccrF69ak.s:1145   .text:0000056a Timebase_DownCounter_SS_Get_Value
C:\Users\WALTON\AppData\Local\Temp/ccrF69ak.s:1188   .text:000005a4 Timebase_DownCounter_SS_Set_Value
C:\Users\WALTON\AppData\Local\Temp/ccrF69ak.s:1223   .text:000005d0 Timebase_DownCounter_SS_Get_EndValueSec
C:\Users\WALTON\AppData\Local\Temp/ccrF69ak.s:1266   .text:0000060a Timebase_DownCounter_SS_Get_EndValueSubSec
C:\Users\WALTON\AppData\Local\Temp/ccrF69ak.s:1309   .text:00000644 Timebase_DownCounter_SS_Set_EndValueSec
C:\Users\WALTON\AppData\Local\Temp/ccrF69ak.s:1344   .text:00000670 Timebase_DownCounter_SS_Set_EndValueSubSec
C:\Users\WALTON\AppData\Local\Temp/ccrF69ak.s:1379   .text:0000069c Timebase_DownCounter_SS_Get_PeriodValue
C:\Users\WALTON\AppData\Local\Temp/ccrF69ak.s:1422   .text:000006d6 Timebase_DownCounter_SS_Set_PeriodValue
C:\Users\WALTON\AppData\Local\Temp/ccrF69ak.s:1480   .text:0000072a Timebase_DownCounter_SS_Get_Period_Flag
C:\Users\WALTON\AppData\Local\Temp/ccrF69ak.s:1513   .text:00000752 Timebase_DownCounter_SS_Set_Period_Flag
C:\Users\WALTON\AppData\Local\Temp/ccrF69ak.s:1547   .text:0000077c Timebase_DownCounter_SS_Clear_Period_Flag
C:\Users\WALTON\AppData\Local\Temp/ccrF69ak.s:1581   .text:000007a6 Timebase_DownCounter_SS_Get_ReloadValue
C:\Users\WALTON\AppData\Local\Temp/ccrF69ak.s:1624   .text:000007e0 Timebase_DownCounter_SS_Set_ReloadValue
C:\Users\WALTON\AppData\Local\Temp/ccrF69ak.s:1659   .text:0000080c Timebase_DownCounter_SS_Reset
C:\Users\WALTON\AppData\Local\Temp/ccrF69ak.s:1737   .text:00000856 Timebase_DownCounter_SS_Clear_All_Flags
C:\Users\WALTON\AppData\Local\Temp/ccrF69ak.s:1819   .text:000008a0 Timebase_DownCounter_SS_Start
C:\Users\WALTON\AppData\Local\Temp/ccrF69ak.s:1867   .text:000008d6 Timebase_DownCounter_SS_Stop
C:\Users\WALTON\AppData\Local\Temp/ccrF69ak.s:1915   .text:0000090c Timebase_DownCounter_SS_Set_Securely
C:\Users\WALTON\AppData\Local\Temp/ccrF69ak.s:2196   .text:00000aaa Timebase_DownCounter_SS_Set_Forcefully
C:\Users\WALTON\AppData\Local\Temp/ccrF69ak.s:2311   .text:00000b2c Timebase_DownCounter_SS_Update
C:\Users\WALTON\AppData\Local\Temp/ccrF69ak.s:2609   .text:00000c92 Timebase_DownCounter_SS_Expired
C:\Users\WALTON\AppData\Local\Temp/ccrF69ak.s:2649   .text:00000cc6 Timebase_DownCounter_SS_Expired_Event
C:\Users\WALTON\AppData\Local\Temp/ccrF69ak.s:2749   .text:00000d20 Timebase_DownCounter_SS_Oneshot_Expired_Event
C:\Users\WALTON\AppData\Local\Temp/ccrF69ak.s:2765   .text:00000d26 Timebase_DownCounter_SS_Continuous_Expired_Event
C:\Users\WALTON\AppData\Local\Temp/ccrF69ak.s:2883   .text:00000d92 Timebase_DownCounter_SS_Set_Period_Value_Securely
C:\Users\WALTON\AppData\Local\Temp/ccrF69ak.s:2974   .text:00000e06 Timebase_DownCounter_SS_Get_Remaining_Period_Value
C:\Users\WALTON\AppData\Local\Temp/ccrF69ak.s:3032   .text:00000e52 Timebase_DownCounter_SS_Period_Value_Expired
C:\Users\WALTON\AppData\Local\Temp/ccrF69ak.s:3124   .text:00000ece Timebase_DownCounter_SS_Period_Value_Expired_Event
C:\Users\WALTON\AppData\Local\Temp/ccrF69ak.s:3176   .text:00000f0e Timebase_DownCounter_SS_Update_All
C:\Users\WALTON\AppData\Local\Temp/ccrF69ak.s:3193   .text:00000f16 Timebase_DownCounter_SS_Reset_All
C:\Users\WALTON\AppData\Local\Temp/ccrF69ak.s:3262   .text:00000f46 Timebase_Get_Update_Req_Sts
C:\Users\WALTON\AppData\Local\Temp/ccrF69ak.s:3278   .text:00000f52 Timebase_Reset
C:\Users\WALTON\AppData\Local\Temp/ccrF69ak.s:3292   .text:00000f58 Timebase_LP_Reset
C:\Users\WALTON\AppData\Local\Temp/ccrF69ak.s:3304   .text:00000f5a Timebase_Init
C:\Users\WALTON\AppData\Local\Temp/ccrF69ak.s:3335   .text:00000f74 Timebase_Main_Loop_Executables
C:\Users\WALTON\AppData\Local\Temp/ccrF69ak.s:3368   .text:00000fa4 Timebase_ISR_Executables
C:\Users\WALTON\AppData\Local\Temp/ccrF69ak.s:3414   .text:00000fe6 __vector_16
C:\Users\WALTON\AppData\Local\Temp/ccrF69ak.s:3467   .text:0000103c Timebase_LP_ISR_Executables

UNDEFINED SYMBOLS
__divmodsi4
__mulsi3
__do_copy_data
__do_clear_bss
