   1               		.file	"timebase.c"
   2               	__SREG__ = 0x3f
   3               	__SP_H__ = 0x3e
   4               	__SP_L__ = 0x3d
   5               	__CCP__  = 0x34
   6               	__tmp_reg__ = 0
   7               	__zero_reg__ = 1
  15               	.Ltext0:
  16               	.global	Timebase_Struct_Init
  18               	Timebase_Struct_Init:
  19               	.LFB6:
  20               	.LM1:
  21               	/* prologue: function */
  22               	/* frame size = 0 */
  23               	.LM2:
  24 0000 80E0      		ldi r24,lo8(Timebase_type)
  25 0002 90E0      		ldi r25,hi8(Timebase_type)
  26 0004 9093 0000 		sts (Timebase)+1,r25
  27 0008 8093 0000 		sts Timebase,r24
  28               	.LM3:
  29 000c 81E0      		ldi r24,lo8(1)
  30 000e 90E0      		ldi r25,hi8(1)
  31 0010 9093 0000 		sts (Timebase_type)+1,r25
  32 0014 8093 0000 		sts Timebase_type,r24
  33               	.LM4:
  34 0018 1092 0000 		sts (Timebase_type+4)+1,__zero_reg__
  35 001c 1092 0000 		sts Timebase_type+4,__zero_reg__
  36               	.LM5:
  37 0020 1092 0000 		sts (Timebase_type+16)+1,__zero_reg__
  38 0024 1092 0000 		sts Timebase_type+16,__zero_reg__
  39               	.LM6:
  40 0028 1092 0000 		sts Timebase_type+18,__zero_reg__
  41 002c 1092 0000 		sts (Timebase_type+18)+1,__zero_reg__
  42 0030 1092 0000 		sts (Timebase_type+18)+2,__zero_reg__
  43 0034 1092 0000 		sts (Timebase_type+18)+3,__zero_reg__
  44               	.LM7:
  45 0038 1092 0000 		sts (Timebase_type+10)+1,__zero_reg__
  46 003c 1092 0000 		sts Timebase_type+10,__zero_reg__
  47               	.LM8:
  48 0040 1092 0000 		sts Timebase_type+12,__zero_reg__
  49 0044 1092 0000 		sts (Timebase_type+12)+1,__zero_reg__
  50 0048 1092 0000 		sts (Timebase_type+12)+2,__zero_reg__
  51 004c 1092 0000 		sts (Timebase_type+12)+3,__zero_reg__
  52               	.LM9:
  53 0050 1092 0000 		sts Timebase_type+22,__zero_reg__
  54               	.LM10:
  55 0054 1092 0000 		sts Timebase_type+6,__zero_reg__
  56 0058 1092 0000 		sts (Timebase_type+6)+1,__zero_reg__
  57 005c 1092 0000 		sts (Timebase_type+6)+2,__zero_reg__
  58 0060 1092 0000 		sts (Timebase_type+6)+3,__zero_reg__
  59               	.LM11:
  60 0064 1092 0000 		sts (Timebase_type+23)+1,__zero_reg__
  61 0068 1092 0000 		sts Timebase_type+23,__zero_reg__
  62               	.LM12:
  63 006c 1092 0000 		sts Timebase_type+25,__zero_reg__
  64 0070 1092 0000 		sts (Timebase_type+25)+1,__zero_reg__
  65 0074 1092 0000 		sts (Timebase_type+25)+2,__zero_reg__
  66 0078 1092 0000 		sts (Timebase_type+25)+3,__zero_reg__
  67               	.LM13:
  68 007c 9093 0000 		sts (Timebase_type+2)+1,r25
  69 0080 8093 0000 		sts Timebase_type+2,r24
  70               	.LM14:
  71 0084 1092 0000 		sts Timebase_type+29,__zero_reg__
  72               	.LBB844:
  73               	.LM15:
  74 0088 1092 0000 		sts Timebase_type+59,__zero_reg__
  75               	.LM16:
  76 008c 1092 0000 		sts Timebase_type+60,__zero_reg__
  77 0090 1092 0000 		sts (Timebase_type+60)+1,__zero_reg__
  78 0094 1092 0000 		sts (Timebase_type+60)+2,__zero_reg__
  79 0098 1092 0000 		sts (Timebase_type+60)+3,__zero_reg__
  80               	.LM17:
  81 009c 1092 0000 		sts Timebase_type+64,__zero_reg__
  82 00a0 1092 0000 		sts (Timebase_type+64)+1,__zero_reg__
  83 00a4 1092 0000 		sts (Timebase_type+64)+2,__zero_reg__
  84 00a8 1092 0000 		sts (Timebase_type+64)+3,__zero_reg__
  85               	.LM18:
  86 00ac 1092 0000 		sts Timebase_type+68,__zero_reg__
  87 00b0 1092 0000 		sts (Timebase_type+68)+1,__zero_reg__
  88 00b4 1092 0000 		sts (Timebase_type+68)+2,__zero_reg__
  89 00b8 1092 0000 		sts (Timebase_type+68)+3,__zero_reg__
  90               	.LM19:
  91 00bc 1092 0000 		sts Timebase_type+72,__zero_reg__
  92 00c0 1092 0000 		sts (Timebase_type+72)+1,__zero_reg__
  93 00c4 1092 0000 		sts (Timebase_type+72)+2,__zero_reg__
  94 00c8 1092 0000 		sts (Timebase_type+72)+3,__zero_reg__
  95               	.LM20:
  96 00cc 1092 0000 		sts Timebase_type+76,__zero_reg__
  97 00d0 1092 0000 		sts (Timebase_type+76)+1,__zero_reg__
  98 00d4 1092 0000 		sts (Timebase_type+76)+2,__zero_reg__
  99 00d8 1092 0000 		sts (Timebase_type+76)+3,__zero_reg__
 100               	.LM21:
 101 00dc 1092 0000 		sts Timebase_type+80,__zero_reg__
 102 00e0 1092 0000 		sts (Timebase_type+80)+1,__zero_reg__
 103 00e4 1092 0000 		sts (Timebase_type+80)+2,__zero_reg__
 104 00e8 1092 0000 		sts (Timebase_type+80)+3,__zero_reg__
 105               	.LBE844:
 106               	.LBB845:
 107               	.LM22:
 108 00ec 1092 0000 		sts Timebase_type+30,__zero_reg__
 109               	.LM23:
 110 00f0 1092 0000 		sts Timebase_type+31,__zero_reg__
 111 00f4 1092 0000 		sts (Timebase_type+31)+1,__zero_reg__
 112 00f8 1092 0000 		sts (Timebase_type+31)+2,__zero_reg__
 113 00fc 1092 0000 		sts (Timebase_type+31)+3,__zero_reg__
 114               	.LM24:
 115 0100 1092 0000 		sts Timebase_type+35,__zero_reg__
 116 0104 1092 0000 		sts (Timebase_type+35)+1,__zero_reg__
 117 0108 1092 0000 		sts (Timebase_type+35)+2,__zero_reg__
 118 010c 1092 0000 		sts (Timebase_type+35)+3,__zero_reg__
 119               	.LM25:
 120 0110 1092 0000 		sts Timebase_type+39,__zero_reg__
 121 0114 1092 0000 		sts (Timebase_type+39)+1,__zero_reg__
 122 0118 1092 0000 		sts (Timebase_type+39)+2,__zero_reg__
 123 011c 1092 0000 		sts (Timebase_type+39)+3,__zero_reg__
 124               	.LM26:
 125 0120 1092 0000 		sts Timebase_type+43,__zero_reg__
 126 0124 1092 0000 		sts (Timebase_type+43)+1,__zero_reg__
 127 0128 1092 0000 		sts (Timebase_type+43)+2,__zero_reg__
 128 012c 1092 0000 		sts (Timebase_type+43)+3,__zero_reg__
 129               	.LM27:
 130 0130 1092 0000 		sts Timebase_type+47,__zero_reg__
 131 0134 1092 0000 		sts (Timebase_type+47)+1,__zero_reg__
 132 0138 1092 0000 		sts (Timebase_type+47)+2,__zero_reg__
 133 013c 1092 0000 		sts (Timebase_type+47)+3,__zero_reg__
 134               	.LM28:
 135 0140 1092 0000 		sts Timebase_type+51,__zero_reg__
 136 0144 1092 0000 		sts (Timebase_type+51)+1,__zero_reg__
 137 0148 1092 0000 		sts (Timebase_type+51)+2,__zero_reg__
 138 014c 1092 0000 		sts (Timebase_type+51)+3,__zero_reg__
 139               	.LM29:
 140 0150 1092 0000 		sts Timebase_type+55,__zero_reg__
 141 0154 1092 0000 		sts (Timebase_type+55)+1,__zero_reg__
 142 0158 1092 0000 		sts (Timebase_type+55)+2,__zero_reg__
 143 015c 1092 0000 		sts (Timebase_type+55)+3,__zero_reg__
 144               	.LBE845:
 145               	.LBB846:
 146               	.LM30:
 147 0160 1092 0000 		sts Timebase_type+105,__zero_reg__
 148               	.LM31:
 149 0164 1092 0000 		sts Timebase_type+106,__zero_reg__
 150 0168 1092 0000 		sts (Timebase_type+106)+1,__zero_reg__
 151 016c 1092 0000 		sts (Timebase_type+106)+2,__zero_reg__
 152 0170 1092 0000 		sts (Timebase_type+106)+3,__zero_reg__
 153               	.LM32:
 154 0174 1092 0000 		sts Timebase_type+110,__zero_reg__
 155 0178 1092 0000 		sts (Timebase_type+110)+1,__zero_reg__
 156 017c 1092 0000 		sts (Timebase_type+110)+2,__zero_reg__
 157 0180 1092 0000 		sts (Timebase_type+110)+3,__zero_reg__
 158               	.LM33:
 159 0184 1092 0000 		sts Timebase_type+114,__zero_reg__
 160 0188 1092 0000 		sts (Timebase_type+114)+1,__zero_reg__
 161 018c 1092 0000 		sts (Timebase_type+114)+2,__zero_reg__
 162 0190 1092 0000 		sts (Timebase_type+114)+3,__zero_reg__
 163               	.LM34:
 164 0194 1092 0000 		sts Timebase_type+118,__zero_reg__
 165 0198 1092 0000 		sts (Timebase_type+118)+1,__zero_reg__
 166 019c 1092 0000 		sts (Timebase_type+118)+2,__zero_reg__
 167 01a0 1092 0000 		sts (Timebase_type+118)+3,__zero_reg__
 168               	.LBE846:
 169               	.LBB847:
 170               	.LM35:
 171 01a4 1092 0000 		sts Timebase_type+84,__zero_reg__
 172               	.LM36:
 173 01a8 1092 0000 		sts Timebase_type+85,__zero_reg__
 174 01ac 1092 0000 		sts (Timebase_type+85)+1,__zero_reg__
 175 01b0 1092 0000 		sts (Timebase_type+85)+2,__zero_reg__
 176 01b4 1092 0000 		sts (Timebase_type+85)+3,__zero_reg__
 177               	.LM37:
 178 01b8 1092 0000 		sts Timebase_type+89,__zero_reg__
 179 01bc 1092 0000 		sts (Timebase_type+89)+1,__zero_reg__
 180 01c0 1092 0000 		sts (Timebase_type+89)+2,__zero_reg__
 181 01c4 1092 0000 		sts (Timebase_type+89)+3,__zero_reg__
 182               	.LM38:
 183 01c8 1092 0000 		sts Timebase_type+93,__zero_reg__
 184 01cc 1092 0000 		sts (Timebase_type+93)+1,__zero_reg__
 185 01d0 1092 0000 		sts (Timebase_type+93)+2,__zero_reg__
 186 01d4 1092 0000 		sts (Timebase_type+93)+3,__zero_reg__
 187               	.LM39:
 188 01d8 1092 0000 		sts Timebase_type+97,__zero_reg__
 189 01dc 1092 0000 		sts (Timebase_type+97)+1,__zero_reg__
 190 01e0 1092 0000 		sts (Timebase_type+97)+2,__zero_reg__
 191 01e4 1092 0000 		sts (Timebase_type+97)+3,__zero_reg__
 192               	.LM40:
 193 01e8 1092 0000 		sts Timebase_type+101,__zero_reg__
 194 01ec 1092 0000 		sts (Timebase_type+101)+1,__zero_reg__
 195 01f0 1092 0000 		sts (Timebase_type+101)+2,__zero_reg__
 196 01f4 1092 0000 		sts (Timebase_type+101)+3,__zero_reg__
 197               	.LBE847:
 198               	.LBB848:
 199               	.LM41:
 200 01f8 1092 0000 		sts Timebase_type+122,__zero_reg__
 201               	.LM42:
 202 01fc 1092 0000 		sts Timebase_type+123,__zero_reg__
 203 0200 1092 0000 		sts (Timebase_type+123)+1,__zero_reg__
 204 0204 1092 0000 		sts (Timebase_type+123)+2,__zero_reg__
 205 0208 1092 0000 		sts (Timebase_type+123)+3,__zero_reg__
 206               	.LM43:
 207 020c 1092 0000 		sts Timebase_type+127,__zero_reg__
 208 0210 1092 0000 		sts (Timebase_type+127)+1,__zero_reg__
 209 0214 1092 0000 		sts (Timebase_type+127)+2,__zero_reg__
 210 0218 1092 0000 		sts (Timebase_type+127)+3,__zero_reg__
 211               	.LM44:
 212 021c 1092 0000 		sts Timebase_type+131,__zero_reg__
 213 0220 1092 0000 		sts (Timebase_type+131)+1,__zero_reg__
 214 0224 1092 0000 		sts (Timebase_type+131)+2,__zero_reg__
 215 0228 1092 0000 		sts (Timebase_type+131)+3,__zero_reg__
 216               	.LM45:
 217 022c 1092 0000 		sts Timebase_type+135,__zero_reg__
 218 0230 1092 0000 		sts (Timebase_type+135)+1,__zero_reg__
 219 0234 1092 0000 		sts (Timebase_type+135)+2,__zero_reg__
 220 0238 1092 0000 		sts (Timebase_type+135)+3,__zero_reg__
 221               	/* epilogue start */
 222               	.LBE848:
 223               	.LM46:
 224 023c 0895      		ret
 225               	.LFE6:
 227               	.global	Timebase_Timer_Enable
 229               	Timebase_Timer_Enable:
 230               	.LFB7:
 231               	.LM47:
 232               	.LVL0:
 233 023e 8F92      		push r8
 234 0240 9F92      		push r9
 235 0242 BF92      		push r11
 236 0244 CF92      		push r12
 237 0246 DF92      		push r13
 238 0248 EF92      		push r14
 239 024a FF92      		push r15
 240 024c 0F93      		push r16
 241 024e 1F93      		push r17
 242 0250 DF93      		push r29
 243 0252 CF93      		push r28
 244 0254 CDB7      		in r28,__SP_L__
 245 0256 DEB7      		in r29,__SP_H__
 246 0258 2A97      		sbiw r28,10
 247 025a 0FB6      		in __tmp_reg__,__SREG__
 248 025c F894      		cli
 249 025e DEBF      		out __SP_H__,r29
 250 0260 0FBE      		out __SREG__,__tmp_reg__
 251 0262 CDBF      		out __SP_L__,r28
 252               	/* prologue: function */
 253               	/* frame size = 10 */
 254 0264 4C01      		movw r8,r24
 255               	.LM48:
 256 0266 DE01      		movw r26,r28
 257 0268 1196      		adiw r26,1
 258 026a E0E0      		ldi r30,lo8(C.1.1822)
 259 026c F0E0      		ldi r31,hi8(C.1.1822)
 260 026e 8AE0      		ldi r24,lo8(10)
 261               	.LVL1:
 262               	.L4:
 263 0270 0190      		ld r0,Z+
 264 0272 0D92      		st X+,r0
 265 0274 8150      		subi r24,lo8(-(-1))
 266 0276 01F4      		brne .L4
 267               	.LM49:
 268 0278 9401      		movw r18,r8
 269 027a 40E0      		ldi r20,lo8(0)
 270 027c 50E0      		ldi r21,hi8(0)
 271               	.LVL2:
 272 027e 60E0      		ldi r22,lo8(12000000)
 273 0280 7BE1      		ldi r23,hi8(12000000)
 274 0282 87EB      		ldi r24,hlo8(12000000)
 275 0284 90E0      		ldi r25,hhi8(12000000)
 276 0286 0E94 0000 		call __divmodsi4
 277 028a B22E      		mov r11,r18
 278 028c C32E      		mov r12,r19
 279 028e D42E      		mov r13,r20
 280               	.LVL3:
 281 0290 052F      		mov r16,r21
 282 0292 7E01      		movw r14,r28
 283 0294 0894      		sec
 284 0296 E11C      		adc r14,__zero_reg__
 285 0298 F11C      		adc r15,__zero_reg__
 286 029a C901      		movw r24,r18
 287 029c DA01      		movw r26,r20
 288 029e 9C01      		movw r18,r24
 289 02a0 AD01      		movw r20,r26
 290               	.LVL4:
 291 02a2 10E0      		ldi r17,lo8(0)
 292               	.LVL5:
 293 02a4 00C0      		rjmp .L5
 294               	.LVL6:
 295               	.L7:
 296               	.LM50:
 297 02a6 F701      		movw r30,r14
 298 02a8 2191      		ld r18,Z+
 299 02aa 3191      		ld r19,Z+
 300               	.LVL7:
 301 02ac 7F01      		movw r14,r30
 302 02ae 40E0      		ldi r20,lo8(0)
 303 02b0 50E0      		ldi r21,hi8(0)
 304 02b2 6B2D      		mov r22,r11
 305 02b4 7C2D      		mov r23,r12
 306 02b6 8D2D      		mov r24,r13
 307               	.LVL8:
 308 02b8 902F      		mov r25,r16
 309 02ba 0E94 0000 		call __divmodsi4
 310 02be C901      		movw r24,r18
 311 02c0 DA01      		movw r26,r20
 312 02c2 9C01      		movw r18,r24
 313 02c4 AD01      		movw r20,r26
 314               	.LVL9:
 315               	.LM51:
 316 02c6 1F5F      		subi r17,lo8(-(1))
 317               	.LM52:
 318 02c8 1530      		cpi r17,lo8(5)
 319 02ca 01F0      		breq .L6
 320               	.LVL10:
 321               	.L5:
 322               	.LM53:
 323 02cc 2F3F      		cpi r18,lo8(255)
 324 02ce 3105      		cpc r19,__zero_reg__
 325 02d0 4105      		cpc r20,__zero_reg__
 326 02d2 5105      		cpc r21,__zero_reg__
 327 02d4 01F0      		breq .+2
 328 02d6 04F4      		brge .L7
 329               	.L6:
 330               	.LM54:
 331 02d8 812F      		mov r24,r17
 332 02da 8150      		subi r24,lo8(-(-1))
 333               	.LVL11:
 334               	.LM55:
 335 02dc 14BC      		out 68-32,__zero_reg__
 336               	.LM56:
 337 02de 15BC      		out 69-32,__zero_reg__
 338               	.LM57:
 339 02e0 1092 6E00 		sts 110,__zero_reg__
 340               	.LM58:
 341 02e4 15BA      		out 53-32,__zero_reg__
 342               	.LM59:
 343 02e6 17BC      		out 71-32,__zero_reg__
 344               	.LM60:
 345 02e8 18BC      		out 72-32,__zero_reg__
 346               	.LM61:
 347 02ea 16BC      		out 70-32,__zero_reg__
 348               	.LM62:
 349 02ec 17BC      		out 71-32,__zero_reg__
 350               	.LM63:
 351 02ee 8823      		tst r24
 352 02f0 01F4      		brne .L8
 353               	.LM64:
 354 02f2 81E0      		ldi r24,lo8(1)
 355               	.LVL12:
 356 02f4 00C0      		rjmp .L15
 357               	.LVL13:
 358               	.L8:
 359               	.LM65:
 360 02f6 8130      		cpi r24,lo8(1)
 361 02f8 01F4      		brne .L10
 362               	.LM66:
 363 02fa 82E0      		ldi r24,lo8(2)
 364               	.LVL14:
 365 02fc 00C0      		rjmp .L15
 366               	.LVL15:
 367               	.L10:
 368               	.LM67:
 369 02fe 8230      		cpi r24,lo8(2)
 370 0300 01F4      		brne .L11
 371               	.LM68:
 372 0302 83E0      		ldi r24,lo8(3)
 373               	.LVL16:
 374 0304 00C0      		rjmp .L15
 375               	.LVL17:
 376               	.L11:
 377               	.LM69:
 378 0306 8330      		cpi r24,lo8(3)
 379 0308 01F4      		brne .L12
 380               	.LM70:
 381 030a 84E0      		ldi r24,lo8(4)
 382               	.LVL18:
 383 030c 00C0      		rjmp .L15
 384               	.LVL19:
 385               	.L12:
 386               	.LM71:
 387 030e 8430      		cpi r24,lo8(4)
 388 0310 01F4      		brne .L9
 389               	.LM72:
 390 0312 85E0      		ldi r24,lo8(5)
 391               	.LVL20:
 392               	.L15:
 393 0314 85BD      		out 69-32,r24
 394               	.LVL21:
 395               	.L9:
 396               	.LM73:
 397 0316 E091 0000 		lds r30,Timebase
 398 031a F091 0000 		lds r31,(Timebase)+1
 399 031e 8FEF      		ldi r24,lo8(255)
 400 0320 90E0      		ldi r25,hi8(255)
 401               	.LVL22:
 402 0322 821B      		sub r24,r18
 403 0324 930B      		sbc r25,r19
 404 0326 9583      		std Z+5,r25
 405 0328 8483      		std Z+4,r24
 406               	.LM74:
 407 032a 8481      		ldd r24,Z+4
 408 032c 9581      		ldd r25,Z+5
 409 032e 86BD      		out 70-32,r24
 410               	.LM75:
 411 0330 81E0      		ldi r24,lo8(1)
 412 0332 8093 6E00 		sts 110,r24
 413               	.LM76:
 414               	/* #APP */
 415               	 ;  353 "timebase.c" 1
 416 0336 7894      		sei
 417               	 ;  0 "" 2
 418               	.LM77:
 419               	/* #NOAPP */
 420 0338 9182      		std Z+1,r9
 421 033a 8082      		st Z,r8
 422               	/* epilogue start */
 423               	.LM78:
 424 033c 2A96      		adiw r28,10
 425 033e 0FB6      		in __tmp_reg__,__SREG__
 426 0340 F894      		cli
 427 0342 DEBF      		out __SP_H__,r29
 428 0344 0FBE      		out __SREG__,__tmp_reg__
 429 0346 CDBF      		out __SP_L__,r28
 430 0348 CF91      		pop r28
 431 034a DF91      		pop r29
 432 034c 1F91      		pop r17
 433 034e 0F91      		pop r16
 434 0350 FF90      		pop r15
 435 0352 EF90      		pop r14
 436 0354 DF90      		pop r13
 437 0356 CF90      		pop r12
 438 0358 BF90      		pop r11
 439 035a 9F90      		pop r9
 440 035c 8F90      		pop r8
 441               	.LVL23:
 442 035e 0895      		ret
 443               	.LFE7:
 445               	.global	Timebase_Timer_Disable
 447               	Timebase_Timer_Disable:
 448               	.LFB8:
 449               	.LM79:
 450               	/* prologue: function */
 451               	/* frame size = 0 */
 452               	.LM80:
 453 0360 14BC      		out 68-32,__zero_reg__
 454               	.LM81:
 455 0362 15BC      		out 69-32,__zero_reg__
 456               	.LM82:
 457 0364 1092 6E00 		sts 110,__zero_reg__
 458               	.LM83:
 459 0368 87E0      		ldi r24,lo8(7)
 460 036a 85BB      		out 53-32,r24
 461               	.LM84:
 462 036c 17BC      		out 71-32,__zero_reg__
 463               	.LM85:
 464 036e 18BC      		out 72-32,__zero_reg__
 465               	.LM86:
 466 0370 16BC      		out 70-32,__zero_reg__
 467               	/* epilogue start */
 468               	.LM87:
 469 0372 0895      		ret
 470               	.LFE8:
 472               	.global	Timebase_LPTimer_Enable
 474               	Timebase_LPTimer_Enable:
 475               	.LFB9:
 476               	.LM88:
 477               	.LVL24:
 478               	/* prologue: function */
 479               	/* frame size = 0 */
 480 0374 9C01      		movw r18,r24
 481               	.LM89:
 482 0376 8130      		cpi r24,1
 483 0378 9105      		cpc r25,__zero_reg__
 484 037a 01F4      		brne .L19
 485 037c 96E0      		ldi r25,lo8(6)
 486               	.LVL25:
 487 037e 00C0      		rjmp .L20
 488               	.LVL26:
 489               	.L19:
 490               	.LM90:
 491 0380 8230      		cpi r24,2
 492 0382 9105      		cpc r25,__zero_reg__
 493 0384 01F4      		brne .L21
 494 0386 95E0      		ldi r25,lo8(5)
 495               	.LVL27:
 496 0388 00C0      		rjmp .L20
 497               	.LVL28:
 498               	.L21:
 499               	.LM91:
 500 038a 8430      		cpi r24,4
 501 038c 9105      		cpc r25,__zero_reg__
 502 038e 01F4      		brne .L22
 503 0390 94E0      		ldi r25,lo8(4)
 504               	.LVL29:
 505 0392 00C0      		rjmp .L20
 506               	.LVL30:
 507               	.L22:
 508               	.LM92:
 509 0394 8830      		cpi r24,8
 510 0396 9105      		cpc r25,__zero_reg__
 511 0398 01F4      		brne .L23
 512 039a 93E0      		ldi r25,lo8(3)
 513               	.LVL31:
 514 039c 00C0      		rjmp .L20
 515               	.LVL32:
 516               	.L23:
 517               	.LM93:
 518 039e 8031      		cpi r24,16
 519 03a0 9105      		cpc r25,__zero_reg__
 520 03a2 01F4      		brne .L24
 521 03a4 92E0      		ldi r25,lo8(2)
 522               	.LVL33:
 523 03a6 00C0      		rjmp .L20
 524               	.LVL34:
 525               	.L24:
 526 03a8 90E0      		ldi r25,lo8(0)
 527               	.LVL35:
 528 03aa 2032      		cpi r18,32
 529 03ac 3105      		cpc r19,__zero_reg__
 530 03ae 01F4      		brne .L20
 531               	.LVL36:
 532 03b0 91E0      		ldi r25,lo8(1)
 533               	.L20:
 534               	.LM94:
 535               	/* #APP */
 536               	 ;  396 "timebase.c" 1
 537 03b2 F894      		cli
 538               	 ;  0 "" 2
 539               	.LM95:
 540               	/* #NOAPP */
 541 03b4 84B7      		in r24,84-32
 542 03b6 877F      		andi r24,lo8(-9)
 543 03b8 84BF      		out 84-32,r24
 544               	.LM96:
 545 03ba 8091 6000 		lds r24,96
 546 03be 8068      		ori r24,lo8(-128)
 547 03c0 8093 6000 		sts 96,r24
 548               	.LM97:
 549 03c4 8091 6000 		lds r24,96
 550 03c8 8861      		ori r24,lo8(24)
 551 03ca 8093 6000 		sts 96,r24
 552               	.LM98:
 553 03ce 9064      		ori r25,lo8(64)
 554 03d0 9093 6000 		sts 96,r25
 555               	.LM99:
 556               	/* #APP */
 557               	 ;  401 "timebase.c" 1
 558 03d4 7894      		sei
 559               	 ;  0 "" 2
 560               	.LM100:
 561               	/* #NOAPP */
 562 03d6 E091 0000 		lds r30,Timebase
 563 03da F091 0000 		lds r31,(Timebase)+1
 564 03de 3383      		std Z+3,r19
 565 03e0 2283      		std Z+2,r18
 566               	/* epilogue start */
 567               	.LM101:
 568 03e2 0895      		ret
 569               	.LFE9:
 571               	.global	Timebase_LPTimer_Disable
 573               	Timebase_LPTimer_Disable:
 574               	.LFB10:
 575               	.LM102:
 576               	/* prologue: function */
 577               	/* frame size = 0 */
 578               	.LM103:
 579               	/* #APP */
 580               	 ;  407 "timebase.c" 1
 581 03e4 F894      		cli
 582               	 ;  0 "" 2
 583               	.LM104:
 584               	/* #NOAPP */
 585 03e6 84B7      		in r24,84-32
 586 03e8 877F      		andi r24,lo8(-9)
 587 03ea 84BF      		out 84-32,r24
 588               	.LM105:
 589 03ec E0E6      		ldi r30,lo8(96)
 590 03ee F0E0      		ldi r31,hi8(96)
 591 03f0 8081      		ld r24,Z
 592 03f2 8068      		ori r24,lo8(-128)
 593 03f4 8083      		st Z,r24
 594               	.LM106:
 595 03f6 8081      		ld r24,Z
 596 03f8 8861      		ori r24,lo8(24)
 597 03fa 8083      		st Z,r24
 598               	.LM107:
 599 03fc 1082      		st Z,__zero_reg__
 600               	.LM108:
 601               	/* #APP */
 602               	 ;  412 "timebase.c" 1
 603 03fe 7894      		sei
 604               	 ;  0 "" 2
 605               	/* epilogue start */
 606               	.LM109:
 607               	/* #NOAPP */
 608 0400 0895      		ret
 609               	.LFE10:
 611               	.global	Timebase_Atomic_Operation_Start
 613               	Timebase_Atomic_Operation_Start:
 614               	.LFB11:
 615               	.LM110:
 616               	/* prologue: function */
 617               	/* frame size = 0 */
 618               	.LM111:
 619               	/* #APP */
 620               	 ;  431 "timebase.c" 1
 621 0402 F894      		cli
 622               	 ;  0 "" 2
 623               	/* epilogue start */
 624               	.LM112:
 625               	/* #NOAPP */
 626 0404 0895      		ret
 627               	.LFE11:
 629               	.global	Timebase_Atomic_Operation_End
 631               	Timebase_Atomic_Operation_End:
 632               	.LFB12:
 633               	.LM113:
 634               	/* prologue: function */
 635               	/* frame size = 0 */
 636               	.LM114:
 637               	/* #APP */
 638               	 ;  436 "timebase.c" 1
 639 0406 7894      		sei
 640               	 ;  0 "" 2
 641               	/* epilogue start */
 642               	.LM115:
 643               	/* #NOAPP */
 644 0408 0895      		ret
 645               	.LFE12:
 647               	.global	Timebase_Timer_Get_SubSecondsShadow
 649               	Timebase_Timer_Get_SubSecondsShadow:
 650               	.LFB15:
 651               	.LM116:
 652               	/* prologue: function */
 653               	/* frame size = 0 */
 654               	.LM117:
 655 040a E091 0000 		lds r30,Timebase
 656 040e F091 0000 		lds r31,(Timebase)+1
 657 0412 2089      		ldd r18,Z+16
 658 0414 3189      		ldd r19,Z+17
 659               	.LM118:
 660 0416 C901      		movw r24,r18
 661               	/* epilogue start */
 662 0418 0895      		ret
 663               	.LFE15:
 665               	.global	Timebase_Timer_Get_SecondsShadow
 667               	Timebase_Timer_Get_SecondsShadow:
 668               	.LFB16:
 669               	.LM119:
 670               	/* prologue: function */
 671               	/* frame size = 0 */
 672               	.LM120:
 673 041a E091 0000 		lds r30,Timebase
 674 041e F091 0000 		lds r31,(Timebase)+1
 675 0422 2289      		ldd r18,Z+18
 676 0424 3389      		ldd r19,Z+19
 677 0426 4489      		ldd r20,Z+20
 678 0428 5589      		ldd r21,Z+21
 679               	.LM121:
 680 042a B901      		movw r22,r18
 681 042c CA01      		movw r24,r20
 682               	/* epilogue start */
 683 042e 0895      		ret
 684               	.LFE16:
 686               	.global	Timebase_Timer_Get_SubSeconds
 688               	Timebase_Timer_Get_SubSeconds:
 689               	.LFB17:
 690               	.LM122:
 691               	/* prologue: function */
 692               	/* frame size = 0 */
 693               	.LM123:
 694 0430 E091 0000 		lds r30,Timebase
 695 0434 F091 0000 		lds r31,(Timebase)+1
 696 0438 2285      		ldd r18,Z+10
 697 043a 3385      		ldd r19,Z+11
 698               	.LM124:
 699 043c C901      		movw r24,r18
 700               	/* epilogue start */
 701 043e 0895      		ret
 702               	.LFE17:
 704               	.global	Timebase_Timer_Get_Seconds
 706               	Timebase_Timer_Get_Seconds:
 707               	.LFB18:
 708               	.LM125:
 709               	/* prologue: function */
 710               	/* frame size = 0 */
 711               	.LM126:
 712 0440 E091 0000 		lds r30,Timebase
 713 0444 F091 0000 		lds r31,(Timebase)+1
 714 0448 2485      		ldd r18,Z+12
 715 044a 3585      		ldd r19,Z+13
 716 044c 4685      		ldd r20,Z+14
 717 044e 5785      		ldd r21,Z+15
 718               	.LM127:
 719 0450 B901      		movw r22,r18
 720 0452 CA01      		movw r24,r20
 721               	/* epilogue start */
 722 0454 0895      		ret
 723               	.LFE18:
 725               	.global	Timebase_Timer_Set_SubSeconds
 727               	Timebase_Timer_Set_SubSeconds:
 728               	.LFB19:
 729               	.LM128:
 730               	.LVL37:
 731               	/* prologue: function */
 732               	/* frame size = 0 */
 733               	.LM129:
 734 0456 E091 0000 		lds r30,Timebase
 735 045a F091 0000 		lds r31,(Timebase)+1
 736 045e 9387      		std Z+11,r25
 737 0460 8287      		std Z+10,r24
 738               	/* epilogue start */
 739               	.LM130:
 740 0462 0895      		ret
 741               	.LFE19:
 743               	.global	Timebase_Timer_Set_Seconds
 745               	Timebase_Timer_Set_Seconds:
 746               	.LFB20:
 747               	.LM131:
 748               	.LVL38:
 749               	/* prologue: function */
 750               	/* frame size = 0 */
 751               	.LM132:
 752 0464 E091 0000 		lds r30,Timebase
 753 0468 F091 0000 		lds r31,(Timebase)+1
 754 046c 6487      		std Z+12,r22
 755 046e 7587      		std Z+13,r23
 756 0470 8687      		std Z+14,r24
 757 0472 9787      		std Z+15,r25
 758               	/* epilogue start */
 759               	.LM133:
 760 0474 0895      		ret
 761               	.LFE20:
 763               	.global	Timebase_Timer_Get_SubSecondsShadow_Securely
 765               	Timebase_Timer_Get_SubSecondsShadow_Securely:
 766               	.LFB21:
 767               	.LM134:
 768               	/* prologue: function */
 769               	/* frame size = 0 */
 770               	.LM135:
 771 0476 E091 0000 		lds r30,Timebase
 772 047a F091 0000 		lds r31,(Timebase)+1
 773               	.L46:
 774 047e 2089      		ldd r18,Z+16
 775 0480 3189      		ldd r19,Z+17
 776               	.LVL39:
 777               	.LM136:
 778 0482 8089      		ldd r24,Z+16
 779 0484 9189      		ldd r25,Z+17
 780               	.LVL40:
 781               	.LM137:
 782 0486 2817      		cp r18,r24
 783 0488 3907      		cpc r19,r25
 784 048a 01F4      		brne .L46
 785               	.LM138:
 786 048c C901      		movw r24,r18
 787               	.LVL41:
 788               	/* epilogue start */
 789 048e 0895      		ret
 790               	.LFE21:
 792               	.global	Timebase_Timer_Get_SecondsShadow_Securely
 794               	Timebase_Timer_Get_SecondsShadow_Securely:
 795               	.LFB22:
 796               	.LM139:
 797               	/* prologue: function */
 798               	/* frame size = 0 */
 799               	.LM140:
 800 0490 E091 0000 		lds r30,Timebase
 801 0494 F091 0000 		lds r31,(Timebase)+1
 802               	.L50:
 803 0498 2289      		ldd r18,Z+18
 804 049a 3389      		ldd r19,Z+19
 805 049c 4489      		ldd r20,Z+20
 806 049e 5589      		ldd r21,Z+21
 807               	.LVL42:
 808               	.LM141:
 809 04a0 8289      		ldd r24,Z+18
 810 04a2 9389      		ldd r25,Z+19
 811 04a4 A489      		ldd r26,Z+20
 812 04a6 B589      		ldd r27,Z+21
 813               	.LVL43:
 814               	.LM142:
 815 04a8 2817      		cp r18,r24
 816 04aa 3907      		cpc r19,r25
 817 04ac 4A07      		cpc r20,r26
 818 04ae 5B07      		cpc r21,r27
 819 04b0 01F4      		brne .L50
 820               	.LM143:
 821 04b2 B901      		movw r22,r18
 822               	.LVL44:
 823 04b4 CA01      		movw r24,r20
 824               	.LVL45:
 825               	/* epilogue start */
 826 04b6 0895      		ret
 827               	.LFE22:
 829               	.global	Timebase_Timer_Sync_With_Shadow_Variables
 831               	Timebase_Timer_Sync_With_Shadow_Variables:
 832               	.LFB23:
 833               	.LM144:
 834               	/* prologue: function */
 835               	/* frame size = 0 */
 836               	.LM145:
 837 04b8 E091 0000 		lds r30,Timebase
 838 04bc F091 0000 		lds r31,(Timebase)+1
 839 04c0 8689      		ldd r24,Z+22
 840 04c2 8823      		tst r24
 841 04c4 01F4      		brne .L55
 842               	.LBB849:
 843               	.LBB850:
 844               	.LM146:
 845               	/* #APP */
 846               	 ;  431 "timebase.c" 1
 847 04c6 F894      		cli
 848               	 ;  0 "" 2
 849               	/* #NOAPP */
 850               	.LBE850:
 851               	.LBE849:
 852               	.LM147:
 853 04c8 8089      		ldd r24,Z+16
 854 04ca 9189      		ldd r25,Z+17
 855 04cc 9387      		std Z+11,r25
 856 04ce 8287      		std Z+10,r24
 857               	.LM148:
 858 04d0 8289      		ldd r24,Z+18
 859 04d2 9389      		ldd r25,Z+19
 860 04d4 A489      		ldd r26,Z+20
 861 04d6 B589      		ldd r27,Z+21
 862 04d8 8487      		std Z+12,r24
 863 04da 9587      		std Z+13,r25
 864 04dc A687      		std Z+14,r26
 865 04de B787      		std Z+15,r27
 866               	.LBB851:
 867               	.LBB852:
 868               	.LM149:
 869               	/* #APP */
 870               	 ;  436 "timebase.c" 1
 871 04e0 7894      		sei
 872               	 ;  0 "" 2
 873               	/* #NOAPP */
 874               	.LBE852:
 875               	.LBE851:
 876               	.LM150:
 877 04e2 81E0      		ldi r24,lo8(1)
 878 04e4 868B      		std Z+22,r24
 879               	.L55:
 880 04e6 0895      		ret
 881               	.LFE23:
 883               	.global	Timebase_Timer_Delay_SubSeconds
 885               	Timebase_Timer_Delay_SubSeconds:
 886               	.LFB24:
 887               	.LM151:
 888               	.LVL46:
 889 04e8 6F92      		push r6
 890 04ea 7F92      		push r7
 891 04ec 8F92      		push r8
 892 04ee 9F92      		push r9
 893 04f0 AF92      		push r10
 894 04f2 BF92      		push r11
 895 04f4 CF92      		push r12
 896 04f6 DF92      		push r13
 897 04f8 EF92      		push r14
 898 04fa FF92      		push r15
 899 04fc 0F93      		push r16
 900 04fe 1F93      		push r17
 901 0500 CF93      		push r28
 902 0502 DF93      		push r29
 903               	/* prologue: function */
 904               	/* frame size = 0 */
 905 0504 5C01      		movw r10,r24
 906               	.LBB853:
 907               	.LBB854:
 908               	.LM152:
 909               	/* #APP */
 910               	 ;  431 "timebase.c" 1
 911 0506 F894      		cli
 912               	 ;  0 "" 2
 913               	/* #NOAPP */
 914               	.LBE854:
 915               	.LBE853:
 916               	.LBB855:
 917               	.LBB856:
 918               	.LM153:
 919 0508 C091 0000 		lds r28,Timebase
 920 050c D091 0000 		lds r29,(Timebase)+1
 921 0510 E888      		ldd r14,Y+16
 922 0512 F988      		ldd r15,Y+17
 923               	.LBE856:
 924               	.LBE855:
 925               	.LBB857:
 926               	.LBB858:
 927               	.LM154:
 928 0514 2A89      		ldd r18,Y+18
 929 0516 3B89      		ldd r19,Y+19
 930 0518 4C89      		ldd r20,Y+20
 931 051a 5D89      		ldd r21,Y+21
 932               	.LVL47:
 933               	.LBE858:
 934               	.LBE857:
 935               	.LBB859:
 936               	.LBB860:
 937               	.LM155:
 938               	/* #APP */
 939               	 ;  436 "timebase.c" 1
 940 051c 7894      		sei
 941               	 ;  0 "" 2
 942               	/* #NOAPP */
 943               	.LBE860:
 944               	.LBE859:
 945               	.LM156:
 946 051e 6881      		ld r22,Y
 947 0520 7981      		ldd r23,Y+1
 948 0522 80E0      		ldi r24,lo8(0)
 949 0524 90E0      		ldi r25,hi8(0)
 950               	.LVL48:
 951 0526 0E94 0000 		call __mulsi3
 952               	.LVL49:
 953 052a 3B01      		movw r6,r22
 954 052c 4C01      		movw r8,r24
 955               	.LVL50:
 956               	.LM157:
 957 052e 00E0      		ldi r16,lo8(0)
 958 0530 10E0      		ldi r17,hi8(0)
 959 0532 6E0C      		add r6,r14
 960 0534 7F1C      		adc r7,r15
 961 0536 801E      		adc r8,r16
 962 0538 911E      		adc r9,r17
 963               	.LM158:
 964 053a CC24      		clr r12
 965 053c DD24      		clr r13
 966               	.LVL51:
 967 053e 6A0C      		add r6,r10
 968 0540 7B1C      		adc r7,r11
 969 0542 8C1C      		adc r8,r12
 970 0544 9D1C      		adc r9,r13
 971 0546 60E0      		ldi r22,lo8(0)
 972 0548 70E0      		ldi r23,hi8(0)
 973 054a 80E0      		ldi r24,hlo8(0)
 974 054c 90E0      		ldi r25,hhi8(0)
 975               	.LVL52:
 976 054e 00C0      		rjmp .L57
 977               	.L58:
 978               	.LBB861:
 979               	.LBB862:
 980               	.LM159:
 981               	/* #APP */
 982               	 ;  431 "timebase.c" 1
 983 0550 F894      		cli
 984               	 ;  0 "" 2
 985               	/* #NOAPP */
 986               	.LBE862:
 987               	.LBE861:
 988               	.LBB863:
 989               	.LBB864:
 990               	.LM160:
 991 0552 E888      		ldd r14,Y+16
 992 0554 F988      		ldd r15,Y+17
 993               	.LBE864:
 994               	.LBE863:
 995               	.LBB865:
 996               	.LBB866:
 997               	.LM161:
 998 0556 2A89      		ldd r18,Y+18
 999 0558 3B89      		ldd r19,Y+19
 1000 055a 4C89      		ldd r20,Y+20
 1001 055c 5D89      		ldd r21,Y+21
 1002               	.LVL53:
 1003               	.LBE866:
 1004               	.LBE865:
 1005               	.LBB867:
 1006               	.LBB868:
 1007               	.LM162:
 1008               	/* #APP */
 1009               	 ;  436 "timebase.c" 1
 1010 055e 7894      		sei
 1011               	 ;  0 "" 2
 1012               	/* #NOAPP */
 1013               	.LBE868:
 1014               	.LBE867:
 1015               	.LM163:
 1016 0560 6881      		ld r22,Y
 1017 0562 7981      		ldd r23,Y+1
 1018               	.LVL54:
 1019 0564 80E0      		ldi r24,lo8(0)
 1020 0566 90E0      		ldi r25,hi8(0)
 1021 0568 0E94 0000 		call __mulsi3
 1022               	.LVL55:
 1023               	.LM164:
 1024 056c 00E0      		ldi r16,lo8(0)
 1025 056e 10E0      		ldi r17,hi8(0)
 1026 0570 6E0D      		add r22,r14
 1027 0572 7F1D      		adc r23,r15
 1028 0574 801F      		adc r24,r16
 1029 0576 911F      		adc r25,r17
 1030               	.LVL56:
 1031               	.L57:
 1032               	.LM165:
 1033 0578 6615      		cp r22,r6
 1034 057a 7705      		cpc r23,r7
 1035 057c 8805      		cpc r24,r8
 1036 057e 9905      		cpc r25,r9
 1037 0580 04F0      		brlt .L58
 1038               	/* epilogue start */
 1039               	.LM166:
 1040 0582 DF91      		pop r29
 1041 0584 CF91      		pop r28
 1042 0586 1F91      		pop r17
 1043 0588 0F91      		pop r16
 1044 058a FF90      		pop r15
 1045 058c EF90      		pop r14
 1046 058e DF90      		pop r13
 1047 0590 CF90      		pop r12
 1048               	.LVL57:
 1049 0592 BF90      		pop r11
 1050 0594 AF90      		pop r10
 1051               	.LVL58:
 1052 0596 9F90      		pop r9
 1053 0598 8F90      		pop r8
 1054 059a 7F90      		pop r7
 1055 059c 6F90      		pop r6
 1056               	.LVL59:
 1057 059e 0895      		ret
 1058               	.LFE24:
 1060               	.global	Timebase_Timer_Await_SubSeconds
 1062               	Timebase_Timer_Await_SubSeconds:
 1063               	.LFB25:
 1064               	.LM167:
 1065               	.LVL60:
 1066               	/* prologue: function */
 1067               	/* frame size = 0 */
 1068 05a0 BC01      		movw r22,r24
 1069               	.LBB869:
 1070               	.LBB870:
 1071               	.LM168:
 1072               	/* #APP */
 1073               	 ;  431 "timebase.c" 1
 1074 05a2 F894      		cli
 1075               	 ;  0 "" 2
 1076               	/* #NOAPP */
 1077               	.LBE870:
 1078               	.LBE869:
 1079               	.LBB871:
 1080               	.LBB872:
 1081               	.LM169:
 1082 05a4 E091 0000 		lds r30,Timebase
 1083 05a8 F091 0000 		lds r31,(Timebase)+1
 1084 05ac 00C0      		rjmp .L65
 1085               	.LVL61:
 1086               	.L62:
 1087               	.LBE872:
 1088               	.LBE871:
 1089               	.LBB873:
 1090               	.LBB874:
 1091               	.LM170:
 1092               	/* #APP */
 1093               	 ;  431 "timebase.c" 1
 1094 05ae F894      		cli
 1095               	 ;  0 "" 2
 1096               	.LVL62:
 1097               	/* #NOAPP */
 1098               	.L65:
 1099               	.LBE874:
 1100               	.LBE873:
 1101               	.LBB875:
 1102               	.LBB876:
 1103               	.LM171:
 1104 05b0 8089      		ldd r24,Z+16
 1105 05b2 9189      		ldd r25,Z+17
 1106               	.LBE876:
 1107               	.LBE875:
 1108               	.LBB877:
 1109               	.LBB878:
 1110               	.LM172:
 1111               	/* #APP */
 1112               	 ;  436 "timebase.c" 1
 1113 05b4 7894      		sei
 1114               	 ;  0 "" 2
 1115               	/* #NOAPP */
 1116               	.LBE878:
 1117               	.LBE877:
 1118               	.LM173:
 1119 05b6 2681      		ldd r18,Z+6
 1120 05b8 3781      		ldd r19,Z+7
 1121 05ba 4085      		ldd r20,Z+8
 1122 05bc 5185      		ldd r21,Z+9
 1123 05be A0E0      		ldi r26,lo8(0)
 1124 05c0 B0E0      		ldi r27,hi8(0)
 1125 05c2 8217      		cp r24,r18
 1126 05c4 9307      		cpc r25,r19
 1127 05c6 A407      		cpc r26,r20
 1128 05c8 B507      		cpc r27,r21
 1129 05ca 01F4      		brne .L62
 1130               	.LBB879:
 1131               	.LBB880:
 1132               	.LM174:
 1133               	/* #APP */
 1134               	 ;  431 "timebase.c" 1
 1135 05cc F894      		cli
 1136               	 ;  0 "" 2
 1137               	/* #NOAPP */
 1138               	.LBE880:
 1139               	.LBE879:
 1140               	.LBB881:
 1141               	.LBB882:
 1142               	.LM175:
 1143 05ce 8089      		ldd r24,Z+16
 1144 05d0 9189      		ldd r25,Z+17
 1145               	.LVL63:
 1146               	.LBE882:
 1147               	.LBE881:
 1148               	.LBB883:
 1149               	.LBB884:
 1150               	.LM176:
 1151               	/* #APP */
 1152               	 ;  436 "timebase.c" 1
 1153 05d2 7894      		sei
 1154               	 ;  0 "" 2
 1155               	/* #NOAPP */
 1156               	.LBE884:
 1157               	.LBE883:
 1158               	.LM177:
 1159 05d4 A0E0      		ldi r26,lo8(0)
 1160 05d6 B0E0      		ldi r27,hi8(0)
 1161               	.LVL64:
 1162 05d8 8683      		std Z+6,r24
 1163 05da 9783      		std Z+7,r25
 1164 05dc A087      		std Z+8,r26
 1165 05de B187      		std Z+9,r27
 1166               	.LVL65:
 1167               	.LM178:
 1168 05e0 2681      		ldd r18,Z+6
 1169 05e2 3781      		ldd r19,Z+7
 1170 05e4 4085      		ldd r20,Z+8
 1171 05e6 5185      		ldd r21,Z+9
 1172 05e8 CB01      		movw r24,r22
 1173 05ea A0E0      		ldi r26,lo8(0)
 1174 05ec B0E0      		ldi r27,hi8(0)
 1175               	.LVL66:
 1176 05ee 820F      		add r24,r18
 1177 05f0 931F      		adc r25,r19
 1178 05f2 A41F      		adc r26,r20
 1179 05f4 B51F      		adc r27,r21
 1180               	.LVL67:
 1181 05f6 8683      		std Z+6,r24
 1182 05f8 9783      		std Z+7,r25
 1183 05fa A087      		std Z+8,r26
 1184 05fc B187      		std Z+9,r27
 1185               	.LM179:
 1186 05fe 2681      		ldd r18,Z+6
 1187 0600 3781      		ldd r19,Z+7
 1188 0602 4085      		ldd r20,Z+8
 1189 0604 5185      		ldd r21,Z+9
 1190 0606 8081      		ld r24,Z
 1191 0608 9181      		ldd r25,Z+1
 1192               	.LVL68:
 1193 060a A0E0      		ldi r26,lo8(0)
 1194 060c B0E0      		ldi r27,hi8(0)
 1195               	.LVL69:
 1196 060e 2817      		cp r18,r24
 1197 0610 3907      		cpc r19,r25
 1198 0612 4A07      		cpc r20,r26
 1199 0614 5B07      		cpc r21,r27
 1200 0616 04F0      		brlt .L64
 1201               	.LM180:
 1202 0618 2681      		ldd r18,Z+6
 1203 061a 3781      		ldd r19,Z+7
 1204 061c 4085      		ldd r20,Z+8
 1205 061e 5185      		ldd r21,Z+9
 1206 0620 8081      		ld r24,Z
 1207 0622 9181      		ldd r25,Z+1
 1208 0624 A0E0      		ldi r26,lo8(0)
 1209 0626 B0E0      		ldi r27,hi8(0)
 1210 0628 281B      		sub r18,r24
 1211 062a 390B      		sbc r19,r25
 1212 062c 4A0B      		sbc r20,r26
 1213 062e 5B0B      		sbc r21,r27
 1214 0630 2683      		std Z+6,r18
 1215 0632 3783      		std Z+7,r19
 1216 0634 4087      		std Z+8,r20
 1217 0636 5187      		std Z+9,r21
 1218               	.L64:
 1219 0638 0895      		ret
 1220               	.LFE25:
 1222               	.global	Timebase_Timer_Delay_Seconds
 1224               	Timebase_Timer_Delay_Seconds:
 1225               	.LFB26:
 1226               	.LM181:
 1227               	.LVL70:
 1228               	/* prologue: function */
 1229               	/* frame size = 0 */
 1230               	.LBB885:
 1231               	.LBB886:
 1232               	.LM182:
 1233               	/* #APP */
 1234               	 ;  431 "timebase.c" 1
 1235 063a F894      		cli
 1236               	 ;  0 "" 2
 1237               	/* #NOAPP */
 1238               	.LBE886:
 1239               	.LBE885:
 1240               	.LBB887:
 1241               	.LBB888:
 1242               	.LM183:
 1243 063c E091 0000 		lds r30,Timebase
 1244 0640 F091 0000 		lds r31,(Timebase)+1
 1245 0644 2289      		ldd r18,Z+18
 1246 0646 3389      		ldd r19,Z+19
 1247 0648 4489      		ldd r20,Z+20
 1248 064a 5589      		ldd r21,Z+21
 1249               	.LVL71:
 1250               	.LBE888:
 1251               	.LBE887:
 1252               	.LBB889:
 1253               	.LBB890:
 1254               	.LM184:
 1255               	/* #APP */
 1256               	 ;  436 "timebase.c" 1
 1257 064c 7894      		sei
 1258               	 ;  0 "" 2
 1259               	/* #NOAPP */
 1260               	.LBE890:
 1261               	.LBE889:
 1262               	.LM185:
 1263 064e A0E0      		ldi r26,lo8(0)
 1264 0650 B0E0      		ldi r27,hi8(0)
 1265               	.LVL72:
 1266 0652 820F      		add r24,r18
 1267 0654 931F      		adc r25,r19
 1268 0656 A41F      		adc r26,r20
 1269 0658 B51F      		adc r27,r21
 1270               	.LVL73:
 1271 065a 20E0      		ldi r18,lo8(0)
 1272 065c 30E0      		ldi r19,hi8(0)
 1273 065e 40E0      		ldi r20,hlo8(0)
 1274 0660 50E0      		ldi r21,hhi8(0)
 1275               	.LVL74:
 1276 0662 00C0      		rjmp .L67
 1277               	.L68:
 1278               	.LBB891:
 1279               	.LBB892:
 1280               	.LM186:
 1281               	/* #APP */
 1282               	 ;  431 "timebase.c" 1
 1283 0664 F894      		cli
 1284               	 ;  0 "" 2
 1285               	/* #NOAPP */
 1286               	.LBE892:
 1287               	.LBE891:
 1288               	.LBB893:
 1289               	.LBB894:
 1290               	.LM187:
 1291 0666 2289      		ldd r18,Z+18
 1292 0668 3389      		ldd r19,Z+19
 1293 066a 4489      		ldd r20,Z+20
 1294 066c 5589      		ldd r21,Z+21
 1295               	.LBE894:
 1296               	.LBE893:
 1297               	.LBB895:
 1298               	.LBB896:
 1299               	.LM188:
 1300               	/* #APP */
 1301               	 ;  436 "timebase.c" 1
 1302 066e 7894      		sei
 1303               	 ;  0 "" 2
 1304               	/* #NOAPP */
 1305               	.L67:
 1306               	.LBE896:
 1307               	.LBE895:
 1308               	.LM189:
 1309 0670 2817      		cp r18,r24
 1310 0672 3907      		cpc r19,r25
 1311 0674 4A07      		cpc r20,r26
 1312 0676 5B07      		cpc r21,r27
 1313 0678 04F0      		brlt .L68
 1314               	/* epilogue start */
 1315               	.LM190:
 1316 067a 0895      		ret
 1317               	.LFE26:
 1319               	.global	Timebase_LPTimer_Get_SubSeconds
 1321               	Timebase_LPTimer_Get_SubSeconds:
 1322               	.LFB27:
 1323               	.LM191:
 1324               	/* prologue: function */
 1325               	/* frame size = 0 */
 1326               	.LM192:
 1327 067c E091 0000 		lds r30,Timebase
 1328 0680 F091 0000 		lds r31,(Timebase)+1
 1329               	.L71:
 1330 0684 2789      		ldd r18,Z+23
 1331 0686 308D      		ldd r19,Z+24
 1332               	.LVL75:
 1333               	.LM193:
 1334 0688 8789      		ldd r24,Z+23
 1335 068a 908D      		ldd r25,Z+24
 1336               	.LVL76:
 1337               	.LM194:
 1338 068c 2817      		cp r18,r24
 1339 068e 3907      		cpc r19,r25
 1340 0690 01F4      		brne .L71
 1341               	.LM195:
 1342 0692 C901      		movw r24,r18
 1343               	.LVL77:
 1344               	/* epilogue start */
 1345 0694 0895      		ret
 1346               	.LFE27:
 1348               	.global	Timebase_LPTimer_Get_Seconds
 1350               	Timebase_LPTimer_Get_Seconds:
 1351               	.LFB28:
 1352               	.LM196:
 1353               	/* prologue: function */
 1354               	/* frame size = 0 */
 1355               	.LM197:
 1356 0696 E091 0000 		lds r30,Timebase
 1357 069a F091 0000 		lds r31,(Timebase)+1
 1358               	.L75:
 1359 069e 218D      		ldd r18,Z+25
 1360 06a0 328D      		ldd r19,Z+26
 1361 06a2 438D      		ldd r20,Z+27
 1362 06a4 548D      		ldd r21,Z+28
 1363               	.LVL78:
 1364               	.LM198:
 1365 06a6 818D      		ldd r24,Z+25
 1366 06a8 928D      		ldd r25,Z+26
 1367 06aa A38D      		ldd r26,Z+27
 1368 06ac B48D      		ldd r27,Z+28
 1369               	.LVL79:
 1370               	.LM199:
 1371 06ae 2817      		cp r18,r24
 1372 06b0 3907      		cpc r19,r25
 1373 06b2 4A07      		cpc r20,r26
 1374 06b4 5B07      		cpc r21,r27
 1375 06b6 01F4      		brne .L75
 1376               	.LM200:
 1377 06b8 B901      		movw r22,r18
 1378               	.LVL80:
 1379 06ba CA01      		movw r24,r20
 1380               	.LVL81:
 1381               	/* epilogue start */
 1382 06bc 0895      		ret
 1383               	.LFE28:
 1385               	.global	Timebase_LPTimer_Set_SubSeconds
 1387               	Timebase_LPTimer_Set_SubSeconds:
 1388               	.LFB29:
 1389               	.LM201:
 1390               	.LVL82:
 1391               	/* prologue: function */
 1392               	/* frame size = 0 */
 1393               	.LM202:
 1394 06be E091 0000 		lds r30,Timebase
 1395 06c2 F091 0000 		lds r31,(Timebase)+1
 1396 06c6 908F      		std Z+24,r25
 1397 06c8 878B      		std Z+23,r24
 1398               	/* epilogue start */
 1399               	.LM203:
 1400 06ca 0895      		ret
 1401               	.LFE29:
 1403               	.global	Timebase_LPTimer_Set_Seconds
 1405               	Timebase_LPTimer_Set_Seconds:
 1406               	.LFB30:
 1407               	.LM204:
 1408               	.LVL83:
 1409               	/* prologue: function */
 1410               	/* frame size = 0 */
 1411               	.LM205:
 1412 06cc E091 0000 		lds r30,Timebase
 1413 06d0 F091 0000 		lds r31,(Timebase)+1
 1414 06d4 618F      		std Z+25,r22
 1415 06d6 728F      		std Z+26,r23
 1416 06d8 838F      		std Z+27,r24
 1417 06da 948F      		std Z+28,r25
 1418               	/* epilogue start */
 1419               	.LM206:
 1420 06dc 0895      		ret
 1421               	.LFE30:
 1423               	.global	Timebase_LPTimer_Delay_Seconds
 1425               	Timebase_LPTimer_Delay_Seconds:
 1426               	.LFB31:
 1427               	.LM207:
 1428               	.LVL84:
 1429 06de EF92      		push r14
 1430 06e0 FF92      		push r15
 1431 06e2 0F93      		push r16
 1432 06e4 1F93      		push r17
 1433               	/* prologue: function */
 1434               	/* frame size = 0 */
 1435 06e6 BC01      		movw r22,r24
 1436               	.LBB897:
 1437               	.LBB898:
 1438               	.LM208:
 1439               	/* #APP */
 1440               	 ;  431 "timebase.c" 1
 1441 06e8 F894      		cli
 1442               	 ;  0 "" 2
 1443               	/* #NOAPP */
 1444               	.LBE898:
 1445               	.LBE897:
 1446               	.LBB899:
 1447               	.LBB900:
 1448               	.LM209:
 1449 06ea E091 0000 		lds r30,Timebase
 1450 06ee F091 0000 		lds r31,(Timebase)+1
 1451               	.LVL85:
 1452               	.L83:
 1453 06f2 218D      		ldd r18,Z+25
 1454 06f4 328D      		ldd r19,Z+26
 1455 06f6 438D      		ldd r20,Z+27
 1456 06f8 548D      		ldd r21,Z+28
 1457               	.LVL86:
 1458               	.LM210:
 1459 06fa 818D      		ldd r24,Z+25
 1460 06fc 928D      		ldd r25,Z+26
 1461 06fe A38D      		ldd r26,Z+27
 1462 0700 B48D      		ldd r27,Z+28
 1463               	.LVL87:
 1464               	.LM211:
 1465 0702 2817      		cp r18,r24
 1466 0704 3907      		cpc r19,r25
 1467 0706 4A07      		cpc r20,r26
 1468 0708 5B07      		cpc r21,r27
 1469 070a 01F4      		brne .L83
 1470               	.LBE900:
 1471               	.LBE899:
 1472               	.LBB901:
 1473               	.LBB902:
 1474               	.LM212:
 1475               	/* #APP */
 1476               	 ;  436 "timebase.c" 1
 1477 070c 7894      		sei
 1478               	 ;  0 "" 2
 1479               	/* #NOAPP */
 1480               	.LBE902:
 1481               	.LBE901:
 1482               	.LM213:
 1483 070e 7B01      		movw r14,r22
 1484               	.LVL88:
 1485 0710 00E0      		ldi r16,lo8(0)
 1486 0712 10E0      		ldi r17,hi8(0)
 1487               	.LVL89:
 1488 0714 E20E      		add r14,r18
 1489 0716 F31E      		adc r15,r19
 1490 0718 041F      		adc r16,r20
 1491 071a 151F      		adc r17,r21
 1492               	.LVL90:
 1493 071c 20E0      		ldi r18,lo8(0)
 1494 071e 30E0      		ldi r19,hi8(0)
 1495 0720 40E0      		ldi r20,hlo8(0)
 1496 0722 50E0      		ldi r21,hhi8(0)
 1497               	.LVL91:
 1498 0724 00C0      		rjmp .L84
 1499               	.LVL92:
 1500               	.L86:
 1501               	.LBB903:
 1502               	.LBB904:
 1503               	.LM214:
 1504               	/* #APP */
 1505               	 ;  431 "timebase.c" 1
 1506 0726 F894      		cli
 1507               	 ;  0 "" 2
 1508               	/* #NOAPP */
 1509               	.L85:
 1510               	.LBE904:
 1511               	.LBE903:
 1512               	.LBB905:
 1513               	.LBB906:
 1514               	.LM215:
 1515 0728 218D      		ldd r18,Z+25
 1516 072a 328D      		ldd r19,Z+26
 1517 072c 438D      		ldd r20,Z+27
 1518 072e 548D      		ldd r21,Z+28
 1519               	.LM216:
 1520 0730 818D      		ldd r24,Z+25
 1521 0732 928D      		ldd r25,Z+26
 1522 0734 A38D      		ldd r26,Z+27
 1523 0736 B48D      		ldd r27,Z+28
 1524               	.LVL93:
 1525               	.LM217:
 1526 0738 2817      		cp r18,r24
 1527 073a 3907      		cpc r19,r25
 1528 073c 4A07      		cpc r20,r26
 1529 073e 5B07      		cpc r21,r27
 1530 0740 01F4      		brne .L85
 1531               	.LBE906:
 1532               	.LBE905:
 1533               	.LBB907:
 1534               	.LBB908:
 1535               	.LM218:
 1536               	/* #APP */
 1537               	 ;  436 "timebase.c" 1
 1538 0742 7894      		sei
 1539               	 ;  0 "" 2
 1540               	.LVL94:
 1541               	/* #NOAPP */
 1542               	.L84:
 1543               	.LBE908:
 1544               	.LBE907:
 1545               	.LM219:
 1546 0744 2E15      		cp r18,r14
 1547 0746 3F05      		cpc r19,r15
 1548 0748 4007      		cpc r20,r16
 1549 074a 5107      		cpc r21,r17
 1550 074c 04F0      		brlt .L86
 1551               	/* epilogue start */
 1552               	.LM220:
 1553 074e 1F91      		pop r17
 1554 0750 0F91      		pop r16
 1555               	.LVL95:
 1556 0752 FF90      		pop r15
 1557 0754 EF90      		pop r14
 1558               	.LVL96:
 1559 0756 0895      		ret
 1560               	.LFE31:
 1562               	.global	Timebase_UpCounter_SS_Get_Status
 1564               	Timebase_UpCounter_SS_Get_Status:
 1565               	.LFB32:
 1566               	.LM221:
 1567               	.LVL97:
 1568               	/* prologue: function */
 1569               	/* frame size = 0 */
 1570               	.LM222:
 1571 0758 E091 0000 		lds r30,Timebase
 1572 075c F091 0000 		lds r31,(Timebase)+1
 1573 0760 90E0      		ldi r25,lo8(0)
 1574               	.LVL98:
 1575 0762 2DE1      		ldi r18,lo8(29)
 1576 0764 30E0      		ldi r19,hi8(29)
 1577 0766 AC01      		movw r20,r24
 1578 0768 429F      		mul r20,r18
 1579 076a C001      		movw r24,r0
 1580 076c 439F      		mul r20,r19
 1581 076e 900D      		add r25,r0
 1582 0770 529F      		mul r21,r18
 1583 0772 900D      		add r25,r0
 1584 0774 1124      		clr r1
 1585               	.LVL99:
 1586 0776 E80F      		add r30,r24
 1587 0778 F91F      		adc r31,r25
 1588 077a 868D      		ldd r24,Z+30
 1589 077c 8695      		lsr r24
 1590               	.LM223:
 1591 077e 8F70      		andi r24,lo8(15)
 1592               	/* epilogue start */
 1593 0780 0895      		ret
 1594               	.LFE32:
 1596               	.global	Timebase_UpCounter_SS_Set_Status
 1598               	Timebase_UpCounter_SS_Set_Status:
 1599               	.LFB33:
 1600               	.LM224:
 1601               	.LVL100:
 1602               	/* prologue: function */
 1603               	/* frame size = 0 */
 1604               	.LM225:
 1605 0782 E091 0000 		lds r30,Timebase
 1606 0786 F091 0000 		lds r31,(Timebase)+1
 1607 078a 90E0      		ldi r25,lo8(0)
 1608               	.LVL101:
 1609 078c 2DE1      		ldi r18,lo8(29)
 1610 078e 30E0      		ldi r19,hi8(29)
 1611 0790 AC01      		movw r20,r24
 1612 0792 429F      		mul r20,r18
 1613 0794 C001      		movw r24,r0
 1614 0796 439F      		mul r20,r19
 1615 0798 900D      		add r25,r0
 1616 079a 529F      		mul r21,r18
 1617 079c 900D      		add r25,r0
 1618 079e 1124      		clr r1
 1619               	.LVL102:
 1620 07a0 E80F      		add r30,r24
 1621 07a2 F91F      		adc r31,r25
 1622 07a4 6F70      		andi r22,lo8(15)
 1623               	.LVL103:
 1624 07a6 660F      		lsl r22
 1625 07a8 868D      		ldd r24,Z+30
 1626 07aa 817E      		andi r24,lo8(-31)
 1627 07ac 862B      		or r24,r22
 1628 07ae 868F      		std Z+30,r24
 1629               	/* epilogue start */
 1630               	.LM226:
 1631 07b0 0895      		ret
 1632               	.LFE33:
 1634               	.global	Timebase_UpCounter_SS_Get_Value
 1636               	Timebase_UpCounter_SS_Get_Value:
 1637               	.LFB34:
 1638               	.LM227:
 1639               	.LVL104:
 1640               	/* prologue: function */
 1641               	/* frame size = 0 */
 1642               	.LM228:
 1643 07b2 E091 0000 		lds r30,Timebase
 1644 07b6 F091 0000 		lds r31,(Timebase)+1
 1645 07ba 90E0      		ldi r25,lo8(0)
 1646               	.LVL105:
 1647 07bc 2DE1      		ldi r18,lo8(29)
 1648 07be 30E0      		ldi r19,hi8(29)
 1649 07c0 AC01      		movw r20,r24
 1650 07c2 429F      		mul r20,r18
 1651 07c4 C001      		movw r24,r0
 1652 07c6 439F      		mul r20,r19
 1653 07c8 900D      		add r25,r0
 1654 07ca 529F      		mul r21,r18
 1655 07cc 900D      		add r25,r0
 1656 07ce 1124      		clr r1
 1657               	.LVL106:
 1658 07d0 E80F      		add r30,r24
 1659 07d2 F91F      		adc r31,r25
 1660 07d4 DF01      		movw r26,r30
 1661 07d6 9F96      		adiw r26,47
 1662 07d8 67A5      		ldd r22,Z+47
 1663 07da 1196      		adiw r26,1
 1664 07dc 7C91      		ld r23,X
 1665 07de 1197      		sbiw r26,1
 1666               	.LM229:
 1667 07e0 1296      		adiw r26,2
 1668 07e2 8C91      		ld r24,X
 1669 07e4 1297      		sbiw r26,2
 1670 07e6 1396      		adiw r26,3
 1671 07e8 9C91      		ld r25,X
 1672               	.LVL107:
 1673               	/* epilogue start */
 1674 07ea 0895      		ret
 1675               	.LFE34:
 1677               	.global	Timebase_UpCounter_SS_Set_Value
 1679               	Timebase_UpCounter_SS_Set_Value:
 1680               	.LFB35:
 1681               	.LM230:
 1682               	.LVL108:
 1683 07ec CF93      		push r28
 1684 07ee DF93      		push r29
 1685               	/* prologue: function */
 1686               	/* frame size = 0 */
 1687               	.LM231:
 1688 07f0 C091 0000 		lds r28,Timebase
 1689 07f4 D091 0000 		lds r29,(Timebase)+1
 1690 07f8 90E0      		ldi r25,lo8(0)
 1691               	.LVL109:
 1692 07fa 2DE1      		ldi r18,lo8(29)
 1693 07fc 30E0      		ldi r19,hi8(29)
 1694 07fe FC01      		movw r30,r24
 1695 0800 E29F      		mul r30,r18
 1696 0802 C001      		movw r24,r0
 1697 0804 E39F      		mul r30,r19
 1698 0806 900D      		add r25,r0
 1699 0808 F29F      		mul r31,r18
 1700 080a 900D      		add r25,r0
 1701 080c 1124      		clr r1
 1702               	.LVL110:
 1703 080e C80F      		add r28,r24
 1704 0810 D91F      		adc r29,r25
 1705 0812 CA01      		movw r24,r20
 1706               	.LVL111:
 1707 0814 DB01      		movw r26,r22
 1708 0816 B7FF      		sbrs r27,7
 1709 0818 00C0      		rjmp .L97
 1710               	.LVL112:
 1711 081a 80E0      		ldi r24,lo8(0)
 1712 081c 90E0      		ldi r25,hi8(0)
 1713 081e A0E0      		ldi r26,hlo8(0)
 1714 0820 B0E0      		ldi r27,hhi8(0)
 1715               	.L97:
 1716 0822 8FA7      		std Y+47,r24
 1717 0824 98AB      		std Y+48,r25
 1718 0826 A9AB      		std Y+49,r26
 1719 0828 BAAB      		std Y+50,r27
 1720               	/* epilogue start */
 1721               	.LM232:
 1722 082a DF91      		pop r29
 1723 082c CF91      		pop r28
 1724 082e 0895      		ret
 1725               	.LFE35:
 1727               	.global	Timebase_UpCounter_SS_Get_EndValueSec
 1729               	Timebase_UpCounter_SS_Get_EndValueSec:
 1730               	.LFB36:
 1731               	.LM233:
 1732               	.LVL113:
 1733               	/* prologue: function */
 1734               	/* frame size = 0 */
 1735               	.LM234:
 1736 0830 E091 0000 		lds r30,Timebase
 1737 0834 F091 0000 		lds r31,(Timebase)+1
 1738 0838 90E0      		ldi r25,lo8(0)
 1739               	.LVL114:
 1740 083a 2DE1      		ldi r18,lo8(29)
 1741 083c 30E0      		ldi r19,hi8(29)
 1742 083e AC01      		movw r20,r24
 1743 0840 429F      		mul r20,r18
 1744 0842 C001      		movw r24,r0
 1745 0844 439F      		mul r20,r19
 1746 0846 900D      		add r25,r0
 1747 0848 529F      		mul r21,r18
 1748 084a 900D      		add r25,r0
 1749 084c 1124      		clr r1
 1750               	.LVL115:
 1751 084e E80F      		add r30,r24
 1752 0850 F91F      		adc r31,r25
 1753 0852 DF01      		movw r26,r30
 1754 0854 5F96      		adiw r26,31
 1755 0856 678D      		ldd r22,Z+31
 1756 0858 1196      		adiw r26,1
 1757 085a 7C91      		ld r23,X
 1758 085c 1197      		sbiw r26,1
 1759               	.LM235:
 1760 085e 1296      		adiw r26,2
 1761 0860 8C91      		ld r24,X
 1762 0862 1297      		sbiw r26,2
 1763 0864 1396      		adiw r26,3
 1764 0866 9C91      		ld r25,X
 1765               	.LVL116:
 1766               	/* epilogue start */
 1767 0868 0895      		ret
 1768               	.LFE36:
 1770               	.global	Timebase_UpCounter_SS_Get_EndValueSubSec
 1772               	Timebase_UpCounter_SS_Get_EndValueSubSec:
 1773               	.LFB37:
 1774               	.LM236:
 1775               	.LVL117:
 1776               	/* prologue: function */
 1777               	/* frame size = 0 */
 1778               	.LM237:
 1779 086a E091 0000 		lds r30,Timebase
 1780 086e F091 0000 		lds r31,(Timebase)+1
 1781 0872 90E0      		ldi r25,lo8(0)
 1782               	.LVL118:
 1783 0874 2DE1      		ldi r18,lo8(29)
 1784 0876 30E0      		ldi r19,hi8(29)
 1785 0878 AC01      		movw r20,r24
 1786 087a 429F      		mul r20,r18
 1787 087c C001      		movw r24,r0
 1788 087e 439F      		mul r20,r19
 1789 0880 900D      		add r25,r0
 1790 0882 529F      		mul r21,r18
 1791 0884 900D      		add r25,r0
 1792 0886 1124      		clr r1
 1793               	.LVL119:
 1794 0888 E80F      		add r30,r24
 1795 088a F91F      		adc r31,r25
 1796 088c DF01      		movw r26,r30
 1797 088e 9396      		adiw r26,35
 1798 0890 63A1      		ldd r22,Z+35
 1799 0892 1196      		adiw r26,1
 1800 0894 7C91      		ld r23,X
 1801 0896 1197      		sbiw r26,1
 1802               	.LM238:
 1803 0898 1296      		adiw r26,2
 1804 089a 8C91      		ld r24,X
 1805 089c 1297      		sbiw r26,2
 1806 089e 1396      		adiw r26,3
 1807 08a0 9C91      		ld r25,X
 1808               	.LVL120:
 1809               	/* epilogue start */
 1810 08a2 0895      		ret
 1811               	.LFE37:
 1813               	.global	Timebase_UpCounter_SS_Set_EndValueSec
 1815               	Timebase_UpCounter_SS_Set_EndValueSec:
 1816               	.LFB38:
 1817               	.LM239:
 1818               	.LVL121:
 1819               	/* prologue: function */
 1820               	/* frame size = 0 */
 1821               	.LM240:
 1822 08a4 E091 0000 		lds r30,Timebase
 1823 08a8 F091 0000 		lds r31,(Timebase)+1
 1824 08ac 90E0      		ldi r25,lo8(0)
 1825               	.LVL122:
 1826 08ae 2DE1      		ldi r18,lo8(29)
 1827 08b0 30E0      		ldi r19,hi8(29)
 1828 08b2 DC01      		movw r26,r24
 1829 08b4 A29F      		mul r26,r18
 1830 08b6 C001      		movw r24,r0
 1831 08b8 A39F      		mul r26,r19
 1832 08ba 900D      		add r25,r0
 1833 08bc B29F      		mul r27,r18
 1834 08be 900D      		add r25,r0
 1835 08c0 1124      		clr r1
 1836               	.LVL123:
 1837 08c2 E80F      		add r30,r24
 1838 08c4 F91F      		adc r31,r25
 1839 08c6 478F      		std Z+31,r20
 1840 08c8 50A3      		std Z+32,r21
 1841 08ca 61A3      		std Z+33,r22
 1842 08cc 72A3      		std Z+34,r23
 1843               	/* epilogue start */
 1844               	.LM241:
 1845 08ce 0895      		ret
 1846               	.LFE38:
 1848               	.global	Timebase_UpCounter_SS_Set_EndValueSubSec
 1850               	Timebase_UpCounter_SS_Set_EndValueSubSec:
 1851               	.LFB39:
 1852               	.LM242:
 1853               	.LVL124:
 1854               	/* prologue: function */
 1855               	/* frame size = 0 */
 1856               	.LM243:
 1857 08d0 E091 0000 		lds r30,Timebase
 1858 08d4 F091 0000 		lds r31,(Timebase)+1
 1859 08d8 90E0      		ldi r25,lo8(0)
 1860               	.LVL125:
 1861 08da 2DE1      		ldi r18,lo8(29)
 1862 08dc 30E0      		ldi r19,hi8(29)
 1863 08de DC01      		movw r26,r24
 1864 08e0 A29F      		mul r26,r18
 1865 08e2 C001      		movw r24,r0
 1866 08e4 A39F      		mul r26,r19
 1867 08e6 900D      		add r25,r0
 1868 08e8 B29F      		mul r27,r18
 1869 08ea 900D      		add r25,r0
 1870 08ec 1124      		clr r1
 1871               	.LVL126:
 1872 08ee E80F      		add r30,r24
 1873 08f0 F91F      		adc r31,r25
 1874 08f2 43A3      		std Z+35,r20
 1875 08f4 54A3      		std Z+36,r21
 1876 08f6 65A3      		std Z+37,r22
 1877 08f8 76A3      		std Z+38,r23
 1878               	/* epilogue start */
 1879               	.LM244:
 1880 08fa 0895      		ret
 1881               	.LFE39:
 1883               	.global	Timebase_UpCounter_SS_Get_TargetValue
 1885               	Timebase_UpCounter_SS_Get_TargetValue:
 1886               	.LFB40:
 1887               	.LM245:
 1888               	.LVL127:
 1889               	/* prologue: function */
 1890               	/* frame size = 0 */
 1891               	.LM246:
 1892 08fc E091 0000 		lds r30,Timebase
 1893 0900 F091 0000 		lds r31,(Timebase)+1
 1894 0904 90E0      		ldi r25,lo8(0)
 1895               	.LVL128:
 1896 0906 2DE1      		ldi r18,lo8(29)
 1897 0908 30E0      		ldi r19,hi8(29)
 1898 090a AC01      		movw r20,r24
 1899 090c 429F      		mul r20,r18
 1900 090e C001      		movw r24,r0
 1901 0910 439F      		mul r20,r19
 1902 0912 900D      		add r25,r0
 1903 0914 529F      		mul r21,r18
 1904 0916 900D      		add r25,r0
 1905 0918 1124      		clr r1
 1906               	.LVL129:
 1907 091a E80F      		add r30,r24
 1908 091c F91F      		adc r31,r25
 1909 091e DF01      		movw r26,r30
 1910 0920 9796      		adiw r26,39
 1911 0922 67A1      		ldd r22,Z+39
 1912 0924 1196      		adiw r26,1
 1913 0926 7C91      		ld r23,X
 1914 0928 1197      		sbiw r26,1
 1915               	.LM247:
 1916 092a 1296      		adiw r26,2
 1917 092c 8C91      		ld r24,X
 1918 092e 1297      		sbiw r26,2
 1919 0930 1396      		adiw r26,3
 1920 0932 9C91      		ld r25,X
 1921               	.LVL130:
 1922               	/* epilogue start */
 1923 0934 0895      		ret
 1924               	.LFE40:
 1926               	.global	Timebase_UpCounter_SS_Set_TargetValue
 1928               	Timebase_UpCounter_SS_Set_TargetValue:
 1929               	.LFB41:
 1930               	.LM248:
 1931               	.LVL131:
 1932               	/* prologue: function */
 1933               	/* frame size = 0 */
 1934               	.LM249:
 1935 0936 E091 0000 		lds r30,Timebase
 1936 093a F091 0000 		lds r31,(Timebase)+1
 1937 093e 90E0      		ldi r25,lo8(0)
 1938               	.LVL132:
 1939 0940 2DE1      		ldi r18,lo8(29)
 1940 0942 30E0      		ldi r19,hi8(29)
 1941 0944 DC01      		movw r26,r24
 1942 0946 A29F      		mul r26,r18
 1943 0948 C001      		movw r24,r0
 1944 094a A39F      		mul r26,r19
 1945 094c 900D      		add r25,r0
 1946 094e B29F      		mul r27,r18
 1947 0950 900D      		add r25,r0
 1948 0952 1124      		clr r1
 1949               	.LVL133:
 1950 0954 E80F      		add r30,r24
 1951 0956 F91F      		adc r31,r25
 1952 0958 47A3      		std Z+39,r20
 1953 095a 50A7      		std Z+40,r21
 1954 095c 61A7      		std Z+41,r22
 1955 095e 72A7      		std Z+42,r23
 1956               	/* epilogue start */
 1957               	.LM250:
 1958 0960 0895      		ret
 1959               	.LFE41:
 1961               	.global	Timebase_UpCounter_SS_Get_TemporaryValue
 1963               	Timebase_UpCounter_SS_Get_TemporaryValue:
 1964               	.LFB42:
 1965               	.LM251:
 1966               	.LVL134:
 1967               	/* prologue: function */
 1968               	/* frame size = 0 */
 1969               	.LM252:
 1970 0962 E091 0000 		lds r30,Timebase
 1971 0966 F091 0000 		lds r31,(Timebase)+1
 1972 096a 90E0      		ldi r25,lo8(0)
 1973               	.LVL135:
 1974 096c 2DE1      		ldi r18,lo8(29)
 1975 096e 30E0      		ldi r19,hi8(29)
 1976 0970 AC01      		movw r20,r24
 1977 0972 429F      		mul r20,r18
 1978 0974 C001      		movw r24,r0
 1979 0976 439F      		mul r20,r19
 1980 0978 900D      		add r25,r0
 1981 097a 529F      		mul r21,r18
 1982 097c 900D      		add r25,r0
 1983 097e 1124      		clr r1
 1984               	.LVL136:
 1985 0980 E80F      		add r30,r24
 1986 0982 F91F      		adc r31,r25
 1987 0984 DF01      		movw r26,r30
 1988 0986 9B96      		adiw r26,43
 1989 0988 63A5      		ldd r22,Z+43
 1990 098a 1196      		adiw r26,1
 1991 098c 7C91      		ld r23,X
 1992 098e 1197      		sbiw r26,1
 1993               	.LM253:
 1994 0990 1296      		adiw r26,2
 1995 0992 8C91      		ld r24,X
 1996 0994 1297      		sbiw r26,2
 1997 0996 1396      		adiw r26,3
 1998 0998 9C91      		ld r25,X
 1999               	.LVL137:
 2000               	/* epilogue start */
 2001 099a 0895      		ret
 2002               	.LFE42:
 2004               	.global	Timebase_UpCounter_SS_Set_TemporaryValue
 2006               	Timebase_UpCounter_SS_Set_TemporaryValue:
 2007               	.LFB43:
 2008               	.LM254:
 2009               	.LVL138:
 2010 099c CF93      		push r28
 2011 099e DF93      		push r29
 2012               	/* prologue: function */
 2013               	/* frame size = 0 */
 2014               	.LM255:
 2015 09a0 C091 0000 		lds r28,Timebase
 2016 09a4 D091 0000 		lds r29,(Timebase)+1
 2017 09a8 90E0      		ldi r25,lo8(0)
 2018               	.LVL139:
 2019 09aa 2DE1      		ldi r18,lo8(29)
 2020 09ac 30E0      		ldi r19,hi8(29)
 2021 09ae FC01      		movw r30,r24
 2022 09b0 E29F      		mul r30,r18
 2023 09b2 C001      		movw r24,r0
 2024 09b4 E39F      		mul r30,r19
 2025 09b6 900D      		add r25,r0
 2026 09b8 F29F      		mul r31,r18
 2027 09ba 900D      		add r25,r0
 2028 09bc 1124      		clr r1
 2029               	.LVL140:
 2030 09be C80F      		add r28,r24
 2031 09c0 D91F      		adc r29,r25
 2032 09c2 CA01      		movw r24,r20
 2033               	.LVL141:
 2034 09c4 DB01      		movw r26,r22
 2035 09c6 B7FF      		sbrs r27,7
 2036 09c8 00C0      		rjmp .L114
 2037               	.LVL142:
 2038 09ca 80E0      		ldi r24,lo8(0)
 2039 09cc 90E0      		ldi r25,hi8(0)
 2040 09ce A0E0      		ldi r26,hlo8(0)
 2041 09d0 B0E0      		ldi r27,hhi8(0)
 2042               	.L114:
 2043 09d2 8BA7      		std Y+43,r24
 2044 09d4 9CA7      		std Y+44,r25
 2045 09d6 ADA7      		std Y+45,r26
 2046 09d8 BEA7      		std Y+46,r27
 2047               	/* epilogue start */
 2048               	.LM256:
 2049 09da DF91      		pop r29
 2050 09dc CF91      		pop r28
 2051 09de 0895      		ret
 2052               	.LFE43:
 2054               	.global	Timebase_UpCounter_SS_Get_PeriodValue
 2056               	Timebase_UpCounter_SS_Get_PeriodValue:
 2057               	.LFB44:
 2058               	.LM257:
 2059               	.LVL143:
 2060               	/* prologue: function */
 2061               	/* frame size = 0 */
 2062               	.LM258:
 2063 09e0 E091 0000 		lds r30,Timebase
 2064 09e4 F091 0000 		lds r31,(Timebase)+1
 2065 09e8 90E0      		ldi r25,lo8(0)
 2066               	.LVL144:
 2067 09ea 2DE1      		ldi r18,lo8(29)
 2068 09ec 30E0      		ldi r19,hi8(29)
 2069 09ee AC01      		movw r20,r24
 2070 09f0 429F      		mul r20,r18
 2071 09f2 C001      		movw r24,r0
 2072 09f4 439F      		mul r20,r19
 2073 09f6 900D      		add r25,r0
 2074 09f8 529F      		mul r21,r18
 2075 09fa 900D      		add r25,r0
 2076 09fc 1124      		clr r1
 2077               	.LVL145:
 2078 09fe E80F      		add r30,r24
 2079 0a00 F91F      		adc r31,r25
 2080 0a02 DF01      		movw r26,r30
 2081 0a04 D396      		adiw r26,51
 2082 0a06 63A9      		ldd r22,Z+51
 2083 0a08 1196      		adiw r26,1
 2084 0a0a 7C91      		ld r23,X
 2085 0a0c 1197      		sbiw r26,1
 2086               	.LM259:
 2087 0a0e 1296      		adiw r26,2
 2088 0a10 8C91      		ld r24,X
 2089 0a12 1297      		sbiw r26,2
 2090 0a14 1396      		adiw r26,3
 2091 0a16 9C91      		ld r25,X
 2092               	.LVL146:
 2093               	/* epilogue start */
 2094 0a18 0895      		ret
 2095               	.LFE44:
 2097               	.global	Timebase_UpCounter_SS_Set_PeriodValue
 2099               	Timebase_UpCounter_SS_Set_PeriodValue:
 2100               	.LFB45:
 2101               	.LM260:
 2102               	.LVL147:
 2103               	/* prologue: function */
 2104               	/* frame size = 0 */
 2105               	.LM261:
 2106 0a1a E091 0000 		lds r30,Timebase
 2107 0a1e F091 0000 		lds r31,(Timebase)+1
 2108 0a22 90E0      		ldi r25,lo8(0)
 2109               	.LVL148:
 2110 0a24 2DE1      		ldi r18,lo8(29)
 2111 0a26 30E0      		ldi r19,hi8(29)
 2112 0a28 DC01      		movw r26,r24
 2113 0a2a A29F      		mul r26,r18
 2114 0a2c C001      		movw r24,r0
 2115 0a2e A39F      		mul r26,r19
 2116 0a30 900D      		add r25,r0
 2117 0a32 B29F      		mul r27,r18
 2118 0a34 900D      		add r25,r0
 2119 0a36 1124      		clr r1
 2120               	.LVL149:
 2121 0a38 E80F      		add r30,r24
 2122 0a3a F91F      		adc r31,r25
 2123 0a3c 43AB      		std Z+51,r20
 2124 0a3e 54AB      		std Z+52,r21
 2125 0a40 65AB      		std Z+53,r22
 2126 0a42 76AB      		std Z+54,r23
 2127               	/* epilogue start */
 2128               	.LM262:
 2129 0a44 0895      		ret
 2130               	.LFE45:
 2132               	.global	Timebase_UpCounter_SS_Get_Period_Flag
 2134               	Timebase_UpCounter_SS_Get_Period_Flag:
 2135               	.LFB46:
 2136               	.LM263:
 2137               	.LVL150:
 2138               	/* prologue: function */
 2139               	/* frame size = 0 */
 2140               	.LM264:
 2141 0a46 E091 0000 		lds r30,Timebase
 2142 0a4a F091 0000 		lds r31,(Timebase)+1
 2143 0a4e 90E0      		ldi r25,lo8(0)
 2144               	.LVL151:
 2145 0a50 2DE1      		ldi r18,lo8(29)
 2146 0a52 30E0      		ldi r19,hi8(29)
 2147 0a54 AC01      		movw r20,r24
 2148 0a56 429F      		mul r20,r18
 2149 0a58 C001      		movw r24,r0
 2150 0a5a 439F      		mul r20,r19
 2151 0a5c 900D      		add r25,r0
 2152 0a5e 529F      		mul r21,r18
 2153 0a60 900D      		add r25,r0
 2154 0a62 1124      		clr r1
 2155               	.LVL152:
 2156 0a64 E80F      		add r30,r24
 2157 0a66 F91F      		adc r31,r25
 2158 0a68 868D      		ldd r24,Z+30
 2159               	.LM265:
 2160 0a6a 8170      		andi r24,lo8(1)
 2161               	/* epilogue start */
 2162 0a6c 0895      		ret
 2163               	.LFE46:
 2165               	.global	Timebase_UpCounter_SS_Set_Period_Flag
 2167               	Timebase_UpCounter_SS_Set_Period_Flag:
 2168               	.LFB47:
 2169               	.LM266:
 2170               	.LVL153:
 2171               	/* prologue: function */
 2172               	/* frame size = 0 */
 2173               	.LM267:
 2174 0a6e E091 0000 		lds r30,Timebase
 2175 0a72 F091 0000 		lds r31,(Timebase)+1
 2176 0a76 90E0      		ldi r25,lo8(0)
 2177               	.LVL154:
 2178 0a78 2DE1      		ldi r18,lo8(29)
 2179 0a7a 30E0      		ldi r19,hi8(29)
 2180 0a7c AC01      		movw r20,r24
 2181 0a7e 429F      		mul r20,r18
 2182 0a80 C001      		movw r24,r0
 2183 0a82 439F      		mul r20,r19
 2184 0a84 900D      		add r25,r0
 2185 0a86 529F      		mul r21,r18
 2186 0a88 900D      		add r25,r0
 2187 0a8a 1124      		clr r1
 2188               	.LVL155:
 2189 0a8c E80F      		add r30,r24
 2190 0a8e F91F      		adc r31,r25
 2191 0a90 868D      		ldd r24,Z+30
 2192 0a92 8160      		ori r24,lo8(1)
 2193 0a94 868F      		std Z+30,r24
 2194               	/* epilogue start */
 2195               	.LM268:
 2196 0a96 0895      		ret
 2197               	.LFE47:
 2199               	.global	Timebase_UpCounter_SS_Clear_Period_Flag
 2201               	Timebase_UpCounter_SS_Clear_Period_Flag:
 2202               	.LFB48:
 2203               	.LM269:
 2204               	.LVL156:
 2205               	/* prologue: function */
 2206               	/* frame size = 0 */
 2207               	.LM270:
 2208 0a98 E091 0000 		lds r30,Timebase
 2209 0a9c F091 0000 		lds r31,(Timebase)+1
 2210 0aa0 90E0      		ldi r25,lo8(0)
 2211               	.LVL157:
 2212 0aa2 2DE1      		ldi r18,lo8(29)
 2213 0aa4 30E0      		ldi r19,hi8(29)
 2214 0aa6 AC01      		movw r20,r24
 2215 0aa8 429F      		mul r20,r18
 2216 0aaa C001      		movw r24,r0
 2217 0aac 439F      		mul r20,r19
 2218 0aae 900D      		add r25,r0
 2219 0ab0 529F      		mul r21,r18
 2220 0ab2 900D      		add r25,r0
 2221 0ab4 1124      		clr r1
 2222               	.LVL158:
 2223 0ab6 E80F      		add r30,r24
 2224 0ab8 F91F      		adc r31,r25
 2225 0aba 868D      		ldd r24,Z+30
 2226 0abc 8E7F      		andi r24,lo8(-2)
 2227 0abe 868F      		std Z+30,r24
 2228               	/* epilogue start */
 2229               	.LM271:
 2230 0ac0 0895      		ret
 2231               	.LFE48:
 2233               	.global	Timebase_UpCounter_SS_Get_ReloadValue
 2235               	Timebase_UpCounter_SS_Get_ReloadValue:
 2236               	.LFB49:
 2237               	.LM272:
 2238               	.LVL159:
 2239               	/* prologue: function */
 2240               	/* frame size = 0 */
 2241               	.LM273:
 2242 0ac2 E091 0000 		lds r30,Timebase
 2243 0ac6 F091 0000 		lds r31,(Timebase)+1
 2244 0aca 90E0      		ldi r25,lo8(0)
 2245               	.LVL160:
 2246 0acc 2DE1      		ldi r18,lo8(29)
 2247 0ace 30E0      		ldi r19,hi8(29)
 2248 0ad0 AC01      		movw r20,r24
 2249 0ad2 429F      		mul r20,r18
 2250 0ad4 C001      		movw r24,r0
 2251 0ad6 439F      		mul r20,r19
 2252 0ad8 900D      		add r25,r0
 2253 0ada 529F      		mul r21,r18
 2254 0adc 900D      		add r25,r0
 2255 0ade 1124      		clr r1
 2256               	.LVL161:
 2257 0ae0 E80F      		add r30,r24
 2258 0ae2 F91F      		adc r31,r25
 2259 0ae4 DF01      		movw r26,r30
 2260 0ae6 D796      		adiw r26,55
 2261 0ae8 67A9      		ldd r22,Z+55
 2262 0aea 1196      		adiw r26,1
 2263 0aec 7C91      		ld r23,X
 2264 0aee 1197      		sbiw r26,1
 2265               	.LM274:
 2266 0af0 1296      		adiw r26,2
 2267 0af2 8C91      		ld r24,X
 2268 0af4 1297      		sbiw r26,2
 2269 0af6 1396      		adiw r26,3
 2270 0af8 9C91      		ld r25,X
 2271               	.LVL162:
 2272               	/* epilogue start */
 2273 0afa 0895      		ret
 2274               	.LFE49:
 2276               	.global	Timebase_UpCounter_SS_Set_ReloadValue
 2278               	Timebase_UpCounter_SS_Set_ReloadValue:
 2279               	.LFB50:
 2280               	.LM275:
 2281               	.LVL163:
 2282               	/* prologue: function */
 2283               	/* frame size = 0 */
 2284               	.LM276:
 2285 0afc E091 0000 		lds r30,Timebase
 2286 0b00 F091 0000 		lds r31,(Timebase)+1
 2287 0b04 90E0      		ldi r25,lo8(0)
 2288               	.LVL164:
 2289 0b06 2DE1      		ldi r18,lo8(29)
 2290 0b08 30E0      		ldi r19,hi8(29)
 2291 0b0a DC01      		movw r26,r24
 2292 0b0c A29F      		mul r26,r18
 2293 0b0e C001      		movw r24,r0
 2294 0b10 A39F      		mul r26,r19
 2295 0b12 900D      		add r25,r0
 2296 0b14 B29F      		mul r27,r18
 2297 0b16 900D      		add r25,r0
 2298 0b18 1124      		clr r1
 2299               	.LVL165:
 2300 0b1a E80F      		add r30,r24
 2301 0b1c F91F      		adc r31,r25
 2302 0b1e 47AB      		std Z+55,r20
 2303 0b20 50AF      		std Z+56,r21
 2304 0b22 61AF      		std Z+57,r22
 2305 0b24 72AF      		std Z+58,r23
 2306               	/* epilogue start */
 2307               	.LM277:
 2308 0b26 0895      		ret
 2309               	.LFE50:
 2311               	.global	Timebase_UpCounter_SS_Reset
 2313               	Timebase_UpCounter_SS_Reset:
 2314               	.LFB51:
 2315               	.LM278:
 2316               	.LVL166:
 2317               	/* prologue: function */
 2318               	/* frame size = 0 */
 2319               	.LBB909:
 2320               	.LBB910:
 2321               	.LM279:
 2322 0b28 E091 0000 		lds r30,Timebase
 2323 0b2c F091 0000 		lds r31,(Timebase)+1
 2324 0b30 90E0      		ldi r25,lo8(0)
 2325 0b32 2DE1      		ldi r18,lo8(29)
 2326 0b34 30E0      		ldi r19,hi8(29)
 2327 0b36 AC01      		movw r20,r24
 2328               	.LVL167:
 2329 0b38 429F      		mul r20,r18
 2330 0b3a C001      		movw r24,r0
 2331 0b3c 439F      		mul r20,r19
 2332 0b3e 900D      		add r25,r0
 2333 0b40 529F      		mul r21,r18
 2334 0b42 900D      		add r25,r0
 2335 0b44 1124      		clr r1
 2336 0b46 E80F      		add r30,r24
 2337 0b48 F91F      		adc r31,r25
 2338 0b4a 868D      		ldd r24,Z+30
 2339               	.LBE910:
 2340               	.LBE909:
 2341               	.LBB911:
 2342               	.LBB912:
 2343               	.LM280:
 2344 0b4c 17A6      		std Z+47,__zero_reg__
 2345 0b4e 10AA      		std Z+48,__zero_reg__
 2346 0b50 11AA      		std Z+49,__zero_reg__
 2347 0b52 12AA      		std Z+50,__zero_reg__
 2348               	.LBE912:
 2349               	.LBE911:
 2350               	.LBB913:
 2351               	.LBB914:
 2352               	.LM281:
 2353 0b54 178E      		std Z+31,__zero_reg__
 2354 0b56 10A2      		std Z+32,__zero_reg__
 2355 0b58 11A2      		std Z+33,__zero_reg__
 2356 0b5a 12A2      		std Z+34,__zero_reg__
 2357               	.LBE914:
 2358               	.LBE913:
 2359               	.LBB915:
 2360               	.LBB916:
 2361               	.LM282:
 2362 0b5c 13A2      		std Z+35,__zero_reg__
 2363 0b5e 14A2      		std Z+36,__zero_reg__
 2364 0b60 15A2      		std Z+37,__zero_reg__
 2365 0b62 16A2      		std Z+38,__zero_reg__
 2366               	.LBE916:
 2367               	.LBE915:
 2368               	.LBB917:
 2369               	.LBB918:
 2370               	.LM283:
 2371 0b64 17A2      		std Z+39,__zero_reg__
 2372 0b66 10A6      		std Z+40,__zero_reg__
 2373 0b68 11A6      		std Z+41,__zero_reg__
 2374 0b6a 12A6      		std Z+42,__zero_reg__
 2375               	.LBE918:
 2376               	.LBE917:
 2377               	.LBB919:
 2378               	.LBB920:
 2379               	.LM284:
 2380 0b6c 13A6      		std Z+43,__zero_reg__
 2381 0b6e 14A6      		std Z+44,__zero_reg__
 2382 0b70 15A6      		std Z+45,__zero_reg__
 2383 0b72 16A6      		std Z+46,__zero_reg__
 2384               	.LBE920:
 2385               	.LBE919:
 2386               	.LBB921:
 2387               	.LBB922:
 2388               	.LM285:
 2389 0b74 13AA      		std Z+51,__zero_reg__
 2390 0b76 14AA      		std Z+52,__zero_reg__
 2391 0b78 15AA      		std Z+53,__zero_reg__
 2392 0b7a 16AA      		std Z+54,__zero_reg__
 2393               	.LBE922:
 2394               	.LBE921:
 2395               	.LBB923:
 2396               	.LBB924:
 2397               	.LM286:
 2398 0b7c 807E      		andi r24,lo8(-32)
 2399 0b7e 868F      		std Z+30,r24
 2400               	.LBE924:
 2401               	.LBE923:
 2402               	.LBB925:
 2403               	.LBB926:
 2404               	.LM287:
 2405 0b80 17AA      		std Z+55,__zero_reg__
 2406 0b82 10AE      		std Z+56,__zero_reg__
 2407 0b84 11AE      		std Z+57,__zero_reg__
 2408 0b86 12AE      		std Z+58,__zero_reg__
 2409               	/* epilogue start */
 2410               	.LBE926:
 2411               	.LBE925:
 2412               	.LM288:
 2413 0b88 0895      		ret
 2414               	.LFE51:
 2416               	.global	Timebase_UpCounter_SS_Clear_All_Flags
 2418               	Timebase_UpCounter_SS_Clear_All_Flags:
 2419               	.LFB52:
 2420               	.LM289:
 2421               	.LVL168:
 2422               	/* prologue: function */
 2423               	/* frame size = 0 */
 2424               	.LM290:
 2425 0b8a 0E94 0000 		call Timebase_UpCounter_SS_Reset
 2426               	.LVL169:
 2427               	/* epilogue start */
 2428               	.LM291:
 2429 0b8e 0895      		ret
 2430               	.LFE52:
 2432               	.global	Timebase_UpCounter_SS_Start
 2434               	Timebase_UpCounter_SS_Start:
 2435               	.LFB53:
 2436               	.LM292:
 2437               	.LVL170:
 2438               	/* prologue: function */
 2439               	/* frame size = 0 */
 2440               	.LBB927:
 2441               	.LBB928:
 2442               	.LM293:
 2443 0b90 E091 0000 		lds r30,Timebase
 2444 0b94 F091 0000 		lds r31,(Timebase)+1
 2445 0b98 90E0      		ldi r25,lo8(0)
 2446               	.LBE928:
 2447               	.LBE927:
 2448               	.LM294:
 2449 0b9a 2DE1      		ldi r18,lo8(29)
 2450 0b9c 30E0      		ldi r19,hi8(29)
 2451 0b9e AC01      		movw r20,r24
 2452               	.LVL171:
 2453 0ba0 429F      		mul r20,r18
 2454 0ba2 C001      		movw r24,r0
 2455 0ba4 439F      		mul r20,r19
 2456 0ba6 900D      		add r25,r0
 2457 0ba8 529F      		mul r21,r18
 2458 0baa 900D      		add r25,r0
 2459 0bac 1124      		clr r1
 2460 0bae E80F      		add r30,r24
 2461 0bb0 F91F      		adc r31,r25
 2462 0bb2 968D      		ldd r25,Z+30
 2463 0bb4 892F      		mov r24,r25
 2464 0bb6 8695      		lsr r24
 2465 0bb8 8F70      		andi r24,lo8(15)
 2466 0bba 8130      		cpi r24,lo8(1)
 2467 0bbc 01F0      		breq .L136
 2468               	.LBB929:
 2469               	.LBB930:
 2470               	.LM295:
 2471 0bbe 917E      		andi r25,lo8(-31)
 2472 0bc0 9260      		ori r25,lo8(2)
 2473 0bc2 968F      		std Z+30,r25
 2474               	.L136:
 2475 0bc4 0895      		ret
 2476               	.LBE930:
 2477               	.LBE929:
 2478               	.LFE53:
 2480               	.global	Timebase_UpCounter_SS_Stop
 2482               	Timebase_UpCounter_SS_Stop:
 2483               	.LFB54:
 2484               	.LM296:
 2485               	.LVL172:
 2486               	/* prologue: function */
 2487               	/* frame size = 0 */
 2488               	.LBB931:
 2489               	.LBB932:
 2490               	.LM297:
 2491 0bc6 E091 0000 		lds r30,Timebase
 2492 0bca F091 0000 		lds r31,(Timebase)+1
 2493 0bce 90E0      		ldi r25,lo8(0)
 2494               	.LBE932:
 2495               	.LBE931:
 2496               	.LM298:
 2497 0bd0 2DE1      		ldi r18,lo8(29)
 2498 0bd2 30E0      		ldi r19,hi8(29)
 2499 0bd4 AC01      		movw r20,r24
 2500               	.LVL173:
 2501 0bd6 429F      		mul r20,r18
 2502 0bd8 C001      		movw r24,r0
 2503 0bda 439F      		mul r20,r19
 2504 0bdc 900D      		add r25,r0
 2505 0bde 529F      		mul r21,r18
 2506 0be0 900D      		add r25,r0
 2507 0be2 1124      		clr r1
 2508 0be4 E80F      		add r30,r24
 2509 0be6 F91F      		adc r31,r25
 2510 0be8 968D      		ldd r25,Z+30
 2511 0bea 892F      		mov r24,r25
 2512 0bec 8695      		lsr r24
 2513 0bee 8F70      		andi r24,lo8(15)
 2514 0bf0 8230      		cpi r24,lo8(2)
 2515 0bf2 01F0      		breq .L139
 2516               	.LBB933:
 2517               	.LBB934:
 2518               	.LM299:
 2519 0bf4 917E      		andi r25,lo8(-31)
 2520 0bf6 9460      		ori r25,lo8(4)
 2521 0bf8 968F      		std Z+30,r25
 2522               	.L139:
 2523 0bfa 0895      		ret
 2524               	.LBE934:
 2525               	.LBE933:
 2526               	.LFE54:
 2528               	.global	Timebase_UpCounter_SS_Set_Securely
 2530               	Timebase_UpCounter_SS_Set_Securely:
 2531               	.LFB55:
 2532               	.LM300:
 2533               	.LVL174:
 2534 0bfc 2F92      		push r2
 2535 0bfe 3F92      		push r3
 2536 0c00 4F92      		push r4
 2537 0c02 5F92      		push r5
 2538 0c04 6F92      		push r6
 2539 0c06 7F92      		push r7
 2540 0c08 8F92      		push r8
 2541 0c0a 9F92      		push r9
 2542 0c0c AF92      		push r10
 2543 0c0e BF92      		push r11
 2544 0c10 CF92      		push r12
 2545 0c12 DF92      		push r13
 2546 0c14 EF92      		push r14
 2547 0c16 FF92      		push r15
 2548 0c18 0F93      		push r16
 2549 0c1a 1F93      		push r17
 2550 0c1c DF93      		push r29
 2551 0c1e CF93      		push r28
 2552 0c20 CDB7      		in r28,__SP_L__
 2553 0c22 DEB7      		in r29,__SP_H__
 2554 0c24 2897      		sbiw r28,8
 2555 0c26 0FB6      		in __tmp_reg__,__SREG__
 2556 0c28 F894      		cli
 2557 0c2a DEBF      		out __SP_H__,r29
 2558 0c2c 0FBE      		out __SREG__,__tmp_reg__
 2559 0c2e CDBF      		out __SP_L__,r28
 2560               	/* prologue: function */
 2561               	/* frame size = 8 */
 2562 0c30 1A01      		movw r2,r20
 2563 0c32 2B01      		movw r4,r22
 2564               	.LBB935:
 2565               	.LBB936:
 2566               	.LM301:
 2567 0c34 2091 0000 		lds r18,Timebase
 2568 0c38 3091 0000 		lds r19,(Timebase)+1
 2569 0c3c 3887      		std Y+8,r19
 2570 0c3e 2F83      		std Y+7,r18
 2571 0c40 A82F      		mov r26,r24
 2572 0c42 B0E0      		ldi r27,lo8(0)
 2573 0c44 BA83      		std Y+2,r27
 2574 0c46 A983      		std Y+1,r26
 2575               	.LBE936:
 2576               	.LBE935:
 2577               	.LM302:
 2578 0c48 8DE1      		ldi r24,lo8(29)
 2579 0c4a 90E0      		ldi r25,hi8(29)
 2580               	.LVL175:
 2581 0c4c A89F      		mul r26,r24
 2582 0c4e F001      		movw r30,r0
 2583 0c50 A99F      		mul r26,r25
 2584 0c52 F00D      		add r31,r0
 2585 0c54 B89F      		mul r27,r24
 2586 0c56 F00D      		add r31,r0
 2587 0c58 1124      		clr r1
 2588 0c5a E20F      		add r30,r18
 2589 0c5c F31F      		adc r31,r19
 2590 0c5e 868D      		ldd r24,Z+30
 2591 0c60 8695      		lsr r24
 2592 0c62 8F70      		andi r24,lo8(15)
 2593 0c64 01F0      		breq .+2
 2594 0c66 00C0      		rjmp .L143
 2595               	.LVL176:
 2596               	.LBB937:
 2597               	.LBB938:
 2598               	.LM303:
 2599 0c68 17A6      		std Z+47,__zero_reg__
 2600 0c6a 10AA      		std Z+48,__zero_reg__
 2601 0c6c 11AA      		std Z+49,__zero_reg__
 2602 0c6e 12AA      		std Z+50,__zero_reg__
 2603               	.LBE938:
 2604               	.LBE937:
 2605               	.LBB939:
 2606               	.LBB940:
 2607               	.LM304:
 2608 0c70 13A6      		std Z+43,__zero_reg__
 2609 0c72 14A6      		std Z+44,__zero_reg__
 2610 0c74 15A6      		std Z+45,__zero_reg__
 2611 0c76 16A6      		std Z+46,__zero_reg__
 2612               	.LBE940:
 2613               	.LBE939:
 2614               	.LBB941:
 2615               	.LBB942:
 2616               	.LM305:
 2617 0c78 47A3      		std Z+39,r20
 2618 0c7a 50A7      		std Z+40,r21
 2619 0c7c 61A7      		std Z+41,r22
 2620 0c7e 72A7      		std Z+42,r23
 2621               	.LBE942:
 2622               	.LBE941:
 2623               	.LBB943:
 2624               	.LBB944:
 2625               	.LM306:
 2626 0c80 F901      		movw r30,r18
 2627 0c82 C284      		ldd r12,Z+10
 2628 0c84 D384      		ldd r13,Z+11
 2629               	.LBE944:
 2630               	.LBE943:
 2631               	.LBB945:
 2632               	.LBB946:
 2633               	.LM307:
 2634 0c86 D901      		movw r26,r18
 2635 0c88 1C96      		adiw r26,12
 2636 0c8a 8D91      		ld r24,X+
 2637 0c8c 9D91      		ld r25,X+
 2638 0c8e 0D90      		ld __tmp_reg__,X+
 2639 0c90 BC91      		ld r27,X
 2640 0c92 A02D      		mov r26,__tmp_reg__
 2641 0c94 8B83      		std Y+3,r24
 2642 0c96 9C83      		std Y+4,r25
 2643 0c98 AD83      		std Y+5,r26
 2644 0c9a BE83      		std Y+6,r27
 2645               	.LVL177:
 2646               	.LBE946:
 2647               	.LBE945:
 2648               	.LM308:
 2649 0c9c 2081      		ld r18,Z
 2650 0c9e 3181      		ldd r19,Z+1
 2651 0ca0 40E0      		ldi r20,lo8(0)
 2652 0ca2 50E0      		ldi r21,hi8(0)
 2653 0ca4 C201      		movw r24,r4
 2654 0ca6 B101      		movw r22,r2
 2655 0ca8 0E94 0000 		call __divmodsi4
 2656 0cac 7B01      		movw r14,r22
 2657 0cae 8C01      		movw r16,r24
 2658               	.LM309:
 2659 0cb0 EF81      		ldd r30,Y+7
 2660 0cb2 F885      		ldd r31,Y+8
 2661 0cb4 2081      		ld r18,Z
 2662 0cb6 3181      		ldd r19,Z+1
 2663 0cb8 40E0      		ldi r20,lo8(0)
 2664 0cba 50E0      		ldi r21,hi8(0)
 2665 0cbc C201      		movw r24,r4
 2666 0cbe B101      		movw r22,r2
 2667 0cc0 0E94 0000 		call __divmodsi4
 2668 0cc4 C901      		movw r24,r18
 2669 0cc6 DA01      		movw r26,r20
 2670 0cc8 3C01      		movw r6,r24
 2671 0cca 4D01      		movw r8,r26
 2672               	.LVL178:
 2673               	.LM310:
 2674 0ccc 5601      		movw r10,r12
 2675               	.LVL179:
 2676 0cce CC24      		clr r12
 2677 0cd0 DD24      		clr r13
 2678               	.LVL180:
 2679 0cd2 AE0C      		add r10,r14
 2680 0cd4 BF1C      		adc r11,r15
 2681 0cd6 C01E      		adc r12,r16
 2682 0cd8 D11E      		adc r13,r17
 2683               	.LVL181:
 2684               	.LM311:
 2685 0cda AF81      		ldd r26,Y+7
 2686 0cdc B885      		ldd r27,Y+8
 2687 0cde 8D91      		ld r24,X+
 2688 0ce0 9C91      		ld r25,X
 2689               	.LVL182:
 2690 0ce2 A0E0      		ldi r26,lo8(0)
 2691 0ce4 B0E0      		ldi r27,hi8(0)
 2692 0ce6 A816      		cp r10,r24
 2693 0ce8 B906      		cpc r11,r25
 2694 0cea CA06      		cpc r12,r26
 2695 0cec DB06      		cpc r13,r27
 2696 0cee 04F0      		brlt .L142
 2697               	.LM312:
 2698 0cf0 0894      		sec
 2699 0cf2 611C      		adc r6,__zero_reg__
 2700 0cf4 711C      		adc r7,__zero_reg__
 2701 0cf6 811C      		adc r8,__zero_reg__
 2702 0cf8 911C      		adc r9,__zero_reg__
 2703               	.LM313:
 2704 0cfa EF81      		ldd r30,Y+7
 2705 0cfc F885      		ldd r31,Y+8
 2706 0cfe 2081      		ld r18,Z
 2707 0d00 3181      		ldd r19,Z+1
 2708 0d02 40E0      		ldi r20,lo8(0)
 2709 0d04 50E0      		ldi r21,hi8(0)
 2710 0d06 C601      		movw r24,r12
 2711 0d08 B501      		movw r22,r10
 2712 0d0a 0E94 0000 		call __divmodsi4
 2713 0d0e AC01      		movw r20,r24
 2714 0d10 CB01      		movw r24,r22
 2715 0d12 DA01      		movw r26,r20
 2716 0d14 5C01      		movw r10,r24
 2717 0d16 6D01      		movw r12,r26
 2718               	.L142:
 2719               	.LBB947:
 2720               	.LBB948:
 2721               	.LM314:
 2722 0d18 8DE1      		ldi r24,lo8(29)
 2723 0d1a 90E0      		ldi r25,hi8(29)
 2724 0d1c 2981      		ldd r18,Y+1
 2725 0d1e 3A81      		ldd r19,Y+2
 2726 0d20 289F      		mul r18,r24
 2727 0d22 A001      		movw r20,r0
 2728 0d24 299F      		mul r18,r25
 2729 0d26 500D      		add r21,r0
 2730 0d28 389F      		mul r19,r24
 2731 0d2a 500D      		add r21,r0
 2732 0d2c 1124      		clr r1
 2733 0d2e 8F81      		ldd r24,Y+7
 2734 0d30 9885      		ldd r25,Y+8
 2735 0d32 480F      		add r20,r24
 2736 0d34 591F      		adc r21,r25
 2737 0d36 8B81      		ldd r24,Y+3
 2738 0d38 9C81      		ldd r25,Y+4
 2739 0d3a AD81      		ldd r26,Y+5
 2740 0d3c BE81      		ldd r27,Y+6
 2741 0d3e 860D      		add r24,r6
 2742 0d40 971D      		adc r25,r7
 2743 0d42 A81D      		adc r26,r8
 2744 0d44 B91D      		adc r27,r9
 2745 0d46 FA01      		movw r30,r20
 2746 0d48 878F      		std Z+31,r24
 2747 0d4a 90A3      		std Z+32,r25
 2748 0d4c A1A3      		std Z+33,r26
 2749 0d4e B2A3      		std Z+34,r27
 2750               	.LBE948:
 2751               	.LBE947:
 2752               	.LBB949:
 2753               	.LBB950:
 2754               	.LM315:
 2755 0d50 DA01      		movw r26,r20
 2756 0d52 9396      		adiw r26,35
 2757 0d54 AD92      		st X+,r10
 2758 0d56 BD92      		st X+,r11
 2759 0d58 CD92      		st X+,r12
 2760 0d5a DC92      		st X,r13
 2761 0d5c 9697      		sbiw r26,35+3
 2762               	.LBE950:
 2763               	.LBE949:
 2764               	.LBB951:
 2765               	.LBB952:
 2766               	.LM316:
 2767 0d5e 27AA      		std Z+55,r2
 2768 0d60 30AE      		std Z+56,r3
 2769 0d62 41AE      		std Z+57,r4
 2770 0d64 52AE      		std Z+58,r5
 2771               	.LBE952:
 2772               	.LBE951:
 2773               	.LBB953:
 2774               	.LBB954:
 2775               	.LM317:
 2776 0d66 968D      		ldd r25,Z+30
 2777 0d68 892F      		mov r24,r25
 2778 0d6a 8695      		lsr r24
 2779 0d6c 8F70      		andi r24,lo8(15)
 2780 0d6e 8130      		cpi r24,lo8(1)
 2781 0d70 01F0      		breq .L143
 2782               	.LBB955:
 2783               	.LBB956:
 2784               	.LM318:
 2785 0d72 917E      		andi r25,lo8(-31)
 2786 0d74 9260      		ori r25,lo8(2)
 2787 0d76 968F      		std Z+30,r25
 2788               	.LVL183:
 2789               	.L143:
 2790               	/* epilogue start */
 2791               	.LBE956:
 2792               	.LBE955:
 2793               	.LBE954:
 2794               	.LBE953:
 2795               	.LM319:
 2796 0d78 2896      		adiw r28,8
 2797 0d7a 0FB6      		in __tmp_reg__,__SREG__
 2798 0d7c F894      		cli
 2799 0d7e DEBF      		out __SP_H__,r29
 2800 0d80 0FBE      		out __SREG__,__tmp_reg__
 2801 0d82 CDBF      		out __SP_L__,r28
 2802 0d84 CF91      		pop r28
 2803 0d86 DF91      		pop r29
 2804 0d88 1F91      		pop r17
 2805 0d8a 0F91      		pop r16
 2806 0d8c FF90      		pop r15
 2807 0d8e EF90      		pop r14
 2808 0d90 DF90      		pop r13
 2809 0d92 CF90      		pop r12
 2810               	.LVL184:
 2811 0d94 BF90      		pop r11
 2812 0d96 AF90      		pop r10
 2813               	.LVL185:
 2814 0d98 9F90      		pop r9
 2815 0d9a 8F90      		pop r8
 2816 0d9c 7F90      		pop r7
 2817 0d9e 6F90      		pop r6
 2818               	.LVL186:
 2819 0da0 5F90      		pop r5
 2820 0da2 4F90      		pop r4
 2821 0da4 3F90      		pop r3
 2822 0da6 2F90      		pop r2
 2823               	.LVL187:
 2824 0da8 0895      		ret
 2825               	.LFE55:
 2827               	.global	Timebase_UpCounter_SS_Set_Forcefully
 2829               	Timebase_UpCounter_SS_Set_Forcefully:
 2830               	.LFB56:
 2831               	.LM320:
 2832               	.LVL188:
 2833 0daa CF92      		push r12
 2834 0dac DF92      		push r13
 2835 0dae EF92      		push r14
 2836 0db0 FF92      		push r15
 2837 0db2 0F93      		push r16
 2838 0db4 1F93      		push r17
 2839               	/* prologue: function */
 2840               	/* frame size = 0 */
 2841 0db6 082F      		mov r16,r24
 2842 0db8 6A01      		movw r12,r20
 2843 0dba 7B01      		movw r14,r22
 2844               	.LM321:
 2845 0dbc 0E94 0000 		call Timebase_UpCounter_SS_Reset
 2846               	.LVL189:
 2847               	.LM322:
 2848 0dc0 802F      		mov r24,r16
 2849 0dc2 B701      		movw r22,r14
 2850 0dc4 A601      		movw r20,r12
 2851 0dc6 0E94 0000 		call Timebase_UpCounter_SS_Set_Securely
 2852               	.LBB957:
 2853               	.LBB958:
 2854               	.LM323:
 2855 0dca E091 0000 		lds r30,Timebase
 2856 0dce F091 0000 		lds r31,(Timebase)+1
 2857 0dd2 10E0      		ldi r17,lo8(0)
 2858               	.LVL190:
 2859 0dd4 8DE1      		ldi r24,lo8(29)
 2860 0dd6 90E0      		ldi r25,hi8(29)
 2861 0dd8 9C01      		movw r18,r24
 2862 0dda 029F      		mul r16,r18
 2863 0ddc C001      		movw r24,r0
 2864 0dde 039F      		mul r16,r19
 2865 0de0 900D      		add r25,r0
 2866 0de2 129F      		mul r17,r18
 2867 0de4 900D      		add r25,r0
 2868 0de6 1124      		clr r1
 2869 0de8 E80F      		add r30,r24
 2870 0dea F91F      		adc r31,r25
 2871 0dec C7AA      		std Z+55,r12
 2872 0dee D0AE      		std Z+56,r13
 2873 0df0 E1AE      		std Z+57,r14
 2874 0df2 F2AE      		std Z+58,r15
 2875               	/* epilogue start */
 2876               	.LBE958:
 2877               	.LBE957:
 2878               	.LM324:
 2879 0df4 1F91      		pop r17
 2880               	.LVL191:
 2881 0df6 0F91      		pop r16
 2882               	.LVL192:
 2883 0df8 FF90      		pop r15
 2884 0dfa EF90      		pop r14
 2885 0dfc DF90      		pop r13
 2886 0dfe CF90      		pop r12
 2887               	.LVL193:
 2888 0e00 0895      		ret
 2889               	.LFE56:
 2891               	.global	Timebase_UpCounter_SS_Update
 2893               	Timebase_UpCounter_SS_Update:
 2894               	.LFB57:
 2895               	.LM325:
 2896               	.LVL194:
 2897 0e02 2F92      		push r2
 2898 0e04 3F92      		push r3
 2899 0e06 4F92      		push r4
 2900 0e08 5F92      		push r5
 2901 0e0a 6F92      		push r6
 2902 0e0c 7F92      		push r7
 2903 0e0e 8F92      		push r8
 2904 0e10 9F92      		push r9
 2905 0e12 AF92      		push r10
 2906 0e14 BF92      		push r11
 2907 0e16 CF92      		push r12
 2908 0e18 DF92      		push r13
 2909 0e1a EF92      		push r14
 2910 0e1c FF92      		push r15
 2911 0e1e 0F93      		push r16
 2912 0e20 1F93      		push r17
 2913 0e22 DF93      		push r29
 2914 0e24 CF93      		push r28
 2915 0e26 00D0      		rcall .
 2916 0e28 00D0      		rcall .
 2917 0e2a 00D0      		rcall .
 2918 0e2c CDB7      		in r28,__SP_L__
 2919 0e2e DEB7      		in r29,__SP_H__
 2920               	/* prologue: function */
 2921               	/* frame size = 6 */
 2922               	.LBB959:
 2923               	.LBB960:
 2924               	.LM326:
 2925 0e30 2090 0000 		lds r2,Timebase
 2926 0e34 3090 0000 		lds r3,(Timebase)+1
 2927 0e38 282F      		mov r18,r24
 2928 0e3a 30E0      		ldi r19,lo8(0)
 2929 0e3c 3E83      		std Y+6,r19
 2930 0e3e 2D83      		std Y+5,r18
 2931 0e40 8DE1      		ldi r24,lo8(29)
 2932 0e42 90E0      		ldi r25,hi8(29)
 2933               	.LVL195:
 2934 0e44 289F      		mul r18,r24
 2935 0e46 5001      		movw r10,r0
 2936 0e48 299F      		mul r18,r25
 2937 0e4a B00C      		add r11,r0
 2938 0e4c 389F      		mul r19,r24
 2939 0e4e B00C      		add r11,r0
 2940 0e50 1124      		clr r1
 2941 0e52 A20C      		add r10,r2
 2942 0e54 B31C      		adc r11,r3
 2943 0e56 D501      		movw r26,r10
 2944 0e58 5E96      		adiw r26,30
 2945 0e5a 8C91      		ld r24,X
 2946 0e5c 8695      		lsr r24
 2947 0e5e 8F70      		andi r24,lo8(15)
 2948               	.LBE960:
 2949               	.LBE959:
 2950               	.LM327:
 2951 0e60 8130      		cpi r24,lo8(1)
 2952 0e62 01F0      		breq .+2
 2953 0e64 00C0      		rjmp .L147
 2954               	.LBB961:
 2955               	.LBB962:
 2956               	.LM328:
 2957 0e66 F101      		movw r30,r2
 2958 0e68 8485      		ldd r24,Z+12
 2959 0e6a 9585      		ldd r25,Z+13
 2960 0e6c A685      		ldd r26,Z+14
 2961 0e6e B785      		ldd r27,Z+15
 2962               	.LVL196:
 2963               	.LBE962:
 2964               	.LBE961:
 2965               	.LBB963:
 2966               	.LBB964:
 2967               	.LM329:
 2968 0e70 E284      		ldd r14,Z+10
 2969 0e72 F384      		ldd r15,Z+11
 2970               	.LBE964:
 2971               	.LBE963:
 2972               	.LM330:
 2973 0e74 00E0      		ldi r16,lo8(0)
 2974 0e76 10E0      		ldi r17,hi8(0)
 2975               	.LVL197:
 2976               	.LM331:
 2977 0e78 F501      		movw r30,r10
 2978 0e7a 278D      		ldd r18,Z+31
 2979 0e7c 30A1      		ldd r19,Z+32
 2980 0e7e 41A1      		ldd r20,Z+33
 2981 0e80 52A1      		ldd r21,Z+34
 2982 0e82 281B      		sub r18,r24
 2983 0e84 390B      		sbc r19,r25
 2984 0e86 4A0B      		sbc r20,r26
 2985 0e88 5B0B      		sbc r21,r27
 2986               	.LM332:
 2987 0e8a D101      		movw r26,r2
 2988 0e8c 6D91      		ld r22,X+
 2989 0e8e 7C91      		ld r23,X
 2990               	.LM333:
 2991 0e90 80E0      		ldi r24,lo8(0)
 2992 0e92 90E0      		ldi r25,hi8(0)
 2993               	.LVL198:
 2994 0e94 0E94 0000 		call __mulsi3
 2995 0e98 9B01      		movw r18,r22
 2996 0e9a AC01      		movw r20,r24
 2997               	.LVL199:
 2998 0e9c 2E19      		sub r18,r14
 2999 0e9e 3F09      		sbc r19,r15
 3000 0ea0 400B      		sbc r20,r16
 3001 0ea2 510B      		sbc r21,r17
 3002               	.LM334:
 3003 0ea4 F501      		movw r30,r10
 3004 0ea6 83A1      		ldd r24,Z+35
 3005 0ea8 94A1      		ldd r25,Z+36
 3006 0eaa A5A1      		ldd r26,Z+37
 3007 0eac B6A1      		ldd r27,Z+38
 3008 0eae 280F      		add r18,r24
 3009 0eb0 391F      		adc r19,r25
 3010 0eb2 4A1F      		adc r20,r26
 3011 0eb4 5B1F      		adc r21,r27
 3012 0eb6 57FF      		sbrs r21,7
 3013 0eb8 00C0      		rjmp .L148
 3014 0eba 20E0      		ldi r18,lo8(0)
 3015 0ebc 30E0      		ldi r19,hi8(0)
 3016 0ebe 40E0      		ldi r20,hlo8(0)
 3017 0ec0 50E0      		ldi r21,hhi8(0)
 3018               	.L148:
 3019               	.LBB965:
 3020               	.LBB966:
 3021               	.LM335:
 3022 0ec2 8DE1      		ldi r24,lo8(29)
 3023 0ec4 90E0      		ldi r25,hi8(29)
 3024 0ec6 6D81      		ldd r22,Y+5
 3025 0ec8 7E81      		ldd r23,Y+6
 3026 0eca 689F      		mul r22,r24
 3027 0ecc F001      		movw r30,r0
 3028 0ece 699F      		mul r22,r25
 3029 0ed0 F00D      		add r31,r0
 3030 0ed2 789F      		mul r23,r24
 3031 0ed4 F00D      		add r31,r0
 3032 0ed6 1124      		clr r1
 3033 0ed8 E20D      		add r30,r2
 3034 0eda F31D      		adc r31,r3
 3035 0edc 23A7      		std Z+43,r18
 3036 0ede 34A7      		std Z+44,r19
 3037 0ee0 45A7      		std Z+45,r20
 3038 0ee2 56A7      		std Z+46,r21
 3039               	.LBE966:
 3040               	.LBE965:
 3041               	.LM336:
 3042 0ee4 87A1      		ldd r24,Z+39
 3043 0ee6 90A5      		ldd r25,Z+40
 3044 0ee8 A1A5      		ldd r26,Z+41
 3045 0eea B2A5      		ldd r27,Z+42
 3046               	.LVL200:
 3047               	.LBB967:
 3048               	.LBB968:
 3049               	.LM337:
 3050 0eec 821B      		sub r24,r18
 3051 0eee 930B      		sbc r25,r19
 3052 0ef0 A40B      		sbc r26,r20
 3053 0ef2 B50B      		sbc r27,r21
 3054 0ef4 B7FF      		sbrs r27,7
 3055 0ef6 00C0      		rjmp .L149
 3056 0ef8 80E0      		ldi r24,lo8(0)
 3057 0efa 90E0      		ldi r25,hi8(0)
 3058 0efc A0E0      		ldi r26,hlo8(0)
 3059 0efe B0E0      		ldi r27,hhi8(0)
 3060               	.L149:
 3061 0f00 87A7      		std Z+47,r24
 3062 0f02 90AB      		std Z+48,r25
 3063 0f04 A1AB      		std Z+49,r26
 3064 0f06 B2AB      		std Z+50,r27
 3065               	.LBE968:
 3066               	.LBE967:
 3067               	.LM338:
 3068 0f08 8DE1      		ldi r24,lo8(29)
 3069 0f0a 90E0      		ldi r25,hi8(29)
 3070               	.LVL201:
 3071 0f0c AD81      		ldd r26,Y+5
 3072 0f0e BE81      		ldd r27,Y+6
 3073 0f10 A89F      		mul r26,r24
 3074 0f12 B001      		movw r22,r0
 3075 0f14 A99F      		mul r26,r25
 3076 0f16 700D      		add r23,r0
 3077 0f18 B89F      		mul r27,r24
 3078 0f1a 700D      		add r23,r0
 3079 0f1c 1124      		clr r1
 3080 0f1e 620D      		add r22,r2
 3081 0f20 731D      		adc r23,r3
 3082 0f22 FB01      		movw r30,r22
 3083 0f24 83A5      		ldd r24,Z+43
 3084 0f26 94A5      		ldd r25,Z+44
 3085 0f28 A5A5      		ldd r26,Z+45
 3086 0f2a B6A5      		ldd r27,Z+46
 3087 0f2c 1816      		cp __zero_reg__,r24
 3088 0f2e 1906      		cpc __zero_reg__,r25
 3089 0f30 1A06      		cpc __zero_reg__,r26
 3090 0f32 1B06      		cpc __zero_reg__,r27
 3091 0f34 04F4      		brge .+2
 3092 0f36 00C0      		rjmp .L154
 3093               	.LBB969:
 3094               	.LBB970:
 3095               	.LM339:
 3096 0f38 DB01      		movw r26,r22
 3097 0f3a 5F96      		adiw r26,31
 3098 0f3c 1D92      		st X+,__zero_reg__
 3099 0f3e 1D92      		st X+,__zero_reg__
 3100 0f40 1D92      		st X+,__zero_reg__
 3101 0f42 1C92      		st X,__zero_reg__
 3102 0f44 9297      		sbiw r26,31+3
 3103               	.LBE970:
 3104               	.LBE969:
 3105               	.LBB971:
 3106               	.LBB972:
 3107               	.LM340:
 3108 0f46 13A2      		std Z+35,__zero_reg__
 3109 0f48 14A2      		std Z+36,__zero_reg__
 3110 0f4a 15A2      		std Z+37,__zero_reg__
 3111 0f4c 16A2      		std Z+38,__zero_reg__
 3112               	.LBE972:
 3113               	.LBE971:
 3114               	.LBB973:
 3115               	.LBB974:
 3116               	.LM341:
 3117 0f4e 9B96      		adiw r26,43
 3118 0f50 1D92      		st X+,__zero_reg__
 3119 0f52 1D92      		st X+,__zero_reg__
 3120 0f54 1D92      		st X+,__zero_reg__
 3121 0f56 1C92      		st X,__zero_reg__
 3122 0f58 9E97      		sbiw r26,43+3
 3123               	.LBE974:
 3124               	.LBE973:
 3125               	.LBB975:
 3126               	.LBB976:
 3127               	.LM342:
 3128 0f5a B796      		adiw r30,39
 3129               	.LBE976:
 3130               	.LBE975:
 3131               	.LBB977:
 3132               	.LBB978:
 3133               	.LM343:
 3134 0f5c 9796      		adiw r26,39
 3135 0f5e 2C91      		ld r18,X
 3136               	.LVL202:
 3137 0f60 3181      		ldd r19,Z+1
 3138               	.LVL203:
 3139 0f62 4281      		ldd r20,Z+2
 3140               	.LVL204:
 3141 0f64 5381      		ldd r21,Z+3
 3142               	.LVL205:
 3143 0f66 C901      		movw r24,r18
 3144               	.LVL206:
 3145 0f68 DA01      		movw r26,r20
 3146               	.LVL207:
 3147 0f6a B7FF      		sbrs r27,7
 3148 0f6c 00C0      		rjmp .L151
 3149               	.LVL208:
 3150 0f6e 80E0      		ldi r24,lo8(0)
 3151 0f70 90E0      		ldi r25,hi8(0)
 3152 0f72 A0E0      		ldi r26,hlo8(0)
 3153 0f74 B0E0      		ldi r27,hhi8(0)
 3154               	.L151:
 3155 0f76 FB01      		movw r30,r22
 3156 0f78 87A7      		std Z+47,r24
 3157 0f7a 90AB      		std Z+48,r25
 3158 0f7c A1AB      		std Z+49,r26
 3159 0f7e B2AB      		std Z+50,r27
 3160               	.LBE978:
 3161               	.LBE977:
 3162               	.LBB979:
 3163               	.LBB980:
 3164               	.LM344:
 3165 0f80 8DE1      		ldi r24,lo8(29)
 3166 0f82 90E0      		ldi r25,hi8(29)
 3167               	.LVL209:
 3168 0f84 2D81      		ldd r18,Y+5
 3169 0f86 3E81      		ldd r19,Y+6
 3170 0f88 289F      		mul r18,r24
 3171 0f8a F001      		movw r30,r0
 3172 0f8c 299F      		mul r18,r25
 3173 0f8e F00D      		add r31,r0
 3174 0f90 389F      		mul r19,r24
 3175 0f92 F00D      		add r31,r0
 3176 0f94 1124      		clr r1
 3177 0f96 E20D      		add r30,r2
 3178 0f98 F31D      		adc r31,r3
 3179 0f9a 868D      		ldd r24,Z+30
 3180 0f9c 817E      		andi r24,lo8(-31)
 3181 0f9e 8860      		ori r24,lo8(8)
 3182 0fa0 868F      		std Z+30,r24
 3183 0fa2 00C0      		rjmp .L154
 3184               	.LVL210:
 3185               	.L147:
 3186               	.LBE980:
 3187               	.LBE979:
 3188               	.LM345:
 3189 0fa4 8230      		cpi r24,lo8(2)
 3190 0fa6 01F0      		breq .+2
 3191 0fa8 00C0      		rjmp .L154
 3192               	.LBB981:
 3193               	.LBB982:
 3194               	.LM346:
 3195 0faa D101      		movw r26,r2
 3196 0fac 1C96      		adiw r26,12
 3197 0fae 6D91      		ld r22,X+
 3198 0fb0 7D91      		ld r23,X+
 3199 0fb2 8D91      		ld r24,X+
 3200 0fb4 9C91      		ld r25,X
 3201 0fb6 1F97      		sbiw r26,12+3
 3202 0fb8 6983      		std Y+1,r22
 3203 0fba 7A83      		std Y+2,r23
 3204 0fbc 8B83      		std Y+3,r24
 3205 0fbe 9C83      		std Y+4,r25
 3206               	.LVL211:
 3207               	.LBE982:
 3208               	.LBE981:
 3209               	.LBB983:
 3210               	.LBB984:
 3211               	.LM347:
 3212 0fc0 1A96      		adiw r26,10
 3213 0fc2 8D90      		ld r8,X+
 3214 0fc4 9C90      		ld r9,X
 3215 0fc6 1B97      		sbiw r26,10+1
 3216               	.LBE984:
 3217               	.LBE983:
 3218               	.LBB985:
 3219               	.LBB986:
 3220               	.LM348:
 3221 0fc8 F501      		movw r30,r10
 3222 0fca A3A4      		ldd r10,Z+43
 3223 0fcc B4A4      		ldd r11,Z+44
 3224 0fce C5A4      		ldd r12,Z+45
 3225 0fd0 D6A4      		ldd r13,Z+46
 3226               	.LVL212:
 3227               	.LBE986:
 3228               	.LBE985:
 3229               	.LM349:
 3230 0fd2 2D91      		ld r18,X+
 3231 0fd4 3C91      		ld r19,X
 3232 0fd6 40E0      		ldi r20,lo8(0)
 3233 0fd8 50E0      		ldi r21,hi8(0)
 3234 0fda C601      		movw r24,r12
 3235 0fdc B501      		movw r22,r10
 3236 0fde 0E94 0000 		call __divmodsi4
 3237 0fe2 7B01      		movw r14,r22
 3238 0fe4 8C01      		movw r16,r24
 3239               	.LM350:
 3240 0fe6 D101      		movw r26,r2
 3241 0fe8 2D91      		ld r18,X+
 3242 0fea 3C91      		ld r19,X
 3243 0fec 40E0      		ldi r20,lo8(0)
 3244 0fee 50E0      		ldi r21,hi8(0)
 3245 0ff0 C601      		movw r24,r12
 3246 0ff2 B501      		movw r22,r10
 3247 0ff4 0E94 0000 		call __divmodsi4
 3248 0ff8 C901      		movw r24,r18
 3249 0ffa DA01      		movw r26,r20
 3250 0ffc 2C01      		movw r4,r24
 3251 0ffe 3D01      		movw r6,r26
 3252               	.LVL213:
 3253               	.LM351:
 3254 1000 AA24      		clr r10
 3255 1002 BB24      		clr r11
 3256               	.LVL214:
 3257 1004 8E0C      		add r8,r14
 3258 1006 9F1C      		adc r9,r15
 3259 1008 A01E      		adc r10,r16
 3260 100a B11E      		adc r11,r17
 3261               	.LVL215:
 3262               	.LM352:
 3263 100c F101      		movw r30,r2
 3264 100e 8081      		ld r24,Z
 3265 1010 9181      		ldd r25,Z+1
 3266               	.LVL216:
 3267 1012 A0E0      		ldi r26,lo8(0)
 3268 1014 B0E0      		ldi r27,hi8(0)
 3269 1016 8816      		cp r8,r24
 3270 1018 9906      		cpc r9,r25
 3271 101a AA06      		cpc r10,r26
 3272 101c BB06      		cpc r11,r27
 3273 101e 04F0      		brlt .L152
 3274               	.LM353:
 3275 1020 0894      		sec
 3276 1022 411C      		adc r4,__zero_reg__
 3277 1024 511C      		adc r5,__zero_reg__
 3278 1026 611C      		adc r6,__zero_reg__
 3279 1028 711C      		adc r7,__zero_reg__
 3280               	.LM354:
 3281 102a 2081      		ld r18,Z
 3282 102c 3181      		ldd r19,Z+1
 3283 102e 40E0      		ldi r20,lo8(0)
 3284 1030 50E0      		ldi r21,hi8(0)
 3285 1032 C501      		movw r24,r10
 3286 1034 B401      		movw r22,r8
 3287 1036 0E94 0000 		call __divmodsi4
 3288 103a AC01      		movw r20,r24
 3289 103c CB01      		movw r24,r22
 3290 103e DA01      		movw r26,r20
 3291 1040 4C01      		movw r8,r24
 3292 1042 5D01      		movw r10,r26
 3293               	.L152:
 3294               	.LBB987:
 3295               	.LBB988:
 3296               	.LM355:
 3297 1044 8DE1      		ldi r24,lo8(29)
 3298 1046 90E0      		ldi r25,hi8(29)
 3299 1048 2D81      		ldd r18,Y+5
 3300 104a 3E81      		ldd r19,Y+6
 3301 104c 289F      		mul r18,r24
 3302 104e B001      		movw r22,r0
 3303 1050 299F      		mul r18,r25
 3304 1052 700D      		add r23,r0
 3305 1054 389F      		mul r19,r24
 3306 1056 700D      		add r23,r0
 3307 1058 1124      		clr r1
 3308 105a 620D      		add r22,r2
 3309 105c 731D      		adc r23,r3
 3310 105e 8981      		ldd r24,Y+1
 3311 1060 9A81      		ldd r25,Y+2
 3312 1062 AB81      		ldd r26,Y+3
 3313 1064 BC81      		ldd r27,Y+4
 3314 1066 840D      		add r24,r4
 3315 1068 951D      		adc r25,r5
 3316 106a A61D      		adc r26,r6
 3317 106c B71D      		adc r27,r7
 3318 106e FB01      		movw r30,r22
 3319 1070 878F      		std Z+31,r24
 3320 1072 90A3      		std Z+32,r25
 3321 1074 A1A3      		std Z+33,r26
 3322 1076 B2A3      		std Z+34,r27
 3323               	.LBE988:
 3324               	.LBE987:
 3325               	.LBB989:
 3326               	.LBB990:
 3327               	.LM356:
 3328 1078 DB01      		movw r26,r22
 3329 107a 9396      		adiw r26,35
 3330 107c 8D92      		st X+,r8
 3331 107e 9D92      		st X+,r9
 3332 1080 AD92      		st X+,r10
 3333 1082 BC92      		st X,r11
 3334 1084 9697      		sbiw r26,35+3
 3335               	.LBE990:
 3336               	.LBE989:
 3337               	.LM357:
 3338 1086 9796      		adiw r26,39
 3339 1088 2D91      		ld r18,X+
 3340 108a 3D91      		ld r19,X+
 3341 108c 4D91      		ld r20,X+
 3342 108e 5C91      		ld r21,X
 3343 1090 9A97      		sbiw r26,39+3
 3344               	.LVL217:
 3345 1092 9B96      		adiw r26,43
 3346 1094 8D91      		ld r24,X+
 3347 1096 9D91      		ld r25,X+
 3348 1098 0D90      		ld __tmp_reg__,X+
 3349 109a BC91      		ld r27,X
 3350 109c A02D      		mov r26,__tmp_reg__
 3351               	.LBB991:
 3352               	.LBB992:
 3353               	.LM358:
 3354 109e 281B      		sub r18,r24
 3355 10a0 390B      		sbc r19,r25
 3356 10a2 4A0B      		sbc r20,r26
 3357 10a4 5B0B      		sbc r21,r27
 3358 10a6 57FF      		sbrs r21,7
 3359 10a8 00C0      		rjmp .L153
 3360 10aa 20E0      		ldi r18,lo8(0)
 3361 10ac 30E0      		ldi r19,hi8(0)
 3362 10ae 40E0      		ldi r20,hlo8(0)
 3363 10b0 50E0      		ldi r21,hhi8(0)
 3364               	.L153:
 3365 10b2 FB01      		movw r30,r22
 3366 10b4 27A7      		std Z+47,r18
 3367 10b6 30AB      		std Z+48,r19
 3368 10b8 41AB      		std Z+49,r20
 3369 10ba 52AB      		std Z+50,r21
 3370               	.LVL218:
 3371               	.L154:
 3372               	/* epilogue start */
 3373               	.LBE992:
 3374               	.LBE991:
 3375               	.LM359:
 3376 10bc 2696      		adiw r28,6
 3377 10be 0FB6      		in __tmp_reg__,__SREG__
 3378 10c0 F894      		cli
 3379 10c2 DEBF      		out __SP_H__,r29
 3380 10c4 0FBE      		out __SREG__,__tmp_reg__
 3381 10c6 CDBF      		out __SP_L__,r28
 3382 10c8 CF91      		pop r28
 3383 10ca DF91      		pop r29
 3384 10cc 1F91      		pop r17
 3385 10ce 0F91      		pop r16
 3386               	.LVL219:
 3387 10d0 FF90      		pop r15
 3388 10d2 EF90      		pop r14
 3389 10d4 DF90      		pop r13
 3390 10d6 CF90      		pop r12
 3391 10d8 BF90      		pop r11
 3392 10da AF90      		pop r10
 3393               	.LVL220:
 3394 10dc 9F90      		pop r9
 3395 10de 8F90      		pop r8
 3396               	.LVL221:
 3397 10e0 7F90      		pop r7
 3398 10e2 6F90      		pop r6
 3399 10e4 5F90      		pop r5
 3400 10e6 4F90      		pop r4
 3401               	.LVL222:
 3402 10e8 3F90      		pop r3
 3403 10ea 2F90      		pop r2
 3404 10ec 0895      		ret
 3405               	.LFE57:
 3407               	.global	Timebase_UpCounter_SS_Expired
 3409               	Timebase_UpCounter_SS_Expired:
 3410               	.LFB58:
 3411               	.LM360:
 3412               	.LVL223:
 3413               	/* prologue: function */
 3414               	/* frame size = 0 */
 3415               	.LM361:
 3416 10ee 40E0      		ldi r20,lo8(0)
 3417 10f0 E091 0000 		lds r30,Timebase
 3418 10f4 F091 0000 		lds r31,(Timebase)+1
 3419 10f8 90E0      		ldi r25,lo8(0)
 3420               	.LVL224:
 3421 10fa 2DE1      		ldi r18,lo8(29)
 3422 10fc 30E0      		ldi r19,hi8(29)
 3423 10fe BC01      		movw r22,r24
 3424 1100 629F      		mul r22,r18
 3425 1102 C001      		movw r24,r0
 3426 1104 639F      		mul r22,r19
 3427 1106 900D      		add r25,r0
 3428 1108 729F      		mul r23,r18
 3429 110a 900D      		add r25,r0
 3430 110c 1124      		clr r1
 3431               	.LVL225:
 3432 110e E80F      		add r30,r24
 3433 1110 F91F      		adc r31,r25
 3434 1112 868D      		ldd r24,Z+30
 3435 1114 8695      		lsr r24
 3436 1116 8F70      		andi r24,lo8(15)
 3437 1118 8430      		cpi r24,lo8(4)
 3438 111a 01F4      		brne .L156
 3439 111c 41E0      		ldi r20,lo8(1)
 3440               	.L156:
 3441               	.LM362:
 3442 111e 842F      		mov r24,r20
 3443               	/* epilogue start */
 3444 1120 0895      		ret
 3445               	.LFE58:
 3447               	.global	Timebase_UpCounter_SS_Expired_Event
 3449               	Timebase_UpCounter_SS_Expired_Event:
 3450               	.LFB59:
 3451               	.LM363:
 3452               	.LVL226:
 3453               	/* prologue: function */
 3454               	/* frame size = 0 */
 3455 1122 482F      		mov r20,r24
 3456               	.LM364:
 3457 1124 E091 0000 		lds r30,Timebase
 3458 1128 F091 0000 		lds r31,(Timebase)+1
 3459 112c 282F      		mov r18,r24
 3460 112e 30E0      		ldi r19,lo8(0)
 3461               	.LVL227:
 3462 1130 8DE1      		ldi r24,lo8(29)
 3463 1132 90E0      		ldi r25,hi8(29)
 3464               	.LVL228:
 3465 1134 BC01      		movw r22,r24
 3466 1136 269F      		mul r18,r22
 3467 1138 C001      		movw r24,r0
 3468 113a 279F      		mul r18,r23
 3469 113c 900D      		add r25,r0
 3470 113e 369F      		mul r19,r22
 3471 1140 900D      		add r25,r0
 3472 1142 1124      		clr r1
 3473 1144 E80F      		add r30,r24
 3474 1146 F91F      		adc r31,r25
 3475 1148 868D      		ldd r24,Z+30
 3476 114a 8695      		lsr r24
 3477 114c 8F70      		andi r24,lo8(15)
 3478 114e 8430      		cpi r24,lo8(4)
 3479 1150 01F0      		breq .L159
 3480 1152 80E0      		ldi r24,lo8(0)
 3481 1154 0895      		ret
 3482               	.L159:
 3483               	.LBB993:
 3484               	.LBB994:
 3485               	.LM365:
 3486 1156 842F      		mov r24,r20
 3487 1158 0E94 0000 		call Timebase_UpCounter_SS_Reset
 3488               	.LVL229:
 3489 115c 81E0      		ldi r24,lo8(1)
 3490               	.LBE994:
 3491               	.LBE993:
 3492               	.LM366:
 3493 115e 0895      		ret
 3494               	.LFE59:
 3496               	.global	Timebase_UpCounter_SS_Oneshot_Expired_Event
 3498               	Timebase_UpCounter_SS_Oneshot_Expired_Event:
 3499               	.LFB60:
 3500               	.LM367:
 3501               	.LVL230:
 3502               	/* prologue: function */
 3503               	/* frame size = 0 */
 3504               	.LM368:
 3505 1160 0E94 0000 		call Timebase_UpCounter_SS_Expired_Event
 3506               	.LVL231:
 3507               	/* epilogue start */
 3508               	.LM369:
 3509 1164 0895      		ret
 3510               	.LFE60:
 3512               	.global	Timebase_UpCounter_SS_Continuous_Expired_Event
 3514               	Timebase_UpCounter_SS_Continuous_Expired_Event:
 3515               	.LFB61:
 3516               	.LM370:
 3517               	.LVL232:
 3518 1166 DF92      		push r13
 3519 1168 EF92      		push r14
 3520 116a FF92      		push r15
 3521 116c 0F93      		push r16
 3522 116e 1F93      		push r17
 3523               	/* prologue: function */
 3524               	/* frame size = 0 */
 3525 1170 D82E      		mov r13,r24
 3526               	.LBB995:
 3527               	.LBB996:
 3528               	.LM371:
 3529 1172 E091 0000 		lds r30,Timebase
 3530 1176 F091 0000 		lds r31,(Timebase)+1
 3531 117a 282F      		mov r18,r24
 3532 117c 30E0      		ldi r19,lo8(0)
 3533               	.LBE996:
 3534               	.LBE995:
 3535               	.LM372:
 3536 117e 8DE1      		ldi r24,lo8(29)
 3537 1180 90E0      		ldi r25,hi8(29)
 3538               	.LVL233:
 3539 1182 AC01      		movw r20,r24
 3540 1184 249F      		mul r18,r20
 3541 1186 C001      		movw r24,r0
 3542 1188 259F      		mul r18,r21
 3543 118a 900D      		add r25,r0
 3544 118c 349F      		mul r19,r20
 3545 118e 900D      		add r25,r0
 3546 1190 1124      		clr r1
 3547 1192 E80F      		add r30,r24
 3548 1194 F91F      		adc r31,r25
 3549 1196 868D      		ldd r24,Z+30
 3550 1198 8695      		lsr r24
 3551 119a 8F70      		andi r24,lo8(15)
 3552 119c 8430      		cpi r24,lo8(4)
 3553 119e 01F0      		breq .L165
 3554 11a0 80E0      		ldi r24,lo8(0)
 3555 11a2 00C0      		rjmp .L166
 3556               	.L165:
 3557               	.LBB997:
 3558               	.LBB998:
 3559               	.LBB999:
 3560               	.LM373:
 3561 11a4 E7A8      		ldd r14,Z+55
 3562 11a6 F0AC      		ldd r15,Z+56
 3563 11a8 01AD      		ldd r16,Z+57
 3564 11aa 12AD      		ldd r17,Z+58
 3565               	.LVL234:
 3566               	.LBE999:
 3567               	.LBE998:
 3568               	.LBB1000:
 3569               	.LBB1001:
 3570               	.LM374:
 3571 11ac 8D2D      		mov r24,r13
 3572 11ae 0E94 0000 		call Timebase_UpCounter_SS_Reset
 3573               	.LBE1001:
 3574               	.LBE1000:
 3575               	.LM375:
 3576 11b2 8D2D      		mov r24,r13
 3577 11b4 B801      		movw r22,r16
 3578 11b6 A701      		movw r20,r14
 3579 11b8 0E94 0000 		call Timebase_UpCounter_SS_Set_Securely
 3580 11bc 81E0      		ldi r24,lo8(1)
 3581               	.L166:
 3582               	/* epilogue start */
 3583               	.LBE997:
 3584               	.LM376:
 3585 11be 1F91      		pop r17
 3586 11c0 0F91      		pop r16
 3587 11c2 FF90      		pop r15
 3588 11c4 EF90      		pop r14
 3589               	.LVL235:
 3590 11c6 DF90      		pop r13
 3591               	.LVL236:
 3592 11c8 0895      		ret
 3593               	.LFE61:
 3595               	.global	Timebase_UpCounter_SS_Set_Period_Value_Securely
 3597               	Timebase_UpCounter_SS_Set_Period_Value_Securely:
 3598               	.LFB62:
 3599               	.LM377:
 3600               	.LVL237:
 3601               	/* prologue: function */
 3602               	/* frame size = 0 */
 3603               	.LBB1002:
 3604               	.LBB1003:
 3605               	.LM378:
 3606 11ca E091 0000 		lds r30,Timebase
 3607 11ce F091 0000 		lds r31,(Timebase)+1
 3608 11d2 90E0      		ldi r25,lo8(0)
 3609               	.LBE1003:
 3610               	.LBE1002:
 3611               	.LM379:
 3612 11d4 2DE1      		ldi r18,lo8(29)
 3613 11d6 30E0      		ldi r19,hi8(29)
 3614 11d8 DC01      		movw r26,r24
 3615               	.LVL238:
 3616 11da A29F      		mul r26,r18
 3617 11dc C001      		movw r24,r0
 3618 11de A39F      		mul r26,r19
 3619 11e0 900D      		add r25,r0
 3620 11e2 B29F      		mul r27,r18
 3621 11e4 900D      		add r25,r0
 3622 11e6 1124      		clr r1
 3623 11e8 E80F      		add r30,r24
 3624 11ea F91F      		adc r31,r25
 3625 11ec 868D      		ldd r24,Z+30
 3626 11ee 80FD      		sbrc r24,0
 3627 11f0 00C0      		rjmp .L170
 3628               	.LBB1004:
 3629               	.LBB1005:
 3630               	.LM380:
 3631 11f2 87A5      		ldd r24,Z+47
 3632 11f4 90A9      		ldd r25,Z+48
 3633 11f6 A1A9      		ldd r26,Z+49
 3634 11f8 B2A9      		ldd r27,Z+50
 3635 11fa 840F      		add r24,r20
 3636 11fc 951F      		adc r25,r21
 3637 11fe A61F      		adc r26,r22
 3638 1200 B71F      		adc r27,r23
 3639 1202 83AB      		std Z+51,r24
 3640 1204 94AB      		std Z+52,r25
 3641 1206 A5AB      		std Z+53,r26
 3642 1208 B6AB      		std Z+54,r27
 3643               	.LBE1005:
 3644               	.LBE1004:
 3645               	.LBB1006:
 3646               	.LBB1007:
 3647               	.LM381:
 3648 120a 868D      		ldd r24,Z+30
 3649 120c 8160      		ori r24,lo8(1)
 3650 120e 868F      		std Z+30,r24
 3651               	.L170:
 3652 1210 0895      		ret
 3653               	.LBE1007:
 3654               	.LBE1006:
 3655               	.LFE62:
 3657               	.global	Timebase_UpCounter_SS_Get_Remaining_Period_Value
 3659               	Timebase_UpCounter_SS_Get_Remaining_Period_Value:
 3660               	.LFB63:
 3661               	.LM382:
 3662               	.LVL239:
 3663               	/* prologue: function */
 3664               	/* frame size = 0 */
 3665               	.LBB1008:
 3666               	.LBB1009:
 3667               	.LM383:
 3668 1212 E091 0000 		lds r30,Timebase
 3669 1216 F091 0000 		lds r31,(Timebase)+1
 3670 121a 90E0      		ldi r25,lo8(0)
 3671 121c 2DE1      		ldi r18,lo8(29)
 3672 121e 30E0      		ldi r19,hi8(29)
 3673 1220 AC01      		movw r20,r24
 3674               	.LVL240:
 3675 1222 429F      		mul r20,r18
 3676 1224 C001      		movw r24,r0
 3677 1226 439F      		mul r20,r19
 3678 1228 900D      		add r25,r0
 3679 122a 529F      		mul r21,r18
 3680 122c 900D      		add r25,r0
 3681 122e 1124      		clr r1
 3682 1230 E80F      		add r30,r24
 3683 1232 F91F      		adc r31,r25
 3684 1234 23A9      		ldd r18,Z+51
 3685 1236 34A9      		ldd r19,Z+52
 3686 1238 45A9      		ldd r20,Z+53
 3687 123a 56A9      		ldd r21,Z+54
 3688               	.LVL241:
 3689               	.LBE1009:
 3690               	.LBE1008:
 3691               	.LM384:
 3692 123c 87A5      		ldd r24,Z+47
 3693 123e 90A9      		ldd r25,Z+48
 3694 1240 A1A9      		ldd r26,Z+49
 3695 1242 B2A9      		ldd r27,Z+50
 3696 1244 281B      		sub r18,r24
 3697 1246 390B      		sbc r19,r25
 3698 1248 4A0B      		sbc r20,r26
 3699 124a 5B0B      		sbc r21,r27
 3700 124c 57FF      		sbrs r21,7
 3701 124e 00C0      		rjmp .L172
 3702 1250 20E0      		ldi r18,lo8(0)
 3703 1252 30E0      		ldi r19,hi8(0)
 3704 1254 40E0      		ldi r20,hlo8(0)
 3705 1256 50E0      		ldi r21,hhi8(0)
 3706               	.L172:
 3707               	.LM385:
 3708 1258 B901      		movw r22,r18
 3709               	.LVL242:
 3710 125a CA01      		movw r24,r20
 3711               	/* epilogue start */
 3712 125c 0895      		ret
 3713               	.LFE63:
 3715               	.global	Timebase_UpCounter_SS_Period_Value_Expired
 3717               	Timebase_UpCounter_SS_Period_Value_Expired:
 3718               	.LFB64:
 3719               	.LM386:
 3720               	.LVL243:
 3721 125e CF93      		push r28
 3722 1260 DF93      		push r29
 3723               	/* prologue: function */
 3724               	/* frame size = 0 */
 3725               	.LBB1010:
 3726               	.LBB1011:
 3727               	.LBB1012:
 3728               	.LBB1013:
 3729               	.LM387:
 3730 1262 C091 0000 		lds r28,Timebase
 3731 1266 D091 0000 		lds r29,(Timebase)+1
 3732 126a 682F      		mov r22,r24
 3733 126c 70E0      		ldi r23,lo8(0)
 3734 126e 8DE1      		ldi r24,lo8(29)
 3735 1270 90E0      		ldi r25,hi8(29)
 3736               	.LVL244:
 3737 1272 689F      		mul r22,r24
 3738 1274 F001      		movw r30,r0
 3739 1276 699F      		mul r22,r25
 3740 1278 F00D      		add r31,r0
 3741 127a 789F      		mul r23,r24
 3742 127c F00D      		add r31,r0
 3743 127e 1124      		clr r1
 3744 1280 EC0F      		add r30,r28
 3745 1282 FD1F      		adc r31,r29
 3746 1284 23A9      		ldd r18,Z+51
 3747 1286 34A9      		ldd r19,Z+52
 3748 1288 45A9      		ldd r20,Z+53
 3749 128a 56A9      		ldd r21,Z+54
 3750               	.LVL245:
 3751               	.LBE1013:
 3752               	.LBE1012:
 3753               	.LM388:
 3754 128c 87A5      		ldd r24,Z+47
 3755 128e 90A9      		ldd r25,Z+48
 3756 1290 A1A9      		ldd r26,Z+49
 3757 1292 B2A9      		ldd r27,Z+50
 3758 1294 281B      		sub r18,r24
 3759 1296 390B      		sbc r19,r25
 3760 1298 4A0B      		sbc r20,r26
 3761 129a 5B0B      		sbc r21,r27
 3762               	.LM389:
 3763 129c 57FD      		sbrc r21,7
 3764 129e 00C0      		rjmp .L175
 3765               	.LBE1011:
 3766               	.LBE1010:
 3767               	.LM390:
 3768 12a0 2115      		cp r18,__zero_reg__
 3769 12a2 3105      		cpc r19,__zero_reg__
 3770 12a4 4105      		cpc r20,__zero_reg__
 3771 12a6 5105      		cpc r21,__zero_reg__
 3772 12a8 01F0      		breq .L175
 3773 12aa 20E0      		ldi r18,lo8(0)
 3774               	.LVL246:
 3775 12ac 00C0      		rjmp .L176
 3776               	.LVL247:
 3777               	.L175:
 3778 12ae 20E0      		ldi r18,lo8(0)
 3779               	.LVL248:
 3780 12b0 8DE1      		ldi r24,lo8(29)
 3781 12b2 90E0      		ldi r25,hi8(29)
 3782 12b4 AC01      		movw r20,r24
 3783 12b6 649F      		mul r22,r20
 3784 12b8 C001      		movw r24,r0
 3785 12ba 659F      		mul r22,r21
 3786 12bc 900D      		add r25,r0
 3787 12be 749F      		mul r23,r20
 3788 12c0 900D      		add r25,r0
 3789 12c2 1124      		clr r1
 3790 12c4 C80F      		add r28,r24
 3791 12c6 D91F      		adc r29,r25
 3792 12c8 8E8D      		ldd r24,Y+30
 3793 12ca 80FF      		sbrs r24,0
 3794 12cc 21E0      		ldi r18,lo8(1)
 3795               	.L177:
 3796 12ce 81E0      		ldi r24,lo8(1)
 3797 12d0 2827      		eor r18,r24
 3798               	.L176:
 3799               	.LM391:
 3800 12d2 822F      		mov r24,r18
 3801               	/* epilogue start */
 3802 12d4 DF91      		pop r29
 3803 12d6 CF91      		pop r28
 3804 12d8 0895      		ret
 3805               	.LFE64:
 3807               	.global	Timebase_UpCounter_SS_Period_Value_Expired_Event
 3809               	Timebase_UpCounter_SS_Period_Value_Expired_Event:
 3810               	.LFB65:
 3811               	.LM392:
 3812               	.LVL249:
 3813 12da 1F93      		push r17
 3814               	/* prologue: function */
 3815               	/* frame size = 0 */
 3816 12dc 182F      		mov r17,r24
 3817               	.LM393:
 3818 12de 0E94 0000 		call Timebase_UpCounter_SS_Period_Value_Expired
 3819               	.LVL250:
 3820 12e2 8130      		cpi r24,lo8(1)
 3821 12e4 01F0      		breq .L180
 3822 12e6 80E0      		ldi r24,lo8(0)
 3823 12e8 00C0      		rjmp .L181
 3824               	.L180:
 3825               	.LBB1014:
 3826               	.LBB1015:
 3827               	.LM394:
 3828 12ea E091 0000 		lds r30,Timebase
 3829 12ee F091 0000 		lds r31,(Timebase)+1
 3830 12f2 212F      		mov r18,r17
 3831 12f4 30E0      		ldi r19,lo8(0)
 3832               	.LVL251:
 3833 12f6 8DE1      		ldi r24,lo8(29)
 3834 12f8 90E0      		ldi r25,hi8(29)
 3835 12fa AC01      		movw r20,r24
 3836 12fc 249F      		mul r18,r20
 3837 12fe C001      		movw r24,r0
 3838 1300 259F      		mul r18,r21
 3839 1302 900D      		add r25,r0
 3840 1304 349F      		mul r19,r20
 3841 1306 900D      		add r25,r0
 3842 1308 1124      		clr r1
 3843 130a E80F      		add r30,r24
 3844 130c F91F      		adc r31,r25
 3845 130e 868D      		ldd r24,Z+30
 3846 1310 8E7F      		andi r24,lo8(-2)
 3847 1312 868F      		std Z+30,r24
 3848 1314 81E0      		ldi r24,lo8(1)
 3849               	.L181:
 3850               	/* epilogue start */
 3851               	.LBE1015:
 3852               	.LBE1014:
 3853               	.LM395:
 3854 1316 1F91      		pop r17
 3855               	.LVL252:
 3856 1318 0895      		ret
 3857               	.LFE65:
 3859               	.global	Timebase_UpCounter_SS_Update_All
 3861               	Timebase_UpCounter_SS_Update_All:
 3862               	.LFB66:
 3863               	.LM396:
 3864               	/* prologue: function */
 3865               	/* frame size = 0 */
 3866               	.LBB1016:
 3867               	.LM397:
 3868 131a 80E0      		ldi r24,lo8(0)
 3869 131c 0E94 0000 		call Timebase_UpCounter_SS_Update
 3870               	/* epilogue start */
 3871               	.LBE1016:
 3872               	.LM398:
 3873 1320 0895      		ret
 3874               	.LFE66:
 3876               	.global	Timebase_UpCounter_SS_Reset_All
 3878               	Timebase_UpCounter_SS_Reset_All:
 3879               	.LFB67:
 3880               	.LM399:
 3881               	/* prologue: function */
 3882               	/* frame size = 0 */
 3883               	.LBB1017:
 3884               	.LM400:
 3885 1322 80E0      		ldi r24,lo8(0)
 3886 1324 0E94 0000 		call Timebase_UpCounter_SS_Reset
 3887               	/* epilogue start */
 3888               	.LBE1017:
 3889               	.LM401:
 3890 1328 0895      		ret
 3891               	.LFE67:
 3893               	.global	Timebase_UpCounter_Get_Status
 3895               	Timebase_UpCounter_Get_Status:
 3896               	.LFB68:
 3897               	.LM402:
 3898               	.LVL253:
 3899               	/* prologue: function */
 3900               	/* frame size = 0 */
 3901               	.LM403:
 3902 132a E091 0000 		lds r30,Timebase
 3903 132e F091 0000 		lds r31,(Timebase)+1
 3904 1332 90E0      		ldi r25,lo8(0)
 3905               	.LVL254:
 3906 1334 29E1      		ldi r18,lo8(25)
 3907 1336 30E0      		ldi r19,hi8(25)
 3908 1338 AC01      		movw r20,r24
 3909 133a 429F      		mul r20,r18
 3910 133c C001      		movw r24,r0
 3911 133e 439F      		mul r20,r19
 3912 1340 900D      		add r25,r0
 3913 1342 529F      		mul r21,r18
 3914 1344 900D      		add r25,r0
 3915 1346 1124      		clr r1
 3916               	.LVL255:
 3917 1348 E80F      		add r30,r24
 3918 134a F91F      		adc r31,r25
 3919 134c 83AD      		ldd r24,Z+59
 3920 134e 8695      		lsr r24
 3921               	.LM404:
 3922 1350 8F70      		andi r24,lo8(15)
 3923               	/* epilogue start */
 3924 1352 0895      		ret
 3925               	.LFE68:
 3927               	.global	Timebase_UpCounter_Set_Status
 3929               	Timebase_UpCounter_Set_Status:
 3930               	.LFB69:
 3931               	.LM405:
 3932               	.LVL256:
 3933               	/* prologue: function */
 3934               	/* frame size = 0 */
 3935               	.LM406:
 3936 1354 E091 0000 		lds r30,Timebase
 3937 1358 F091 0000 		lds r31,(Timebase)+1
 3938 135c 90E0      		ldi r25,lo8(0)
 3939               	.LVL257:
 3940 135e 29E1      		ldi r18,lo8(25)
 3941 1360 30E0      		ldi r19,hi8(25)
 3942 1362 AC01      		movw r20,r24
 3943 1364 429F      		mul r20,r18
 3944 1366 C001      		movw r24,r0
 3945 1368 439F      		mul r20,r19
 3946 136a 900D      		add r25,r0
 3947 136c 529F      		mul r21,r18
 3948 136e 900D      		add r25,r0
 3949 1370 1124      		clr r1
 3950               	.LVL258:
 3951 1372 E80F      		add r30,r24
 3952 1374 F91F      		adc r31,r25
 3953 1376 6F70      		andi r22,lo8(15)
 3954               	.LVL259:
 3955 1378 660F      		lsl r22
 3956 137a 83AD      		ldd r24,Z+59
 3957 137c 817E      		andi r24,lo8(-31)
 3958 137e 862B      		or r24,r22
 3959 1380 83AF      		std Z+59,r24
 3960               	/* epilogue start */
 3961               	.LM407:
 3962 1382 0895      		ret
 3963               	.LFE69:
 3965               	.global	Timebase_UpCounter_Get_Value
 3967               	Timebase_UpCounter_Get_Value:
 3968               	.LFB70:
 3969               	.LM408:
 3970               	.LVL260:
 3971               	/* prologue: function */
 3972               	/* frame size = 0 */
 3973               	.LM409:
 3974 1384 E091 0000 		lds r30,Timebase
 3975 1388 F091 0000 		lds r31,(Timebase)+1
 3976 138c 90E0      		ldi r25,lo8(0)
 3977               	.LVL261:
 3978 138e 29E1      		ldi r18,lo8(25)
 3979 1390 30E0      		ldi r19,hi8(25)
 3980 1392 AC01      		movw r20,r24
 3981 1394 429F      		mul r20,r18
 3982 1396 C001      		movw r24,r0
 3983 1398 439F      		mul r20,r19
 3984 139a 900D      		add r25,r0
 3985 139c 529F      		mul r21,r18
 3986 139e 900D      		add r25,r0
 3987 13a0 1124      		clr r1
 3988               	.LVL262:
 3989 13a2 E80F      		add r30,r24
 3990 13a4 F91F      		adc r31,r25
 3991 13a6 E85B      		subi r30,lo8(-(72))
 3992 13a8 FF4F      		sbci r31,hi8(-(72))
 3993 13aa 6081      		ld r22,Z
 3994 13ac 7181      		ldd r23,Z+1
 3995               	.LM410:
 3996 13ae 8281      		ldd r24,Z+2
 3997 13b0 9381      		ldd r25,Z+3
 3998               	.LVL263:
 3999               	/* epilogue start */
 4000 13b2 0895      		ret
 4001               	.LFE70:
 4003               	.global	Timebase_UpCounter_Set_Value
 4005               	Timebase_UpCounter_Set_Value:
 4006               	.LFB71:
 4007               	.LM411:
 4008               	.LVL264:
 4009 13b4 CF93      		push r28
 4010 13b6 DF93      		push r29
 4011               	/* prologue: function */
 4012               	/* frame size = 0 */
 4013               	.LM412:
 4014 13b8 C091 0000 		lds r28,Timebase
 4015 13bc D091 0000 		lds r29,(Timebase)+1
 4016 13c0 90E0      		ldi r25,lo8(0)
 4017               	.LVL265:
 4018 13c2 29E1      		ldi r18,lo8(25)
 4019 13c4 30E0      		ldi r19,hi8(25)
 4020 13c6 FC01      		movw r30,r24
 4021 13c8 E29F      		mul r30,r18
 4022 13ca C001      		movw r24,r0
 4023 13cc E39F      		mul r30,r19
 4024 13ce 900D      		add r25,r0
 4025 13d0 F29F      		mul r31,r18
 4026 13d2 900D      		add r25,r0
 4027 13d4 1124      		clr r1
 4028               	.LVL266:
 4029 13d6 C80F      		add r28,r24
 4030 13d8 D91F      		adc r29,r25
 4031 13da C85B      		subi r28,lo8(-(72))
 4032 13dc DF4F      		sbci r29,hi8(-(72))
 4033 13de CA01      		movw r24,r20
 4034               	.LVL267:
 4035 13e0 DB01      		movw r26,r22
 4036 13e2 B7FF      		sbrs r27,7
 4037 13e4 00C0      		rjmp .L194
 4038               	.LVL268:
 4039 13e6 80E0      		ldi r24,lo8(0)
 4040 13e8 90E0      		ldi r25,hi8(0)
 4041 13ea A0E0      		ldi r26,hlo8(0)
 4042 13ec B0E0      		ldi r27,hhi8(0)
 4043               	.L194:
 4044 13ee 8883      		st Y,r24
 4045 13f0 9983      		std Y+1,r25
 4046 13f2 AA83      		std Y+2,r26
 4047 13f4 BB83      		std Y+3,r27
 4048               	/* epilogue start */
 4049               	.LM413:
 4050 13f6 DF91      		pop r29
 4051 13f8 CF91      		pop r28
 4052 13fa 0895      		ret
 4053               	.LFE71:
 4055               	.global	Timebase_UpCounter_Get_EndValueSec
 4057               	Timebase_UpCounter_Get_EndValueSec:
 4058               	.LFB72:
 4059               	.LM414:
 4060               	.LVL269:
 4061               	/* prologue: function */
 4062               	/* frame size = 0 */
 4063               	.LM415:
 4064 13fc E091 0000 		lds r30,Timebase
 4065 1400 F091 0000 		lds r31,(Timebase)+1
 4066 1404 90E0      		ldi r25,lo8(0)
 4067               	.LVL270:
 4068 1406 29E1      		ldi r18,lo8(25)
 4069 1408 30E0      		ldi r19,hi8(25)
 4070 140a AC01      		movw r20,r24
 4071 140c 429F      		mul r20,r18
 4072 140e C001      		movw r24,r0
 4073 1410 439F      		mul r20,r19
 4074 1412 900D      		add r25,r0
 4075 1414 529F      		mul r21,r18
 4076 1416 900D      		add r25,r0
 4077 1418 1124      		clr r1
 4078               	.LVL271:
 4079 141a E80F      		add r30,r24
 4080 141c F91F      		adc r31,r25
 4081 141e DF01      		movw r26,r30
 4082 1420 DC96      		adiw r26,60
 4083 1422 64AD      		ldd r22,Z+60
 4084 1424 1196      		adiw r26,1
 4085 1426 7C91      		ld r23,X
 4086 1428 1197      		sbiw r26,1
 4087               	.LM416:
 4088 142a 1296      		adiw r26,2
 4089 142c 8C91      		ld r24,X
 4090 142e 1297      		sbiw r26,2
 4091 1430 1396      		adiw r26,3
 4092 1432 9C91      		ld r25,X
 4093               	.LVL272:
 4094               	/* epilogue start */
 4095 1434 0895      		ret
 4096               	.LFE72:
 4098               	.global	Timebase_UpCounter_Get_EndValueSubSec
 4100               	Timebase_UpCounter_Get_EndValueSubSec:
 4101               	.LFB73:
 4102               	.LM417:
 4103               	.LVL273:
 4104               	/* prologue: function */
 4105               	/* frame size = 0 */
 4106               	.LM418:
 4107 1436 E091 0000 		lds r30,Timebase
 4108 143a F091 0000 		lds r31,(Timebase)+1
 4109 143e 90E0      		ldi r25,lo8(0)
 4110               	.LVL274:
 4111 1440 29E1      		ldi r18,lo8(25)
 4112 1442 30E0      		ldi r19,hi8(25)
 4113 1444 AC01      		movw r20,r24
 4114 1446 429F      		mul r20,r18
 4115 1448 C001      		movw r24,r0
 4116 144a 439F      		mul r20,r19
 4117 144c 900D      		add r25,r0
 4118 144e 529F      		mul r21,r18
 4119 1450 900D      		add r25,r0
 4120 1452 1124      		clr r1
 4121               	.LVL275:
 4122 1454 E80F      		add r30,r24
 4123 1456 F91F      		adc r31,r25
 4124 1458 DF01      		movw r26,r30
 4125 145a DC96      		adiw r26,60
 4126 145c 64AD      		ldd r22,Z+60
 4127 145e 1196      		adiw r26,1
 4128 1460 7C91      		ld r23,X
 4129 1462 1197      		sbiw r26,1
 4130               	.LM419:
 4131 1464 1296      		adiw r26,2
 4132 1466 8C91      		ld r24,X
 4133 1468 1297      		sbiw r26,2
 4134 146a 1396      		adiw r26,3
 4135 146c 9C91      		ld r25,X
 4136               	.LVL276:
 4137               	/* epilogue start */
 4138 146e 0895      		ret
 4139               	.LFE73:
 4141               	.global	Timebase_UpCounter_Set_EndValueSec
 4143               	Timebase_UpCounter_Set_EndValueSec:
 4144               	.LFB74:
 4145               	.LM420:
 4146               	.LVL277:
 4147               	/* prologue: function */
 4148               	/* frame size = 0 */
 4149               	.LM421:
 4150 1470 E091 0000 		lds r30,Timebase
 4151 1474 F091 0000 		lds r31,(Timebase)+1
 4152 1478 90E0      		ldi r25,lo8(0)
 4153               	.LVL278:
 4154 147a 29E1      		ldi r18,lo8(25)
 4155 147c 30E0      		ldi r19,hi8(25)
 4156 147e DC01      		movw r26,r24
 4157 1480 A29F      		mul r26,r18
 4158 1482 C001      		movw r24,r0
 4159 1484 A39F      		mul r26,r19
 4160 1486 900D      		add r25,r0
 4161 1488 B29F      		mul r27,r18
 4162 148a 900D      		add r25,r0
 4163 148c 1124      		clr r1
 4164               	.LVL279:
 4165 148e E80F      		add r30,r24
 4166 1490 F91F      		adc r31,r25
 4167 1492 44AF      		std Z+60,r20
 4168 1494 55AF      		std Z+61,r21
 4169 1496 66AF      		std Z+62,r22
 4170 1498 77AF      		std Z+63,r23
 4171               	/* epilogue start */
 4172               	.LM422:
 4173 149a 0895      		ret
 4174               	.LFE74:
 4176               	.global	Timebase_UpCounter_Set_EndValueSubSec
 4178               	Timebase_UpCounter_Set_EndValueSubSec:
 4179               	.LFB75:
 4180               	.LM423:
 4181               	.LVL280:
 4182               	/* prologue: function */
 4183               	/* frame size = 0 */
 4184               	.LM424:
 4185 149c E091 0000 		lds r30,Timebase
 4186 14a0 F091 0000 		lds r31,(Timebase)+1
 4187 14a4 90E0      		ldi r25,lo8(0)
 4188               	.LVL281:
 4189 14a6 29E1      		ldi r18,lo8(25)
 4190 14a8 30E0      		ldi r19,hi8(25)
 4191 14aa DC01      		movw r26,r24
 4192 14ac A29F      		mul r26,r18
 4193 14ae C001      		movw r24,r0
 4194 14b0 A39F      		mul r26,r19
 4195 14b2 900D      		add r25,r0
 4196 14b4 B29F      		mul r27,r18
 4197 14b6 900D      		add r25,r0
 4198 14b8 1124      		clr r1
 4199               	.LVL282:
 4200 14ba E80F      		add r30,r24
 4201 14bc F91F      		adc r31,r25
 4202 14be 44AF      		std Z+60,r20
 4203 14c0 55AF      		std Z+61,r21
 4204 14c2 66AF      		std Z+62,r22
 4205 14c4 77AF      		std Z+63,r23
 4206               	/* epilogue start */
 4207               	.LM425:
 4208 14c6 0895      		ret
 4209               	.LFE75:
 4211               	.global	Timebase_UpCounter_Get_TargetValue
 4213               	Timebase_UpCounter_Get_TargetValue:
 4214               	.LFB76:
 4215               	.LM426:
 4216               	.LVL283:
 4217               	/* prologue: function */
 4218               	/* frame size = 0 */
 4219               	.LM427:
 4220 14c8 E091 0000 		lds r30,Timebase
 4221 14cc F091 0000 		lds r31,(Timebase)+1
 4222 14d0 90E0      		ldi r25,lo8(0)
 4223               	.LVL284:
 4224 14d2 29E1      		ldi r18,lo8(25)
 4225 14d4 30E0      		ldi r19,hi8(25)
 4226 14d6 AC01      		movw r20,r24
 4227 14d8 429F      		mul r20,r18
 4228 14da C001      		movw r24,r0
 4229 14dc 439F      		mul r20,r19
 4230 14de 900D      		add r25,r0
 4231 14e0 529F      		mul r21,r18
 4232 14e2 900D      		add r25,r0
 4233 14e4 1124      		clr r1
 4234               	.LVL285:
 4235 14e6 E80F      		add r30,r24
 4236 14e8 F91F      		adc r31,r25
 4237 14ea E05C      		subi r30,lo8(-(64))
 4238 14ec FF4F      		sbci r31,hi8(-(64))
 4239 14ee 6081      		ld r22,Z
 4240 14f0 7181      		ldd r23,Z+1
 4241               	.LM428:
 4242 14f2 8281      		ldd r24,Z+2
 4243 14f4 9381      		ldd r25,Z+3
 4244               	.LVL286:
 4245               	/* epilogue start */
 4246 14f6 0895      		ret
 4247               	.LFE76:
 4249               	.global	Timebase_UpCounter_Set_TargetValue
 4251               	Timebase_UpCounter_Set_TargetValue:
 4252               	.LFB77:
 4253               	.LM429:
 4254               	.LVL287:
 4255               	/* prologue: function */
 4256               	/* frame size = 0 */
 4257               	.LM430:
 4258 14f8 E091 0000 		lds r30,Timebase
 4259 14fc F091 0000 		lds r31,(Timebase)+1
 4260 1500 90E0      		ldi r25,lo8(0)
 4261               	.LVL288:
 4262 1502 29E1      		ldi r18,lo8(25)
 4263 1504 30E0      		ldi r19,hi8(25)
 4264 1506 DC01      		movw r26,r24
 4265 1508 A29F      		mul r26,r18
 4266 150a C001      		movw r24,r0
 4267 150c A39F      		mul r26,r19
 4268 150e 900D      		add r25,r0
 4269 1510 B29F      		mul r27,r18
 4270 1512 900D      		add r25,r0
 4271 1514 1124      		clr r1
 4272               	.LVL289:
 4273 1516 E80F      		add r30,r24
 4274 1518 F91F      		adc r31,r25
 4275 151a E05C      		subi r30,lo8(-(64))
 4276 151c FF4F      		sbci r31,hi8(-(64))
 4277 151e 4083      		st Z,r20
 4278 1520 5183      		std Z+1,r21
 4279 1522 6283      		std Z+2,r22
 4280 1524 7383      		std Z+3,r23
 4281               	/* epilogue start */
 4282               	.LM431:
 4283 1526 0895      		ret
 4284               	.LFE77:
 4286               	.global	Timebase_UpCounter_Get_TemporaryValue
 4288               	Timebase_UpCounter_Get_TemporaryValue:
 4289               	.LFB78:
 4290               	.LM432:
 4291               	.LVL290:
 4292               	/* prologue: function */
 4293               	/* frame size = 0 */
 4294               	.LM433:
 4295 1528 E091 0000 		lds r30,Timebase
 4296 152c F091 0000 		lds r31,(Timebase)+1
 4297 1530 90E0      		ldi r25,lo8(0)
 4298               	.LVL291:
 4299 1532 29E1      		ldi r18,lo8(25)
 4300 1534 30E0      		ldi r19,hi8(25)
 4301 1536 AC01      		movw r20,r24
 4302 1538 429F      		mul r20,r18
 4303 153a C001      		movw r24,r0
 4304 153c 439F      		mul r20,r19
 4305 153e 900D      		add r25,r0
 4306 1540 529F      		mul r21,r18
 4307 1542 900D      		add r25,r0
 4308 1544 1124      		clr r1
 4309               	.LVL292:
 4310 1546 E80F      		add r30,r24
 4311 1548 F91F      		adc r31,r25
 4312 154a EC5B      		subi r30,lo8(-(68))
 4313 154c FF4F      		sbci r31,hi8(-(68))
 4314 154e 6081      		ld r22,Z
 4315 1550 7181      		ldd r23,Z+1
 4316               	.LM434:
 4317 1552 8281      		ldd r24,Z+2
 4318 1554 9381      		ldd r25,Z+3
 4319               	.LVL293:
 4320               	/* epilogue start */
 4321 1556 0895      		ret
 4322               	.LFE78:
 4324               	.global	Timebase_UpCounter_Set_TemporaryValue
 4326               	Timebase_UpCounter_Set_TemporaryValue:
 4327               	.LFB79:
 4328               	.LM435:
 4329               	.LVL294:
 4330 1558 CF93      		push r28
 4331 155a DF93      		push r29
 4332               	/* prologue: function */
 4333               	/* frame size = 0 */
 4334               	.LM436:
 4335 155c C091 0000 		lds r28,Timebase
 4336 1560 D091 0000 		lds r29,(Timebase)+1
 4337 1564 90E0      		ldi r25,lo8(0)
 4338               	.LVL295:
 4339 1566 29E1      		ldi r18,lo8(25)
 4340 1568 30E0      		ldi r19,hi8(25)
 4341 156a FC01      		movw r30,r24
 4342 156c E29F      		mul r30,r18
 4343 156e C001      		movw r24,r0
 4344 1570 E39F      		mul r30,r19
 4345 1572 900D      		add r25,r0
 4346 1574 F29F      		mul r31,r18
 4347 1576 900D      		add r25,r0
 4348 1578 1124      		clr r1
 4349               	.LVL296:
 4350 157a C80F      		add r28,r24
 4351 157c D91F      		adc r29,r25
 4352 157e CC5B      		subi r28,lo8(-(68))
 4353 1580 DF4F      		sbci r29,hi8(-(68))
 4354 1582 CA01      		movw r24,r20
 4355               	.LVL297:
 4356 1584 DB01      		movw r26,r22
 4357 1586 B7FF      		sbrs r27,7
 4358 1588 00C0      		rjmp .L211
 4359               	.LVL298:
 4360 158a 80E0      		ldi r24,lo8(0)
 4361 158c 90E0      		ldi r25,hi8(0)
 4362 158e A0E0      		ldi r26,hlo8(0)
 4363 1590 B0E0      		ldi r27,hhi8(0)
 4364               	.L211:
 4365 1592 8883      		st Y,r24
 4366 1594 9983      		std Y+1,r25
 4367 1596 AA83      		std Y+2,r26
 4368 1598 BB83      		std Y+3,r27
 4369               	/* epilogue start */
 4370               	.LM437:
 4371 159a DF91      		pop r29
 4372 159c CF91      		pop r28
 4373 159e 0895      		ret
 4374               	.LFE79:
 4376               	.global	Timebase_UpCounter_Get_PeriodValue
 4378               	Timebase_UpCounter_Get_PeriodValue:
 4379               	.LFB80:
 4380               	.LM438:
 4381               	.LVL299:
 4382               	/* prologue: function */
 4383               	/* frame size = 0 */
 4384               	.LM439:
 4385 15a0 E091 0000 		lds r30,Timebase
 4386 15a4 F091 0000 		lds r31,(Timebase)+1
 4387 15a8 90E0      		ldi r25,lo8(0)
 4388               	.LVL300:
 4389 15aa 29E1      		ldi r18,lo8(25)
 4390 15ac 30E0      		ldi r19,hi8(25)
 4391 15ae AC01      		movw r20,r24
 4392 15b0 429F      		mul r20,r18
 4393 15b2 C001      		movw r24,r0
 4394 15b4 439F      		mul r20,r19
 4395 15b6 900D      		add r25,r0
 4396 15b8 529F      		mul r21,r18
 4397 15ba 900D      		add r25,r0
 4398 15bc 1124      		clr r1
 4399               	.LVL301:
 4400 15be E80F      		add r30,r24
 4401 15c0 F91F      		adc r31,r25
 4402 15c2 E45B      		subi r30,lo8(-(76))
 4403 15c4 FF4F      		sbci r31,hi8(-(76))
 4404 15c6 6081      		ld r22,Z
 4405 15c8 7181      		ldd r23,Z+1
 4406               	.LM440:
 4407 15ca 8281      		ldd r24,Z+2
 4408 15cc 9381      		ldd r25,Z+3
 4409               	.LVL302:
 4410               	/* epilogue start */
 4411 15ce 0895      		ret
 4412               	.LFE80:
 4414               	.global	Timebase_UpCounter_Set_PeriodValue
 4416               	Timebase_UpCounter_Set_PeriodValue:
 4417               	.LFB81:
 4418               	.LM441:
 4419               	.LVL303:
 4420               	/* prologue: function */
 4421               	/* frame size = 0 */
 4422               	.LM442:
 4423 15d0 E091 0000 		lds r30,Timebase
 4424 15d4 F091 0000 		lds r31,(Timebase)+1
 4425 15d8 90E0      		ldi r25,lo8(0)
 4426               	.LVL304:
 4427 15da 29E1      		ldi r18,lo8(25)
 4428 15dc 30E0      		ldi r19,hi8(25)
 4429 15de DC01      		movw r26,r24
 4430 15e0 A29F      		mul r26,r18
 4431 15e2 C001      		movw r24,r0
 4432 15e4 A39F      		mul r26,r19
 4433 15e6 900D      		add r25,r0
 4434 15e8 B29F      		mul r27,r18
 4435 15ea 900D      		add r25,r0
 4436 15ec 1124      		clr r1
 4437               	.LVL305:
 4438 15ee E80F      		add r30,r24
 4439 15f0 F91F      		adc r31,r25
 4440 15f2 E45B      		subi r30,lo8(-(76))
 4441 15f4 FF4F      		sbci r31,hi8(-(76))
 4442 15f6 4083      		st Z,r20
 4443 15f8 5183      		std Z+1,r21
 4444 15fa 6283      		std Z+2,r22
 4445 15fc 7383      		std Z+3,r23
 4446               	/* epilogue start */
 4447               	.LM443:
 4448 15fe 0895      		ret
 4449               	.LFE81:
 4451               	.global	Timebase_UpCounter_Get_Period_Flag
 4453               	Timebase_UpCounter_Get_Period_Flag:
 4454               	.LFB82:
 4455               	.LM444:
 4456               	.LVL306:
 4457               	/* prologue: function */
 4458               	/* frame size = 0 */
 4459               	.LM445:
 4460 1600 E091 0000 		lds r30,Timebase
 4461 1604 F091 0000 		lds r31,(Timebase)+1
 4462 1608 90E0      		ldi r25,lo8(0)
 4463               	.LVL307:
 4464 160a 29E1      		ldi r18,lo8(25)
 4465 160c 30E0      		ldi r19,hi8(25)
 4466 160e AC01      		movw r20,r24
 4467 1610 429F      		mul r20,r18
 4468 1612 C001      		movw r24,r0
 4469 1614 439F      		mul r20,r19
 4470 1616 900D      		add r25,r0
 4471 1618 529F      		mul r21,r18
 4472 161a 900D      		add r25,r0
 4473 161c 1124      		clr r1
 4474               	.LVL308:
 4475 161e E80F      		add r30,r24
 4476 1620 F91F      		adc r31,r25
 4477 1622 83AD      		ldd r24,Z+59
 4478               	.LM446:
 4479 1624 8170      		andi r24,lo8(1)
 4480               	/* epilogue start */
 4481 1626 0895      		ret
 4482               	.LFE82:
 4484               	.global	Timebase_UpCounter_Set_Period_Flag
 4486               	Timebase_UpCounter_Set_Period_Flag:
 4487               	.LFB83:
 4488               	.LM447:
 4489               	.LVL309:
 4490               	/* prologue: function */
 4491               	/* frame size = 0 */
 4492               	.LM448:
 4493 1628 E091 0000 		lds r30,Timebase
 4494 162c F091 0000 		lds r31,(Timebase)+1
 4495 1630 90E0      		ldi r25,lo8(0)
 4496               	.LVL310:
 4497 1632 29E1      		ldi r18,lo8(25)
 4498 1634 30E0      		ldi r19,hi8(25)
 4499 1636 AC01      		movw r20,r24
 4500 1638 429F      		mul r20,r18
 4501 163a C001      		movw r24,r0
 4502 163c 439F      		mul r20,r19
 4503 163e 900D      		add r25,r0
 4504 1640 529F      		mul r21,r18
 4505 1642 900D      		add r25,r0
 4506 1644 1124      		clr r1
 4507               	.LVL311:
 4508 1646 E80F      		add r30,r24
 4509 1648 F91F      		adc r31,r25
 4510 164a 83AD      		ldd r24,Z+59
 4511 164c 8160      		ori r24,lo8(1)
 4512 164e 83AF      		std Z+59,r24
 4513               	/* epilogue start */
 4514               	.LM449:
 4515 1650 0895      		ret
 4516               	.LFE83:
 4518               	.global	Timebase_UpCounter_Clear_Period_Flag
 4520               	Timebase_UpCounter_Clear_Period_Flag:
 4521               	.LFB84:
 4522               	.LM450:
 4523               	.LVL312:
 4524               	/* prologue: function */
 4525               	/* frame size = 0 */
 4526               	.LM451:
 4527 1652 E091 0000 		lds r30,Timebase
 4528 1656 F091 0000 		lds r31,(Timebase)+1
 4529 165a 90E0      		ldi r25,lo8(0)
 4530               	.LVL313:
 4531 165c 29E1      		ldi r18,lo8(25)
 4532 165e 30E0      		ldi r19,hi8(25)
 4533 1660 AC01      		movw r20,r24
 4534 1662 429F      		mul r20,r18
 4535 1664 C001      		movw r24,r0
 4536 1666 439F      		mul r20,r19
 4537 1668 900D      		add r25,r0
 4538 166a 529F      		mul r21,r18
 4539 166c 900D      		add r25,r0
 4540 166e 1124      		clr r1
 4541               	.LVL314:
 4542 1670 E80F      		add r30,r24
 4543 1672 F91F      		adc r31,r25
 4544 1674 83AD      		ldd r24,Z+59
 4545 1676 8E7F      		andi r24,lo8(-2)
 4546 1678 83AF      		std Z+59,r24
 4547               	/* epilogue start */
 4548               	.LM452:
 4549 167a 0895      		ret
 4550               	.LFE84:
 4552               	.global	Timebase_UpCounter_Get_ReloadValue
 4554               	Timebase_UpCounter_Get_ReloadValue:
 4555               	.LFB85:
 4556               	.LM453:
 4557               	.LVL315:
 4558               	/* prologue: function */
 4559               	/* frame size = 0 */
 4560               	.LM454:
 4561 167c E091 0000 		lds r30,Timebase
 4562 1680 F091 0000 		lds r31,(Timebase)+1
 4563 1684 90E0      		ldi r25,lo8(0)
 4564               	.LVL316:
 4565 1686 29E1      		ldi r18,lo8(25)
 4566 1688 30E0      		ldi r19,hi8(25)
 4567 168a AC01      		movw r20,r24
 4568 168c 429F      		mul r20,r18
 4569 168e C001      		movw r24,r0
 4570 1690 439F      		mul r20,r19
 4571 1692 900D      		add r25,r0
 4572 1694 529F      		mul r21,r18
 4573 1696 900D      		add r25,r0
 4574 1698 1124      		clr r1
 4575               	.LVL317:
 4576 169a E80F      		add r30,r24
 4577 169c F91F      		adc r31,r25
 4578 169e E05B      		subi r30,lo8(-(80))
 4579 16a0 FF4F      		sbci r31,hi8(-(80))
 4580 16a2 6081      		ld r22,Z
 4581 16a4 7181      		ldd r23,Z+1
 4582               	.LM455:
 4583 16a6 8281      		ldd r24,Z+2
 4584 16a8 9381      		ldd r25,Z+3
 4585               	.LVL318:
 4586               	/* epilogue start */
 4587 16aa 0895      		ret
 4588               	.LFE85:
 4590               	.global	Timebase_UpCounter_Set_ReloadValue
 4592               	Timebase_UpCounter_Set_ReloadValue:
 4593               	.LFB86:
 4594               	.LM456:
 4595               	.LVL319:
 4596               	/* prologue: function */
 4597               	/* frame size = 0 */
 4598               	.LM457:
 4599 16ac E091 0000 		lds r30,Timebase
 4600 16b0 F091 0000 		lds r31,(Timebase)+1
 4601 16b4 90E0      		ldi r25,lo8(0)
 4602               	.LVL320:
 4603 16b6 29E1      		ldi r18,lo8(25)
 4604 16b8 30E0      		ldi r19,hi8(25)
 4605 16ba DC01      		movw r26,r24
 4606 16bc A29F      		mul r26,r18
 4607 16be C001      		movw r24,r0
 4608 16c0 A39F      		mul r26,r19
 4609 16c2 900D      		add r25,r0
 4610 16c4 B29F      		mul r27,r18
 4611 16c6 900D      		add r25,r0
 4612 16c8 1124      		clr r1
 4613               	.LVL321:
 4614 16ca E80F      		add r30,r24
 4615 16cc F91F      		adc r31,r25
 4616 16ce E05B      		subi r30,lo8(-(80))
 4617 16d0 FF4F      		sbci r31,hi8(-(80))
 4618 16d2 4083      		st Z,r20
 4619 16d4 5183      		std Z+1,r21
 4620 16d6 6283      		std Z+2,r22
 4621 16d8 7383      		std Z+3,r23
 4622               	/* epilogue start */
 4623               	.LM458:
 4624 16da 0895      		ret
 4625               	.LFE86:
 4627               	.global	Timebase_UpCounter_Reset
 4629               	Timebase_UpCounter_Reset:
 4630               	.LFB87:
 4631               	.LM459:
 4632               	.LVL322:
 4633               	/* prologue: function */
 4634               	/* frame size = 0 */
 4635               	.LBB1018:
 4636               	.LBB1019:
 4637               	.LM460:
 4638 16dc E091 0000 		lds r30,Timebase
 4639 16e0 F091 0000 		lds r31,(Timebase)+1
 4640 16e4 90E0      		ldi r25,lo8(0)
 4641 16e6 29E1      		ldi r18,lo8(25)
 4642 16e8 30E0      		ldi r19,hi8(25)
 4643 16ea AC01      		movw r20,r24
 4644               	.LVL323:
 4645 16ec 429F      		mul r20,r18
 4646 16ee C001      		movw r24,r0
 4647 16f0 439F      		mul r20,r19
 4648 16f2 900D      		add r25,r0
 4649 16f4 529F      		mul r21,r18
 4650 16f6 900D      		add r25,r0
 4651 16f8 1124      		clr r1
 4652 16fa E80F      		add r30,r24
 4653 16fc F91F      		adc r31,r25
 4654 16fe 83AD      		ldd r24,Z+59
 4655               	.LBE1019:
 4656               	.LBE1018:
 4657               	.LBB1020:
 4658               	.LBB1021:
 4659               	.LM461:
 4660 1700 E85B      		subi r30,lo8(-(72))
 4661 1702 FF4F      		sbci r31,hi8(-(72))
 4662 1704 1082      		st Z,__zero_reg__
 4663 1706 1182      		std Z+1,__zero_reg__
 4664 1708 1282      		std Z+2,__zero_reg__
 4665 170a 1382      		std Z+3,__zero_reg__
 4666 170c E854      		subi r30,lo8(-(-72))
 4667 170e F040      		sbci r31,hi8(-(-72))
 4668               	.LBE1021:
 4669               	.LBE1020:
 4670               	.LBB1022:
 4671               	.LBB1023:
 4672               	.LM462:
 4673 1710 14AE      		std Z+60,__zero_reg__
 4674 1712 15AE      		std Z+61,__zero_reg__
 4675 1714 16AE      		std Z+62,__zero_reg__
 4676 1716 17AE      		std Z+63,__zero_reg__
 4677               	.LBE1023:
 4678               	.LBE1022:
 4679               	.LBB1024:
 4680               	.LBB1025:
 4681               	.LM463:
 4682 1718 E05C      		subi r30,lo8(-(64))
 4683 171a FF4F      		sbci r31,hi8(-(64))
 4684 171c 1192      		st Z+,__zero_reg__
 4685 171e 1192      		st Z+,__zero_reg__
 4686 1720 1192      		st Z+,__zero_reg__
 4687 1722 1192      		st Z+,__zero_reg__
 4688               	.LBE1025:
 4689               	.LBE1024:
 4690               	.LBB1026:
 4691               	.LBB1027:
 4692               	.LM464:
 4693 1724 1082      		st Z,__zero_reg__
 4694 1726 1182      		std Z+1,__zero_reg__
 4695 1728 1282      		std Z+2,__zero_reg__
 4696 172a 1382      		std Z+3,__zero_reg__
 4697               	.LBE1027:
 4698               	.LBE1026:
 4699               	.LBB1028:
 4700               	.LBB1029:
 4701               	.LM465:
 4702 172c 3896      		adiw r30,8
 4703 172e 1082      		st Z,__zero_reg__
 4704 1730 1182      		std Z+1,__zero_reg__
 4705 1732 1282      		std Z+2,__zero_reg__
 4706 1734 1382      		std Z+3,__zero_reg__
 4707 1736 EC54      		subi r30,lo8(-(-76))
 4708 1738 F040      		sbci r31,hi8(-(-76))
 4709               	.LBE1029:
 4710               	.LBE1028:
 4711               	.LBB1030:
 4712               	.LBB1031:
 4713               	.LM466:
 4714 173a 807E      		andi r24,lo8(-32)
 4715 173c 83AF      		std Z+59,r24
 4716               	.LBE1031:
 4717               	.LBE1030:
 4718               	.LBB1032:
 4719               	.LBB1033:
 4720               	.LM467:
 4721 173e E05B      		subi r30,lo8(-(80))
 4722 1740 FF4F      		sbci r31,hi8(-(80))
 4723 1742 1082      		st Z,__zero_reg__
 4724 1744 1182      		std Z+1,__zero_reg__
 4725 1746 1282      		std Z+2,__zero_reg__
 4726 1748 1382      		std Z+3,__zero_reg__
 4727               	/* epilogue start */
 4728               	.LBE1033:
 4729               	.LBE1032:
 4730               	.LM468:
 4731 174a 0895      		ret
 4732               	.LFE87:
 4734               	.global	Timebase_UpCounter_Clear_All_Flags
 4736               	Timebase_UpCounter_Clear_All_Flags:
 4737               	.LFB88:
 4738               	.LM469:
 4739               	.LVL324:
 4740               	/* prologue: function */
 4741               	/* frame size = 0 */
 4742               	.LM470:
 4743 174c 0E94 0000 		call Timebase_UpCounter_Reset
 4744               	.LVL325:
 4745               	/* epilogue start */
 4746               	.LM471:
 4747 1750 0895      		ret
 4748               	.LFE88:
 4750               	.global	Timebase_UpCounter_Start
 4752               	Timebase_UpCounter_Start:
 4753               	.LFB89:
 4754               	.LM472:
 4755               	.LVL326:
 4756               	/* prologue: function */
 4757               	/* frame size = 0 */
 4758               	.LBB1034:
 4759               	.LBB1035:
 4760               	.LM473:
 4761 1752 E091 0000 		lds r30,Timebase
 4762 1756 F091 0000 		lds r31,(Timebase)+1
 4763 175a 90E0      		ldi r25,lo8(0)
 4764               	.LBE1035:
 4765               	.LBE1034:
 4766               	.LM474:
 4767 175c 29E1      		ldi r18,lo8(25)
 4768 175e 30E0      		ldi r19,hi8(25)
 4769 1760 AC01      		movw r20,r24
 4770               	.LVL327:
 4771 1762 429F      		mul r20,r18
 4772 1764 C001      		movw r24,r0
 4773 1766 439F      		mul r20,r19
 4774 1768 900D      		add r25,r0
 4775 176a 529F      		mul r21,r18
 4776 176c 900D      		add r25,r0
 4777 176e 1124      		clr r1
 4778 1770 E80F      		add r30,r24
 4779 1772 F91F      		adc r31,r25
 4780 1774 93AD      		ldd r25,Z+59
 4781 1776 892F      		mov r24,r25
 4782 1778 8695      		lsr r24
 4783 177a 8F70      		andi r24,lo8(15)
 4784 177c 8130      		cpi r24,lo8(1)
 4785 177e 01F0      		breq .L233
 4786               	.LBB1036:
 4787               	.LBB1037:
 4788               	.LM475:
 4789 1780 917E      		andi r25,lo8(-31)
 4790 1782 9260      		ori r25,lo8(2)
 4791 1784 93AF      		std Z+59,r25
 4792               	.L233:
 4793 1786 0895      		ret
 4794               	.LBE1037:
 4795               	.LBE1036:
 4796               	.LFE89:
 4798               	.global	Timebase_UpCounter_Stop
 4800               	Timebase_UpCounter_Stop:
 4801               	.LFB90:
 4802               	.LM476:
 4803               	.LVL328:
 4804               	/* prologue: function */
 4805               	/* frame size = 0 */
 4806               	.LBB1038:
 4807               	.LBB1039:
 4808               	.LM477:
 4809 1788 E091 0000 		lds r30,Timebase
 4810 178c F091 0000 		lds r31,(Timebase)+1
 4811 1790 90E0      		ldi r25,lo8(0)
 4812               	.LBE1039:
 4813               	.LBE1038:
 4814               	.LM478:
 4815 1792 29E1      		ldi r18,lo8(25)
 4816 1794 30E0      		ldi r19,hi8(25)
 4817 1796 AC01      		movw r20,r24
 4818               	.LVL329:
 4819 1798 429F      		mul r20,r18
 4820 179a C001      		movw r24,r0
 4821 179c 439F      		mul r20,r19
 4822 179e 900D      		add r25,r0
 4823 17a0 529F      		mul r21,r18
 4824 17a2 900D      		add r25,r0
 4825 17a4 1124      		clr r1
 4826 17a6 E80F      		add r30,r24
 4827 17a8 F91F      		adc r31,r25
 4828 17aa 93AD      		ldd r25,Z+59
 4829 17ac 892F      		mov r24,r25
 4830 17ae 8695      		lsr r24
 4831 17b0 8F70      		andi r24,lo8(15)
 4832 17b2 8230      		cpi r24,lo8(2)
 4833 17b4 01F0      		breq .L236
 4834               	.LBB1040:
 4835               	.LBB1041:
 4836               	.LM479:
 4837 17b6 917E      		andi r25,lo8(-31)
 4838 17b8 9460      		ori r25,lo8(4)
 4839 17ba 93AF      		std Z+59,r25
 4840               	.L236:
 4841 17bc 0895      		ret
 4842               	.LBE1041:
 4843               	.LBE1040:
 4844               	.LFE90:
 4846               	.global	Timebase_UpCounter_Set_Securely
 4848               	Timebase_UpCounter_Set_Securely:
 4849               	.LFB91:
 4850               	.LM480:
 4851               	.LVL330:
 4852               	/* prologue: function */
 4853               	/* frame size = 0 */
 4854               	.LBB1042:
 4855               	.LBB1043:
 4856               	.LM481:
 4857 17be A091 0000 		lds r26,Timebase
 4858 17c2 B091 0000 		lds r27,(Timebase)+1
 4859 17c6 90E0      		ldi r25,lo8(0)
 4860               	.LBE1043:
 4861               	.LBE1042:
 4862               	.LM482:
 4863 17c8 29E1      		ldi r18,lo8(25)
 4864 17ca 30E0      		ldi r19,hi8(25)
 4865 17cc 829F      		mul r24,r18
 4866 17ce F001      		movw r30,r0
 4867 17d0 839F      		mul r24,r19
 4868 17d2 F00D      		add r31,r0
 4869 17d4 929F      		mul r25,r18
 4870 17d6 F00D      		add r31,r0
 4871 17d8 1124      		clr r1
 4872               	.LVL331:
 4873 17da EA0F      		add r30,r26
 4874 17dc FB1F      		adc r31,r27
 4875 17de 83AD      		ldd r24,Z+59
 4876 17e0 8695      		lsr r24
 4877 17e2 8F70      		andi r24,lo8(15)
 4878 17e4 01F4      		brne .L239
 4879               	.LBB1044:
 4880               	.LBB1045:
 4881               	.LM483:
 4882 17e6 E85B      		subi r30,lo8(-(72))
 4883 17e8 FF4F      		sbci r31,hi8(-(72))
 4884 17ea 1082      		st Z,__zero_reg__
 4885 17ec 1182      		std Z+1,__zero_reg__
 4886 17ee 1282      		std Z+2,__zero_reg__
 4887 17f0 1382      		std Z+3,__zero_reg__
 4888               	.LBE1045:
 4889               	.LBE1044:
 4890               	.LBB1046:
 4891               	.LBB1047:
 4892               	.LM484:
 4893 17f2 1292      		st -Z,__zero_reg__
 4894 17f4 1292      		st -Z,__zero_reg__
 4895 17f6 1292      		st -Z,__zero_reg__
 4896 17f8 1292      		st -Z,__zero_reg__
 4897               	.LBE1047:
 4898               	.LBE1046:
 4899               	.LBB1048:
 4900               	.LBB1049:
 4901               	.LM485:
 4902 17fa 7293      		st -Z,r23
 4903 17fc 6293      		st -Z,r22
 4904 17fe 5293      		st -Z,r21
 4905 1800 4293      		st -Z,r20
 4906 1802 E054      		subi r30,lo8(-(-64))
 4907 1804 F040      		sbci r31,hi8(-(-64))
 4908               	.LBE1049:
 4909               	.LBE1048:
 4910               	.LBB1050:
 4911               	.LBB1051:
 4912               	.LM486:
 4913 1806 1C96      		adiw r26,12
 4914 1808 8D91      		ld r24,X+
 4915 180a 9D91      		ld r25,X+
 4916 180c 0D90      		ld __tmp_reg__,X+
 4917 180e BC91      		ld r27,X
 4918 1810 A02D      		mov r26,__tmp_reg__
 4919               	.LVL332:
 4920               	.LBE1051:
 4921               	.LBE1050:
 4922               	.LBB1052:
 4923               	.LBB1053:
 4924               	.LM487:
 4925 1812 840F      		add r24,r20
 4926 1814 951F      		adc r25,r21
 4927 1816 A61F      		adc r26,r22
 4928 1818 B71F      		adc r27,r23
 4929 181a 84AF      		std Z+60,r24
 4930 181c 95AF      		std Z+61,r25
 4931 181e A6AF      		std Z+62,r26
 4932 1820 B7AF      		std Z+63,r27
 4933               	.LBE1053:
 4934               	.LBE1052:
 4935               	.LBB1054:
 4936               	.LBB1055:
 4937               	.LM488:
 4938 1822 E05B      		subi r30,lo8(-(80))
 4939 1824 FF4F      		sbci r31,hi8(-(80))
 4940 1826 4083      		st Z,r20
 4941 1828 5183      		std Z+1,r21
 4942 182a 6283      		std Z+2,r22
 4943 182c 7383      		std Z+3,r23
 4944 182e E055      		subi r30,lo8(-(-80))
 4945 1830 F040      		sbci r31,hi8(-(-80))
 4946               	.LBE1055:
 4947               	.LBE1054:
 4948               	.LBB1056:
 4949               	.LBB1057:
 4950               	.LM489:
 4951 1832 93AD      		ldd r25,Z+59
 4952 1834 892F      		mov r24,r25
 4953               	.LVL333:
 4954 1836 8695      		lsr r24
 4955 1838 8F70      		andi r24,lo8(15)
 4956 183a 8130      		cpi r24,lo8(1)
 4957 183c 01F0      		breq .L239
 4958               	.LBB1058:
 4959               	.LBB1059:
 4960               	.LM490:
 4961 183e 917E      		andi r25,lo8(-31)
 4962 1840 9260      		ori r25,lo8(2)
 4963 1842 93AF      		std Z+59,r25
 4964               	.L239:
 4965 1844 0895      		ret
 4966               	.LBE1059:
 4967               	.LBE1058:
 4968               	.LBE1057:
 4969               	.LBE1056:
 4970               	.LFE91:
 4972               	.global	Timebase_UpCounter_Set_Forcefully
 4974               	Timebase_UpCounter_Set_Forcefully:
 4975               	.LFB92:
 4976               	.LM491:
 4977               	.LVL334:
 4978 1846 CF92      		push r12
 4979 1848 DF92      		push r13
 4980 184a EF92      		push r14
 4981 184c FF92      		push r15
 4982 184e 0F93      		push r16
 4983 1850 1F93      		push r17
 4984               	/* prologue: function */
 4985               	/* frame size = 0 */
 4986 1852 082F      		mov r16,r24
 4987 1854 6A01      		movw r12,r20
 4988 1856 7B01      		movw r14,r22
 4989               	.LM492:
 4990 1858 0E94 0000 		call Timebase_UpCounter_Reset
 4991               	.LVL335:
 4992               	.LM493:
 4993 185c 802F      		mov r24,r16
 4994 185e B701      		movw r22,r14
 4995 1860 A601      		movw r20,r12
 4996 1862 0E94 0000 		call Timebase_UpCounter_Set_Securely
 4997               	.LBB1060:
 4998               	.LBB1061:
 4999               	.LM494:
 5000 1866 E091 0000 		lds r30,Timebase
 5001 186a F091 0000 		lds r31,(Timebase)+1
 5002 186e 10E0      		ldi r17,lo8(0)
 5003               	.LVL336:
 5004 1870 89E1      		ldi r24,lo8(25)
 5005 1872 90E0      		ldi r25,hi8(25)
 5006 1874 9C01      		movw r18,r24
 5007 1876 029F      		mul r16,r18
 5008 1878 C001      		movw r24,r0
 5009 187a 039F      		mul r16,r19
 5010 187c 900D      		add r25,r0
 5011 187e 129F      		mul r17,r18
 5012 1880 900D      		add r25,r0
 5013 1882 1124      		clr r1
 5014 1884 E80F      		add r30,r24
 5015 1886 F91F      		adc r31,r25
 5016 1888 E05B      		subi r30,lo8(-(80))
 5017 188a FF4F      		sbci r31,hi8(-(80))
 5018 188c C082      		st Z,r12
 5019 188e D182      		std Z+1,r13
 5020 1890 E282      		std Z+2,r14
 5021 1892 F382      		std Z+3,r15
 5022               	/* epilogue start */
 5023               	.LBE1061:
 5024               	.LBE1060:
 5025               	.LM495:
 5026 1894 1F91      		pop r17
 5027               	.LVL337:
 5028 1896 0F91      		pop r16
 5029               	.LVL338:
 5030 1898 FF90      		pop r15
 5031 189a EF90      		pop r14
 5032 189c DF90      		pop r13
 5033 189e CF90      		pop r12
 5034               	.LVL339:
 5035 18a0 0895      		ret
 5036               	.LFE92:
 5038               	.global	Timebase_UpCounter_Update
 5040               	Timebase_UpCounter_Update:
 5041               	.LFB93:
 5042               	.LM496:
 5043               	.LVL340:
 5044 18a2 0F93      		push r16
 5045 18a4 1F93      		push r17
 5046 18a6 CF93      		push r28
 5047 18a8 DF93      		push r29
 5048               	/* prologue: function */
 5049               	/* frame size = 0 */
 5050               	.LBB1062:
 5051               	.LBB1063:
 5052               	.LM497:
 5053 18aa 6091 0000 		lds r22,Timebase
 5054 18ae 7091 0000 		lds r23,(Timebase)+1
 5055 18b2 082F      		mov r16,r24
 5056 18b4 10E0      		ldi r17,lo8(0)
 5057 18b6 89E1      		ldi r24,lo8(25)
 5058 18b8 90E0      		ldi r25,hi8(25)
 5059               	.LVL341:
 5060 18ba 089F      		mul r16,r24
 5061 18bc F001      		movw r30,r0
 5062 18be 099F      		mul r16,r25
 5063 18c0 F00D      		add r31,r0
 5064 18c2 189F      		mul r17,r24
 5065 18c4 F00D      		add r31,r0
 5066 18c6 1124      		clr r1
 5067 18c8 E60F      		add r30,r22
 5068 18ca F71F      		adc r31,r23
 5069 18cc 83AD      		ldd r24,Z+59
 5070 18ce 8695      		lsr r24
 5071 18d0 8F70      		andi r24,lo8(15)
 5072               	.LBE1063:
 5073               	.LBE1062:
 5074               	.LM498:
 5075 18d2 8130      		cpi r24,lo8(1)
 5076 18d4 01F0      		breq .+2
 5077 18d6 00C0      		rjmp .L243
 5078               	.LBB1064:
 5079               	.LBB1065:
 5080               	.LM499:
 5081 18d8 EB01      		movw r28,r22
 5082 18da 8C85      		ldd r24,Y+12
 5083 18dc 9D85      		ldd r25,Y+13
 5084 18de AE85      		ldd r26,Y+14
 5085 18e0 BF85      		ldd r27,Y+15
 5086               	.LVL342:
 5087               	.LBE1065:
 5088               	.LBE1064:
 5089               	.LM500:
 5090 18e2 24AD      		ldd r18,Z+60
 5091 18e4 35AD      		ldd r19,Z+61
 5092 18e6 46AD      		ldd r20,Z+62
 5093 18e8 57AD      		ldd r21,Z+63
 5094               	.LVL343:
 5095 18ea 281B      		sub r18,r24
 5096 18ec 390B      		sbc r19,r25
 5097 18ee 4A0B      		sbc r20,r26
 5098 18f0 5B0B      		sbc r21,r27
 5099 18f2 57FF      		sbrs r21,7
 5100 18f4 00C0      		rjmp .L244
 5101 18f6 20E0      		ldi r18,lo8(0)
 5102 18f8 30E0      		ldi r19,hi8(0)
 5103 18fa 40E0      		ldi r20,hlo8(0)
 5104 18fc 50E0      		ldi r21,hhi8(0)
 5105               	.L244:
 5106               	.LBB1066:
 5107               	.LBB1067:
 5108               	.LM501:
 5109 18fe 89E1      		ldi r24,lo8(25)
 5110 1900 90E0      		ldi r25,hi8(25)
 5111               	.LVL344:
 5112 1902 089F      		mul r16,r24
 5113 1904 F001      		movw r30,r0
 5114 1906 099F      		mul r16,r25
 5115 1908 F00D      		add r31,r0
 5116 190a 189F      		mul r17,r24
 5117 190c F00D      		add r31,r0
 5118 190e 1124      		clr r1
 5119 1910 E60F      		add r30,r22
 5120 1912 F71F      		adc r31,r23
 5121 1914 EC5B      		subi r30,lo8(-(68))
 5122 1916 FF4F      		sbci r31,hi8(-(68))
 5123 1918 2083      		st Z,r18
 5124 191a 3183      		std Z+1,r19
 5125 191c 4283      		std Z+2,r20
 5126 191e 5383      		std Z+3,r21
 5127               	.LBE1067:
 5128               	.LBE1066:
 5129               	.LM502:
 5130 1920 B291      		ld r27,-Z
 5131 1922 A291      		ld r26,-Z
 5132 1924 9291      		ld r25,-Z
 5133 1926 8291      		ld r24,-Z
 5134               	.LVL345:
 5135               	.LBB1068:
 5136               	.LBB1069:
 5137               	.LM503:
 5138 1928 3896      		adiw r30,8
 5139 192a 821B      		sub r24,r18
 5140 192c 930B      		sbc r25,r19
 5141 192e A40B      		sbc r26,r20
 5142 1930 B50B      		sbc r27,r21
 5143 1932 B7FF      		sbrs r27,7
 5144 1934 00C0      		rjmp .L245
 5145 1936 80E0      		ldi r24,lo8(0)
 5146 1938 90E0      		ldi r25,hi8(0)
 5147 193a A0E0      		ldi r26,hlo8(0)
 5148 193c B0E0      		ldi r27,hhi8(0)
 5149               	.L245:
 5150 193e 8083      		st Z,r24
 5151 1940 9183      		std Z+1,r25
 5152 1942 A283      		std Z+2,r26
 5153 1944 B383      		std Z+3,r27
 5154               	.LBE1069:
 5155               	.LBE1068:
 5156               	.LM504:
 5157 1946 89E1      		ldi r24,lo8(25)
 5158 1948 90E0      		ldi r25,hi8(25)
 5159               	.LVL346:
 5160 194a 089F      		mul r16,r24
 5161 194c E001      		movw r28,r0
 5162 194e 099F      		mul r16,r25
 5163 1950 D00D      		add r29,r0
 5164 1952 189F      		mul r17,r24
 5165 1954 D00D      		add r29,r0
 5166 1956 1124      		clr r1
 5167 1958 C60F      		add r28,r22
 5168 195a D71F      		adc r29,r23
 5169 195c FE01      		movw r30,r28
 5170 195e EC5B      		subi r30,lo8(-(68))
 5171 1960 FF4F      		sbci r31,hi8(-(68))
 5172 1962 8081      		ld r24,Z
 5173 1964 9181      		ldd r25,Z+1
 5174 1966 A281      		ldd r26,Z+2
 5175 1968 B381      		ldd r27,Z+3
 5176 196a 1816      		cp __zero_reg__,r24
 5177 196c 1906      		cpc __zero_reg__,r25
 5178 196e 1A06      		cpc __zero_reg__,r26
 5179 1970 1B06      		cpc __zero_reg__,r27
 5180 1972 04F4      		brge .+2
 5181 1974 00C0      		rjmp .L249
 5182               	.LBB1070:
 5183               	.LBB1071:
 5184               	.LM505:
 5185 1976 1CAE      		std Y+60,__zero_reg__
 5186 1978 1DAE      		std Y+61,__zero_reg__
 5187 197a 1EAE      		std Y+62,__zero_reg__
 5188 197c 1FAE      		std Y+63,__zero_reg__
 5189               	.LBE1071:
 5190               	.LBE1070:
 5191               	.LBB1072:
 5192               	.LBB1073:
 5193               	.LM506:
 5194 197e 1082      		st Z,__zero_reg__
 5195 1980 1182      		std Z+1,__zero_reg__
 5196 1982 1282      		std Z+2,__zero_reg__
 5197 1984 1382      		std Z+3,__zero_reg__
 5198               	.LBE1073:
 5199               	.LBE1072:
 5200               	.LBB1074:
 5201               	.LBB1075:
 5202               	.LM507:
 5203 1986 FE01      		movw r30,r28
 5204 1988 E05C      		subi r30,lo8(-(64))
 5205 198a FF4F      		sbci r31,hi8(-(64))
 5206               	.LBE1075:
 5207               	.LBE1074:
 5208               	.LBB1076:
 5209               	.LBB1077:
 5210               	.LM508:
 5211 198c C85B      		subi r28,lo8(-(72))
 5212 198e DF4F      		sbci r29,hi8(-(72))
 5213 1990 2081      		ld r18,Z
 5214               	.LVL347:
 5215 1992 3181      		ldd r19,Z+1
 5216               	.LVL348:
 5217 1994 4281      		ldd r20,Z+2
 5218               	.LVL349:
 5219 1996 5381      		ldd r21,Z+3
 5220               	.LVL350:
 5221 1998 C901      		movw r24,r18
 5222               	.LVL351:
 5223 199a DA01      		movw r26,r20
 5224               	.LVL352:
 5225 199c B7FF      		sbrs r27,7
 5226 199e 00C0      		rjmp .L247
 5227               	.LVL353:
 5228 19a0 80E0      		ldi r24,lo8(0)
 5229 19a2 90E0      		ldi r25,hi8(0)
 5230 19a4 A0E0      		ldi r26,hlo8(0)
 5231 19a6 B0E0      		ldi r27,hhi8(0)
 5232               	.L247:
 5233 19a8 8883      		st Y,r24
 5234 19aa 9983      		std Y+1,r25
 5235 19ac AA83      		std Y+2,r26
 5236 19ae BB83      		std Y+3,r27
 5237               	.LBE1077:
 5238               	.LBE1076:
 5239               	.LBB1078:
 5240               	.LBB1079:
 5241               	.LM509:
 5242 19b0 89E1      		ldi r24,lo8(25)
 5243 19b2 90E0      		ldi r25,hi8(25)
 5244               	.LVL354:
 5245 19b4 089F      		mul r16,r24
 5246 19b6 F001      		movw r30,r0
 5247 19b8 099F      		mul r16,r25
 5248 19ba F00D      		add r31,r0
 5249 19bc 189F      		mul r17,r24
 5250 19be F00D      		add r31,r0
 5251 19c0 1124      		clr r1
 5252 19c2 E60F      		add r30,r22
 5253 19c4 F71F      		adc r31,r23
 5254 19c6 83AD      		ldd r24,Z+59
 5255 19c8 817E      		andi r24,lo8(-31)
 5256 19ca 8860      		ori r24,lo8(8)
 5257 19cc 83AF      		std Z+59,r24
 5258 19ce 00C0      		rjmp .L249
 5259               	.LVL355:
 5260               	.L243:
 5261               	.LBE1079:
 5262               	.LBE1078:
 5263               	.LM510:
 5264 19d0 8230      		cpi r24,lo8(2)
 5265 19d2 01F4      		brne .L249
 5266               	.LBB1080:
 5267               	.LBB1081:
 5268               	.LM511:
 5269 19d4 EB01      		movw r28,r22
 5270 19d6 8C85      		ldd r24,Y+12
 5271 19d8 9D85      		ldd r25,Y+13
 5272 19da AE85      		ldd r26,Y+14
 5273 19dc BF85      		ldd r27,Y+15
 5274               	.LVL356:
 5275               	.LBE1081:
 5276               	.LBE1080:
 5277               	.LBB1082:
 5278               	.LBB1083:
 5279               	.LM512:
 5280 19de EC5B      		subi r30,lo8(-(68))
 5281 19e0 FF4F      		sbci r31,hi8(-(68))
 5282 19e2 2081      		ld r18,Z
 5283 19e4 3181      		ldd r19,Z+1
 5284 19e6 4281      		ldd r20,Z+2
 5285 19e8 5381      		ldd r21,Z+3
 5286 19ea E454      		subi r30,lo8(-(-68))
 5287 19ec F040      		sbci r31,hi8(-(-68))
 5288 19ee 820F      		add r24,r18
 5289 19f0 931F      		adc r25,r19
 5290 19f2 A41F      		adc r26,r20
 5291 19f4 B51F      		adc r27,r21
 5292 19f6 84AF      		std Z+60,r24
 5293 19f8 95AF      		std Z+61,r25
 5294 19fa A6AF      		std Z+62,r26
 5295 19fc B7AF      		std Z+63,r27
 5296               	.LBE1083:
 5297               	.LBE1082:
 5298               	.LM513:
 5299 19fe E05C      		subi r30,lo8(-(64))
 5300 1a00 FF4F      		sbci r31,hi8(-(64))
 5301 1a02 8081      		ld r24,Z
 5302 1a04 9181      		ldd r25,Z+1
 5303 1a06 A281      		ldd r26,Z+2
 5304 1a08 B381      		ldd r27,Z+3
 5305               	.LVL357:
 5306               	.LBB1084:
 5307               	.LBB1085:
 5308               	.LM514:
 5309 1a0a 3896      		adiw r30,8
 5310 1a0c 821B      		sub r24,r18
 5311 1a0e 930B      		sbc r25,r19
 5312 1a10 A40B      		sbc r26,r20
 5313 1a12 B50B      		sbc r27,r21
 5314 1a14 B7FF      		sbrs r27,7
 5315 1a16 00C0      		rjmp .L248
 5316 1a18 80E0      		ldi r24,lo8(0)
 5317 1a1a 90E0      		ldi r25,hi8(0)
 5318 1a1c A0E0      		ldi r26,hlo8(0)
 5319 1a1e B0E0      		ldi r27,hhi8(0)
 5320               	.L248:
 5321 1a20 8083      		st Z,r24
 5322 1a22 9183      		std Z+1,r25
 5323 1a24 A283      		std Z+2,r26
 5324 1a26 B383      		std Z+3,r27
 5325               	.LVL358:
 5326               	.L249:
 5327               	/* epilogue start */
 5328               	.LBE1085:
 5329               	.LBE1084:
 5330               	.LM515:
 5331 1a28 DF91      		pop r29
 5332 1a2a CF91      		pop r28
 5333 1a2c 1F91      		pop r17
 5334 1a2e 0F91      		pop r16
 5335 1a30 0895      		ret
 5336               	.LFE93:
 5338               	.global	Timebase_UpCounter_Expired
 5340               	Timebase_UpCounter_Expired:
 5341               	.LFB94:
 5342               	.LM516:
 5343               	.LVL359:
 5344               	/* prologue: function */
 5345               	/* frame size = 0 */
 5346               	.LM517:
 5347 1a32 40E0      		ldi r20,lo8(0)
 5348 1a34 E091 0000 		lds r30,Timebase
 5349 1a38 F091 0000 		lds r31,(Timebase)+1
 5350 1a3c 90E0      		ldi r25,lo8(0)
 5351               	.LVL360:
 5352 1a3e 29E1      		ldi r18,lo8(25)
 5353 1a40 30E0      		ldi r19,hi8(25)
 5354 1a42 BC01      		movw r22,r24
 5355 1a44 629F      		mul r22,r18
 5356 1a46 C001      		movw r24,r0
 5357 1a48 639F      		mul r22,r19
 5358 1a4a 900D      		add r25,r0
 5359 1a4c 729F      		mul r23,r18
 5360 1a4e 900D      		add r25,r0
 5361 1a50 1124      		clr r1
 5362               	.LVL361:
 5363 1a52 E80F      		add r30,r24
 5364 1a54 F91F      		adc r31,r25
 5365 1a56 83AD      		ldd r24,Z+59
 5366 1a58 8695      		lsr r24
 5367 1a5a 8F70      		andi r24,lo8(15)
 5368 1a5c 8430      		cpi r24,lo8(4)
 5369 1a5e 01F4      		brne .L251
 5370 1a60 41E0      		ldi r20,lo8(1)
 5371               	.L251:
 5372               	.LM518:
 5373 1a62 842F      		mov r24,r20
 5374               	/* epilogue start */
 5375 1a64 0895      		ret
 5376               	.LFE94:
 5378               	.global	Timebase_UpCounter_Expired_Event
 5380               	Timebase_UpCounter_Expired_Event:
 5381               	.LFB95:
 5382               	.LM519:
 5383               	.LVL362:
 5384               	/* prologue: function */
 5385               	/* frame size = 0 */
 5386 1a66 482F      		mov r20,r24
 5387               	.LM520:
 5388 1a68 E091 0000 		lds r30,Timebase
 5389 1a6c F091 0000 		lds r31,(Timebase)+1
 5390 1a70 282F      		mov r18,r24
 5391 1a72 30E0      		ldi r19,lo8(0)
 5392               	.LVL363:
 5393 1a74 89E1      		ldi r24,lo8(25)
 5394 1a76 90E0      		ldi r25,hi8(25)
 5395               	.LVL364:
 5396 1a78 BC01      		movw r22,r24
 5397 1a7a 269F      		mul r18,r22
 5398 1a7c C001      		movw r24,r0
 5399 1a7e 279F      		mul r18,r23
 5400 1a80 900D      		add r25,r0
 5401 1a82 369F      		mul r19,r22
 5402 1a84 900D      		add r25,r0
 5403 1a86 1124      		clr r1
 5404 1a88 E80F      		add r30,r24
 5405 1a8a F91F      		adc r31,r25
 5406 1a8c 83AD      		ldd r24,Z+59
 5407 1a8e 8695      		lsr r24
 5408 1a90 8F70      		andi r24,lo8(15)
 5409 1a92 8430      		cpi r24,lo8(4)
 5410 1a94 01F0      		breq .L254
 5411 1a96 80E0      		ldi r24,lo8(0)
 5412 1a98 0895      		ret
 5413               	.L254:
 5414               	.LBB1086:
 5415               	.LBB1087:
 5416               	.LM521:
 5417 1a9a 842F      		mov r24,r20
 5418 1a9c 0E94 0000 		call Timebase_UpCounter_Reset
 5419               	.LVL365:
 5420 1aa0 81E0      		ldi r24,lo8(1)
 5421               	.LBE1087:
 5422               	.LBE1086:
 5423               	.LM522:
 5424 1aa2 0895      		ret
 5425               	.LFE95:
 5427               	.global	Timebase_UpCounter_Oneshot_Expired_Event
 5429               	Timebase_UpCounter_Oneshot_Expired_Event:
 5430               	.LFB96:
 5431               	.LM523:
 5432               	.LVL366:
 5433               	/* prologue: function */
 5434               	/* frame size = 0 */
 5435               	.LM524:
 5436 1aa4 0E94 0000 		call Timebase_UpCounter_Expired_Event
 5437               	.LVL367:
 5438               	/* epilogue start */
 5439               	.LM525:
 5440 1aa8 0895      		ret
 5441               	.LFE96:
 5443               	.global	Timebase_UpCounter_Continuous_Expired_Event
 5445               	Timebase_UpCounter_Continuous_Expired_Event:
 5446               	.LFB97:
 5447               	.LM526:
 5448               	.LVL368:
 5449 1aaa DF92      		push r13
 5450 1aac EF92      		push r14
 5451 1aae FF92      		push r15
 5452 1ab0 0F93      		push r16
 5453 1ab2 1F93      		push r17
 5454               	/* prologue: function */
 5455               	/* frame size = 0 */
 5456 1ab4 D82E      		mov r13,r24
 5457               	.LBB1088:
 5458               	.LBB1089:
 5459               	.LM527:
 5460 1ab6 E091 0000 		lds r30,Timebase
 5461 1aba F091 0000 		lds r31,(Timebase)+1
 5462 1abe 282F      		mov r18,r24
 5463 1ac0 30E0      		ldi r19,lo8(0)
 5464               	.LBE1089:
 5465               	.LBE1088:
 5466               	.LM528:
 5467 1ac2 89E1      		ldi r24,lo8(25)
 5468 1ac4 90E0      		ldi r25,hi8(25)
 5469               	.LVL369:
 5470 1ac6 AC01      		movw r20,r24
 5471 1ac8 249F      		mul r18,r20
 5472 1aca C001      		movw r24,r0
 5473 1acc 259F      		mul r18,r21
 5474 1ace 900D      		add r25,r0
 5475 1ad0 349F      		mul r19,r20
 5476 1ad2 900D      		add r25,r0
 5477 1ad4 1124      		clr r1
 5478 1ad6 E80F      		add r30,r24
 5479 1ad8 F91F      		adc r31,r25
 5480 1ada 83AD      		ldd r24,Z+59
 5481 1adc 8695      		lsr r24
 5482 1ade 8F70      		andi r24,lo8(15)
 5483 1ae0 8430      		cpi r24,lo8(4)
 5484 1ae2 01F0      		breq .L260
 5485 1ae4 80E0      		ldi r24,lo8(0)
 5486 1ae6 00C0      		rjmp .L261
 5487               	.L260:
 5488               	.LBB1090:
 5489               	.LBB1091:
 5490               	.LBB1092:
 5491               	.LM529:
 5492 1ae8 E05B      		subi r30,lo8(-(80))
 5493 1aea FF4F      		sbci r31,hi8(-(80))
 5494 1aec E080      		ld r14,Z
 5495 1aee F180      		ldd r15,Z+1
 5496 1af0 0281      		ldd r16,Z+2
 5497 1af2 1381      		ldd r17,Z+3
 5498               	.LVL370:
 5499               	.LBE1092:
 5500               	.LBE1091:
 5501               	.LBB1093:
 5502               	.LBB1094:
 5503               	.LM530:
 5504 1af4 8D2D      		mov r24,r13
 5505 1af6 0E94 0000 		call Timebase_UpCounter_Reset
 5506               	.LBE1094:
 5507               	.LBE1093:
 5508               	.LM531:
 5509 1afa 8D2D      		mov r24,r13
 5510 1afc B801      		movw r22,r16
 5511 1afe A701      		movw r20,r14
 5512 1b00 0E94 0000 		call Timebase_UpCounter_Set_Securely
 5513 1b04 81E0      		ldi r24,lo8(1)
 5514               	.L261:
 5515               	/* epilogue start */
 5516               	.LBE1090:
 5517               	.LM532:
 5518 1b06 1F91      		pop r17
 5519 1b08 0F91      		pop r16
 5520 1b0a FF90      		pop r15
 5521 1b0c EF90      		pop r14
 5522               	.LVL371:
 5523 1b0e DF90      		pop r13
 5524               	.LVL372:
 5525 1b10 0895      		ret
 5526               	.LFE97:
 5528               	.global	Timebase_UpCounter_Set_Period_Value_Securely
 5530               	Timebase_UpCounter_Set_Period_Value_Securely:
 5531               	.LFB98:
 5532               	.LM533:
 5533               	.LVL373:
 5534 1b12 CF93      		push r28
 5535 1b14 DF93      		push r29
 5536               	/* prologue: function */
 5537               	/* frame size = 0 */
 5538               	.LBB1095:
 5539               	.LBB1096:
 5540               	.LM534:
 5541 1b16 C091 0000 		lds r28,Timebase
 5542 1b1a D091 0000 		lds r29,(Timebase)+1
 5543 1b1e 90E0      		ldi r25,lo8(0)
 5544               	.LBE1096:
 5545               	.LBE1095:
 5546               	.LM535:
 5547 1b20 29E1      		ldi r18,lo8(25)
 5548 1b22 30E0      		ldi r19,hi8(25)
 5549 1b24 FC01      		movw r30,r24
 5550               	.LVL374:
 5551 1b26 E29F      		mul r30,r18
 5552 1b28 C001      		movw r24,r0
 5553 1b2a E39F      		mul r30,r19
 5554 1b2c 900D      		add r25,r0
 5555 1b2e F29F      		mul r31,r18
 5556 1b30 900D      		add r25,r0
 5557 1b32 1124      		clr r1
 5558 1b34 C80F      		add r28,r24
 5559 1b36 D91F      		adc r29,r25
 5560 1b38 8BAD      		ldd r24,Y+59
 5561 1b3a 80FD      		sbrc r24,0
 5562 1b3c 00C0      		rjmp .L265
 5563               	.LBB1097:
 5564               	.LBB1098:
 5565               	.LM536:
 5566 1b3e FE01      		movw r30,r28
 5567 1b40 E45B      		subi r30,lo8(-(76))
 5568 1b42 FF4F      		sbci r31,hi8(-(76))
 5569 1b44 C85B      		subi r28,lo8(-(72))
 5570 1b46 DF4F      		sbci r29,hi8(-(72))
 5571 1b48 8881      		ld r24,Y
 5572 1b4a 9981      		ldd r25,Y+1
 5573 1b4c AA81      		ldd r26,Y+2
 5574 1b4e BB81      		ldd r27,Y+3
 5575 1b50 C854      		subi r28,lo8(-(-72))
 5576 1b52 D040      		sbci r29,hi8(-(-72))
 5577 1b54 840F      		add r24,r20
 5578 1b56 951F      		adc r25,r21
 5579 1b58 A61F      		adc r26,r22
 5580 1b5a B71F      		adc r27,r23
 5581 1b5c 8083      		st Z,r24
 5582 1b5e 9183      		std Z+1,r25
 5583 1b60 A283      		std Z+2,r26
 5584 1b62 B383      		std Z+3,r27
 5585               	.LBE1098:
 5586               	.LBE1097:
 5587               	.LBB1099:
 5588               	.LBB1100:
 5589               	.LM537:
 5590 1b64 8BAD      		ldd r24,Y+59
 5591 1b66 8160      		ori r24,lo8(1)
 5592 1b68 8BAF      		std Y+59,r24
 5593               	.L265:
 5594               	/* epilogue start */
 5595               	.LBE1100:
 5596               	.LBE1099:
 5597               	.LM538:
 5598 1b6a DF91      		pop r29
 5599 1b6c CF91      		pop r28
 5600 1b6e 0895      		ret
 5601               	.LFE98:
 5603               	.global	Timebase_UpCounter_Get_Remaining_Period_Value
 5605               	Timebase_UpCounter_Get_Remaining_Period_Value:
 5606               	.LFB99:
 5607               	.LM539:
 5608               	.LVL375:
 5609               	/* prologue: function */
 5610               	/* frame size = 0 */
 5611               	.LBB1101:
 5612               	.LBB1102:
 5613               	.LM540:
 5614 1b70 E091 0000 		lds r30,Timebase
 5615 1b74 F091 0000 		lds r31,(Timebase)+1
 5616 1b78 90E0      		ldi r25,lo8(0)
 5617               	.LBE1102:
 5618               	.LBE1101:
 5619               	.LM541:
 5620 1b7a 29E1      		ldi r18,lo8(25)
 5621 1b7c 30E0      		ldi r19,hi8(25)
 5622 1b7e AC01      		movw r20,r24
 5623               	.LVL376:
 5624 1b80 429F      		mul r20,r18
 5625 1b82 C001      		movw r24,r0
 5626 1b84 439F      		mul r20,r19
 5627 1b86 900D      		add r25,r0
 5628 1b88 529F      		mul r21,r18
 5629 1b8a 900D      		add r25,r0
 5630 1b8c 1124      		clr r1
 5631 1b8e E80F      		add r30,r24
 5632 1b90 F91F      		adc r31,r25
 5633 1b92 DF01      		movw r26,r30
 5634 1b94 A85B      		subi r26,lo8(-(72))
 5635 1b96 BF4F      		sbci r27,hi8(-(72))
 5636 1b98 E45B      		subi r30,lo8(-(76))
 5637 1b9a FF4F      		sbci r31,hi8(-(76))
 5638 1b9c 2081      		ld r18,Z
 5639 1b9e 3181      		ldd r19,Z+1
 5640 1ba0 4281      		ldd r20,Z+2
 5641 1ba2 5381      		ldd r21,Z+3
 5642               	.LVL377:
 5643 1ba4 8D91      		ld r24,X+
 5644 1ba6 9D91      		ld r25,X+
 5645 1ba8 0D90      		ld __tmp_reg__,X+
 5646 1baa BC91      		ld r27,X
 5647 1bac A02D      		mov r26,__tmp_reg__
 5648 1bae 281B      		sub r18,r24
 5649 1bb0 390B      		sbc r19,r25
 5650 1bb2 4A0B      		sbc r20,r26
 5651 1bb4 5B0B      		sbc r21,r27
 5652 1bb6 57FF      		sbrs r21,7
 5653 1bb8 00C0      		rjmp .L267
 5654 1bba 20E0      		ldi r18,lo8(0)
 5655 1bbc 30E0      		ldi r19,hi8(0)
 5656 1bbe 40E0      		ldi r20,hlo8(0)
 5657 1bc0 50E0      		ldi r21,hhi8(0)
 5658               	.L267:
 5659               	.LM542:
 5660 1bc2 B901      		movw r22,r18
 5661               	.LVL378:
 5662 1bc4 CA01      		movw r24,r20
 5663               	/* epilogue start */
 5664 1bc6 0895      		ret
 5665               	.LFE99:
 5667               	.global	Timebase_UpCounter_Period_Value_Expired
 5669               	Timebase_UpCounter_Period_Value_Expired:
 5670               	.LFB100:
 5671               	.LM543:
 5672               	.LVL379:
 5673 1bc8 CF93      		push r28
 5674 1bca DF93      		push r29
 5675               	/* prologue: function */
 5676               	/* frame size = 0 */
 5677               	.LBB1103:
 5678               	.LBB1104:
 5679               	.LBB1105:
 5680               	.LBB1106:
 5681               	.LM544:
 5682 1bcc C091 0000 		lds r28,Timebase
 5683 1bd0 D091 0000 		lds r29,(Timebase)+1
 5684 1bd4 682F      		mov r22,r24
 5685 1bd6 70E0      		ldi r23,lo8(0)
 5686               	.LBE1106:
 5687               	.LBE1105:
 5688               	.LM545:
 5689 1bd8 89E1      		ldi r24,lo8(25)
 5690 1bda 90E0      		ldi r25,hi8(25)
 5691               	.LVL380:
 5692 1bdc 689F      		mul r22,r24
 5693 1bde F001      		movw r30,r0
 5694 1be0 699F      		mul r22,r25
 5695 1be2 F00D      		add r31,r0
 5696 1be4 789F      		mul r23,r24
 5697 1be6 F00D      		add r31,r0
 5698 1be8 1124      		clr r1
 5699 1bea EC0F      		add r30,r28
 5700 1bec FD1F      		adc r31,r29
 5701 1bee DF01      		movw r26,r30
 5702 1bf0 A85B      		subi r26,lo8(-(72))
 5703 1bf2 BF4F      		sbci r27,hi8(-(72))
 5704 1bf4 E45B      		subi r30,lo8(-(76))
 5705 1bf6 FF4F      		sbci r31,hi8(-(76))
 5706 1bf8 2081      		ld r18,Z
 5707 1bfa 3181      		ldd r19,Z+1
 5708 1bfc 4281      		ldd r20,Z+2
 5709 1bfe 5381      		ldd r21,Z+3
 5710               	.LVL381:
 5711 1c00 8D91      		ld r24,X+
 5712 1c02 9D91      		ld r25,X+
 5713 1c04 0D90      		ld __tmp_reg__,X+
 5714 1c06 BC91      		ld r27,X
 5715 1c08 A02D      		mov r26,__tmp_reg__
 5716 1c0a 281B      		sub r18,r24
 5717 1c0c 390B      		sbc r19,r25
 5718 1c0e 4A0B      		sbc r20,r26
 5719 1c10 5B0B      		sbc r21,r27
 5720               	.LM546:
 5721 1c12 57FD      		sbrc r21,7
 5722 1c14 00C0      		rjmp .L270
 5723               	.LBE1104:
 5724               	.LBE1103:
 5725               	.LM547:
 5726 1c16 2115      		cp r18,__zero_reg__
 5727 1c18 3105      		cpc r19,__zero_reg__
 5728 1c1a 4105      		cpc r20,__zero_reg__
 5729 1c1c 5105      		cpc r21,__zero_reg__
 5730 1c1e 01F0      		breq .L270
 5731 1c20 20E0      		ldi r18,lo8(0)
 5732               	.LVL382:
 5733 1c22 00C0      		rjmp .L271
 5734               	.LVL383:
 5735               	.L270:
 5736 1c24 20E0      		ldi r18,lo8(0)
 5737               	.LVL384:
 5738 1c26 89E1      		ldi r24,lo8(25)
 5739 1c28 90E0      		ldi r25,hi8(25)
 5740 1c2a AC01      		movw r20,r24
 5741 1c2c 649F      		mul r22,r20
 5742 1c2e C001      		movw r24,r0
 5743 1c30 659F      		mul r22,r21
 5744 1c32 900D      		add r25,r0
 5745 1c34 749F      		mul r23,r20
 5746 1c36 900D      		add r25,r0
 5747 1c38 1124      		clr r1
 5748 1c3a C80F      		add r28,r24
 5749 1c3c D91F      		adc r29,r25
 5750 1c3e 8BAD      		ldd r24,Y+59
 5751 1c40 80FF      		sbrs r24,0
 5752 1c42 21E0      		ldi r18,lo8(1)
 5753               	.L272:
 5754 1c44 81E0      		ldi r24,lo8(1)
 5755 1c46 2827      		eor r18,r24
 5756               	.L271:
 5757               	.LM548:
 5758 1c48 822F      		mov r24,r18
 5759               	/* epilogue start */
 5760 1c4a DF91      		pop r29
 5761 1c4c CF91      		pop r28
 5762 1c4e 0895      		ret
 5763               	.LFE100:
 5765               	.global	Timebase_UpCounter_Period_Value_Expired_Event
 5767               	Timebase_UpCounter_Period_Value_Expired_Event:
 5768               	.LFB101:
 5769               	.LM549:
 5770               	.LVL385:
 5771 1c50 1F93      		push r17
 5772               	/* prologue: function */
 5773               	/* frame size = 0 */
 5774 1c52 182F      		mov r17,r24
 5775               	.LM550:
 5776 1c54 0E94 0000 		call Timebase_UpCounter_Period_Value_Expired
 5777               	.LVL386:
 5778 1c58 8130      		cpi r24,lo8(1)
 5779 1c5a 01F0      		breq .L275
 5780 1c5c 80E0      		ldi r24,lo8(0)
 5781 1c5e 00C0      		rjmp .L276
 5782               	.L275:
 5783               	.LBB1107:
 5784               	.LBB1108:
 5785               	.LM551:
 5786 1c60 E091 0000 		lds r30,Timebase
 5787 1c64 F091 0000 		lds r31,(Timebase)+1
 5788 1c68 212F      		mov r18,r17
 5789 1c6a 30E0      		ldi r19,lo8(0)
 5790               	.LVL387:
 5791 1c6c 89E1      		ldi r24,lo8(25)
 5792 1c6e 90E0      		ldi r25,hi8(25)
 5793 1c70 AC01      		movw r20,r24
 5794 1c72 249F      		mul r18,r20
 5795 1c74 C001      		movw r24,r0
 5796 1c76 259F      		mul r18,r21
 5797 1c78 900D      		add r25,r0
 5798 1c7a 349F      		mul r19,r20
 5799 1c7c 900D      		add r25,r0
 5800 1c7e 1124      		clr r1
 5801 1c80 E80F      		add r30,r24
 5802 1c82 F91F      		adc r31,r25
 5803 1c84 83AD      		ldd r24,Z+59
 5804 1c86 8E7F      		andi r24,lo8(-2)
 5805 1c88 83AF      		std Z+59,r24
 5806 1c8a 81E0      		ldi r24,lo8(1)
 5807               	.L276:
 5808               	/* epilogue start */
 5809               	.LBE1108:
 5810               	.LBE1107:
 5811               	.LM552:
 5812 1c8c 1F91      		pop r17
 5813               	.LVL388:
 5814 1c8e 0895      		ret
 5815               	.LFE101:
 5817               	.global	Timebase_UpCounter_Update_All
 5819               	Timebase_UpCounter_Update_All:
 5820               	.LFB102:
 5821               	.LM553:
 5822               	/* prologue: function */
 5823               	/* frame size = 0 */
 5824               	.LBB1109:
 5825               	.LM554:
 5826 1c90 80E0      		ldi r24,lo8(0)
 5827 1c92 0E94 0000 		call Timebase_UpCounter_Update
 5828               	/* epilogue start */
 5829               	.LBE1109:
 5830               	.LM555:
 5831 1c96 0895      		ret
 5832               	.LFE102:
 5834               	.global	Timebase_UpCounter_Reset_All
 5836               	Timebase_UpCounter_Reset_All:
 5837               	.LFB103:
 5838               	.LM556:
 5839               	/* prologue: function */
 5840               	/* frame size = 0 */
 5841               	.LBB1110:
 5842               	.LM557:
 5843 1c98 80E0      		ldi r24,lo8(0)
 5844 1c9a 0E94 0000 		call Timebase_UpCounter_Reset
 5845               	/* epilogue start */
 5846               	.LBE1110:
 5847               	.LM558:
 5848 1c9e 0895      		ret
 5849               	.LFE103:
 5851               	.global	Timebase_DownCounter_SS_Get_Status
 5853               	Timebase_DownCounter_SS_Get_Status:
 5854               	.LFB104:
 5855               	.LM559:
 5856               	.LVL389:
 5857               	/* prologue: function */
 5858               	/* frame size = 0 */
 5859               	.LM560:
 5860 1ca0 E091 0000 		lds r30,Timebase
 5861 1ca4 F091 0000 		lds r31,(Timebase)+1
 5862 1ca8 90E0      		ldi r25,lo8(0)
 5863               	.LVL390:
 5864 1caa 25E1      		ldi r18,lo8(21)
 5865 1cac 30E0      		ldi r19,hi8(21)
 5866 1cae AC01      		movw r20,r24
 5867 1cb0 429F      		mul r20,r18
 5868 1cb2 C001      		movw r24,r0
 5869 1cb4 439F      		mul r20,r19
 5870 1cb6 900D      		add r25,r0
 5871 1cb8 529F      		mul r21,r18
 5872 1cba 900D      		add r25,r0
 5873 1cbc 1124      		clr r1
 5874               	.LVL391:
 5875 1cbe E80F      		add r30,r24
 5876 1cc0 F91F      		adc r31,r25
 5877 1cc2 EC5A      		subi r30,lo8(-(84))
 5878 1cc4 FF4F      		sbci r31,hi8(-(84))
 5879 1cc6 8081      		ld r24,Z
 5880 1cc8 8695      		lsr r24
 5881               	.LM561:
 5882 1cca 8F70      		andi r24,lo8(15)
 5883               	/* epilogue start */
 5884 1ccc 0895      		ret
 5885               	.LFE104:
 5887               	.global	Timebase_DownCounter_SS_Set_Status
 5889               	Timebase_DownCounter_SS_Set_Status:
 5890               	.LFB105:
 5891               	.LM562:
 5892               	.LVL392:
 5893               	/* prologue: function */
 5894               	/* frame size = 0 */
 5895               	.LM563:
 5896 1cce E091 0000 		lds r30,Timebase
 5897 1cd2 F091 0000 		lds r31,(Timebase)+1
 5898 1cd6 90E0      		ldi r25,lo8(0)
 5899               	.LVL393:
 5900 1cd8 25E1      		ldi r18,lo8(21)
 5901 1cda 30E0      		ldi r19,hi8(21)
 5902 1cdc AC01      		movw r20,r24
 5903 1cde 429F      		mul r20,r18
 5904 1ce0 C001      		movw r24,r0
 5905 1ce2 439F      		mul r20,r19
 5906 1ce4 900D      		add r25,r0
 5907 1ce6 529F      		mul r21,r18
 5908 1ce8 900D      		add r25,r0
 5909 1cea 1124      		clr r1
 5910               	.LVL394:
 5911 1cec E80F      		add r30,r24
 5912 1cee F91F      		adc r31,r25
 5913 1cf0 EC5A      		subi r30,lo8(-(84))
 5914 1cf2 FF4F      		sbci r31,hi8(-(84))
 5915 1cf4 6F70      		andi r22,lo8(15)
 5916               	.LVL395:
 5917 1cf6 660F      		lsl r22
 5918 1cf8 8081      		ld r24,Z
 5919 1cfa 817E      		andi r24,lo8(-31)
 5920 1cfc 862B      		or r24,r22
 5921 1cfe 8083      		st Z,r24
 5922               	/* epilogue start */
 5923               	.LM564:
 5924 1d00 0895      		ret
 5925               	.LFE105:
 5927               	.global	Timebase_DownCounter_SS_Get_Value
 5929               	Timebase_DownCounter_SS_Get_Value:
 5930               	.LFB106:
 5931               	.LM565:
 5932               	.LVL396:
 5933               	/* prologue: function */
 5934               	/* frame size = 0 */
 5935               	.LM566:
 5936 1d02 E091 0000 		lds r30,Timebase
 5937 1d06 F091 0000 		lds r31,(Timebase)+1
 5938 1d0a 90E0      		ldi r25,lo8(0)
 5939               	.LVL397:
 5940 1d0c 25E1      		ldi r18,lo8(21)
 5941 1d0e 30E0      		ldi r19,hi8(21)
 5942 1d10 AC01      		movw r20,r24
 5943 1d12 429F      		mul r20,r18
 5944 1d14 C001      		movw r24,r0
 5945 1d16 439F      		mul r20,r19
 5946 1d18 900D      		add r25,r0
 5947 1d1a 529F      		mul r21,r18
 5948 1d1c 900D      		add r25,r0
 5949 1d1e 1124      		clr r1
 5950               	.LVL398:
 5951 1d20 E80F      		add r30,r24
 5952 1d22 F91F      		adc r31,r25
 5953 1d24 E35A      		subi r30,lo8(-(93))
 5954 1d26 FF4F      		sbci r31,hi8(-(93))
 5955 1d28 6081      		ld r22,Z
 5956 1d2a 7181      		ldd r23,Z+1
 5957               	.LM567:
 5958 1d2c 8281      		ldd r24,Z+2
 5959 1d2e 9381      		ldd r25,Z+3
 5960               	.LVL399:
 5961               	/* epilogue start */
 5962 1d30 0895      		ret
 5963               	.LFE106:
 5965               	.global	Timebase_DownCounter_SS_Set_Value
 5967               	Timebase_DownCounter_SS_Set_Value:
 5968               	.LFB107:
 5969               	.LM568:
 5970               	.LVL400:
 5971               	/* prologue: function */
 5972               	/* frame size = 0 */
 5973               	.LM569:
 5974 1d32 E091 0000 		lds r30,Timebase
 5975 1d36 F091 0000 		lds r31,(Timebase)+1
 5976 1d3a 90E0      		ldi r25,lo8(0)
 5977               	.LVL401:
 5978 1d3c 25E1      		ldi r18,lo8(21)
 5979 1d3e 30E0      		ldi r19,hi8(21)
 5980 1d40 DC01      		movw r26,r24
 5981 1d42 A29F      		mul r26,r18
 5982 1d44 C001      		movw r24,r0
 5983 1d46 A39F      		mul r26,r19
 5984 1d48 900D      		add r25,r0
 5985 1d4a B29F      		mul r27,r18
 5986 1d4c 900D      		add r25,r0
 5987 1d4e 1124      		clr r1
 5988               	.LVL402:
 5989 1d50 E80F      		add r30,r24
 5990 1d52 F91F      		adc r31,r25
 5991 1d54 E35A      		subi r30,lo8(-(93))
 5992 1d56 FF4F      		sbci r31,hi8(-(93))
 5993 1d58 4083      		st Z,r20
 5994 1d5a 5183      		std Z+1,r21
 5995 1d5c 6283      		std Z+2,r22
 5996 1d5e 7383      		std Z+3,r23
 5997               	/* epilogue start */
 5998               	.LM570:
 5999 1d60 0895      		ret
 6000               	.LFE107:
 6002               	.global	Timebase_DownCounter_SS_Get_EndValueSec
 6004               	Timebase_DownCounter_SS_Get_EndValueSec:
 6005               	.LFB108:
 6006               	.LM571:
 6007               	.LVL403:
 6008               	/* prologue: function */
 6009               	/* frame size = 0 */
 6010               	.LM572:
 6011 1d62 E091 0000 		lds r30,Timebase
 6012 1d66 F091 0000 		lds r31,(Timebase)+1
 6013 1d6a 90E0      		ldi r25,lo8(0)
 6014               	.LVL404:
 6015 1d6c 25E1      		ldi r18,lo8(21)
 6016 1d6e 30E0      		ldi r19,hi8(21)
 6017 1d70 AC01      		movw r20,r24
 6018 1d72 429F      		mul r20,r18
 6019 1d74 C001      		movw r24,r0
 6020 1d76 439F      		mul r20,r19
 6021 1d78 900D      		add r25,r0
 6022 1d7a 529F      		mul r21,r18
 6023 1d7c 900D      		add r25,r0
 6024 1d7e 1124      		clr r1
 6025               	.LVL405:
 6026 1d80 E80F      		add r30,r24
 6027 1d82 F91F      		adc r31,r25
 6028 1d84 EB5A      		subi r30,lo8(-(85))
 6029 1d86 FF4F      		sbci r31,hi8(-(85))
 6030 1d88 6081      		ld r22,Z
 6031 1d8a 7181      		ldd r23,Z+1
 6032               	.LM573:
 6033 1d8c 8281      		ldd r24,Z+2
 6034 1d8e 9381      		ldd r25,Z+3
 6035               	.LVL406:
 6036               	/* epilogue start */
 6037 1d90 0895      		ret
 6038               	.LFE108:
 6040               	.global	Timebase_DownCounter_SS_Get_EndValueSubSec
 6042               	Timebase_DownCounter_SS_Get_EndValueSubSec:
 6043               	.LFB109:
 6044               	.LM574:
 6045               	.LVL407:
 6046               	/* prologue: function */
 6047               	/* frame size = 0 */
 6048               	.LM575:
 6049 1d92 E091 0000 		lds r30,Timebase
 6050 1d96 F091 0000 		lds r31,(Timebase)+1
 6051 1d9a 90E0      		ldi r25,lo8(0)
 6052               	.LVL408:
 6053 1d9c 25E1      		ldi r18,lo8(21)
 6054 1d9e 30E0      		ldi r19,hi8(21)
 6055 1da0 AC01      		movw r20,r24
 6056 1da2 429F      		mul r20,r18
 6057 1da4 C001      		movw r24,r0
 6058 1da6 439F      		mul r20,r19
 6059 1da8 900D      		add r25,r0
 6060 1daa 529F      		mul r21,r18
 6061 1dac 900D      		add r25,r0
 6062 1dae 1124      		clr r1
 6063               	.LVL409:
 6064 1db0 E80F      		add r30,r24
 6065 1db2 F91F      		adc r31,r25
 6066 1db4 E75A      		subi r30,lo8(-(89))
 6067 1db6 FF4F      		sbci r31,hi8(-(89))
 6068 1db8 6081      		ld r22,Z
 6069 1dba 7181      		ldd r23,Z+1
 6070               	.LM576:
 6071 1dbc 8281      		ldd r24,Z+2
 6072 1dbe 9381      		ldd r25,Z+3
 6073               	.LVL410:
 6074               	/* epilogue start */
 6075 1dc0 0895      		ret
 6076               	.LFE109:
 6078               	.global	Timebase_DownCounter_SS_Set_EndValueSec
 6080               	Timebase_DownCounter_SS_Set_EndValueSec:
 6081               	.LFB110:
 6082               	.LM577:
 6083               	.LVL411:
 6084               	/* prologue: function */
 6085               	/* frame size = 0 */
 6086               	.LM578:
 6087 1dc2 E091 0000 		lds r30,Timebase
 6088 1dc6 F091 0000 		lds r31,(Timebase)+1
 6089 1dca 90E0      		ldi r25,lo8(0)
 6090               	.LVL412:
 6091 1dcc 25E1      		ldi r18,lo8(21)
 6092 1dce 30E0      		ldi r19,hi8(21)
 6093 1dd0 DC01      		movw r26,r24
 6094 1dd2 A29F      		mul r26,r18
 6095 1dd4 C001      		movw r24,r0
 6096 1dd6 A39F      		mul r26,r19
 6097 1dd8 900D      		add r25,r0
 6098 1dda B29F      		mul r27,r18
 6099 1ddc 900D      		add r25,r0
 6100 1dde 1124      		clr r1
 6101               	.LVL413:
 6102 1de0 E80F      		add r30,r24
 6103 1de2 F91F      		adc r31,r25
 6104 1de4 EB5A      		subi r30,lo8(-(85))
 6105 1de6 FF4F      		sbci r31,hi8(-(85))
 6106 1de8 4083      		st Z,r20
 6107 1dea 5183      		std Z+1,r21
 6108 1dec 6283      		std Z+2,r22
 6109 1dee 7383      		std Z+3,r23
 6110               	/* epilogue start */
 6111               	.LM579:
 6112 1df0 0895      		ret
 6113               	.LFE110:
 6115               	.global	Timebase_DownCounter_SS_Set_EndValueSubSec
 6117               	Timebase_DownCounter_SS_Set_EndValueSubSec:
 6118               	.LFB111:
 6119               	.LM580:
 6120               	.LVL414:
 6121               	/* prologue: function */
 6122               	/* frame size = 0 */
 6123               	.LM581:
 6124 1df2 E091 0000 		lds r30,Timebase
 6125 1df6 F091 0000 		lds r31,(Timebase)+1
 6126 1dfa 90E0      		ldi r25,lo8(0)
 6127               	.LVL415:
 6128 1dfc 25E1      		ldi r18,lo8(21)
 6129 1dfe 30E0      		ldi r19,hi8(21)
 6130 1e00 DC01      		movw r26,r24
 6131 1e02 A29F      		mul r26,r18
 6132 1e04 C001      		movw r24,r0
 6133 1e06 A39F      		mul r26,r19
 6134 1e08 900D      		add r25,r0
 6135 1e0a B29F      		mul r27,r18
 6136 1e0c 900D      		add r25,r0
 6137 1e0e 1124      		clr r1
 6138               	.LVL416:
 6139 1e10 E80F      		add r30,r24
 6140 1e12 F91F      		adc r31,r25
 6141 1e14 E75A      		subi r30,lo8(-(89))
 6142 1e16 FF4F      		sbci r31,hi8(-(89))
 6143 1e18 4083      		st Z,r20
 6144 1e1a 5183      		std Z+1,r21
 6145 1e1c 6283      		std Z+2,r22
 6146 1e1e 7383      		std Z+3,r23
 6147               	/* epilogue start */
 6148               	.LM582:
 6149 1e20 0895      		ret
 6150               	.LFE111:
 6152               	.global	Timebase_DownCounter_SS_Get_PeriodValue
 6154               	Timebase_DownCounter_SS_Get_PeriodValue:
 6155               	.LFB112:
 6156               	.LM583:
 6157               	.LVL417:
 6158               	/* prologue: function */
 6159               	/* frame size = 0 */
 6160               	.LM584:
 6161 1e22 E091 0000 		lds r30,Timebase
 6162 1e26 F091 0000 		lds r31,(Timebase)+1
 6163 1e2a 90E0      		ldi r25,lo8(0)
 6164               	.LVL418:
 6165 1e2c 25E1      		ldi r18,lo8(21)
 6166 1e2e 30E0      		ldi r19,hi8(21)
 6167 1e30 AC01      		movw r20,r24
 6168 1e32 429F      		mul r20,r18
 6169 1e34 C001      		movw r24,r0
 6170 1e36 439F      		mul r20,r19
 6171 1e38 900D      		add r25,r0
 6172 1e3a 529F      		mul r21,r18
 6173 1e3c 900D      		add r25,r0
 6174 1e3e 1124      		clr r1
 6175               	.LVL419:
 6176 1e40 E80F      		add r30,r24
 6177 1e42 F91F      		adc r31,r25
 6178 1e44 EF59      		subi r30,lo8(-(97))
 6179 1e46 FF4F      		sbci r31,hi8(-(97))
 6180 1e48 6081      		ld r22,Z
 6181 1e4a 7181      		ldd r23,Z+1
 6182               	.LM585:
 6183 1e4c 8281      		ldd r24,Z+2
 6184 1e4e 9381      		ldd r25,Z+3
 6185               	.LVL420:
 6186               	/* epilogue start */
 6187 1e50 0895      		ret
 6188               	.LFE112:
 6190               	.global	Timebase_DownCounter_SS_Set_PeriodValue
 6192               	Timebase_DownCounter_SS_Set_PeriodValue:
 6193               	.LFB113:
 6194               	.LM586:
 6195               	.LVL421:
 6196               	/* prologue: function */
 6197               	/* frame size = 0 */
 6198 1e52 E091 0000 		lds r30,Timebase
 6199 1e56 F091 0000 		lds r31,(Timebase)+1
 6200 1e5a 282F      		mov r18,r24
 6201 1e5c 30E0      		ldi r19,lo8(0)
 6202               	.LVL422:
 6203               	.LM587:
 6204 1e5e 77FF      		sbrs r23,7
 6205 1e60 00C0      		rjmp .L301
 6206               	.LVL423:
 6207               	.LM588:
 6208 1e62 85E1      		ldi r24,lo8(21)
 6209 1e64 90E0      		ldi r25,hi8(21)
 6210 1e66 AC01      		movw r20,r24
 6211               	.LVL424:
 6212 1e68 249F      		mul r18,r20
 6213 1e6a C001      		movw r24,r0
 6214 1e6c 259F      		mul r18,r21
 6215 1e6e 900D      		add r25,r0
 6216 1e70 349F      		mul r19,r20
 6217 1e72 900D      		add r25,r0
 6218 1e74 1124      		clr r1
 6219 1e76 E80F      		add r30,r24
 6220 1e78 F91F      		adc r31,r25
 6221 1e7a EF59      		subi r30,lo8(-(97))
 6222 1e7c FF4F      		sbci r31,hi8(-(97))
 6223 1e7e 1082      		st Z,__zero_reg__
 6224 1e80 1182      		std Z+1,__zero_reg__
 6225 1e82 1282      		std Z+2,__zero_reg__
 6226 1e84 1382      		std Z+3,__zero_reg__
 6227 1e86 0895      		ret
 6228               	.LVL425:
 6229               	.L301:
 6230               	.LM589:
 6231 1e88 85E1      		ldi r24,lo8(21)
 6232 1e8a 90E0      		ldi r25,hi8(21)
 6233 1e8c DC01      		movw r26,r24
 6234 1e8e 2A9F      		mul r18,r26
 6235 1e90 C001      		movw r24,r0
 6236 1e92 2B9F      		mul r18,r27
 6237 1e94 900D      		add r25,r0
 6238 1e96 3A9F      		mul r19,r26
 6239 1e98 900D      		add r25,r0
 6240 1e9a 1124      		clr r1
 6241 1e9c E80F      		add r30,r24
 6242 1e9e F91F      		adc r31,r25
 6243 1ea0 EF59      		subi r30,lo8(-(97))
 6244 1ea2 FF4F      		sbci r31,hi8(-(97))
 6245 1ea4 4083      		st Z,r20
 6246 1ea6 5183      		std Z+1,r21
 6247 1ea8 6283      		std Z+2,r22
 6248 1eaa 7383      		std Z+3,r23
 6249 1eac 0895      		ret
 6250               	.LFE113:
 6252               	.global	Timebase_DownCounter_SS_Get_Period_Flag
 6254               	Timebase_DownCounter_SS_Get_Period_Flag:
 6255               	.LFB114:
 6256               	.LM590:
 6257               	.LVL426:
 6258               	/* prologue: function */
 6259               	/* frame size = 0 */
 6260               	.LM591:
 6261 1eae E091 0000 		lds r30,Timebase
 6262 1eb2 F091 0000 		lds r31,(Timebase)+1
 6263 1eb6 90E0      		ldi r25,lo8(0)
 6264               	.LVL427:
 6265 1eb8 25E1      		ldi r18,lo8(21)
 6266 1eba 30E0      		ldi r19,hi8(21)
 6267 1ebc AC01      		movw r20,r24
 6268 1ebe 429F      		mul r20,r18
 6269 1ec0 C001      		movw r24,r0
 6270 1ec2 439F      		mul r20,r19
 6271 1ec4 900D      		add r25,r0
 6272 1ec6 529F      		mul r21,r18
 6273 1ec8 900D      		add r25,r0
 6274 1eca 1124      		clr r1
 6275               	.LVL428:
 6276 1ecc E80F      		add r30,r24
 6277 1ece F91F      		adc r31,r25
 6278 1ed0 EC5A      		subi r30,lo8(-(84))
 6279 1ed2 FF4F      		sbci r31,hi8(-(84))
 6280 1ed4 8081      		ld r24,Z
 6281               	.LM592:
 6282 1ed6 8170      		andi r24,lo8(1)
 6283               	/* epilogue start */
 6284 1ed8 0895      		ret
 6285               	.LFE114:
 6287               	.global	Timebase_DownCounter_SS_Set_Period_Flag
 6289               	Timebase_DownCounter_SS_Set_Period_Flag:
 6290               	.LFB115:
 6291               	.LM593:
 6292               	.LVL429:
 6293               	/* prologue: function */
 6294               	/* frame size = 0 */
 6295               	.LM594:
 6296 1eda E091 0000 		lds r30,Timebase
 6297 1ede F091 0000 		lds r31,(Timebase)+1
 6298 1ee2 90E0      		ldi r25,lo8(0)
 6299               	.LVL430:
 6300 1ee4 25E1      		ldi r18,lo8(21)
 6301 1ee6 30E0      		ldi r19,hi8(21)
 6302 1ee8 AC01      		movw r20,r24
 6303 1eea 429F      		mul r20,r18
 6304 1eec C001      		movw r24,r0
 6305 1eee 439F      		mul r20,r19
 6306 1ef0 900D      		add r25,r0
 6307 1ef2 529F      		mul r21,r18
 6308 1ef4 900D      		add r25,r0
 6309 1ef6 1124      		clr r1
 6310               	.LVL431:
 6311 1ef8 E80F      		add r30,r24
 6312 1efa F91F      		adc r31,r25
 6313 1efc EC5A      		subi r30,lo8(-(84))
 6314 1efe FF4F      		sbci r31,hi8(-(84))
 6315 1f00 8081      		ld r24,Z
 6316 1f02 8160      		ori r24,lo8(1)
 6317 1f04 8083      		st Z,r24
 6318               	/* epilogue start */
 6319               	.LM595:
 6320 1f06 0895      		ret
 6321               	.LFE115:
 6323               	.global	Timebase_DownCounter_SS_Clear_Period_Flag
 6325               	Timebase_DownCounter_SS_Clear_Period_Flag:
 6326               	.LFB116:
 6327               	.LM596:
 6328               	.LVL432:
 6329               	/* prologue: function */
 6330               	/* frame size = 0 */
 6331               	.LM597:
 6332 1f08 E091 0000 		lds r30,Timebase
 6333 1f0c F091 0000 		lds r31,(Timebase)+1
 6334 1f10 90E0      		ldi r25,lo8(0)
 6335               	.LVL433:
 6336 1f12 25E1      		ldi r18,lo8(21)
 6337 1f14 30E0      		ldi r19,hi8(21)
 6338 1f16 AC01      		movw r20,r24
 6339 1f18 429F      		mul r20,r18
 6340 1f1a C001      		movw r24,r0
 6341 1f1c 439F      		mul r20,r19
 6342 1f1e 900D      		add r25,r0
 6343 1f20 529F      		mul r21,r18
 6344 1f22 900D      		add r25,r0
 6345 1f24 1124      		clr r1
 6346               	.LVL434:
 6347 1f26 E80F      		add r30,r24
 6348 1f28 F91F      		adc r31,r25
 6349 1f2a EC5A      		subi r30,lo8(-(84))
 6350 1f2c FF4F      		sbci r31,hi8(-(84))
 6351 1f2e 8081      		ld r24,Z
 6352 1f30 8E7F      		andi r24,lo8(-2)
 6353 1f32 8083      		st Z,r24
 6354               	/* epilogue start */
 6355               	.LM598:
 6356 1f34 0895      		ret
 6357               	.LFE116:
 6359               	.global	Timebase_DownCounter_SS_Get_ReloadValue
 6361               	Timebase_DownCounter_SS_Get_ReloadValue:
 6362               	.LFB117:
 6363               	.LM599:
 6364               	.LVL435:
 6365               	/* prologue: function */
 6366               	/* frame size = 0 */
 6367               	.LM600:
 6368 1f36 E091 0000 		lds r30,Timebase
 6369 1f3a F091 0000 		lds r31,(Timebase)+1
 6370 1f3e 90E0      		ldi r25,lo8(0)
 6371               	.LVL436:
 6372 1f40 25E1      		ldi r18,lo8(21)
 6373 1f42 30E0      		ldi r19,hi8(21)
 6374 1f44 AC01      		movw r20,r24
 6375 1f46 429F      		mul r20,r18
 6376 1f48 C001      		movw r24,r0
 6377 1f4a 439F      		mul r20,r19
 6378 1f4c 900D      		add r25,r0
 6379 1f4e 529F      		mul r21,r18
 6380 1f50 900D      		add r25,r0
 6381 1f52 1124      		clr r1
 6382               	.LVL437:
 6383 1f54 E80F      		add r30,r24
 6384 1f56 F91F      		adc r31,r25
 6385 1f58 EB59      		subi r30,lo8(-(101))
 6386 1f5a FF4F      		sbci r31,hi8(-(101))
 6387 1f5c 6081      		ld r22,Z
 6388 1f5e 7181      		ldd r23,Z+1
 6389               	.LM601:
 6390 1f60 8281      		ldd r24,Z+2
 6391 1f62 9381      		ldd r25,Z+3
 6392               	.LVL438:
 6393               	/* epilogue start */
 6394 1f64 0895      		ret
 6395               	.LFE117:
 6397               	.global	Timebase_DownCounter_SS_Set_ReloadValue
 6399               	Timebase_DownCounter_SS_Set_ReloadValue:
 6400               	.LFB118:
 6401               	.LM602:
 6402               	.LVL439:
 6403               	/* prologue: function */
 6404               	/* frame size = 0 */
 6405               	.LM603:
 6406 1f66 E091 0000 		lds r30,Timebase
 6407 1f6a F091 0000 		lds r31,(Timebase)+1
 6408 1f6e 90E0      		ldi r25,lo8(0)
 6409               	.LVL440:
 6410 1f70 25E1      		ldi r18,lo8(21)
 6411 1f72 30E0      		ldi r19,hi8(21)
 6412 1f74 DC01      		movw r26,r24
 6413 1f76 A29F      		mul r26,r18
 6414 1f78 C001      		movw r24,r0
 6415 1f7a A39F      		mul r26,r19
 6416 1f7c 900D      		add r25,r0
 6417 1f7e B29F      		mul r27,r18
 6418 1f80 900D      		add r25,r0
 6419 1f82 1124      		clr r1
 6420               	.LVL441:
 6421 1f84 E80F      		add r30,r24
 6422 1f86 F91F      		adc r31,r25
 6423 1f88 EB59      		subi r30,lo8(-(101))
 6424 1f8a FF4F      		sbci r31,hi8(-(101))
 6425 1f8c 4083      		st Z,r20
 6426 1f8e 5183      		std Z+1,r21
 6427 1f90 6283      		std Z+2,r22
 6428 1f92 7383      		std Z+3,r23
 6429               	/* epilogue start */
 6430               	.LM604:
 6431 1f94 0895      		ret
 6432               	.LFE118:
 6434               	.global	Timebase_DownCounter_SS_Reset
 6436               	Timebase_DownCounter_SS_Reset:
 6437               	.LFB119:
 6438               	.LM605:
 6439               	.LVL442:
 6440               	/* prologue: function */
 6441               	/* frame size = 0 */
 6442               	.LBB1111:
 6443               	.LBB1112:
 6444               	.LM606:
 6445 1f96 E091 0000 		lds r30,Timebase
 6446 1f9a F091 0000 		lds r31,(Timebase)+1
 6447 1f9e 90E0      		ldi r25,lo8(0)
 6448 1fa0 25E1      		ldi r18,lo8(21)
 6449 1fa2 30E0      		ldi r19,hi8(21)
 6450 1fa4 AC01      		movw r20,r24
 6451               	.LVL443:
 6452 1fa6 429F      		mul r20,r18
 6453 1fa8 C001      		movw r24,r0
 6454 1faa 439F      		mul r20,r19
 6455 1fac 900D      		add r25,r0
 6456 1fae 529F      		mul r21,r18
 6457 1fb0 900D      		add r25,r0
 6458 1fb2 1124      		clr r1
 6459 1fb4 E80F      		add r30,r24
 6460 1fb6 F91F      		adc r31,r25
 6461 1fb8 E75A      		subi r30,lo8(-(89))
 6462 1fba FF4F      		sbci r31,hi8(-(89))
 6463 1fbc 1082      		st Z,__zero_reg__
 6464 1fbe 1182      		std Z+1,__zero_reg__
 6465 1fc0 1282      		std Z+2,__zero_reg__
 6466 1fc2 1382      		std Z+3,__zero_reg__
 6467               	.LBE1112:
 6468               	.LBE1111:
 6469               	.LBB1113:
 6470               	.LBB1114:
 6471               	.LM607:
 6472 1fc4 1292      		st -Z,__zero_reg__
 6473 1fc6 1292      		st -Z,__zero_reg__
 6474 1fc8 1292      		st -Z,__zero_reg__
 6475 1fca 1292      		st -Z,__zero_reg__
 6476               	.LBE1114:
 6477               	.LBE1113:
 6478               	.LBB1115:
 6479               	.LBB1116:
 6480               	.LM608:
 6481 1fcc 3896      		adiw r30,8
 6482 1fce 1082      		st Z,__zero_reg__
 6483 1fd0 1182      		std Z+1,__zero_reg__
 6484 1fd2 1282      		std Z+2,__zero_reg__
 6485 1fd4 1382      		std Z+3,__zero_reg__
 6486 1fd6 ED55      		subi r30,lo8(-(-93))
 6487 1fd8 F040      		sbci r31,hi8(-(-93))
 6488               	.LBE1116:
 6489               	.LBE1115:
 6490               	.LBB1117:
 6491               	.LBB1118:
 6492               	.LM609:
 6493 1fda DF01      		movw r26,r30
 6494 1fdc AC5A      		subi r26,lo8(-(84))
 6495 1fde BF4F      		sbci r27,hi8(-(84))
 6496 1fe0 8C91      		ld r24,X
 6497               	.LBE1118:
 6498               	.LBE1117:
 6499               	.LBB1119:
 6500               	.LBB1120:
 6501               	.LM610:
 6502 1fe2 807E      		andi r24,lo8(-32)
 6503 1fe4 8C93      		st X,r24
 6504               	.LBE1120:
 6505               	.LBE1119:
 6506               	.LBB1121:
 6507               	.LBB1122:
 6508               	.LM611:
 6509 1fe6 EB59      		subi r30,lo8(-(101))
 6510 1fe8 FF4F      		sbci r31,hi8(-(101))
 6511 1fea 1082      		st Z,__zero_reg__
 6512 1fec 1182      		std Z+1,__zero_reg__
 6513 1fee 1282      		std Z+2,__zero_reg__
 6514 1ff0 1382      		std Z+3,__zero_reg__
 6515               	/* epilogue start */
 6516               	.LBE1122:
 6517               	.LBE1121:
 6518               	.LM612:
 6519 1ff2 0895      		ret
 6520               	.LFE119:
 6522               	.global	Timebase_DownCounter_SS_Clear_All_Flags
 6524               	Timebase_DownCounter_SS_Clear_All_Flags:
 6525               	.LFB120:
 6526               	.LM613:
 6527               	.LVL444:
 6528               	/* prologue: function */
 6529               	/* frame size = 0 */
 6530               	.LBB1123:
 6531               	.LBB1124:
 6532               	.LBB1125:
 6533               	.LBB1126:
 6534               	.LM614:
 6535 1ff4 E091 0000 		lds r30,Timebase
 6536 1ff8 F091 0000 		lds r31,(Timebase)+1
 6537 1ffc 90E0      		ldi r25,lo8(0)
 6538 1ffe 25E1      		ldi r18,lo8(21)
 6539 2000 30E0      		ldi r19,hi8(21)
 6540 2002 AC01      		movw r20,r24
 6541               	.LVL445:
 6542 2004 429F      		mul r20,r18
 6543 2006 C001      		movw r24,r0
 6544 2008 439F      		mul r20,r19
 6545 200a 900D      		add r25,r0
 6546 200c 529F      		mul r21,r18
 6547 200e 900D      		add r25,r0
 6548 2010 1124      		clr r1
 6549 2012 E80F      		add r30,r24
 6550 2014 F91F      		adc r31,r25
 6551 2016 E75A      		subi r30,lo8(-(89))
 6552 2018 FF4F      		sbci r31,hi8(-(89))
 6553 201a 1082      		st Z,__zero_reg__
 6554 201c 1182      		std Z+1,__zero_reg__
 6555 201e 1282      		std Z+2,__zero_reg__
 6556 2020 1382      		std Z+3,__zero_reg__
 6557               	.LBE1126:
 6558               	.LBE1125:
 6559               	.LBB1127:
 6560               	.LBB1128:
 6561               	.LM615:
 6562 2022 1292      		st -Z,__zero_reg__
 6563 2024 1292      		st -Z,__zero_reg__
 6564 2026 1292      		st -Z,__zero_reg__
 6565 2028 1292      		st -Z,__zero_reg__
 6566               	.LBE1128:
 6567               	.LBE1127:
 6568               	.LBB1129:
 6569               	.LBB1130:
 6570               	.LM616:
 6571 202a 3896      		adiw r30,8
 6572 202c 1082      		st Z,__zero_reg__
 6573 202e 1182      		std Z+1,__zero_reg__
 6574 2030 1282      		std Z+2,__zero_reg__
 6575 2032 1382      		std Z+3,__zero_reg__
 6576 2034 ED55      		subi r30,lo8(-(-93))
 6577 2036 F040      		sbci r31,hi8(-(-93))
 6578               	.LBE1130:
 6579               	.LBE1129:
 6580               	.LBB1131:
 6581               	.LBB1132:
 6582               	.LM617:
 6583 2038 DF01      		movw r26,r30
 6584 203a AC5A      		subi r26,lo8(-(84))
 6585 203c BF4F      		sbci r27,hi8(-(84))
 6586 203e 8C91      		ld r24,X
 6587               	.LBE1132:
 6588               	.LBE1131:
 6589               	.LBB1133:
 6590               	.LBB1134:
 6591               	.LM618:
 6592 2040 807E      		andi r24,lo8(-32)
 6593 2042 8C93      		st X,r24
 6594               	.LBE1134:
 6595               	.LBE1133:
 6596               	.LBB1135:
 6597               	.LBB1136:
 6598               	.LM619:
 6599 2044 EB59      		subi r30,lo8(-(101))
 6600 2046 FF4F      		sbci r31,hi8(-(101))
 6601 2048 1082      		st Z,__zero_reg__
 6602 204a 1182      		std Z+1,__zero_reg__
 6603 204c 1282      		std Z+2,__zero_reg__
 6604 204e 1382      		std Z+3,__zero_reg__
 6605               	/* epilogue start */
 6606               	.LBE1136:
 6607               	.LBE1135:
 6608               	.LBE1124:
 6609               	.LBE1123:
 6610               	.LM620:
 6611 2050 0895      		ret
 6612               	.LFE120:
 6614               	.global	Timebase_DownCounter_SS_Start
 6616               	Timebase_DownCounter_SS_Start:
 6617               	.LFB121:
 6618               	.LM621:
 6619               	.LVL446:
 6620               	/* prologue: function */
 6621               	/* frame size = 0 */
 6622               	.LBB1137:
 6623               	.LBB1138:
 6624               	.LM622:
 6625 2052 E091 0000 		lds r30,Timebase
 6626 2056 F091 0000 		lds r31,(Timebase)+1
 6627 205a 90E0      		ldi r25,lo8(0)
 6628               	.LBE1138:
 6629               	.LBE1137:
 6630               	.LM623:
 6631 205c 25E1      		ldi r18,lo8(21)
 6632 205e 30E0      		ldi r19,hi8(21)
 6633 2060 AC01      		movw r20,r24
 6634               	.LVL447:
 6635 2062 429F      		mul r20,r18
 6636 2064 C001      		movw r24,r0
 6637 2066 439F      		mul r20,r19
 6638 2068 900D      		add r25,r0
 6639 206a 529F      		mul r21,r18
 6640 206c 900D      		add r25,r0
 6641 206e 1124      		clr r1
 6642 2070 E80F      		add r30,r24
 6643 2072 F91F      		adc r31,r25
 6644 2074 EC5A      		subi r30,lo8(-(84))
 6645 2076 FF4F      		sbci r31,hi8(-(84))
 6646 2078 9081      		ld r25,Z
 6647 207a 892F      		mov r24,r25
 6648 207c 8695      		lsr r24
 6649 207e 8F70      		andi r24,lo8(15)
 6650 2080 8130      		cpi r24,lo8(1)
 6651 2082 01F0      		breq .L320
 6652               	.LBB1139:
 6653               	.LBB1140:
 6654               	.LM624:
 6655 2084 917E      		andi r25,lo8(-31)
 6656 2086 9260      		ori r25,lo8(2)
 6657 2088 9083      		st Z,r25
 6658               	.L320:
 6659 208a 0895      		ret
 6660               	.LBE1140:
 6661               	.LBE1139:
 6662               	.LFE121:
 6664               	.global	Timebase_DownCounter_SS_Stop
 6666               	Timebase_DownCounter_SS_Stop:
 6667               	.LFB122:
 6668               	.LM625:
 6669               	.LVL448:
 6670               	/* prologue: function */
 6671               	/* frame size = 0 */
 6672               	.LBB1141:
 6673               	.LBB1142:
 6674               	.LM626:
 6675 208c E091 0000 		lds r30,Timebase
 6676 2090 F091 0000 		lds r31,(Timebase)+1
 6677 2094 90E0      		ldi r25,lo8(0)
 6678               	.LBE1142:
 6679               	.LBE1141:
 6680               	.LM627:
 6681 2096 25E1      		ldi r18,lo8(21)
 6682 2098 30E0      		ldi r19,hi8(21)
 6683 209a AC01      		movw r20,r24
 6684               	.LVL449:
 6685 209c 429F      		mul r20,r18
 6686 209e C001      		movw r24,r0
 6687 20a0 439F      		mul r20,r19
 6688 20a2 900D      		add r25,r0
 6689 20a4 529F      		mul r21,r18
 6690 20a6 900D      		add r25,r0
 6691 20a8 1124      		clr r1
 6692 20aa E80F      		add r30,r24
 6693 20ac F91F      		adc r31,r25
 6694 20ae EC5A      		subi r30,lo8(-(84))
 6695 20b0 FF4F      		sbci r31,hi8(-(84))
 6696 20b2 9081      		ld r25,Z
 6697 20b4 892F      		mov r24,r25
 6698 20b6 8695      		lsr r24
 6699 20b8 8F70      		andi r24,lo8(15)
 6700 20ba 8230      		cpi r24,lo8(2)
 6701 20bc 01F0      		breq .L323
 6702               	.LBB1143:
 6703               	.LBB1144:
 6704               	.LM628:
 6705 20be 917E      		andi r25,lo8(-31)
 6706 20c0 9460      		ori r25,lo8(4)
 6707 20c2 9083      		st Z,r25
 6708               	.L323:
 6709 20c4 0895      		ret
 6710               	.LBE1144:
 6711               	.LBE1143:
 6712               	.LFE122:
 6714               	.global	Timebase_DownCounter_SS_Set_Securely
 6716               	Timebase_DownCounter_SS_Set_Securely:
 6717               	.LFB123:
 6718               	.LM629:
 6719               	.LVL450:
 6720 20c6 2F92      		push r2
 6721 20c8 3F92      		push r3
 6722 20ca 4F92      		push r4
 6723 20cc 5F92      		push r5
 6724 20ce 6F92      		push r6
 6725 20d0 7F92      		push r7
 6726 20d2 8F92      		push r8
 6727 20d4 9F92      		push r9
 6728 20d6 AF92      		push r10
 6729 20d8 BF92      		push r11
 6730 20da CF92      		push r12
 6731 20dc DF92      		push r13
 6732 20de EF92      		push r14
 6733 20e0 FF92      		push r15
 6734 20e2 0F93      		push r16
 6735 20e4 1F93      		push r17
 6736 20e6 DF93      		push r29
 6737 20e8 CF93      		push r28
 6738 20ea CDB7      		in r28,__SP_L__
 6739 20ec DEB7      		in r29,__SP_H__
 6740 20ee 2897      		sbiw r28,8
 6741 20f0 0FB6      		in __tmp_reg__,__SREG__
 6742 20f2 F894      		cli
 6743 20f4 DEBF      		out __SP_H__,r29
 6744 20f6 0FBE      		out __SREG__,__tmp_reg__
 6745 20f8 CDBF      		out __SP_L__,r28
 6746               	/* prologue: function */
 6747               	/* frame size = 8 */
 6748 20fa 4B83      		std Y+3,r20
 6749 20fc 5C83      		std Y+4,r21
 6750 20fe 6D83      		std Y+5,r22
 6751 2100 7E83      		std Y+6,r23
 6752               	.LBB1145:
 6753               	.LBB1146:
 6754               	.LM630:
 6755 2102 2091 0000 		lds r18,Timebase
 6756 2106 3091 0000 		lds r19,(Timebase)+1
 6757 210a 3887      		std Y+8,r19
 6758 210c 2F83      		std Y+7,r18
 6759 210e A82F      		mov r26,r24
 6760 2110 B0E0      		ldi r27,lo8(0)
 6761 2112 BA83      		std Y+2,r27
 6762 2114 A983      		std Y+1,r26
 6763               	.LBE1146:
 6764               	.LBE1145:
 6765               	.LM631:
 6766 2116 85E1      		ldi r24,lo8(21)
 6767 2118 90E0      		ldi r25,hi8(21)
 6768               	.LVL451:
 6769 211a A89F      		mul r26,r24
 6770 211c F001      		movw r30,r0
 6771 211e A99F      		mul r26,r25
 6772 2120 F00D      		add r31,r0
 6773 2122 B89F      		mul r27,r24
 6774 2124 F00D      		add r31,r0
 6775 2126 1124      		clr r1
 6776 2128 E20F      		add r30,r18
 6777 212a F31F      		adc r31,r19
 6778 212c EC5A      		subi r30,lo8(-(84))
 6779 212e FF4F      		sbci r31,hi8(-(84))
 6780 2130 8081      		ld r24,Z
 6781 2132 E455      		subi r30,lo8(-(-84))
 6782 2134 F040      		sbci r31,hi8(-(-84))
 6783 2136 8695      		lsr r24
 6784 2138 8F70      		andi r24,lo8(15)
 6785 213a 01F0      		breq .+2
 6786 213c 00C0      		rjmp .L327
 6787               	.LVL452:
 6788               	.LBB1147:
 6789               	.LBB1148:
 6790               	.LM632:
 6791 213e E35A      		subi r30,lo8(-(93))
 6792 2140 FF4F      		sbci r31,hi8(-(93))
 6793 2142 4083      		st Z,r20
 6794 2144 5183      		std Z+1,r21
 6795 2146 6283      		std Z+2,r22
 6796 2148 7383      		std Z+3,r23
 6797               	.LBE1148:
 6798               	.LBE1147:
 6799               	.LBB1149:
 6800               	.LBB1150:
 6801               	.LM633:
 6802 214a F901      		movw r30,r18
 6803 214c C284      		ldd r12,Z+10
 6804 214e D384      		ldd r13,Z+11
 6805               	.LBE1150:
 6806               	.LBE1149:
 6807               	.LBB1151:
 6808               	.LBB1152:
 6809               	.LM634:
 6810 2150 2484      		ldd r2,Z+12
 6811 2152 3584      		ldd r3,Z+13
 6812 2154 4684      		ldd r4,Z+14
 6813 2156 5784      		ldd r5,Z+15
 6814               	.LVL453:
 6815               	.LBE1152:
 6816               	.LBE1151:
 6817               	.LM635:
 6818 2158 2081      		ld r18,Z
 6819 215a 3181      		ldd r19,Z+1
 6820 215c 40E0      		ldi r20,lo8(0)
 6821 215e 50E0      		ldi r21,hi8(0)
 6822 2160 6B81      		ldd r22,Y+3
 6823 2162 7C81      		ldd r23,Y+4
 6824 2164 8D81      		ldd r24,Y+5
 6825 2166 9E81      		ldd r25,Y+6
 6826 2168 0E94 0000 		call __divmodsi4
 6827 216c 7B01      		movw r14,r22
 6828 216e 8C01      		movw r16,r24
 6829               	.LM636:
 6830 2170 AF81      		ldd r26,Y+7
 6831 2172 B885      		ldd r27,Y+8
 6832 2174 2D91      		ld r18,X+
 6833 2176 3C91      		ld r19,X
 6834 2178 40E0      		ldi r20,lo8(0)
 6835 217a 50E0      		ldi r21,hi8(0)
 6836 217c 6B81      		ldd r22,Y+3
 6837 217e 7C81      		ldd r23,Y+4
 6838 2180 8D81      		ldd r24,Y+5
 6839 2182 9E81      		ldd r25,Y+6
 6840 2184 0E94 0000 		call __divmodsi4
 6841 2188 C901      		movw r24,r18
 6842 218a DA01      		movw r26,r20
 6843 218c 3C01      		movw r6,r24
 6844 218e 4D01      		movw r8,r26
 6845               	.LVL454:
 6846               	.LM637:
 6847 2190 5601      		movw r10,r12
 6848               	.LVL455:
 6849 2192 CC24      		clr r12
 6850 2194 DD24      		clr r13
 6851               	.LVL456:
 6852 2196 AE0C      		add r10,r14
 6853 2198 BF1C      		adc r11,r15
 6854 219a C01E      		adc r12,r16
 6855 219c D11E      		adc r13,r17
 6856               	.LVL457:
 6857               	.LM638:
 6858 219e EF81      		ldd r30,Y+7
 6859 21a0 F885      		ldd r31,Y+8
 6860 21a2 8081      		ld r24,Z
 6861 21a4 9181      		ldd r25,Z+1
 6862               	.LVL458:
 6863 21a6 A0E0      		ldi r26,lo8(0)
 6864 21a8 B0E0      		ldi r27,hi8(0)
 6865 21aa A816      		cp r10,r24
 6866 21ac B906      		cpc r11,r25
 6867 21ae CA06      		cpc r12,r26
 6868 21b0 DB06      		cpc r13,r27
 6869 21b2 04F0      		brlt .L326
 6870               	.LM639:
 6871 21b4 0894      		sec
 6872 21b6 611C      		adc r6,__zero_reg__
 6873 21b8 711C      		adc r7,__zero_reg__
 6874 21ba 811C      		adc r8,__zero_reg__
 6875 21bc 911C      		adc r9,__zero_reg__
 6876               	.LM640:
 6877 21be 2081      		ld r18,Z
 6878 21c0 3181      		ldd r19,Z+1
 6879 21c2 40E0      		ldi r20,lo8(0)
 6880 21c4 50E0      		ldi r21,hi8(0)
 6881 21c6 C601      		movw r24,r12
 6882 21c8 B501      		movw r22,r10
 6883 21ca 0E94 0000 		call __divmodsi4
 6884 21ce AC01      		movw r20,r24
 6885 21d0 CB01      		movw r24,r22
 6886 21d2 DA01      		movw r26,r20
 6887 21d4 5C01      		movw r10,r24
 6888 21d6 6D01      		movw r12,r26
 6889               	.L326:
 6890               	.LBB1153:
 6891               	.LBB1154:
 6892               	.LM641:
 6893 21d8 85E1      		ldi r24,lo8(21)
 6894 21da 90E0      		ldi r25,hi8(21)
 6895 21dc 2981      		ldd r18,Y+1
 6896 21de 3A81      		ldd r19,Y+2
 6897 21e0 289F      		mul r18,r24
 6898 21e2 F001      		movw r30,r0
 6899 21e4 299F      		mul r18,r25
 6900 21e6 F00D      		add r31,r0
 6901 21e8 389F      		mul r19,r24
 6902 21ea F00D      		add r31,r0
 6903 21ec 1124      		clr r1
 6904 21ee 8F81      		ldd r24,Y+7
 6905 21f0 9885      		ldd r25,Y+8
 6906 21f2 E80F      		add r30,r24
 6907 21f4 F91F      		adc r31,r25
 6908 21f6 EB5A      		subi r30,lo8(-(85))
 6909 21f8 FF4F      		sbci r31,hi8(-(85))
 6910 21fa 260C      		add r2,r6
 6911 21fc 371C      		adc r3,r7
 6912 21fe 481C      		adc r4,r8
 6913 2200 591C      		adc r5,r9
 6914 2202 2192      		st Z+,r2
 6915 2204 3192      		st Z+,r3
 6916 2206 4192      		st Z+,r4
 6917 2208 5192      		st Z+,r5
 6918               	.LBE1154:
 6919               	.LBE1153:
 6920               	.LBB1155:
 6921               	.LBB1156:
 6922               	.LM642:
 6923 220a A082      		st Z,r10
 6924 220c B182      		std Z+1,r11
 6925 220e C282      		std Z+2,r12
 6926 2210 D382      		std Z+3,r13
 6927               	.LBE1156:
 6928               	.LBE1155:
 6929               	.LBB1157:
 6930               	.LBB1158:
 6931               	.LM643:
 6932 2212 3C96      		adiw r30,12
 6933 2214 8B81      		ldd r24,Y+3
 6934 2216 9C81      		ldd r25,Y+4
 6935 2218 AD81      		ldd r26,Y+5
 6936 221a BE81      		ldd r27,Y+6
 6937 221c 8083      		st Z,r24
 6938 221e 9183      		std Z+1,r25
 6939 2220 A283      		std Z+2,r26
 6940 2222 B383      		std Z+3,r27
 6941               	.LBE1158:
 6942               	.LBE1157:
 6943               	.LBB1159:
 6944               	.LBB1160:
 6945               	.LM644:
 6946 2224 7197      		sbiw r30,17
 6947 2226 9081      		ld r25,Z
 6948 2228 892F      		mov r24,r25
 6949 222a 8695      		lsr r24
 6950 222c 8F70      		andi r24,lo8(15)
 6951 222e 8130      		cpi r24,lo8(1)
 6952 2230 01F0      		breq .L327
 6953               	.LBB1161:
 6954               	.LBB1162:
 6955               	.LM645:
 6956 2232 917E      		andi r25,lo8(-31)
 6957 2234 9260      		ori r25,lo8(2)
 6958 2236 9083      		st Z,r25
 6959               	.LVL459:
 6960               	.L327:
 6961               	/* epilogue start */
 6962               	.LBE1162:
 6963               	.LBE1161:
 6964               	.LBE1160:
 6965               	.LBE1159:
 6966               	.LM646:
 6967 2238 2896      		adiw r28,8
 6968 223a 0FB6      		in __tmp_reg__,__SREG__
 6969 223c F894      		cli
 6970 223e DEBF      		out __SP_H__,r29
 6971 2240 0FBE      		out __SREG__,__tmp_reg__
 6972 2242 CDBF      		out __SP_L__,r28
 6973 2244 CF91      		pop r28
 6974 2246 DF91      		pop r29
 6975 2248 1F91      		pop r17
 6976 224a 0F91      		pop r16
 6977 224c FF90      		pop r15
 6978 224e EF90      		pop r14
 6979 2250 DF90      		pop r13
 6980 2252 CF90      		pop r12
 6981               	.LVL460:
 6982 2254 BF90      		pop r11
 6983 2256 AF90      		pop r10
 6984               	.LVL461:
 6985 2258 9F90      		pop r9
 6986 225a 8F90      		pop r8
 6987 225c 7F90      		pop r7
 6988 225e 6F90      		pop r6
 6989               	.LVL462:
 6990 2260 5F90      		pop r5
 6991 2262 4F90      		pop r4
 6992 2264 3F90      		pop r3
 6993 2266 2F90      		pop r2
 6994               	.LVL463:
 6995 2268 0895      		ret
 6996               	.LFE123:
 6998               	.global	Timebase_DownCounter_SS_Set_Forcefully
 7000               	Timebase_DownCounter_SS_Set_Forcefully:
 7001               	.LFB124:
 7002               	.LM647:
 7003               	.LVL464:
 7004 226a CF92      		push r12
 7005 226c DF92      		push r13
 7006 226e EF92      		push r14
 7007 2270 FF92      		push r15
 7008 2272 0F93      		push r16
 7009 2274 1F93      		push r17
 7010               	/* prologue: function */
 7011               	/* frame size = 0 */
 7012 2276 7A01      		movw r14,r20
 7013 2278 8B01      		movw r16,r22
 7014               	.LBB1163:
 7015               	.LBB1164:
 7016               	.LBB1165:
 7017               	.LBB1166:
 7018               	.LM648:
 7019 227a E091 0000 		lds r30,Timebase
 7020 227e F091 0000 		lds r31,(Timebase)+1
 7021 2282 482F      		mov r20,r24
 7022               	.LVL465:
 7023 2284 50E0      		ldi r21,lo8(0)
 7024 2286 25E1      		ldi r18,lo8(21)
 7025 2288 30E0      		ldi r19,hi8(21)
 7026 228a 429F      		mul r20,r18
 7027 228c 6001      		movw r12,r0
 7028 228e 439F      		mul r20,r19
 7029 2290 D00C      		add r13,r0
 7030 2292 529F      		mul r21,r18
 7031 2294 D00C      		add r13,r0
 7032 2296 1124      		clr r1
 7033 2298 EC0D      		add r30,r12
 7034 229a FD1D      		adc r31,r13
 7035 229c E75A      		subi r30,lo8(-(89))
 7036 229e FF4F      		sbci r31,hi8(-(89))
 7037 22a0 1082      		st Z,__zero_reg__
 7038 22a2 1182      		std Z+1,__zero_reg__
 7039 22a4 1282      		std Z+2,__zero_reg__
 7040 22a6 1382      		std Z+3,__zero_reg__
 7041               	.LBE1166:
 7042               	.LBE1165:
 7043               	.LBB1167:
 7044               	.LBB1168:
 7045               	.LM649:
 7046 22a8 1292      		st -Z,__zero_reg__
 7047 22aa 1292      		st -Z,__zero_reg__
 7048 22ac 1292      		st -Z,__zero_reg__
 7049 22ae 1292      		st -Z,__zero_reg__
 7050               	.LBE1168:
 7051               	.LBE1167:
 7052               	.LBB1169:
 7053               	.LBB1170:
 7054               	.LM650:
 7055 22b0 3896      		adiw r30,8
 7056 22b2 1082      		st Z,__zero_reg__
 7057 22b4 1182      		std Z+1,__zero_reg__
 7058 22b6 1282      		std Z+2,__zero_reg__
 7059 22b8 1382      		std Z+3,__zero_reg__
 7060 22ba ED55      		subi r30,lo8(-(-93))
 7061 22bc F040      		sbci r31,hi8(-(-93))
 7062               	.LBE1170:
 7063               	.LBE1169:
 7064               	.LBB1171:
 7065               	.LBB1172:
 7066               	.LM651:
 7067 22be DF01      		movw r26,r30
 7068 22c0 AC5A      		subi r26,lo8(-(84))
 7069 22c2 BF4F      		sbci r27,hi8(-(84))
 7070 22c4 9C91      		ld r25,X
 7071               	.LBE1172:
 7072               	.LBE1171:
 7073               	.LBB1173:
 7074               	.LBB1174:
 7075               	.LM652:
 7076 22c6 907E      		andi r25,lo8(-32)
 7077 22c8 9C93      		st X,r25
 7078               	.LBE1174:
 7079               	.LBE1173:
 7080               	.LBB1175:
 7081               	.LBB1176:
 7082               	.LM653:
 7083 22ca EB59      		subi r30,lo8(-(101))
 7084 22cc FF4F      		sbci r31,hi8(-(101))
 7085 22ce 1082      		st Z,__zero_reg__
 7086 22d0 1182      		std Z+1,__zero_reg__
 7087 22d2 1282      		std Z+2,__zero_reg__
 7088 22d4 1382      		std Z+3,__zero_reg__
 7089               	.LBE1176:
 7090               	.LBE1175:
 7091               	.LBE1164:
 7092               	.LBE1163:
 7093               	.LM654:
 7094 22d6 B801      		movw r22,r16
 7095 22d8 A701      		movw r20,r14
 7096 22da 0E94 0000 		call Timebase_DownCounter_SS_Set_Securely
 7097               	.LVL466:
 7098               	.LBB1177:
 7099               	.LBB1178:
 7100               	.LM655:
 7101 22de E091 0000 		lds r30,Timebase
 7102 22e2 F091 0000 		lds r31,(Timebase)+1
 7103 22e6 EC0D      		add r30,r12
 7104 22e8 FD1D      		adc r31,r13
 7105 22ea EB59      		subi r30,lo8(-(101))
 7106 22ec FF4F      		sbci r31,hi8(-(101))
 7107 22ee E082      		st Z,r14
 7108 22f0 F182      		std Z+1,r15
 7109 22f2 0283      		std Z+2,r16
 7110 22f4 1383      		std Z+3,r17
 7111               	/* epilogue start */
 7112               	.LBE1178:
 7113               	.LBE1177:
 7114               	.LM656:
 7115 22f6 1F91      		pop r17
 7116 22f8 0F91      		pop r16
 7117 22fa FF90      		pop r15
 7118 22fc EF90      		pop r14
 7119               	.LVL467:
 7120 22fe DF90      		pop r13
 7121 2300 CF90      		pop r12
 7122 2302 0895      		ret
 7123               	.LFE124:
 7125               	.global	Timebase_DownCounter_SS_Update
 7127               	Timebase_DownCounter_SS_Update:
 7128               	.LFB125:
 7129               	.LM657:
 7130               	.LVL468:
 7131 2304 2F92      		push r2
 7132 2306 3F92      		push r3
 7133 2308 4F92      		push r4
 7134 230a 5F92      		push r5
 7135 230c 6F92      		push r6
 7136 230e 7F92      		push r7
 7137 2310 8F92      		push r8
 7138 2312 9F92      		push r9
 7139 2314 AF92      		push r10
 7140 2316 BF92      		push r11
 7141 2318 CF92      		push r12
 7142 231a DF92      		push r13
 7143 231c EF92      		push r14
 7144 231e FF92      		push r15
 7145 2320 0F93      		push r16
 7146 2322 1F93      		push r17
 7147 2324 CF93      		push r28
 7148 2326 DF93      		push r29
 7149               	/* prologue: function */
 7150               	/* frame size = 0 */
 7151               	.LBB1179:
 7152               	.LBB1180:
 7153               	.LM658:
 7154 2328 E091 0000 		lds r30,Timebase
 7155 232c F091 0000 		lds r31,(Timebase)+1
 7156 2330 90E0      		ldi r25,lo8(0)
 7157 2332 25E1      		ldi r18,lo8(21)
 7158 2334 30E0      		ldi r19,hi8(21)
 7159 2336 829F      		mul r24,r18
 7160 2338 E001      		movw r28,r0
 7161 233a 839F      		mul r24,r19
 7162 233c D00D      		add r29,r0
 7163 233e 929F      		mul r25,r18
 7164 2340 D00D      		add r29,r0
 7165 2342 1124      		clr r1
 7166               	.LVL469:
 7167 2344 CE0F      		add r28,r30
 7168 2346 DF1F      		adc r29,r31
 7169 2348 94E5      		ldi r25,lo8(84)
 7170 234a C92E      		mov r12,r25
 7171 234c D12C      		mov r13,__zero_reg__
 7172 234e CC0E      		add r12,r28
 7173 2350 DD1E      		adc r13,r29
 7174 2352 D601      		movw r26,r12
 7175 2354 8C91      		ld r24,X
 7176 2356 8695      		lsr r24
 7177 2358 8F70      		andi r24,lo8(15)
 7178               	.LBE1180:
 7179               	.LBE1179:
 7180               	.LM659:
 7181 235a 8130      		cpi r24,lo8(1)
 7182 235c 01F0      		breq .+2
 7183 235e 00C0      		rjmp .L331
 7184               	.LBB1181:
 7185               	.LBB1182:
 7186               	.LM660:
 7187 2360 E284      		ldd r14,Z+10
 7188 2362 F384      		ldd r15,Z+11
 7189               	.LBE1182:
 7190               	.LBE1181:
 7191               	.LM661:
 7192 2364 00E0      		ldi r16,lo8(0)
 7193 2366 10E0      		ldi r17,hi8(0)
 7194               	.LVL470:
 7195               	.LBB1183:
 7196               	.LBB1184:
 7197               	.LM662:
 7198 2368 6484      		ldd r6,Z+12
 7199 236a 7584      		ldd r7,Z+13
 7200 236c 8684      		ldd r8,Z+14
 7201 236e 9784      		ldd r9,Z+15
 7202               	.LVL471:
 7203               	.LBE1184:
 7204               	.LBE1183:
 7205               	.LM663:
 7206 2370 85E5      		ldi r24,lo8(85)
 7207 2372 A82E      		mov r10,r24
 7208 2374 B12C      		mov r11,__zero_reg__
 7209 2376 AC0E      		add r10,r28
 7210 2378 BD1E      		adc r11,r29
 7211 237a D501      		movw r26,r10
 7212 237c 2D91      		ld r18,X+
 7213 237e 3D91      		ld r19,X+
 7214 2380 4D91      		ld r20,X+
 7215 2382 5C91      		ld r21,X
 7216 2384 2619      		sub r18,r6
 7217 2386 3709      		sbc r19,r7
 7218 2388 4809      		sbc r20,r8
 7219 238a 5909      		sbc r21,r9
 7220               	.LM664:
 7221 238c 6081      		ld r22,Z
 7222 238e 7181      		ldd r23,Z+1
 7223               	.LM665:
 7224 2390 80E0      		ldi r24,lo8(0)
 7225 2392 90E0      		ldi r25,hi8(0)
 7226 2394 0E94 0000 		call __mulsi3
 7227 2398 6E19      		sub r22,r14
 7228 239a 7F09      		sbc r23,r15
 7229 239c 800B      		sbc r24,r16
 7230 239e 910B      		sbc r25,r17
 7231               	.LVL472:
 7232               	.LM666:
 7233 23a0 DE01      		movw r26,r28
 7234 23a2 A75A      		subi r26,lo8(-(89))
 7235 23a4 BF4F      		sbci r27,hi8(-(89))
 7236 23a6 2D91      		ld r18,X+
 7237 23a8 3D91      		ld r19,X+
 7238 23aa 4D91      		ld r20,X+
 7239 23ac 5C91      		ld r21,X
 7240 23ae 1397      		sbiw r26,3
 7241 23b0 620F      		add r22,r18
 7242 23b2 731F      		adc r23,r19
 7243 23b4 841F      		adc r24,r20
 7244 23b6 951F      		adc r25,r21
 7245               	.LBB1185:
 7246               	.LBB1186:
 7247               	.LM667:
 7248 23b8 FE01      		movw r30,r28
 7249 23ba E35A      		subi r30,lo8(-(93))
 7250 23bc FF4F      		sbci r31,hi8(-(93))
 7251 23be 6083      		st Z,r22
 7252 23c0 7183      		std Z+1,r23
 7253 23c2 8283      		std Z+2,r24
 7254 23c4 9383      		std Z+3,r25
 7255               	.LBE1186:
 7256               	.LBE1185:
 7257               	.LM668:
 7258 23c6 1616      		cp __zero_reg__,r22
 7259 23c8 1706      		cpc __zero_reg__,r23
 7260 23ca 1806      		cpc __zero_reg__,r24
 7261 23cc 1906      		cpc __zero_reg__,r25
 7262 23ce 04F4      		brge .+2
 7263 23d0 00C0      		rjmp .L333
 7264               	.LBB1187:
 7265               	.LBB1188:
 7266               	.LBB1189:
 7267               	.LBB1190:
 7268               	.LM669:
 7269 23d2 1D92      		st X+,__zero_reg__
 7270 23d4 1D92      		st X+,__zero_reg__
 7271 23d6 1D92      		st X+,__zero_reg__
 7272 23d8 1C92      		st X,__zero_reg__
 7273 23da 1397      		sbiw r26,3
 7274               	.LBE1190:
 7275               	.LBE1189:
 7276               	.LBB1191:
 7277               	.LBB1192:
 7278               	.LM670:
 7279 23dc D501      		movw r26,r10
 7280 23de 1D92      		st X+,__zero_reg__
 7281 23e0 1D92      		st X+,__zero_reg__
 7282 23e2 1D92      		st X+,__zero_reg__
 7283 23e4 1C92      		st X,__zero_reg__
 7284 23e6 1397      		sbiw r26,3
 7285               	.LBE1192:
 7286               	.LBE1191:
 7287               	.LBB1193:
 7288               	.LBB1194:
 7289               	.LM671:
 7290 23e8 1082      		st Z,__zero_reg__
 7291 23ea 1182      		std Z+1,__zero_reg__
 7292 23ec 1282      		std Z+2,__zero_reg__
 7293 23ee 1382      		std Z+3,__zero_reg__
 7294               	.LBE1194:
 7295               	.LBE1193:
 7296               	.LBB1195:
 7297               	.LBB1196:
 7298               	.LM672:
 7299 23f0 F601      		movw r30,r12
 7300 23f2 8081      		ld r24,Z
 7301 23f4 8E7F      		andi r24,lo8(-2)
 7302 23f6 8083      		st Z,r24
 7303               	.LBE1196:
 7304               	.LBE1195:
 7305               	.LBB1197:
 7306               	.LBB1198:
 7307               	.LM673:
 7308 23f8 CB59      		subi r28,lo8(-(101))
 7309 23fa DF4F      		sbci r29,hi8(-(101))
 7310 23fc 1882      		st Y,__zero_reg__
 7311 23fe 1982      		std Y+1,__zero_reg__
 7312 2400 1A82      		std Y+2,__zero_reg__
 7313 2402 1B82      		std Y+3,__zero_reg__
 7314               	.LBE1198:
 7315               	.LBE1197:
 7316               	.LBE1188:
 7317               	.LBE1187:
 7318               	.LBB1199:
 7319               	.LBB1200:
 7320               	.LM674:
 7321 2404 8081      		ld r24,Z
 7322 2406 817E      		andi r24,lo8(-31)
 7323 2408 8860      		ori r24,lo8(8)
 7324 240a 8083      		st Z,r24
 7325 240c 00C0      		rjmp .L333
 7326               	.LVL473:
 7327               	.L331:
 7328               	.LBE1200:
 7329               	.LBE1199:
 7330               	.LM675:
 7331 240e 8230      		cpi r24,lo8(2)
 7332 2410 01F4      		brne .L333
 7333               	.LBB1201:
 7334               	.LBB1202:
 7335               	.LM676:
 7336 2412 6284      		ldd r6,Z+10
 7337 2414 7384      		ldd r7,Z+11
 7338               	.LBE1202:
 7339               	.LBE1201:
 7340               	.LBB1203:
 7341               	.LBB1204:
 7342               	.LM677:
 7343 2416 E484      		ldd r14,Z+12
 7344 2418 F584      		ldd r15,Z+13
 7345 241a 0685      		ldd r16,Z+14
 7346 241c 1785      		ldd r17,Z+15
 7347               	.LVL474:
 7348               	.LBE1204:
 7349               	.LBE1203:
 7350               	.LBB1205:
 7351               	.LBB1206:
 7352               	.LM678:
 7353 241e C35A      		subi r28,lo8(-(93))
 7354 2420 DF4F      		sbci r29,hi8(-(93))
 7355 2422 2880      		ld r2,Y
 7356 2424 3980      		ldd r3,Y+1
 7357 2426 4A80      		ldd r4,Y+2
 7358 2428 5B80      		ldd r5,Y+3
 7359               	.LVL475:
 7360               	.LBE1206:
 7361               	.LBE1205:
 7362               	.LM679:
 7363 242a 2081      		ld r18,Z
 7364 242c 3181      		ldd r19,Z+1
 7365               	.LM680:
 7366 242e A080      		ld r10,Z
 7367 2430 B180      		ldd r11,Z+1
 7368               	.LBB1207:
 7369               	.LBB1208:
 7370               	.LM681:
 7371 2432 2897      		sbiw r28,8
 7372 2434 40E0      		ldi r20,lo8(0)
 7373 2436 50E0      		ldi r21,hi8(0)
 7374 2438 C201      		movw r24,r4
 7375 243a B101      		movw r22,r2
 7376 243c 0E94 0000 		call __divmodsi4
 7377 2440 E20E      		add r14,r18
 7378 2442 F31E      		adc r15,r19
 7379 2444 041F      		adc r16,r20
 7380 2446 151F      		adc r17,r21
 7381 2448 E992      		st Y+,r14
 7382 244a F992      		st Y+,r15
 7383 244c 0993      		st Y+,r16
 7384 244e 1993      		st Y+,r17
 7385               	.LBE1208:
 7386               	.LBE1207:
 7387               	.LBB1209:
 7388               	.LBB1210:
 7389               	.LM682:
 7390 2450 CC24      		clr r12
 7391 2452 DD24      		clr r13
 7392 2454 C201      		movw r24,r4
 7393 2456 B101      		movw r22,r2
 7394 2458 A601      		movw r20,r12
 7395 245a 9501      		movw r18,r10
 7396 245c 0E94 0000 		call __divmodsi4
 7397 2460 8824      		clr r8
 7398 2462 9924      		clr r9
 7399 2464 660E      		add r6,r22
 7400 2466 771E      		adc r7,r23
 7401 2468 881E      		adc r8,r24
 7402 246a 991E      		adc r9,r25
 7403 246c 6882      		st Y,r6
 7404 246e 7982      		std Y+1,r7
 7405 2470 8A82      		std Y+2,r8
 7406 2472 9B82      		std Y+3,r9
 7407               	.LVL476:
 7408               	.L333:
 7409               	/* epilogue start */
 7410               	.LBE1210:
 7411               	.LBE1209:
 7412               	.LM683:
 7413 2474 DF91      		pop r29
 7414 2476 CF91      		pop r28
 7415 2478 1F91      		pop r17
 7416 247a 0F91      		pop r16
 7417               	.LVL477:
 7418 247c FF90      		pop r15
 7419 247e EF90      		pop r14
 7420               	.LVL478:
 7421 2480 DF90      		pop r13
 7422 2482 CF90      		pop r12
 7423 2484 BF90      		pop r11
 7424 2486 AF90      		pop r10
 7425 2488 9F90      		pop r9
 7426 248a 8F90      		pop r8
 7427 248c 7F90      		pop r7
 7428 248e 6F90      		pop r6
 7429 2490 5F90      		pop r5
 7430 2492 4F90      		pop r4
 7431 2494 3F90      		pop r3
 7432 2496 2F90      		pop r2
 7433               	.LVL479:
 7434 2498 0895      		ret
 7435               	.LFE125:
 7437               	.global	Timebase_DownCounter_SS_Expired
 7439               	Timebase_DownCounter_SS_Expired:
 7440               	.LFB126:
 7441               	.LM684:
 7442               	.LVL480:
 7443               	/* prologue: function */
 7444               	/* frame size = 0 */
 7445               	.LM685:
 7446 249a 40E0      		ldi r20,lo8(0)
 7447 249c E091 0000 		lds r30,Timebase
 7448 24a0 F091 0000 		lds r31,(Timebase)+1
 7449 24a4 90E0      		ldi r25,lo8(0)
 7450               	.LVL481:
 7451 24a6 25E1      		ldi r18,lo8(21)
 7452 24a8 30E0      		ldi r19,hi8(21)
 7453 24aa BC01      		movw r22,r24
 7454 24ac 629F      		mul r22,r18
 7455 24ae C001      		movw r24,r0
 7456 24b0 639F      		mul r22,r19
 7457 24b2 900D      		add r25,r0
 7458 24b4 729F      		mul r23,r18
 7459 24b6 900D      		add r25,r0
 7460 24b8 1124      		clr r1
 7461               	.LVL482:
 7462 24ba E80F      		add r30,r24
 7463 24bc F91F      		adc r31,r25
 7464 24be EC5A      		subi r30,lo8(-(84))
 7465 24c0 FF4F      		sbci r31,hi8(-(84))
 7466 24c2 8081      		ld r24,Z
 7467 24c4 8695      		lsr r24
 7468 24c6 8F70      		andi r24,lo8(15)
 7469 24c8 8430      		cpi r24,lo8(4)
 7470 24ca 01F4      		brne .L335
 7471 24cc 41E0      		ldi r20,lo8(1)
 7472               	.L335:
 7473               	.LM686:
 7474 24ce 842F      		mov r24,r20
 7475               	/* epilogue start */
 7476 24d0 0895      		ret
 7477               	.LFE126:
 7479               	.global	Timebase_DownCounter_SS_Expired_Event
 7481               	Timebase_DownCounter_SS_Expired_Event:
 7482               	.LFB127:
 7483               	.LM687:
 7484               	.LVL483:
 7485               	/* prologue: function */
 7486               	/* frame size = 0 */
 7487               	.LBB1211:
 7488               	.LBB1212:
 7489               	.LM688:
 7490 24d2 E091 0000 		lds r30,Timebase
 7491 24d6 F091 0000 		lds r31,(Timebase)+1
 7492 24da 90E0      		ldi r25,lo8(0)
 7493               	.LBE1212:
 7494               	.LBE1211:
 7495               	.LM689:
 7496 24dc 25E1      		ldi r18,lo8(21)
 7497 24de 30E0      		ldi r19,hi8(21)
 7498 24e0 AC01      		movw r20,r24
 7499               	.LVL484:
 7500 24e2 429F      		mul r20,r18
 7501 24e4 C001      		movw r24,r0
 7502 24e6 439F      		mul r20,r19
 7503 24e8 900D      		add r25,r0
 7504 24ea 529F      		mul r21,r18
 7505 24ec 900D      		add r25,r0
 7506 24ee 1124      		clr r1
 7507 24f0 E80F      		add r30,r24
 7508 24f2 F91F      		adc r31,r25
 7509 24f4 DF01      		movw r26,r30
 7510 24f6 AC5A      		subi r26,lo8(-(84))
 7511 24f8 BF4F      		sbci r27,hi8(-(84))
 7512 24fa 8C91      		ld r24,X
 7513 24fc 8695      		lsr r24
 7514 24fe 8F70      		andi r24,lo8(15)
 7515 2500 8430      		cpi r24,lo8(4)
 7516 2502 01F0      		breq .L338
 7517 2504 80E0      		ldi r24,lo8(0)
 7518 2506 0895      		ret
 7519               	.L338:
 7520               	.LBB1213:
 7521               	.LBB1214:
 7522               	.LBB1215:
 7523               	.LBB1216:
 7524               	.LBB1217:
 7525               	.LBB1218:
 7526               	.LM690:
 7527 2508 E75A      		subi r30,lo8(-(89))
 7528 250a FF4F      		sbci r31,hi8(-(89))
 7529 250c 1082      		st Z,__zero_reg__
 7530 250e 1182      		std Z+1,__zero_reg__
 7531 2510 1282      		std Z+2,__zero_reg__
 7532 2512 1382      		std Z+3,__zero_reg__
 7533               	.LBE1218:
 7534               	.LBE1217:
 7535               	.LBB1219:
 7536               	.LBB1220:
 7537               	.LM691:
 7538 2514 1292      		st -Z,__zero_reg__
 7539 2516 1292      		st -Z,__zero_reg__
 7540 2518 1292      		st -Z,__zero_reg__
 7541 251a 1292      		st -Z,__zero_reg__
 7542               	.LBE1220:
 7543               	.LBE1219:
 7544               	.LBB1221:
 7545               	.LBB1222:
 7546               	.LM692:
 7547 251c 3896      		adiw r30,8
 7548 251e 1082      		st Z,__zero_reg__
 7549 2520 1182      		std Z+1,__zero_reg__
 7550 2522 1282      		std Z+2,__zero_reg__
 7551 2524 1382      		std Z+3,__zero_reg__
 7552               	.LBE1222:
 7553               	.LBE1221:
 7554               	.LBB1223:
 7555               	.LBB1224:
 7556               	.LM693:
 7557 2526 8C91      		ld r24,X
 7558               	.LBE1224:
 7559               	.LBE1223:
 7560               	.LBB1225:
 7561               	.LBB1226:
 7562               	.LM694:
 7563 2528 807E      		andi r24,lo8(-32)
 7564 252a 8C93      		st X,r24
 7565               	.LBE1226:
 7566               	.LBE1225:
 7567               	.LBB1227:
 7568               	.LBB1228:
 7569               	.LM695:
 7570 252c 3896      		adiw r30,8
 7571 252e 1082      		st Z,__zero_reg__
 7572 2530 1182      		std Z+1,__zero_reg__
 7573 2532 1282      		std Z+2,__zero_reg__
 7574 2534 1382      		std Z+3,__zero_reg__
 7575 2536 81E0      		ldi r24,lo8(1)
 7576               	.LBE1228:
 7577               	.LBE1227:
 7578               	.LBE1216:
 7579               	.LBE1215:
 7580               	.LBE1214:
 7581               	.LBE1213:
 7582               	.LM696:
 7583 2538 0895      		ret
 7584               	.LFE127:
 7586               	.global	Timebase_DownCounter_SS_Oneshot_Expired_Event
 7588               	Timebase_DownCounter_SS_Oneshot_Expired_Event:
 7589               	.LFB128:
 7590               	.LM697:
 7591               	.LVL485:
 7592               	/* prologue: function */
 7593               	/* frame size = 0 */
 7594               	.LM698:
 7595 253a 0E94 0000 		call Timebase_DownCounter_SS_Expired_Event
 7596               	.LVL486:
 7597               	/* epilogue start */
 7598               	.LM699:
 7599 253e 0895      		ret
 7600               	.LFE128:
 7602               	.global	Timebase_DownCounter_SS_Continuous_Expired_Event
 7604               	Timebase_DownCounter_SS_Continuous_Expired_Event:
 7605               	.LFB129:
 7606               	.LM700:
 7607               	.LVL487:
 7608 2540 1F93      		push r17
 7609 2542 CF93      		push r28
 7610 2544 DF93      		push r29
 7611               	/* prologue: function */
 7612               	/* frame size = 0 */
 7613 2546 182F      		mov r17,r24
 7614               	.LBB1229:
 7615               	.LBB1230:
 7616               	.LM701:
 7617 2548 A091 0000 		lds r26,Timebase
 7618 254c B091 0000 		lds r27,(Timebase)+1
 7619 2550 282F      		mov r18,r24
 7620 2552 30E0      		ldi r19,lo8(0)
 7621               	.LBE1230:
 7622               	.LBE1229:
 7623               	.LM702:
 7624 2554 85E1      		ldi r24,lo8(21)
 7625 2556 90E0      		ldi r25,hi8(21)
 7626               	.LVL488:
 7627 2558 AC01      		movw r20,r24
 7628 255a 249F      		mul r18,r20
 7629 255c C001      		movw r24,r0
 7630 255e 259F      		mul r18,r21
 7631 2560 900D      		add r25,r0
 7632 2562 349F      		mul r19,r20
 7633 2564 900D      		add r25,r0
 7634 2566 1124      		clr r1
 7635 2568 A80F      		add r26,r24
 7636 256a B91F      		adc r27,r25
 7637 256c ED01      		movw r28,r26
 7638 256e CC5A      		subi r28,lo8(-(84))
 7639 2570 DF4F      		sbci r29,hi8(-(84))
 7640 2572 8881      		ld r24,Y
 7641 2574 8695      		lsr r24
 7642 2576 8F70      		andi r24,lo8(15)
 7643 2578 8430      		cpi r24,lo8(4)
 7644 257a 01F0      		breq .L344
 7645 257c 80E0      		ldi r24,lo8(0)
 7646 257e 00C0      		rjmp .L345
 7647               	.L344:
 7648               	.LBB1231:
 7649               	.LBB1232:
 7650               	.LBB1233:
 7651               	.LM703:
 7652 2580 FD01      		movw r30,r26
 7653 2582 EB59      		subi r30,lo8(-(101))
 7654 2584 FF4F      		sbci r31,hi8(-(101))
 7655 2586 4081      		ld r20,Z
 7656 2588 5181      		ldd r21,Z+1
 7657 258a 6281      		ldd r22,Z+2
 7658 258c 7381      		ldd r23,Z+3
 7659               	.LVL489:
 7660               	.LBE1233:
 7661               	.LBE1232:
 7662               	.LBB1234:
 7663               	.LBB1235:
 7664               	.LBB1236:
 7665               	.LBB1237:
 7666               	.LBB1238:
 7667               	.LBB1239:
 7668               	.LM704:
 7669 258e A75A      		subi r26,lo8(-(89))
 7670 2590 BF4F      		sbci r27,hi8(-(89))
 7671 2592 1D92      		st X+,__zero_reg__
 7672 2594 1D92      		st X+,__zero_reg__
 7673 2596 1D92      		st X+,__zero_reg__
 7674 2598 1C92      		st X,__zero_reg__
 7675 259a 1397      		sbiw r26,3
 7676               	.LBE1239:
 7677               	.LBE1238:
 7678               	.LBB1240:
 7679               	.LBB1241:
 7680               	.LM705:
 7681 259c 1E92      		st -X,__zero_reg__
 7682 259e 1E92      		st -X,__zero_reg__
 7683 25a0 1E92      		st -X,__zero_reg__
 7684 25a2 1E92      		st -X,__zero_reg__
 7685               	.LBE1241:
 7686               	.LBE1240:
 7687               	.LBB1242:
 7688               	.LBB1243:
 7689               	.LM706:
 7690 25a4 1896      		adiw r26,8
 7691 25a6 1D92      		st X+,__zero_reg__
 7692 25a8 1D92      		st X+,__zero_reg__
 7693 25aa 1D92      		st X+,__zero_reg__
 7694 25ac 1C92      		st X,__zero_reg__
 7695 25ae 1397      		sbiw r26,3
 7696               	.LBE1243:
 7697               	.LBE1242:
 7698               	.LBB1244:
 7699               	.LBB1245:
 7700               	.LM707:
 7701 25b0 8881      		ld r24,Y
 7702               	.LBE1245:
 7703               	.LBE1244:
 7704               	.LBB1246:
 7705               	.LBB1247:
 7706               	.LM708:
 7707 25b2 807E      		andi r24,lo8(-32)
 7708 25b4 8883      		st Y,r24
 7709               	.LBE1247:
 7710               	.LBE1246:
 7711               	.LBB1248:
 7712               	.LBB1249:
 7713               	.LM709:
 7714 25b6 1082      		st Z,__zero_reg__
 7715 25b8 1182      		std Z+1,__zero_reg__
 7716 25ba 1282      		std Z+2,__zero_reg__
 7717 25bc 1382      		std Z+3,__zero_reg__
 7718               	.LBE1249:
 7719               	.LBE1248:
 7720               	.LBE1237:
 7721               	.LBE1236:
 7722               	.LBE1235:
 7723               	.LBE1234:
 7724               	.LM710:
 7725 25be 812F      		mov r24,r17
 7726 25c0 0E94 0000 		call Timebase_DownCounter_SS_Set_Securely
 7727               	.LVL490:
 7728 25c4 81E0      		ldi r24,lo8(1)
 7729               	.L345:
 7730               	/* epilogue start */
 7731               	.LBE1231:
 7732               	.LM711:
 7733 25c6 DF91      		pop r29
 7734 25c8 CF91      		pop r28
 7735 25ca 1F91      		pop r17
 7736               	.LVL491:
 7737 25cc 0895      		ret
 7738               	.LFE129:
 7740               	.global	Timebase_DownCounter_SS_Set_Period_Value_Securely
 7742               	Timebase_DownCounter_SS_Set_Period_Value_Securely:
 7743               	.LFB130:
 7744               	.LM712:
 7745               	.LVL492:
 7746 25ce CF93      		push r28
 7747 25d0 DF93      		push r29
 7748               	/* prologue: function */
 7749               	/* frame size = 0 */
 7750               	.LBB1250:
 7751               	.LBB1251:
 7752               	.LM713:
 7753 25d2 C091 0000 		lds r28,Timebase
 7754 25d6 D091 0000 		lds r29,(Timebase)+1
 7755 25da 282F      		mov r18,r24
 7756 25dc 30E0      		ldi r19,lo8(0)
 7757               	.LBE1251:
 7758               	.LBE1250:
 7759               	.LM714:
 7760 25de 85E1      		ldi r24,lo8(21)
 7761 25e0 90E0      		ldi r25,hi8(21)
 7762               	.LVL493:
 7763 25e2 289F      		mul r18,r24
 7764 25e4 F001      		movw r30,r0
 7765 25e6 299F      		mul r18,r25
 7766 25e8 F00D      		add r31,r0
 7767 25ea 389F      		mul r19,r24
 7768 25ec F00D      		add r31,r0
 7769 25ee 1124      		clr r1
 7770 25f0 EC0F      		add r30,r28
 7771 25f2 FD1F      		adc r31,r29
 7772 25f4 EC5A      		subi r30,lo8(-(84))
 7773 25f6 FF4F      		sbci r31,hi8(-(84))
 7774 25f8 8081      		ld r24,Z
 7775 25fa E455      		subi r30,lo8(-(-84))
 7776 25fc F040      		sbci r31,hi8(-(-84))
 7777 25fe 80FD      		sbrc r24,0
 7778 2600 00C0      		rjmp .L351
 7779               	.LM715:
 7780 2602 E35A      		subi r30,lo8(-(93))
 7781 2604 FF4F      		sbci r31,hi8(-(93))
 7782 2606 8191      		ld r24,Z+
 7783 2608 9191      		ld r25,Z+
 7784 260a A191      		ld r26,Z+
 7785 260c B191      		ld r27,Z+
 7786 260e 841B      		sub r24,r20
 7787 2610 950B      		sbc r25,r21
 7788 2612 A60B      		sbc r26,r22
 7789 2614 B70B      		sbc r27,r23
 7790               	.LBB1252:
 7791               	.LBB1253:
 7792               	.LM716:
 7793 2616 B7FF      		sbrs r27,7
 7794 2618 00C0      		rjmp .L349
 7795               	.LM717:
 7796 261a 1082      		st Z,__zero_reg__
 7797 261c 1182      		std Z+1,__zero_reg__
 7798 261e 1282      		std Z+2,__zero_reg__
 7799 2620 1382      		std Z+3,__zero_reg__
 7800 2622 00C0      		rjmp .L350
 7801               	.L349:
 7802               	.LM718:
 7803 2624 8083      		st Z,r24
 7804 2626 9183      		std Z+1,r25
 7805 2628 A283      		std Z+2,r26
 7806 262a B383      		std Z+3,r27
 7807               	.L350:
 7808               	.LBE1253:
 7809               	.LBE1252:
 7810               	.LBB1254:
 7811               	.LBB1255:
 7812               	.LM719:
 7813 262c 85E1      		ldi r24,lo8(21)
 7814 262e 90E0      		ldi r25,hi8(21)
 7815 2630 289F      		mul r18,r24
 7816 2632 F001      		movw r30,r0
 7817 2634 299F      		mul r18,r25
 7818 2636 F00D      		add r31,r0
 7819 2638 389F      		mul r19,r24
 7820 263a F00D      		add r31,r0
 7821 263c 1124      		clr r1
 7822 263e EC0F      		add r30,r28
 7823 2640 FD1F      		adc r31,r29
 7824 2642 EC5A      		subi r30,lo8(-(84))
 7825 2644 FF4F      		sbci r31,hi8(-(84))
 7826 2646 8081      		ld r24,Z
 7827 2648 8160      		ori r24,lo8(1)
 7828 264a 8083      		st Z,r24
 7829               	.L351:
 7830               	/* epilogue start */
 7831               	.LBE1255:
 7832               	.LBE1254:
 7833               	.LM720:
 7834 264c DF91      		pop r29
 7835 264e CF91      		pop r28
 7836 2650 0895      		ret
 7837               	.LFE130:
 7839               	.global	Timebase_DownCounter_SS_Get_Remaining_Period_Value
 7841               	Timebase_DownCounter_SS_Get_Remaining_Period_Value:
 7842               	.LFB131:
 7843               	.LM721:
 7844               	.LVL494:
 7845               	/* prologue: function */
 7846               	/* frame size = 0 */
 7847               	.LBB1256:
 7848               	.LBB1257:
 7849               	.LM722:
 7850 2652 E091 0000 		lds r30,Timebase
 7851 2656 F091 0000 		lds r31,(Timebase)+1
 7852 265a 90E0      		ldi r25,lo8(0)
 7853               	.LBE1257:
 7854               	.LBE1256:
 7855               	.LM723:
 7856 265c 25E1      		ldi r18,lo8(21)
 7857 265e 30E0      		ldi r19,hi8(21)
 7858 2660 AC01      		movw r20,r24
 7859               	.LVL495:
 7860 2662 429F      		mul r20,r18
 7861 2664 C001      		movw r24,r0
 7862 2666 439F      		mul r20,r19
 7863 2668 900D      		add r25,r0
 7864 266a 529F      		mul r21,r18
 7865 266c 900D      		add r25,r0
 7866 266e 1124      		clr r1
 7867 2670 E80F      		add r30,r24
 7868 2672 F91F      		adc r31,r25
 7869 2674 DF01      		movw r26,r30
 7870 2676 AF59      		subi r26,lo8(-(97))
 7871 2678 BF4F      		sbci r27,hi8(-(97))
 7872 267a E35A      		subi r30,lo8(-(93))
 7873 267c FF4F      		sbci r31,hi8(-(93))
 7874 267e 2081      		ld r18,Z
 7875 2680 3181      		ldd r19,Z+1
 7876 2682 4281      		ldd r20,Z+2
 7877 2684 5381      		ldd r21,Z+3
 7878               	.LVL496:
 7879 2686 8D91      		ld r24,X+
 7880 2688 9D91      		ld r25,X+
 7881 268a 0D90      		ld __tmp_reg__,X+
 7882 268c BC91      		ld r27,X
 7883 268e A02D      		mov r26,__tmp_reg__
 7884 2690 281B      		sub r18,r24
 7885 2692 390B      		sbc r19,r25
 7886 2694 4A0B      		sbc r20,r26
 7887 2696 5B0B      		sbc r21,r27
 7888 2698 57FF      		sbrs r21,7
 7889 269a 00C0      		rjmp .L353
 7890 269c 20E0      		ldi r18,lo8(0)
 7891 269e 30E0      		ldi r19,hi8(0)
 7892 26a0 40E0      		ldi r20,hlo8(0)
 7893 26a2 50E0      		ldi r21,hhi8(0)
 7894               	.L353:
 7895               	.LM724:
 7896 26a4 B901      		movw r22,r18
 7897               	.LVL497:
 7898 26a6 CA01      		movw r24,r20
 7899               	/* epilogue start */
 7900 26a8 0895      		ret
 7901               	.LFE131:
 7903               	.global	Timebase_DownCounter_SS_Period_Value_Expired
 7905               	Timebase_DownCounter_SS_Period_Value_Expired:
 7906               	.LFB132:
 7907               	.LM725:
 7908               	.LVL498:
 7909 26aa CF93      		push r28
 7910 26ac DF93      		push r29
 7911               	/* prologue: function */
 7912               	/* frame size = 0 */
 7913               	.LBB1258:
 7914               	.LBB1259:
 7915               	.LBB1260:
 7916               	.LBB1261:
 7917               	.LM726:
 7918 26ae C091 0000 		lds r28,Timebase
 7919 26b2 D091 0000 		lds r29,(Timebase)+1
 7920 26b6 682F      		mov r22,r24
 7921 26b8 70E0      		ldi r23,lo8(0)
 7922               	.LBE1261:
 7923               	.LBE1260:
 7924               	.LM727:
 7925 26ba 85E1      		ldi r24,lo8(21)
 7926 26bc 90E0      		ldi r25,hi8(21)
 7927               	.LVL499:
 7928 26be 689F      		mul r22,r24
 7929 26c0 F001      		movw r30,r0
 7930 26c2 699F      		mul r22,r25
 7931 26c4 F00D      		add r31,r0
 7932 26c6 789F      		mul r23,r24
 7933 26c8 F00D      		add r31,r0
 7934 26ca 1124      		clr r1
 7935 26cc EC0F      		add r30,r28
 7936 26ce FD1F      		adc r31,r29
 7937 26d0 DF01      		movw r26,r30
 7938 26d2 AF59      		subi r26,lo8(-(97))
 7939 26d4 BF4F      		sbci r27,hi8(-(97))
 7940 26d6 E35A      		subi r30,lo8(-(93))
 7941 26d8 FF4F      		sbci r31,hi8(-(93))
 7942 26da 2081      		ld r18,Z
 7943 26dc 3181      		ldd r19,Z+1
 7944 26de 4281      		ldd r20,Z+2
 7945 26e0 5381      		ldd r21,Z+3
 7946               	.LVL500:
 7947 26e2 8D91      		ld r24,X+
 7948 26e4 9D91      		ld r25,X+
 7949 26e6 0D90      		ld __tmp_reg__,X+
 7950 26e8 BC91      		ld r27,X
 7951 26ea A02D      		mov r26,__tmp_reg__
 7952 26ec 281B      		sub r18,r24
 7953 26ee 390B      		sbc r19,r25
 7954 26f0 4A0B      		sbc r20,r26
 7955 26f2 5B0B      		sbc r21,r27
 7956               	.LM728:
 7957 26f4 57FD      		sbrc r21,7
 7958 26f6 00C0      		rjmp .L356
 7959               	.LBE1259:
 7960               	.LBE1258:
 7961               	.LM729:
 7962 26f8 2115      		cp r18,__zero_reg__
 7963 26fa 3105      		cpc r19,__zero_reg__
 7964 26fc 4105      		cpc r20,__zero_reg__
 7965 26fe 5105      		cpc r21,__zero_reg__
 7966 2700 01F0      		breq .L356
 7967 2702 20E0      		ldi r18,lo8(0)
 7968               	.LVL501:
 7969 2704 00C0      		rjmp .L357
 7970               	.LVL502:
 7971               	.L356:
 7972 2706 20E0      		ldi r18,lo8(0)
 7973               	.LVL503:
 7974 2708 85E1      		ldi r24,lo8(21)
 7975 270a 90E0      		ldi r25,hi8(21)
 7976 270c AC01      		movw r20,r24
 7977 270e 649F      		mul r22,r20
 7978 2710 C001      		movw r24,r0
 7979 2712 659F      		mul r22,r21
 7980 2714 900D      		add r25,r0
 7981 2716 749F      		mul r23,r20
 7982 2718 900D      		add r25,r0
 7983 271a 1124      		clr r1
 7984 271c C80F      		add r28,r24
 7985 271e D91F      		adc r29,r25
 7986 2720 CC5A      		subi r28,lo8(-(84))
 7987 2722 DF4F      		sbci r29,hi8(-(84))
 7988 2724 8881      		ld r24,Y
 7989 2726 80FF      		sbrs r24,0
 7990 2728 21E0      		ldi r18,lo8(1)
 7991               	.L358:
 7992 272a 81E0      		ldi r24,lo8(1)
 7993 272c 2827      		eor r18,r24
 7994               	.L357:
 7995               	.LM730:
 7996 272e 822F      		mov r24,r18
 7997               	/* epilogue start */
 7998 2730 DF91      		pop r29
 7999 2732 CF91      		pop r28
 8000 2734 0895      		ret
 8001               	.LFE132:
 8003               	.global	Timebase_DownCounter_SS_Period_Value_Expired_Event
 8005               	Timebase_DownCounter_SS_Period_Value_Expired_Event:
 8006               	.LFB133:
 8007               	.LM731:
 8008               	.LVL504:
 8009 2736 1F93      		push r17
 8010               	/* prologue: function */
 8011               	/* frame size = 0 */
 8012 2738 182F      		mov r17,r24
 8013               	.LM732:
 8014 273a 0E94 0000 		call Timebase_DownCounter_SS_Period_Value_Expired
 8015               	.LVL505:
 8016 273e 8130      		cpi r24,lo8(1)
 8017 2740 01F0      		breq .L361
 8018 2742 80E0      		ldi r24,lo8(0)
 8019 2744 00C0      		rjmp .L362
 8020               	.L361:
 8021               	.LBB1262:
 8022               	.LBB1263:
 8023               	.LM733:
 8024 2746 E091 0000 		lds r30,Timebase
 8025 274a F091 0000 		lds r31,(Timebase)+1
 8026 274e 212F      		mov r18,r17
 8027 2750 30E0      		ldi r19,lo8(0)
 8028               	.LVL506:
 8029 2752 85E1      		ldi r24,lo8(21)
 8030 2754 90E0      		ldi r25,hi8(21)
 8031 2756 AC01      		movw r20,r24
 8032 2758 249F      		mul r18,r20
 8033 275a C001      		movw r24,r0
 8034 275c 259F      		mul r18,r21
 8035 275e 900D      		add r25,r0
 8036 2760 349F      		mul r19,r20
 8037 2762 900D      		add r25,r0
 8038 2764 1124      		clr r1
 8039 2766 E80F      		add r30,r24
 8040 2768 F91F      		adc r31,r25
 8041 276a EC5A      		subi r30,lo8(-(84))
 8042 276c FF4F      		sbci r31,hi8(-(84))
 8043 276e 8081      		ld r24,Z
 8044 2770 8E7F      		andi r24,lo8(-2)
 8045 2772 8083      		st Z,r24
 8046 2774 81E0      		ldi r24,lo8(1)
 8047               	.L362:
 8048               	/* epilogue start */
 8049               	.LBE1263:
 8050               	.LBE1262:
 8051               	.LM734:
 8052 2776 1F91      		pop r17
 8053               	.LVL507:
 8054 2778 0895      		ret
 8055               	.LFE133:
 8057               	.global	Timebase_DownCounter_SS_Update_All
 8059               	Timebase_DownCounter_SS_Update_All:
 8060               	.LFB134:
 8061               	.LM735:
 8062               	/* prologue: function */
 8063               	/* frame size = 0 */
 8064               	.LBB1264:
 8065               	.LM736:
 8066 277a 80E0      		ldi r24,lo8(0)
 8067 277c 0E94 0000 		call Timebase_DownCounter_SS_Update
 8068               	/* epilogue start */
 8069               	.LBE1264:
 8070               	.LM737:
 8071 2780 0895      		ret
 8072               	.LFE134:
 8074               	.global	Timebase_DownCounter_SS_Reset_All
 8076               	Timebase_DownCounter_SS_Reset_All:
 8077               	.LFB135:
 8078               	.LM738:
 8079               	/* prologue: function */
 8080               	/* frame size = 0 */
 8081               	.LBB1265:
 8082               	.LBB1266:
 8083               	.LBB1267:
 8084               	.LBB1268:
 8085               	.LBB1269:
 8086               	.LM739:
 8087 2782 E091 0000 		lds r30,Timebase
 8088 2786 F091 0000 		lds r31,(Timebase)+1
 8089 278a E75A      		subi r30,lo8(-(89))
 8090 278c FF4F      		sbci r31,hi8(-(89))
 8091 278e 1082      		st Z,__zero_reg__
 8092 2790 1182      		std Z+1,__zero_reg__
 8093 2792 1282      		std Z+2,__zero_reg__
 8094 2794 1382      		std Z+3,__zero_reg__
 8095               	.LBE1269:
 8096               	.LBE1268:
 8097               	.LBB1270:
 8098               	.LBB1271:
 8099               	.LM740:
 8100 2796 1292      		st -Z,__zero_reg__
 8101 2798 1292      		st -Z,__zero_reg__
 8102 279a 1292      		st -Z,__zero_reg__
 8103 279c 1292      		st -Z,__zero_reg__
 8104               	.LBE1271:
 8105               	.LBE1270:
 8106               	.LBB1272:
 8107               	.LBB1273:
 8108               	.LM741:
 8109 279e 3896      		adiw r30,8
 8110 27a0 1082      		st Z,__zero_reg__
 8111 27a2 1182      		std Z+1,__zero_reg__
 8112 27a4 1282      		std Z+2,__zero_reg__
 8113 27a6 1382      		std Z+3,__zero_reg__
 8114 27a8 ED55      		subi r30,lo8(-(-93))
 8115 27aa F040      		sbci r31,hi8(-(-93))
 8116               	.LBE1273:
 8117               	.LBE1272:
 8118               	.LBB1274:
 8119               	.LBB1275:
 8120               	.LM742:
 8121 27ac DF01      		movw r26,r30
 8122 27ae AC5A      		subi r26,lo8(-(84))
 8123 27b0 BF4F      		sbci r27,hi8(-(84))
 8124 27b2 8C91      		ld r24,X
 8125               	.LBE1275:
 8126               	.LBE1274:
 8127               	.LBB1276:
 8128               	.LBB1277:
 8129               	.LM743:
 8130 27b4 807E      		andi r24,lo8(-32)
 8131 27b6 8C93      		st X,r24
 8132               	.LBE1277:
 8133               	.LBE1276:
 8134               	.LBB1278:
 8135               	.LBB1279:
 8136               	.LM744:
 8137 27b8 EB59      		subi r30,lo8(-(101))
 8138 27ba FF4F      		sbci r31,hi8(-(101))
 8139 27bc 1082      		st Z,__zero_reg__
 8140 27be 1182      		std Z+1,__zero_reg__
 8141 27c0 1282      		std Z+2,__zero_reg__
 8142 27c2 1382      		std Z+3,__zero_reg__
 8143               	/* epilogue start */
 8144               	.LBE1279:
 8145               	.LBE1278:
 8146               	.LBE1267:
 8147               	.LBE1266:
 8148               	.LBE1265:
 8149               	.LM745:
 8150 27c4 0895      		ret
 8151               	.LFE135:
 8153               	.global	Timebase_DownCounter_Get_Status
 8155               	Timebase_DownCounter_Get_Status:
 8156               	.LFB136:
 8157               	.LM746:
 8158               	.LVL508:
 8159               	/* prologue: function */
 8160               	/* frame size = 0 */
 8161               	.LM747:
 8162 27c6 E091 0000 		lds r30,Timebase
 8163 27ca F091 0000 		lds r31,(Timebase)+1
 8164 27ce 90E0      		ldi r25,lo8(0)
 8165               	.LVL509:
 8166 27d0 9C01      		movw r18,r24
 8167 27d2 44E0      		ldi r20,4
 8168 27d4 220F      	1:	lsl r18
 8169 27d6 331F      		rol r19
 8170 27d8 4A95      		dec r20
 8171 27da 01F4      		brne 1b
 8172 27dc 280F      		add r18,r24
 8173 27de 391F      		adc r19,r25
 8174 27e0 E20F      		add r30,r18
 8175 27e2 F31F      		adc r31,r19
 8176 27e4 E759      		subi r30,lo8(-(105))
 8177 27e6 FF4F      		sbci r31,hi8(-(105))
 8178 27e8 8081      		ld r24,Z
 8179               	.LVL510:
 8180 27ea 8695      		lsr r24
 8181               	.LM748:
 8182 27ec 8F70      		andi r24,lo8(15)
 8183               	/* epilogue start */
 8184 27ee 0895      		ret
 8185               	.LFE136:
 8187               	.global	Timebase_DownCounter_Set_Status
 8189               	Timebase_DownCounter_Set_Status:
 8190               	.LFB137:
 8191               	.LM749:
 8192               	.LVL511:
 8193               	/* prologue: function */
 8194               	/* frame size = 0 */
 8195               	.LM750:
 8196 27f0 E091 0000 		lds r30,Timebase
 8197 27f4 F091 0000 		lds r31,(Timebase)+1
 8198 27f8 90E0      		ldi r25,lo8(0)
 8199               	.LVL512:
 8200 27fa 9C01      		movw r18,r24
 8201 27fc 54E0      		ldi r21,4
 8202 27fe 220F      	1:	lsl r18
 8203 2800 331F      		rol r19
 8204 2802 5A95      		dec r21
 8205 2804 01F4      		brne 1b
 8206 2806 280F      		add r18,r24
 8207 2808 391F      		adc r19,r25
 8208 280a E20F      		add r30,r18
 8209 280c F31F      		adc r31,r19
 8210 280e E759      		subi r30,lo8(-(105))
 8211 2810 FF4F      		sbci r31,hi8(-(105))
 8212 2812 6F70      		andi r22,lo8(15)
 8213               	.LVL513:
 8214 2814 660F      		lsl r22
 8215 2816 8081      		ld r24,Z
 8216               	.LVL514:
 8217 2818 817E      		andi r24,lo8(-31)
 8218 281a 862B      		or r24,r22
 8219 281c 8083      		st Z,r24
 8220               	/* epilogue start */
 8221               	.LM751:
 8222 281e 0895      		ret
 8223               	.LFE137:
 8225               	.global	Timebase_DownCounter_Get_Value
 8227               	Timebase_DownCounter_Get_Value:
 8228               	.LFB138:
 8229               	.LM752:
 8230               	.LVL515:
 8231               	/* prologue: function */
 8232               	/* frame size = 0 */
 8233               	.LM753:
 8234 2820 E091 0000 		lds r30,Timebase
 8235 2824 F091 0000 		lds r31,(Timebase)+1
 8236 2828 90E0      		ldi r25,lo8(0)
 8237               	.LVL516:
 8238 282a 9C01      		movw r18,r24
 8239 282c 64E0      		ldi r22,4
 8240 282e 220F      	1:	lsl r18
 8241 2830 331F      		rol r19
 8242 2832 6A95      		dec r22
 8243 2834 01F4      		brne 1b
 8244 2836 280F      		add r18,r24
 8245 2838 391F      		adc r19,r25
 8246 283a E20F      		add r30,r18
 8247 283c F31F      		adc r31,r19
 8248 283e E259      		subi r30,lo8(-(110))
 8249 2840 FF4F      		sbci r31,hi8(-(110))
 8250 2842 6081      		ld r22,Z
 8251 2844 7181      		ldd r23,Z+1
 8252               	.LM754:
 8253 2846 8281      		ldd r24,Z+2
 8254               	.LVL517:
 8255 2848 9381      		ldd r25,Z+3
 8256               	.LVL518:
 8257               	/* epilogue start */
 8258 284a 0895      		ret
 8259               	.LFE138:
 8261               	.global	Timebase_DownCounter_Set_Value
 8263               	Timebase_DownCounter_Set_Value:
 8264               	.LFB139:
 8265               	.LM755:
 8266               	.LVL519:
 8267               	/* prologue: function */
 8268               	/* frame size = 0 */
 8269               	.LM756:
 8270 284c E091 0000 		lds r30,Timebase
 8271 2850 F091 0000 		lds r31,(Timebase)+1
 8272 2854 90E0      		ldi r25,lo8(0)
 8273               	.LVL520:
 8274 2856 9C01      		movw r18,r24
 8275 2858 A4E0      		ldi r26,4
 8276 285a 220F      	1:	lsl r18
 8277 285c 331F      		rol r19
 8278 285e AA95      		dec r26
 8279 2860 01F4      		brne 1b
 8280 2862 280F      		add r18,r24
 8281 2864 391F      		adc r19,r25
 8282 2866 E20F      		add r30,r18
 8283 2868 F31F      		adc r31,r19
 8284 286a E259      		subi r30,lo8(-(110))
 8285 286c FF4F      		sbci r31,hi8(-(110))
 8286 286e 4083      		st Z,r20
 8287 2870 5183      		std Z+1,r21
 8288 2872 6283      		std Z+2,r22
 8289 2874 7383      		std Z+3,r23
 8290               	/* epilogue start */
 8291               	.LM757:
 8292 2876 0895      		ret
 8293               	.LFE139:
 8295               	.global	Timebase_DownCounter_Get_EndValue
 8297               	Timebase_DownCounter_Get_EndValue:
 8298               	.LFB140:
 8299               	.LM758:
 8300               	.LVL521:
 8301               	/* prologue: function */
 8302               	/* frame size = 0 */
 8303               	.LM759:
 8304 2878 E091 0000 		lds r30,Timebase
 8305 287c F091 0000 		lds r31,(Timebase)+1
 8306 2880 90E0      		ldi r25,lo8(0)
 8307               	.LVL522:
 8308 2882 9C01      		movw r18,r24
 8309 2884 B4E0      		ldi r27,4
 8310 2886 220F      	1:	lsl r18
 8311 2888 331F      		rol r19
 8312 288a BA95      		dec r27
 8313 288c 01F4      		brne 1b
 8314 288e 280F      		add r18,r24
 8315 2890 391F      		adc r19,r25
 8316 2892 E20F      		add r30,r18
 8317 2894 F31F      		adc r31,r19
 8318 2896 E659      		subi r30,lo8(-(106))
 8319 2898 FF4F      		sbci r31,hi8(-(106))
 8320 289a 6081      		ld r22,Z
 8321 289c 7181      		ldd r23,Z+1
 8322               	.LM760:
 8323 289e 8281      		ldd r24,Z+2
 8324               	.LVL523:
 8325 28a0 9381      		ldd r25,Z+3
 8326               	.LVL524:
 8327               	/* epilogue start */
 8328 28a2 0895      		ret
 8329               	.LFE140:
 8331               	.global	Timebase_DownCounter_Set_EndValue
 8333               	Timebase_DownCounter_Set_EndValue:
 8334               	.LFB141:
 8335               	.LM761:
 8336               	.LVL525:
 8337               	/* prologue: function */
 8338               	/* frame size = 0 */
 8339               	.LM762:
 8340 28a4 E091 0000 		lds r30,Timebase
 8341 28a8 F091 0000 		lds r31,(Timebase)+1
 8342 28ac 90E0      		ldi r25,lo8(0)
 8343               	.LVL526:
 8344 28ae 9C01      		movw r18,r24
 8345 28b0 A4E0      		ldi r26,4
 8346 28b2 220F      	1:	lsl r18
 8347 28b4 331F      		rol r19
 8348 28b6 AA95      		dec r26
 8349 28b8 01F4      		brne 1b
 8350 28ba 280F      		add r18,r24
 8351 28bc 391F      		adc r19,r25
 8352 28be E20F      		add r30,r18
 8353 28c0 F31F      		adc r31,r19
 8354 28c2 E659      		subi r30,lo8(-(106))
 8355 28c4 FF4F      		sbci r31,hi8(-(106))
 8356 28c6 4083      		st Z,r20
 8357 28c8 5183      		std Z+1,r21
 8358 28ca 6283      		std Z+2,r22
 8359 28cc 7383      		std Z+3,r23
 8360               	/* epilogue start */
 8361               	.LM763:
 8362 28ce 0895      		ret
 8363               	.LFE141:
 8365               	.global	Timebase_DownCounter_Get_PeriodValue
 8367               	Timebase_DownCounter_Get_PeriodValue:
 8368               	.LFB142:
 8369               	.LM764:
 8370               	.LVL527:
 8371               	/* prologue: function */
 8372               	/* frame size = 0 */
 8373               	.LM765:
 8374 28d0 E091 0000 		lds r30,Timebase
 8375 28d4 F091 0000 		lds r31,(Timebase)+1
 8376 28d8 90E0      		ldi r25,lo8(0)
 8377               	.LVL528:
 8378 28da 9C01      		movw r18,r24
 8379 28dc B4E0      		ldi r27,4
 8380 28de 220F      	1:	lsl r18
 8381 28e0 331F      		rol r19
 8382 28e2 BA95      		dec r27
 8383 28e4 01F4      		brne 1b
 8384 28e6 280F      		add r18,r24
 8385 28e8 391F      		adc r19,r25
 8386 28ea E20F      		add r30,r18
 8387 28ec F31F      		adc r31,r19
 8388 28ee EE58      		subi r30,lo8(-(114))
 8389 28f0 FF4F      		sbci r31,hi8(-(114))
 8390 28f2 6081      		ld r22,Z
 8391 28f4 7181      		ldd r23,Z+1
 8392               	.LM766:
 8393 28f6 8281      		ldd r24,Z+2
 8394               	.LVL529:
 8395 28f8 9381      		ldd r25,Z+3
 8396               	.LVL530:
 8397               	/* epilogue start */
 8398 28fa 0895      		ret
 8399               	.LFE142:
 8401               	.global	Timebase_DownCounter_Set_PeriodValue
 8403               	Timebase_DownCounter_Set_PeriodValue:
 8404               	.LFB143:
 8405               	.LM767:
 8406               	.LVL531:
 8407               	/* prologue: function */
 8408               	/* frame size = 0 */
 8409 28fc E091 0000 		lds r30,Timebase
 8410 2900 F091 0000 		lds r31,(Timebase)+1
 8411 2904 282F      		mov r18,r24
 8412 2906 30E0      		ldi r19,lo8(0)
 8413               	.LVL532:
 8414               	.LM768:
 8415 2908 77FF      		sbrs r23,7
 8416 290a 00C0      		rjmp .L383
 8417               	.LVL533:
 8418               	.LM769:
 8419 290c C901      		movw r24,r18
 8420 290e B4E0      		ldi r27,4
 8421 2910 880F      	1:	lsl r24
 8422 2912 991F      		rol r25
 8423 2914 BA95      		dec r27
 8424 2916 01F4      		brne 1b
 8425 2918 820F      		add r24,r18
 8426 291a 931F      		adc r25,r19
 8427 291c E80F      		add r30,r24
 8428 291e F91F      		adc r31,r25
 8429 2920 EE58      		subi r30,lo8(-(114))
 8430 2922 FF4F      		sbci r31,hi8(-(114))
 8431 2924 1082      		st Z,__zero_reg__
 8432 2926 1182      		std Z+1,__zero_reg__
 8433 2928 1282      		std Z+2,__zero_reg__
 8434 292a 1382      		std Z+3,__zero_reg__
 8435 292c 0895      		ret
 8436               	.LVL534:
 8437               	.L383:
 8438               	.LM770:
 8439 292e C901      		movw r24,r18
 8440 2930 A4E0      		ldi r26,4
 8441 2932 880F      	1:	lsl r24
 8442 2934 991F      		rol r25
 8443 2936 AA95      		dec r26
 8444 2938 01F4      		brne 1b
 8445 293a 820F      		add r24,r18
 8446 293c 931F      		adc r25,r19
 8447 293e E80F      		add r30,r24
 8448 2940 F91F      		adc r31,r25
 8449 2942 EE58      		subi r30,lo8(-(114))
 8450 2944 FF4F      		sbci r31,hi8(-(114))
 8451 2946 4083      		st Z,r20
 8452 2948 5183      		std Z+1,r21
 8453 294a 6283      		std Z+2,r22
 8454 294c 7383      		std Z+3,r23
 8455 294e 0895      		ret
 8456               	.LFE143:
 8458               	.global	Timebase_DownCounter_Get_Period_Flag
 8460               	Timebase_DownCounter_Get_Period_Flag:
 8461               	.LFB144:
 8462               	.LM771:
 8463               	.LVL535:
 8464               	/* prologue: function */
 8465               	/* frame size = 0 */
 8466               	.LM772:
 8467 2950 E091 0000 		lds r30,Timebase
 8468 2954 F091 0000 		lds r31,(Timebase)+1
 8469 2958 90E0      		ldi r25,lo8(0)
 8470               	.LVL536:
 8471 295a 9C01      		movw r18,r24
 8472 295c 44E0      		ldi r20,4
 8473 295e 220F      	1:	lsl r18
 8474 2960 331F      		rol r19
 8475 2962 4A95      		dec r20
 8476 2964 01F4      		brne 1b
 8477 2966 280F      		add r18,r24
 8478 2968 391F      		adc r19,r25
 8479 296a E20F      		add r30,r18
 8480 296c F31F      		adc r31,r19
 8481 296e E759      		subi r30,lo8(-(105))
 8482 2970 FF4F      		sbci r31,hi8(-(105))
 8483 2972 8081      		ld r24,Z
 8484               	.LVL537:
 8485               	.LM773:
 8486 2974 8170      		andi r24,lo8(1)
 8487               	/* epilogue start */
 8488 2976 0895      		ret
 8489               	.LFE144:
 8491               	.global	Timebase_DownCounter_Set_Period_Flag
 8493               	Timebase_DownCounter_Set_Period_Flag:
 8494               	.LFB145:
 8495               	.LM774:
 8496               	.LVL538:
 8497               	/* prologue: function */
 8498               	/* frame size = 0 */
 8499               	.LM775:
 8500 2978 E091 0000 		lds r30,Timebase
 8501 297c F091 0000 		lds r31,(Timebase)+1
 8502 2980 90E0      		ldi r25,lo8(0)
 8503               	.LVL539:
 8504 2982 9C01      		movw r18,r24
 8505 2984 54E0      		ldi r21,4
 8506 2986 220F      	1:	lsl r18
 8507 2988 331F      		rol r19
 8508 298a 5A95      		dec r21
 8509 298c 01F4      		brne 1b
 8510 298e 280F      		add r18,r24
 8511 2990 391F      		adc r19,r25
 8512 2992 E20F      		add r30,r18
 8513 2994 F31F      		adc r31,r19
 8514 2996 E759      		subi r30,lo8(-(105))
 8515 2998 FF4F      		sbci r31,hi8(-(105))
 8516 299a 8081      		ld r24,Z
 8517               	.LVL540:
 8518 299c 8160      		ori r24,lo8(1)
 8519 299e 8083      		st Z,r24
 8520               	/* epilogue start */
 8521               	.LM776:
 8522 29a0 0895      		ret
 8523               	.LFE145:
 8525               	.global	Timebase_DownCounter_Clear_Period_Flag
 8527               	Timebase_DownCounter_Clear_Period_Flag:
 8528               	.LFB146:
 8529               	.LM777:
 8530               	.LVL541:
 8531               	/* prologue: function */
 8532               	/* frame size = 0 */
 8533               	.LM778:
 8534 29a2 E091 0000 		lds r30,Timebase
 8535 29a6 F091 0000 		lds r31,(Timebase)+1
 8536 29aa 90E0      		ldi r25,lo8(0)
 8537               	.LVL542:
 8538 29ac 9C01      		movw r18,r24
 8539 29ae 64E0      		ldi r22,4
 8540 29b0 220F      	1:	lsl r18
 8541 29b2 331F      		rol r19
 8542 29b4 6A95      		dec r22
 8543 29b6 01F4      		brne 1b
 8544 29b8 280F      		add r18,r24
 8545 29ba 391F      		adc r19,r25
 8546 29bc E20F      		add r30,r18
 8547 29be F31F      		adc r31,r19
 8548 29c0 E759      		subi r30,lo8(-(105))
 8549 29c2 FF4F      		sbci r31,hi8(-(105))
 8550 29c4 8081      		ld r24,Z
 8551               	.LVL543:
 8552 29c6 8E7F      		andi r24,lo8(-2)
 8553 29c8 8083      		st Z,r24
 8554               	/* epilogue start */
 8555               	.LM779:
 8556 29ca 0895      		ret
 8557               	.LFE146:
 8559               	.global	Timebase_DownCounter_Get_ReloadValue
 8561               	Timebase_DownCounter_Get_ReloadValue:
 8562               	.LFB147:
 8563               	.LM780:
 8564               	.LVL544:
 8565               	/* prologue: function */
 8566               	/* frame size = 0 */
 8567               	.LM781:
 8568 29cc E091 0000 		lds r30,Timebase
 8569 29d0 F091 0000 		lds r31,(Timebase)+1
 8570 29d4 90E0      		ldi r25,lo8(0)
 8571               	.LVL545:
 8572 29d6 9C01      		movw r18,r24
 8573 29d8 74E0      		ldi r23,4
 8574 29da 220F      	1:	lsl r18
 8575 29dc 331F      		rol r19
 8576 29de 7A95      		dec r23
 8577 29e0 01F4      		brne 1b
 8578 29e2 280F      		add r18,r24
 8579 29e4 391F      		adc r19,r25
 8580 29e6 E20F      		add r30,r18
 8581 29e8 F31F      		adc r31,r19
 8582 29ea EA58      		subi r30,lo8(-(118))
 8583 29ec FF4F      		sbci r31,hi8(-(118))
 8584 29ee 6081      		ld r22,Z
 8585 29f0 7181      		ldd r23,Z+1
 8586               	.LM782:
 8587 29f2 8281      		ldd r24,Z+2
 8588               	.LVL546:
 8589 29f4 9381      		ldd r25,Z+3
 8590               	.LVL547:
 8591               	/* epilogue start */
 8592 29f6 0895      		ret
 8593               	.LFE147:
 8595               	.global	Timebase_DownCounter_Set_ReloadValue
 8597               	Timebase_DownCounter_Set_ReloadValue:
 8598               	.LFB148:
 8599               	.LM783:
 8600               	.LVL548:
 8601               	/* prologue: function */
 8602               	/* frame size = 0 */
 8603               	.LM784:
 8604 29f8 E091 0000 		lds r30,Timebase
 8605 29fc F091 0000 		lds r31,(Timebase)+1
 8606 2a00 90E0      		ldi r25,lo8(0)
 8607               	.LVL549:
 8608 2a02 9C01      		movw r18,r24
 8609 2a04 A4E0      		ldi r26,4
 8610 2a06 220F      	1:	lsl r18
 8611 2a08 331F      		rol r19
 8612 2a0a AA95      		dec r26
 8613 2a0c 01F4      		brne 1b
 8614 2a0e 280F      		add r18,r24
 8615 2a10 391F      		adc r19,r25
 8616 2a12 E20F      		add r30,r18
 8617 2a14 F31F      		adc r31,r19
 8618 2a16 EA58      		subi r30,lo8(-(118))
 8619 2a18 FF4F      		sbci r31,hi8(-(118))
 8620 2a1a 4083      		st Z,r20
 8621 2a1c 5183      		std Z+1,r21
 8622 2a1e 6283      		std Z+2,r22
 8623 2a20 7383      		std Z+3,r23
 8624               	/* epilogue start */
 8625               	.LM785:
 8626 2a22 0895      		ret
 8627               	.LFE148:
 8629               	.global	Timebase_DownCounter_Reset
 8631               	Timebase_DownCounter_Reset:
 8632               	.LFB149:
 8633               	.LM786:
 8634               	.LVL550:
 8635               	/* prologue: function */
 8636               	/* frame size = 0 */
 8637               	.LBB1280:
 8638               	.LBB1281:
 8639               	.LM787:
 8640 2a24 E091 0000 		lds r30,Timebase
 8641 2a28 F091 0000 		lds r31,(Timebase)+1
 8642 2a2c 90E0      		ldi r25,lo8(0)
 8643 2a2e 9C01      		movw r18,r24
 8644               	.LVL551:
 8645 2a30 B4E0      		ldi r27,4
 8646 2a32 220F      	1:	lsl r18
 8647 2a34 331F      		rol r19
 8648 2a36 BA95      		dec r27
 8649 2a38 01F4      		brne 1b
 8650 2a3a 280F      		add r18,r24
 8651 2a3c 391F      		adc r19,r25
 8652 2a3e E20F      		add r30,r18
 8653 2a40 F31F      		adc r31,r19
 8654 2a42 E659      		subi r30,lo8(-(106))
 8655 2a44 FF4F      		sbci r31,hi8(-(106))
 8656 2a46 1192      		st Z+,__zero_reg__
 8657 2a48 1192      		st Z+,__zero_reg__
 8658 2a4a 1192      		st Z+,__zero_reg__
 8659 2a4c 1192      		st Z+,__zero_reg__
 8660               	.LBE1281:
 8661               	.LBE1280:
 8662               	.LBB1282:
 8663               	.LBB1283:
 8664               	.LM788:
 8665 2a4e 1082      		st Z,__zero_reg__
 8666 2a50 1182      		std Z+1,__zero_reg__
 8667 2a52 1282      		std Z+2,__zero_reg__
 8668 2a54 1382      		std Z+3,__zero_reg__
 8669 2a56 EE56      		subi r30,lo8(-(-110))
 8670 2a58 F040      		sbci r31,hi8(-(-110))
 8671               	.LBE1283:
 8672               	.LBE1282:
 8673               	.LBB1284:
 8674               	.LBB1285:
 8675               	.LM789:
 8676 2a5a DF01      		movw r26,r30
 8677 2a5c A759      		subi r26,lo8(-(105))
 8678 2a5e BF4F      		sbci r27,hi8(-(105))
 8679 2a60 8C91      		ld r24,X
 8680               	.LBE1285:
 8681               	.LBE1284:
 8682               	.LBB1286:
 8683               	.LBB1287:
 8684               	.LM790:
 8685 2a62 807E      		andi r24,lo8(-32)
 8686 2a64 8C93      		st X,r24
 8687               	.LBE1287:
 8688               	.LBE1286:
 8689               	.LBB1288:
 8690               	.LBB1289:
 8691               	.LM791:
 8692 2a66 EA58      		subi r30,lo8(-(118))
 8693 2a68 FF4F      		sbci r31,hi8(-(118))
 8694 2a6a 1082      		st Z,__zero_reg__
 8695 2a6c 1182      		std Z+1,__zero_reg__
 8696 2a6e 1282      		std Z+2,__zero_reg__
 8697 2a70 1382      		std Z+3,__zero_reg__
 8698               	/* epilogue start */
 8699               	.LBE1289:
 8700               	.LBE1288:
 8701               	.LM792:
 8702 2a72 0895      		ret
 8703               	.LFE149:
 8705               	.global	Timebase_DownCounter_Clear_All_Flags
 8707               	Timebase_DownCounter_Clear_All_Flags:
 8708               	.LFB150:
 8709               	.LM793:
 8710               	.LVL552:
 8711               	/* prologue: function */
 8712               	/* frame size = 0 */
 8713               	.LBB1290:
 8714               	.LBB1291:
 8715               	.LBB1292:
 8716               	.LBB1293:
 8717               	.LM794:
 8718 2a74 E091 0000 		lds r30,Timebase
 8719 2a78 F091 0000 		lds r31,(Timebase)+1
 8720 2a7c 90E0      		ldi r25,lo8(0)
 8721 2a7e 9C01      		movw r18,r24
 8722               	.LVL553:
 8723 2a80 44E0      		ldi r20,4
 8724 2a82 220F      	1:	lsl r18
 8725 2a84 331F      		rol r19
 8726 2a86 4A95      		dec r20
 8727 2a88 01F4      		brne 1b
 8728 2a8a 280F      		add r18,r24
 8729 2a8c 391F      		adc r19,r25
 8730 2a8e E20F      		add r30,r18
 8731 2a90 F31F      		adc r31,r19
 8732 2a92 E659      		subi r30,lo8(-(106))
 8733 2a94 FF4F      		sbci r31,hi8(-(106))
 8734 2a96 1192      		st Z+,__zero_reg__
 8735 2a98 1192      		st Z+,__zero_reg__
 8736 2a9a 1192      		st Z+,__zero_reg__
 8737 2a9c 1192      		st Z+,__zero_reg__
 8738               	.LBE1293:
 8739               	.LBE1292:
 8740               	.LBB1294:
 8741               	.LBB1295:
 8742               	.LM795:
 8743 2a9e 1082      		st Z,__zero_reg__
 8744 2aa0 1182      		std Z+1,__zero_reg__
 8745 2aa2 1282      		std Z+2,__zero_reg__
 8746 2aa4 1382      		std Z+3,__zero_reg__
 8747 2aa6 EE56      		subi r30,lo8(-(-110))
 8748 2aa8 F040      		sbci r31,hi8(-(-110))
 8749               	.LBE1295:
 8750               	.LBE1294:
 8751               	.LBB1296:
 8752               	.LBB1297:
 8753               	.LM796:
 8754 2aaa DF01      		movw r26,r30
 8755 2aac A759      		subi r26,lo8(-(105))
 8756 2aae BF4F      		sbci r27,hi8(-(105))
 8757 2ab0 8C91      		ld r24,X
 8758               	.LBE1297:
 8759               	.LBE1296:
 8760               	.LBB1298:
 8761               	.LBB1299:
 8762               	.LM797:
 8763 2ab2 807E      		andi r24,lo8(-32)
 8764 2ab4 8C93      		st X,r24
 8765               	.LBE1299:
 8766               	.LBE1298:
 8767               	.LBB1300:
 8768               	.LBB1301:
 8769               	.LM798:
 8770 2ab6 EA58      		subi r30,lo8(-(118))
 8771 2ab8 FF4F      		sbci r31,hi8(-(118))
 8772 2aba 1082      		st Z,__zero_reg__
 8773 2abc 1182      		std Z+1,__zero_reg__
 8774 2abe 1282      		std Z+2,__zero_reg__
 8775 2ac0 1382      		std Z+3,__zero_reg__
 8776               	/* epilogue start */
 8777               	.LBE1301:
 8778               	.LBE1300:
 8779               	.LBE1291:
 8780               	.LBE1290:
 8781               	.LM799:
 8782 2ac2 0895      		ret
 8783               	.LFE150:
 8785               	.global	Timebase_DownCounter_Start
 8787               	Timebase_DownCounter_Start:
 8788               	.LFB151:
 8789               	.LM800:
 8790               	.LVL554:
 8791               	/* prologue: function */
 8792               	/* frame size = 0 */
 8793               	.LBB1302:
 8794               	.LBB1303:
 8795               	.LM801:
 8796 2ac4 E091 0000 		lds r30,Timebase
 8797 2ac8 F091 0000 		lds r31,(Timebase)+1
 8798 2acc 90E0      		ldi r25,lo8(0)
 8799               	.LBE1303:
 8800               	.LBE1302:
 8801               	.LM802:
 8802 2ace 9C01      		movw r18,r24
 8803               	.LVL555:
 8804 2ad0 54E0      		ldi r21,4
 8805 2ad2 220F      	1:	lsl r18
 8806 2ad4 331F      		rol r19
 8807 2ad6 5A95      		dec r21
 8808 2ad8 01F4      		brne 1b
 8809 2ada 280F      		add r18,r24
 8810 2adc 391F      		adc r19,r25
 8811 2ade E20F      		add r30,r18
 8812 2ae0 F31F      		adc r31,r19
 8813 2ae2 E759      		subi r30,lo8(-(105))
 8814 2ae4 FF4F      		sbci r31,hi8(-(105))
 8815 2ae6 9081      		ld r25,Z
 8816 2ae8 892F      		mov r24,r25
 8817 2aea 8695      		lsr r24
 8818 2aec 8F70      		andi r24,lo8(15)
 8819 2aee 8130      		cpi r24,lo8(1)
 8820 2af0 01F0      		breq .L402
 8821               	.LBB1304:
 8822               	.LBB1305:
 8823               	.LM803:
 8824 2af2 917E      		andi r25,lo8(-31)
 8825 2af4 9260      		ori r25,lo8(2)
 8826 2af6 9083      		st Z,r25
 8827               	.L402:
 8828 2af8 0895      		ret
 8829               	.LBE1305:
 8830               	.LBE1304:
 8831               	.LFE151:
 8833               	.global	Timebase_DownCounter_Stop
 8835               	Timebase_DownCounter_Stop:
 8836               	.LFB152:
 8837               	.LM804:
 8838               	.LVL556:
 8839               	/* prologue: function */
 8840               	/* frame size = 0 */
 8841               	.LBB1306:
 8842               	.LBB1307:
 8843               	.LM805:
 8844 2afa E091 0000 		lds r30,Timebase
 8845 2afe F091 0000 		lds r31,(Timebase)+1
 8846 2b02 90E0      		ldi r25,lo8(0)
 8847               	.LBE1307:
 8848               	.LBE1306:
 8849               	.LM806:
 8850 2b04 9C01      		movw r18,r24
 8851               	.LVL557:
 8852 2b06 64E0      		ldi r22,4
 8853 2b08 220F      	1:	lsl r18
 8854 2b0a 331F      		rol r19
 8855 2b0c 6A95      		dec r22
 8856 2b0e 01F4      		brne 1b
 8857 2b10 280F      		add r18,r24
 8858 2b12 391F      		adc r19,r25
 8859 2b14 E20F      		add r30,r18
 8860 2b16 F31F      		adc r31,r19
 8861 2b18 E759      		subi r30,lo8(-(105))
 8862 2b1a FF4F      		sbci r31,hi8(-(105))
 8863 2b1c 9081      		ld r25,Z
 8864 2b1e 892F      		mov r24,r25
 8865 2b20 8695      		lsr r24
 8866 2b22 8F70      		andi r24,lo8(15)
 8867 2b24 8230      		cpi r24,lo8(2)
 8868 2b26 01F0      		breq .L405
 8869               	.LBB1308:
 8870               	.LBB1309:
 8871               	.LM807:
 8872 2b28 917E      		andi r25,lo8(-31)
 8873 2b2a 9460      		ori r25,lo8(4)
 8874 2b2c 9083      		st Z,r25
 8875               	.L405:
 8876 2b2e 0895      		ret
 8877               	.LBE1309:
 8878               	.LBE1308:
 8879               	.LFE152:
 8881               	.global	Timebase_DownCounter_Set_Securely
 8883               	Timebase_DownCounter_Set_Securely:
 8884               	.LFB153:
 8885               	.LM808:
 8886               	.LVL558:
 8887 2b30 CF93      		push r28
 8888 2b32 DF93      		push r29
 8889               	/* prologue: function */
 8890               	/* frame size = 0 */
 8891               	.LBB1310:
 8892               	.LBB1311:
 8893               	.LM809:
 8894 2b34 A091 0000 		lds r26,Timebase
 8895 2b38 B091 0000 		lds r27,(Timebase)+1
 8896 2b3c 90E0      		ldi r25,lo8(0)
 8897               	.LBE1311:
 8898               	.LBE1310:
 8899               	.LM810:
 8900 2b3e FC01      		movw r30,r24
 8901               	.LVL559:
 8902 2b40 24E0      		ldi r18,4
 8903 2b42 EE0F      	1:	lsl r30
 8904 2b44 FF1F      		rol r31
 8905 2b46 2A95      		dec r18
 8906 2b48 01F4      		brne 1b
 8907 2b4a E80F      		add r30,r24
 8908 2b4c F91F      		adc r31,r25
 8909 2b4e EA0F      		add r30,r26
 8910 2b50 FB1F      		adc r31,r27
 8911 2b52 EF01      		movw r28,r30
 8912 2b54 C759      		subi r28,lo8(-(105))
 8913 2b56 DF4F      		sbci r29,hi8(-(105))
 8914 2b58 8881      		ld r24,Y
 8915 2b5a 8695      		lsr r24
 8916 2b5c 8F70      		andi r24,lo8(15)
 8917 2b5e 01F4      		brne .L408
 8918               	.LBB1312:
 8919               	.LBB1313:
 8920               	.LM811:
 8921 2b60 E259      		subi r30,lo8(-(110))
 8922 2b62 FF4F      		sbci r31,hi8(-(110))
 8923 2b64 4083      		st Z,r20
 8924 2b66 5183      		std Z+1,r21
 8925 2b68 6283      		std Z+2,r22
 8926 2b6a 7383      		std Z+3,r23
 8927               	.LBE1313:
 8928               	.LBE1312:
 8929               	.LBB1314:
 8930               	.LBB1315:
 8931               	.LM812:
 8932 2b6c 1C96      		adiw r26,12
 8933 2b6e 8D91      		ld r24,X+
 8934 2b70 9D91      		ld r25,X+
 8935 2b72 0D90      		ld __tmp_reg__,X+
 8936 2b74 BC91      		ld r27,X
 8937 2b76 A02D      		mov r26,__tmp_reg__
 8938               	.LBE1315:
 8939               	.LBE1314:
 8940               	.LBB1316:
 8941               	.LBB1317:
 8942               	.LM813:
 8943 2b78 840F      		add r24,r20
 8944 2b7a 951F      		adc r25,r21
 8945 2b7c A61F      		adc r26,r22
 8946 2b7e B71F      		adc r27,r23
 8947 2b80 B293      		st -Z,r27
 8948 2b82 A293      		st -Z,r26
 8949 2b84 9293      		st -Z,r25
 8950 2b86 8293      		st -Z,r24
 8951               	.LBE1317:
 8952               	.LBE1316:
 8953               	.LBB1318:
 8954               	.LBB1319:
 8955               	.LM814:
 8956 2b88 3C96      		adiw r30,12
 8957 2b8a 4083      		st Z,r20
 8958 2b8c 5183      		std Z+1,r21
 8959 2b8e 6283      		std Z+2,r22
 8960 2b90 7383      		std Z+3,r23
 8961               	.LBE1319:
 8962               	.LBE1318:
 8963               	.LBB1320:
 8964               	.LBB1321:
 8965               	.LM815:
 8966 2b92 9881      		ld r25,Y
 8967 2b94 892F      		mov r24,r25
 8968 2b96 8695      		lsr r24
 8969 2b98 8F70      		andi r24,lo8(15)
 8970 2b9a 8130      		cpi r24,lo8(1)
 8971 2b9c 01F0      		breq .L408
 8972               	.LBB1322:
 8973               	.LBB1323:
 8974               	.LM816:
 8975 2b9e 917E      		andi r25,lo8(-31)
 8976 2ba0 9260      		ori r25,lo8(2)
 8977 2ba2 9883      		st Y,r25
 8978               	.L408:
 8979               	/* epilogue start */
 8980               	.LBE1323:
 8981               	.LBE1322:
 8982               	.LBE1321:
 8983               	.LBE1320:
 8984               	.LM817:
 8985 2ba4 DF91      		pop r29
 8986 2ba6 CF91      		pop r28
 8987 2ba8 0895      		ret
 8988               	.LFE153:
 8990               	.global	Timebase_DownCounter_Set_Forcefully
 8992               	Timebase_DownCounter_Set_Forcefully:
 8993               	.LFB154:
 8994               	.LM818:
 8995               	.LVL560:
 8996 2baa CF92      		push r12
 8997 2bac DF92      		push r13
 8998 2bae EF92      		push r14
 8999 2bb0 FF92      		push r15
 9000 2bb2 0F93      		push r16
 9001 2bb4 1F93      		push r17
 9002               	/* prologue: function */
 9003               	/* frame size = 0 */
 9004 2bb6 6A01      		movw r12,r20
 9005 2bb8 7B01      		movw r14,r22
 9006               	.LBB1324:
 9007               	.LBB1325:
 9008               	.LBB1326:
 9009               	.LBB1327:
 9010               	.LM819:
 9011 2bba E091 0000 		lds r30,Timebase
 9012 2bbe F091 0000 		lds r31,(Timebase)+1
 9013 2bc2 282F      		mov r18,r24
 9014 2bc4 30E0      		ldi r19,lo8(0)
 9015 2bc6 8901      		movw r16,r18
 9016 2bc8 44E0      		ldi r20,4
 9017 2bca 000F      	1:	lsl r16
 9018 2bcc 111F      		rol r17
 9019 2bce 4A95      		dec r20
 9020 2bd0 01F4      		brne 1b
 9021               	.LVL561:
 9022 2bd2 020F      		add r16,r18
 9023 2bd4 131F      		adc r17,r19
 9024 2bd6 E00F      		add r30,r16
 9025 2bd8 F11F      		adc r31,r17
 9026 2bda E659      		subi r30,lo8(-(106))
 9027 2bdc FF4F      		sbci r31,hi8(-(106))
 9028 2bde 1192      		st Z+,__zero_reg__
 9029 2be0 1192      		st Z+,__zero_reg__
 9030 2be2 1192      		st Z+,__zero_reg__
 9031 2be4 1192      		st Z+,__zero_reg__
 9032               	.LBE1327:
 9033               	.LBE1326:
 9034               	.LBB1328:
 9035               	.LBB1329:
 9036               	.LM820:
 9037 2be6 1082      		st Z,__zero_reg__
 9038 2be8 1182      		std Z+1,__zero_reg__
 9039 2bea 1282      		std Z+2,__zero_reg__
 9040 2bec 1382      		std Z+3,__zero_reg__
 9041 2bee EE56      		subi r30,lo8(-(-110))
 9042 2bf0 F040      		sbci r31,hi8(-(-110))
 9043               	.LBE1329:
 9044               	.LBE1328:
 9045               	.LBB1330:
 9046               	.LBB1331:
 9047               	.LM821:
 9048 2bf2 DF01      		movw r26,r30
 9049 2bf4 A759      		subi r26,lo8(-(105))
 9050 2bf6 BF4F      		sbci r27,hi8(-(105))
 9051 2bf8 9C91      		ld r25,X
 9052               	.LBE1331:
 9053               	.LBE1330:
 9054               	.LBB1332:
 9055               	.LBB1333:
 9056               	.LM822:
 9057 2bfa 907E      		andi r25,lo8(-32)
 9058 2bfc 9C93      		st X,r25
 9059               	.LBE1333:
 9060               	.LBE1332:
 9061               	.LBB1334:
 9062               	.LBB1335:
 9063               	.LM823:
 9064 2bfe EA58      		subi r30,lo8(-(118))
 9065 2c00 FF4F      		sbci r31,hi8(-(118))
 9066 2c02 1082      		st Z,__zero_reg__
 9067 2c04 1182      		std Z+1,__zero_reg__
 9068 2c06 1282      		std Z+2,__zero_reg__
 9069 2c08 1382      		std Z+3,__zero_reg__
 9070               	.LBE1335:
 9071               	.LBE1334:
 9072               	.LBE1325:
 9073               	.LBE1324:
 9074               	.LM824:
 9075 2c0a B701      		movw r22,r14
 9076 2c0c A601      		movw r20,r12
 9077 2c0e 0E94 0000 		call Timebase_DownCounter_Set_Securely
 9078               	.LVL562:
 9079               	.LBB1336:
 9080               	.LBB1337:
 9081               	.LM825:
 9082 2c12 E091 0000 		lds r30,Timebase
 9083 2c16 F091 0000 		lds r31,(Timebase)+1
 9084 2c1a E00F      		add r30,r16
 9085 2c1c F11F      		adc r31,r17
 9086 2c1e EA58      		subi r30,lo8(-(118))
 9087 2c20 FF4F      		sbci r31,hi8(-(118))
 9088 2c22 C082      		st Z,r12
 9089 2c24 D182      		std Z+1,r13
 9090 2c26 E282      		std Z+2,r14
 9091 2c28 F382      		std Z+3,r15
 9092               	/* epilogue start */
 9093               	.LBE1337:
 9094               	.LBE1336:
 9095               	.LM826:
 9096 2c2a 1F91      		pop r17
 9097 2c2c 0F91      		pop r16
 9098 2c2e FF90      		pop r15
 9099 2c30 EF90      		pop r14
 9100 2c32 DF90      		pop r13
 9101 2c34 CF90      		pop r12
 9102               	.LVL563:
 9103 2c36 0895      		ret
 9104               	.LFE154:
 9106               	.global	Timebase_DownCounter_Update
 9108               	Timebase_DownCounter_Update:
 9109               	.LFB155:
 9110               	.LM827:
 9111               	.LVL564:
 9112 2c38 0F93      		push r16
 9113 2c3a 1F93      		push r17
 9114 2c3c CF93      		push r28
 9115 2c3e DF93      		push r29
 9116               	/* prologue: function */
 9117               	/* frame size = 0 */
 9118               	.LBB1338:
 9119               	.LBB1339:
 9120               	.LM828:
 9121 2c40 A091 0000 		lds r26,Timebase
 9122 2c44 B091 0000 		lds r27,(Timebase)+1
 9123 2c48 90E0      		ldi r25,lo8(0)
 9124 2c4a FC01      		movw r30,r24
 9125               	.LVL565:
 9126 2c4c 54E0      		ldi r21,4
 9127 2c4e EE0F      	1:	lsl r30
 9128 2c50 FF1F      		rol r31
 9129 2c52 5A95      		dec r21
 9130 2c54 01F4      		brne 1b
 9131 2c56 E80F      		add r30,r24
 9132 2c58 F91F      		adc r31,r25
 9133 2c5a EA0F      		add r30,r26
 9134 2c5c FB1F      		adc r31,r27
 9135 2c5e BF01      		movw r22,r30
 9136 2c60 6759      		subi r22,lo8(-(105))
 9137 2c62 7F4F      		sbci r23,hi8(-(105))
 9138 2c64 EB01      		movw r28,r22
 9139 2c66 8881      		ld r24,Y
 9140 2c68 8695      		lsr r24
 9141 2c6a 8F70      		andi r24,lo8(15)
 9142               	.LBE1339:
 9143               	.LBE1338:
 9144               	.LM829:
 9145 2c6c 8130      		cpi r24,lo8(1)
 9146 2c6e 01F4      		brne .L412
 9147               	.LBB1340:
 9148               	.LBB1341:
 9149               	.LM830:
 9150 2c70 1C96      		adiw r26,12
 9151 2c72 2D91      		ld r18,X+
 9152 2c74 3D91      		ld r19,X+
 9153 2c76 4D91      		ld r20,X+
 9154 2c78 5C91      		ld r21,X
 9155 2c7a 1F97      		sbiw r26,12+3
 9156               	.LBE1341:
 9157               	.LBE1340:
 9158               	.LM831:
 9159 2c7c 8F01      		movw r16,r30
 9160 2c7e 0659      		subi r16,lo8(-(106))
 9161 2c80 1F4F      		sbci r17,hi8(-(106))
 9162 2c82 E801      		movw r28,r16
 9163 2c84 8881      		ld r24,Y
 9164 2c86 9981      		ldd r25,Y+1
 9165 2c88 AA81      		ldd r26,Y+2
 9166 2c8a BB81      		ldd r27,Y+3
 9167 2c8c 821B      		sub r24,r18
 9168 2c8e 930B      		sbc r25,r19
 9169 2c90 A40B      		sbc r26,r20
 9170 2c92 B50B      		sbc r27,r21
 9171               	.LBB1342:
 9172               	.LBB1343:
 9173               	.LM832:
 9174 2c94 EF01      		movw r28,r30
 9175 2c96 C259      		subi r28,lo8(-(110))
 9176 2c98 DF4F      		sbci r29,hi8(-(110))
 9177 2c9a 8883      		st Y,r24
 9178 2c9c 9983      		std Y+1,r25
 9179 2c9e AA83      		std Y+2,r26
 9180 2ca0 BB83      		std Y+3,r27
 9181               	.LBE1343:
 9182               	.LBE1342:
 9183               	.LM833:
 9184 2ca2 1816      		cp __zero_reg__,r24
 9185 2ca4 1906      		cpc __zero_reg__,r25
 9186 2ca6 1A06      		cpc __zero_reg__,r26
 9187 2ca8 1B06      		cpc __zero_reg__,r27
 9188 2caa 04F0      		brlt .L414
 9189               	.LBB1344:
 9190               	.LBB1345:
 9191               	.LBB1346:
 9192               	.LBB1347:
 9193               	.LM834:
 9194 2cac D801      		movw r26,r16
 9195 2cae 1D92      		st X+,__zero_reg__
 9196 2cb0 1D92      		st X+,__zero_reg__
 9197 2cb2 1D92      		st X+,__zero_reg__
 9198 2cb4 1C92      		st X,__zero_reg__
 9199 2cb6 1397      		sbiw r26,3
 9200               	.LBE1347:
 9201               	.LBE1346:
 9202               	.LBB1348:
 9203               	.LBB1349:
 9204               	.LM835:
 9205 2cb8 1882      		st Y,__zero_reg__
 9206 2cba 1982      		std Y+1,__zero_reg__
 9207 2cbc 1A82      		std Y+2,__zero_reg__
 9208 2cbe 1B82      		std Y+3,__zero_reg__
 9209               	.LBE1349:
 9210               	.LBE1348:
 9211               	.LBB1350:
 9212               	.LBB1351:
 9213               	.LM836:
 9214 2cc0 EB01      		movw r28,r22
 9215 2cc2 8881      		ld r24,Y
 9216 2cc4 8E7F      		andi r24,lo8(-2)
 9217 2cc6 8883      		st Y,r24
 9218               	.LBE1351:
 9219               	.LBE1350:
 9220               	.LBB1352:
 9221               	.LBB1353:
 9222               	.LM837:
 9223 2cc8 EA58      		subi r30,lo8(-(118))
 9224 2cca FF4F      		sbci r31,hi8(-(118))
 9225 2ccc 1082      		st Z,__zero_reg__
 9226 2cce 1182      		std Z+1,__zero_reg__
 9227 2cd0 1282      		std Z+2,__zero_reg__
 9228 2cd2 1382      		std Z+3,__zero_reg__
 9229               	.LBE1353:
 9230               	.LBE1352:
 9231               	.LBE1345:
 9232               	.LBE1344:
 9233               	.LBB1354:
 9234               	.LBB1355:
 9235               	.LM838:
 9236 2cd4 8881      		ld r24,Y
 9237 2cd6 817E      		andi r24,lo8(-31)
 9238 2cd8 8860      		ori r24,lo8(8)
 9239 2cda 8883      		st Y,r24
 9240 2cdc 00C0      		rjmp .L414
 9241               	.L412:
 9242               	.LBE1355:
 9243               	.LBE1354:
 9244               	.LM839:
 9245 2cde 8230      		cpi r24,lo8(2)
 9246 2ce0 01F4      		brne .L414
 9247               	.LBB1356:
 9248               	.LBB1357:
 9249               	.LM840:
 9250 2ce2 1C96      		adiw r26,12
 9251 2ce4 8D91      		ld r24,X+
 9252 2ce6 9D91      		ld r25,X+
 9253 2ce8 0D90      		ld __tmp_reg__,X+
 9254 2cea BC91      		ld r27,X
 9255 2cec A02D      		mov r26,__tmp_reg__
 9256               	.LBE1357:
 9257               	.LBE1356:
 9258               	.LBB1358:
 9259               	.LBB1359:
 9260               	.LM841:
 9261 2cee E259      		subi r30,lo8(-(110))
 9262 2cf0 FF4F      		sbci r31,hi8(-(110))
 9263 2cf2 2081      		ld r18,Z
 9264 2cf4 3181      		ldd r19,Z+1
 9265 2cf6 4281      		ldd r20,Z+2
 9266 2cf8 5381      		ldd r21,Z+3
 9267 2cfa 820F      		add r24,r18
 9268 2cfc 931F      		adc r25,r19
 9269 2cfe A41F      		adc r26,r20
 9270 2d00 B51F      		adc r27,r21
 9271 2d02 B293      		st -Z,r27
 9272 2d04 A293      		st -Z,r26
 9273 2d06 9293      		st -Z,r25
 9274 2d08 8293      		st -Z,r24
 9275               	.L414:
 9276               	/* epilogue start */
 9277               	.LBE1359:
 9278               	.LBE1358:
 9279               	.LM842:
 9280 2d0a DF91      		pop r29
 9281 2d0c CF91      		pop r28
 9282 2d0e 1F91      		pop r17
 9283 2d10 0F91      		pop r16
 9284 2d12 0895      		ret
 9285               	.LFE155:
 9287               	.global	Timebase_DownCounter_Expired
 9289               	Timebase_DownCounter_Expired:
 9290               	.LFB156:
 9291               	.LM843:
 9292               	.LVL566:
 9293               	/* prologue: function */
 9294               	/* frame size = 0 */
 9295               	.LM844:
 9296 2d14 40E0      		ldi r20,lo8(0)
 9297 2d16 E091 0000 		lds r30,Timebase
 9298 2d1a F091 0000 		lds r31,(Timebase)+1
 9299 2d1e 90E0      		ldi r25,lo8(0)
 9300               	.LVL567:
 9301 2d20 9C01      		movw r18,r24
 9302 2d22 64E0      		ldi r22,4
 9303 2d24 220F      	1:	lsl r18
 9304 2d26 331F      		rol r19
 9305 2d28 6A95      		dec r22
 9306 2d2a 01F4      		brne 1b
 9307 2d2c 280F      		add r18,r24
 9308 2d2e 391F      		adc r19,r25
 9309 2d30 E20F      		add r30,r18
 9310 2d32 F31F      		adc r31,r19
 9311 2d34 E759      		subi r30,lo8(-(105))
 9312 2d36 FF4F      		sbci r31,hi8(-(105))
 9313 2d38 8081      		ld r24,Z
 9314               	.LVL568:
 9315 2d3a 8695      		lsr r24
 9316 2d3c 8F70      		andi r24,lo8(15)
 9317 2d3e 8430      		cpi r24,lo8(4)
 9318 2d40 01F4      		brne .L416
 9319 2d42 41E0      		ldi r20,lo8(1)
 9320               	.L416:
 9321               	.LM845:
 9322 2d44 842F      		mov r24,r20
 9323               	/* epilogue start */
 9324 2d46 0895      		ret
 9325               	.LFE156:
 9327               	.global	Timebase_DownCounter_Expired_Event
 9329               	Timebase_DownCounter_Expired_Event:
 9330               	.LFB157:
 9331               	.LM846:
 9332               	.LVL569:
 9333               	/* prologue: function */
 9334               	/* frame size = 0 */
 9335               	.LBB1360:
 9336               	.LBB1361:
 9337               	.LM847:
 9338 2d48 E091 0000 		lds r30,Timebase
 9339 2d4c F091 0000 		lds r31,(Timebase)+1
 9340 2d50 90E0      		ldi r25,lo8(0)
 9341               	.LBE1361:
 9342               	.LBE1360:
 9343               	.LM848:
 9344 2d52 9C01      		movw r18,r24
 9345               	.LVL570:
 9346 2d54 74E0      		ldi r23,4
 9347 2d56 220F      	1:	lsl r18
 9348 2d58 331F      		rol r19
 9349 2d5a 7A95      		dec r23
 9350 2d5c 01F4      		brne 1b
 9351 2d5e 280F      		add r18,r24
 9352 2d60 391F      		adc r19,r25
 9353 2d62 E20F      		add r30,r18
 9354 2d64 F31F      		adc r31,r19
 9355 2d66 DF01      		movw r26,r30
 9356 2d68 A759      		subi r26,lo8(-(105))
 9357 2d6a BF4F      		sbci r27,hi8(-(105))
 9358 2d6c 8C91      		ld r24,X
 9359 2d6e 8695      		lsr r24
 9360 2d70 8F70      		andi r24,lo8(15)
 9361 2d72 8430      		cpi r24,lo8(4)
 9362 2d74 01F0      		breq .L419
 9363 2d76 80E0      		ldi r24,lo8(0)
 9364 2d78 0895      		ret
 9365               	.L419:
 9366               	.LBB1362:
 9367               	.LBB1363:
 9368               	.LBB1364:
 9369               	.LBB1365:
 9370               	.LBB1366:
 9371               	.LBB1367:
 9372               	.LM849:
 9373 2d7a E659      		subi r30,lo8(-(106))
 9374 2d7c FF4F      		sbci r31,hi8(-(106))
 9375 2d7e 1192      		st Z+,__zero_reg__
 9376 2d80 1192      		st Z+,__zero_reg__
 9377 2d82 1192      		st Z+,__zero_reg__
 9378 2d84 1192      		st Z+,__zero_reg__
 9379               	.LBE1367:
 9380               	.LBE1366:
 9381               	.LBB1368:
 9382               	.LBB1369:
 9383               	.LM850:
 9384 2d86 1082      		st Z,__zero_reg__
 9385 2d88 1182      		std Z+1,__zero_reg__
 9386 2d8a 1282      		std Z+2,__zero_reg__
 9387 2d8c 1382      		std Z+3,__zero_reg__
 9388               	.LBE1369:
 9389               	.LBE1368:
 9390               	.LBB1370:
 9391               	.LBB1371:
 9392               	.LM851:
 9393 2d8e 8C91      		ld r24,X
 9394               	.LBE1371:
 9395               	.LBE1370:
 9396               	.LBB1372:
 9397               	.LBB1373:
 9398               	.LM852:
 9399 2d90 807E      		andi r24,lo8(-32)
 9400 2d92 8C93      		st X,r24
 9401               	.LBE1373:
 9402               	.LBE1372:
 9403               	.LBB1374:
 9404               	.LBB1375:
 9405               	.LM853:
 9406 2d94 3896      		adiw r30,8
 9407 2d96 1082      		st Z,__zero_reg__
 9408 2d98 1182      		std Z+1,__zero_reg__
 9409 2d9a 1282      		std Z+2,__zero_reg__
 9410 2d9c 1382      		std Z+3,__zero_reg__
 9411 2d9e 81E0      		ldi r24,lo8(1)
 9412               	.LBE1375:
 9413               	.LBE1374:
 9414               	.LBE1365:
 9415               	.LBE1364:
 9416               	.LBE1363:
 9417               	.LBE1362:
 9418               	.LM854:
 9419 2da0 0895      		ret
 9420               	.LFE157:
 9422               	.global	Timebase_DownCounter_Set_Period_Value_Securely
 9424               	Timebase_DownCounter_Set_Period_Value_Securely:
 9425               	.LFB158:
 9426               	.LM855:
 9427               	.LVL571:
 9428 2da2 CF93      		push r28
 9429 2da4 DF93      		push r29
 9430               	/* prologue: function */
 9431               	/* frame size = 0 */
 9432               	.LBB1376:
 9433               	.LBB1377:
 9434               	.LM856:
 9435 2da6 C091 0000 		lds r28,Timebase
 9436 2daa D091 0000 		lds r29,(Timebase)+1
 9437 2dae 282F      		mov r18,r24
 9438 2db0 30E0      		ldi r19,lo8(0)
 9439               	.LBE1377:
 9440               	.LBE1376:
 9441               	.LM857:
 9442 2db2 F901      		movw r30,r18
 9443 2db4 B4E0      		ldi r27,4
 9444 2db6 EE0F      	1:	lsl r30
 9445 2db8 FF1F      		rol r31
 9446 2dba BA95      		dec r27
 9447 2dbc 01F4      		brne 1b
 9448 2dbe E20F      		add r30,r18
 9449 2dc0 F31F      		adc r31,r19
 9450 2dc2 EC0F      		add r30,r28
 9451 2dc4 FD1F      		adc r31,r29
 9452 2dc6 E759      		subi r30,lo8(-(105))
 9453 2dc8 FF4F      		sbci r31,hi8(-(105))
 9454 2dca 8081      		ld r24,Z
 9455               	.LVL572:
 9456 2dcc E956      		subi r30,lo8(-(-105))
 9457 2dce F040      		sbci r31,hi8(-(-105))
 9458 2dd0 80FD      		sbrc r24,0
 9459 2dd2 00C0      		rjmp .L426
 9460               	.LM858:
 9461 2dd4 E259      		subi r30,lo8(-(110))
 9462 2dd6 FF4F      		sbci r31,hi8(-(110))
 9463 2dd8 8191      		ld r24,Z+
 9464 2dda 9191      		ld r25,Z+
 9465 2ddc A191      		ld r26,Z+
 9466 2dde B191      		ld r27,Z+
 9467 2de0 841B      		sub r24,r20
 9468 2de2 950B      		sbc r25,r21
 9469 2de4 A60B      		sbc r26,r22
 9470 2de6 B70B      		sbc r27,r23
 9471               	.LBB1378:
 9472               	.LBB1379:
 9473               	.LM859:
 9474 2de8 B7FF      		sbrs r27,7
 9475 2dea 00C0      		rjmp .L424
 9476               	.LM860:
 9477 2dec 1082      		st Z,__zero_reg__
 9478 2dee 1182      		std Z+1,__zero_reg__
 9479 2df0 1282      		std Z+2,__zero_reg__
 9480 2df2 1382      		std Z+3,__zero_reg__
 9481 2df4 00C0      		rjmp .L425
 9482               	.L424:
 9483               	.LM861:
 9484 2df6 8083      		st Z,r24
 9485 2df8 9183      		std Z+1,r25
 9486 2dfa A283      		std Z+2,r26
 9487 2dfc B383      		std Z+3,r27
 9488               	.L425:
 9489               	.LBE1379:
 9490               	.LBE1378:
 9491               	.LBB1380:
 9492               	.LBB1381:
 9493               	.LM862:
 9494 2dfe F901      		movw r30,r18
 9495 2e00 A4E0      		ldi r26,4
 9496 2e02 EE0F      	1:	lsl r30
 9497 2e04 FF1F      		rol r31
 9498 2e06 AA95      		dec r26
 9499 2e08 01F4      		brne 1b
 9500 2e0a E20F      		add r30,r18
 9501 2e0c F31F      		adc r31,r19
 9502 2e0e EC0F      		add r30,r28
 9503 2e10 FD1F      		adc r31,r29
 9504 2e12 E759      		subi r30,lo8(-(105))
 9505 2e14 FF4F      		sbci r31,hi8(-(105))
 9506 2e16 8081      		ld r24,Z
 9507 2e18 8160      		ori r24,lo8(1)
 9508 2e1a 8083      		st Z,r24
 9509               	.L426:
 9510               	/* epilogue start */
 9511               	.LBE1381:
 9512               	.LBE1380:
 9513               	.LM863:
 9514 2e1c DF91      		pop r29
 9515 2e1e CF91      		pop r28
 9516 2e20 0895      		ret
 9517               	.LFE158:
 9519               	.global	Timebase_DownCounter_Get_Remaining_Period_Value
 9521               	Timebase_DownCounter_Get_Remaining_Period_Value:
 9522               	.LFB159:
 9523               	.LM864:
 9524               	.LVL573:
 9525               	/* prologue: function */
 9526               	/* frame size = 0 */
 9527               	.LBB1382:
 9528               	.LBB1383:
 9529               	.LM865:
 9530 2e22 E091 0000 		lds r30,Timebase
 9531 2e26 F091 0000 		lds r31,(Timebase)+1
 9532 2e2a 90E0      		ldi r25,lo8(0)
 9533               	.LBE1383:
 9534               	.LBE1382:
 9535               	.LM866:
 9536 2e2c 9C01      		movw r18,r24
 9537               	.LVL574:
 9538 2e2e 44E0      		ldi r20,4
 9539 2e30 220F      	1:	lsl r18
 9540 2e32 331F      		rol r19
 9541 2e34 4A95      		dec r20
 9542 2e36 01F4      		brne 1b
 9543 2e38 280F      		add r18,r24
 9544 2e3a 391F      		adc r19,r25
 9545 2e3c E20F      		add r30,r18
 9546 2e3e F31F      		adc r31,r19
 9547 2e40 DF01      		movw r26,r30
 9548 2e42 AE58      		subi r26,lo8(-(114))
 9549 2e44 BF4F      		sbci r27,hi8(-(114))
 9550 2e46 E259      		subi r30,lo8(-(110))
 9551 2e48 FF4F      		sbci r31,hi8(-(110))
 9552 2e4a 2081      		ld r18,Z
 9553 2e4c 3181      		ldd r19,Z+1
 9554 2e4e 4281      		ldd r20,Z+2
 9555 2e50 5381      		ldd r21,Z+3
 9556               	.LVL575:
 9557 2e52 8D91      		ld r24,X+
 9558 2e54 9D91      		ld r25,X+
 9559 2e56 0D90      		ld __tmp_reg__,X+
 9560 2e58 BC91      		ld r27,X
 9561 2e5a A02D      		mov r26,__tmp_reg__
 9562 2e5c 281B      		sub r18,r24
 9563 2e5e 390B      		sbc r19,r25
 9564 2e60 4A0B      		sbc r20,r26
 9565 2e62 5B0B      		sbc r21,r27
 9566 2e64 57FF      		sbrs r21,7
 9567 2e66 00C0      		rjmp .L428
 9568 2e68 20E0      		ldi r18,lo8(0)
 9569 2e6a 30E0      		ldi r19,hi8(0)
 9570 2e6c 40E0      		ldi r20,hlo8(0)
 9571 2e6e 50E0      		ldi r21,hhi8(0)
 9572               	.L428:
 9573               	.LM867:
 9574 2e70 B901      		movw r22,r18
 9575               	.LVL576:
 9576 2e72 CA01      		movw r24,r20
 9577               	/* epilogue start */
 9578 2e74 0895      		ret
 9579               	.LFE159:
 9581               	.global	Timebase_DownCounter_Period_Value_Expired
 9583               	Timebase_DownCounter_Period_Value_Expired:
 9584               	.LFB160:
 9585               	.LM868:
 9586               	.LVL577:
 9587 2e76 CF93      		push r28
 9588 2e78 DF93      		push r29
 9589               	/* prologue: function */
 9590               	/* frame size = 0 */
 9591               	.LBB1384:
 9592               	.LBB1385:
 9593               	.LBB1386:
 9594               	.LBB1387:
 9595               	.LM869:
 9596 2e7a C091 0000 		lds r28,Timebase
 9597 2e7e D091 0000 		lds r29,(Timebase)+1
 9598 2e82 682F      		mov r22,r24
 9599 2e84 70E0      		ldi r23,lo8(0)
 9600               	.LBE1387:
 9601               	.LBE1386:
 9602               	.LM870:
 9603 2e86 FB01      		movw r30,r22
 9604 2e88 A4E0      		ldi r26,4
 9605 2e8a EE0F      	1:	lsl r30
 9606 2e8c FF1F      		rol r31
 9607 2e8e AA95      		dec r26
 9608 2e90 01F4      		brne 1b
 9609 2e92 E60F      		add r30,r22
 9610 2e94 F71F      		adc r31,r23
 9611 2e96 EC0F      		add r30,r28
 9612 2e98 FD1F      		adc r31,r29
 9613 2e9a DF01      		movw r26,r30
 9614 2e9c AE58      		subi r26,lo8(-(114))
 9615 2e9e BF4F      		sbci r27,hi8(-(114))
 9616 2ea0 E259      		subi r30,lo8(-(110))
 9617 2ea2 FF4F      		sbci r31,hi8(-(110))
 9618 2ea4 2081      		ld r18,Z
 9619 2ea6 3181      		ldd r19,Z+1
 9620 2ea8 4281      		ldd r20,Z+2
 9621 2eaa 5381      		ldd r21,Z+3
 9622               	.LVL578:
 9623 2eac 8D91      		ld r24,X+
 9624 2eae 9D91      		ld r25,X+
 9625 2eb0 0D90      		ld __tmp_reg__,X+
 9626 2eb2 BC91      		ld r27,X
 9627 2eb4 A02D      		mov r26,__tmp_reg__
 9628               	.LVL579:
 9629 2eb6 281B      		sub r18,r24
 9630 2eb8 390B      		sbc r19,r25
 9631 2eba 4A0B      		sbc r20,r26
 9632 2ebc 5B0B      		sbc r21,r27
 9633               	.LM871:
 9634 2ebe 57FD      		sbrc r21,7
 9635 2ec0 00C0      		rjmp .L431
 9636               	.LBE1385:
 9637               	.LBE1384:
 9638               	.LM872:
 9639 2ec2 2115      		cp r18,__zero_reg__
 9640 2ec4 3105      		cpc r19,__zero_reg__
 9641 2ec6 4105      		cpc r20,__zero_reg__
 9642 2ec8 5105      		cpc r21,__zero_reg__
 9643 2eca 01F0      		breq .L431
 9644 2ecc 20E0      		ldi r18,lo8(0)
 9645               	.LVL580:
 9646 2ece 00C0      		rjmp .L432
 9647               	.LVL581:
 9648               	.L431:
 9649 2ed0 20E0      		ldi r18,lo8(0)
 9650               	.LVL582:
 9651 2ed2 CB01      		movw r24,r22
 9652 2ed4 54E0      		ldi r21,4
 9653 2ed6 880F      	1:	lsl r24
 9654 2ed8 991F      		rol r25
 9655 2eda 5A95      		dec r21
 9656 2edc 01F4      		brne 1b
 9657 2ede 860F      		add r24,r22
 9658 2ee0 971F      		adc r25,r23
 9659 2ee2 C80F      		add r28,r24
 9660 2ee4 D91F      		adc r29,r25
 9661 2ee6 C759      		subi r28,lo8(-(105))
 9662 2ee8 DF4F      		sbci r29,hi8(-(105))
 9663 2eea 8881      		ld r24,Y
 9664 2eec 80FF      		sbrs r24,0
 9665 2eee 21E0      		ldi r18,lo8(1)
 9666               	.L433:
 9667 2ef0 81E0      		ldi r24,lo8(1)
 9668 2ef2 2827      		eor r18,r24
 9669               	.L432:
 9670               	.LM873:
 9671 2ef4 822F      		mov r24,r18
 9672               	/* epilogue start */
 9673 2ef6 DF91      		pop r29
 9674 2ef8 CF91      		pop r28
 9675 2efa 0895      		ret
 9676               	.LFE160:
 9678               	.global	Timebase_DownCounter_Period_Value_Expired_Event
 9680               	Timebase_DownCounter_Period_Value_Expired_Event:
 9681               	.LFB161:
 9682               	.LM874:
 9683               	.LVL583:
 9684 2efc 1F93      		push r17
 9685               	/* prologue: function */
 9686               	/* frame size = 0 */
 9687 2efe 182F      		mov r17,r24
 9688               	.LM875:
 9689 2f00 0E94 0000 		call Timebase_DownCounter_Period_Value_Expired
 9690               	.LVL584:
 9691 2f04 8130      		cpi r24,lo8(1)
 9692 2f06 01F0      		breq .L436
 9693 2f08 80E0      		ldi r24,lo8(0)
 9694 2f0a 00C0      		rjmp .L437
 9695               	.L436:
 9696               	.LBB1388:
 9697               	.LBB1389:
 9698               	.LM876:
 9699 2f0c E091 0000 		lds r30,Timebase
 9700 2f10 F091 0000 		lds r31,(Timebase)+1
 9701 2f14 212F      		mov r18,r17
 9702 2f16 30E0      		ldi r19,lo8(0)
 9703               	.LVL585:
 9704 2f18 C901      		movw r24,r18
 9705 2f1a B4E0      		ldi r27,4
 9706 2f1c 880F      	1:	lsl r24
 9707 2f1e 991F      		rol r25
 9708 2f20 BA95      		dec r27
 9709 2f22 01F4      		brne 1b
 9710 2f24 820F      		add r24,r18
 9711 2f26 931F      		adc r25,r19
 9712 2f28 E80F      		add r30,r24
 9713 2f2a F91F      		adc r31,r25
 9714 2f2c E759      		subi r30,lo8(-(105))
 9715 2f2e FF4F      		sbci r31,hi8(-(105))
 9716 2f30 8081      		ld r24,Z
 9717 2f32 8E7F      		andi r24,lo8(-2)
 9718 2f34 8083      		st Z,r24
 9719 2f36 81E0      		ldi r24,lo8(1)
 9720               	.L437:
 9721               	/* epilogue start */
 9722               	.LBE1389:
 9723               	.LBE1388:
 9724               	.LM877:
 9725 2f38 1F91      		pop r17
 9726               	.LVL586:
 9727 2f3a 0895      		ret
 9728               	.LFE161:
 9730               	.global	Timebase_DownCounter_Oneshot_Expired_Event
 9732               	Timebase_DownCounter_Oneshot_Expired_Event:
 9733               	.LFB162:
 9734               	.LM878:
 9735               	.LVL587:
 9736               	/* prologue: function */
 9737               	/* frame size = 0 */
 9738               	.LM879:
 9739 2f3c 0E94 0000 		call Timebase_DownCounter_Expired_Event
 9740               	.LVL588:
 9741               	/* epilogue start */
 9742               	.LM880:
 9743 2f40 0895      		ret
 9744               	.LFE162:
 9746               	.global	Timebase_DownCounter_Continuous_Expired_Event
 9748               	Timebase_DownCounter_Continuous_Expired_Event:
 9749               	.LFB163:
 9750               	.LM881:
 9751               	.LVL589:
 9752 2f42 1F93      		push r17
 9753 2f44 CF93      		push r28
 9754 2f46 DF93      		push r29
 9755               	/* prologue: function */
 9756               	/* frame size = 0 */
 9757 2f48 182F      		mov r17,r24
 9758               	.LBB1390:
 9759               	.LBB1391:
 9760               	.LM882:
 9761 2f4a E091 0000 		lds r30,Timebase
 9762 2f4e F091 0000 		lds r31,(Timebase)+1
 9763 2f52 90E0      		ldi r25,lo8(0)
 9764               	.LBE1391:
 9765               	.LBE1390:
 9766               	.LM883:
 9767 2f54 9C01      		movw r18,r24
 9768               	.LVL590:
 9769 2f56 44E0      		ldi r20,4
 9770 2f58 220F      	1:	lsl r18
 9771 2f5a 331F      		rol r19
 9772 2f5c 4A95      		dec r20
 9773 2f5e 01F4      		brne 1b
 9774 2f60 280F      		add r18,r24
 9775 2f62 391F      		adc r19,r25
 9776 2f64 E20F      		add r30,r18
 9777 2f66 F31F      		adc r31,r19
 9778 2f68 EF01      		movw r28,r30
 9779 2f6a C759      		subi r28,lo8(-(105))
 9780 2f6c DF4F      		sbci r29,hi8(-(105))
 9781 2f6e 8881      		ld r24,Y
 9782 2f70 8695      		lsr r24
 9783 2f72 8F70      		andi r24,lo8(15)
 9784 2f74 8430      		cpi r24,lo8(4)
 9785 2f76 01F0      		breq .L442
 9786 2f78 80E0      		ldi r24,lo8(0)
 9787 2f7a 00C0      		rjmp .L443
 9788               	.L442:
 9789               	.LBB1392:
 9790               	.LBB1393:
 9791               	.LBB1394:
 9792               	.LM884:
 9793 2f7c DF01      		movw r26,r30
 9794 2f7e AA58      		subi r26,lo8(-(118))
 9795 2f80 BF4F      		sbci r27,hi8(-(118))
 9796 2f82 4D91      		ld r20,X+
 9797 2f84 5D91      		ld r21,X+
 9798 2f86 6D91      		ld r22,X+
 9799 2f88 7C91      		ld r23,X
 9800 2f8a 1397      		sbiw r26,3
 9801               	.LVL591:
 9802               	.LBE1394:
 9803               	.LBE1393:
 9804               	.LBB1395:
 9805               	.LBB1396:
 9806               	.LBB1397:
 9807               	.LBB1398:
 9808               	.LBB1399:
 9809               	.LBB1400:
 9810               	.LM885:
 9811 2f8c E659      		subi r30,lo8(-(106))
 9812 2f8e FF4F      		sbci r31,hi8(-(106))
 9813 2f90 1192      		st Z+,__zero_reg__
 9814 2f92 1192      		st Z+,__zero_reg__
 9815 2f94 1192      		st Z+,__zero_reg__
 9816 2f96 1192      		st Z+,__zero_reg__
 9817               	.LBE1400:
 9818               	.LBE1399:
 9819               	.LBB1401:
 9820               	.LBB1402:
 9821               	.LM886:
 9822 2f98 1082      		st Z,__zero_reg__
 9823 2f9a 1182      		std Z+1,__zero_reg__
 9824 2f9c 1282      		std Z+2,__zero_reg__
 9825 2f9e 1382      		std Z+3,__zero_reg__
 9826               	.LBE1402:
 9827               	.LBE1401:
 9828               	.LBB1403:
 9829               	.LBB1404:
 9830               	.LM887:
 9831 2fa0 8881      		ld r24,Y
 9832               	.LBE1404:
 9833               	.LBE1403:
 9834               	.LBB1405:
 9835               	.LBB1406:
 9836               	.LM888:
 9837 2fa2 807E      		andi r24,lo8(-32)
 9838 2fa4 8883      		st Y,r24
 9839               	.LBE1406:
 9840               	.LBE1405:
 9841               	.LBB1407:
 9842               	.LBB1408:
 9843               	.LM889:
 9844 2fa6 1D92      		st X+,__zero_reg__
 9845 2fa8 1D92      		st X+,__zero_reg__
 9846 2faa 1D92      		st X+,__zero_reg__
 9847 2fac 1C92      		st X,__zero_reg__
 9848 2fae 1397      		sbiw r26,3
 9849               	.LBE1408:
 9850               	.LBE1407:
 9851               	.LBE1398:
 9852               	.LBE1397:
 9853               	.LBE1396:
 9854               	.LBE1395:
 9855               	.LM890:
 9856 2fb0 812F      		mov r24,r17
 9857 2fb2 0E94 0000 		call Timebase_DownCounter_Set_Securely
 9858               	.LVL592:
 9859 2fb6 81E0      		ldi r24,lo8(1)
 9860               	.L443:
 9861               	/* epilogue start */
 9862               	.LBE1392:
 9863               	.LM891:
 9864 2fb8 DF91      		pop r29
 9865 2fba CF91      		pop r28
 9866 2fbc 1F91      		pop r17
 9867               	.LVL593:
 9868 2fbe 0895      		ret
 9869               	.LFE163:
 9871               	.global	Timebase_DownCounter_Update_All
 9873               	Timebase_DownCounter_Update_All:
 9874               	.LFB164:
 9875               	.LM892:
 9876               	/* prologue: function */
 9877               	/* frame size = 0 */
 9878               	.LBB1409:
 9879               	.LM893:
 9880 2fc0 80E0      		ldi r24,lo8(0)
 9881 2fc2 0E94 0000 		call Timebase_DownCounter_Update
 9882               	/* epilogue start */
 9883               	.LBE1409:
 9884               	.LM894:
 9885 2fc6 0895      		ret
 9886               	.LFE164:
 9888               	.global	Timebase_DownCounter_Reset_All
 9890               	Timebase_DownCounter_Reset_All:
 9891               	.LFB165:
 9892               	.LM895:
 9893               	/* prologue: function */
 9894               	/* frame size = 0 */
 9895               	.LBB1410:
 9896               	.LBB1411:
 9897               	.LBB1412:
 9898               	.LBB1413:
 9899               	.LBB1414:
 9900               	.LM896:
 9901 2fc8 E091 0000 		lds r30,Timebase
 9902 2fcc F091 0000 		lds r31,(Timebase)+1
 9903 2fd0 E659      		subi r30,lo8(-(106))
 9904 2fd2 FF4F      		sbci r31,hi8(-(106))
 9905 2fd4 1192      		st Z+,__zero_reg__
 9906 2fd6 1192      		st Z+,__zero_reg__
 9907 2fd8 1192      		st Z+,__zero_reg__
 9908 2fda 1192      		st Z+,__zero_reg__
 9909               	.LBE1414:
 9910               	.LBE1413:
 9911               	.LBB1415:
 9912               	.LBB1416:
 9913               	.LM897:
 9914 2fdc 1082      		st Z,__zero_reg__
 9915 2fde 1182      		std Z+1,__zero_reg__
 9916 2fe0 1282      		std Z+2,__zero_reg__
 9917 2fe2 1382      		std Z+3,__zero_reg__
 9918 2fe4 EE56      		subi r30,lo8(-(-110))
 9919 2fe6 F040      		sbci r31,hi8(-(-110))
 9920               	.LBE1416:
 9921               	.LBE1415:
 9922               	.LBB1417:
 9923               	.LBB1418:
 9924               	.LM898:
 9925 2fe8 DF01      		movw r26,r30
 9926 2fea A759      		subi r26,lo8(-(105))
 9927 2fec BF4F      		sbci r27,hi8(-(105))
 9928 2fee 8C91      		ld r24,X
 9929               	.LBE1418:
 9930               	.LBE1417:
 9931               	.LBB1419:
 9932               	.LBB1420:
 9933               	.LM899:
 9934 2ff0 807E      		andi r24,lo8(-32)
 9935 2ff2 8C93      		st X,r24
 9936               	.LBE1420:
 9937               	.LBE1419:
 9938               	.LBB1421:
 9939               	.LBB1422:
 9940               	.LM900:
 9941 2ff4 EA58      		subi r30,lo8(-(118))
 9942 2ff6 FF4F      		sbci r31,hi8(-(118))
 9943 2ff8 1082      		st Z,__zero_reg__
 9944 2ffa 1182      		std Z+1,__zero_reg__
 9945 2ffc 1282      		std Z+2,__zero_reg__
 9946 2ffe 1382      		std Z+3,__zero_reg__
 9947               	/* epilogue start */
 9948               	.LBE1422:
 9949               	.LBE1421:
 9950               	.LBE1412:
 9951               	.LBE1411:
 9952               	.LBE1410:
 9953               	.LM901:
 9954 3000 0895      		ret
 9955               	.LFE165:
 9957               	.global	Timebase_LPDownCounter_Get_Status
 9959               	Timebase_LPDownCounter_Get_Status:
 9960               	.LFB166:
 9961               	.LM902:
 9962               	.LVL594:
 9963               	/* prologue: function */
 9964               	/* frame size = 0 */
 9965               	.LM903:
 9966 3002 E091 0000 		lds r30,Timebase
 9967 3006 F091 0000 		lds r31,(Timebase)+1
 9968 300a 90E0      		ldi r25,lo8(0)
 9969               	.LVL595:
 9970 300c 9C01      		movw r18,r24
 9971 300e 54E0      		ldi r21,4
 9972 3010 220F      	1:	lsl r18
 9973 3012 331F      		rol r19
 9974 3014 5A95      		dec r21
 9975 3016 01F4      		brne 1b
 9976 3018 280F      		add r18,r24
 9977 301a 391F      		adc r19,r25
 9978 301c E20F      		add r30,r18
 9979 301e F31F      		adc r31,r19
 9980 3020 E658      		subi r30,lo8(-(122))
 9981 3022 FF4F      		sbci r31,hi8(-(122))
 9982 3024 8081      		ld r24,Z
 9983               	.LVL596:
 9984 3026 8695      		lsr r24
 9985               	.LM904:
 9986 3028 8F70      		andi r24,lo8(15)
 9987               	/* epilogue start */
 9988 302a 0895      		ret
 9989               	.LFE166:
 9991               	.global	Timebase_LPDownCounter_Set_Status
 9993               	Timebase_LPDownCounter_Set_Status:
 9994               	.LFB167:
 9995               	.LM905:
 9996               	.LVL597:
 9997               	/* prologue: function */
 9998               	/* frame size = 0 */
 9999               	.LM906:
 10000 302c E091 0000 		lds r30,Timebase
 10001 3030 F091 0000 		lds r31,(Timebase)+1
 10002 3034 90E0      		ldi r25,lo8(0)
 10003               	.LVL598:
 10004 3036 9C01      		movw r18,r24
 10005 3038 74E0      		ldi r23,4
 10006 303a 220F      	1:	lsl r18
 10007 303c 331F      		rol r19
 10008 303e 7A95      		dec r23
 10009 3040 01F4      		brne 1b
 10010 3042 280F      		add r18,r24
 10011 3044 391F      		adc r19,r25
 10012 3046 E20F      		add r30,r18
 10013 3048 F31F      		adc r31,r19
 10014 304a E658      		subi r30,lo8(-(122))
 10015 304c FF4F      		sbci r31,hi8(-(122))
 10016 304e 6F70      		andi r22,lo8(15)
 10017               	.LVL599:
 10018 3050 660F      		lsl r22
 10019 3052 8081      		ld r24,Z
 10020               	.LVL600:
 10021 3054 817E      		andi r24,lo8(-31)
 10022 3056 862B      		or r24,r22
 10023 3058 8083      		st Z,r24
 10024               	/* epilogue start */
 10025               	.LM907:
 10026 305a 0895      		ret
 10027               	.LFE167:
 10029               	.global	Timebase_LPDownCounter_Get_Value
 10031               	Timebase_LPDownCounter_Get_Value:
 10032               	.LFB168:
 10033               	.LM908:
 10034               	.LVL601:
 10035               	/* prologue: function */
 10036               	/* frame size = 0 */
 10037               	.LM909:
 10038 305c E091 0000 		lds r30,Timebase
 10039 3060 F091 0000 		lds r31,(Timebase)+1
 10040 3064 90E0      		ldi r25,lo8(0)
 10041               	.LVL602:
 10042 3066 9C01      		movw r18,r24
 10043 3068 A4E0      		ldi r26,4
 10044 306a 220F      	1:	lsl r18
 10045 306c 331F      		rol r19
 10046 306e AA95      		dec r26
 10047 3070 01F4      		brne 1b
 10048 3072 280F      		add r18,r24
 10049 3074 391F      		adc r19,r25
 10050 3076 E20F      		add r30,r18
 10051 3078 F31F      		adc r31,r19
 10052 307a E158      		subi r30,lo8(-(127))
 10053 307c FF4F      		sbci r31,hi8(-(127))
 10054 307e 6081      		ld r22,Z
 10055 3080 7181      		ldd r23,Z+1
 10056               	.LM910:
 10057 3082 8281      		ldd r24,Z+2
 10058               	.LVL603:
 10059 3084 9381      		ldd r25,Z+3
 10060               	.LVL604:
 10061               	/* epilogue start */
 10062 3086 0895      		ret
 10063               	.LFE168:
 10065               	.global	Timebase_LPDownCounter_Set_Value
 10067               	Timebase_LPDownCounter_Set_Value:
 10068               	.LFB169:
 10069               	.LM911:
 10070               	.LVL605:
 10071               	/* prologue: function */
 10072               	/* frame size = 0 */
 10073               	.LM912:
 10074 3088 E091 0000 		lds r30,Timebase
 10075 308c F091 0000 		lds r31,(Timebase)+1
 10076 3090 90E0      		ldi r25,lo8(0)
 10077               	.LVL606:
 10078 3092 9C01      		movw r18,r24
 10079 3094 B4E0      		ldi r27,4
 10080 3096 220F      	1:	lsl r18
 10081 3098 331F      		rol r19
 10082 309a BA95      		dec r27
 10083 309c 01F4      		brne 1b
 10084 309e 280F      		add r18,r24
 10085 30a0 391F      		adc r19,r25
 10086 30a2 E20F      		add r30,r18
 10087 30a4 F31F      		adc r31,r19
 10088 30a6 E158      		subi r30,lo8(-(127))
 10089 30a8 FF4F      		sbci r31,hi8(-(127))
 10090 30aa 4083      		st Z,r20
 10091 30ac 5183      		std Z+1,r21
 10092 30ae 6283      		std Z+2,r22
 10093 30b0 7383      		std Z+3,r23
 10094               	/* epilogue start */
 10095               	.LM913:
 10096 30b2 0895      		ret
 10097               	.LFE169:
 10099               	.global	Timebase_LPDownCounter_Get_EndValue
 10101               	Timebase_LPDownCounter_Get_EndValue:
 10102               	.LFB170:
 10103               	.LM914:
 10104               	.LVL607:
 10105               	/* prologue: function */
 10106               	/* frame size = 0 */
 10107               	.LM915:
 10108 30b4 E091 0000 		lds r30,Timebase
 10109 30b8 F091 0000 		lds r31,(Timebase)+1
 10110 30bc 90E0      		ldi r25,lo8(0)
 10111               	.LVL608:
 10112 30be 9C01      		movw r18,r24
 10113 30c0 44E0      		ldi r20,4
 10114 30c2 220F      	1:	lsl r18
 10115 30c4 331F      		rol r19
 10116 30c6 4A95      		dec r20
 10117 30c8 01F4      		brne 1b
 10118 30ca 280F      		add r18,r24
 10119 30cc 391F      		adc r19,r25
 10120 30ce E20F      		add r30,r18
 10121 30d0 F31F      		adc r31,r19
 10122 30d2 E558      		subi r30,lo8(-(123))
 10123 30d4 FF4F      		sbci r31,hi8(-(123))
 10124 30d6 6081      		ld r22,Z
 10125 30d8 7181      		ldd r23,Z+1
 10126               	.LM916:
 10127 30da 8281      		ldd r24,Z+2
 10128               	.LVL609:
 10129 30dc 9381      		ldd r25,Z+3
 10130               	.LVL610:
 10131               	/* epilogue start */
 10132 30de 0895      		ret
 10133               	.LFE170:
 10135               	.global	Timebase_LPDownCounter_Set_EndValue
 10137               	Timebase_LPDownCounter_Set_EndValue:
 10138               	.LFB171:
 10139               	.LM917:
 10140               	.LVL611:
 10141               	/* prologue: function */
 10142               	/* frame size = 0 */
 10143               	.LM918:
 10144 30e0 E091 0000 		lds r30,Timebase
 10145 30e4 F091 0000 		lds r31,(Timebase)+1
 10146 30e8 90E0      		ldi r25,lo8(0)
 10147               	.LVL612:
 10148 30ea 9C01      		movw r18,r24
 10149 30ec A4E0      		ldi r26,4
 10150 30ee 220F      	1:	lsl r18
 10151 30f0 331F      		rol r19
 10152 30f2 AA95      		dec r26
 10153 30f4 01F4      		brne 1b
 10154 30f6 280F      		add r18,r24
 10155 30f8 391F      		adc r19,r25
 10156 30fa E20F      		add r30,r18
 10157 30fc F31F      		adc r31,r19
 10158 30fe E558      		subi r30,lo8(-(123))
 10159 3100 FF4F      		sbci r31,hi8(-(123))
 10160 3102 4083      		st Z,r20
 10161 3104 5183      		std Z+1,r21
 10162 3106 6283      		std Z+2,r22
 10163 3108 7383      		std Z+3,r23
 10164               	/* epilogue start */
 10165               	.LM919:
 10166 310a 0895      		ret
 10167               	.LFE171:
 10169               	.global	Timebase_LPDownCounter_Get_PeriodValue
 10171               	Timebase_LPDownCounter_Get_PeriodValue:
 10172               	.LFB172:
 10173               	.LM920:
 10174               	.LVL613:
 10175               	/* prologue: function */
 10176               	/* frame size = 0 */
 10177               	.LM921:
 10178 310c E091 0000 		lds r30,Timebase
 10179 3110 F091 0000 		lds r31,(Timebase)+1
 10180 3114 90E0      		ldi r25,lo8(0)
 10181               	.LVL614:
 10182 3116 9C01      		movw r18,r24
 10183 3118 B4E0      		ldi r27,4
 10184 311a 220F      	1:	lsl r18
 10185 311c 331F      		rol r19
 10186 311e BA95      		dec r27
 10187 3120 01F4      		brne 1b
 10188 3122 280F      		add r18,r24
 10189 3124 391F      		adc r19,r25
 10190 3126 E20F      		add r30,r18
 10191 3128 F31F      		adc r31,r19
 10192 312a ED57      		subi r30,lo8(-(131))
 10193 312c FF4F      		sbci r31,hi8(-(131))
 10194 312e 6081      		ld r22,Z
 10195 3130 7181      		ldd r23,Z+1
 10196               	.LM922:
 10197 3132 8281      		ldd r24,Z+2
 10198               	.LVL615:
 10199 3134 9381      		ldd r25,Z+3
 10200               	.LVL616:
 10201               	/* epilogue start */
 10202 3136 0895      		ret
 10203               	.LFE172:
 10205               	.global	Timebase_LPDownCounter_Set_PeriodValue
 10207               	Timebase_LPDownCounter_Set_PeriodValue:
 10208               	.LFB173:
 10209               	.LM923:
 10210               	.LVL617:
 10211               	/* prologue: function */
 10212               	/* frame size = 0 */
 10213 3138 E091 0000 		lds r30,Timebase
 10214 313c F091 0000 		lds r31,(Timebase)+1
 10215 3140 282F      		mov r18,r24
 10216 3142 30E0      		ldi r19,lo8(0)
 10217               	.LVL618:
 10218               	.LM924:
 10219 3144 77FF      		sbrs r23,7
 10220 3146 00C0      		rjmp .L464
 10221               	.LVL619:
 10222               	.LM925:
 10223 3148 C901      		movw r24,r18
 10224 314a B4E0      		ldi r27,4
 10225 314c 880F      	1:	lsl r24
 10226 314e 991F      		rol r25
 10227 3150 BA95      		dec r27
 10228 3152 01F4      		brne 1b
 10229 3154 820F      		add r24,r18
 10230 3156 931F      		adc r25,r19
 10231 3158 E80F      		add r30,r24
 10232 315a F91F      		adc r31,r25
 10233 315c ED57      		subi r30,lo8(-(131))
 10234 315e FF4F      		sbci r31,hi8(-(131))
 10235 3160 1082      		st Z,__zero_reg__
 10236 3162 1182      		std Z+1,__zero_reg__
 10237 3164 1282      		std Z+2,__zero_reg__
 10238 3166 1382      		std Z+3,__zero_reg__
 10239 3168 0895      		ret
 10240               	.LVL620:
 10241               	.L464:
 10242               	.LM926:
 10243 316a C901      		movw r24,r18
 10244 316c A4E0      		ldi r26,4
 10245 316e 880F      	1:	lsl r24
 10246 3170 991F      		rol r25
 10247 3172 AA95      		dec r26
 10248 3174 01F4      		brne 1b
 10249 3176 820F      		add r24,r18
 10250 3178 931F      		adc r25,r19
 10251 317a E80F      		add r30,r24
 10252 317c F91F      		adc r31,r25
 10253 317e ED57      		subi r30,lo8(-(131))
 10254 3180 FF4F      		sbci r31,hi8(-(131))
 10255 3182 4083      		st Z,r20
 10256 3184 5183      		std Z+1,r21
 10257 3186 6283      		std Z+2,r22
 10258 3188 7383      		std Z+3,r23
 10259 318a 0895      		ret
 10260               	.LFE173:
 10262               	.global	Timebase_LPDownCounter_Get_Period_Flag
 10264               	Timebase_LPDownCounter_Get_Period_Flag:
 10265               	.LFB174:
 10266               	.LM927:
 10267               	.LVL621:
 10268               	/* prologue: function */
 10269               	/* frame size = 0 */
 10270               	.LM928:
 10271 318c E091 0000 		lds r30,Timebase
 10272 3190 F091 0000 		lds r31,(Timebase)+1
 10273 3194 90E0      		ldi r25,lo8(0)
 10274               	.LVL622:
 10275 3196 9C01      		movw r18,r24
 10276 3198 44E0      		ldi r20,4
 10277 319a 220F      	1:	lsl r18
 10278 319c 331F      		rol r19
 10279 319e 4A95      		dec r20
 10280 31a0 01F4      		brne 1b
 10281 31a2 280F      		add r18,r24
 10282 31a4 391F      		adc r19,r25
 10283 31a6 E20F      		add r30,r18
 10284 31a8 F31F      		adc r31,r19
 10285 31aa E658      		subi r30,lo8(-(122))
 10286 31ac FF4F      		sbci r31,hi8(-(122))
 10287 31ae 8081      		ld r24,Z
 10288               	.LVL623:
 10289               	.LM929:
 10290 31b0 8170      		andi r24,lo8(1)
 10291               	/* epilogue start */
 10292 31b2 0895      		ret
 10293               	.LFE174:
 10295               	.global	Timebase_LPDownCounter_Set_Period_Flag
 10297               	Timebase_LPDownCounter_Set_Period_Flag:
 10298               	.LFB175:
 10299               	.LM930:
 10300               	.LVL624:
 10301               	/* prologue: function */
 10302               	/* frame size = 0 */
 10303               	.LM931:
 10304 31b4 E091 0000 		lds r30,Timebase
 10305 31b8 F091 0000 		lds r31,(Timebase)+1
 10306 31bc 90E0      		ldi r25,lo8(0)
 10307               	.LVL625:
 10308 31be 9C01      		movw r18,r24
 10309 31c0 54E0      		ldi r21,4
 10310 31c2 220F      	1:	lsl r18
 10311 31c4 331F      		rol r19
 10312 31c6 5A95      		dec r21
 10313 31c8 01F4      		brne 1b
 10314 31ca 280F      		add r18,r24
 10315 31cc 391F      		adc r19,r25
 10316 31ce E20F      		add r30,r18
 10317 31d0 F31F      		adc r31,r19
 10318 31d2 E658      		subi r30,lo8(-(122))
 10319 31d4 FF4F      		sbci r31,hi8(-(122))
 10320 31d6 8081      		ld r24,Z
 10321               	.LVL626:
 10322 31d8 8160      		ori r24,lo8(1)
 10323 31da 8083      		st Z,r24
 10324               	/* epilogue start */
 10325               	.LM932:
 10326 31dc 0895      		ret
 10327               	.LFE175:
 10329               	.global	Timebase_LPDownCounter_Clear_Period_Flag
 10331               	Timebase_LPDownCounter_Clear_Period_Flag:
 10332               	.LFB176:
 10333               	.LM933:
 10334               	.LVL627:
 10335               	/* prologue: function */
 10336               	/* frame size = 0 */
 10337               	.LM934:
 10338 31de E091 0000 		lds r30,Timebase
 10339 31e2 F091 0000 		lds r31,(Timebase)+1
 10340 31e6 90E0      		ldi r25,lo8(0)
 10341               	.LVL628:
 10342 31e8 9C01      		movw r18,r24
 10343 31ea 64E0      		ldi r22,4
 10344 31ec 220F      	1:	lsl r18
 10345 31ee 331F      		rol r19
 10346 31f0 6A95      		dec r22
 10347 31f2 01F4      		brne 1b
 10348 31f4 280F      		add r18,r24
 10349 31f6 391F      		adc r19,r25
 10350 31f8 E20F      		add r30,r18
 10351 31fa F31F      		adc r31,r19
 10352 31fc E658      		subi r30,lo8(-(122))
 10353 31fe FF4F      		sbci r31,hi8(-(122))
 10354 3200 8081      		ld r24,Z
 10355               	.LVL629:
 10356 3202 8E7F      		andi r24,lo8(-2)
 10357 3204 8083      		st Z,r24
 10358               	/* epilogue start */
 10359               	.LM935:
 10360 3206 0895      		ret
 10361               	.LFE176:
 10363               	.global	Timebase_LPDownCounter_Get_ReloadValue
 10365               	Timebase_LPDownCounter_Get_ReloadValue:
 10366               	.LFB177:
 10367               	.LM936:
 10368               	.LVL630:
 10369               	/* prologue: function */
 10370               	/* frame size = 0 */
 10371               	.LM937:
 10372 3208 E091 0000 		lds r30,Timebase
 10373 320c F091 0000 		lds r31,(Timebase)+1
 10374 3210 90E0      		ldi r25,lo8(0)
 10375               	.LVL631:
 10376 3212 9C01      		movw r18,r24
 10377 3214 74E0      		ldi r23,4
 10378 3216 220F      	1:	lsl r18
 10379 3218 331F      		rol r19
 10380 321a 7A95      		dec r23
 10381 321c 01F4      		brne 1b
 10382 321e 280F      		add r18,r24
 10383 3220 391F      		adc r19,r25
 10384 3222 E20F      		add r30,r18
 10385 3224 F31F      		adc r31,r19
 10386 3226 E957      		subi r30,lo8(-(135))
 10387 3228 FF4F      		sbci r31,hi8(-(135))
 10388 322a 6081      		ld r22,Z
 10389 322c 7181      		ldd r23,Z+1
 10390               	.LM938:
 10391 322e 8281      		ldd r24,Z+2
 10392               	.LVL632:
 10393 3230 9381      		ldd r25,Z+3
 10394               	.LVL633:
 10395               	/* epilogue start */
 10396 3232 0895      		ret
 10397               	.LFE177:
 10399               	.global	Timebase_LPDownCounter_Set_ReloadValue
 10401               	Timebase_LPDownCounter_Set_ReloadValue:
 10402               	.LFB178:
 10403               	.LM939:
 10404               	.LVL634:
 10405               	/* prologue: function */
 10406               	/* frame size = 0 */
 10407               	.LM940:
 10408 3234 E091 0000 		lds r30,Timebase
 10409 3238 F091 0000 		lds r31,(Timebase)+1
 10410 323c 90E0      		ldi r25,lo8(0)
 10411               	.LVL635:
 10412 323e 9C01      		movw r18,r24
 10413 3240 A4E0      		ldi r26,4
 10414 3242 220F      	1:	lsl r18
 10415 3244 331F      		rol r19
 10416 3246 AA95      		dec r26
 10417 3248 01F4      		brne 1b
 10418 324a 280F      		add r18,r24
 10419 324c 391F      		adc r19,r25
 10420 324e E20F      		add r30,r18
 10421 3250 F31F      		adc r31,r19
 10422 3252 E957      		subi r30,lo8(-(135))
 10423 3254 FF4F      		sbci r31,hi8(-(135))
 10424 3256 4083      		st Z,r20
 10425 3258 5183      		std Z+1,r21
 10426 325a 6283      		std Z+2,r22
 10427 325c 7383      		std Z+3,r23
 10428               	/* epilogue start */
 10429               	.LM941:
 10430 325e 0895      		ret
 10431               	.LFE178:
 10433               	.global	Timebase_LPDownCounter_Reset
 10435               	Timebase_LPDownCounter_Reset:
 10436               	.LFB179:
 10437               	.LM942:
 10438               	.LVL636:
 10439               	/* prologue: function */
 10440               	/* frame size = 0 */
 10441               	.LBB1423:
 10442               	.LBB1424:
 10443               	.LM943:
 10444 3260 E091 0000 		lds r30,Timebase
 10445 3264 F091 0000 		lds r31,(Timebase)+1
 10446 3268 90E0      		ldi r25,lo8(0)
 10447 326a 9C01      		movw r18,r24
 10448               	.LVL637:
 10449 326c B4E0      		ldi r27,4
 10450 326e 220F      	1:	lsl r18
 10451 3270 331F      		rol r19
 10452 3272 BA95      		dec r27
 10453 3274 01F4      		brne 1b
 10454 3276 280F      		add r18,r24
 10455 3278 391F      		adc r19,r25
 10456 327a E20F      		add r30,r18
 10457 327c F31F      		adc r31,r19
 10458 327e E558      		subi r30,lo8(-(123))
 10459 3280 FF4F      		sbci r31,hi8(-(123))
 10460 3282 1192      		st Z+,__zero_reg__
 10461 3284 1192      		st Z+,__zero_reg__
 10462 3286 1192      		st Z+,__zero_reg__
 10463 3288 1192      		st Z+,__zero_reg__
 10464               	.LBE1424:
 10465               	.LBE1423:
 10466               	.LBB1425:
 10467               	.LBB1426:
 10468               	.LM944:
 10469 328a 1082      		st Z,__zero_reg__
 10470 328c 1182      		std Z+1,__zero_reg__
 10471 328e 1282      		std Z+2,__zero_reg__
 10472 3290 1382      		std Z+3,__zero_reg__
 10473 3292 EF57      		subi r30,lo8(-(-127))
 10474 3294 F040      		sbci r31,hi8(-(-127))
 10475               	.LBE1426:
 10476               	.LBE1425:
 10477               	.LBB1427:
 10478               	.LBB1428:
 10479               	.LM945:
 10480 3296 DF01      		movw r26,r30
 10481 3298 A658      		subi r26,lo8(-(122))
 10482 329a BF4F      		sbci r27,hi8(-(122))
 10483 329c 8C91      		ld r24,X
 10484               	.LBE1428:
 10485               	.LBE1427:
 10486               	.LBB1429:
 10487               	.LBB1430:
 10488               	.LM946:
 10489 329e 807E      		andi r24,lo8(-32)
 10490 32a0 8C93      		st X,r24
 10491               	.LBE1430:
 10492               	.LBE1429:
 10493               	.LBB1431:
 10494               	.LBB1432:
 10495               	.LM947:
 10496 32a2 E957      		subi r30,lo8(-(135))
 10497 32a4 FF4F      		sbci r31,hi8(-(135))
 10498 32a6 1082      		st Z,__zero_reg__
 10499 32a8 1182      		std Z+1,__zero_reg__
 10500 32aa 1282      		std Z+2,__zero_reg__
 10501 32ac 1382      		std Z+3,__zero_reg__
 10502               	/* epilogue start */
 10503               	.LBE1432:
 10504               	.LBE1431:
 10505               	.LM948:
 10506 32ae 0895      		ret
 10507               	.LFE179:
 10509               	.global	Timebase_LPDownCounter_Clear_All_Flags
 10511               	Timebase_LPDownCounter_Clear_All_Flags:
 10512               	.LFB180:
 10513               	.LM949:
 10514               	.LVL638:
 10515               	/* prologue: function */
 10516               	/* frame size = 0 */
 10517               	.LBB1433:
 10518               	.LBB1434:
 10519               	.LBB1435:
 10520               	.LBB1436:
 10521               	.LM950:
 10522 32b0 E091 0000 		lds r30,Timebase
 10523 32b4 F091 0000 		lds r31,(Timebase)+1
 10524 32b8 90E0      		ldi r25,lo8(0)
 10525 32ba 9C01      		movw r18,r24
 10526               	.LVL639:
 10527 32bc 44E0      		ldi r20,4
 10528 32be 220F      	1:	lsl r18
 10529 32c0 331F      		rol r19
 10530 32c2 4A95      		dec r20
 10531 32c4 01F4      		brne 1b
 10532 32c6 280F      		add r18,r24
 10533 32c8 391F      		adc r19,r25
 10534 32ca E20F      		add r30,r18
 10535 32cc F31F      		adc r31,r19
 10536 32ce E558      		subi r30,lo8(-(123))
 10537 32d0 FF4F      		sbci r31,hi8(-(123))
 10538 32d2 1192      		st Z+,__zero_reg__
 10539 32d4 1192      		st Z+,__zero_reg__
 10540 32d6 1192      		st Z+,__zero_reg__
 10541 32d8 1192      		st Z+,__zero_reg__
 10542               	.LBE1436:
 10543               	.LBE1435:
 10544               	.LBB1437:
 10545               	.LBB1438:
 10546               	.LM951:
 10547 32da 1082      		st Z,__zero_reg__
 10548 32dc 1182      		std Z+1,__zero_reg__
 10549 32de 1282      		std Z+2,__zero_reg__
 10550 32e0 1382      		std Z+3,__zero_reg__
 10551 32e2 EF57      		subi r30,lo8(-(-127))
 10552 32e4 F040      		sbci r31,hi8(-(-127))
 10553               	.LBE1438:
 10554               	.LBE1437:
 10555               	.LBB1439:
 10556               	.LBB1440:
 10557               	.LM952:
 10558 32e6 DF01      		movw r26,r30
 10559 32e8 A658      		subi r26,lo8(-(122))
 10560 32ea BF4F      		sbci r27,hi8(-(122))
 10561 32ec 8C91      		ld r24,X
 10562               	.LBE1440:
 10563               	.LBE1439:
 10564               	.LBB1441:
 10565               	.LBB1442:
 10566               	.LM953:
 10567 32ee 807E      		andi r24,lo8(-32)
 10568 32f0 8C93      		st X,r24
 10569               	.LBE1442:
 10570               	.LBE1441:
 10571               	.LBB1443:
 10572               	.LBB1444:
 10573               	.LM954:
 10574 32f2 E957      		subi r30,lo8(-(135))
 10575 32f4 FF4F      		sbci r31,hi8(-(135))
 10576 32f6 1082      		st Z,__zero_reg__
 10577 32f8 1182      		std Z+1,__zero_reg__
 10578 32fa 1282      		std Z+2,__zero_reg__
 10579 32fc 1382      		std Z+3,__zero_reg__
 10580               	/* epilogue start */
 10581               	.LBE1444:
 10582               	.LBE1443:
 10583               	.LBE1434:
 10584               	.LBE1433:
 10585               	.LM955:
 10586 32fe 0895      		ret
 10587               	.LFE180:
 10589               	.global	Timebase_LPDownCounter_Start
 10591               	Timebase_LPDownCounter_Start:
 10592               	.LFB181:
 10593               	.LM956:
 10594               	.LVL640:
 10595               	/* prologue: function */
 10596               	/* frame size = 0 */
 10597               	.LBB1445:
 10598               	.LBB1446:
 10599               	.LM957:
 10600 3300 E091 0000 		lds r30,Timebase
 10601 3304 F091 0000 		lds r31,(Timebase)+1
 10602 3308 90E0      		ldi r25,lo8(0)
 10603               	.LBE1446:
 10604               	.LBE1445:
 10605               	.LM958:
 10606 330a 9C01      		movw r18,r24
 10607               	.LVL641:
 10608 330c 54E0      		ldi r21,4
 10609 330e 220F      	1:	lsl r18
 10610 3310 331F      		rol r19
 10611 3312 5A95      		dec r21
 10612 3314 01F4      		brne 1b
 10613 3316 280F      		add r18,r24
 10614 3318 391F      		adc r19,r25
 10615 331a E20F      		add r30,r18
 10616 331c F31F      		adc r31,r19
 10617 331e E658      		subi r30,lo8(-(122))
 10618 3320 FF4F      		sbci r31,hi8(-(122))
 10619 3322 9081      		ld r25,Z
 10620 3324 892F      		mov r24,r25
 10621 3326 8695      		lsr r24
 10622 3328 8F70      		andi r24,lo8(15)
 10623 332a 8130      		cpi r24,lo8(1)
 10624 332c 01F0      		breq .L483
 10625               	.LBB1447:
 10626               	.LBB1448:
 10627               	.LM959:
 10628 332e 917E      		andi r25,lo8(-31)
 10629 3330 9260      		ori r25,lo8(2)
 10630 3332 9083      		st Z,r25
 10631               	.L483:
 10632 3334 0895      		ret
 10633               	.LBE1448:
 10634               	.LBE1447:
 10635               	.LFE181:
 10637               	.global	Timebase_LPDownCounter_Stop
 10639               	Timebase_LPDownCounter_Stop:
 10640               	.LFB182:
 10641               	.LM960:
 10642               	.LVL642:
 10643               	/* prologue: function */
 10644               	/* frame size = 0 */
 10645               	.LBB1449:
 10646               	.LBB1450:
 10647               	.LM961:
 10648 3336 E091 0000 		lds r30,Timebase
 10649 333a F091 0000 		lds r31,(Timebase)+1
 10650 333e 90E0      		ldi r25,lo8(0)
 10651               	.LBE1450:
 10652               	.LBE1449:
 10653               	.LM962:
 10654 3340 9C01      		movw r18,r24
 10655               	.LVL643:
 10656 3342 64E0      		ldi r22,4
 10657 3344 220F      	1:	lsl r18
 10658 3346 331F      		rol r19
 10659 3348 6A95      		dec r22
 10660 334a 01F4      		brne 1b
 10661 334c 280F      		add r18,r24
 10662 334e 391F      		adc r19,r25
 10663 3350 E20F      		add r30,r18
 10664 3352 F31F      		adc r31,r19
 10665 3354 E658      		subi r30,lo8(-(122))
 10666 3356 FF4F      		sbci r31,hi8(-(122))
 10667 3358 9081      		ld r25,Z
 10668 335a 892F      		mov r24,r25
 10669 335c 8695      		lsr r24
 10670 335e 8F70      		andi r24,lo8(15)
 10671 3360 8230      		cpi r24,lo8(2)
 10672 3362 01F0      		breq .L486
 10673               	.LBB1451:
 10674               	.LBB1452:
 10675               	.LM963:
 10676 3364 917E      		andi r25,lo8(-31)
 10677 3366 9460      		ori r25,lo8(4)
 10678 3368 9083      		st Z,r25
 10679               	.L486:
 10680 336a 0895      		ret
 10681               	.LBE1452:
 10682               	.LBE1451:
 10683               	.LFE182:
 10685               	.global	Timebase_LPDownCounter_Set_Securely
 10687               	Timebase_LPDownCounter_Set_Securely:
 10688               	.LFB183:
 10689               	.LM964:
 10690               	.LVL644:
 10691 336c EF92      		push r14
 10692 336e FF92      		push r15
 10693 3370 0F93      		push r16
 10694 3372 1F93      		push r17
 10695 3374 CF93      		push r28
 10696 3376 DF93      		push r29
 10697               	/* prologue: function */
 10698               	/* frame size = 0 */
 10699 3378 7A01      		movw r14,r20
 10700 337a 8B01      		movw r16,r22
 10701               	.LBB1453:
 10702               	.LBB1454:
 10703               	.LM965:
 10704 337c C091 0000 		lds r28,Timebase
 10705 3380 D091 0000 		lds r29,(Timebase)+1
 10706 3384 682F      		mov r22,r24
 10707 3386 70E0      		ldi r23,lo8(0)
 10708               	.LBE1454:
 10709               	.LBE1453:
 10710               	.LM966:
 10711 3388 FB01      		movw r30,r22
 10712 338a B4E0      		ldi r27,4
 10713 338c EE0F      	1:	lsl r30
 10714 338e FF1F      		rol r31
 10715 3390 BA95      		dec r27
 10716 3392 01F4      		brne 1b
 10717 3394 E60F      		add r30,r22
 10718 3396 F71F      		adc r31,r23
 10719 3398 EC0F      		add r30,r28
 10720 339a FD1F      		adc r31,r29
 10721 339c E658      		subi r30,lo8(-(122))
 10722 339e FF4F      		sbci r31,hi8(-(122))
 10723 33a0 8081      		ld r24,Z
 10724               	.LVL645:
 10725 33a2 EA57      		subi r30,lo8(-(-122))
 10726 33a4 F040      		sbci r31,hi8(-(-122))
 10727 33a6 8695      		lsr r24
 10728 33a8 8F70      		andi r24,lo8(15)
 10729 33aa 01F4      		brne .L490
 10730               	.LVL646:
 10731               	.LBB1455:
 10732               	.LBB1456:
 10733               	.LM967:
 10734 33ac E158      		subi r30,lo8(-(127))
 10735 33ae FF4F      		sbci r31,hi8(-(127))
 10736 33b0 E082      		st Z,r14
 10737 33b2 F182      		std Z+1,r15
 10738 33b4 0283      		std Z+2,r16
 10739 33b6 1383      		std Z+3,r17
 10740               	.L489:
 10741               	.LBE1456:
 10742               	.LBE1455:
 10743               	.LBB1457:
 10744               	.LBB1458:
 10745               	.LM968:
 10746 33b8 298D      		ldd r18,Y+25
 10747 33ba 3A8D      		ldd r19,Y+26
 10748 33bc 4B8D      		ldd r20,Y+27
 10749 33be 5C8D      		ldd r21,Y+28
 10750               	.LVL647:
 10751               	.LM969:
 10752 33c0 898D      		ldd r24,Y+25
 10753 33c2 9A8D      		ldd r25,Y+26
 10754 33c4 AB8D      		ldd r26,Y+27
 10755 33c6 BC8D      		ldd r27,Y+28
 10756               	.LVL648:
 10757               	.LM970:
 10758 33c8 2817      		cp r18,r24
 10759 33ca 3907      		cpc r19,r25
 10760 33cc 4A07      		cpc r20,r26
 10761 33ce 5B07      		cpc r21,r27
 10762 33d0 01F4      		brne .L489
 10763               	.LBE1458:
 10764               	.LBE1457:
 10765               	.LBB1459:
 10766               	.LBB1460:
 10767               	.LM971:
 10768 33d2 FB01      		movw r30,r22
 10769 33d4 A4E0      		ldi r26,4
 10770 33d6 EE0F      	1:	lsl r30
 10771 33d8 FF1F      		rol r31
 10772 33da AA95      		dec r26
 10773 33dc 01F4      		brne 1b
 10774 33de E60F      		add r30,r22
 10775 33e0 F71F      		adc r31,r23
 10776 33e2 EC0F      		add r30,r28
 10777 33e4 FD1F      		adc r31,r29
 10778 33e6 E558      		subi r30,lo8(-(123))
 10779 33e8 FF4F      		sbci r31,hi8(-(123))
 10780 33ea 2E0D      		add r18,r14
 10781 33ec 3F1D      		adc r19,r15
 10782 33ee 401F      		adc r20,r16
 10783 33f0 511F      		adc r21,r17
 10784 33f2 2083      		st Z,r18
 10785 33f4 3183      		std Z+1,r19
 10786 33f6 4283      		std Z+2,r20
 10787 33f8 5383      		std Z+3,r21
 10788               	.LBE1460:
 10789               	.LBE1459:
 10790               	.LBB1461:
 10791               	.LBB1462:
 10792               	.LM972:
 10793 33fa 3C96      		adiw r30,12
 10794 33fc E082      		st Z,r14
 10795 33fe F182      		std Z+1,r15
 10796 3400 0283      		std Z+2,r16
 10797 3402 1383      		std Z+3,r17
 10798               	.LBE1462:
 10799               	.LBE1461:
 10800               	.LBB1463:
 10801               	.LBB1464:
 10802               	.LM973:
 10803 3404 3D97      		sbiw r30,13
 10804 3406 9081      		ld r25,Z
 10805 3408 892F      		mov r24,r25
 10806               	.LVL649:
 10807 340a 8695      		lsr r24
 10808 340c 8F70      		andi r24,lo8(15)
 10809 340e 8130      		cpi r24,lo8(1)
 10810 3410 01F0      		breq .L490
 10811               	.LBB1465:
 10812               	.LBB1466:
 10813               	.LM974:
 10814 3412 917E      		andi r25,lo8(-31)
 10815 3414 9260      		ori r25,lo8(2)
 10816 3416 9083      		st Z,r25
 10817               	.L490:
 10818               	/* epilogue start */
 10819               	.LBE1466:
 10820               	.LBE1465:
 10821               	.LBE1464:
 10822               	.LBE1463:
 10823               	.LM975:
 10824 3418 DF91      		pop r29
 10825 341a CF91      		pop r28
 10826 341c 1F91      		pop r17
 10827 341e 0F91      		pop r16
 10828 3420 FF90      		pop r15
 10829 3422 EF90      		pop r14
 10830               	.LVL650:
 10831 3424 0895      		ret
 10832               	.LFE183:
 10834               	.global	Timebase_LPDownCounter_Set_Forcefully
 10836               	Timebase_LPDownCounter_Set_Forcefully:
 10837               	.LFB184:
 10838               	.LM976:
 10839               	.LVL651:
 10840 3426 CF92      		push r12
 10841 3428 DF92      		push r13
 10842 342a EF92      		push r14
 10843 342c FF92      		push r15
 10844 342e 0F93      		push r16
 10845 3430 1F93      		push r17
 10846               	/* prologue: function */
 10847               	/* frame size = 0 */
 10848 3432 6A01      		movw r12,r20
 10849 3434 7B01      		movw r14,r22
 10850               	.LBB1467:
 10851               	.LBB1468:
 10852               	.LBB1469:
 10853               	.LBB1470:
 10854               	.LM977:
 10855 3436 E091 0000 		lds r30,Timebase
 10856 343a F091 0000 		lds r31,(Timebase)+1
 10857 343e 282F      		mov r18,r24
 10858 3440 30E0      		ldi r19,lo8(0)
 10859 3442 8901      		movw r16,r18
 10860 3444 94E0      		ldi r25,4
 10861 3446 000F      	1:	lsl r16
 10862 3448 111F      		rol r17
 10863 344a 9A95      		dec r25
 10864 344c 01F4      		brne 1b
 10865 344e 020F      		add r16,r18
 10866 3450 131F      		adc r17,r19
 10867 3452 E00F      		add r30,r16
 10868 3454 F11F      		adc r31,r17
 10869 3456 E558      		subi r30,lo8(-(123))
 10870 3458 FF4F      		sbci r31,hi8(-(123))
 10871 345a 1192      		st Z+,__zero_reg__
 10872 345c 1192      		st Z+,__zero_reg__
 10873 345e 1192      		st Z+,__zero_reg__
 10874 3460 1192      		st Z+,__zero_reg__
 10875               	.LBE1470:
 10876               	.LBE1469:
 10877               	.LBB1471:
 10878               	.LBB1472:
 10879               	.LM978:
 10880 3462 1082      		st Z,__zero_reg__
 10881 3464 1182      		std Z+1,__zero_reg__
 10882 3466 1282      		std Z+2,__zero_reg__
 10883 3468 1382      		std Z+3,__zero_reg__
 10884 346a EF57      		subi r30,lo8(-(-127))
 10885 346c F040      		sbci r31,hi8(-(-127))
 10886               	.LBE1472:
 10887               	.LBE1471:
 10888               	.LBB1473:
 10889               	.LBB1474:
 10890               	.LM979:
 10891 346e DF01      		movw r26,r30
 10892 3470 A658      		subi r26,lo8(-(122))
 10893 3472 BF4F      		sbci r27,hi8(-(122))
 10894 3474 9C91      		ld r25,X
 10895               	.LBE1474:
 10896               	.LBE1473:
 10897               	.LBB1475:
 10898               	.LBB1476:
 10899               	.LM980:
 10900 3476 907E      		andi r25,lo8(-32)
 10901 3478 9C93      		st X,r25
 10902               	.LBE1476:
 10903               	.LBE1475:
 10904               	.LBB1477:
 10905               	.LBB1478:
 10906               	.LM981:
 10907 347a E957      		subi r30,lo8(-(135))
 10908 347c FF4F      		sbci r31,hi8(-(135))
 10909 347e 1082      		st Z,__zero_reg__
 10910 3480 1182      		std Z+1,__zero_reg__
 10911 3482 1282      		std Z+2,__zero_reg__
 10912 3484 1382      		std Z+3,__zero_reg__
 10913               	.LBE1478:
 10914               	.LBE1477:
 10915               	.LBE1468:
 10916               	.LBE1467:
 10917               	.LM982:
 10918 3486 0E94 0000 		call Timebase_LPDownCounter_Set_Securely
 10919               	.LVL652:
 10920               	.LBB1479:
 10921               	.LBB1480:
 10922               	.LM983:
 10923 348a E091 0000 		lds r30,Timebase
 10924 348e F091 0000 		lds r31,(Timebase)+1
 10925 3492 E00F      		add r30,r16
 10926 3494 F11F      		adc r31,r17
 10927 3496 E957      		subi r30,lo8(-(135))
 10928 3498 FF4F      		sbci r31,hi8(-(135))
 10929 349a C082      		st Z,r12
 10930 349c D182      		std Z+1,r13
 10931 349e E282      		std Z+2,r14
 10932 34a0 F382      		std Z+3,r15
 10933               	/* epilogue start */
 10934               	.LBE1480:
 10935               	.LBE1479:
 10936               	.LM984:
 10937 34a2 1F91      		pop r17
 10938 34a4 0F91      		pop r16
 10939 34a6 FF90      		pop r15
 10940 34a8 EF90      		pop r14
 10941 34aa DF90      		pop r13
 10942 34ac CF90      		pop r12
 10943               	.LVL653:
 10944 34ae 0895      		ret
 10945               	.LFE184:
 10947               	.global	Timebase_LPDownCounter_Update
 10949               	Timebase_LPDownCounter_Update:
 10950               	.LFB185:
 10951               	.LM985:
 10952               	.LVL654:
 10953 34b0 CF92      		push r12
 10954 34b2 DF92      		push r13
 10955 34b4 EF92      		push r14
 10956 34b6 FF92      		push r15
 10957 34b8 0F93      		push r16
 10958 34ba 1F93      		push r17
 10959 34bc CF93      		push r28
 10960 34be DF93      		push r29
 10961               	/* prologue: function */
 10962               	/* frame size = 0 */
 10963               	.LBB1481:
 10964               	.LBB1482:
 10965               	.LM986:
 10966 34c0 6091 0000 		lds r22,Timebase
 10967 34c4 7091 0000 		lds r23,(Timebase)+1
 10968 34c8 C82E      		mov r12,r24
 10969 34ca DD24      		clr r13
 10970 34cc F601      		movw r30,r12
 10971 34ce A4E0      		ldi r26,4
 10972 34d0 EE0F      	1:	lsl r30
 10973 34d2 FF1F      		rol r31
 10974 34d4 AA95      		dec r26
 10975 34d6 01F4      		brne 1b
 10976 34d8 EC0D      		add r30,r12
 10977 34da FD1D      		adc r31,r13
 10978 34dc E60F      		add r30,r22
 10979 34de F71F      		adc r31,r23
 10980 34e0 E658      		subi r30,lo8(-(122))
 10981 34e2 FF4F      		sbci r31,hi8(-(122))
 10982 34e4 8081      		ld r24,Z
 10983               	.LVL655:
 10984 34e6 EA57      		subi r30,lo8(-(-122))
 10985 34e8 F040      		sbci r31,hi8(-(-122))
 10986 34ea 8695      		lsr r24
 10987 34ec 8F70      		andi r24,lo8(15)
 10988               	.LBE1482:
 10989               	.LBE1481:
 10990               	.LM987:
 10991 34ee 8130      		cpi r24,lo8(1)
 10992 34f0 01F0      		breq .+2
 10993 34f2 00C0      		rjmp .L495
 10994               	.LBB1483:
 10995               	.LBB1484:
 10996               	.LM988:
 10997 34f4 E558      		subi r30,lo8(-(123))
 10998 34f6 FF4F      		sbci r31,hi8(-(123))
 10999 34f8 E080      		ld r14,Z
 11000 34fa F180      		ldd r15,Z+1
 11001 34fc 0281      		ldd r16,Z+2
 11002 34fe 1381      		ldd r17,Z+3
 11003               	.L496:
 11004               	.LBE1484:
 11005               	.LBE1483:
 11006               	.LBB1485:
 11007               	.LBB1486:
 11008               	.LM989:
 11009 3500 FB01      		movw r30,r22
 11010 3502 218D      		ldd r18,Z+25
 11011 3504 328D      		ldd r19,Z+26
 11012 3506 438D      		ldd r20,Z+27
 11013 3508 548D      		ldd r21,Z+28
 11014               	.LVL656:
 11015               	.LM990:
 11016 350a 818D      		ldd r24,Z+25
 11017 350c 928D      		ldd r25,Z+26
 11018 350e A38D      		ldd r26,Z+27
 11019 3510 B48D      		ldd r27,Z+28
 11020               	.LVL657:
 11021               	.LM991:
 11022 3512 2817      		cp r18,r24
 11023 3514 3907      		cpc r19,r25
 11024 3516 4A07      		cpc r20,r26
 11025 3518 5B07      		cpc r21,r27
 11026 351a 01F4      		brne .L496
 11027               	.LBE1486:
 11028               	.LBE1485:
 11029               	.LM992:
 11030 351c D801      		movw r26,r16
 11031 351e C701      		movw r24,r14
 11032               	.LVL658:
 11033 3520 821B      		sub r24,r18
 11034 3522 930B      		sbc r25,r19
 11035 3524 A40B      		sbc r26,r20
 11036 3526 B50B      		sbc r27,r21
 11037               	.LBB1487:
 11038               	.LBB1488:
 11039               	.LM993:
 11040 3528 E601      		movw r28,r12
 11041 352a F4E0      		ldi r31,4
 11042 352c CC0F      	1:	lsl r28
 11043 352e DD1F      		rol r29
 11044 3530 FA95      		dec r31
 11045 3532 01F4      		brne 1b
 11046 3534 CC0D      		add r28,r12
 11047 3536 DD1D      		adc r29,r13
 11048 3538 C60F      		add r28,r22
 11049 353a D71F      		adc r29,r23
 11050 353c FE01      		movw r30,r28
 11051 353e E158      		subi r30,lo8(-(127))
 11052 3540 FF4F      		sbci r31,hi8(-(127))
 11053 3542 8083      		st Z,r24
 11054 3544 9183      		std Z+1,r25
 11055 3546 A283      		std Z+2,r26
 11056 3548 B383      		std Z+3,r27
 11057               	.LBE1488:
 11058               	.LBE1487:
 11059               	.LM994:
 11060 354a 1816      		cp __zero_reg__,r24
 11061 354c 1906      		cpc __zero_reg__,r25
 11062 354e 1A06      		cpc __zero_reg__,r26
 11063 3550 1B06      		cpc __zero_reg__,r27
 11064 3552 04F4      		brge .+2
 11065 3554 00C0      		rjmp .L499
 11066               	.LBB1489:
 11067               	.LBB1490:
 11068               	.LBB1491:
 11069               	.LBB1492:
 11070               	.LM995:
 11071 3556 C558      		subi r28,lo8(-(123))
 11072 3558 DF4F      		sbci r29,hi8(-(123))
 11073 355a 1882      		st Y,__zero_reg__
 11074 355c 1982      		std Y+1,__zero_reg__
 11075 355e 1A82      		std Y+2,__zero_reg__
 11076 3560 1B82      		std Y+3,__zero_reg__
 11077 3562 CB57      		subi r28,lo8(-(-123))
 11078 3564 D040      		sbci r29,hi8(-(-123))
 11079               	.LBE1492:
 11080               	.LBE1491:
 11081               	.LBB1493:
 11082               	.LBB1494:
 11083               	.LM996:
 11084 3566 1082      		st Z,__zero_reg__
 11085 3568 1182      		std Z+1,__zero_reg__
 11086 356a 1282      		std Z+2,__zero_reg__
 11087 356c 1382      		std Z+3,__zero_reg__
 11088               	.LBE1494:
 11089               	.LBE1493:
 11090               	.LBB1495:
 11091               	.LBB1496:
 11092               	.LM997:
 11093 356e FE01      		movw r30,r28
 11094 3570 E658      		subi r30,lo8(-(122))
 11095 3572 FF4F      		sbci r31,hi8(-(122))
 11096 3574 8081      		ld r24,Z
 11097               	.LBE1496:
 11098               	.LBE1495:
 11099               	.LBB1497:
 11100               	.LBB1498:
 11101               	.LM998:
 11102 3576 C957      		subi r28,lo8(-(135))
 11103 3578 DF4F      		sbci r29,hi8(-(135))
 11104 357a 1882      		st Y,__zero_reg__
 11105 357c 1982      		std Y+1,__zero_reg__
 11106 357e 1A82      		std Y+2,__zero_reg__
 11107 3580 1B82      		std Y+3,__zero_reg__
 11108               	.LBE1498:
 11109               	.LBE1497:
 11110               	.LBE1490:
 11111               	.LBE1489:
 11112               	.LBB1499:
 11113               	.LBB1500:
 11114               	.LM999:
 11115 3582 807E      		andi r24,lo8(-32)
 11116 3584 8860      		ori r24,lo8(8)
 11117 3586 8083      		st Z,r24
 11118 3588 00C0      		rjmp .L499
 11119               	.LVL659:
 11120               	.L495:
 11121               	.LBE1500:
 11122               	.LBE1499:
 11123               	.LM1000:
 11124 358a 8230      		cpi r24,lo8(2)
 11125 358c 01F4      		brne .L499
 11126               	.LBB1501:
 11127               	.LBB1502:
 11128               	.LM1001:
 11129 358e E158      		subi r30,lo8(-(127))
 11130 3590 FF4F      		sbci r31,hi8(-(127))
 11131 3592 E080      		ld r14,Z
 11132 3594 F180      		ldd r15,Z+1
 11133 3596 0281      		ldd r16,Z+2
 11134 3598 1381      		ldd r17,Z+3
 11135               	.L498:
 11136               	.LBE1502:
 11137               	.LBE1501:
 11138               	.LBB1503:
 11139               	.LBB1504:
 11140               	.LM1002:
 11141 359a FB01      		movw r30,r22
 11142 359c 218D      		ldd r18,Z+25
 11143 359e 328D      		ldd r19,Z+26
 11144 35a0 438D      		ldd r20,Z+27
 11145 35a2 548D      		ldd r21,Z+28
 11146               	.LVL660:
 11147               	.LM1003:
 11148 35a4 818D      		ldd r24,Z+25
 11149 35a6 928D      		ldd r25,Z+26
 11150 35a8 A38D      		ldd r26,Z+27
 11151 35aa B48D      		ldd r27,Z+28
 11152               	.LVL661:
 11153               	.LM1004:
 11154 35ac 2817      		cp r18,r24
 11155 35ae 3907      		cpc r19,r25
 11156 35b0 4A07      		cpc r20,r26
 11157 35b2 5B07      		cpc r21,r27
 11158 35b4 01F4      		brne .L498
 11159               	.LBE1504:
 11160               	.LBE1503:
 11161               	.LBB1505:
 11162               	.LBB1506:
 11163               	.LM1005:
 11164 35b6 C601      		movw r24,r12
 11165               	.LVL662:
 11166 35b8 E4E0      		ldi r30,4
 11167 35ba 880F      	1:	lsl r24
 11168 35bc 991F      		rol r25
 11169 35be EA95      		dec r30
 11170 35c0 01F4      		brne 1b
 11171 35c2 8C0D      		add r24,r12
 11172 35c4 9D1D      		adc r25,r13
 11173 35c6 680F      		add r22,r24
 11174 35c8 791F      		adc r23,r25
 11175 35ca 6558      		subi r22,lo8(-(123))
 11176 35cc 7F4F      		sbci r23,hi8(-(123))
 11177 35ce 2E0D      		add r18,r14
 11178 35d0 3F1D      		adc r19,r15
 11179 35d2 401F      		adc r20,r16
 11180 35d4 511F      		adc r21,r17
 11181 35d6 FB01      		movw r30,r22
 11182 35d8 2083      		st Z,r18
 11183 35da 3183      		std Z+1,r19
 11184 35dc 4283      		std Z+2,r20
 11185 35de 5383      		std Z+3,r21
 11186               	.LVL663:
 11187               	.L499:
 11188               	/* epilogue start */
 11189               	.LBE1506:
 11190               	.LBE1505:
 11191               	.LM1006:
 11192 35e0 DF91      		pop r29
 11193 35e2 CF91      		pop r28
 11194 35e4 1F91      		pop r17
 11195 35e6 0F91      		pop r16
 11196 35e8 FF90      		pop r15
 11197 35ea EF90      		pop r14
 11198 35ec DF90      		pop r13
 11199 35ee CF90      		pop r12
 11200 35f0 0895      		ret
 11201               	.LFE185:
 11203               	.global	Timebase_LPDownCounter_Expired
 11205               	Timebase_LPDownCounter_Expired:
 11206               	.LFB186:
 11207               	.LM1007:
 11208               	.LVL664:
 11209               	/* prologue: function */
 11210               	/* frame size = 0 */
 11211               	.LM1008:
 11212 35f2 40E0      		ldi r20,lo8(0)
 11213 35f4 E091 0000 		lds r30,Timebase
 11214 35f8 F091 0000 		lds r31,(Timebase)+1
 11215 35fc 90E0      		ldi r25,lo8(0)
 11216               	.LVL665:
 11217 35fe 9C01      		movw r18,r24
 11218 3600 B4E0      		ldi r27,4
 11219 3602 220F      	1:	lsl r18
 11220 3604 331F      		rol r19
 11221 3606 BA95      		dec r27
 11222 3608 01F4      		brne 1b
 11223 360a 280F      		add r18,r24
 11224 360c 391F      		adc r19,r25
 11225 360e E20F      		add r30,r18
 11226 3610 F31F      		adc r31,r19
 11227 3612 E658      		subi r30,lo8(-(122))
 11228 3614 FF4F      		sbci r31,hi8(-(122))
 11229 3616 8081      		ld r24,Z
 11230               	.LVL666:
 11231 3618 8695      		lsr r24
 11232 361a 8F70      		andi r24,lo8(15)
 11233 361c 8430      		cpi r24,lo8(4)
 11234 361e 01F4      		brne .L503
 11235 3620 41E0      		ldi r20,lo8(1)
 11236               	.L503:
 11237               	.LM1009:
 11238 3622 842F      		mov r24,r20
 11239               	/* epilogue start */
 11240 3624 0895      		ret
 11241               	.LFE186:
 11243               	.global	Timebase_LPDownCounter_Expired_Event
 11245               	Timebase_LPDownCounter_Expired_Event:
 11246               	.LFB187:
 11247               	.LM1010:
 11248               	.LVL667:
 11249               	/* prologue: function */
 11250               	/* frame size = 0 */
 11251               	.LBB1507:
 11252               	.LBB1508:
 11253               	.LM1011:
 11254 3626 E091 0000 		lds r30,Timebase
 11255 362a F091 0000 		lds r31,(Timebase)+1
 11256 362e 90E0      		ldi r25,lo8(0)
 11257               	.LBE1508:
 11258               	.LBE1507:
 11259               	.LM1012:
 11260 3630 9C01      		movw r18,r24
 11261               	.LVL668:
 11262 3632 44E0      		ldi r20,4
 11263 3634 220F      	1:	lsl r18
 11264 3636 331F      		rol r19
 11265 3638 4A95      		dec r20
 11266 363a 01F4      		brne 1b
 11267 363c 280F      		add r18,r24
 11268 363e 391F      		adc r19,r25
 11269 3640 E20F      		add r30,r18
 11270 3642 F31F      		adc r31,r19
 11271 3644 DF01      		movw r26,r30
 11272 3646 A658      		subi r26,lo8(-(122))
 11273 3648 BF4F      		sbci r27,hi8(-(122))
 11274 364a 8C91      		ld r24,X
 11275 364c 8695      		lsr r24
 11276 364e 8F70      		andi r24,lo8(15)
 11277 3650 8430      		cpi r24,lo8(4)
 11278 3652 01F0      		breq .L506
 11279 3654 80E0      		ldi r24,lo8(0)
 11280 3656 0895      		ret
 11281               	.L506:
 11282               	.LBB1509:
 11283               	.LBB1510:
 11284               	.LBB1511:
 11285               	.LBB1512:
 11286               	.LBB1513:
 11287               	.LBB1514:
 11288               	.LM1013:
 11289 3658 E558      		subi r30,lo8(-(123))
 11290 365a FF4F      		sbci r31,hi8(-(123))
 11291 365c 1192      		st Z+,__zero_reg__
 11292 365e 1192      		st Z+,__zero_reg__
 11293 3660 1192      		st Z+,__zero_reg__
 11294 3662 1192      		st Z+,__zero_reg__
 11295               	.LBE1514:
 11296               	.LBE1513:
 11297               	.LBB1515:
 11298               	.LBB1516:
 11299               	.LM1014:
 11300 3664 1082      		st Z,__zero_reg__
 11301 3666 1182      		std Z+1,__zero_reg__
 11302 3668 1282      		std Z+2,__zero_reg__
 11303 366a 1382      		std Z+3,__zero_reg__
 11304               	.LBE1516:
 11305               	.LBE1515:
 11306               	.LBB1517:
 11307               	.LBB1518:
 11308               	.LM1015:
 11309 366c 8C91      		ld r24,X
 11310               	.LBE1518:
 11311               	.LBE1517:
 11312               	.LBB1519:
 11313               	.LBB1520:
 11314               	.LM1016:
 11315 366e 807E      		andi r24,lo8(-32)
 11316 3670 8C93      		st X,r24
 11317               	.LBE1520:
 11318               	.LBE1519:
 11319               	.LBB1521:
 11320               	.LBB1522:
 11321               	.LM1017:
 11322 3672 3896      		adiw r30,8
 11323 3674 1082      		st Z,__zero_reg__
 11324 3676 1182      		std Z+1,__zero_reg__
 11325 3678 1282      		std Z+2,__zero_reg__
 11326 367a 1382      		std Z+3,__zero_reg__
 11327 367c 81E0      		ldi r24,lo8(1)
 11328               	.LBE1522:
 11329               	.LBE1521:
 11330               	.LBE1512:
 11331               	.LBE1511:
 11332               	.LBE1510:
 11333               	.LBE1509:
 11334               	.LM1018:
 11335 367e 0895      		ret
 11336               	.LFE187:
 11338               	.global	Timebase_LPDownCounter_Oneshot_Expired_Event
 11340               	Timebase_LPDownCounter_Oneshot_Expired_Event:
 11341               	.LFB188:
 11342               	.LM1019:
 11343               	.LVL669:
 11344               	/* prologue: function */
 11345               	/* frame size = 0 */
 11346               	.LM1020:
 11347 3680 0E94 0000 		call Timebase_LPDownCounter_Expired_Event
 11348               	.LVL670:
 11349               	/* epilogue start */
 11350               	.LM1021:
 11351 3684 0895      		ret
 11352               	.LFE188:
 11354               	.global	Timebase_LPDownCounter_Continuous_Expired_Event
 11356               	Timebase_LPDownCounter_Continuous_Expired_Event:
 11357               	.LFB189:
 11358               	.LM1022:
 11359               	.LVL671:
 11360 3686 1F93      		push r17
 11361 3688 CF93      		push r28
 11362 368a DF93      		push r29
 11363               	/* prologue: function */
 11364               	/* frame size = 0 */
 11365 368c 182F      		mov r17,r24
 11366               	.LBB1523:
 11367               	.LBB1524:
 11368               	.LM1023:
 11369 368e E091 0000 		lds r30,Timebase
 11370 3692 F091 0000 		lds r31,(Timebase)+1
 11371 3696 90E0      		ldi r25,lo8(0)
 11372               	.LBE1524:
 11373               	.LBE1523:
 11374               	.LM1024:
 11375 3698 9C01      		movw r18,r24
 11376               	.LVL672:
 11377 369a 54E0      		ldi r21,4
 11378 369c 220F      	1:	lsl r18
 11379 369e 331F      		rol r19
 11380 36a0 5A95      		dec r21
 11381 36a2 01F4      		brne 1b
 11382 36a4 280F      		add r18,r24
 11383 36a6 391F      		adc r19,r25
 11384 36a8 E20F      		add r30,r18
 11385 36aa F31F      		adc r31,r19
 11386 36ac EF01      		movw r28,r30
 11387 36ae C658      		subi r28,lo8(-(122))
 11388 36b0 DF4F      		sbci r29,hi8(-(122))
 11389 36b2 8881      		ld r24,Y
 11390 36b4 8695      		lsr r24
 11391 36b6 8F70      		andi r24,lo8(15)
 11392 36b8 8430      		cpi r24,lo8(4)
 11393 36ba 01F0      		breq .L512
 11394 36bc 80E0      		ldi r24,lo8(0)
 11395 36be 00C0      		rjmp .L513
 11396               	.L512:
 11397               	.LBB1525:
 11398               	.LBB1526:
 11399               	.LBB1527:
 11400               	.LM1025:
 11401 36c0 DF01      		movw r26,r30
 11402 36c2 A957      		subi r26,lo8(-(135))
 11403 36c4 BF4F      		sbci r27,hi8(-(135))
 11404 36c6 4D91      		ld r20,X+
 11405 36c8 5D91      		ld r21,X+
 11406 36ca 6D91      		ld r22,X+
 11407 36cc 7C91      		ld r23,X
 11408 36ce 1397      		sbiw r26,3
 11409               	.LVL673:
 11410               	.LBE1527:
 11411               	.LBE1526:
 11412               	.LBB1528:
 11413               	.LBB1529:
 11414               	.LBB1530:
 11415               	.LBB1531:
 11416               	.LBB1532:
 11417               	.LBB1533:
 11418               	.LM1026:
 11419 36d0 E558      		subi r30,lo8(-(123))
 11420 36d2 FF4F      		sbci r31,hi8(-(123))
 11421 36d4 1192      		st Z+,__zero_reg__
 11422 36d6 1192      		st Z+,__zero_reg__
 11423 36d8 1192      		st Z+,__zero_reg__
 11424 36da 1192      		st Z+,__zero_reg__
 11425               	.LBE1533:
 11426               	.LBE1532:
 11427               	.LBB1534:
 11428               	.LBB1535:
 11429               	.LM1027:
 11430 36dc 1082      		st Z,__zero_reg__
 11431 36de 1182      		std Z+1,__zero_reg__
 11432 36e0 1282      		std Z+2,__zero_reg__
 11433 36e2 1382      		std Z+3,__zero_reg__
 11434               	.LBE1535:
 11435               	.LBE1534:
 11436               	.LBB1536:
 11437               	.LBB1537:
 11438               	.LM1028:
 11439 36e4 8881      		ld r24,Y
 11440               	.LBE1537:
 11441               	.LBE1536:
 11442               	.LBB1538:
 11443               	.LBB1539:
 11444               	.LM1029:
 11445 36e6 807E      		andi r24,lo8(-32)
 11446 36e8 8883      		st Y,r24
 11447               	.LBE1539:
 11448               	.LBE1538:
 11449               	.LBB1540:
 11450               	.LBB1541:
 11451               	.LM1030:
 11452 36ea 1D92      		st X+,__zero_reg__
 11453 36ec 1D92      		st X+,__zero_reg__
 11454 36ee 1D92      		st X+,__zero_reg__
 11455 36f0 1C92      		st X,__zero_reg__
 11456 36f2 1397      		sbiw r26,3
 11457               	.LBE1541:
 11458               	.LBE1540:
 11459               	.LBE1531:
 11460               	.LBE1530:
 11461               	.LBE1529:
 11462               	.LBE1528:
 11463               	.LM1031:
 11464 36f4 812F      		mov r24,r17
 11465 36f6 0E94 0000 		call Timebase_LPDownCounter_Set_Securely
 11466               	.LVL674:
 11467 36fa 81E0      		ldi r24,lo8(1)
 11468               	.L513:
 11469               	/* epilogue start */
 11470               	.LBE1525:
 11471               	.LM1032:
 11472 36fc DF91      		pop r29
 11473 36fe CF91      		pop r28
 11474 3700 1F91      		pop r17
 11475               	.LVL675:
 11476 3702 0895      		ret
 11477               	.LFE189:
 11479               	.global	Timebase_LPDownCounter_Set_Period_Value_Securely
 11481               	Timebase_LPDownCounter_Set_Period_Value_Securely:
 11482               	.LFB190:
 11483               	.LM1033:
 11484               	.LVL676:
 11485 3704 CF93      		push r28
 11486 3706 DF93      		push r29
 11487               	/* prologue: function */
 11488               	/* frame size = 0 */
 11489               	.LBB1542:
 11490               	.LBB1543:
 11491               	.LM1034:
 11492 3708 C091 0000 		lds r28,Timebase
 11493 370c D091 0000 		lds r29,(Timebase)+1
 11494 3710 282F      		mov r18,r24
 11495 3712 30E0      		ldi r19,lo8(0)
 11496               	.LBE1543:
 11497               	.LBE1542:
 11498               	.LM1035:
 11499 3714 F901      		movw r30,r18
 11500 3716 A4E0      		ldi r26,4
 11501 3718 EE0F      	1:	lsl r30
 11502 371a FF1F      		rol r31
 11503 371c AA95      		dec r26
 11504 371e 01F4      		brne 1b
 11505 3720 E20F      		add r30,r18
 11506 3722 F31F      		adc r31,r19
 11507 3724 EC0F      		add r30,r28
 11508 3726 FD1F      		adc r31,r29
 11509 3728 E658      		subi r30,lo8(-(122))
 11510 372a FF4F      		sbci r31,hi8(-(122))
 11511 372c 8081      		ld r24,Z
 11512               	.LVL677:
 11513 372e EA57      		subi r30,lo8(-(-122))
 11514 3730 F040      		sbci r31,hi8(-(-122))
 11515 3732 80FD      		sbrc r24,0
 11516 3734 00C0      		rjmp .L519
 11517               	.LM1036:
 11518 3736 E158      		subi r30,lo8(-(127))
 11519 3738 FF4F      		sbci r31,hi8(-(127))
 11520 373a 8191      		ld r24,Z+
 11521 373c 9191      		ld r25,Z+
 11522 373e A191      		ld r26,Z+
 11523 3740 B191      		ld r27,Z+
 11524 3742 841B      		sub r24,r20
 11525 3744 950B      		sbc r25,r21
 11526 3746 A60B      		sbc r26,r22
 11527 3748 B70B      		sbc r27,r23
 11528               	.LBB1544:
 11529               	.LBB1545:
 11530               	.LM1037:
 11531 374a B7FF      		sbrs r27,7
 11532 374c 00C0      		rjmp .L517
 11533               	.LM1038:
 11534 374e 1082      		st Z,__zero_reg__
 11535 3750 1182      		std Z+1,__zero_reg__
 11536 3752 1282      		std Z+2,__zero_reg__
 11537 3754 1382      		std Z+3,__zero_reg__
 11538 3756 00C0      		rjmp .L518
 11539               	.L517:
 11540               	.LM1039:
 11541 3758 8083      		st Z,r24
 11542 375a 9183      		std Z+1,r25
 11543 375c A283      		std Z+2,r26
 11544 375e B383      		std Z+3,r27
 11545               	.L518:
 11546               	.LBE1545:
 11547               	.LBE1544:
 11548               	.LBB1546:
 11549               	.LBB1547:
 11550               	.LM1040:
 11551 3760 F901      		movw r30,r18
 11552 3762 64E0      		ldi r22,4
 11553 3764 EE0F      	1:	lsl r30
 11554 3766 FF1F      		rol r31
 11555 3768 6A95      		dec r22
 11556 376a 01F4      		brne 1b
 11557 376c E20F      		add r30,r18
 11558 376e F31F      		adc r31,r19
 11559 3770 EC0F      		add r30,r28
 11560 3772 FD1F      		adc r31,r29
 11561 3774 E658      		subi r30,lo8(-(122))
 11562 3776 FF4F      		sbci r31,hi8(-(122))
 11563 3778 8081      		ld r24,Z
 11564 377a 8160      		ori r24,lo8(1)
 11565 377c 8083      		st Z,r24
 11566               	.L519:
 11567               	/* epilogue start */
 11568               	.LBE1547:
 11569               	.LBE1546:
 11570               	.LM1041:
 11571 377e DF91      		pop r29
 11572 3780 CF91      		pop r28
 11573 3782 0895      		ret
 11574               	.LFE190:
 11576               	.global	Timebase_LPDownCounter_Get_Remaining_Period_Value
 11578               	Timebase_LPDownCounter_Get_Remaining_Period_Value:
 11579               	.LFB191:
 11580               	.LM1042:
 11581               	.LVL678:
 11582               	/* prologue: function */
 11583               	/* frame size = 0 */
 11584               	.LBB1548:
 11585               	.LBB1549:
 11586               	.LM1043:
 11587 3784 E091 0000 		lds r30,Timebase
 11588 3788 F091 0000 		lds r31,(Timebase)+1
 11589 378c 90E0      		ldi r25,lo8(0)
 11590               	.LBE1549:
 11591               	.LBE1548:
 11592               	.LM1044:
 11593 378e 9C01      		movw r18,r24
 11594               	.LVL679:
 11595 3790 B4E0      		ldi r27,4
 11596 3792 220F      	1:	lsl r18
 11597 3794 331F      		rol r19
 11598 3796 BA95      		dec r27
 11599 3798 01F4      		brne 1b
 11600 379a 280F      		add r18,r24
 11601 379c 391F      		adc r19,r25
 11602 379e E20F      		add r30,r18
 11603 37a0 F31F      		adc r31,r19
 11604 37a2 DF01      		movw r26,r30
 11605 37a4 AD57      		subi r26,lo8(-(131))
 11606 37a6 BF4F      		sbci r27,hi8(-(131))
 11607 37a8 E158      		subi r30,lo8(-(127))
 11608 37aa FF4F      		sbci r31,hi8(-(127))
 11609 37ac 2081      		ld r18,Z
 11610 37ae 3181      		ldd r19,Z+1
 11611 37b0 4281      		ldd r20,Z+2
 11612 37b2 5381      		ldd r21,Z+3
 11613               	.LVL680:
 11614 37b4 8D91      		ld r24,X+
 11615 37b6 9D91      		ld r25,X+
 11616 37b8 0D90      		ld __tmp_reg__,X+
 11617 37ba BC91      		ld r27,X
 11618 37bc A02D      		mov r26,__tmp_reg__
 11619 37be 281B      		sub r18,r24
 11620 37c0 390B      		sbc r19,r25
 11621 37c2 4A0B      		sbc r20,r26
 11622 37c4 5B0B      		sbc r21,r27
 11623 37c6 57FF      		sbrs r21,7
 11624 37c8 00C0      		rjmp .L521
 11625 37ca 20E0      		ldi r18,lo8(0)
 11626 37cc 30E0      		ldi r19,hi8(0)
 11627 37ce 40E0      		ldi r20,hlo8(0)
 11628 37d0 50E0      		ldi r21,hhi8(0)
 11629               	.L521:
 11630               	.LM1045:
 11631 37d2 B901      		movw r22,r18
 11632               	.LVL681:
 11633 37d4 CA01      		movw r24,r20
 11634               	/* epilogue start */
 11635 37d6 0895      		ret
 11636               	.LFE191:
 11638               	.global	Timebase_LPDownCounter_Period_Value_Expired
 11640               	Timebase_LPDownCounter_Period_Value_Expired:
 11641               	.LFB192:
 11642               	.LM1046:
 11643               	.LVL682:
 11644 37d8 CF93      		push r28
 11645 37da DF93      		push r29
 11646               	/* prologue: function */
 11647               	/* frame size = 0 */
 11648               	.LBB1550:
 11649               	.LBB1551:
 11650               	.LBB1552:
 11651               	.LBB1553:
 11652               	.LM1047:
 11653 37dc C091 0000 		lds r28,Timebase
 11654 37e0 D091 0000 		lds r29,(Timebase)+1
 11655 37e4 682F      		mov r22,r24
 11656 37e6 70E0      		ldi r23,lo8(0)
 11657               	.LBE1553:
 11658               	.LBE1552:
 11659               	.LM1048:
 11660 37e8 FB01      		movw r30,r22
 11661 37ea 44E0      		ldi r20,4
 11662 37ec EE0F      	1:	lsl r30
 11663 37ee FF1F      		rol r31
 11664 37f0 4A95      		dec r20
 11665 37f2 01F4      		brne 1b
 11666 37f4 E60F      		add r30,r22
 11667 37f6 F71F      		adc r31,r23
 11668 37f8 EC0F      		add r30,r28
 11669 37fa FD1F      		adc r31,r29
 11670 37fc DF01      		movw r26,r30
 11671 37fe AD57      		subi r26,lo8(-(131))
 11672 3800 BF4F      		sbci r27,hi8(-(131))
 11673 3802 E158      		subi r30,lo8(-(127))
 11674 3804 FF4F      		sbci r31,hi8(-(127))
 11675 3806 2081      		ld r18,Z
 11676 3808 3181      		ldd r19,Z+1
 11677 380a 4281      		ldd r20,Z+2
 11678 380c 5381      		ldd r21,Z+3
 11679               	.LVL683:
 11680 380e 8D91      		ld r24,X+
 11681 3810 9D91      		ld r25,X+
 11682 3812 0D90      		ld __tmp_reg__,X+
 11683 3814 BC91      		ld r27,X
 11684 3816 A02D      		mov r26,__tmp_reg__
 11685               	.LVL684:
 11686 3818 281B      		sub r18,r24
 11687 381a 390B      		sbc r19,r25
 11688 381c 4A0B      		sbc r20,r26
 11689 381e 5B0B      		sbc r21,r27
 11690               	.LM1049:
 11691 3820 57FD      		sbrc r21,7
 11692 3822 00C0      		rjmp .L524
 11693               	.LBE1551:
 11694               	.LBE1550:
 11695               	.LM1050:
 11696 3824 2115      		cp r18,__zero_reg__
 11697 3826 3105      		cpc r19,__zero_reg__
 11698 3828 4105      		cpc r20,__zero_reg__
 11699 382a 5105      		cpc r21,__zero_reg__
 11700 382c 01F0      		breq .L524
 11701 382e 20E0      		ldi r18,lo8(0)
 11702               	.LVL685:
 11703 3830 00C0      		rjmp .L525
 11704               	.LVL686:
 11705               	.L524:
 11706 3832 20E0      		ldi r18,lo8(0)
 11707               	.LVL687:
 11708 3834 CB01      		movw r24,r22
 11709 3836 34E0      		ldi r19,4
 11710 3838 880F      	1:	lsl r24
 11711 383a 991F      		rol r25
 11712 383c 3A95      		dec r19
 11713 383e 01F4      		brne 1b
 11714 3840 860F      		add r24,r22
 11715 3842 971F      		adc r25,r23
 11716 3844 C80F      		add r28,r24
 11717 3846 D91F      		adc r29,r25
 11718 3848 C658      		subi r28,lo8(-(122))
 11719 384a DF4F      		sbci r29,hi8(-(122))
 11720 384c 8881      		ld r24,Y
 11721 384e 80FF      		sbrs r24,0
 11722 3850 21E0      		ldi r18,lo8(1)
 11723               	.L526:
 11724 3852 81E0      		ldi r24,lo8(1)
 11725 3854 2827      		eor r18,r24
 11726               	.L525:
 11727               	.LM1051:
 11728 3856 822F      		mov r24,r18
 11729               	/* epilogue start */
 11730 3858 DF91      		pop r29
 11731 385a CF91      		pop r28
 11732 385c 0895      		ret
 11733               	.LFE192:
 11735               	.global	Timebase_LPDownCounter_Period_Value_Expired_Event
 11737               	Timebase_LPDownCounter_Period_Value_Expired_Event:
 11738               	.LFB193:
 11739               	.LM1052:
 11740               	.LVL688:
 11741 385e 1F93      		push r17
 11742               	/* prologue: function */
 11743               	/* frame size = 0 */
 11744 3860 182F      		mov r17,r24
 11745               	.LM1053:
 11746 3862 0E94 0000 		call Timebase_LPDownCounter_Period_Value_Expired
 11747               	.LVL689:
 11748 3866 8130      		cpi r24,lo8(1)
 11749 3868 01F0      		breq .L529
 11750 386a 80E0      		ldi r24,lo8(0)
 11751 386c 00C0      		rjmp .L530
 11752               	.L529:
 11753               	.LBB1554:
 11754               	.LBB1555:
 11755               	.LM1054:
 11756 386e E091 0000 		lds r30,Timebase
 11757 3872 F091 0000 		lds r31,(Timebase)+1
 11758 3876 212F      		mov r18,r17
 11759 3878 30E0      		ldi r19,lo8(0)
 11760               	.LVL690:
 11761 387a C901      		movw r24,r18
 11762 387c 54E0      		ldi r21,4
 11763 387e 880F      	1:	lsl r24
 11764 3880 991F      		rol r25
 11765 3882 5A95      		dec r21
 11766 3884 01F4      		brne 1b
 11767 3886 820F      		add r24,r18
 11768 3888 931F      		adc r25,r19
 11769 388a E80F      		add r30,r24
 11770 388c F91F      		adc r31,r25
 11771 388e E658      		subi r30,lo8(-(122))
 11772 3890 FF4F      		sbci r31,hi8(-(122))
 11773 3892 8081      		ld r24,Z
 11774 3894 8E7F      		andi r24,lo8(-2)
 11775 3896 8083      		st Z,r24
 11776 3898 81E0      		ldi r24,lo8(1)
 11777               	.L530:
 11778               	/* epilogue start */
 11779               	.LBE1555:
 11780               	.LBE1554:
 11781               	.LM1055:
 11782 389a 1F91      		pop r17
 11783               	.LVL691:
 11784 389c 0895      		ret
 11785               	.LFE193:
 11787               	.global	Timebase_LPDownCounter_Update_All
 11789               	Timebase_LPDownCounter_Update_All:
 11790               	.LFB194:
 11791               	.LM1056:
 11792               	/* prologue: function */
 11793               	/* frame size = 0 */
 11794               	.LBB1556:
 11795               	.LM1057:
 11796 389e 80E0      		ldi r24,lo8(0)
 11797 38a0 0E94 0000 		call Timebase_LPDownCounter_Update
 11798               	/* epilogue start */
 11799               	.LBE1556:
 11800               	.LM1058:
 11801 38a4 0895      		ret
 11802               	.LFE194:
 11804               	.global	Timebase_LPDownCounter_Reset_All
 11806               	Timebase_LPDownCounter_Reset_All:
 11807               	.LFB195:
 11808               	.LM1059:
 11809               	/* prologue: function */
 11810               	/* frame size = 0 */
 11811               	.LBB1557:
 11812               	.LBB1558:
 11813               	.LBB1559:
 11814               	.LBB1560:
 11815               	.LBB1561:
 11816               	.LM1060:
 11817 38a6 E091 0000 		lds r30,Timebase
 11818 38aa F091 0000 		lds r31,(Timebase)+1
 11819 38ae E558      		subi r30,lo8(-(123))
 11820 38b0 FF4F      		sbci r31,hi8(-(123))
 11821 38b2 1192      		st Z+,__zero_reg__
 11822 38b4 1192      		st Z+,__zero_reg__
 11823 38b6 1192      		st Z+,__zero_reg__
 11824 38b8 1192      		st Z+,__zero_reg__
 11825               	.LBE1561:
 11826               	.LBE1560:
 11827               	.LBB1562:
 11828               	.LBB1563:
 11829               	.LM1061:
 11830 38ba 1082      		st Z,__zero_reg__
 11831 38bc 1182      		std Z+1,__zero_reg__
 11832 38be 1282      		std Z+2,__zero_reg__
 11833 38c0 1382      		std Z+3,__zero_reg__
 11834 38c2 EF57      		subi r30,lo8(-(-127))
 11835 38c4 F040      		sbci r31,hi8(-(-127))
 11836               	.LBE1563:
 11837               	.LBE1562:
 11838               	.LBB1564:
 11839               	.LBB1565:
 11840               	.LM1062:
 11841 38c6 DF01      		movw r26,r30
 11842 38c8 A658      		subi r26,lo8(-(122))
 11843 38ca BF4F      		sbci r27,hi8(-(122))
 11844 38cc 8C91      		ld r24,X
 11845               	.LBE1565:
 11846               	.LBE1564:
 11847               	.LBB1566:
 11848               	.LBB1567:
 11849               	.LM1063:
 11850 38ce 807E      		andi r24,lo8(-32)
 11851 38d0 8C93      		st X,r24
 11852               	.LBE1567:
 11853               	.LBE1566:
 11854               	.LBB1568:
 11855               	.LBB1569:
 11856               	.LM1064:
 11857 38d2 E957      		subi r30,lo8(-(135))
 11858 38d4 FF4F      		sbci r31,hi8(-(135))
 11859 38d6 1082      		st Z,__zero_reg__
 11860 38d8 1182      		std Z+1,__zero_reg__
 11861 38da 1282      		std Z+2,__zero_reg__
 11862 38dc 1382      		std Z+3,__zero_reg__
 11863               	/* epilogue start */
 11864               	.LBE1569:
 11865               	.LBE1568:
 11866               	.LBE1559:
 11867               	.LBE1558:
 11868               	.LBE1557:
 11869               	.LM1065:
 11870 38de 0895      		ret
 11871               	.LFE195:
 11873               	.global	Timebase_Get_Update_Req_Sts
 11875               	Timebase_Get_Update_Req_Sts:
 11876               	.LFB196:
 11877               	.LM1066:
 11878               	/* prologue: function */
 11879               	/* frame size = 0 */
 11880               	.LM1067:
 11881 38e0 E091 0000 		lds r30,Timebase
 11882 38e4 F091 0000 		lds r31,(Timebase)+1
 11883 38e8 858D      		ldd r24,Z+29
 11884               	/* epilogue start */
 11885               	.LM1068:
 11886 38ea 0895      		ret
 11887               	.LFE196:
 11889               	.global	Timebase_Reset
 11891               	Timebase_Reset:
 11892               	.LFB197:
 11893               	.LM1069:
 11894               	/* prologue: function */
 11895               	/* frame size = 0 */
 11896               	.LM1070:
 11897 38ec 0E94 0000 		call Timebase_UpCounter_Reset_All
 11898               	.LM1071:
 11899 38f0 0E94 0000 		call Timebase_DownCounter_SS_Reset_All
 11900               	.LM1072:
 11901 38f4 0E94 0000 		call Timebase_DownCounter_Reset_All
 11902               	/* epilogue start */
 11903               	.LM1073:
 11904 38f8 0895      		ret
 11905               	.LFE197:
 11907               	.global	Timebase_LP_Reset
 11909               	Timebase_LP_Reset:
 11910               	.LFB198:
 11911               	.LM1074:
 11912               	/* prologue: function */
 11913               	/* frame size = 0 */
 11914               	.LM1075:
 11915 38fa 0E94 0000 		call Timebase_LPDownCounter_Reset_All
 11916               	/* epilogue start */
 11917               	.LM1076:
 11918 38fe 0895      		ret
 11919               	.LFE198:
 11921               	.global	Timebase_Init
 11923               	Timebase_Init:
 11924               	.LFB199:
 11925               	.LM1077:
 11926               	.LVL692:
 11927 3900 0F93      		push r16
 11928 3902 1F93      		push r17
 11929               	/* prologue: function */
 11930               	/* frame size = 0 */
 11931 3904 8C01      		movw r16,r24
 11932               	.LM1078:
 11933 3906 0E94 0000 		call Timebase_Struct_Init
 11934               	.LVL693:
 11935               	.LM1079:
 11936 390a C801      		movw r24,r16
 11937 390c 0E94 0000 		call Timebase_Timer_Enable
 11938               	.LM1080:
 11939 3910 0E94 0000 		call Timebase_Reset
 11940               	.LM1081:
 11941 3914 81E0      		ldi r24,lo8(1)
 11942 3916 90E0      		ldi r25,hi8(1)
 11943 3918 0E94 0000 		call Timebase_LPTimer_Enable
 11944               	.LBB1570:
 11945               	.LBB1571:
 11946               	.LM1082:
 11947 391c 0E94 0000 		call Timebase_LPDownCounter_Reset_All
 11948               	/* epilogue start */
 11949               	.LBE1571:
 11950               	.LBE1570:
 11951               	.LM1083:
 11952 3920 1F91      		pop r17
 11953 3922 0F91      		pop r16
 11954               	.LVL694:
 11955 3924 0895      		ret
 11956               	.LFE199:
 11958               	.global	Timebase_Main_Loop_Executables
 11960               	Timebase_Main_Loop_Executables:
 11961               	.LFB200:
 11962               	.LM1084:
 11963               	/* prologue: function */
 11964               	/* frame size = 0 */
 11965               	.LM1085:
 11966 3926 E091 0000 		lds r30,Timebase
 11967 392a F091 0000 		lds r31,(Timebase)+1
 11968 392e 858D      		ldd r24,Z+29
 11969 3930 82FF      		sbrs r24,2
 11970 3932 00C0      		rjmp .L545
 11971               	.LM1086:
 11972 3934 0E94 0000 		call Timebase_Timer_Sync_With_Shadow_Variables
 11973               	.LM1087:
 11974 3938 0E94 0000 		call Timebase_UpCounter_SS_Update_All
 11975               	.LM1088:
 11976 393c E091 0000 		lds r30,Timebase
 11977 3940 F091 0000 		lds r31,(Timebase)+1
 11978 3944 858D      		ldd r24,Z+29
 11979 3946 8B7F      		andi r24,lo8(-5)
 11980 3948 858F      		std Z+29,r24
 11981               	.L545:
 11982               	.LM1089:
 11983 394a E091 0000 		lds r30,Timebase
 11984 394e F091 0000 		lds r31,(Timebase)+1
 11985 3952 858D      		ldd r24,Z+29
 11986 3954 80FF      		sbrs r24,0
 11987 3956 00C0      		rjmp .L546
 11988               	.LM1090:
 11989 3958 0E94 0000 		call Timebase_Timer_Sync_With_Shadow_Variables
 11990               	.LM1091:
 11991 395c 0E94 0000 		call Timebase_UpCounter_Update_All
 11992               	.LM1092:
 11993 3960 E091 0000 		lds r30,Timebase
 11994 3964 F091 0000 		lds r31,(Timebase)+1
 11995 3968 858D      		ldd r24,Z+29
 11996 396a 8E7F      		andi r24,lo8(-2)
 11997 396c 858F      		std Z+29,r24
 11998               	.L546:
 11999               	.LM1093:
 12000 396e E091 0000 		lds r30,Timebase
 12001 3972 F091 0000 		lds r31,(Timebase)+1
 12002 3976 858D      		ldd r24,Z+29
 12003 3978 83FF      		sbrs r24,3
 12004 397a 00C0      		rjmp .L547
 12005               	.LM1094:
 12006 397c 0E94 0000 		call Timebase_Timer_Sync_With_Shadow_Variables
 12007               	.LM1095:
 12008 3980 0E94 0000 		call Timebase_DownCounter_SS_Update_All
 12009               	.LM1096:
 12010 3984 E091 0000 		lds r30,Timebase
 12011 3988 F091 0000 		lds r31,(Timebase)+1
 12012 398c 858D      		ldd r24,Z+29
 12013 398e 877F      		andi r24,lo8(-9)
 12014 3990 858F      		std Z+29,r24
 12015               	.L547:
 12016               	.LM1097:
 12017 3992 E091 0000 		lds r30,Timebase
 12018 3996 F091 0000 		lds r31,(Timebase)+1
 12019 399a 858D      		ldd r24,Z+29
 12020 399c 81FF      		sbrs r24,1
 12021 399e 00C0      		rjmp .L548
 12022               	.LM1098:
 12023 39a0 0E94 0000 		call Timebase_Timer_Sync_With_Shadow_Variables
 12024               	.LM1099:
 12025 39a4 0E94 0000 		call Timebase_DownCounter_Update_All
 12026               	.LM1100:
 12027 39a8 E091 0000 		lds r30,Timebase
 12028 39ac F091 0000 		lds r31,(Timebase)+1
 12029 39b0 858D      		ldd r24,Z+29
 12030 39b2 8D7F      		andi r24,lo8(-3)
 12031 39b4 858F      		std Z+29,r24
 12032               	.L548:
 12033               	.LM1101:
 12034 39b6 E091 0000 		lds r30,Timebase
 12035 39ba F091 0000 		lds r31,(Timebase)+1
 12036 39be 168A      		std Z+22,__zero_reg__
 12037               	.LM1102:
 12038 39c0 858D      		ldd r24,Z+29
 12039 39c2 85FF      		sbrs r24,5
 12040 39c4 00C0      		rjmp .L550
 12041               	.LM1103:
 12042 39c6 0E94 0000 		call Timebase_LPDownCounter_Update_All
 12043               	.LM1104:
 12044 39ca E091 0000 		lds r30,Timebase
 12045 39ce F091 0000 		lds r31,(Timebase)+1
 12046 39d2 858D      		ldd r24,Z+29
 12047 39d4 8F7D      		andi r24,lo8(-33)
 12048 39d6 858F      		std Z+29,r24
 12049               	.L550:
 12050 39d8 0895      		ret
 12051               	.LFE200:
 12053               	.global	Timebase_ISR_Executables
 12055               	Timebase_ISR_Executables:
 12056               	.LFB201:
 12057               	.LM1105:
 12058               	/* prologue: function */
 12059               	/* frame size = 0 */
 12060               	.LM1106:
 12061 39da E091 0000 		lds r30,Timebase
 12062 39de F091 0000 		lds r31,(Timebase)+1
 12063 39e2 8089      		ldd r24,Z+16
 12064 39e4 9189      		ldd r25,Z+17
 12065 39e6 0196      		adiw r24,1
 12066 39e8 918B      		std Z+17,r25
 12067 39ea 808B      		std Z+16,r24
 12068               	.LM1107:
 12069 39ec 858D      		ldd r24,Z+29
 12070 39ee 8460      		ori r24,lo8(4)
 12071 39f0 858F      		std Z+29,r24
 12072               	.LM1108:
 12073 39f2 858D      		ldd r24,Z+29
 12074 39f4 8860      		ori r24,lo8(8)
 12075 39f6 858F      		std Z+29,r24
 12076               	.LM1109:
 12077 39f8 2089      		ldd r18,Z+16
 12078 39fa 3189      		ldd r19,Z+17
 12079 39fc 8081      		ld r24,Z
 12080 39fe 9181      		ldd r25,Z+1
 12081 3a00 2817      		cp r18,r24
 12082 3a02 3907      		cpc r19,r25
 12083 3a04 00F0      		brlo .L553
 12084               	.LM1110:
 12085 3a06 118A      		std Z+17,__zero_reg__
 12086 3a08 108A      		std Z+16,__zero_reg__
 12087               	.LM1111:
 12088 3a0a 8289      		ldd r24,Z+18
 12089 3a0c 9389      		ldd r25,Z+19
 12090 3a0e A489      		ldd r26,Z+20
 12091 3a10 B589      		ldd r27,Z+21
 12092 3a12 0196      		adiw r24,1
 12093 3a14 A11D      		adc r26,__zero_reg__
 12094 3a16 B11D      		adc r27,__zero_reg__
 12095 3a18 828B      		std Z+18,r24
 12096 3a1a 938B      		std Z+19,r25
 12097 3a1c A48B      		std Z+20,r26
 12098 3a1e B58B      		std Z+21,r27
 12099               	.LM1112:
 12100 3a20 858D      		ldd r24,Z+29
 12101 3a22 8160      		ori r24,lo8(1)
 12102 3a24 858F      		std Z+29,r24
 12103               	.LM1113:
 12104 3a26 858D      		ldd r24,Z+29
 12105 3a28 8260      		ori r24,lo8(2)
 12106 3a2a 858F      		std Z+29,r24
 12107               	.L553:
 12108 3a2c 0895      		ret
 12109               	.LFE201:
 12111               	.global	__vector_16
 12113               	__vector_16:
 12114               	.LFB13:
 12115               	.LM1114:
 12116 3a2e 1F92      		push __zero_reg__
 12117 3a30 0F92      		push r0
 12118 3a32 0FB6      		in r0,__SREG__
 12119 3a34 0F92      		push r0
 12120 3a36 1124      		clr __zero_reg__
 12121 3a38 2F93      		push r18
 12122 3a3a 3F93      		push r19
 12123 3a3c 4F93      		push r20
 12124 3a3e 5F93      		push r21
 12125 3a40 6F93      		push r22
 12126 3a42 7F93      		push r23
 12127 3a44 8F93      		push r24
 12128 3a46 9F93      		push r25
 12129 3a48 AF93      		push r26
 12130 3a4a BF93      		push r27
 12131 3a4c EF93      		push r30
 12132 3a4e FF93      		push r31
 12133               	/* prologue: Signal */
 12134               	/* frame size = 0 */
 12135               	.LM1115:
 12136 3a50 E091 0000 		lds r30,Timebase
 12137 3a54 F091 0000 		lds r31,(Timebase)+1
 12138 3a58 8481      		ldd r24,Z+4
 12139 3a5a 9581      		ldd r25,Z+5
 12140 3a5c 86BD      		out 70-32,r24
 12141               	.LM1116:
 12142 3a5e 0E94 0000 		call Timebase_ISR_Executables
 12143               	/* epilogue start */
 12144               	.LM1117:
 12145 3a62 FF91      		pop r31
 12146 3a64 EF91      		pop r30
 12147 3a66 BF91      		pop r27
 12148 3a68 AF91      		pop r26
 12149 3a6a 9F91      		pop r25
 12150 3a6c 8F91      		pop r24
 12151 3a6e 7F91      		pop r23
 12152 3a70 6F91      		pop r22
 12153 3a72 5F91      		pop r21
 12154 3a74 4F91      		pop r20
 12155 3a76 3F91      		pop r19
 12156 3a78 2F91      		pop r18
 12157 3a7a 0F90      		pop r0
 12158 3a7c 0FBE      		out __SREG__,r0
 12159 3a7e 0F90      		pop r0
 12160 3a80 1F90      		pop __zero_reg__
 12161 3a82 1895      		reti
 12162               	.LFE13:
 12164               	.global	Timebase_LP_ISR_Executables
 12166               	Timebase_LP_ISR_Executables:
 12167               	.LFB202:
 12168               	.LM1118:
 12169               	/* prologue: function */
 12170               	/* frame size = 0 */
 12171               	.LM1119:
 12172 3a84 E091 0000 		lds r30,Timebase
 12173 3a88 F091 0000 		lds r31,(Timebase)+1
 12174 3a8c 8789      		ldd r24,Z+23
 12175 3a8e 908D      		ldd r25,Z+24
 12176 3a90 0196      		adiw r24,1
 12177 3a92 908F      		std Z+24,r25
 12178 3a94 878B      		std Z+23,r24
 12179               	.LM1120:
 12180 3a96 2789      		ldd r18,Z+23
 12181 3a98 308D      		ldd r19,Z+24
 12182 3a9a 8281      		ldd r24,Z+2
 12183 3a9c 9381      		ldd r25,Z+3
 12184 3a9e 2817      		cp r18,r24
 12185 3aa0 3907      		cpc r19,r25
 12186 3aa2 00F0      		brlo .L557
 12187               	.LM1121:
 12188 3aa4 108E      		std Z+24,__zero_reg__
 12189 3aa6 178A      		std Z+23,__zero_reg__
 12190               	.LM1122:
 12191 3aa8 818D      		ldd r24,Z+25
 12192 3aaa 928D      		ldd r25,Z+26
 12193 3aac A38D      		ldd r26,Z+27
 12194 3aae B48D      		ldd r27,Z+28
 12195 3ab0 0196      		adiw r24,1
 12196 3ab2 A11D      		adc r26,__zero_reg__
 12197 3ab4 B11D      		adc r27,__zero_reg__
 12198 3ab6 818F      		std Z+25,r24
 12199 3ab8 928F      		std Z+26,r25
 12200 3aba A38F      		std Z+27,r26
 12201 3abc B48F      		std Z+28,r27
 12202               	.L557:
 12203               	.LM1123:
 12204 3abe 858D      		ldd r24,Z+29
 12205 3ac0 8062      		ori r24,lo8(32)
 12206 3ac2 858F      		std Z+29,r24
 12207               	/* epilogue start */
 12208               	.LM1124:
 12209 3ac4 0895      		ret
 12210               	.LFE202:
 12212               	.global	__vector_6
 12214               	__vector_6:
 12215               	.LFB14:
 12216               	.LM1125:
 12217 3ac6 1F92      		push __zero_reg__
 12218 3ac8 0F92      		push r0
 12219 3aca 0FB6      		in r0,__SREG__
 12220 3acc 0F92      		push r0
 12221 3ace 1124      		clr __zero_reg__
 12222 3ad0 2F93      		push r18
 12223 3ad2 3F93      		push r19
 12224 3ad4 4F93      		push r20
 12225 3ad6 5F93      		push r21
 12226 3ad8 6F93      		push r22
 12227 3ada 7F93      		push r23
 12228 3adc 8F93      		push r24
 12229 3ade 9F93      		push r25
 12230 3ae0 AF93      		push r26
 12231 3ae2 BF93      		push r27
 12232 3ae4 EF93      		push r30
 12233 3ae6 FF93      		push r31
 12234               	/* prologue: Signal */
 12235               	/* frame size = 0 */
 12236               	.LM1126:
 12237 3ae8 E0E6      		ldi r30,lo8(96)
 12238 3aea F0E0      		ldi r31,hi8(96)
 12239 3aec 8081      		ld r24,Z
 12240 3aee 8064      		ori r24,lo8(64)
 12241 3af0 8083      		st Z,r24
 12242               	.LM1127:
 12243 3af2 0E94 0000 		call Timebase_LP_ISR_Executables
 12244               	/* epilogue start */
 12245               	.LM1128:
 12246 3af6 FF91      		pop r31
 12247 3af8 EF91      		pop r30
 12248 3afa BF91      		pop r27
 12249 3afc AF91      		pop r26
 12250 3afe 9F91      		pop r25
 12251 3b00 8F91      		pop r24
 12252 3b02 7F91      		pop r23
 12253 3b04 6F91      		pop r22
 12254 3b06 5F91      		pop r21
 12255 3b08 4F91      		pop r20
 12256 3b0a 3F91      		pop r19
 12257 3b0c 2F91      		pop r18
 12258 3b0e 0F90      		pop r0
 12259 3b10 0FBE      		out __SREG__,r0
 12260 3b12 0F90      		pop r0
 12261 3b14 1F90      		pop __zero_reg__
 12262 3b16 1895      		reti
 12263               	.LFE14:
 12265               		.data
 12268               	C.1.1822:
 12269 0000 0100      		.word	1
 12270 0002 0800      		.word	8
 12271 0004 4000      		.word	64
 12272 0006 0001      		.word	256
 12273 0008 0004      		.word	1024
 12274               		.comm Timebase_type,139,1
 12275               		.comm Timebase,2,1
 13868               	.Letext0:
DEFINED SYMBOLS
                            *ABS*:00000000 timebase.c
C:\Users\WALTON\AppData\Local\Temp/cc3hF44B.s:2      *ABS*:0000003f __SREG__
C:\Users\WALTON\AppData\Local\Temp/cc3hF44B.s:3      *ABS*:0000003e __SP_H__
C:\Users\WALTON\AppData\Local\Temp/cc3hF44B.s:4      *ABS*:0000003d __SP_L__
C:\Users\WALTON\AppData\Local\Temp/cc3hF44B.s:5      *ABS*:00000034 __CCP__
C:\Users\WALTON\AppData\Local\Temp/cc3hF44B.s:6      *ABS*:00000000 __tmp_reg__
C:\Users\WALTON\AppData\Local\Temp/cc3hF44B.s:7      *ABS*:00000001 __zero_reg__
C:\Users\WALTON\AppData\Local\Temp/cc3hF44B.s:18     .text:00000000 Timebase_Struct_Init
                            *COM*:0000008b Timebase_type
                            *COM*:00000002 Timebase
C:\Users\WALTON\AppData\Local\Temp/cc3hF44B.s:229    .text:0000023e Timebase_Timer_Enable
C:\Users\WALTON\AppData\Local\Temp/cc3hF44B.s:12268  .data:00000000 C.1.1822
C:\Users\WALTON\AppData\Local\Temp/cc3hF44B.s:447    .text:00000360 Timebase_Timer_Disable
C:\Users\WALTON\AppData\Local\Temp/cc3hF44B.s:474    .text:00000374 Timebase_LPTimer_Enable
C:\Users\WALTON\AppData\Local\Temp/cc3hF44B.s:573    .text:000003e4 Timebase_LPTimer_Disable
C:\Users\WALTON\AppData\Local\Temp/cc3hF44B.s:613    .text:00000402 Timebase_Atomic_Operation_Start
C:\Users\WALTON\AppData\Local\Temp/cc3hF44B.s:631    .text:00000406 Timebase_Atomic_Operation_End
C:\Users\WALTON\AppData\Local\Temp/cc3hF44B.s:649    .text:0000040a Timebase_Timer_Get_SubSecondsShadow
C:\Users\WALTON\AppData\Local\Temp/cc3hF44B.s:667    .text:0000041a Timebase_Timer_Get_SecondsShadow
C:\Users\WALTON\AppData\Local\Temp/cc3hF44B.s:688    .text:00000430 Timebase_Timer_Get_SubSeconds
C:\Users\WALTON\AppData\Local\Temp/cc3hF44B.s:706    .text:00000440 Timebase_Timer_Get_Seconds
C:\Users\WALTON\AppData\Local\Temp/cc3hF44B.s:727    .text:00000456 Timebase_Timer_Set_SubSeconds
C:\Users\WALTON\AppData\Local\Temp/cc3hF44B.s:745    .text:00000464 Timebase_Timer_Set_Seconds
C:\Users\WALTON\AppData\Local\Temp/cc3hF44B.s:765    .text:00000476 Timebase_Timer_Get_SubSecondsShadow_Securely
C:\Users\WALTON\AppData\Local\Temp/cc3hF44B.s:794    .text:00000490 Timebase_Timer_Get_SecondsShadow_Securely
C:\Users\WALTON\AppData\Local\Temp/cc3hF44B.s:831    .text:000004b8 Timebase_Timer_Sync_With_Shadow_Variables
C:\Users\WALTON\AppData\Local\Temp/cc3hF44B.s:885    .text:000004e8 Timebase_Timer_Delay_SubSeconds
C:\Users\WALTON\AppData\Local\Temp/cc3hF44B.s:1062   .text:000005a0 Timebase_Timer_Await_SubSeconds
C:\Users\WALTON\AppData\Local\Temp/cc3hF44B.s:1224   .text:0000063a Timebase_Timer_Delay_Seconds
C:\Users\WALTON\AppData\Local\Temp/cc3hF44B.s:1321   .text:0000067c Timebase_LPTimer_Get_SubSeconds
C:\Users\WALTON\AppData\Local\Temp/cc3hF44B.s:1350   .text:00000696 Timebase_LPTimer_Get_Seconds
C:\Users\WALTON\AppData\Local\Temp/cc3hF44B.s:1387   .text:000006be Timebase_LPTimer_Set_SubSeconds
C:\Users\WALTON\AppData\Local\Temp/cc3hF44B.s:1405   .text:000006cc Timebase_LPTimer_Set_Seconds
C:\Users\WALTON\AppData\Local\Temp/cc3hF44B.s:1425   .text:000006de Timebase_LPTimer_Delay_Seconds
C:\Users\WALTON\AppData\Local\Temp/cc3hF44B.s:1564   .text:00000758 Timebase_UpCounter_SS_Get_Status
C:\Users\WALTON\AppData\Local\Temp/cc3hF44B.s:1598   .text:00000782 Timebase_UpCounter_SS_Set_Status
C:\Users\WALTON\AppData\Local\Temp/cc3hF44B.s:1636   .text:000007b2 Timebase_UpCounter_SS_Get_Value
C:\Users\WALTON\AppData\Local\Temp/cc3hF44B.s:1679   .text:000007ec Timebase_UpCounter_SS_Set_Value
C:\Users\WALTON\AppData\Local\Temp/cc3hF44B.s:1729   .text:00000830 Timebase_UpCounter_SS_Get_EndValueSec
C:\Users\WALTON\AppData\Local\Temp/cc3hF44B.s:1772   .text:0000086a Timebase_UpCounter_SS_Get_EndValueSubSec
C:\Users\WALTON\AppData\Local\Temp/cc3hF44B.s:1815   .text:000008a4 Timebase_UpCounter_SS_Set_EndValueSec
C:\Users\WALTON\AppData\Local\Temp/cc3hF44B.s:1850   .text:000008d0 Timebase_UpCounter_SS_Set_EndValueSubSec
C:\Users\WALTON\AppData\Local\Temp/cc3hF44B.s:1885   .text:000008fc Timebase_UpCounter_SS_Get_TargetValue
C:\Users\WALTON\AppData\Local\Temp/cc3hF44B.s:1928   .text:00000936 Timebase_UpCounter_SS_Set_TargetValue
C:\Users\WALTON\AppData\Local\Temp/cc3hF44B.s:1963   .text:00000962 Timebase_UpCounter_SS_Get_TemporaryValue
C:\Users\WALTON\AppData\Local\Temp/cc3hF44B.s:2006   .text:0000099c Timebase_UpCounter_SS_Set_TemporaryValue
C:\Users\WALTON\AppData\Local\Temp/cc3hF44B.s:2056   .text:000009e0 Timebase_UpCounter_SS_Get_PeriodValue
C:\Users\WALTON\AppData\Local\Temp/cc3hF44B.s:2099   .text:00000a1a Timebase_UpCounter_SS_Set_PeriodValue
C:\Users\WALTON\AppData\Local\Temp/cc3hF44B.s:2134   .text:00000a46 Timebase_UpCounter_SS_Get_Period_Flag
C:\Users\WALTON\AppData\Local\Temp/cc3hF44B.s:2167   .text:00000a6e Timebase_UpCounter_SS_Set_Period_Flag
C:\Users\WALTON\AppData\Local\Temp/cc3hF44B.s:2201   .text:00000a98 Timebase_UpCounter_SS_Clear_Period_Flag
C:\Users\WALTON\AppData\Local\Temp/cc3hF44B.s:2235   .text:00000ac2 Timebase_UpCounter_SS_Get_ReloadValue
C:\Users\WALTON\AppData\Local\Temp/cc3hF44B.s:2278   .text:00000afc Timebase_UpCounter_SS_Set_ReloadValue
C:\Users\WALTON\AppData\Local\Temp/cc3hF44B.s:2313   .text:00000b28 Timebase_UpCounter_SS_Reset
C:\Users\WALTON\AppData\Local\Temp/cc3hF44B.s:2418   .text:00000b8a Timebase_UpCounter_SS_Clear_All_Flags
C:\Users\WALTON\AppData\Local\Temp/cc3hF44B.s:2434   .text:00000b90 Timebase_UpCounter_SS_Start
C:\Users\WALTON\AppData\Local\Temp/cc3hF44B.s:2482   .text:00000bc6 Timebase_UpCounter_SS_Stop
C:\Users\WALTON\AppData\Local\Temp/cc3hF44B.s:2530   .text:00000bfc Timebase_UpCounter_SS_Set_Securely
C:\Users\WALTON\AppData\Local\Temp/cc3hF44B.s:2829   .text:00000daa Timebase_UpCounter_SS_Set_Forcefully
C:\Users\WALTON\AppData\Local\Temp/cc3hF44B.s:2893   .text:00000e02 Timebase_UpCounter_SS_Update
C:\Users\WALTON\AppData\Local\Temp/cc3hF44B.s:3409   .text:000010ee Timebase_UpCounter_SS_Expired
C:\Users\WALTON\AppData\Local\Temp/cc3hF44B.s:3449   .text:00001122 Timebase_UpCounter_SS_Expired_Event
C:\Users\WALTON\AppData\Local\Temp/cc3hF44B.s:3498   .text:00001160 Timebase_UpCounter_SS_Oneshot_Expired_Event
C:\Users\WALTON\AppData\Local\Temp/cc3hF44B.s:3514   .text:00001166 Timebase_UpCounter_SS_Continuous_Expired_Event
C:\Users\WALTON\AppData\Local\Temp/cc3hF44B.s:3597   .text:000011ca Timebase_UpCounter_SS_Set_Period_Value_Securely
C:\Users\WALTON\AppData\Local\Temp/cc3hF44B.s:3659   .text:00001212 Timebase_UpCounter_SS_Get_Remaining_Period_Value
C:\Users\WALTON\AppData\Local\Temp/cc3hF44B.s:3717   .text:0000125e Timebase_UpCounter_SS_Period_Value_Expired
C:\Users\WALTON\AppData\Local\Temp/cc3hF44B.s:3809   .text:000012da Timebase_UpCounter_SS_Period_Value_Expired_Event
C:\Users\WALTON\AppData\Local\Temp/cc3hF44B.s:3861   .text:0000131a Timebase_UpCounter_SS_Update_All
C:\Users\WALTON\AppData\Local\Temp/cc3hF44B.s:3878   .text:00001322 Timebase_UpCounter_SS_Reset_All
C:\Users\WALTON\AppData\Local\Temp/cc3hF44B.s:3895   .text:0000132a Timebase_UpCounter_Get_Status
C:\Users\WALTON\AppData\Local\Temp/cc3hF44B.s:3929   .text:00001354 Timebase_UpCounter_Set_Status
C:\Users\WALTON\AppData\Local\Temp/cc3hF44B.s:3967   .text:00001384 Timebase_UpCounter_Get_Value
C:\Users\WALTON\AppData\Local\Temp/cc3hF44B.s:4005   .text:000013b4 Timebase_UpCounter_Set_Value
C:\Users\WALTON\AppData\Local\Temp/cc3hF44B.s:4057   .text:000013fc Timebase_UpCounter_Get_EndValueSec
C:\Users\WALTON\AppData\Local\Temp/cc3hF44B.s:4100   .text:00001436 Timebase_UpCounter_Get_EndValueSubSec
C:\Users\WALTON\AppData\Local\Temp/cc3hF44B.s:4143   .text:00001470 Timebase_UpCounter_Set_EndValueSec
C:\Users\WALTON\AppData\Local\Temp/cc3hF44B.s:4178   .text:0000149c Timebase_UpCounter_Set_EndValueSubSec
C:\Users\WALTON\AppData\Local\Temp/cc3hF44B.s:4213   .text:000014c8 Timebase_UpCounter_Get_TargetValue
C:\Users\WALTON\AppData\Local\Temp/cc3hF44B.s:4251   .text:000014f8 Timebase_UpCounter_Set_TargetValue
C:\Users\WALTON\AppData\Local\Temp/cc3hF44B.s:4288   .text:00001528 Timebase_UpCounter_Get_TemporaryValue
C:\Users\WALTON\AppData\Local\Temp/cc3hF44B.s:4326   .text:00001558 Timebase_UpCounter_Set_TemporaryValue
C:\Users\WALTON\AppData\Local\Temp/cc3hF44B.s:4378   .text:000015a0 Timebase_UpCounter_Get_PeriodValue
C:\Users\WALTON\AppData\Local\Temp/cc3hF44B.s:4416   .text:000015d0 Timebase_UpCounter_Set_PeriodValue
C:\Users\WALTON\AppData\Local\Temp/cc3hF44B.s:4453   .text:00001600 Timebase_UpCounter_Get_Period_Flag
C:\Users\WALTON\AppData\Local\Temp/cc3hF44B.s:4486   .text:00001628 Timebase_UpCounter_Set_Period_Flag
C:\Users\WALTON\AppData\Local\Temp/cc3hF44B.s:4520   .text:00001652 Timebase_UpCounter_Clear_Period_Flag
C:\Users\WALTON\AppData\Local\Temp/cc3hF44B.s:4554   .text:0000167c Timebase_UpCounter_Get_ReloadValue
C:\Users\WALTON\AppData\Local\Temp/cc3hF44B.s:4592   .text:000016ac Timebase_UpCounter_Set_ReloadValue
C:\Users\WALTON\AppData\Local\Temp/cc3hF44B.s:4629   .text:000016dc Timebase_UpCounter_Reset
C:\Users\WALTON\AppData\Local\Temp/cc3hF44B.s:4736   .text:0000174c Timebase_UpCounter_Clear_All_Flags
C:\Users\WALTON\AppData\Local\Temp/cc3hF44B.s:4752   .text:00001752 Timebase_UpCounter_Start
C:\Users\WALTON\AppData\Local\Temp/cc3hF44B.s:4800   .text:00001788 Timebase_UpCounter_Stop
C:\Users\WALTON\AppData\Local\Temp/cc3hF44B.s:4848   .text:000017be Timebase_UpCounter_Set_Securely
C:\Users\WALTON\AppData\Local\Temp/cc3hF44B.s:4974   .text:00001846 Timebase_UpCounter_Set_Forcefully
C:\Users\WALTON\AppData\Local\Temp/cc3hF44B.s:5040   .text:000018a2 Timebase_UpCounter_Update
C:\Users\WALTON\AppData\Local\Temp/cc3hF44B.s:5340   .text:00001a32 Timebase_UpCounter_Expired
C:\Users\WALTON\AppData\Local\Temp/cc3hF44B.s:5380   .text:00001a66 Timebase_UpCounter_Expired_Event
C:\Users\WALTON\AppData\Local\Temp/cc3hF44B.s:5429   .text:00001aa4 Timebase_UpCounter_Oneshot_Expired_Event
C:\Users\WALTON\AppData\Local\Temp/cc3hF44B.s:5445   .text:00001aaa Timebase_UpCounter_Continuous_Expired_Event
C:\Users\WALTON\AppData\Local\Temp/cc3hF44B.s:5530   .text:00001b12 Timebase_UpCounter_Set_Period_Value_Securely
C:\Users\WALTON\AppData\Local\Temp/cc3hF44B.s:5605   .text:00001b70 Timebase_UpCounter_Get_Remaining_Period_Value
C:\Users\WALTON\AppData\Local\Temp/cc3hF44B.s:5669   .text:00001bc8 Timebase_UpCounter_Period_Value_Expired
C:\Users\WALTON\AppData\Local\Temp/cc3hF44B.s:5767   .text:00001c50 Timebase_UpCounter_Period_Value_Expired_Event
C:\Users\WALTON\AppData\Local\Temp/cc3hF44B.s:5819   .text:00001c90 Timebase_UpCounter_Update_All
C:\Users\WALTON\AppData\Local\Temp/cc3hF44B.s:5836   .text:00001c98 Timebase_UpCounter_Reset_All
C:\Users\WALTON\AppData\Local\Temp/cc3hF44B.s:5853   .text:00001ca0 Timebase_DownCounter_SS_Get_Status
C:\Users\WALTON\AppData\Local\Temp/cc3hF44B.s:5889   .text:00001cce Timebase_DownCounter_SS_Set_Status
C:\Users\WALTON\AppData\Local\Temp/cc3hF44B.s:5929   .text:00001d02 Timebase_DownCounter_SS_Get_Value
C:\Users\WALTON\AppData\Local\Temp/cc3hF44B.s:5967   .text:00001d32 Timebase_DownCounter_SS_Set_Value
C:\Users\WALTON\AppData\Local\Temp/cc3hF44B.s:6004   .text:00001d62 Timebase_DownCounter_SS_Get_EndValueSec
C:\Users\WALTON\AppData\Local\Temp/cc3hF44B.s:6042   .text:00001d92 Timebase_DownCounter_SS_Get_EndValueSubSec
C:\Users\WALTON\AppData\Local\Temp/cc3hF44B.s:6080   .text:00001dc2 Timebase_DownCounter_SS_Set_EndValueSec
C:\Users\WALTON\AppData\Local\Temp/cc3hF44B.s:6117   .text:00001df2 Timebase_DownCounter_SS_Set_EndValueSubSec
C:\Users\WALTON\AppData\Local\Temp/cc3hF44B.s:6154   .text:00001e22 Timebase_DownCounter_SS_Get_PeriodValue
C:\Users\WALTON\AppData\Local\Temp/cc3hF44B.s:6192   .text:00001e52 Timebase_DownCounter_SS_Set_PeriodValue
C:\Users\WALTON\AppData\Local\Temp/cc3hF44B.s:6254   .text:00001eae Timebase_DownCounter_SS_Get_Period_Flag
C:\Users\WALTON\AppData\Local\Temp/cc3hF44B.s:6289   .text:00001eda Timebase_DownCounter_SS_Set_Period_Flag
C:\Users\WALTON\AppData\Local\Temp/cc3hF44B.s:6325   .text:00001f08 Timebase_DownCounter_SS_Clear_Period_Flag
C:\Users\WALTON\AppData\Local\Temp/cc3hF44B.s:6361   .text:00001f36 Timebase_DownCounter_SS_Get_ReloadValue
C:\Users\WALTON\AppData\Local\Temp/cc3hF44B.s:6399   .text:00001f66 Timebase_DownCounter_SS_Set_ReloadValue
C:\Users\WALTON\AppData\Local\Temp/cc3hF44B.s:6436   .text:00001f96 Timebase_DownCounter_SS_Reset
C:\Users\WALTON\AppData\Local\Temp/cc3hF44B.s:6524   .text:00001ff4 Timebase_DownCounter_SS_Clear_All_Flags
C:\Users\WALTON\AppData\Local\Temp/cc3hF44B.s:6616   .text:00002052 Timebase_DownCounter_SS_Start
C:\Users\WALTON\AppData\Local\Temp/cc3hF44B.s:6666   .text:0000208c Timebase_DownCounter_SS_Stop
C:\Users\WALTON\AppData\Local\Temp/cc3hF44B.s:6716   .text:000020c6 Timebase_DownCounter_SS_Set_Securely
C:\Users\WALTON\AppData\Local\Temp/cc3hF44B.s:7000   .text:0000226a Timebase_DownCounter_SS_Set_Forcefully
C:\Users\WALTON\AppData\Local\Temp/cc3hF44B.s:7127   .text:00002304 Timebase_DownCounter_SS_Update
C:\Users\WALTON\AppData\Local\Temp/cc3hF44B.s:7439   .text:0000249a Timebase_DownCounter_SS_Expired
C:\Users\WALTON\AppData\Local\Temp/cc3hF44B.s:7481   .text:000024d2 Timebase_DownCounter_SS_Expired_Event
C:\Users\WALTON\AppData\Local\Temp/cc3hF44B.s:7588   .text:0000253a Timebase_DownCounter_SS_Oneshot_Expired_Event
C:\Users\WALTON\AppData\Local\Temp/cc3hF44B.s:7604   .text:00002540 Timebase_DownCounter_SS_Continuous_Expired_Event
C:\Users\WALTON\AppData\Local\Temp/cc3hF44B.s:7742   .text:000025ce Timebase_DownCounter_SS_Set_Period_Value_Securely
C:\Users\WALTON\AppData\Local\Temp/cc3hF44B.s:7841   .text:00002652 Timebase_DownCounter_SS_Get_Remaining_Period_Value
C:\Users\WALTON\AppData\Local\Temp/cc3hF44B.s:7905   .text:000026aa Timebase_DownCounter_SS_Period_Value_Expired
C:\Users\WALTON\AppData\Local\Temp/cc3hF44B.s:8005   .text:00002736 Timebase_DownCounter_SS_Period_Value_Expired_Event
C:\Users\WALTON\AppData\Local\Temp/cc3hF44B.s:8059   .text:0000277a Timebase_DownCounter_SS_Update_All
C:\Users\WALTON\AppData\Local\Temp/cc3hF44B.s:8076   .text:00002782 Timebase_DownCounter_SS_Reset_All
C:\Users\WALTON\AppData\Local\Temp/cc3hF44B.s:8155   .text:000027c6 Timebase_DownCounter_Get_Status
C:\Users\WALTON\AppData\Local\Temp/cc3hF44B.s:8189   .text:000027f0 Timebase_DownCounter_Set_Status
C:\Users\WALTON\AppData\Local\Temp/cc3hF44B.s:8227   .text:00002820 Timebase_DownCounter_Get_Value
C:\Users\WALTON\AppData\Local\Temp/cc3hF44B.s:8263   .text:0000284c Timebase_DownCounter_Set_Value
C:\Users\WALTON\AppData\Local\Temp/cc3hF44B.s:8297   .text:00002878 Timebase_DownCounter_Get_EndValue
C:\Users\WALTON\AppData\Local\Temp/cc3hF44B.s:8333   .text:000028a4 Timebase_DownCounter_Set_EndValue
C:\Users\WALTON\AppData\Local\Temp/cc3hF44B.s:8367   .text:000028d0 Timebase_DownCounter_Get_PeriodValue
C:\Users\WALTON\AppData\Local\Temp/cc3hF44B.s:8403   .text:000028fc Timebase_DownCounter_Set_PeriodValue
C:\Users\WALTON\AppData\Local\Temp/cc3hF44B.s:8460   .text:00002950 Timebase_DownCounter_Get_Period_Flag
C:\Users\WALTON\AppData\Local\Temp/cc3hF44B.s:8493   .text:00002978 Timebase_DownCounter_Set_Period_Flag
C:\Users\WALTON\AppData\Local\Temp/cc3hF44B.s:8527   .text:000029a2 Timebase_DownCounter_Clear_Period_Flag
C:\Users\WALTON\AppData\Local\Temp/cc3hF44B.s:8561   .text:000029cc Timebase_DownCounter_Get_ReloadValue
C:\Users\WALTON\AppData\Local\Temp/cc3hF44B.s:8597   .text:000029f8 Timebase_DownCounter_Set_ReloadValue
C:\Users\WALTON\AppData\Local\Temp/cc3hF44B.s:8631   .text:00002a24 Timebase_DownCounter_Reset
C:\Users\WALTON\AppData\Local\Temp/cc3hF44B.s:8707   .text:00002a74 Timebase_DownCounter_Clear_All_Flags
C:\Users\WALTON\AppData\Local\Temp/cc3hF44B.s:8787   .text:00002ac4 Timebase_DownCounter_Start
C:\Users\WALTON\AppData\Local\Temp/cc3hF44B.s:8835   .text:00002afa Timebase_DownCounter_Stop
C:\Users\WALTON\AppData\Local\Temp/cc3hF44B.s:8883   .text:00002b30 Timebase_DownCounter_Set_Securely
C:\Users\WALTON\AppData\Local\Temp/cc3hF44B.s:8992   .text:00002baa Timebase_DownCounter_Set_Forcefully
C:\Users\WALTON\AppData\Local\Temp/cc3hF44B.s:9108   .text:00002c38 Timebase_DownCounter_Update
C:\Users\WALTON\AppData\Local\Temp/cc3hF44B.s:9289   .text:00002d14 Timebase_DownCounter_Expired
C:\Users\WALTON\AppData\Local\Temp/cc3hF44B.s:9329   .text:00002d48 Timebase_DownCounter_Expired_Event
C:\Users\WALTON\AppData\Local\Temp/cc3hF44B.s:9424   .text:00002da2 Timebase_DownCounter_Set_Period_Value_Securely
C:\Users\WALTON\AppData\Local\Temp/cc3hF44B.s:9521   .text:00002e22 Timebase_DownCounter_Get_Remaining_Period_Value
C:\Users\WALTON\AppData\Local\Temp/cc3hF44B.s:9583   .text:00002e76 Timebase_DownCounter_Period_Value_Expired
C:\Users\WALTON\AppData\Local\Temp/cc3hF44B.s:9680   .text:00002efc Timebase_DownCounter_Period_Value_Expired_Event
C:\Users\WALTON\AppData\Local\Temp/cc3hF44B.s:9732   .text:00002f3c Timebase_DownCounter_Oneshot_Expired_Event
C:\Users\WALTON\AppData\Local\Temp/cc3hF44B.s:9748   .text:00002f42 Timebase_DownCounter_Continuous_Expired_Event
C:\Users\WALTON\AppData\Local\Temp/cc3hF44B.s:9873   .text:00002fc0 Timebase_DownCounter_Update_All
C:\Users\WALTON\AppData\Local\Temp/cc3hF44B.s:9890   .text:00002fc8 Timebase_DownCounter_Reset_All
C:\Users\WALTON\AppData\Local\Temp/cc3hF44B.s:9959   .text:00003002 Timebase_LPDownCounter_Get_Status
C:\Users\WALTON\AppData\Local\Temp/cc3hF44B.s:9993   .text:0000302c Timebase_LPDownCounter_Set_Status
C:\Users\WALTON\AppData\Local\Temp/cc3hF44B.s:10031  .text:0000305c Timebase_LPDownCounter_Get_Value
C:\Users\WALTON\AppData\Local\Temp/cc3hF44B.s:10067  .text:00003088 Timebase_LPDownCounter_Set_Value
C:\Users\WALTON\AppData\Local\Temp/cc3hF44B.s:10101  .text:000030b4 Timebase_LPDownCounter_Get_EndValue
C:\Users\WALTON\AppData\Local\Temp/cc3hF44B.s:10137  .text:000030e0 Timebase_LPDownCounter_Set_EndValue
C:\Users\WALTON\AppData\Local\Temp/cc3hF44B.s:10171  .text:0000310c Timebase_LPDownCounter_Get_PeriodValue
C:\Users\WALTON\AppData\Local\Temp/cc3hF44B.s:10207  .text:00003138 Timebase_LPDownCounter_Set_PeriodValue
C:\Users\WALTON\AppData\Local\Temp/cc3hF44B.s:10264  .text:0000318c Timebase_LPDownCounter_Get_Period_Flag
C:\Users\WALTON\AppData\Local\Temp/cc3hF44B.s:10297  .text:000031b4 Timebase_LPDownCounter_Set_Period_Flag
C:\Users\WALTON\AppData\Local\Temp/cc3hF44B.s:10331  .text:000031de Timebase_LPDownCounter_Clear_Period_Flag
C:\Users\WALTON\AppData\Local\Temp/cc3hF44B.s:10365  .text:00003208 Timebase_LPDownCounter_Get_ReloadValue
C:\Users\WALTON\AppData\Local\Temp/cc3hF44B.s:10401  .text:00003234 Timebase_LPDownCounter_Set_ReloadValue
C:\Users\WALTON\AppData\Local\Temp/cc3hF44B.s:10435  .text:00003260 Timebase_LPDownCounter_Reset
C:\Users\WALTON\AppData\Local\Temp/cc3hF44B.s:10511  .text:000032b0 Timebase_LPDownCounter_Clear_All_Flags
C:\Users\WALTON\AppData\Local\Temp/cc3hF44B.s:10591  .text:00003300 Timebase_LPDownCounter_Start
C:\Users\WALTON\AppData\Local\Temp/cc3hF44B.s:10639  .text:00003336 Timebase_LPDownCounter_Stop
C:\Users\WALTON\AppData\Local\Temp/cc3hF44B.s:10687  .text:0000336c Timebase_LPDownCounter_Set_Securely
C:\Users\WALTON\AppData\Local\Temp/cc3hF44B.s:10836  .text:00003426 Timebase_LPDownCounter_Set_Forcefully
C:\Users\WALTON\AppData\Local\Temp/cc3hF44B.s:10949  .text:000034b0 Timebase_LPDownCounter_Update
C:\Users\WALTON\AppData\Local\Temp/cc3hF44B.s:11205  .text:000035f2 Timebase_LPDownCounter_Expired
C:\Users\WALTON\AppData\Local\Temp/cc3hF44B.s:11245  .text:00003626 Timebase_LPDownCounter_Expired_Event
C:\Users\WALTON\AppData\Local\Temp/cc3hF44B.s:11340  .text:00003680 Timebase_LPDownCounter_Oneshot_Expired_Event
C:\Users\WALTON\AppData\Local\Temp/cc3hF44B.s:11356  .text:00003686 Timebase_LPDownCounter_Continuous_Expired_Event
C:\Users\WALTON\AppData\Local\Temp/cc3hF44B.s:11481  .text:00003704 Timebase_LPDownCounter_Set_Period_Value_Securely
C:\Users\WALTON\AppData\Local\Temp/cc3hF44B.s:11578  .text:00003784 Timebase_LPDownCounter_Get_Remaining_Period_Value
C:\Users\WALTON\AppData\Local\Temp/cc3hF44B.s:11640  .text:000037d8 Timebase_LPDownCounter_Period_Value_Expired
C:\Users\WALTON\AppData\Local\Temp/cc3hF44B.s:11737  .text:0000385e Timebase_LPDownCounter_Period_Value_Expired_Event
C:\Users\WALTON\AppData\Local\Temp/cc3hF44B.s:11789  .text:0000389e Timebase_LPDownCounter_Update_All
C:\Users\WALTON\AppData\Local\Temp/cc3hF44B.s:11806  .text:000038a6 Timebase_LPDownCounter_Reset_All
C:\Users\WALTON\AppData\Local\Temp/cc3hF44B.s:11875  .text:000038e0 Timebase_Get_Update_Req_Sts
C:\Users\WALTON\AppData\Local\Temp/cc3hF44B.s:11891  .text:000038ec Timebase_Reset
C:\Users\WALTON\AppData\Local\Temp/cc3hF44B.s:11909  .text:000038fa Timebase_LP_Reset
C:\Users\WALTON\AppData\Local\Temp/cc3hF44B.s:11923  .text:00003900 Timebase_Init
C:\Users\WALTON\AppData\Local\Temp/cc3hF44B.s:11960  .text:00003926 Timebase_Main_Loop_Executables
C:\Users\WALTON\AppData\Local\Temp/cc3hF44B.s:12055  .text:000039da Timebase_ISR_Executables
C:\Users\WALTON\AppData\Local\Temp/cc3hF44B.s:12113  .text:00003a2e __vector_16
C:\Users\WALTON\AppData\Local\Temp/cc3hF44B.s:12166  .text:00003a84 Timebase_LP_ISR_Executables
C:\Users\WALTON\AppData\Local\Temp/cc3hF44B.s:12214  .text:00003ac6 __vector_6

UNDEFINED SYMBOLS
__divmodsi4
__mulsi3
__do_copy_data
__do_clear_bss
