   1               		.file	"timebase.c"
   2               	__SREG__ = 0x3f
   3               	__SP_H__ = 0x3e
   4               	__SP_L__ = 0x3d
   5               	__CCP__  = 0x34
   6               	__tmp_reg__ = 0
   7               	__zero_reg__ = 1
  15               	.Ltext0:
  16               	.global	Timebase_Struct_Init
  18               	Timebase_Struct_Init:
  19               	.LFB6:
  20               	.LM1:
  21               	/* prologue: function */
  22               	/* frame size = 0 */
  23               	.LM2:
  24 0000 80E0      		ldi r24,lo8(Timebase_type)
  25 0002 90E0      		ldi r25,hi8(Timebase_type)
  26 0004 9093 0000 		sts (Timebase)+1,r25
  27 0008 8093 0000 		sts Timebase,r24
  28               	.LM3:
  29 000c 1092 0000 		sts Timebase_type,__zero_reg__
  30               	.LM4:
  31 0010 8091 0000 		lds r24,Timebase_type
  32 0014 8460      		ori r24,lo8(4)
  33 0016 8093 0000 		sts Timebase_type,r24
  34               	.LM5:
  35 001a 8091 0000 		lds r24,Timebase_type
  36 001e 8770      		andi r24,lo8(7)
  37 0020 8093 0000 		sts Timebase_type,r24
  38               	.LM6:
  39 0024 81E0      		ldi r24,lo8(1)
  40 0026 90E0      		ldi r25,hi8(1)
  41 0028 9093 0000 		sts (Timebase_type+1)+1,r25
  42 002c 8093 0000 		sts Timebase_type+1,r24
  43               	.LM7:
  44 0030 1092 0000 		sts Timebase_type+3,__zero_reg__
  45               	.LM8:
  46 0034 1092 0000 		sts (Timebase_type+8)+1,__zero_reg__
  47 0038 1092 0000 		sts Timebase_type+8,__zero_reg__
  48               	.LM9:
  49 003c 1092 0000 		sts Timebase_type+10,__zero_reg__
  50 0040 1092 0000 		sts (Timebase_type+10)+1,__zero_reg__
  51 0044 1092 0000 		sts (Timebase_type+10)+2,__zero_reg__
  52 0048 1092 0000 		sts (Timebase_type+10)+3,__zero_reg__
  53               	.LM10:
  54 004c 1092 0000 		sts Timebase_type+4,__zero_reg__
  55 0050 1092 0000 		sts (Timebase_type+4)+1,__zero_reg__
  56 0054 1092 0000 		sts (Timebase_type+4)+2,__zero_reg__
  57 0058 1092 0000 		sts (Timebase_type+4)+3,__zero_reg__
  58               	.LM11:
  59 005c 1092 0000 		sts Timebase_type+14,__zero_reg__
  60 0060 1092 0000 		sts (Timebase_type+14)+1,__zero_reg__
  61 0064 1092 0000 		sts (Timebase_type+14)+2,__zero_reg__
  62 0068 1092 0000 		sts (Timebase_type+14)+3,__zero_reg__
  63               	.LM12:
  64 006c 1092 0000 		sts Timebase_type+18,__zero_reg__
  65 0070 1092 0000 		sts (Timebase_type+18)+1,__zero_reg__
  66 0074 1092 0000 		sts (Timebase_type+18)+2,__zero_reg__
  67 0078 1092 0000 		sts (Timebase_type+18)+3,__zero_reg__
  68               	.LM13:
  69 007c 1092 0000 		sts Timebase_type+22,__zero_reg__
  70               	.LM14:
  71 0080 1092 0000 		sts Timebase_type+23,__zero_reg__
  72               	.LM15:
  73 0084 1092 0000 		sts Timebase_type+24,__zero_reg__
  74 0088 A0E0      		ldi r26,lo8(Timebase_type+111)
  75 008a B0E0      		ldi r27,hi8(Timebase_type+111)
  76 008c 80E0      		ldi r24,lo8(0)
  77 008e 90E0      		ldi r25,hi8(0)
  78               	.LBB373:
  79               	.LM16:
  80 0090 2DE0      		ldi r18,lo8(13)
  81 0092 30E0      		ldi r19,hi8(13)
  82               	.L2:
  83 0094 829F      		mul r24,r18
  84 0096 F001      		movw r30,r0
  85 0098 839F      		mul r24,r19
  86 009a F00D      		add r31,r0
  87 009c 929F      		mul r25,r18
  88 009e F00D      		add r31,r0
  89 00a0 1124      		clr r1
  90 00a2 E050      		subi r30,lo8(-(Timebase_type+110))
  91 00a4 F040      		sbci r31,hi8(-(Timebase_type+110))
  92 00a6 1082      		st Z,__zero_reg__
  93               	.LM17:
  94 00a8 1D92      		st X+,__zero_reg__
  95 00aa 1D92      		st X+,__zero_reg__
  96 00ac 1D92      		st X+,__zero_reg__
  97 00ae 1C92      		st X,__zero_reg__
  98 00b0 1397      		sbiw r26,3
  99               	.LM18:
 100 00b2 1496      		adiw r26,4
 101 00b4 1D92      		st X+,__zero_reg__
 102 00b6 1D92      		st X+,__zero_reg__
 103 00b8 1D92      		st X+,__zero_reg__
 104 00ba 1C92      		st X,__zero_reg__
 105 00bc 1797      		sbiw r26,4+3
 106               	.LM19:
 107 00be 1896      		adiw r26,8
 108 00c0 1D92      		st X+,__zero_reg__
 109 00c2 1D92      		st X+,__zero_reg__
 110 00c4 1D92      		st X+,__zero_reg__
 111 00c6 1C92      		st X,__zero_reg__
 112 00c8 1B97      		sbiw r26,8+3
 113 00ca 0196      		adiw r24,1
 114 00cc 1D96      		adiw r26,13
 115               	.LM20:
 116 00ce 8530      		cpi r24,5
 117 00d0 9105      		cpc r25,__zero_reg__
 118 00d2 01F4      		brne .L2
 119 00d4 A0E0      		ldi r26,lo8(Timebase_type+26)
 120 00d6 B0E0      		ldi r27,hi8(Timebase_type+26)
 121 00d8 80E0      		ldi r24,lo8(0)
 122 00da 90E0      		ldi r25,hi8(0)
 123               	.L3:
 124               	.LBE373:
 125               	.LBB374:
 126               	.LM21:
 127 00dc FC01      		movw r30,r24
 128 00de 24E0      		ldi r18,4
 129 00e0 EE0F      	1:	lsl r30
 130 00e2 FF1F      		rol r31
 131 00e4 2A95      		dec r18
 132 00e6 01F4      		brne 1b
 133 00e8 E80F      		add r30,r24
 134 00ea F91F      		adc r31,r25
 135 00ec E050      		subi r30,lo8(-(Timebase_type))
 136 00ee F040      		sbci r31,hi8(-(Timebase_type))
 137 00f0 118E      		std Z+25,__zero_reg__
 138               	.LM22:
 139 00f2 1D92      		st X+,__zero_reg__
 140 00f4 1D92      		st X+,__zero_reg__
 141 00f6 1D92      		st X+,__zero_reg__
 142 00f8 1C92      		st X,__zero_reg__
 143 00fa 1397      		sbiw r26,3
 144               	.LM23:
 145 00fc 1496      		adiw r26,4
 146 00fe 1D92      		st X+,__zero_reg__
 147 0100 1D92      		st X+,__zero_reg__
 148 0102 1D92      		st X+,__zero_reg__
 149 0104 1C92      		st X,__zero_reg__
 150 0106 1797      		sbiw r26,4+3
 151               	.LM24:
 152 0108 1896      		adiw r26,8
 153 010a 1D92      		st X+,__zero_reg__
 154 010c 1D92      		st X+,__zero_reg__
 155 010e 1D92      		st X+,__zero_reg__
 156 0110 1C92      		st X,__zero_reg__
 157 0112 1B97      		sbiw r26,8+3
 158               	.LM25:
 159 0114 1C96      		adiw r26,12
 160 0116 1D92      		st X+,__zero_reg__
 161 0118 1D92      		st X+,__zero_reg__
 162 011a 1D92      		st X+,__zero_reg__
 163 011c 1C92      		st X,__zero_reg__
 164 011e 1F97      		sbiw r26,12+3
 165 0120 0196      		adiw r24,1
 166 0122 5196      		adiw r26,17
 167               	.LM26:
 168 0124 8530      		cpi r24,5
 169 0126 9105      		cpc r25,__zero_reg__
 170 0128 01F4      		brne .L3
 171               	/* epilogue start */
 172               	.LBE374:
 173               	.LM27:
 174 012a 0895      		ret
 175               	.LFE6:
 177               	.global	Timebase_Timer_Config
 179               	Timebase_Timer_Config:
 180               	.LFB7:
 181               	.LM28:
 182               	.LVL0:
 183 012c 7F92      		push r7
 184 012e 8F92      		push r8
 185 0130 9F92      		push r9
 186 0132 AF92      		push r10
 187 0134 BF92      		push r11
 188 0136 CF92      		push r12
 189 0138 DF92      		push r13
 190 013a EF92      		push r14
 191 013c FF92      		push r15
 192 013e 0F93      		push r16
 193 0140 1F93      		push r17
 194 0142 DF93      		push r29
 195 0144 CF93      		push r28
 196 0146 CDB7      		in r28,__SP_L__
 197 0148 DEB7      		in r29,__SP_H__
 198 014a 2A97      		sbiw r28,10
 199 014c 0FB6      		in __tmp_reg__,__SREG__
 200 014e F894      		cli
 201 0150 DEBF      		out __SP_H__,r29
 202 0152 0FBE      		out __SREG__,__tmp_reg__
 203 0154 CDBF      		out __SP_L__,r28
 204               	/* prologue: function */
 205               	/* frame size = 10 */
 206 0156 8C01      		movw r16,r24
 207               	.LM29:
 208 0158 C090 0000 		lds r12,Timebase
 209 015c D090 0000 		lds r13,(Timebase)+1
 210 0160 F601      		movw r30,r12
 211 0162 8081      		ld r24,Z
 212               	.LVL1:
 213 0164 80FF      		sbrs r24,0
 214 0166 00C0      		rjmp .L8
 215               	.LBB375:
 216               	.LM30:
 217 0168 0130      		cpi r16,1
 218 016a 1105      		cpc r17,__zero_reg__
 219 016c 01F4      		brne .L9
 220 016e 96E0      		ldi r25,lo8(6)
 221               	.LVL2:
 222 0170 00C0      		rjmp .L10
 223               	.LVL3:
 224               	.L9:
 225               	.LM31:
 226 0172 0230      		cpi r16,2
 227 0174 1105      		cpc r17,__zero_reg__
 228 0176 01F4      		brne .L11
 229 0178 95E0      		ldi r25,lo8(5)
 230               	.LVL4:
 231 017a 00C0      		rjmp .L10
 232               	.LVL5:
 233               	.L11:
 234               	.LM32:
 235 017c 0430      		cpi r16,4
 236 017e 1105      		cpc r17,__zero_reg__
 237 0180 01F4      		brne .L12
 238 0182 94E0      		ldi r25,lo8(4)
 239               	.LVL6:
 240 0184 00C0      		rjmp .L10
 241               	.LVL7:
 242               	.L12:
 243               	.LM33:
 244 0186 0830      		cpi r16,8
 245 0188 1105      		cpc r17,__zero_reg__
 246 018a 01F4      		brne .L13
 247 018c 93E0      		ldi r25,lo8(3)
 248               	.LVL8:
 249 018e 00C0      		rjmp .L10
 250               	.LVL9:
 251               	.L13:
 252               	.LM34:
 253 0190 0031      		cpi r16,16
 254 0192 1105      		cpc r17,__zero_reg__
 255 0194 01F4      		brne .L14
 256 0196 92E0      		ldi r25,lo8(2)
 257               	.LVL10:
 258 0198 00C0      		rjmp .L10
 259               	.LVL11:
 260               	.L14:
 261 019a 90E0      		ldi r25,lo8(0)
 262               	.LVL12:
 263 019c 0032      		cpi r16,32
 264 019e 1105      		cpc r17,__zero_reg__
 265 01a0 01F4      		brne .L10
 266 01a2 91E0      		ldi r25,lo8(1)
 267               	.L10:
 268               	.LM35:
 269               	/* #APP */
 270               	 ;  261 "timebase.c" 1
 271 01a4 F894      		cli
 272               	 ;  0 "" 2
 273               	.LM36:
 274               	/* #NOAPP */
 275 01a6 84B7      		in r24,84-32
 276 01a8 877F      		andi r24,lo8(-9)
 277 01aa 84BF      		out 84-32,r24
 278               	.LM37:
 279 01ac 8091 6000 		lds r24,96
 280 01b0 8068      		ori r24,lo8(-128)
 281 01b2 8093 6000 		sts 96,r24
 282               	.LM38:
 283 01b6 8091 6000 		lds r24,96
 284 01ba 8861      		ori r24,lo8(24)
 285 01bc 8093 6000 		sts 96,r24
 286               	.LM39:
 287 01c0 9064      		ori r25,lo8(64)
 288 01c2 9093 6000 		sts 96,r25
 289               	.LM40:
 290               	/* #APP */
 291               	 ;  266 "timebase.c" 1
 292 01c6 7894      		sei
 293               	 ;  0 "" 2
 294               	/* #NOAPP */
 295 01c8 00C0      		rjmp .L16
 296               	.LVL13:
 297               	.L8:
 298               	.LBE375:
 299               	.LM41:
 300 01ca 81FD      		sbrc r24,1
 301 01cc 00C0      		rjmp .L16
 302               	.LM42:
 303 01ce 82FF      		sbrs r24,2
 304 01d0 00C0      		rjmp .L16
 305               	.LBB376:
 306               	.LM43:
 307 01d2 DE01      		movw r26,r28
 308 01d4 1196      		adiw r26,1
 309 01d6 E0E0      		ldi r30,lo8(C.2.1640)
 310 01d8 F0E0      		ldi r31,hi8(C.2.1640)
 311 01da 8AE0      		ldi r24,lo8(10)
 312               	.L17:
 313 01dc 0190      		ld r0,Z+
 314 01de 0D92      		st X+,r0
 315 01e0 8150      		subi r24,lo8(-(-1))
 316 01e2 01F4      		brne .L17
 317               	.LM44:
 318 01e4 9801      		movw r18,r16
 319 01e6 40E0      		ldi r20,lo8(0)
 320 01e8 50E0      		ldi r21,hi8(0)
 321               	.LVL14:
 322 01ea 60E0      		ldi r22,lo8(12000000)
 323 01ec 7BE1      		ldi r23,hi8(12000000)
 324 01ee 87EB      		ldi r24,hlo8(12000000)
 325 01f0 90E0      		ldi r25,hhi8(12000000)
 326 01f2 0E94 0000 		call __divmodsi4
 327 01f6 722E      		mov r7,r18
 328 01f8 832E      		mov r8,r19
 329 01fa 942E      		mov r9,r20
 330               	.LVL15:
 331 01fc E52E      		mov r14,r21
 332 01fe 5E01      		movw r10,r28
 333 0200 0894      		sec
 334 0202 A11C      		adc r10,__zero_reg__
 335 0204 B11C      		adc r11,__zero_reg__
 336 0206 C901      		movw r24,r18
 337 0208 DA01      		movw r26,r20
 338 020a 9C01      		movw r18,r24
 339 020c AD01      		movw r20,r26
 340               	.LVL16:
 341 020e FF24      		clr r15
 342               	.LVL17:
 343 0210 00C0      		rjmp .L18
 344               	.LVL18:
 345               	.L20:
 346               	.LM45:
 347 0212 F501      		movw r30,r10
 348 0214 2191      		ld r18,Z+
 349 0216 3191      		ld r19,Z+
 350               	.LVL19:
 351 0218 5F01      		movw r10,r30
 352 021a 40E0      		ldi r20,lo8(0)
 353 021c 50E0      		ldi r21,hi8(0)
 354 021e 672D      		mov r22,r7
 355 0220 782D      		mov r23,r8
 356 0222 892D      		mov r24,r9
 357               	.LVL20:
 358 0224 9E2D      		mov r25,r14
 359 0226 0E94 0000 		call __divmodsi4
 360 022a C901      		movw r24,r18
 361 022c DA01      		movw r26,r20
 362 022e 9C01      		movw r18,r24
 363 0230 AD01      		movw r20,r26
 364               	.LVL21:
 365               	.LM46:
 366 0232 F394      		inc r15
 367               	.LM47:
 368 0234 F5E0      		ldi r31,lo8(5)
 369 0236 FF16      		cp r15,r31
 370 0238 01F0      		breq .L19
 371               	.LVL22:
 372               	.L18:
 373               	.LM48:
 374 023a 2F3F      		cpi r18,lo8(255)
 375 023c 3105      		cpc r19,__zero_reg__
 376 023e 4105      		cpc r20,__zero_reg__
 377 0240 5105      		cpc r21,__zero_reg__
 378 0242 01F0      		breq .+2
 379 0244 04F4      		brge .L20
 380               	.L19:
 381               	.LM49:
 382 0246 8F2D      		mov r24,r15
 383 0248 8150      		subi r24,lo8(-(-1))
 384               	.LVL23:
 385               	.LM50:
 386 024a 14BC      		out 68-32,__zero_reg__
 387               	.LM51:
 388 024c 15BC      		out 69-32,__zero_reg__
 389               	.LM52:
 390 024e 1092 6E00 		sts 110,__zero_reg__
 391               	.LM53:
 392 0252 15BA      		out 53-32,__zero_reg__
 393               	.LM54:
 394 0254 17BC      		out 71-32,__zero_reg__
 395               	.LM55:
 396 0256 18BC      		out 72-32,__zero_reg__
 397               	.LM56:
 398 0258 16BC      		out 70-32,__zero_reg__
 399               	.LM57:
 400 025a 17BC      		out 71-32,__zero_reg__
 401               	.LM58:
 402 025c 8823      		tst r24
 403 025e 01F4      		brne .L21
 404               	.LM59:
 405 0260 81E0      		ldi r24,lo8(1)
 406               	.LVL24:
 407 0262 00C0      		rjmp .L28
 408               	.LVL25:
 409               	.L21:
 410               	.LM60:
 411 0264 8130      		cpi r24,lo8(1)
 412 0266 01F4      		brne .L23
 413               	.LM61:
 414 0268 82E0      		ldi r24,lo8(2)
 415               	.LVL26:
 416 026a 00C0      		rjmp .L28
 417               	.LVL27:
 418               	.L23:
 419               	.LM62:
 420 026c 8230      		cpi r24,lo8(2)
 421 026e 01F4      		brne .L24
 422               	.LM63:
 423 0270 83E0      		ldi r24,lo8(3)
 424               	.LVL28:
 425 0272 00C0      		rjmp .L28
 426               	.LVL29:
 427               	.L24:
 428               	.LM64:
 429 0274 8330      		cpi r24,lo8(3)
 430 0276 01F4      		brne .L25
 431               	.LM65:
 432 0278 84E0      		ldi r24,lo8(4)
 433               	.LVL30:
 434 027a 00C0      		rjmp .L28
 435               	.LVL31:
 436               	.L25:
 437               	.LM66:
 438 027c 8430      		cpi r24,lo8(4)
 439 027e 01F4      		brne .L22
 440               	.LM67:
 441 0280 85E0      		ldi r24,lo8(5)
 442               	.LVL32:
 443               	.L28:
 444 0282 85BD      		out 69-32,r24
 445               	.LVL33:
 446               	.L22:
 447               	.LM68:
 448 0284 822F      		mov r24,r18
 449               	.LVL34:
 450 0286 8095      		com r24
 451 0288 F601      		movw r30,r12
 452 028a 8383      		std Z+3,r24
 453               	.LM69:
 454 028c 8381      		ldd r24,Z+3
 455 028e 86BD      		out 70-32,r24
 456               	.LM70:
 457 0290 81E0      		ldi r24,lo8(1)
 458 0292 8093 6E00 		sts 110,r24
 459               	.LM71:
 460               	/* #APP */
 461               	 ;  314 "timebase.c" 1
 462 0296 7894      		sei
 463               	 ;  0 "" 2
 464               	.LVL35:
 465               	/* #NOAPP */
 466               	.L16:
 467               	.LBE376:
 468               	.LM72:
 469 0298 F601      		movw r30,r12
 470 029a 1283      		std Z+2,r17
 471 029c 0183      		std Z+1,r16
 472               	/* epilogue start */
 473               	.LM73:
 474 029e 2A96      		adiw r28,10
 475 02a0 0FB6      		in __tmp_reg__,__SREG__
 476 02a2 F894      		cli
 477 02a4 DEBF      		out __SP_H__,r29
 478 02a6 0FBE      		out __SREG__,__tmp_reg__
 479 02a8 CDBF      		out __SP_L__,r28
 480 02aa CF91      		pop r28
 481 02ac DF91      		pop r29
 482 02ae 1F91      		pop r17
 483 02b0 0F91      		pop r16
 484               	.LVL36:
 485 02b2 FF90      		pop r15
 486 02b4 EF90      		pop r14
 487 02b6 DF90      		pop r13
 488 02b8 CF90      		pop r12
 489 02ba BF90      		pop r11
 490 02bc AF90      		pop r10
 491 02be 9F90      		pop r9
 492 02c0 8F90      		pop r8
 493 02c2 7F90      		pop r7
 494 02c4 0895      		ret
 495               	.LFE7:
 497               	.global	Timebase_Atomic_Operation_Start
 499               	Timebase_Atomic_Operation_Start:
 500               	.LFB8:
 501               	.LM74:
 502               	/* prologue: function */
 503               	/* frame size = 0 */
 504               	.LM75:
 505               	/* #APP */
 506               	 ;  334 "timebase.c" 1
 507 02c6 F894      		cli
 508               	 ;  0 "" 2
 509               	/* epilogue start */
 510               	.LM76:
 511               	/* #NOAPP */
 512 02c8 0895      		ret
 513               	.LFE8:
 515               	.global	Timebase_Atomic_Operation_End
 517               	Timebase_Atomic_Operation_End:
 518               	.LFB9:
 519               	.LM77:
 520               	/* prologue: function */
 521               	/* frame size = 0 */
 522               	.LM78:
 523               	/* #APP */
 524               	 ;  338 "timebase.c" 1
 525 02ca 7894      		sei
 526               	 ;  0 "" 2
 527               	/* epilogue start */
 528               	.LM79:
 529               	/* #NOAPP */
 530 02cc 0895      		ret
 531               	.LFE9:
 533               	.global	Timebase_Token_Executing
 535               	Timebase_Token_Executing:
 536               	.LFB10:
 537               	.LM80:
 538               	/* prologue: function */
 539               	/* frame size = 0 */
 540               	.LM81:
 541 02ce E091 0000 		lds r30,Timebase
 542 02d2 F091 0000 		lds r31,(Timebase)+1
 543 02d6 808D      		ldd r24,Z+24
 544               	/* epilogue start */
 545               	.LM82:
 546 02d8 0895      		ret
 547               	.LFE10:
 549               	.global	Timebase_Token_Add
 551               	Timebase_Token_Add:
 552               	.LFB11:
 553               	.LM83:
 554               	/* prologue: function */
 555               	/* frame size = 0 */
 556               	.LBB377:
 557               	.LBB378:
 558               	.LM84:
 559 02da E091 0000 		lds r30,Timebase
 560 02de F091 0000 		lds r31,(Timebase)+1
 561 02e2 808D      		ldd r24,Z+24
 562               	.LBE378:
 563               	.LBE377:
 564               	.LM85:
 565 02e4 8F33      		cpi r24,lo8(63)
 566 02e6 00F4      		brsh .L37
 567               	.LM86:
 568 02e8 808D      		ldd r24,Z+24
 569 02ea 8F5F      		subi r24,lo8(-(1))
 570 02ec 808F      		std Z+24,r24
 571               	.L37:
 572 02ee 0895      		ret
 573               	.LFE11:
 575               	.global	Timebase_Token_Remove
 577               	Timebase_Token_Remove:
 578               	.LFB12:
 579               	.LM87:
 580               	/* prologue: function */
 581               	/* frame size = 0 */
 582               	.LBB379:
 583               	.LBB380:
 584               	.LM88:
 585 02f0 E091 0000 		lds r30,Timebase
 586 02f4 F091 0000 		lds r31,(Timebase)+1
 587 02f8 808D      		ldd r24,Z+24
 588               	.LBE380:
 589               	.LBE379:
 590               	.LM89:
 591 02fa 8823      		tst r24
 592 02fc 01F0      		breq .L40
 593               	.LM90:
 594 02fe 808D      		ldd r24,Z+24
 595 0300 8150      		subi r24,lo8(-(-1))
 596 0302 808F      		std Z+24,r24
 597               	.L40:
 598 0304 0895      		ret
 599               	.LFE12:
 601               	.global	Timebase_Token_Remove_All
 603               	Timebase_Token_Remove_All:
 604               	.LFB13:
 605               	.LM91:
 606               	/* prologue: function */
 607               	/* frame size = 0 */
 608               	.LM92:
 609 0306 E091 0000 		lds r30,Timebase
 610 030a F091 0000 		lds r31,(Timebase)+1
 611 030e 108E      		std Z+24,__zero_reg__
 612               	/* epilogue start */
 613               	.LM93:
 614 0310 0895      		ret
 615               	.LFE13:
 617               	.global	Timebase_Timer_Get_SubSeconds
 619               	Timebase_Timer_Get_SubSeconds:
 620               	.LFB14:
 621               	.LM94:
 622               	/* prologue: function */
 623               	/* frame size = 0 */
 624               	.LM95:
 625 0312 E091 0000 		lds r30,Timebase
 626 0316 F091 0000 		lds r31,(Timebase)+1
 627 031a 2085      		ldd r18,Z+8
 628 031c 3185      		ldd r19,Z+9
 629               	.LM96:
 630 031e C901      		movw r24,r18
 631               	/* epilogue start */
 632 0320 0895      		ret
 633               	.LFE14:
 635               	.global	Timebase_Timer_Get_Seconds
 637               	Timebase_Timer_Get_Seconds:
 638               	.LFB15:
 639               	.LM97:
 640               	/* prologue: function */
 641               	/* frame size = 0 */
 642               	.LM98:
 643 0322 E091 0000 		lds r30,Timebase
 644 0326 F091 0000 		lds r31,(Timebase)+1
 645 032a 2285      		ldd r18,Z+10
 646 032c 3385      		ldd r19,Z+11
 647 032e 4485      		ldd r20,Z+12
 648 0330 5585      		ldd r21,Z+13
 649               	.LM99:
 650 0332 B901      		movw r22,r18
 651 0334 CA01      		movw r24,r20
 652               	/* epilogue start */
 653 0336 0895      		ret
 654               	.LFE15:
 656               	.global	Timebase_Timer_Get_SubSeconds_Atomic
 658               	Timebase_Timer_Get_SubSeconds_Atomic:
 659               	.LFB16:
 660               	.LM100:
 661               	/* prologue: function */
 662               	/* frame size = 0 */
 663               	.LBB381:
 664               	.LBB382:
 665               	.LM101:
 666               	/* #APP */
 667               	 ;  334 "timebase.c" 1
 668 0338 F894      		cli
 669               	 ;  0 "" 2
 670               	/* #NOAPP */
 671               	.LBE382:
 672               	.LBE381:
 673               	.LM102:
 674 033a E091 0000 		lds r30,Timebase
 675 033e F091 0000 		lds r31,(Timebase)+1
 676 0342 2085      		ldd r18,Z+8
 677 0344 3185      		ldd r19,Z+9
 678               	.LVL37:
 679               	.LBB383:
 680               	.LBB384:
 681               	.LM103:
 682               	/* #APP */
 683               	 ;  338 "timebase.c" 1
 684 0346 7894      		sei
 685               	 ;  0 "" 2
 686               	/* #NOAPP */
 687               	.LBE384:
 688               	.LBE383:
 689               	.LM104:
 690 0348 C901      		movw r24,r18
 691               	.LVL38:
 692               	/* epilogue start */
 693 034a 0895      		ret
 694               	.LFE16:
 696               	.global	Timebase_Timer_Get_Seconds_Atomic
 698               	Timebase_Timer_Get_Seconds_Atomic:
 699               	.LFB17:
 700               	.LM105:
 701               	/* prologue: function */
 702               	/* frame size = 0 */
 703               	.LBB385:
 704               	.LBB386:
 705               	.LM106:
 706               	/* #APP */
 707               	 ;  334 "timebase.c" 1
 708 034c F894      		cli
 709               	 ;  0 "" 2
 710               	/* #NOAPP */
 711               	.LBE386:
 712               	.LBE385:
 713               	.LM107:
 714 034e E091 0000 		lds r30,Timebase
 715 0352 F091 0000 		lds r31,(Timebase)+1
 716 0356 2285      		ldd r18,Z+10
 717 0358 3385      		ldd r19,Z+11
 718 035a 4485      		ldd r20,Z+12
 719 035c 5585      		ldd r21,Z+13
 720               	.LVL39:
 721               	.LBB387:
 722               	.LBB388:
 723               	.LM108:
 724               	/* #APP */
 725               	 ;  338 "timebase.c" 1
 726 035e 7894      		sei
 727               	 ;  0 "" 2
 728               	/* #NOAPP */
 729               	.LBE388:
 730               	.LBE387:
 731               	.LM109:
 732 0360 B901      		movw r22,r18
 733               	.LVL40:
 734 0362 CA01      		movw r24,r20
 735               	/* epilogue start */
 736 0364 0895      		ret
 737               	.LFE17:
 739               	.global	Timebase_Timer_Set_SubSeconds
 741               	Timebase_Timer_Set_SubSeconds:
 742               	.LFB18:
 743               	.LM110:
 744               	.LVL41:
 745               	/* prologue: function */
 746               	/* frame size = 0 */
 747               	.LM111:
 748 0366 E091 0000 		lds r30,Timebase
 749 036a F091 0000 		lds r31,(Timebase)+1
 750 036e 9187      		std Z+9,r25
 751 0370 8087      		std Z+8,r24
 752               	/* epilogue start */
 753               	.LM112:
 754 0372 0895      		ret
 755               	.LFE18:
 757               	.global	Timebase_Timer_Set_Seconds
 759               	Timebase_Timer_Set_Seconds:
 760               	.LFB19:
 761               	.LM113:
 762               	.LVL42:
 763               	/* prologue: function */
 764               	/* frame size = 0 */
 765               	.LM114:
 766 0374 E091 0000 		lds r30,Timebase
 767 0378 F091 0000 		lds r31,(Timebase)+1
 768 037c 6287      		std Z+10,r22
 769 037e 7387      		std Z+11,r23
 770 0380 8487      		std Z+12,r24
 771 0382 9587      		std Z+13,r25
 772               	/* epilogue start */
 773               	.LM115:
 774 0384 0895      		ret
 775               	.LFE19:
 777               	.global	Timebase_Timer_Delay_SubSeconds
 779               	Timebase_Timer_Delay_SubSeconds:
 780               	.LFB20:
 781               	.LM116:
 782               	.LVL43:
 783 0386 6F92      		push r6
 784 0388 7F92      		push r7
 785 038a 8F92      		push r8
 786 038c 9F92      		push r9
 787 038e AF92      		push r10
 788 0390 BF92      		push r11
 789 0392 CF92      		push r12
 790 0394 DF92      		push r13
 791 0396 EF92      		push r14
 792 0398 FF92      		push r15
 793 039a 0F93      		push r16
 794 039c 1F93      		push r17
 795 039e CF93      		push r28
 796 03a0 DF93      		push r29
 797               	/* prologue: function */
 798               	/* frame size = 0 */
 799 03a2 5C01      		movw r10,r24
 800               	.LBB389:
 801               	.LBB390:
 802               	.LBB391:
 803               	.LBB392:
 804               	.LM117:
 805               	/* #APP */
 806               	 ;  334 "timebase.c" 1
 807 03a4 F894      		cli
 808               	 ;  0 "" 2
 809               	/* #NOAPP */
 810               	.LBE392:
 811               	.LBE391:
 812               	.LM118:
 813 03a6 C091 0000 		lds r28,Timebase
 814 03aa D091 0000 		lds r29,(Timebase)+1
 815 03ae E884      		ldd r14,Y+8
 816 03b0 F984      		ldd r15,Y+9
 817               	.LVL44:
 818               	.LBB393:
 819               	.LBB394:
 820               	.LM119:
 821               	/* #APP */
 822               	 ;  338 "timebase.c" 1
 823 03b2 7894      		sei
 824               	 ;  0 "" 2
 825               	/* #NOAPP */
 826               	.LBE394:
 827               	.LBE393:
 828               	.LBE390:
 829               	.LBE389:
 830               	.LBB395:
 831               	.LBB396:
 832               	.LBB397:
 833               	.LBB398:
 834               	.LM120:
 835               	/* #APP */
 836               	 ;  334 "timebase.c" 1
 837 03b4 F894      		cli
 838               	 ;  0 "" 2
 839               	/* #NOAPP */
 840               	.LBE398:
 841               	.LBE397:
 842               	.LM121:
 843 03b6 2A85      		ldd r18,Y+10
 844 03b8 3B85      		ldd r19,Y+11
 845 03ba 4C85      		ldd r20,Y+12
 846 03bc 5D85      		ldd r21,Y+13
 847               	.LVL45:
 848               	.LBB399:
 849               	.LBB400:
 850               	.LM122:
 851               	/* #APP */
 852               	 ;  338 "timebase.c" 1
 853 03be 7894      		sei
 854               	 ;  0 "" 2
 855               	/* #NOAPP */
 856               	.LBE400:
 857               	.LBE399:
 858               	.LBE396:
 859               	.LBE395:
 860               	.LM123:
 861 03c0 6981      		ldd r22,Y+1
 862 03c2 7A81      		ldd r23,Y+2
 863 03c4 80E0      		ldi r24,lo8(0)
 864 03c6 90E0      		ldi r25,hi8(0)
 865               	.LVL46:
 866 03c8 0E94 0000 		call __mulsi3
 867               	.LVL47:
 868 03cc 3B01      		movw r6,r22
 869 03ce 4C01      		movw r8,r24
 870               	.LVL48:
 871               	.LM124:
 872 03d0 00E0      		ldi r16,lo8(0)
 873 03d2 10E0      		ldi r17,hi8(0)
 874               	.LVL49:
 875 03d4 6E0C      		add r6,r14
 876 03d6 7F1C      		adc r7,r15
 877 03d8 801E      		adc r8,r16
 878 03da 911E      		adc r9,r17
 879               	.LM125:
 880 03dc CC24      		clr r12
 881 03de DD24      		clr r13
 882               	.LVL50:
 883 03e0 6A0C      		add r6,r10
 884 03e2 7B1C      		adc r7,r11
 885 03e4 8C1C      		adc r8,r12
 886 03e6 9D1C      		adc r9,r13
 887 03e8 60E0      		ldi r22,lo8(0)
 888 03ea 70E0      		ldi r23,hi8(0)
 889 03ec 80E0      		ldi r24,hlo8(0)
 890 03ee 90E0      		ldi r25,hhi8(0)
 891               	.LVL51:
 892 03f0 00C0      		rjmp .L56
 893               	.LVL52:
 894               	.L57:
 895               	.LBB401:
 896               	.LBB402:
 897               	.LBB403:
 898               	.LBB404:
 899               	.LM126:
 900               	/* #APP */
 901               	 ;  334 "timebase.c" 1
 902 03f2 F894      		cli
 903               	 ;  0 "" 2
 904               	/* #NOAPP */
 905               	.LBE404:
 906               	.LBE403:
 907               	.LM127:
 908 03f4 E884      		ldd r14,Y+8
 909 03f6 F984      		ldd r15,Y+9
 910               	.LVL53:
 911               	.LBB405:
 912               	.LBB406:
 913               	.LM128:
 914               	/* #APP */
 915               	 ;  338 "timebase.c" 1
 916 03f8 7894      		sei
 917               	 ;  0 "" 2
 918               	/* #NOAPP */
 919               	.LBE406:
 920               	.LBE405:
 921               	.LBE402:
 922               	.LBE401:
 923               	.LBB407:
 924               	.LBB408:
 925               	.LBB409:
 926               	.LBB410:
 927               	.LM129:
 928               	/* #APP */
 929               	 ;  334 "timebase.c" 1
 930 03fa F894      		cli
 931               	 ;  0 "" 2
 932               	/* #NOAPP */
 933               	.LBE410:
 934               	.LBE409:
 935               	.LM130:
 936 03fc 2A85      		ldd r18,Y+10
 937 03fe 3B85      		ldd r19,Y+11
 938 0400 4C85      		ldd r20,Y+12
 939 0402 5D85      		ldd r21,Y+13
 940               	.LVL54:
 941               	.LBB411:
 942               	.LBB412:
 943               	.LM131:
 944               	/* #APP */
 945               	 ;  338 "timebase.c" 1
 946 0404 7894      		sei
 947               	 ;  0 "" 2
 948               	/* #NOAPP */
 949               	.LBE412:
 950               	.LBE411:
 951               	.LBE408:
 952               	.LBE407:
 953               	.LM132:
 954 0406 6981      		ldd r22,Y+1
 955 0408 7A81      		ldd r23,Y+2
 956               	.LVL55:
 957 040a 80E0      		ldi r24,lo8(0)
 958 040c 90E0      		ldi r25,hi8(0)
 959 040e 0E94 0000 		call __mulsi3
 960               	.LVL56:
 961               	.LM133:
 962 0412 00E0      		ldi r16,lo8(0)
 963 0414 10E0      		ldi r17,hi8(0)
 964               	.LVL57:
 965 0416 6E0D      		add r22,r14
 966 0418 7F1D      		adc r23,r15
 967 041a 801F      		adc r24,r16
 968 041c 911F      		adc r25,r17
 969               	.LVL58:
 970               	.L56:
 971               	.LM134:
 972 041e 6615      		cp r22,r6
 973 0420 7705      		cpc r23,r7
 974 0422 8805      		cpc r24,r8
 975 0424 9905      		cpc r25,r9
 976 0426 04F0      		brlt .L57
 977               	/* epilogue start */
 978               	.LM135:
 979 0428 DF91      		pop r29
 980 042a CF91      		pop r28
 981 042c 1F91      		pop r17
 982 042e 0F91      		pop r16
 983               	.LVL59:
 984 0430 FF90      		pop r15
 985 0432 EF90      		pop r14
 986               	.LVL60:
 987 0434 DF90      		pop r13
 988 0436 CF90      		pop r12
 989               	.LVL61:
 990 0438 BF90      		pop r11
 991 043a AF90      		pop r10
 992               	.LVL62:
 993 043c 9F90      		pop r9
 994 043e 8F90      		pop r8
 995 0440 7F90      		pop r7
 996 0442 6F90      		pop r6
 997               	.LVL63:
 998 0444 0895      		ret
 999               	.LFE20:
 1001               	.global	Timebase_Timer_Await_SubSeconds
 1003               	Timebase_Timer_Await_SubSeconds:
 1004               	.LFB21:
 1005               	.LM136:
 1006               	.LVL64:
 1007               	/* prologue: function */
 1008               	/* frame size = 0 */
 1009 0446 BC01      		movw r22,r24
 1010               	.LBB413:
 1011               	.LBB414:
 1012               	.LM137:
 1013 0448 E091 0000 		lds r30,Timebase
 1014 044c F091 0000 		lds r31,(Timebase)+1
 1015               	.LVL65:
 1016               	.L60:
 1017               	.LBB415:
 1018               	.LBB416:
 1019               	.LM138:
 1020               	/* #APP */
 1021               	 ;  334 "timebase.c" 1
 1022 0450 F894      		cli
 1023               	 ;  0 "" 2
 1024               	/* #NOAPP */
 1025               	.LBE416:
 1026               	.LBE415:
 1027               	.LM139:
 1028 0452 8085      		ldd r24,Z+8
 1029 0454 9185      		ldd r25,Z+9
 1030               	.LVL66:
 1031               	.LBB417:
 1032               	.LBB418:
 1033               	.LM140:
 1034               	/* #APP */
 1035               	 ;  338 "timebase.c" 1
 1036 0456 7894      		sei
 1037               	 ;  0 "" 2
 1038               	/* #NOAPP */
 1039               	.LBE418:
 1040               	.LBE417:
 1041               	.LBE414:
 1042               	.LBE413:
 1043               	.LM141:
 1044 0458 2481      		ldd r18,Z+4
 1045 045a 3581      		ldd r19,Z+5
 1046 045c 4681      		ldd r20,Z+6
 1047 045e 5781      		ldd r21,Z+7
 1048 0460 A0E0      		ldi r26,lo8(0)
 1049 0462 B0E0      		ldi r27,hi8(0)
 1050               	.LVL67:
 1051 0464 8217      		cp r24,r18
 1052 0466 9307      		cpc r25,r19
 1053 0468 A407      		cpc r26,r20
 1054 046a B507      		cpc r27,r21
 1055 046c 01F4      		brne .L60
 1056               	.LBB419:
 1057               	.LBB420:
 1058               	.LBB421:
 1059               	.LBB422:
 1060               	.LM142:
 1061               	/* #APP */
 1062               	 ;  334 "timebase.c" 1
 1063 046e F894      		cli
 1064               	 ;  0 "" 2
 1065               	/* #NOAPP */
 1066               	.LBE422:
 1067               	.LBE421:
 1068               	.LM143:
 1069 0470 8085      		ldd r24,Z+8
 1070 0472 9185      		ldd r25,Z+9
 1071               	.LVL68:
 1072               	.LBB423:
 1073               	.LBB424:
 1074               	.LM144:
 1075               	/* #APP */
 1076               	 ;  338 "timebase.c" 1
 1077 0474 7894      		sei
 1078               	 ;  0 "" 2
 1079               	/* #NOAPP */
 1080               	.LBE424:
 1081               	.LBE423:
 1082               	.LBE420:
 1083               	.LBE419:
 1084               	.LM145:
 1085 0476 860F      		add r24,r22
 1086 0478 971F      		adc r25,r23
 1087 047a A0E0      		ldi r26,lo8(0)
 1088 047c B0E0      		ldi r27,hi8(0)
 1089               	.LVL69:
 1090 047e 8483      		std Z+4,r24
 1091 0480 9583      		std Z+5,r25
 1092 0482 A683      		std Z+6,r26
 1093 0484 B783      		std Z+7,r27
 1094               	.LVL70:
 1095               	.LM146:
 1096 0486 2481      		ldd r18,Z+4
 1097 0488 3581      		ldd r19,Z+5
 1098 048a 4681      		ldd r20,Z+6
 1099 048c 5781      		ldd r21,Z+7
 1100 048e 8181      		ldd r24,Z+1
 1101 0490 9281      		ldd r25,Z+2
 1102 0492 A0E0      		ldi r26,lo8(0)
 1103 0494 B0E0      		ldi r27,hi8(0)
 1104 0496 2817      		cp r18,r24
 1105 0498 3907      		cpc r19,r25
 1106 049a 4A07      		cpc r20,r26
 1107 049c 5B07      		cpc r21,r27
 1108 049e 04F0      		brlt .L62
 1109               	.LM147:
 1110 04a0 2481      		ldd r18,Z+4
 1111 04a2 3581      		ldd r19,Z+5
 1112 04a4 4681      		ldd r20,Z+6
 1113 04a6 5781      		ldd r21,Z+7
 1114 04a8 8181      		ldd r24,Z+1
 1115 04aa 9281      		ldd r25,Z+2
 1116 04ac A0E0      		ldi r26,lo8(0)
 1117 04ae B0E0      		ldi r27,hi8(0)
 1118 04b0 281B      		sub r18,r24
 1119 04b2 390B      		sbc r19,r25
 1120 04b4 4A0B      		sbc r20,r26
 1121 04b6 5B0B      		sbc r21,r27
 1122 04b8 2483      		std Z+4,r18
 1123 04ba 3583      		std Z+5,r19
 1124 04bc 4683      		std Z+6,r20
 1125 04be 5783      		std Z+7,r21
 1126               	.L62:
 1127 04c0 0895      		ret
 1128               	.LFE21:
 1130               	.global	Timebase_Timer_Delay_Seconds
 1132               	Timebase_Timer_Delay_Seconds:
 1133               	.LFB22:
 1134               	.LM148:
 1135               	.LVL71:
 1136               	/* prologue: function */
 1137               	/* frame size = 0 */
 1138               	.LBB425:
 1139               	.LBB426:
 1140               	.LBB427:
 1141               	.LBB428:
 1142               	.LM149:
 1143               	/* #APP */
 1144               	 ;  334 "timebase.c" 1
 1145 04c2 F894      		cli
 1146               	 ;  0 "" 2
 1147               	/* #NOAPP */
 1148               	.LBE428:
 1149               	.LBE427:
 1150               	.LM150:
 1151 04c4 E091 0000 		lds r30,Timebase
 1152 04c8 F091 0000 		lds r31,(Timebase)+1
 1153 04cc 2285      		ldd r18,Z+10
 1154 04ce 3385      		ldd r19,Z+11
 1155 04d0 4485      		ldd r20,Z+12
 1156 04d2 5585      		ldd r21,Z+13
 1157               	.LVL72:
 1158               	.LBB429:
 1159               	.LBB430:
 1160               	.LM151:
 1161               	/* #APP */
 1162               	 ;  338 "timebase.c" 1
 1163 04d4 7894      		sei
 1164               	 ;  0 "" 2
 1165               	/* #NOAPP */
 1166               	.LBE430:
 1167               	.LBE429:
 1168               	.LBE426:
 1169               	.LBE425:
 1170               	.LM152:
 1171 04d6 A0E0      		ldi r26,lo8(0)
 1172 04d8 B0E0      		ldi r27,hi8(0)
 1173               	.LVL73:
 1174 04da 820F      		add r24,r18
 1175 04dc 931F      		adc r25,r19
 1176 04de A41F      		adc r26,r20
 1177 04e0 B51F      		adc r27,r21
 1178               	.LVL74:
 1179 04e2 20E0      		ldi r18,lo8(0)
 1180 04e4 30E0      		ldi r19,hi8(0)
 1181 04e6 40E0      		ldi r20,hlo8(0)
 1182 04e8 50E0      		ldi r21,hhi8(0)
 1183               	.LVL75:
 1184 04ea 00C0      		rjmp .L65
 1185               	.L66:
 1186               	.LBB431:
 1187               	.LBB432:
 1188               	.LBB433:
 1189               	.LBB434:
 1190               	.LM153:
 1191               	/* #APP */
 1192               	 ;  334 "timebase.c" 1
 1193 04ec F894      		cli
 1194               	 ;  0 "" 2
 1195               	/* #NOAPP */
 1196               	.LBE434:
 1197               	.LBE433:
 1198               	.LM154:
 1199 04ee 2285      		ldd r18,Z+10
 1200 04f0 3385      		ldd r19,Z+11
 1201 04f2 4485      		ldd r20,Z+12
 1202 04f4 5585      		ldd r21,Z+13
 1203               	.LBB435:
 1204               	.LBB436:
 1205               	.LM155:
 1206               	/* #APP */
 1207               	 ;  338 "timebase.c" 1
 1208 04f6 7894      		sei
 1209               	 ;  0 "" 2
 1210               	/* #NOAPP */
 1211               	.L65:
 1212               	.LBE436:
 1213               	.LBE435:
 1214               	.LBE432:
 1215               	.LBE431:
 1216               	.LM156:
 1217 04f8 2817      		cp r18,r24
 1218 04fa 3907      		cpc r19,r25
 1219 04fc 4A07      		cpc r20,r26
 1220 04fe 5B07      		cpc r21,r27
 1221 0500 04F0      		brlt .L66
 1222               	/* epilogue start */
 1223               	.LM157:
 1224 0502 0895      		ret
 1225               	.LFE22:
 1227               	.global	Timebase_Window_Timer_Reset
 1229               	Timebase_Window_Timer_Reset:
 1230               	.LFB23:
 1231               	.LM158:
 1232               	/* prologue: function */
 1233               	/* frame size = 0 */
 1234               	.LM159:
 1235 0504 E091 0000 		lds r30,Timebase
 1236 0508 F091 0000 		lds r31,(Timebase)+1
 1237 050c 1686      		std Z+14,__zero_reg__
 1238 050e 1786      		std Z+15,__zero_reg__
 1239 0510 108A      		std Z+16,__zero_reg__
 1240 0512 118A      		std Z+17,__zero_reg__
 1241               	.LM160:
 1242 0514 128A      		std Z+18,__zero_reg__
 1243 0516 138A      		std Z+19,__zero_reg__
 1244 0518 148A      		std Z+20,__zero_reg__
 1245 051a 158A      		std Z+21,__zero_reg__
 1246               	.LM161:
 1247 051c 168A      		std Z+22,__zero_reg__
 1248               	/* epilogue start */
 1249               	.LM162:
 1250 051e 0895      		ret
 1251               	.LFE23:
 1253               	.global	Timebase_Window_Timer_Start
 1255               	Timebase_Window_Timer_Start:
 1256               	.LFB24:
 1257               	.LM163:
 1258               	/* prologue: function */
 1259               	/* frame size = 0 */
 1260               	.LM164:
 1261 0520 E091 0000 		lds r30,Timebase
 1262 0524 F091 0000 		lds r31,(Timebase)+1
 1263 0528 8689      		ldd r24,Z+22
 1264 052a 8823      		tst r24
 1265 052c 01F4      		brne .L72
 1266               	.LBB437:
 1267               	.LBB438:
 1268               	.LBB439:
 1269               	.LBB440:
 1270               	.LM165:
 1271               	/* #APP */
 1272               	 ;  334 "timebase.c" 1
 1273 052e F894      		cli
 1274               	 ;  0 "" 2
 1275               	/* #NOAPP */
 1276               	.LBE440:
 1277               	.LBE439:
 1278               	.LM166:
 1279 0530 8285      		ldd r24,Z+10
 1280 0532 9385      		ldd r25,Z+11
 1281 0534 A485      		ldd r26,Z+12
 1282 0536 B585      		ldd r27,Z+13
 1283               	.LVL76:
 1284               	.LBB441:
 1285               	.LBB442:
 1286               	.LM167:
 1287               	/* #APP */
 1288               	 ;  338 "timebase.c" 1
 1289 0538 7894      		sei
 1290               	 ;  0 "" 2
 1291               	/* #NOAPP */
 1292               	.LBE442:
 1293               	.LBE441:
 1294               	.LBE438:
 1295               	.LBE437:
 1296               	.LM168:
 1297 053a 8687      		std Z+14,r24
 1298 053c 9787      		std Z+15,r25
 1299 053e A08B      		std Z+16,r26
 1300 0540 B18B      		std Z+17,r27
 1301               	.LBB443:
 1302               	.LBB444:
 1303               	.LBB445:
 1304               	.LBB446:
 1305               	.LM169:
 1306               	/* #APP */
 1307               	 ;  334 "timebase.c" 1
 1308 0542 F894      		cli
 1309               	 ;  0 "" 2
 1310               	/* #NOAPP */
 1311               	.LBE446:
 1312               	.LBE445:
 1313               	.LM170:
 1314 0544 8085      		ldd r24,Z+8
 1315 0546 9185      		ldd r25,Z+9
 1316               	.LVL77:
 1317               	.LBB447:
 1318               	.LBB448:
 1319               	.LM171:
 1320               	/* #APP */
 1321               	 ;  338 "timebase.c" 1
 1322 0548 7894      		sei
 1323               	 ;  0 "" 2
 1324               	/* #NOAPP */
 1325               	.LBE448:
 1326               	.LBE447:
 1327               	.LBE444:
 1328               	.LBE443:
 1329               	.LM172:
 1330 054a A0E0      		ldi r26,lo8(0)
 1331 054c B0E0      		ldi r27,hi8(0)
 1332               	.LVL78:
 1333 054e 828B      		std Z+18,r24
 1334 0550 938B      		std Z+19,r25
 1335 0552 A48B      		std Z+20,r26
 1336 0554 B58B      		std Z+21,r27
 1337               	.LM173:
 1338 0556 81E0      		ldi r24,lo8(1)
 1339               	.LVL79:
 1340 0558 868B      		std Z+22,r24
 1341               	.L72:
 1342 055a 0895      		ret
 1343               	.LFE24:
 1345               	.global	Timebase_Window_Timer_Get_Interval
 1347               	Timebase_Window_Timer_Get_Interval:
 1348               	.LFB25:
 1349               	.LM174:
 1350 055c EF92      		push r14
 1351 055e FF92      		push r15
 1352 0560 0F93      		push r16
 1353 0562 1F93      		push r17
 1354 0564 CF93      		push r28
 1355 0566 DF93      		push r29
 1356               	/* prologue: function */
 1357               	/* frame size = 0 */
 1358               	.LM175:
 1359 0568 C091 0000 		lds r28,Timebase
 1360 056c D091 0000 		lds r29,(Timebase)+1
 1361 0570 8E89      		ldd r24,Y+22
 1362 0572 8130      		cpi r24,lo8(1)
 1363 0574 01F0      		breq .L74
 1364 0576 EE24      		clr r14
 1365 0578 FF24      		clr r15
 1366 057a 8701      		movw r16,r14
 1367               	.LVL80:
 1368 057c 00C0      		rjmp .L75
 1369               	.LVL81:
 1370               	.L74:
 1371               	.LBB449:
 1372               	.LBB450:
 1373               	.LBB451:
 1374               	.LBB452:
 1375               	.LM176:
 1376               	/* #APP */
 1377               	 ;  334 "timebase.c" 1
 1378 057e F894      		cli
 1379               	 ;  0 "" 2
 1380               	/* #NOAPP */
 1381               	.LBE452:
 1382               	.LBE451:
 1383               	.LM177:
 1384 0580 2A85      		ldd r18,Y+10
 1385 0582 3B85      		ldd r19,Y+11
 1386 0584 4C85      		ldd r20,Y+12
 1387 0586 5D85      		ldd r21,Y+13
 1388               	.LVL82:
 1389               	.LBB453:
 1390               	.LBB454:
 1391               	.LM178:
 1392               	/* #APP */
 1393               	 ;  338 "timebase.c" 1
 1394 0588 7894      		sei
 1395               	 ;  0 "" 2
 1396               	/* #NOAPP */
 1397               	.LBE454:
 1398               	.LBE453:
 1399               	.LBE450:
 1400               	.LBE449:
 1401               	.LBB455:
 1402               	.LBB456:
 1403               	.LBB457:
 1404               	.LBB458:
 1405               	.LM179:
 1406               	/* #APP */
 1407               	 ;  334 "timebase.c" 1
 1408 058a F894      		cli
 1409               	 ;  0 "" 2
 1410               	/* #NOAPP */
 1411               	.LBE458:
 1412               	.LBE457:
 1413               	.LM180:
 1414 058c 8885      		ldd r24,Y+8
 1415 058e 9985      		ldd r25,Y+9
 1416               	.LVL83:
 1417               	.LBB459:
 1418               	.LBB460:
 1419               	.LM181:
 1420               	/* #APP */
 1421               	 ;  338 "timebase.c" 1
 1422 0590 7894      		sei
 1423               	 ;  0 "" 2
 1424               	/* #NOAPP */
 1425               	.LBE460:
 1426               	.LBE459:
 1427               	.LBE456:
 1428               	.LBE455:
 1429               	.LM182:
 1430 0592 7C01      		movw r14,r24
 1431               	.LVL84:
 1432 0594 00E0      		ldi r16,lo8(0)
 1433 0596 10E0      		ldi r17,hi8(0)
 1434               	.LVL85:
 1435               	.LM183:
 1436 0598 8E85      		ldd r24,Y+14
 1437 059a 9F85      		ldd r25,Y+15
 1438 059c A889      		ldd r26,Y+16
 1439 059e B989      		ldd r27,Y+17
 1440               	.LVL86:
 1441 05a0 281B      		sub r18,r24
 1442 05a2 390B      		sbc r19,r25
 1443 05a4 4A0B      		sbc r20,r26
 1444 05a6 5B0B      		sbc r21,r27
 1445               	.LVL87:
 1446               	.LM184:
 1447 05a8 6981      		ldd r22,Y+1
 1448 05aa 7A81      		ldd r23,Y+2
 1449 05ac 80E0      		ldi r24,lo8(0)
 1450 05ae 90E0      		ldi r25,hi8(0)
 1451 05b0 0E94 0000 		call __mulsi3
 1452               	.LVL88:
 1453               	.LM185:
 1454 05b4 2A89      		ldd r18,Y+18
 1455 05b6 3B89      		ldd r19,Y+19
 1456 05b8 4C89      		ldd r20,Y+20
 1457 05ba 5D89      		ldd r21,Y+21
 1458 05bc E21A      		sub r14,r18
 1459 05be F30A      		sbc r15,r19
 1460 05c0 040B      		sbc r16,r20
 1461 05c2 150B      		sbc r17,r21
 1462               	.LVL89:
 1463 05c4 E60E      		add r14,r22
 1464 05c6 F71E      		adc r15,r23
 1465 05c8 081F      		adc r16,r24
 1466 05ca 191F      		adc r17,r25
 1467               	.L75:
 1468               	.LM186:
 1469 05cc B701      		movw r22,r14
 1470               	.LVL90:
 1471 05ce C801      		movw r24,r16
 1472               	.LVL91:
 1473               	/* epilogue start */
 1474 05d0 DF91      		pop r29
 1475 05d2 CF91      		pop r28
 1476 05d4 1F91      		pop r17
 1477 05d6 0F91      		pop r16
 1478 05d8 FF90      		pop r15
 1479 05da EF90      		pop r14
 1480 05dc 0895      		ret
 1481               	.LFE25:
 1483               	.global	Timebase_Window_Timer_Get_Interval_Reset
 1485               	Timebase_Window_Timer_Get_Interval_Reset:
 1486               	.LFB26:
 1487               	.LM187:
 1488               	/* prologue: function */
 1489               	/* frame size = 0 */
 1490               	.LM188:
 1491 05de 0E94 0000 		call Timebase_Window_Timer_Get_Interval
 1492 05e2 282F      		mov r18,r24
 1493               	.LVL92:
 1494               	.LM189:
 1495 05e4 E091 0000 		lds r30,Timebase
 1496 05e8 F091 0000 		lds r31,(Timebase)+1
 1497 05ec 8689      		ldd r24,Z+22
 1498 05ee 8130      		cpi r24,lo8(1)
 1499 05f0 01F4      		brne .L78
 1500               	.LBB461:
 1501               	.LBB462:
 1502               	.LM190:
 1503 05f2 1686      		std Z+14,__zero_reg__
 1504 05f4 1786      		std Z+15,__zero_reg__
 1505 05f6 108A      		std Z+16,__zero_reg__
 1506 05f8 118A      		std Z+17,__zero_reg__
 1507               	.LM191:
 1508 05fa 128A      		std Z+18,__zero_reg__
 1509 05fc 138A      		std Z+19,__zero_reg__
 1510 05fe 148A      		std Z+20,__zero_reg__
 1511 0600 158A      		std Z+21,__zero_reg__
 1512               	.LM192:
 1513 0602 168A      		std Z+22,__zero_reg__
 1514               	.L78:
 1515               	.LBE462:
 1516               	.LBE461:
 1517               	.LM193:
 1518 0604 822F      		mov r24,r18
 1519               	/* epilogue start */
 1520 0606 0895      		ret
 1521               	.LFE26:
 1523               	.global	Timebase_DownCounter_Get_Status
 1525               	Timebase_DownCounter_Get_Status:
 1526               	.LFB27:
 1527               	.LM194:
 1528               	.LVL93:
 1529               	/* prologue: function */
 1530               	/* frame size = 0 */
 1531               	.LM195:
 1532 0608 E091 0000 		lds r30,Timebase
 1533 060c F091 0000 		lds r31,(Timebase)+1
 1534 0610 90E0      		ldi r25,lo8(0)
 1535               	.LVL94:
 1536 0612 2DE0      		ldi r18,lo8(13)
 1537 0614 30E0      		ldi r19,hi8(13)
 1538 0616 AC01      		movw r20,r24
 1539 0618 429F      		mul r20,r18
 1540 061a C001      		movw r24,r0
 1541 061c 439F      		mul r20,r19
 1542 061e 900D      		add r25,r0
 1543 0620 529F      		mul r21,r18
 1544 0622 900D      		add r25,r0
 1545 0624 1124      		clr r1
 1546               	.LVL95:
 1547 0626 E80F      		add r30,r24
 1548 0628 F91F      		adc r31,r25
 1549 062a E259      		subi r30,lo8(-(110))
 1550 062c FF4F      		sbci r31,hi8(-(110))
 1551 062e 8081      		ld r24,Z
 1552 0630 8695      		lsr r24
 1553               	.LM196:
 1554 0632 8F70      		andi r24,lo8(15)
 1555               	/* epilogue start */
 1556 0634 0895      		ret
 1557               	.LFE27:
 1559               	.global	Timebase_DownCounter_Set_Status
 1561               	Timebase_DownCounter_Set_Status:
 1562               	.LFB28:
 1563               	.LM197:
 1564               	.LVL96:
 1565               	/* prologue: function */
 1566               	/* frame size = 0 */
 1567               	.LM198:
 1568 0636 E091 0000 		lds r30,Timebase
 1569 063a F091 0000 		lds r31,(Timebase)+1
 1570 063e 90E0      		ldi r25,lo8(0)
 1571               	.LVL97:
 1572 0640 2DE0      		ldi r18,lo8(13)
 1573 0642 30E0      		ldi r19,hi8(13)
 1574 0644 AC01      		movw r20,r24
 1575 0646 429F      		mul r20,r18
 1576 0648 C001      		movw r24,r0
 1577 064a 439F      		mul r20,r19
 1578 064c 900D      		add r25,r0
 1579 064e 529F      		mul r21,r18
 1580 0650 900D      		add r25,r0
 1581 0652 1124      		clr r1
 1582               	.LVL98:
 1583 0654 E80F      		add r30,r24
 1584 0656 F91F      		adc r31,r25
 1585 0658 E259      		subi r30,lo8(-(110))
 1586 065a FF4F      		sbci r31,hi8(-(110))
 1587 065c 6F70      		andi r22,lo8(15)
 1588               	.LVL99:
 1589 065e 660F      		lsl r22
 1590 0660 8081      		ld r24,Z
 1591 0662 817E      		andi r24,lo8(-31)
 1592 0664 862B      		or r24,r22
 1593 0666 8083      		st Z,r24
 1594               	/* epilogue start */
 1595               	.LM199:
 1596 0668 0895      		ret
 1597               	.LFE28:
 1599               	.global	Timebase_DownCounter_Get_Value
 1601               	Timebase_DownCounter_Get_Value:
 1602               	.LFB29:
 1603               	.LM200:
 1604               	.LVL100:
 1605               	/* prologue: function */
 1606               	/* frame size = 0 */
 1607               	.LM201:
 1608 066a E091 0000 		lds r30,Timebase
 1609 066e F091 0000 		lds r31,(Timebase)+1
 1610 0672 90E0      		ldi r25,lo8(0)
 1611               	.LVL101:
 1612 0674 2DE0      		ldi r18,lo8(13)
 1613 0676 30E0      		ldi r19,hi8(13)
 1614 0678 AC01      		movw r20,r24
 1615 067a 429F      		mul r20,r18
 1616 067c C001      		movw r24,r0
 1617 067e 439F      		mul r20,r19
 1618 0680 900D      		add r25,r0
 1619 0682 529F      		mul r21,r18
 1620 0684 900D      		add r25,r0
 1621 0686 1124      		clr r1
 1622               	.LVL102:
 1623 0688 E80F      		add r30,r24
 1624 068a F91F      		adc r31,r25
 1625 068c ED58      		subi r30,lo8(-(115))
 1626 068e FF4F      		sbci r31,hi8(-(115))
 1627 0690 6081      		ld r22,Z
 1628 0692 7181      		ldd r23,Z+1
 1629               	.LM202:
 1630 0694 8281      		ldd r24,Z+2
 1631 0696 9381      		ldd r25,Z+3
 1632               	.LVL103:
 1633               	/* epilogue start */
 1634 0698 0895      		ret
 1635               	.LFE29:
 1637               	.global	Timebase_DownCounter_Set_Value
 1639               	Timebase_DownCounter_Set_Value:
 1640               	.LFB30:
 1641               	.LM203:
 1642               	.LVL104:
 1643               	/* prologue: function */
 1644               	/* frame size = 0 */
 1645               	.LM204:
 1646 069a E091 0000 		lds r30,Timebase
 1647 069e F091 0000 		lds r31,(Timebase)+1
 1648 06a2 90E0      		ldi r25,lo8(0)
 1649               	.LVL105:
 1650 06a4 2DE0      		ldi r18,lo8(13)
 1651 06a6 30E0      		ldi r19,hi8(13)
 1652 06a8 DC01      		movw r26,r24
 1653 06aa A29F      		mul r26,r18
 1654 06ac C001      		movw r24,r0
 1655 06ae A39F      		mul r26,r19
 1656 06b0 900D      		add r25,r0
 1657 06b2 B29F      		mul r27,r18
 1658 06b4 900D      		add r25,r0
 1659 06b6 1124      		clr r1
 1660               	.LVL106:
 1661 06b8 E80F      		add r30,r24
 1662 06ba F91F      		adc r31,r25
 1663 06bc ED58      		subi r30,lo8(-(115))
 1664 06be FF4F      		sbci r31,hi8(-(115))
 1665 06c0 4083      		st Z,r20
 1666 06c2 5183      		std Z+1,r21
 1667 06c4 6283      		std Z+2,r22
 1668 06c6 7383      		std Z+3,r23
 1669               	/* epilogue start */
 1670               	.LM205:
 1671 06c8 0895      		ret
 1672               	.LFE30:
 1674               	.global	Timebase_DownCounter_Get_EndValue
 1676               	Timebase_DownCounter_Get_EndValue:
 1677               	.LFB31:
 1678               	.LM206:
 1679               	.LVL107:
 1680               	/* prologue: function */
 1681               	/* frame size = 0 */
 1682               	.LM207:
 1683 06ca E091 0000 		lds r30,Timebase
 1684 06ce F091 0000 		lds r31,(Timebase)+1
 1685 06d2 90E0      		ldi r25,lo8(0)
 1686               	.LVL108:
 1687 06d4 2DE0      		ldi r18,lo8(13)
 1688 06d6 30E0      		ldi r19,hi8(13)
 1689 06d8 AC01      		movw r20,r24
 1690 06da 429F      		mul r20,r18
 1691 06dc C001      		movw r24,r0
 1692 06de 439F      		mul r20,r19
 1693 06e0 900D      		add r25,r0
 1694 06e2 529F      		mul r21,r18
 1695 06e4 900D      		add r25,r0
 1696 06e6 1124      		clr r1
 1697               	.LVL109:
 1698 06e8 E80F      		add r30,r24
 1699 06ea F91F      		adc r31,r25
 1700 06ec E159      		subi r30,lo8(-(111))
 1701 06ee FF4F      		sbci r31,hi8(-(111))
 1702 06f0 6081      		ld r22,Z
 1703 06f2 7181      		ldd r23,Z+1
 1704               	.LM208:
 1705 06f4 8281      		ldd r24,Z+2
 1706 06f6 9381      		ldd r25,Z+3
 1707               	.LVL110:
 1708               	/* epilogue start */
 1709 06f8 0895      		ret
 1710               	.LFE31:
 1712               	.global	Timebase_DownCounter_Set_EndValue
 1714               	Timebase_DownCounter_Set_EndValue:
 1715               	.LFB32:
 1716               	.LM209:
 1717               	.LVL111:
 1718               	/* prologue: function */
 1719               	/* frame size = 0 */
 1720               	.LM210:
 1721 06fa E091 0000 		lds r30,Timebase
 1722 06fe F091 0000 		lds r31,(Timebase)+1
 1723 0702 90E0      		ldi r25,lo8(0)
 1724               	.LVL112:
 1725 0704 2DE0      		ldi r18,lo8(13)
 1726 0706 30E0      		ldi r19,hi8(13)
 1727 0708 DC01      		movw r26,r24
 1728 070a A29F      		mul r26,r18
 1729 070c C001      		movw r24,r0
 1730 070e A39F      		mul r26,r19
 1731 0710 900D      		add r25,r0
 1732 0712 B29F      		mul r27,r18
 1733 0714 900D      		add r25,r0
 1734 0716 1124      		clr r1
 1735               	.LVL113:
 1736 0718 E80F      		add r30,r24
 1737 071a F91F      		adc r31,r25
 1738 071c E159      		subi r30,lo8(-(111))
 1739 071e FF4F      		sbci r31,hi8(-(111))
 1740 0720 4083      		st Z,r20
 1741 0722 5183      		std Z+1,r21
 1742 0724 6283      		std Z+2,r22
 1743 0726 7383      		std Z+3,r23
 1744               	/* epilogue start */
 1745               	.LM211:
 1746 0728 0895      		ret
 1747               	.LFE32:
 1749               	.global	Timebase_DownCounter_Get_PeriodValue
 1751               	Timebase_DownCounter_Get_PeriodValue:
 1752               	.LFB33:
 1753               	.LM212:
 1754               	.LVL114:
 1755               	/* prologue: function */
 1756               	/* frame size = 0 */
 1757               	.LM213:
 1758 072a E091 0000 		lds r30,Timebase
 1759 072e F091 0000 		lds r31,(Timebase)+1
 1760 0732 90E0      		ldi r25,lo8(0)
 1761               	.LVL115:
 1762 0734 2DE0      		ldi r18,lo8(13)
 1763 0736 30E0      		ldi r19,hi8(13)
 1764 0738 AC01      		movw r20,r24
 1765 073a 429F      		mul r20,r18
 1766 073c C001      		movw r24,r0
 1767 073e 439F      		mul r20,r19
 1768 0740 900D      		add r25,r0
 1769 0742 529F      		mul r21,r18
 1770 0744 900D      		add r25,r0
 1771 0746 1124      		clr r1
 1772               	.LVL116:
 1773 0748 E80F      		add r30,r24
 1774 074a F91F      		adc r31,r25
 1775 074c E958      		subi r30,lo8(-(119))
 1776 074e FF4F      		sbci r31,hi8(-(119))
 1777 0750 6081      		ld r22,Z
 1778 0752 7181      		ldd r23,Z+1
 1779               	.LM214:
 1780 0754 8281      		ldd r24,Z+2
 1781 0756 9381      		ldd r25,Z+3
 1782               	.LVL117:
 1783               	/* epilogue start */
 1784 0758 0895      		ret
 1785               	.LFE33:
 1787               	.global	Timebase_DownCounter_Set_PeriodValue
 1789               	Timebase_DownCounter_Set_PeriodValue:
 1790               	.LFB34:
 1791               	.LM215:
 1792               	.LVL118:
 1793               	/* prologue: function */
 1794               	/* frame size = 0 */
 1795 075a E091 0000 		lds r30,Timebase
 1796 075e F091 0000 		lds r31,(Timebase)+1
 1797 0762 282F      		mov r18,r24
 1798 0764 30E0      		ldi r19,lo8(0)
 1799               	.LVL119:
 1800               	.LM216:
 1801 0766 77FF      		sbrs r23,7
 1802 0768 00C0      		rjmp .L95
 1803               	.LVL120:
 1804               	.LM217:
 1805 076a 8DE0      		ldi r24,lo8(13)
 1806 076c 90E0      		ldi r25,hi8(13)
 1807 076e AC01      		movw r20,r24
 1808               	.LVL121:
 1809 0770 249F      		mul r18,r20
 1810 0772 C001      		movw r24,r0
 1811 0774 259F      		mul r18,r21
 1812 0776 900D      		add r25,r0
 1813 0778 349F      		mul r19,r20
 1814 077a 900D      		add r25,r0
 1815 077c 1124      		clr r1
 1816 077e E80F      		add r30,r24
 1817 0780 F91F      		adc r31,r25
 1818 0782 E958      		subi r30,lo8(-(119))
 1819 0784 FF4F      		sbci r31,hi8(-(119))
 1820 0786 1082      		st Z,__zero_reg__
 1821 0788 1182      		std Z+1,__zero_reg__
 1822 078a 1282      		std Z+2,__zero_reg__
 1823 078c 1382      		std Z+3,__zero_reg__
 1824 078e 0895      		ret
 1825               	.LVL122:
 1826               	.L95:
 1827               	.LM218:
 1828 0790 8DE0      		ldi r24,lo8(13)
 1829 0792 90E0      		ldi r25,hi8(13)
 1830 0794 DC01      		movw r26,r24
 1831 0796 2A9F      		mul r18,r26
 1832 0798 C001      		movw r24,r0
 1833 079a 2B9F      		mul r18,r27
 1834 079c 900D      		add r25,r0
 1835 079e 3A9F      		mul r19,r26
 1836 07a0 900D      		add r25,r0
 1837 07a2 1124      		clr r1
 1838 07a4 E80F      		add r30,r24
 1839 07a6 F91F      		adc r31,r25
 1840 07a8 E958      		subi r30,lo8(-(119))
 1841 07aa FF4F      		sbci r31,hi8(-(119))
 1842 07ac 4083      		st Z,r20
 1843 07ae 5183      		std Z+1,r21
 1844 07b0 6283      		std Z+2,r22
 1845 07b2 7383      		std Z+3,r23
 1846 07b4 0895      		ret
 1847               	.LFE34:
 1849               	.global	Timebase_DownCounter_Get_Period_Flag
 1851               	Timebase_DownCounter_Get_Period_Flag:
 1852               	.LFB35:
 1853               	.LM219:
 1854               	.LVL123:
 1855               	/* prologue: function */
 1856               	/* frame size = 0 */
 1857               	.LM220:
 1858 07b6 E091 0000 		lds r30,Timebase
 1859 07ba F091 0000 		lds r31,(Timebase)+1
 1860 07be 90E0      		ldi r25,lo8(0)
 1861               	.LVL124:
 1862 07c0 2DE0      		ldi r18,lo8(13)
 1863 07c2 30E0      		ldi r19,hi8(13)
 1864 07c4 AC01      		movw r20,r24
 1865 07c6 429F      		mul r20,r18
 1866 07c8 C001      		movw r24,r0
 1867 07ca 439F      		mul r20,r19
 1868 07cc 900D      		add r25,r0
 1869 07ce 529F      		mul r21,r18
 1870 07d0 900D      		add r25,r0
 1871 07d2 1124      		clr r1
 1872               	.LVL125:
 1873 07d4 E80F      		add r30,r24
 1874 07d6 F91F      		adc r31,r25
 1875 07d8 E259      		subi r30,lo8(-(110))
 1876 07da FF4F      		sbci r31,hi8(-(110))
 1877 07dc 8081      		ld r24,Z
 1878               	.LM221:
 1879 07de 8170      		andi r24,lo8(1)
 1880               	/* epilogue start */
 1881 07e0 0895      		ret
 1882               	.LFE35:
 1884               	.global	Timebase_DownCounter_Set_Period_Flag
 1886               	Timebase_DownCounter_Set_Period_Flag:
 1887               	.LFB36:
 1888               	.LM222:
 1889               	.LVL126:
 1890               	/* prologue: function */
 1891               	/* frame size = 0 */
 1892               	.LM223:
 1893 07e2 E091 0000 		lds r30,Timebase
 1894 07e6 F091 0000 		lds r31,(Timebase)+1
 1895 07ea 90E0      		ldi r25,lo8(0)
 1896               	.LVL127:
 1897 07ec 2DE0      		ldi r18,lo8(13)
 1898 07ee 30E0      		ldi r19,hi8(13)
 1899 07f0 AC01      		movw r20,r24
 1900 07f2 429F      		mul r20,r18
 1901 07f4 C001      		movw r24,r0
 1902 07f6 439F      		mul r20,r19
 1903 07f8 900D      		add r25,r0
 1904 07fa 529F      		mul r21,r18
 1905 07fc 900D      		add r25,r0
 1906 07fe 1124      		clr r1
 1907               	.LVL128:
 1908 0800 E80F      		add r30,r24
 1909 0802 F91F      		adc r31,r25
 1910 0804 E259      		subi r30,lo8(-(110))
 1911 0806 FF4F      		sbci r31,hi8(-(110))
 1912 0808 8081      		ld r24,Z
 1913 080a 8160      		ori r24,lo8(1)
 1914 080c 8083      		st Z,r24
 1915               	/* epilogue start */
 1916               	.LM224:
 1917 080e 0895      		ret
 1918               	.LFE36:
 1920               	.global	Timebase_DownCounter_Clear_Period_Flag
 1922               	Timebase_DownCounter_Clear_Period_Flag:
 1923               	.LFB37:
 1924               	.LM225:
 1925               	.LVL129:
 1926               	/* prologue: function */
 1927               	/* frame size = 0 */
 1928               	.LM226:
 1929 0810 E091 0000 		lds r30,Timebase
 1930 0814 F091 0000 		lds r31,(Timebase)+1
 1931 0818 90E0      		ldi r25,lo8(0)
 1932               	.LVL130:
 1933 081a 2DE0      		ldi r18,lo8(13)
 1934 081c 30E0      		ldi r19,hi8(13)
 1935 081e AC01      		movw r20,r24
 1936 0820 429F      		mul r20,r18
 1937 0822 C001      		movw r24,r0
 1938 0824 439F      		mul r20,r19
 1939 0826 900D      		add r25,r0
 1940 0828 529F      		mul r21,r18
 1941 082a 900D      		add r25,r0
 1942 082c 1124      		clr r1
 1943               	.LVL131:
 1944 082e E80F      		add r30,r24
 1945 0830 F91F      		adc r31,r25
 1946 0832 E259      		subi r30,lo8(-(110))
 1947 0834 FF4F      		sbci r31,hi8(-(110))
 1948 0836 8081      		ld r24,Z
 1949 0838 8E7F      		andi r24,lo8(-2)
 1950 083a 8083      		st Z,r24
 1951               	/* epilogue start */
 1952               	.LM227:
 1953 083c 0895      		ret
 1954               	.LFE37:
 1956               	.global	Timebase_DownCounter_Reset
 1958               	Timebase_DownCounter_Reset:
 1959               	.LFB38:
 1960               	.LM228:
 1961               	.LVL132:
 1962               	/* prologue: function */
 1963               	/* frame size = 0 */
 1964               	.LBB463:
 1965               	.LBB464:
 1966               	.LM229:
 1967 083e E091 0000 		lds r30,Timebase
 1968 0842 F091 0000 		lds r31,(Timebase)+1
 1969 0846 90E0      		ldi r25,lo8(0)
 1970 0848 2DE0      		ldi r18,lo8(13)
 1971 084a 30E0      		ldi r19,hi8(13)
 1972 084c AC01      		movw r20,r24
 1973               	.LVL133:
 1974 084e 429F      		mul r20,r18
 1975 0850 C001      		movw r24,r0
 1976 0852 439F      		mul r20,r19
 1977 0854 900D      		add r25,r0
 1978 0856 529F      		mul r21,r18
 1979 0858 900D      		add r25,r0
 1980 085a 1124      		clr r1
 1981 085c E80F      		add r30,r24
 1982 085e F91F      		adc r31,r25
 1983 0860 E159      		subi r30,lo8(-(111))
 1984 0862 FF4F      		sbci r31,hi8(-(111))
 1985 0864 1192      		st Z+,__zero_reg__
 1986 0866 1192      		st Z+,__zero_reg__
 1987 0868 1192      		st Z+,__zero_reg__
 1988 086a 1192      		st Z+,__zero_reg__
 1989               	.LBE464:
 1990               	.LBE463:
 1991               	.LBB465:
 1992               	.LBB466:
 1993               	.LM230:
 1994 086c 1082      		st Z,__zero_reg__
 1995 086e 1182      		std Z+1,__zero_reg__
 1996 0870 1282      		std Z+2,__zero_reg__
 1997 0872 1382      		std Z+3,__zero_reg__
 1998               	.LBE466:
 1999               	.LBE465:
 2000               	.LBB467:
 2001               	.LBB468:
 2002               	.LM231:
 2003 0874 3597      		sbiw r30,5
 2004 0876 8081      		ld r24,Z
 2005               	.LBE468:
 2006               	.LBE467:
 2007               	.LBB469:
 2008               	.LBB470:
 2009               	.LM232:
 2010 0878 807E      		andi r24,lo8(-32)
 2011 087a 8083      		st Z,r24
 2012               	/* epilogue start */
 2013               	.LBE470:
 2014               	.LBE469:
 2015               	.LM233:
 2016 087c 0895      		ret
 2017               	.LFE38:
 2019               	.global	Timebase_DownCounter_Clear_All_Flags
 2021               	Timebase_DownCounter_Clear_All_Flags:
 2022               	.LFB39:
 2023               	.LM234:
 2024               	.LVL134:
 2025               	/* prologue: function */
 2026               	/* frame size = 0 */
 2027               	.LBB471:
 2028               	.LBB472:
 2029               	.LBB473:
 2030               	.LBB474:
 2031               	.LM235:
 2032 087e E091 0000 		lds r30,Timebase
 2033 0882 F091 0000 		lds r31,(Timebase)+1
 2034 0886 90E0      		ldi r25,lo8(0)
 2035 0888 2DE0      		ldi r18,lo8(13)
 2036 088a 30E0      		ldi r19,hi8(13)
 2037 088c AC01      		movw r20,r24
 2038               	.LVL135:
 2039 088e 429F      		mul r20,r18
 2040 0890 C001      		movw r24,r0
 2041 0892 439F      		mul r20,r19
 2042 0894 900D      		add r25,r0
 2043 0896 529F      		mul r21,r18
 2044 0898 900D      		add r25,r0
 2045 089a 1124      		clr r1
 2046 089c E80F      		add r30,r24
 2047 089e F91F      		adc r31,r25
 2048 08a0 E159      		subi r30,lo8(-(111))
 2049 08a2 FF4F      		sbci r31,hi8(-(111))
 2050 08a4 1192      		st Z+,__zero_reg__
 2051 08a6 1192      		st Z+,__zero_reg__
 2052 08a8 1192      		st Z+,__zero_reg__
 2053 08aa 1192      		st Z+,__zero_reg__
 2054               	.LBE474:
 2055               	.LBE473:
 2056               	.LBB475:
 2057               	.LBB476:
 2058               	.LM236:
 2059 08ac 1082      		st Z,__zero_reg__
 2060 08ae 1182      		std Z+1,__zero_reg__
 2061 08b0 1282      		std Z+2,__zero_reg__
 2062 08b2 1382      		std Z+3,__zero_reg__
 2063               	.LBE476:
 2064               	.LBE475:
 2065               	.LBB477:
 2066               	.LBB478:
 2067               	.LM237:
 2068 08b4 3597      		sbiw r30,5
 2069 08b6 8081      		ld r24,Z
 2070               	.LBE478:
 2071               	.LBE477:
 2072               	.LBB479:
 2073               	.LBB480:
 2074               	.LM238:
 2075 08b8 807E      		andi r24,lo8(-32)
 2076 08ba 8083      		st Z,r24
 2077               	/* epilogue start */
 2078               	.LBE480:
 2079               	.LBE479:
 2080               	.LBE472:
 2081               	.LBE471:
 2082               	.LM239:
 2083 08bc 0895      		ret
 2084               	.LFE39:
 2086               	.global	Timebase_DownCounter_Start
 2088               	Timebase_DownCounter_Start:
 2089               	.LFB40:
 2090               	.LM240:
 2091               	.LVL136:
 2092               	/* prologue: function */
 2093               	/* frame size = 0 */
 2094               	.LBB481:
 2095               	.LBB482:
 2096               	.LM241:
 2097 08be E091 0000 		lds r30,Timebase
 2098 08c2 F091 0000 		lds r31,(Timebase)+1
 2099 08c6 90E0      		ldi r25,lo8(0)
 2100               	.LBE482:
 2101               	.LBE481:
 2102               	.LM242:
 2103 08c8 2DE0      		ldi r18,lo8(13)
 2104 08ca 30E0      		ldi r19,hi8(13)
 2105 08cc AC01      		movw r20,r24
 2106               	.LVL137:
 2107 08ce 429F      		mul r20,r18
 2108 08d0 C001      		movw r24,r0
 2109 08d2 439F      		mul r20,r19
 2110 08d4 900D      		add r25,r0
 2111 08d6 529F      		mul r21,r18
 2112 08d8 900D      		add r25,r0
 2113 08da 1124      		clr r1
 2114 08dc E80F      		add r30,r24
 2115 08de F91F      		adc r31,r25
 2116 08e0 E259      		subi r30,lo8(-(110))
 2117 08e2 FF4F      		sbci r31,hi8(-(110))
 2118 08e4 9081      		ld r25,Z
 2119 08e6 892F      		mov r24,r25
 2120 08e8 8695      		lsr r24
 2121 08ea 8F70      		andi r24,lo8(15)
 2122 08ec 8130      		cpi r24,lo8(1)
 2123 08ee 01F0      		breq .L110
 2124               	.LBB483:
 2125               	.LBB484:
 2126               	.LM243:
 2127 08f0 917E      		andi r25,lo8(-31)
 2128 08f2 9260      		ori r25,lo8(2)
 2129 08f4 9083      		st Z,r25
 2130               	.L110:
 2131 08f6 0895      		ret
 2132               	.LBE484:
 2133               	.LBE483:
 2134               	.LFE40:
 2136               	.global	Timebase_DownCounter_Stop
 2138               	Timebase_DownCounter_Stop:
 2139               	.LFB41:
 2140               	.LM244:
 2141               	.LVL138:
 2142               	/* prologue: function */
 2143               	/* frame size = 0 */
 2144               	.LBB485:
 2145               	.LBB486:
 2146               	.LM245:
 2147 08f8 E091 0000 		lds r30,Timebase
 2148 08fc F091 0000 		lds r31,(Timebase)+1
 2149 0900 90E0      		ldi r25,lo8(0)
 2150               	.LBE486:
 2151               	.LBE485:
 2152               	.LM246:
 2153 0902 2DE0      		ldi r18,lo8(13)
 2154 0904 30E0      		ldi r19,hi8(13)
 2155 0906 AC01      		movw r20,r24
 2156               	.LVL139:
 2157 0908 429F      		mul r20,r18
 2158 090a C001      		movw r24,r0
 2159 090c 439F      		mul r20,r19
 2160 090e 900D      		add r25,r0
 2161 0910 529F      		mul r21,r18
 2162 0912 900D      		add r25,r0
 2163 0914 1124      		clr r1
 2164 0916 E80F      		add r30,r24
 2165 0918 F91F      		adc r31,r25
 2166 091a E259      		subi r30,lo8(-(110))
 2167 091c FF4F      		sbci r31,hi8(-(110))
 2168 091e 9081      		ld r25,Z
 2169 0920 892F      		mov r24,r25
 2170 0922 8695      		lsr r24
 2171 0924 8F70      		andi r24,lo8(15)
 2172 0926 8230      		cpi r24,lo8(2)
 2173 0928 01F0      		breq .L113
 2174               	.LBB487:
 2175               	.LBB488:
 2176               	.LM247:
 2177 092a 917E      		andi r25,lo8(-31)
 2178 092c 9460      		ori r25,lo8(4)
 2179 092e 9083      		st Z,r25
 2180               	.L113:
 2181 0930 0895      		ret
 2182               	.LBE488:
 2183               	.LBE487:
 2184               	.LFE41:
 2186               	.global	Timebase_DownCounter_Set_Securely
 2188               	Timebase_DownCounter_Set_Securely:
 2189               	.LFB42:
 2190               	.LM248:
 2191               	.LVL140:
 2192 0932 CF93      		push r28
 2193 0934 DF93      		push r29
 2194               	/* prologue: function */
 2195               	/* frame size = 0 */
 2196               	.LBB489:
 2197               	.LBB490:
 2198               	.LM249:
 2199 0936 A091 0000 		lds r26,Timebase
 2200 093a B091 0000 		lds r27,(Timebase)+1
 2201 093e 90E0      		ldi r25,lo8(0)
 2202               	.LBE490:
 2203               	.LBE489:
 2204               	.LM250:
 2205 0940 2DE0      		ldi r18,lo8(13)
 2206 0942 30E0      		ldi r19,hi8(13)
 2207 0944 829F      		mul r24,r18
 2208 0946 F001      		movw r30,r0
 2209 0948 839F      		mul r24,r19
 2210 094a F00D      		add r31,r0
 2211 094c 929F      		mul r25,r18
 2212 094e F00D      		add r31,r0
 2213 0950 1124      		clr r1
 2214               	.LVL141:
 2215 0952 EA0F      		add r30,r26
 2216 0954 FB1F      		adc r31,r27
 2217 0956 EF01      		movw r28,r30
 2218 0958 C259      		subi r28,lo8(-(110))
 2219 095a DF4F      		sbci r29,hi8(-(110))
 2220 095c 8881      		ld r24,Y
 2221 095e 8695      		lsr r24
 2222 0960 8F70      		andi r24,lo8(15)
 2223 0962 01F4      		brne .L116
 2224               	.LBB491:
 2225               	.LBB492:
 2226               	.LM251:
 2227 0964 ED58      		subi r30,lo8(-(115))
 2228 0966 FF4F      		sbci r31,hi8(-(115))
 2229 0968 4083      		st Z,r20
 2230 096a 5183      		std Z+1,r21
 2231 096c 6283      		std Z+2,r22
 2232 096e 7383      		std Z+3,r23
 2233               	.LBE492:
 2234               	.LBE491:
 2235               	.LBB493:
 2236               	.LBB494:
 2237               	.LM252:
 2238 0970 1A96      		adiw r26,10
 2239 0972 8D91      		ld r24,X+
 2240 0974 9D91      		ld r25,X+
 2241 0976 0D90      		ld __tmp_reg__,X+
 2242 0978 BC91      		ld r27,X
 2243 097a A02D      		mov r26,__tmp_reg__
 2244               	.LBE494:
 2245               	.LBE493:
 2246               	.LBB495:
 2247               	.LBB496:
 2248               	.LM253:
 2249 097c 840F      		add r24,r20
 2250 097e 951F      		adc r25,r21
 2251 0980 A61F      		adc r26,r22
 2252 0982 B71F      		adc r27,r23
 2253 0984 B293      		st -Z,r27
 2254 0986 A293      		st -Z,r26
 2255 0988 9293      		st -Z,r25
 2256 098a 8293      		st -Z,r24
 2257               	.LBE496:
 2258               	.LBE495:
 2259               	.LBB497:
 2260               	.LBB498:
 2261               	.LM254:
 2262 098c 9881      		ld r25,Y
 2263 098e 892F      		mov r24,r25
 2264 0990 8695      		lsr r24
 2265 0992 8F70      		andi r24,lo8(15)
 2266 0994 8130      		cpi r24,lo8(1)
 2267 0996 01F0      		breq .L116
 2268               	.LBB499:
 2269               	.LBB500:
 2270               	.LM255:
 2271 0998 917E      		andi r25,lo8(-31)
 2272 099a 9260      		ori r25,lo8(2)
 2273 099c 9883      		st Y,r25
 2274               	.L116:
 2275               	/* epilogue start */
 2276               	.LBE500:
 2277               	.LBE499:
 2278               	.LBE498:
 2279               	.LBE497:
 2280               	.LM256:
 2281 099e DF91      		pop r29
 2282 09a0 CF91      		pop r28
 2283 09a2 0895      		ret
 2284               	.LFE42:
 2286               	.global	Timebase_DownCounter_Set_Forcefully
 2288               	Timebase_DownCounter_Set_Forcefully:
 2289               	.LFB43:
 2290               	.LM257:
 2291               	.LVL142:
 2292 09a4 CF93      		push r28
 2293 09a6 DF93      		push r29
 2294               	/* prologue: function */
 2295               	/* frame size = 0 */
 2296               	.LBB501:
 2297               	.LBB502:
 2298               	.LBB503:
 2299               	.LBB504:
 2300               	.LM258:
 2301 09a8 E091 0000 		lds r30,Timebase
 2302 09ac F091 0000 		lds r31,(Timebase)+1
 2303 09b0 A82F      		mov r26,r24
 2304 09b2 B0E0      		ldi r27,lo8(0)
 2305 09b4 2DE0      		ldi r18,lo8(13)
 2306 09b6 30E0      		ldi r19,hi8(13)
 2307 09b8 E901      		movw r28,r18
 2308 09ba AC9F      		mul r26,r28
 2309 09bc 9001      		movw r18,r0
 2310 09be AD9F      		mul r26,r29
 2311 09c0 300D      		add r19,r0
 2312 09c2 BC9F      		mul r27,r28
 2313 09c4 300D      		add r19,r0
 2314 09c6 1124      		clr r1
 2315 09c8 E20F      		add r30,r18
 2316 09ca F31F      		adc r31,r19
 2317 09cc E159      		subi r30,lo8(-(111))
 2318 09ce FF4F      		sbci r31,hi8(-(111))
 2319 09d0 1192      		st Z+,__zero_reg__
 2320 09d2 1192      		st Z+,__zero_reg__
 2321 09d4 1192      		st Z+,__zero_reg__
 2322 09d6 1192      		st Z+,__zero_reg__
 2323               	.LBE504:
 2324               	.LBE503:
 2325               	.LBB505:
 2326               	.LBB506:
 2327               	.LM259:
 2328 09d8 1082      		st Z,__zero_reg__
 2329 09da 1182      		std Z+1,__zero_reg__
 2330 09dc 1282      		std Z+2,__zero_reg__
 2331 09de 1382      		std Z+3,__zero_reg__
 2332               	.LBE506:
 2333               	.LBE505:
 2334               	.LBB507:
 2335               	.LBB508:
 2336               	.LM260:
 2337 09e0 3597      		sbiw r30,5
 2338 09e2 9081      		ld r25,Z
 2339               	.LBE508:
 2340               	.LBE507:
 2341               	.LBB509:
 2342               	.LBB510:
 2343               	.LM261:
 2344 09e4 907E      		andi r25,lo8(-32)
 2345 09e6 9083      		st Z,r25
 2346               	.LBE510:
 2347               	.LBE509:
 2348               	.LBE502:
 2349               	.LBE501:
 2350               	.LM262:
 2351 09e8 0E94 0000 		call Timebase_DownCounter_Set_Securely
 2352               	.LVL143:
 2353               	/* epilogue start */
 2354               	.LM263:
 2355 09ec DF91      		pop r29
 2356 09ee CF91      		pop r28
 2357 09f0 0895      		ret
 2358               	.LFE43:
 2360               	.global	Timebase_DownCounter_Update
 2362               	Timebase_DownCounter_Update:
 2363               	.LFB44:
 2364               	.LM264:
 2365               	.LVL144:
 2366 09f2 0F93      		push r16
 2367 09f4 1F93      		push r17
 2368 09f6 CF93      		push r28
 2369 09f8 DF93      		push r29
 2370               	/* prologue: function */
 2371               	/* frame size = 0 */
 2372               	.LBB511:
 2373               	.LBB512:
 2374               	.LM265:
 2375 09fa A091 0000 		lds r26,Timebase
 2376 09fe B091 0000 		lds r27,(Timebase)+1
 2377 0a02 90E0      		ldi r25,lo8(0)
 2378 0a04 2DE0      		ldi r18,lo8(13)
 2379 0a06 30E0      		ldi r19,hi8(13)
 2380 0a08 829F      		mul r24,r18
 2381 0a0a F001      		movw r30,r0
 2382 0a0c 839F      		mul r24,r19
 2383 0a0e F00D      		add r31,r0
 2384 0a10 929F      		mul r25,r18
 2385 0a12 F00D      		add r31,r0
 2386 0a14 1124      		clr r1
 2387               	.LVL145:
 2388 0a16 EA0F      		add r30,r26
 2389 0a18 FB1F      		adc r31,r27
 2390 0a1a 8F01      		movw r16,r30
 2391 0a1c 0259      		subi r16,lo8(-(110))
 2392 0a1e 1F4F      		sbci r17,hi8(-(110))
 2393 0a20 E801      		movw r28,r16
 2394 0a22 8881      		ld r24,Y
 2395 0a24 8695      		lsr r24
 2396 0a26 8F70      		andi r24,lo8(15)
 2397               	.LBE512:
 2398               	.LBE511:
 2399               	.LM266:
 2400 0a28 8130      		cpi r24,lo8(1)
 2401 0a2a 01F4      		brne .L120
 2402               	.LBB513:
 2403               	.LBB514:
 2404               	.LM267:
 2405 0a2c 1A96      		adiw r26,10
 2406 0a2e 2D91      		ld r18,X+
 2407 0a30 3D91      		ld r19,X+
 2408 0a32 4D91      		ld r20,X+
 2409 0a34 5C91      		ld r21,X
 2410 0a36 1D97      		sbiw r26,10+3
 2411               	.LBE514:
 2412               	.LBE513:
 2413               	.LM268:
 2414 0a38 BF01      		movw r22,r30
 2415 0a3a 6159      		subi r22,lo8(-(111))
 2416 0a3c 7F4F      		sbci r23,hi8(-(111))
 2417 0a3e EB01      		movw r28,r22
 2418 0a40 8881      		ld r24,Y
 2419 0a42 9981      		ldd r25,Y+1
 2420 0a44 AA81      		ldd r26,Y+2
 2421 0a46 BB81      		ldd r27,Y+3
 2422 0a48 821B      		sub r24,r18
 2423 0a4a 930B      		sbc r25,r19
 2424 0a4c A40B      		sbc r26,r20
 2425 0a4e B50B      		sbc r27,r21
 2426               	.LBB515:
 2427               	.LBB516:
 2428               	.LM269:
 2429 0a50 ED58      		subi r30,lo8(-(115))
 2430 0a52 FF4F      		sbci r31,hi8(-(115))
 2431 0a54 8083      		st Z,r24
 2432 0a56 9183      		std Z+1,r25
 2433 0a58 A283      		std Z+2,r26
 2434 0a5a B383      		std Z+3,r27
 2435               	.LBE516:
 2436               	.LBE515:
 2437               	.LM270:
 2438 0a5c 1816      		cp __zero_reg__,r24
 2439 0a5e 1906      		cpc __zero_reg__,r25
 2440 0a60 1A06      		cpc __zero_reg__,r26
 2441 0a62 1B06      		cpc __zero_reg__,r27
 2442 0a64 04F0      		brlt .L122
 2443               	.LBB517:
 2444               	.LBB518:
 2445               	.LBB519:
 2446               	.LBB520:
 2447               	.LM271:
 2448 0a66 DB01      		movw r26,r22
 2449 0a68 1D92      		st X+,__zero_reg__
 2450 0a6a 1D92      		st X+,__zero_reg__
 2451 0a6c 1D92      		st X+,__zero_reg__
 2452 0a6e 1C92      		st X,__zero_reg__
 2453 0a70 1397      		sbiw r26,3
 2454               	.LBE520:
 2455               	.LBE519:
 2456               	.LBB521:
 2457               	.LBB522:
 2458               	.LM272:
 2459 0a72 1082      		st Z,__zero_reg__
 2460 0a74 1182      		std Z+1,__zero_reg__
 2461 0a76 1282      		std Z+2,__zero_reg__
 2462 0a78 1382      		std Z+3,__zero_reg__
 2463               	.LBE522:
 2464               	.LBE521:
 2465               	.LBB523:
 2466               	.LBB524:
 2467               	.LM273:
 2468 0a7a E801      		movw r28,r16
 2469 0a7c 8881      		ld r24,Y
 2470               	.LBE524:
 2471               	.LBE523:
 2472               	.LBE518:
 2473               	.LBE517:
 2474               	.LBB525:
 2475               	.LBB526:
 2476               	.LM274:
 2477 0a7e 807E      		andi r24,lo8(-32)
 2478 0a80 8860      		ori r24,lo8(8)
 2479 0a82 8883      		st Y,r24
 2480 0a84 00C0      		rjmp .L122
 2481               	.L120:
 2482               	.LBE526:
 2483               	.LBE525:
 2484               	.LM275:
 2485 0a86 8230      		cpi r24,lo8(2)
 2486 0a88 01F4      		brne .L122
 2487               	.LBB527:
 2488               	.LBB528:
 2489               	.LM276:
 2490 0a8a 1A96      		adiw r26,10
 2491 0a8c 8D91      		ld r24,X+
 2492 0a8e 9D91      		ld r25,X+
 2493 0a90 0D90      		ld __tmp_reg__,X+
 2494 0a92 BC91      		ld r27,X
 2495 0a94 A02D      		mov r26,__tmp_reg__
 2496               	.LBE528:
 2497               	.LBE527:
 2498               	.LBB529:
 2499               	.LBB530:
 2500               	.LM277:
 2501 0a96 ED58      		subi r30,lo8(-(115))
 2502 0a98 FF4F      		sbci r31,hi8(-(115))
 2503 0a9a 2081      		ld r18,Z
 2504 0a9c 3181      		ldd r19,Z+1
 2505 0a9e 4281      		ldd r20,Z+2
 2506 0aa0 5381      		ldd r21,Z+3
 2507 0aa2 820F      		add r24,r18
 2508 0aa4 931F      		adc r25,r19
 2509 0aa6 A41F      		adc r26,r20
 2510 0aa8 B51F      		adc r27,r21
 2511 0aaa B293      		st -Z,r27
 2512 0aac A293      		st -Z,r26
 2513 0aae 9293      		st -Z,r25
 2514 0ab0 8293      		st -Z,r24
 2515               	.L122:
 2516               	/* epilogue start */
 2517               	.LBE530:
 2518               	.LBE529:
 2519               	.LM278:
 2520 0ab2 DF91      		pop r29
 2521 0ab4 CF91      		pop r28
 2522 0ab6 1F91      		pop r17
 2523 0ab8 0F91      		pop r16
 2524 0aba 0895      		ret
 2525               	.LFE44:
 2527               	.global	Timebase_DownCounter_Expired
 2529               	Timebase_DownCounter_Expired:
 2530               	.LFB45:
 2531               	.LM279:
 2532               	.LVL146:
 2533               	/* prologue: function */
 2534               	/* frame size = 0 */
 2535               	.LM280:
 2536 0abc 40E0      		ldi r20,lo8(0)
 2537 0abe E091 0000 		lds r30,Timebase
 2538 0ac2 F091 0000 		lds r31,(Timebase)+1
 2539 0ac6 90E0      		ldi r25,lo8(0)
 2540               	.LVL147:
 2541 0ac8 2DE0      		ldi r18,lo8(13)
 2542 0aca 30E0      		ldi r19,hi8(13)
 2543 0acc BC01      		movw r22,r24
 2544 0ace 629F      		mul r22,r18
 2545 0ad0 C001      		movw r24,r0
 2546 0ad2 639F      		mul r22,r19
 2547 0ad4 900D      		add r25,r0
 2548 0ad6 729F      		mul r23,r18
 2549 0ad8 900D      		add r25,r0
 2550 0ada 1124      		clr r1
 2551               	.LVL148:
 2552 0adc E80F      		add r30,r24
 2553 0ade F91F      		adc r31,r25
 2554 0ae0 E259      		subi r30,lo8(-(110))
 2555 0ae2 FF4F      		sbci r31,hi8(-(110))
 2556 0ae4 8081      		ld r24,Z
 2557 0ae6 8695      		lsr r24
 2558 0ae8 8F70      		andi r24,lo8(15)
 2559 0aea 8430      		cpi r24,lo8(4)
 2560 0aec 01F4      		brne .L124
 2561 0aee 41E0      		ldi r20,lo8(1)
 2562               	.L124:
 2563               	.LM281:
 2564 0af0 842F      		mov r24,r20
 2565               	/* epilogue start */
 2566 0af2 0895      		ret
 2567               	.LFE45:
 2569               	.global	Timebase_DownCounter_Expired_Event
 2571               	Timebase_DownCounter_Expired_Event:
 2572               	.LFB46:
 2573               	.LM282:
 2574               	.LVL149:
 2575               	/* prologue: function */
 2576               	/* frame size = 0 */
 2577               	.LBB531:
 2578               	.LBB532:
 2579               	.LM283:
 2580 0af4 E091 0000 		lds r30,Timebase
 2581 0af8 F091 0000 		lds r31,(Timebase)+1
 2582 0afc 90E0      		ldi r25,lo8(0)
 2583               	.LBE532:
 2584               	.LBE531:
 2585               	.LM284:
 2586 0afe 2DE0      		ldi r18,lo8(13)
 2587 0b00 30E0      		ldi r19,hi8(13)
 2588 0b02 AC01      		movw r20,r24
 2589               	.LVL150:
 2590 0b04 429F      		mul r20,r18
 2591 0b06 C001      		movw r24,r0
 2592 0b08 439F      		mul r20,r19
 2593 0b0a 900D      		add r25,r0
 2594 0b0c 529F      		mul r21,r18
 2595 0b0e 900D      		add r25,r0
 2596 0b10 1124      		clr r1
 2597 0b12 E80F      		add r30,r24
 2598 0b14 F91F      		adc r31,r25
 2599 0b16 DF01      		movw r26,r30
 2600 0b18 A259      		subi r26,lo8(-(110))
 2601 0b1a BF4F      		sbci r27,hi8(-(110))
 2602 0b1c 8C91      		ld r24,X
 2603 0b1e 8695      		lsr r24
 2604 0b20 8F70      		andi r24,lo8(15)
 2605 0b22 8430      		cpi r24,lo8(4)
 2606 0b24 01F0      		breq .L127
 2607 0b26 80E0      		ldi r24,lo8(0)
 2608 0b28 0895      		ret
 2609               	.L127:
 2610               	.LBB533:
 2611               	.LBB534:
 2612               	.LBB535:
 2613               	.LBB536:
 2614               	.LBB537:
 2615               	.LBB538:
 2616               	.LM285:
 2617 0b2a E159      		subi r30,lo8(-(111))
 2618 0b2c FF4F      		sbci r31,hi8(-(111))
 2619 0b2e 1192      		st Z+,__zero_reg__
 2620 0b30 1192      		st Z+,__zero_reg__
 2621 0b32 1192      		st Z+,__zero_reg__
 2622 0b34 1192      		st Z+,__zero_reg__
 2623               	.LBE538:
 2624               	.LBE537:
 2625               	.LBB539:
 2626               	.LBB540:
 2627               	.LM286:
 2628 0b36 1082      		st Z,__zero_reg__
 2629 0b38 1182      		std Z+1,__zero_reg__
 2630 0b3a 1282      		std Z+2,__zero_reg__
 2631 0b3c 1382      		std Z+3,__zero_reg__
 2632               	.LBE540:
 2633               	.LBE539:
 2634               	.LBB541:
 2635               	.LBB542:
 2636               	.LM287:
 2637 0b3e 8C91      		ld r24,X
 2638               	.LBE542:
 2639               	.LBE541:
 2640               	.LBB543:
 2641               	.LBB544:
 2642               	.LM288:
 2643 0b40 807E      		andi r24,lo8(-32)
 2644 0b42 8C93      		st X,r24
 2645 0b44 81E0      		ldi r24,lo8(1)
 2646               	.LBE544:
 2647               	.LBE543:
 2648               	.LBE536:
 2649               	.LBE535:
 2650               	.LBE534:
 2651               	.LBE533:
 2652               	.LM289:
 2653 0b46 0895      		ret
 2654               	.LFE46:
 2656               	.global	Timebase_DownCounter_Set_Period_Value_Securely
 2658               	Timebase_DownCounter_Set_Period_Value_Securely:
 2659               	.LFB47:
 2660               	.LM290:
 2661               	.LVL151:
 2662 0b48 CF93      		push r28
 2663 0b4a DF93      		push r29
 2664               	/* prologue: function */
 2665               	/* frame size = 0 */
 2666               	.LBB545:
 2667               	.LBB546:
 2668               	.LM291:
 2669 0b4c C091 0000 		lds r28,Timebase
 2670 0b50 D091 0000 		lds r29,(Timebase)+1
 2671 0b54 282F      		mov r18,r24
 2672 0b56 30E0      		ldi r19,lo8(0)
 2673               	.LBE546:
 2674               	.LBE545:
 2675               	.LM292:
 2676 0b58 8DE0      		ldi r24,lo8(13)
 2677 0b5a 90E0      		ldi r25,hi8(13)
 2678               	.LVL152:
 2679 0b5c 289F      		mul r18,r24
 2680 0b5e F001      		movw r30,r0
 2681 0b60 299F      		mul r18,r25
 2682 0b62 F00D      		add r31,r0
 2683 0b64 389F      		mul r19,r24
 2684 0b66 F00D      		add r31,r0
 2685 0b68 1124      		clr r1
 2686 0b6a EC0F      		add r30,r28
 2687 0b6c FD1F      		adc r31,r29
 2688 0b6e E259      		subi r30,lo8(-(110))
 2689 0b70 FF4F      		sbci r31,hi8(-(110))
 2690 0b72 8081      		ld r24,Z
 2691 0b74 EE56      		subi r30,lo8(-(-110))
 2692 0b76 F040      		sbci r31,hi8(-(-110))
 2693 0b78 80FD      		sbrc r24,0
 2694 0b7a 00C0      		rjmp .L134
 2695               	.LM293:
 2696 0b7c ED58      		subi r30,lo8(-(115))
 2697 0b7e FF4F      		sbci r31,hi8(-(115))
 2698 0b80 8191      		ld r24,Z+
 2699 0b82 9191      		ld r25,Z+
 2700 0b84 A191      		ld r26,Z+
 2701 0b86 B191      		ld r27,Z+
 2702 0b88 841B      		sub r24,r20
 2703 0b8a 950B      		sbc r25,r21
 2704 0b8c A60B      		sbc r26,r22
 2705 0b8e B70B      		sbc r27,r23
 2706               	.LBB547:
 2707               	.LBB548:
 2708               	.LM294:
 2709 0b90 B7FF      		sbrs r27,7
 2710 0b92 00C0      		rjmp .L132
 2711               	.LM295:
 2712 0b94 1082      		st Z,__zero_reg__
 2713 0b96 1182      		std Z+1,__zero_reg__
 2714 0b98 1282      		std Z+2,__zero_reg__
 2715 0b9a 1382      		std Z+3,__zero_reg__
 2716 0b9c 00C0      		rjmp .L133
 2717               	.L132:
 2718               	.LM296:
 2719 0b9e 8083      		st Z,r24
 2720 0ba0 9183      		std Z+1,r25
 2721 0ba2 A283      		std Z+2,r26
 2722 0ba4 B383      		std Z+3,r27
 2723               	.L133:
 2724               	.LBE548:
 2725               	.LBE547:
 2726               	.LBB549:
 2727               	.LBB550:
 2728               	.LM297:
 2729 0ba6 8DE0      		ldi r24,lo8(13)
 2730 0ba8 90E0      		ldi r25,hi8(13)
 2731 0baa 289F      		mul r18,r24
 2732 0bac F001      		movw r30,r0
 2733 0bae 299F      		mul r18,r25
 2734 0bb0 F00D      		add r31,r0
 2735 0bb2 389F      		mul r19,r24
 2736 0bb4 F00D      		add r31,r0
 2737 0bb6 1124      		clr r1
 2738 0bb8 EC0F      		add r30,r28
 2739 0bba FD1F      		adc r31,r29
 2740 0bbc E259      		subi r30,lo8(-(110))
 2741 0bbe FF4F      		sbci r31,hi8(-(110))
 2742 0bc0 8081      		ld r24,Z
 2743 0bc2 8160      		ori r24,lo8(1)
 2744 0bc4 8083      		st Z,r24
 2745               	.L134:
 2746               	/* epilogue start */
 2747               	.LBE550:
 2748               	.LBE549:
 2749               	.LM298:
 2750 0bc6 DF91      		pop r29
 2751 0bc8 CF91      		pop r28
 2752 0bca 0895      		ret
 2753               	.LFE47:
 2755               	.global	Timebase_DownCounter_Get_Remaining_Period_Value
 2757               	Timebase_DownCounter_Get_Remaining_Period_Value:
 2758               	.LFB48:
 2759               	.LM299:
 2760               	.LVL153:
 2761               	/* prologue: function */
 2762               	/* frame size = 0 */
 2763               	.LBB551:
 2764               	.LBB552:
 2765               	.LM300:
 2766 0bcc E091 0000 		lds r30,Timebase
 2767 0bd0 F091 0000 		lds r31,(Timebase)+1
 2768 0bd4 90E0      		ldi r25,lo8(0)
 2769               	.LBE552:
 2770               	.LBE551:
 2771               	.LM301:
 2772 0bd6 2DE0      		ldi r18,lo8(13)
 2773 0bd8 30E0      		ldi r19,hi8(13)
 2774 0bda AC01      		movw r20,r24
 2775               	.LVL154:
 2776 0bdc 429F      		mul r20,r18
 2777 0bde C001      		movw r24,r0
 2778 0be0 439F      		mul r20,r19
 2779 0be2 900D      		add r25,r0
 2780 0be4 529F      		mul r21,r18
 2781 0be6 900D      		add r25,r0
 2782 0be8 1124      		clr r1
 2783 0bea E80F      		add r30,r24
 2784 0bec F91F      		adc r31,r25
 2785 0bee DF01      		movw r26,r30
 2786 0bf0 A958      		subi r26,lo8(-(119))
 2787 0bf2 BF4F      		sbci r27,hi8(-(119))
 2788 0bf4 ED58      		subi r30,lo8(-(115))
 2789 0bf6 FF4F      		sbci r31,hi8(-(115))
 2790 0bf8 2081      		ld r18,Z
 2791 0bfa 3181      		ldd r19,Z+1
 2792 0bfc 4281      		ldd r20,Z+2
 2793 0bfe 5381      		ldd r21,Z+3
 2794               	.LVL155:
 2795 0c00 8D91      		ld r24,X+
 2796 0c02 9D91      		ld r25,X+
 2797 0c04 0D90      		ld __tmp_reg__,X+
 2798 0c06 BC91      		ld r27,X
 2799 0c08 A02D      		mov r26,__tmp_reg__
 2800 0c0a 281B      		sub r18,r24
 2801 0c0c 390B      		sbc r19,r25
 2802 0c0e 4A0B      		sbc r20,r26
 2803 0c10 5B0B      		sbc r21,r27
 2804 0c12 57FF      		sbrs r21,7
 2805 0c14 00C0      		rjmp .L136
 2806 0c16 20E0      		ldi r18,lo8(0)
 2807 0c18 30E0      		ldi r19,hi8(0)
 2808 0c1a 40E0      		ldi r20,hlo8(0)
 2809 0c1c 50E0      		ldi r21,hhi8(0)
 2810               	.L136:
 2811               	.LM302:
 2812 0c1e B901      		movw r22,r18
 2813               	.LVL156:
 2814 0c20 CA01      		movw r24,r20
 2815               	/* epilogue start */
 2816 0c22 0895      		ret
 2817               	.LFE48:
 2819               	.global	Timebase_DownCounter_Period_Value_Expired
 2821               	Timebase_DownCounter_Period_Value_Expired:
 2822               	.LFB49:
 2823               	.LM303:
 2824               	.LVL157:
 2825 0c24 CF93      		push r28
 2826 0c26 DF93      		push r29
 2827               	/* prologue: function */
 2828               	/* frame size = 0 */
 2829               	.LBB553:
 2830               	.LBB554:
 2831               	.LBB555:
 2832               	.LBB556:
 2833               	.LM304:
 2834 0c28 C091 0000 		lds r28,Timebase
 2835 0c2c D091 0000 		lds r29,(Timebase)+1
 2836 0c30 682F      		mov r22,r24
 2837 0c32 70E0      		ldi r23,lo8(0)
 2838               	.LBE556:
 2839               	.LBE555:
 2840               	.LM305:
 2841 0c34 8DE0      		ldi r24,lo8(13)
 2842 0c36 90E0      		ldi r25,hi8(13)
 2843               	.LVL158:
 2844 0c38 689F      		mul r22,r24
 2845 0c3a F001      		movw r30,r0
 2846 0c3c 699F      		mul r22,r25
 2847 0c3e F00D      		add r31,r0
 2848 0c40 789F      		mul r23,r24
 2849 0c42 F00D      		add r31,r0
 2850 0c44 1124      		clr r1
 2851 0c46 EC0F      		add r30,r28
 2852 0c48 FD1F      		adc r31,r29
 2853 0c4a DF01      		movw r26,r30
 2854 0c4c A958      		subi r26,lo8(-(119))
 2855 0c4e BF4F      		sbci r27,hi8(-(119))
 2856 0c50 ED58      		subi r30,lo8(-(115))
 2857 0c52 FF4F      		sbci r31,hi8(-(115))
 2858 0c54 2081      		ld r18,Z
 2859 0c56 3181      		ldd r19,Z+1
 2860 0c58 4281      		ldd r20,Z+2
 2861 0c5a 5381      		ldd r21,Z+3
 2862               	.LVL159:
 2863 0c5c 8D91      		ld r24,X+
 2864 0c5e 9D91      		ld r25,X+
 2865 0c60 0D90      		ld __tmp_reg__,X+
 2866 0c62 BC91      		ld r27,X
 2867 0c64 A02D      		mov r26,__tmp_reg__
 2868 0c66 281B      		sub r18,r24
 2869 0c68 390B      		sbc r19,r25
 2870 0c6a 4A0B      		sbc r20,r26
 2871 0c6c 5B0B      		sbc r21,r27
 2872               	.LM306:
 2873 0c6e 57FD      		sbrc r21,7
 2874 0c70 00C0      		rjmp .L139
 2875               	.LBE554:
 2876               	.LBE553:
 2877               	.LM307:
 2878 0c72 2115      		cp r18,__zero_reg__
 2879 0c74 3105      		cpc r19,__zero_reg__
 2880 0c76 4105      		cpc r20,__zero_reg__
 2881 0c78 5105      		cpc r21,__zero_reg__
 2882 0c7a 01F0      		breq .L139
 2883 0c7c 20E0      		ldi r18,lo8(0)
 2884               	.LVL160:
 2885 0c7e 00C0      		rjmp .L140
 2886               	.LVL161:
 2887               	.L139:
 2888 0c80 20E0      		ldi r18,lo8(0)
 2889               	.LVL162:
 2890 0c82 8DE0      		ldi r24,lo8(13)
 2891 0c84 90E0      		ldi r25,hi8(13)
 2892 0c86 AC01      		movw r20,r24
 2893 0c88 649F      		mul r22,r20
 2894 0c8a C001      		movw r24,r0
 2895 0c8c 659F      		mul r22,r21
 2896 0c8e 900D      		add r25,r0
 2897 0c90 749F      		mul r23,r20
 2898 0c92 900D      		add r25,r0
 2899 0c94 1124      		clr r1
 2900 0c96 C80F      		add r28,r24
 2901 0c98 D91F      		adc r29,r25
 2902 0c9a C259      		subi r28,lo8(-(110))
 2903 0c9c DF4F      		sbci r29,hi8(-(110))
 2904 0c9e 8881      		ld r24,Y
 2905 0ca0 80FF      		sbrs r24,0
 2906 0ca2 21E0      		ldi r18,lo8(1)
 2907               	.L141:
 2908 0ca4 81E0      		ldi r24,lo8(1)
 2909 0ca6 2827      		eor r18,r24
 2910               	.L140:
 2911               	.LM308:
 2912 0ca8 822F      		mov r24,r18
 2913               	/* epilogue start */
 2914 0caa DF91      		pop r29
 2915 0cac CF91      		pop r28
 2916 0cae 0895      		ret
 2917               	.LFE49:
 2919               	.global	Timebase_DownCounter_Period_Value_Expired_Event
 2921               	Timebase_DownCounter_Period_Value_Expired_Event:
 2922               	.LFB50:
 2923               	.LM309:
 2924               	.LVL163:
 2925 0cb0 1F93      		push r17
 2926               	/* prologue: function */
 2927               	/* frame size = 0 */
 2928 0cb2 182F      		mov r17,r24
 2929               	.LM310:
 2930 0cb4 0E94 0000 		call Timebase_DownCounter_Period_Value_Expired
 2931               	.LVL164:
 2932 0cb8 8130      		cpi r24,lo8(1)
 2933 0cba 01F0      		breq .L144
 2934 0cbc 80E0      		ldi r24,lo8(0)
 2935 0cbe 00C0      		rjmp .L145
 2936               	.L144:
 2937               	.LBB557:
 2938               	.LBB558:
 2939               	.LM311:
 2940 0cc0 E091 0000 		lds r30,Timebase
 2941 0cc4 F091 0000 		lds r31,(Timebase)+1
 2942 0cc8 212F      		mov r18,r17
 2943 0cca 30E0      		ldi r19,lo8(0)
 2944               	.LVL165:
 2945 0ccc 8DE0      		ldi r24,lo8(13)
 2946 0cce 90E0      		ldi r25,hi8(13)
 2947 0cd0 AC01      		movw r20,r24
 2948 0cd2 249F      		mul r18,r20
 2949 0cd4 C001      		movw r24,r0
 2950 0cd6 259F      		mul r18,r21
 2951 0cd8 900D      		add r25,r0
 2952 0cda 349F      		mul r19,r20
 2953 0cdc 900D      		add r25,r0
 2954 0cde 1124      		clr r1
 2955 0ce0 E80F      		add r30,r24
 2956 0ce2 F91F      		adc r31,r25
 2957 0ce4 E259      		subi r30,lo8(-(110))
 2958 0ce6 FF4F      		sbci r31,hi8(-(110))
 2959 0ce8 8081      		ld r24,Z
 2960 0cea 8E7F      		andi r24,lo8(-2)
 2961 0cec 8083      		st Z,r24
 2962 0cee 81E0      		ldi r24,lo8(1)
 2963               	.L145:
 2964               	/* epilogue start */
 2965               	.LBE558:
 2966               	.LBE557:
 2967               	.LM312:
 2968 0cf0 1F91      		pop r17
 2969               	.LVL166:
 2970 0cf2 0895      		ret
 2971               	.LFE50:
 2973               	.global	Timebase_DownCounter_Update_All
 2975               	Timebase_DownCounter_Update_All:
 2976               	.LFB51:
 2977               	.LM313:
 2978 0cf4 1F93      		push r17
 2979               	/* prologue: function */
 2980               	/* frame size = 0 */
 2981               	.LM314:
 2982 0cf6 10E0      		ldi r17,lo8(0)
 2983               	.LVL167:
 2984               	.L148:
 2985               	.LBB559:
 2986               	.LM315:
 2987 0cf8 812F      		mov r24,r17
 2988 0cfa 0E94 0000 		call Timebase_DownCounter_Update
 2989               	.LM316:
 2990 0cfe 1F5F      		subi r17,lo8(-(1))
 2991 0d00 1530      		cpi r17,lo8(5)
 2992 0d02 01F4      		brne .L148
 2993               	/* epilogue start */
 2994               	.LBE559:
 2995               	.LM317:
 2996 0d04 1F91      		pop r17
 2997               	.LVL168:
 2998 0d06 0895      		ret
 2999               	.LFE51:
 3001               	.global	Timebase_DownCounter_Reset_All
 3003               	Timebase_DownCounter_Reset_All:
 3004               	.LFB52:
 3005               	.LM318:
 3006               	/* prologue: function */
 3007               	/* frame size = 0 */
 3008               	.LBB560:
 3009               	.LBB561:
 3010               	.LBB562:
 3011               	.LBB563:
 3012               	.LBB564:
 3013               	.LM319:
 3014 0d08 4091 0000 		lds r20,Timebase
 3015 0d0c 5091 0000 		lds r21,(Timebase)+1
 3016 0d10 DA01      		movw r26,r20
 3017 0d12 A159      		subi r26,lo8(-(111))
 3018 0d14 BF4F      		sbci r27,hi8(-(111))
 3019 0d16 20E0      		ldi r18,lo8(0)
 3020 0d18 30E0      		ldi r19,hi8(0)
 3021               	.LBE564:
 3022               	.LBE563:
 3023               	.LBB566:
 3024               	.LBB567:
 3025               	.LM320:
 3026 0d1a 6DE0      		ldi r22,lo8(13)
 3027 0d1c 70E0      		ldi r23,hi8(13)
 3028               	.L152:
 3029               	.LBE567:
 3030               	.LBE566:
 3031               	.LBB569:
 3032               	.LBB565:
 3033               	.LM321:
 3034 0d1e 1D92      		st X+,__zero_reg__
 3035 0d20 1D92      		st X+,__zero_reg__
 3036 0d22 1D92      		st X+,__zero_reg__
 3037 0d24 1C92      		st X,__zero_reg__
 3038 0d26 1397      		sbiw r26,3
 3039               	.LBE565:
 3040               	.LBE569:
 3041               	.LBB570:
 3042               	.LBB571:
 3043               	.LM322:
 3044 0d28 1496      		adiw r26,4
 3045 0d2a 1D92      		st X+,__zero_reg__
 3046 0d2c 1D92      		st X+,__zero_reg__
 3047 0d2e 1D92      		st X+,__zero_reg__
 3048 0d30 1C92      		st X,__zero_reg__
 3049 0d32 1797      		sbiw r26,4+3
 3050               	.LBE571:
 3051               	.LBE570:
 3052               	.LBB572:
 3053               	.LBB568:
 3054               	.LM323:
 3055 0d34 269F      		mul r18,r22
 3056 0d36 F001      		movw r30,r0
 3057 0d38 279F      		mul r18,r23
 3058 0d3a F00D      		add r31,r0
 3059 0d3c 369F      		mul r19,r22
 3060 0d3e F00D      		add r31,r0
 3061 0d40 1124      		clr r1
 3062 0d42 E40F      		add r30,r20
 3063 0d44 F51F      		adc r31,r21
 3064 0d46 E259      		subi r30,lo8(-(110))
 3065 0d48 FF4F      		sbci r31,hi8(-(110))
 3066 0d4a 8081      		ld r24,Z
 3067               	.LBE568:
 3068               	.LBE572:
 3069               	.LBB573:
 3070               	.LBB574:
 3071               	.LM324:
 3072 0d4c 807E      		andi r24,lo8(-32)
 3073 0d4e 8083      		st Z,r24
 3074 0d50 2F5F      		subi r18,lo8(-(1))
 3075 0d52 3F4F      		sbci r19,hi8(-(1))
 3076 0d54 1D96      		adiw r26,13
 3077               	.LBE574:
 3078               	.LBE573:
 3079               	.LBE562:
 3080               	.LBE561:
 3081               	.LM325:
 3082 0d56 2530      		cpi r18,5
 3083 0d58 3105      		cpc r19,__zero_reg__
 3084 0d5a 01F4      		brne .L152
 3085               	/* epilogue start */
 3086               	.LBE560:
 3087               	.LM326:
 3088 0d5c 0895      		ret
 3089               	.LFE52:
 3091               	.global	Timebase_DownCounter_SS_Get_Status
 3093               	Timebase_DownCounter_SS_Get_Status:
 3094               	.LFB53:
 3095               	.LM327:
 3096               	.LVL169:
 3097               	/* prologue: function */
 3098               	/* frame size = 0 */
 3099               	.LM328:
 3100 0d5e E091 0000 		lds r30,Timebase
 3101 0d62 F091 0000 		lds r31,(Timebase)+1
 3102 0d66 90E0      		ldi r25,lo8(0)
 3103               	.LVL170:
 3104 0d68 9C01      		movw r18,r24
 3105 0d6a 44E0      		ldi r20,4
 3106 0d6c 220F      	1:	lsl r18
 3107 0d6e 331F      		rol r19
 3108 0d70 4A95      		dec r20
 3109 0d72 01F4      		brne 1b
 3110 0d74 280F      		add r18,r24
 3111 0d76 391F      		adc r19,r25
 3112 0d78 E20F      		add r30,r18
 3113 0d7a F31F      		adc r31,r19
 3114 0d7c 818D      		ldd r24,Z+25
 3115               	.LVL171:
 3116 0d7e 8695      		lsr r24
 3117               	.LM329:
 3118 0d80 8F70      		andi r24,lo8(15)
 3119               	/* epilogue start */
 3120 0d82 0895      		ret
 3121               	.LFE53:
 3123               	.global	Timebase_DownCounter_SS_Set_Status
 3125               	Timebase_DownCounter_SS_Set_Status:
 3126               	.LFB54:
 3127               	.LM330:
 3128               	.LVL172:
 3129               	/* prologue: function */
 3130               	/* frame size = 0 */
 3131               	.LM331:
 3132 0d84 E091 0000 		lds r30,Timebase
 3133 0d88 F091 0000 		lds r31,(Timebase)+1
 3134 0d8c 90E0      		ldi r25,lo8(0)
 3135               	.LVL173:
 3136 0d8e 9C01      		movw r18,r24
 3137 0d90 54E0      		ldi r21,4
 3138 0d92 220F      	1:	lsl r18
 3139 0d94 331F      		rol r19
 3140 0d96 5A95      		dec r21
 3141 0d98 01F4      		brne 1b
 3142 0d9a 280F      		add r18,r24
 3143 0d9c 391F      		adc r19,r25
 3144 0d9e E20F      		add r30,r18
 3145 0da0 F31F      		adc r31,r19
 3146 0da2 6F70      		andi r22,lo8(15)
 3147               	.LVL174:
 3148 0da4 660F      		lsl r22
 3149 0da6 818D      		ldd r24,Z+25
 3150               	.LVL175:
 3151 0da8 817E      		andi r24,lo8(-31)
 3152 0daa 862B      		or r24,r22
 3153 0dac 818F      		std Z+25,r24
 3154               	/* epilogue start */
 3155               	.LM332:
 3156 0dae 0895      		ret
 3157               	.LFE54:
 3159               	.global	Timebase_DownCounter_SS_Get_Value
 3161               	Timebase_DownCounter_SS_Get_Value:
 3162               	.LFB55:
 3163               	.LM333:
 3164               	.LVL176:
 3165               	/* prologue: function */
 3166               	/* frame size = 0 */
 3167               	.LM334:
 3168 0db0 E091 0000 		lds r30,Timebase
 3169 0db4 F091 0000 		lds r31,(Timebase)+1
 3170 0db8 90E0      		ldi r25,lo8(0)
 3171               	.LVL177:
 3172 0dba 9C01      		movw r18,r24
 3173 0dbc 64E0      		ldi r22,4
 3174 0dbe 220F      	1:	lsl r18
 3175 0dc0 331F      		rol r19
 3176 0dc2 6A95      		dec r22
 3177 0dc4 01F4      		brne 1b
 3178 0dc6 280F      		add r18,r24
 3179 0dc8 391F      		adc r19,r25
 3180 0dca E20F      		add r30,r18
 3181 0dcc F31F      		adc r31,r19
 3182 0dce DF01      		movw r26,r30
 3183 0dd0 9296      		adiw r26,34
 3184 0dd2 62A1      		ldd r22,Z+34
 3185 0dd4 1196      		adiw r26,1
 3186 0dd6 7C91      		ld r23,X
 3187 0dd8 1197      		sbiw r26,1
 3188               	.LM335:
 3189 0dda 1296      		adiw r26,2
 3190 0ddc 8C91      		ld r24,X
 3191 0dde 1297      		sbiw r26,2
 3192               	.LVL178:
 3193 0de0 1396      		adiw r26,3
 3194 0de2 9C91      		ld r25,X
 3195               	.LVL179:
 3196               	/* epilogue start */
 3197 0de4 0895      		ret
 3198               	.LFE55:
 3200               	.global	Timebase_DownCounter_SS_Set_Value
 3202               	Timebase_DownCounter_SS_Set_Value:
 3203               	.LFB56:
 3204               	.LM336:
 3205               	.LVL180:
 3206               	/* prologue: function */
 3207               	/* frame size = 0 */
 3208               	.LM337:
 3209 0de6 E091 0000 		lds r30,Timebase
 3210 0dea F091 0000 		lds r31,(Timebase)+1
 3211 0dee 90E0      		ldi r25,lo8(0)
 3212               	.LVL181:
 3213 0df0 9C01      		movw r18,r24
 3214 0df2 A4E0      		ldi r26,4
 3215 0df4 220F      	1:	lsl r18
 3216 0df6 331F      		rol r19
 3217 0df8 AA95      		dec r26
 3218 0dfa 01F4      		brne 1b
 3219 0dfc 280F      		add r18,r24
 3220 0dfe 391F      		adc r19,r25
 3221 0e00 E20F      		add r30,r18
 3222 0e02 F31F      		adc r31,r19
 3223 0e04 42A3      		std Z+34,r20
 3224 0e06 53A3      		std Z+35,r21
 3225 0e08 64A3      		std Z+36,r22
 3226 0e0a 75A3      		std Z+37,r23
 3227               	/* epilogue start */
 3228               	.LM338:
 3229 0e0c 0895      		ret
 3230               	.LFE56:
 3232               	.global	Timebase_DownCounter_SS_Get_EndValueSec
 3234               	Timebase_DownCounter_SS_Get_EndValueSec:
 3235               	.LFB57:
 3236               	.LM339:
 3237               	.LVL182:
 3238               	/* prologue: function */
 3239               	/* frame size = 0 */
 3240               	.LM340:
 3241 0e0e E091 0000 		lds r30,Timebase
 3242 0e12 F091 0000 		lds r31,(Timebase)+1
 3243 0e16 90E0      		ldi r25,lo8(0)
 3244               	.LVL183:
 3245 0e18 9C01      		movw r18,r24
 3246 0e1a B4E0      		ldi r27,4
 3247 0e1c 220F      	1:	lsl r18
 3248 0e1e 331F      		rol r19
 3249 0e20 BA95      		dec r27
 3250 0e22 01F4      		brne 1b
 3251 0e24 280F      		add r18,r24
 3252 0e26 391F      		adc r19,r25
 3253 0e28 E20F      		add r30,r18
 3254 0e2a F31F      		adc r31,r19
 3255 0e2c DF01      		movw r26,r30
 3256 0e2e 5A96      		adiw r26,26
 3257 0e30 628D      		ldd r22,Z+26
 3258 0e32 1196      		adiw r26,1
 3259 0e34 7C91      		ld r23,X
 3260 0e36 1197      		sbiw r26,1
 3261               	.LM341:
 3262 0e38 1296      		adiw r26,2
 3263 0e3a 8C91      		ld r24,X
 3264 0e3c 1297      		sbiw r26,2
 3265               	.LVL184:
 3266 0e3e 1396      		adiw r26,3
 3267 0e40 9C91      		ld r25,X
 3268               	.LVL185:
 3269               	/* epilogue start */
 3270 0e42 0895      		ret
 3271               	.LFE57:
 3273               	.global	Timebase_DownCounter_SS_Get_EndValueSubSec
 3275               	Timebase_DownCounter_SS_Get_EndValueSubSec:
 3276               	.LFB58:
 3277               	.LM342:
 3278               	.LVL186:
 3279               	/* prologue: function */
 3280               	/* frame size = 0 */
 3281               	.LM343:
 3282 0e44 E091 0000 		lds r30,Timebase
 3283 0e48 F091 0000 		lds r31,(Timebase)+1
 3284 0e4c 90E0      		ldi r25,lo8(0)
 3285               	.LVL187:
 3286 0e4e 9C01      		movw r18,r24
 3287 0e50 44E0      		ldi r20,4
 3288 0e52 220F      	1:	lsl r18
 3289 0e54 331F      		rol r19
 3290 0e56 4A95      		dec r20
 3291 0e58 01F4      		brne 1b
 3292 0e5a 280F      		add r18,r24
 3293 0e5c 391F      		adc r19,r25
 3294 0e5e E20F      		add r30,r18
 3295 0e60 F31F      		adc r31,r19
 3296 0e62 DF01      		movw r26,r30
 3297 0e64 5E96      		adiw r26,30
 3298 0e66 668D      		ldd r22,Z+30
 3299 0e68 1196      		adiw r26,1
 3300 0e6a 7C91      		ld r23,X
 3301 0e6c 1197      		sbiw r26,1
 3302               	.LM344:
 3303 0e6e 1296      		adiw r26,2
 3304 0e70 8C91      		ld r24,X
 3305 0e72 1297      		sbiw r26,2
 3306               	.LVL188:
 3307 0e74 1396      		adiw r26,3
 3308 0e76 9C91      		ld r25,X
 3309               	.LVL189:
 3310               	/* epilogue start */
 3311 0e78 0895      		ret
 3312               	.LFE58:
 3314               	.global	Timebase_DownCounter_SS_Set_EndValueSec
 3316               	Timebase_DownCounter_SS_Set_EndValueSec:
 3317               	.LFB59:
 3318               	.LM345:
 3319               	.LVL190:
 3320               	/* prologue: function */
 3321               	/* frame size = 0 */
 3322               	.LM346:
 3323 0e7a E091 0000 		lds r30,Timebase
 3324 0e7e F091 0000 		lds r31,(Timebase)+1
 3325 0e82 90E0      		ldi r25,lo8(0)
 3326               	.LVL191:
 3327 0e84 9C01      		movw r18,r24
 3328 0e86 A4E0      		ldi r26,4
 3329 0e88 220F      	1:	lsl r18
 3330 0e8a 331F      		rol r19
 3331 0e8c AA95      		dec r26
 3332 0e8e 01F4      		brne 1b
 3333 0e90 280F      		add r18,r24
 3334 0e92 391F      		adc r19,r25
 3335 0e94 E20F      		add r30,r18
 3336 0e96 F31F      		adc r31,r19
 3337 0e98 428F      		std Z+26,r20
 3338 0e9a 538F      		std Z+27,r21
 3339 0e9c 648F      		std Z+28,r22
 3340 0e9e 758F      		std Z+29,r23
 3341               	/* epilogue start */
 3342               	.LM347:
 3343 0ea0 0895      		ret
 3344               	.LFE59:
 3346               	.global	Timebase_DownCounter_SS_Set_EndValueSubSec
 3348               	Timebase_DownCounter_SS_Set_EndValueSubSec:
 3349               	.LFB60:
 3350               	.LM348:
 3351               	.LVL192:
 3352               	/* prologue: function */
 3353               	/* frame size = 0 */
 3354               	.LM349:
 3355 0ea2 E091 0000 		lds r30,Timebase
 3356 0ea6 F091 0000 		lds r31,(Timebase)+1
 3357 0eaa 90E0      		ldi r25,lo8(0)
 3358               	.LVL193:
 3359 0eac 9C01      		movw r18,r24
 3360 0eae B4E0      		ldi r27,4
 3361 0eb0 220F      	1:	lsl r18
 3362 0eb2 331F      		rol r19
 3363 0eb4 BA95      		dec r27
 3364 0eb6 01F4      		brne 1b
 3365 0eb8 280F      		add r18,r24
 3366 0eba 391F      		adc r19,r25
 3367 0ebc E20F      		add r30,r18
 3368 0ebe F31F      		adc r31,r19
 3369 0ec0 468F      		std Z+30,r20
 3370 0ec2 578F      		std Z+31,r21
 3371 0ec4 60A3      		std Z+32,r22
 3372 0ec6 71A3      		std Z+33,r23
 3373               	/* epilogue start */
 3374               	.LM350:
 3375 0ec8 0895      		ret
 3376               	.LFE60:
 3378               	.global	Timebase_DownCounter_SS_Get_PeriodValue
 3380               	Timebase_DownCounter_SS_Get_PeriodValue:
 3381               	.LFB61:
 3382               	.LM351:
 3383               	.LVL194:
 3384               	/* prologue: function */
 3385               	/* frame size = 0 */
 3386               	.LM352:
 3387 0eca E091 0000 		lds r30,Timebase
 3388 0ece F091 0000 		lds r31,(Timebase)+1
 3389 0ed2 90E0      		ldi r25,lo8(0)
 3390               	.LVL195:
 3391 0ed4 9C01      		movw r18,r24
 3392 0ed6 44E0      		ldi r20,4
 3393 0ed8 220F      	1:	lsl r18
 3394 0eda 331F      		rol r19
 3395 0edc 4A95      		dec r20
 3396 0ede 01F4      		brne 1b
 3397 0ee0 280F      		add r18,r24
 3398 0ee2 391F      		adc r19,r25
 3399 0ee4 E20F      		add r30,r18
 3400 0ee6 F31F      		adc r31,r19
 3401 0ee8 DF01      		movw r26,r30
 3402 0eea 9696      		adiw r26,38
 3403 0eec 66A1      		ldd r22,Z+38
 3404 0eee 1196      		adiw r26,1
 3405 0ef0 7C91      		ld r23,X
 3406 0ef2 1197      		sbiw r26,1
 3407               	.LM353:
 3408 0ef4 1296      		adiw r26,2
 3409 0ef6 8C91      		ld r24,X
 3410 0ef8 1297      		sbiw r26,2
 3411               	.LVL196:
 3412 0efa 1396      		adiw r26,3
 3413 0efc 9C91      		ld r25,X
 3414               	.LVL197:
 3415               	/* epilogue start */
 3416 0efe 0895      		ret
 3417               	.LFE61:
 3419               	.global	Timebase_DownCounter_SS_Set_PeriodValue
 3421               	Timebase_DownCounter_SS_Set_PeriodValue:
 3422               	.LFB62:
 3423               	.LM354:
 3424               	.LVL198:
 3425               	/* prologue: function */
 3426               	/* frame size = 0 */
 3427 0f00 E091 0000 		lds r30,Timebase
 3428 0f04 F091 0000 		lds r31,(Timebase)+1
 3429 0f08 282F      		mov r18,r24
 3430 0f0a 30E0      		ldi r19,lo8(0)
 3431               	.LVL199:
 3432               	.LM355:
 3433 0f0c 77FF      		sbrs r23,7
 3434 0f0e 00C0      		rjmp .L174
 3435               	.LVL200:
 3436               	.LM356:
 3437 0f10 C901      		movw r24,r18
 3438 0f12 B4E0      		ldi r27,4
 3439 0f14 880F      	1:	lsl r24
 3440 0f16 991F      		rol r25
 3441 0f18 BA95      		dec r27
 3442 0f1a 01F4      		brne 1b
 3443 0f1c 820F      		add r24,r18
 3444 0f1e 931F      		adc r25,r19
 3445 0f20 E80F      		add r30,r24
 3446 0f22 F91F      		adc r31,r25
 3447 0f24 16A2      		std Z+38,__zero_reg__
 3448 0f26 17A2      		std Z+39,__zero_reg__
 3449 0f28 10A6      		std Z+40,__zero_reg__
 3450 0f2a 11A6      		std Z+41,__zero_reg__
 3451 0f2c 0895      		ret
 3452               	.LVL201:
 3453               	.L174:
 3454               	.LM357:
 3455 0f2e C901      		movw r24,r18
 3456 0f30 A4E0      		ldi r26,4
 3457 0f32 880F      	1:	lsl r24
 3458 0f34 991F      		rol r25
 3459 0f36 AA95      		dec r26
 3460 0f38 01F4      		brne 1b
 3461 0f3a 820F      		add r24,r18
 3462 0f3c 931F      		adc r25,r19
 3463 0f3e E80F      		add r30,r24
 3464 0f40 F91F      		adc r31,r25
 3465 0f42 46A3      		std Z+38,r20
 3466 0f44 57A3      		std Z+39,r21
 3467 0f46 60A7      		std Z+40,r22
 3468 0f48 71A7      		std Z+41,r23
 3469 0f4a 0895      		ret
 3470               	.LFE62:
 3472               	.global	Timebase_DownCounter_SS_Get_Period_Flag
 3474               	Timebase_DownCounter_SS_Get_Period_Flag:
 3475               	.LFB63:
 3476               	.LM358:
 3477               	.LVL202:
 3478               	/* prologue: function */
 3479               	/* frame size = 0 */
 3480               	.LM359:
 3481 0f4c E091 0000 		lds r30,Timebase
 3482 0f50 F091 0000 		lds r31,(Timebase)+1
 3483 0f54 90E0      		ldi r25,lo8(0)
 3484               	.LVL203:
 3485 0f56 9C01      		movw r18,r24
 3486 0f58 44E0      		ldi r20,4
 3487 0f5a 220F      	1:	lsl r18
 3488 0f5c 331F      		rol r19
 3489 0f5e 4A95      		dec r20
 3490 0f60 01F4      		brne 1b
 3491 0f62 280F      		add r18,r24
 3492 0f64 391F      		adc r19,r25
 3493 0f66 E20F      		add r30,r18
 3494 0f68 F31F      		adc r31,r19
 3495 0f6a 818D      		ldd r24,Z+25
 3496               	.LVL204:
 3497               	.LM360:
 3498 0f6c 8170      		andi r24,lo8(1)
 3499               	/* epilogue start */
 3500 0f6e 0895      		ret
 3501               	.LFE63:
 3503               	.global	Timebase_DownCounter_SS_Set_Period_Flag
 3505               	Timebase_DownCounter_SS_Set_Period_Flag:
 3506               	.LFB64:
 3507               	.LM361:
 3508               	.LVL205:
 3509               	/* prologue: function */
 3510               	/* frame size = 0 */
 3511               	.LM362:
 3512 0f70 E091 0000 		lds r30,Timebase
 3513 0f74 F091 0000 		lds r31,(Timebase)+1
 3514 0f78 90E0      		ldi r25,lo8(0)
 3515               	.LVL206:
 3516 0f7a 9C01      		movw r18,r24
 3517 0f7c 54E0      		ldi r21,4
 3518 0f7e 220F      	1:	lsl r18
 3519 0f80 331F      		rol r19
 3520 0f82 5A95      		dec r21
 3521 0f84 01F4      		brne 1b
 3522 0f86 280F      		add r18,r24
 3523 0f88 391F      		adc r19,r25
 3524 0f8a E20F      		add r30,r18
 3525 0f8c F31F      		adc r31,r19
 3526 0f8e 818D      		ldd r24,Z+25
 3527               	.LVL207:
 3528 0f90 8160      		ori r24,lo8(1)
 3529 0f92 818F      		std Z+25,r24
 3530               	/* epilogue start */
 3531               	.LM363:
 3532 0f94 0895      		ret
 3533               	.LFE64:
 3535               	.global	Timebase_DownCounter_SS_Clear_Period_Flag
 3537               	Timebase_DownCounter_SS_Clear_Period_Flag:
 3538               	.LFB65:
 3539               	.LM364:
 3540               	.LVL208:
 3541               	/* prologue: function */
 3542               	/* frame size = 0 */
 3543               	.LM365:
 3544 0f96 E091 0000 		lds r30,Timebase
 3545 0f9a F091 0000 		lds r31,(Timebase)+1
 3546 0f9e 90E0      		ldi r25,lo8(0)
 3547               	.LVL209:
 3548 0fa0 9C01      		movw r18,r24
 3549 0fa2 64E0      		ldi r22,4
 3550 0fa4 220F      	1:	lsl r18
 3551 0fa6 331F      		rol r19
 3552 0fa8 6A95      		dec r22
 3553 0faa 01F4      		brne 1b
 3554 0fac 280F      		add r18,r24
 3555 0fae 391F      		adc r19,r25
 3556 0fb0 E20F      		add r30,r18
 3557 0fb2 F31F      		adc r31,r19
 3558 0fb4 818D      		ldd r24,Z+25
 3559               	.LVL210:
 3560 0fb6 8E7F      		andi r24,lo8(-2)
 3561 0fb8 818F      		std Z+25,r24
 3562               	/* epilogue start */
 3563               	.LM366:
 3564 0fba 0895      		ret
 3565               	.LFE65:
 3567               	.global	Timebase_DownCounter_SS_Reset
 3569               	Timebase_DownCounter_SS_Reset:
 3570               	.LFB66:
 3571               	.LM367:
 3572               	.LVL211:
 3573               	/* prologue: function */
 3574               	/* frame size = 0 */
 3575               	.LBB575:
 3576               	.LBB576:
 3577               	.LM368:
 3578 0fbc E091 0000 		lds r30,Timebase
 3579 0fc0 F091 0000 		lds r31,(Timebase)+1
 3580 0fc4 90E0      		ldi r25,lo8(0)
 3581 0fc6 9C01      		movw r18,r24
 3582               	.LVL212:
 3583 0fc8 74E0      		ldi r23,4
 3584 0fca 220F      	1:	lsl r18
 3585 0fcc 331F      		rol r19
 3586 0fce 7A95      		dec r23
 3587 0fd0 01F4      		brne 1b
 3588 0fd2 280F      		add r18,r24
 3589 0fd4 391F      		adc r19,r25
 3590 0fd6 E20F      		add r30,r18
 3591 0fd8 F31F      		adc r31,r19
 3592 0fda 168E      		std Z+30,__zero_reg__
 3593 0fdc 178E      		std Z+31,__zero_reg__
 3594 0fde 10A2      		std Z+32,__zero_reg__
 3595 0fe0 11A2      		std Z+33,__zero_reg__
 3596               	.LBE576:
 3597               	.LBE575:
 3598               	.LBB577:
 3599               	.LBB578:
 3600               	.LM369:
 3601 0fe2 128E      		std Z+26,__zero_reg__
 3602 0fe4 138E      		std Z+27,__zero_reg__
 3603 0fe6 148E      		std Z+28,__zero_reg__
 3604 0fe8 158E      		std Z+29,__zero_reg__
 3605               	.LBE578:
 3606               	.LBE577:
 3607               	.LBB579:
 3608               	.LBB580:
 3609               	.LM370:
 3610 0fea 12A2      		std Z+34,__zero_reg__
 3611 0fec 13A2      		std Z+35,__zero_reg__
 3612 0fee 14A2      		std Z+36,__zero_reg__
 3613 0ff0 15A2      		std Z+37,__zero_reg__
 3614               	.LBE580:
 3615               	.LBE579:
 3616               	.LBB581:
 3617               	.LBB582:
 3618               	.LM371:
 3619 0ff2 818D      		ldd r24,Z+25
 3620               	.LBE582:
 3621               	.LBE581:
 3622               	.LBB583:
 3623               	.LBB584:
 3624               	.LM372:
 3625 0ff4 807E      		andi r24,lo8(-32)
 3626 0ff6 818F      		std Z+25,r24
 3627               	/* epilogue start */
 3628               	.LBE584:
 3629               	.LBE583:
 3630               	.LM373:
 3631 0ff8 0895      		ret
 3632               	.LFE66:
 3634               	.global	Timebase_DownCounter_SS_Clear_All_Flags
 3636               	Timebase_DownCounter_SS_Clear_All_Flags:
 3637               	.LFB67:
 3638               	.LM374:
 3639               	.LVL213:
 3640               	/* prologue: function */
 3641               	/* frame size = 0 */
 3642               	.LBB585:
 3643               	.LBB586:
 3644               	.LBB587:
 3645               	.LBB588:
 3646               	.LM375:
 3647 0ffa E091 0000 		lds r30,Timebase
 3648 0ffe F091 0000 		lds r31,(Timebase)+1
 3649 1002 90E0      		ldi r25,lo8(0)
 3650 1004 9C01      		movw r18,r24
 3651               	.LVL214:
 3652 1006 A4E0      		ldi r26,4
 3653 1008 220F      	1:	lsl r18
 3654 100a 331F      		rol r19
 3655 100c AA95      		dec r26
 3656 100e 01F4      		brne 1b
 3657 1010 280F      		add r18,r24
 3658 1012 391F      		adc r19,r25
 3659 1014 E20F      		add r30,r18
 3660 1016 F31F      		adc r31,r19
 3661 1018 168E      		std Z+30,__zero_reg__
 3662 101a 178E      		std Z+31,__zero_reg__
 3663 101c 10A2      		std Z+32,__zero_reg__
 3664 101e 11A2      		std Z+33,__zero_reg__
 3665               	.LBE588:
 3666               	.LBE587:
 3667               	.LBB589:
 3668               	.LBB590:
 3669               	.LM376:
 3670 1020 128E      		std Z+26,__zero_reg__
 3671 1022 138E      		std Z+27,__zero_reg__
 3672 1024 148E      		std Z+28,__zero_reg__
 3673 1026 158E      		std Z+29,__zero_reg__
 3674               	.LBE590:
 3675               	.LBE589:
 3676               	.LBB591:
 3677               	.LBB592:
 3678               	.LM377:
 3679 1028 12A2      		std Z+34,__zero_reg__
 3680 102a 13A2      		std Z+35,__zero_reg__
 3681 102c 14A2      		std Z+36,__zero_reg__
 3682 102e 15A2      		std Z+37,__zero_reg__
 3683               	.LBE592:
 3684               	.LBE591:
 3685               	.LBB593:
 3686               	.LBB594:
 3687               	.LM378:
 3688 1030 818D      		ldd r24,Z+25
 3689               	.LBE594:
 3690               	.LBE593:
 3691               	.LBB595:
 3692               	.LBB596:
 3693               	.LM379:
 3694 1032 807E      		andi r24,lo8(-32)
 3695 1034 818F      		std Z+25,r24
 3696               	/* epilogue start */
 3697               	.LBE596:
 3698               	.LBE595:
 3699               	.LBE586:
 3700               	.LBE585:
 3701               	.LM380:
 3702 1036 0895      		ret
 3703               	.LFE67:
 3705               	.global	Timebase_DownCounter_SS_Start
 3707               	Timebase_DownCounter_SS_Start:
 3708               	.LFB68:
 3709               	.LM381:
 3710               	.LVL215:
 3711               	/* prologue: function */
 3712               	/* frame size = 0 */
 3713               	.LBB597:
 3714               	.LBB598:
 3715               	.LM382:
 3716 1038 E091 0000 		lds r30,Timebase
 3717 103c F091 0000 		lds r31,(Timebase)+1
 3718 1040 90E0      		ldi r25,lo8(0)
 3719               	.LBE598:
 3720               	.LBE597:
 3721               	.LM383:
 3722 1042 9C01      		movw r18,r24
 3723               	.LVL216:
 3724 1044 B4E0      		ldi r27,4
 3725 1046 220F      	1:	lsl r18
 3726 1048 331F      		rol r19
 3727 104a BA95      		dec r27
 3728 104c 01F4      		brne 1b
 3729 104e 280F      		add r18,r24
 3730 1050 391F      		adc r19,r25
 3731 1052 E20F      		add r30,r18
 3732 1054 F31F      		adc r31,r19
 3733 1056 918D      		ldd r25,Z+25
 3734 1058 892F      		mov r24,r25
 3735 105a 8695      		lsr r24
 3736 105c 8F70      		andi r24,lo8(15)
 3737 105e 8130      		cpi r24,lo8(1)
 3738 1060 01F0      		breq .L189
 3739               	.LBB599:
 3740               	.LBB600:
 3741               	.LM384:
 3742 1062 917E      		andi r25,lo8(-31)
 3743 1064 9260      		ori r25,lo8(2)
 3744 1066 918F      		std Z+25,r25
 3745               	.L189:
 3746 1068 0895      		ret
 3747               	.LBE600:
 3748               	.LBE599:
 3749               	.LFE68:
 3751               	.global	Timebase_DownCounter_SS_Stop
 3753               	Timebase_DownCounter_SS_Stop:
 3754               	.LFB69:
 3755               	.LM385:
 3756               	.LVL217:
 3757               	/* prologue: function */
 3758               	/* frame size = 0 */
 3759               	.LBB601:
 3760               	.LBB602:
 3761               	.LM386:
 3762 106a E091 0000 		lds r30,Timebase
 3763 106e F091 0000 		lds r31,(Timebase)+1
 3764 1072 90E0      		ldi r25,lo8(0)
 3765               	.LBE602:
 3766               	.LBE601:
 3767               	.LM387:
 3768 1074 9C01      		movw r18,r24
 3769               	.LVL218:
 3770 1076 44E0      		ldi r20,4
 3771 1078 220F      	1:	lsl r18
 3772 107a 331F      		rol r19
 3773 107c 4A95      		dec r20
 3774 107e 01F4      		brne 1b
 3775 1080 280F      		add r18,r24
 3776 1082 391F      		adc r19,r25
 3777 1084 E20F      		add r30,r18
 3778 1086 F31F      		adc r31,r19
 3779 1088 918D      		ldd r25,Z+25
 3780 108a 892F      		mov r24,r25
 3781 108c 8695      		lsr r24
 3782 108e 8F70      		andi r24,lo8(15)
 3783 1090 8230      		cpi r24,lo8(2)
 3784 1092 01F0      		breq .L192
 3785               	.LBB603:
 3786               	.LBB604:
 3787               	.LM388:
 3788 1094 917E      		andi r25,lo8(-31)
 3789 1096 9460      		ori r25,lo8(4)
 3790 1098 918F      		std Z+25,r25
 3791               	.L192:
 3792 109a 0895      		ret
 3793               	.LBE604:
 3794               	.LBE603:
 3795               	.LFE69:
 3797               	.global	Timebase_DownCounter_SS_Set_Securely
 3799               	Timebase_DownCounter_SS_Set_Securely:
 3800               	.LFB70:
 3801               	.LM389:
 3802               	.LVL219:
 3803 109c 2F92      		push r2
 3804 109e 3F92      		push r3
 3805 10a0 4F92      		push r4
 3806 10a2 5F92      		push r5
 3807 10a4 6F92      		push r6
 3808 10a6 7F92      		push r7
 3809 10a8 8F92      		push r8
 3810 10aa 9F92      		push r9
 3811 10ac AF92      		push r10
 3812 10ae BF92      		push r11
 3813 10b0 CF92      		push r12
 3814 10b2 DF92      		push r13
 3815 10b4 EF92      		push r14
 3816 10b6 FF92      		push r15
 3817 10b8 0F93      		push r16
 3818 10ba 1F93      		push r17
 3819 10bc DF93      		push r29
 3820 10be CF93      		push r28
 3821 10c0 00D0      		rcall .
 3822 10c2 00D0      		rcall .
 3823 10c4 CDB7      		in r28,__SP_L__
 3824 10c6 DEB7      		in r29,__SP_H__
 3825               	/* prologue: function */
 3826               	/* frame size = 4 */
 3827 10c8 4A01      		movw r8,r20
 3828 10ca 5B01      		movw r10,r22
 3829               	.LBB605:
 3830               	.LBB606:
 3831               	.LM390:
 3832 10cc 2091 0000 		lds r18,Timebase
 3833 10d0 3091 0000 		lds r19,(Timebase)+1
 3834 10d4 3C83      		std Y+4,r19
 3835 10d6 2B83      		std Y+3,r18
 3836 10d8 A82F      		mov r26,r24
 3837 10da B0E0      		ldi r27,lo8(0)
 3838 10dc BA83      		std Y+2,r27
 3839 10de A983      		std Y+1,r26
 3840               	.LBE606:
 3841               	.LBE605:
 3842               	.LM391:
 3843 10e0 FD01      		movw r30,r26
 3844 10e2 64E0      		ldi r22,4
 3845 10e4 EE0F      	1:	lsl r30
 3846 10e6 FF1F      		rol r31
 3847 10e8 6A95      		dec r22
 3848 10ea 01F4      		brne 1b
 3849 10ec EA0F      		add r30,r26
 3850 10ee FB1F      		adc r31,r27
 3851 10f0 E20F      		add r30,r18
 3852 10f2 F31F      		adc r31,r19
 3853 10f4 818D      		ldd r24,Z+25
 3854               	.LVL220:
 3855 10f6 8695      		lsr r24
 3856 10f8 8F70      		andi r24,lo8(15)
 3857 10fa 01F0      		breq .+2
 3858 10fc 00C0      		rjmp .L196
 3859               	.LVL221:
 3860               	.LBB607:
 3861               	.LBB608:
 3862               	.LBB609:
 3863               	.LM392:
 3864 10fe 82A2      		std Z+34,r8
 3865 1100 93A2      		std Z+35,r9
 3866 1102 A4A2      		std Z+36,r10
 3867 1104 B5A2      		std Z+37,r11
 3868               	.LBE609:
 3869               	.LBE608:
 3870               	.LBB610:
 3871               	.LBB611:
 3872               	.LM393:
 3873 1106 F901      		movw r30,r18
 3874 1108 C084      		ldd r12,Z+8
 3875 110a D184      		ldd r13,Z+9
 3876               	.LBE611:
 3877               	.LBE610:
 3878               	.LBB612:
 3879               	.LBB613:
 3880               	.LM394:
 3881 110c 2284      		ldd r2,Z+10
 3882 110e 3384      		ldd r3,Z+11
 3883 1110 4484      		ldd r4,Z+12
 3884 1112 5584      		ldd r5,Z+13
 3885               	.LVL222:
 3886               	.LBE613:
 3887               	.LBE612:
 3888               	.LM395:
 3889 1114 2181      		ldd r18,Z+1
 3890 1116 3281      		ldd r19,Z+2
 3891 1118 40E0      		ldi r20,lo8(0)
 3892 111a 50E0      		ldi r21,hi8(0)
 3893 111c C501      		movw r24,r10
 3894 111e B401      		movw r22,r8
 3895 1120 0E94 0000 		call __divmodsi4
 3896 1124 7B01      		movw r14,r22
 3897 1126 8C01      		movw r16,r24
 3898               	.LM396:
 3899 1128 AB81      		ldd r26,Y+3
 3900 112a BC81      		ldd r27,Y+4
 3901 112c 1196      		adiw r26,1
 3902 112e 2D91      		ld r18,X+
 3903 1130 3C91      		ld r19,X
 3904 1132 1297      		sbiw r26,1+1
 3905 1134 40E0      		ldi r20,lo8(0)
 3906 1136 50E0      		ldi r21,hi8(0)
 3907 1138 C501      		movw r24,r10
 3908 113a B401      		movw r22,r8
 3909 113c 0E94 0000 		call __divmodsi4
 3910 1140 C901      		movw r24,r18
 3911 1142 DA01      		movw r26,r20
 3912 1144 3C01      		movw r6,r24
 3913 1146 4D01      		movw r8,r26
 3914               	.LVL223:
 3915               	.LM397:
 3916 1148 5601      		movw r10,r12
 3917               	.LVL224:
 3918 114a CC24      		clr r12
 3919 114c DD24      		clr r13
 3920               	.LVL225:
 3921 114e AE0C      		add r10,r14
 3922 1150 BF1C      		adc r11,r15
 3923 1152 C01E      		adc r12,r16
 3924 1154 D11E      		adc r13,r17
 3925               	.LVL226:
 3926               	.LM398:
 3927 1156 EB81      		ldd r30,Y+3
 3928 1158 FC81      		ldd r31,Y+4
 3929 115a 8181      		ldd r24,Z+1
 3930 115c 9281      		ldd r25,Z+2
 3931               	.LVL227:
 3932 115e A0E0      		ldi r26,lo8(0)
 3933 1160 B0E0      		ldi r27,hi8(0)
 3934 1162 A816      		cp r10,r24
 3935 1164 B906      		cpc r11,r25
 3936 1166 CA06      		cpc r12,r26
 3937 1168 DB06      		cpc r13,r27
 3938 116a 04F0      		brlt .L195
 3939               	.LM399:
 3940 116c 0894      		sec
 3941 116e 611C      		adc r6,__zero_reg__
 3942 1170 711C      		adc r7,__zero_reg__
 3943 1172 811C      		adc r8,__zero_reg__
 3944 1174 911C      		adc r9,__zero_reg__
 3945               	.LM400:
 3946 1176 2181      		ldd r18,Z+1
 3947 1178 3281      		ldd r19,Z+2
 3948 117a 40E0      		ldi r20,lo8(0)
 3949 117c 50E0      		ldi r21,hi8(0)
 3950 117e C601      		movw r24,r12
 3951 1180 B501      		movw r22,r10
 3952 1182 0E94 0000 		call __divmodsi4
 3953 1186 AC01      		movw r20,r24
 3954 1188 CB01      		movw r24,r22
 3955 118a DA01      		movw r26,r20
 3956 118c 5C01      		movw r10,r24
 3957 118e 6D01      		movw r12,r26
 3958               	.L195:
 3959               	.LBB614:
 3960               	.LBB615:
 3961               	.LM401:
 3962 1190 E981      		ldd r30,Y+1
 3963 1192 FA81      		ldd r31,Y+2
 3964 1194 54E0      		ldi r21,4
 3965 1196 EE0F      	1:	lsl r30
 3966 1198 FF1F      		rol r31
 3967 119a 5A95      		dec r21
 3968 119c 01F4      		brne 1b
 3969 119e 2981      		ldd r18,Y+1
 3970 11a0 3A81      		ldd r19,Y+2
 3971 11a2 E20F      		add r30,r18
 3972 11a4 F31F      		adc r31,r19
 3973 11a6 8B81      		ldd r24,Y+3
 3974 11a8 9C81      		ldd r25,Y+4
 3975 11aa E80F      		add r30,r24
 3976 11ac F91F      		adc r31,r25
 3977 11ae 260C      		add r2,r6
 3978 11b0 371C      		adc r3,r7
 3979 11b2 481C      		adc r4,r8
 3980 11b4 591C      		adc r5,r9
 3981 11b6 228E      		std Z+26,r2
 3982 11b8 338E      		std Z+27,r3
 3983 11ba 448E      		std Z+28,r4
 3984 11bc 558E      		std Z+29,r5
 3985               	.LBE615:
 3986               	.LBE614:
 3987               	.LBB616:
 3988               	.LBB617:
 3989               	.LM402:
 3990 11be A68E      		std Z+30,r10
 3991 11c0 B78E      		std Z+31,r11
 3992 11c2 C0A2      		std Z+32,r12
 3993 11c4 D1A2      		std Z+33,r13
 3994               	.LBE617:
 3995               	.LBE616:
 3996               	.LBB618:
 3997               	.LBB619:
 3998               	.LM403:
 3999 11c6 918D      		ldd r25,Z+25
 4000 11c8 892F      		mov r24,r25
 4001 11ca 8695      		lsr r24
 4002 11cc 8F70      		andi r24,lo8(15)
 4003 11ce 8130      		cpi r24,lo8(1)
 4004 11d0 01F0      		breq .L196
 4005               	.LBB620:
 4006               	.LBB621:
 4007               	.LM404:
 4008 11d2 917E      		andi r25,lo8(-31)
 4009 11d4 9260      		ori r25,lo8(2)
 4010 11d6 918F      		std Z+25,r25
 4011               	.LVL228:
 4012               	.L196:
 4013               	/* epilogue start */
 4014               	.LBE621:
 4015               	.LBE620:
 4016               	.LBE619:
 4017               	.LBE618:
 4018               	.LBE607:
 4019               	.LM405:
 4020 11d8 0F90      		pop __tmp_reg__
 4021 11da 0F90      		pop __tmp_reg__
 4022 11dc 0F90      		pop __tmp_reg__
 4023 11de 0F90      		pop __tmp_reg__
 4024 11e0 CF91      		pop r28
 4025 11e2 DF91      		pop r29
 4026 11e4 1F91      		pop r17
 4027 11e6 0F91      		pop r16
 4028 11e8 FF90      		pop r15
 4029 11ea EF90      		pop r14
 4030 11ec DF90      		pop r13
 4031 11ee CF90      		pop r12
 4032               	.LVL229:
 4033 11f0 BF90      		pop r11
 4034 11f2 AF90      		pop r10
 4035               	.LVL230:
 4036 11f4 9F90      		pop r9
 4037 11f6 8F90      		pop r8
 4038               	.LVL231:
 4039 11f8 7F90      		pop r7
 4040 11fa 6F90      		pop r6
 4041               	.LVL232:
 4042 11fc 5F90      		pop r5
 4043 11fe 4F90      		pop r4
 4044 1200 3F90      		pop r3
 4045 1202 2F90      		pop r2
 4046               	.LVL233:
 4047 1204 0895      		ret
 4048               	.LFE70:
 4050               	.global	Timebase_DownCounter_SS_Set_Forcefully
 4052               	Timebase_DownCounter_SS_Set_Forcefully:
 4053               	.LFB71:
 4054               	.LM406:
 4055               	.LVL234:
 4056               	/* prologue: function */
 4057               	/* frame size = 0 */
 4058               	.LBB622:
 4059               	.LBB623:
 4060               	.LBB624:
 4061               	.LBB625:
 4062               	.LM407:
 4063 1206 E091 0000 		lds r30,Timebase
 4064 120a F091 0000 		lds r31,(Timebase)+1
 4065 120e A82F      		mov r26,r24
 4066 1210 B0E0      		ldi r27,lo8(0)
 4067 1212 9D01      		movw r18,r26
 4068 1214 94E0      		ldi r25,4
 4069 1216 220F      	1:	lsl r18
 4070 1218 331F      		rol r19
 4071 121a 9A95      		dec r25
 4072 121c 01F4      		brne 1b
 4073 121e 2A0F      		add r18,r26
 4074 1220 3B1F      		adc r19,r27
 4075 1222 E20F      		add r30,r18
 4076 1224 F31F      		adc r31,r19
 4077 1226 168E      		std Z+30,__zero_reg__
 4078 1228 178E      		std Z+31,__zero_reg__
 4079 122a 10A2      		std Z+32,__zero_reg__
 4080 122c 11A2      		std Z+33,__zero_reg__
 4081               	.LBE625:
 4082               	.LBE624:
 4083               	.LBB626:
 4084               	.LBB627:
 4085               	.LM408:
 4086 122e 128E      		std Z+26,__zero_reg__
 4087 1230 138E      		std Z+27,__zero_reg__
 4088 1232 148E      		std Z+28,__zero_reg__
 4089 1234 158E      		std Z+29,__zero_reg__
 4090               	.LBE627:
 4091               	.LBE626:
 4092               	.LBB628:
 4093               	.LBB629:
 4094               	.LM409:
 4095 1236 12A2      		std Z+34,__zero_reg__
 4096 1238 13A2      		std Z+35,__zero_reg__
 4097 123a 14A2      		std Z+36,__zero_reg__
 4098 123c 15A2      		std Z+37,__zero_reg__
 4099               	.LBE629:
 4100               	.LBE628:
 4101               	.LBB630:
 4102               	.LBB631:
 4103               	.LM410:
 4104 123e 918D      		ldd r25,Z+25
 4105               	.LBE631:
 4106               	.LBE630:
 4107               	.LBB632:
 4108               	.LBB633:
 4109               	.LM411:
 4110 1240 907E      		andi r25,lo8(-32)
 4111 1242 918F      		std Z+25,r25
 4112               	.LBE633:
 4113               	.LBE632:
 4114               	.LBE623:
 4115               	.LBE622:
 4116               	.LM412:
 4117 1244 0E94 0000 		call Timebase_DownCounter_SS_Set_Securely
 4118               	.LVL235:
 4119               	/* epilogue start */
 4120               	.LM413:
 4121 1248 0895      		ret
 4122               	.LFE71:
 4124               	.global	Timebase_DownCounter_SS_Update
 4126               	Timebase_DownCounter_SS_Update:
 4127               	.LFB72:
 4128               	.LM414:
 4129               	.LVL236:
 4130 124a 2F92      		push r2
 4131 124c 3F92      		push r3
 4132 124e 4F92      		push r4
 4133 1250 5F92      		push r5
 4134 1252 6F92      		push r6
 4135 1254 7F92      		push r7
 4136 1256 8F92      		push r8
 4137 1258 9F92      		push r9
 4138 125a AF92      		push r10
 4139 125c BF92      		push r11
 4140 125e CF92      		push r12
 4141 1260 DF92      		push r13
 4142 1262 EF92      		push r14
 4143 1264 FF92      		push r15
 4144 1266 0F93      		push r16
 4145 1268 1F93      		push r17
 4146 126a DF93      		push r29
 4147 126c CF93      		push r28
 4148 126e 00D0      		rcall .
 4149 1270 00D0      		rcall .
 4150 1272 CDB7      		in r28,__SP_L__
 4151 1274 DEB7      		in r29,__SP_H__
 4152               	/* prologue: function */
 4153               	/* frame size = 4 */
 4154               	.LBB634:
 4155               	.LBB635:
 4156               	.LM415:
 4157 1276 2091 0000 		lds r18,Timebase
 4158 127a 3091 0000 		lds r19,(Timebase)+1
 4159 127e 3C83      		std Y+4,r19
 4160 1280 2B83      		std Y+3,r18
 4161 1282 C82E      		mov r12,r24
 4162 1284 DD24      		clr r13
 4163 1286 C601      		movw r24,r12
 4164               	.LVL237:
 4165 1288 44E0      		ldi r20,4
 4166 128a 880F      	1:	lsl r24
 4167 128c 991F      		rol r25
 4168 128e 4A95      		dec r20
 4169 1290 01F4      		brne 1b
 4170 1292 8C0D      		add r24,r12
 4171 1294 9D1D      		adc r25,r13
 4172 1296 820F      		add r24,r18
 4173 1298 931F      		adc r25,r19
 4174 129a 9A83      		std Y+2,r25
 4175 129c 8983      		std Y+1,r24
 4176 129e FC01      		movw r30,r24
 4177 12a0 818D      		ldd r24,Z+25
 4178 12a2 8695      		lsr r24
 4179 12a4 8F70      		andi r24,lo8(15)
 4180               	.LBE635:
 4181               	.LBE634:
 4182               	.LM416:
 4183 12a6 8130      		cpi r24,lo8(1)
 4184 12a8 01F0      		breq .+2
 4185 12aa 00C0      		rjmp .L200
 4186               	.LBB636:
 4187               	.LBB637:
 4188               	.LBB638:
 4189               	.LM417:
 4190 12ac F901      		movw r30,r18
 4191 12ae 8085      		ldd r24,Z+8
 4192 12b0 9185      		ldd r25,Z+9
 4193               	.LBE638:
 4194               	.LBE637:
 4195               	.LM418:
 4196 12b2 4C01      		movw r8,r24
 4197               	.LVL238:
 4198 12b4 AA24      		clr r10
 4199 12b6 BB24      		clr r11
 4200               	.LVL239:
 4201               	.LBB639:
 4202               	.LBB640:
 4203               	.LM419:
 4204 12b8 8285      		ldd r24,Z+10
 4205 12ba 9385      		ldd r25,Z+11
 4206 12bc A485      		ldd r26,Z+12
 4207 12be B585      		ldd r27,Z+13
 4208               	.LVL240:
 4209               	.LBE640:
 4210               	.LBE639:
 4211               	.LM420:
 4212 12c0 E981      		ldd r30,Y+1
 4213 12c2 FA81      		ldd r31,Y+2
 4214 12c4 E28C      		ldd r14,Z+26
 4215 12c6 F38C      		ldd r15,Z+27
 4216 12c8 048D      		ldd r16,Z+28
 4217 12ca 158D      		ldd r17,Z+29
 4218               	.LVL241:
 4219 12cc E81A      		sub r14,r24
 4220 12ce F90A      		sbc r15,r25
 4221 12d0 0A0B      		sbc r16,r26
 4222 12d2 1B0B      		sbc r17,r27
 4223 12d4 17FF      		sbrs r17,7
 4224 12d6 00C0      		rjmp .L201
 4225 12d8 EE24      		clr r14
 4226 12da FF24      		clr r15
 4227 12dc 8701      		movw r16,r14
 4228               	.L201:
 4229               	.LM421:
 4230 12de EB81      		ldd r30,Y+3
 4231 12e0 FC81      		ldd r31,Y+4
 4232 12e2 2181      		ldd r18,Z+1
 4233 12e4 3281      		ldd r19,Z+2
 4234 12e6 40E0      		ldi r20,lo8(0)
 4235 12e8 50E0      		ldi r21,hi8(0)
 4236 12ea C801      		movw r24,r16
 4237 12ec B701      		movw r22,r14
 4238 12ee 0E94 0000 		call __mulsi3
 4239               	.LM422:
 4240 12f2 F601      		movw r30,r12
 4241 12f4 24E0      		ldi r18,4
 4242 12f6 EE0F      	1:	lsl r30
 4243 12f8 FF1F      		rol r31
 4244 12fa 2A95      		dec r18
 4245 12fc 01F4      		brne 1b
 4246 12fe EC0D      		add r30,r12
 4247 1300 FD1D      		adc r31,r13
 4248 1302 2B81      		ldd r18,Y+3
 4249 1304 3C81      		ldd r19,Y+4
 4250 1306 E20F      		add r30,r18
 4251 1308 F31F      		adc r31,r19
 4252 130a 268D      		ldd r18,Z+30
 4253 130c 378D      		ldd r19,Z+31
 4254 130e 40A1      		ldd r20,Z+32
 4255 1310 51A1      		ldd r21,Z+33
 4256               	.LVL242:
 4257 1312 2819      		sub r18,r8
 4258 1314 3909      		sbc r19,r9
 4259 1316 4A09      		sbc r20,r10
 4260 1318 5B09      		sbc r21,r11
 4261 131a 260F      		add r18,r22
 4262 131c 371F      		adc r19,r23
 4263 131e 481F      		adc r20,r24
 4264 1320 591F      		adc r21,r25
 4265               	.LBB641:
 4266               	.LBB642:
 4267               	.LM423:
 4268 1322 22A3      		std Z+34,r18
 4269 1324 33A3      		std Z+35,r19
 4270 1326 44A3      		std Z+36,r20
 4271 1328 55A3      		std Z+37,r21
 4272               	.LBE642:
 4273               	.LBE641:
 4274               	.LM424:
 4275 132a 1216      		cp __zero_reg__,r18
 4276 132c 1306      		cpc __zero_reg__,r19
 4277 132e 1406      		cpc __zero_reg__,r20
 4278 1330 1506      		cpc __zero_reg__,r21
 4279 1332 04F4      		brge .+2
 4280 1334 00C0      		rjmp .L203
 4281               	.LBB643:
 4282               	.LBB644:
 4283               	.LBB645:
 4284               	.LBB646:
 4285               	.LM425:
 4286 1336 168E      		std Z+30,__zero_reg__
 4287 1338 178E      		std Z+31,__zero_reg__
 4288 133a 10A2      		std Z+32,__zero_reg__
 4289 133c 11A2      		std Z+33,__zero_reg__
 4290               	.LBE646:
 4291               	.LBE645:
 4292               	.LBB647:
 4293               	.LBB648:
 4294               	.LM426:
 4295 133e 128E      		std Z+26,__zero_reg__
 4296 1340 138E      		std Z+27,__zero_reg__
 4297 1342 148E      		std Z+28,__zero_reg__
 4298 1344 158E      		std Z+29,__zero_reg__
 4299               	.LBE648:
 4300               	.LBE647:
 4301               	.LBB649:
 4302               	.LBB650:
 4303               	.LM427:
 4304 1346 12A2      		std Z+34,__zero_reg__
 4305 1348 13A2      		std Z+35,__zero_reg__
 4306 134a 14A2      		std Z+36,__zero_reg__
 4307 134c 15A2      		std Z+37,__zero_reg__
 4308               	.LBE650:
 4309               	.LBE649:
 4310               	.LBB651:
 4311               	.LBB652:
 4312               	.LM428:
 4313 134e 818D      		ldd r24,Z+25
 4314               	.LBE652:
 4315               	.LBE651:
 4316               	.LBE644:
 4317               	.LBE643:
 4318               	.LBB653:
 4319               	.LBB654:
 4320               	.LM429:
 4321 1350 807E      		andi r24,lo8(-32)
 4322 1352 8860      		ori r24,lo8(8)
 4323 1354 818F      		std Z+25,r24
 4324 1356 00C0      		rjmp .L203
 4325               	.LVL243:
 4326               	.L200:
 4327               	.LBE654:
 4328               	.LBE653:
 4329               	.LBE636:
 4330               	.LM430:
 4331 1358 8230      		cpi r24,lo8(2)
 4332 135a 01F4      		brne .L203
 4333               	.LBB655:
 4334               	.LBB656:
 4335               	.LBB657:
 4336               	.LM431:
 4337 135c EB81      		ldd r30,Y+3
 4338 135e FC81      		ldd r31,Y+4
 4339 1360 6084      		ldd r6,Z+8
 4340 1362 7184      		ldd r7,Z+9
 4341               	.LBE657:
 4342               	.LBE656:
 4343               	.LBB658:
 4344               	.LBB659:
 4345               	.LM432:
 4346 1364 E284      		ldd r14,Z+10
 4347 1366 F384      		ldd r15,Z+11
 4348 1368 0485      		ldd r16,Z+12
 4349 136a 1585      		ldd r17,Z+13
 4350               	.LVL244:
 4351               	.LBE659:
 4352               	.LBE658:
 4353               	.LBB660:
 4354               	.LBB661:
 4355               	.LM433:
 4356 136c E981      		ldd r30,Y+1
 4357 136e FA81      		ldd r31,Y+2
 4358 1370 22A0      		ldd r2,Z+34
 4359 1372 33A0      		ldd r3,Z+35
 4360 1374 44A0      		ldd r4,Z+36
 4361 1376 55A0      		ldd r5,Z+37
 4362               	.LVL245:
 4363               	.LBE661:
 4364               	.LBE660:
 4365               	.LM434:
 4366 1378 EB81      		ldd r30,Y+3
 4367 137a FC81      		ldd r31,Y+4
 4368 137c 2181      		ldd r18,Z+1
 4369 137e 3281      		ldd r19,Z+2
 4370               	.LM435:
 4371 1380 A180      		ldd r10,Z+1
 4372 1382 B280      		ldd r11,Z+2
 4373               	.LBB662:
 4374               	.LBB663:
 4375               	.LM436:
 4376 1384 40E0      		ldi r20,lo8(0)
 4377 1386 50E0      		ldi r21,hi8(0)
 4378 1388 C201      		movw r24,r4
 4379 138a B101      		movw r22,r2
 4380 138c 0E94 0000 		call __divmodsi4
 4381 1390 E20E      		add r14,r18
 4382 1392 F31E      		adc r15,r19
 4383 1394 041F      		adc r16,r20
 4384 1396 151F      		adc r17,r21
 4385 1398 E981      		ldd r30,Y+1
 4386 139a FA81      		ldd r31,Y+2
 4387 139c E28E      		std Z+26,r14
 4388 139e F38E      		std Z+27,r15
 4389 13a0 048F      		std Z+28,r16
 4390 13a2 158F      		std Z+29,r17
 4391               	.LBE663:
 4392               	.LBE662:
 4393               	.LBB664:
 4394               	.LBB665:
 4395               	.LM437:
 4396 13a4 CC24      		clr r12
 4397 13a6 DD24      		clr r13
 4398 13a8 C201      		movw r24,r4
 4399 13aa B101      		movw r22,r2
 4400 13ac A601      		movw r20,r12
 4401 13ae 9501      		movw r18,r10
 4402 13b0 0E94 0000 		call __divmodsi4
 4403 13b4 8824      		clr r8
 4404 13b6 9924      		clr r9
 4405 13b8 660E      		add r6,r22
 4406 13ba 771E      		adc r7,r23
 4407 13bc 881E      		adc r8,r24
 4408 13be 991E      		adc r9,r25
 4409 13c0 E981      		ldd r30,Y+1
 4410 13c2 FA81      		ldd r31,Y+2
 4411 13c4 668E      		std Z+30,r6
 4412 13c6 778E      		std Z+31,r7
 4413 13c8 80A2      		std Z+32,r8
 4414 13ca 91A2      		std Z+33,r9
 4415               	.LVL246:
 4416               	.L203:
 4417               	/* epilogue start */
 4418               	.LBE665:
 4419               	.LBE664:
 4420               	.LBE655:
 4421               	.LM438:
 4422 13cc 0F90      		pop __tmp_reg__
 4423 13ce 0F90      		pop __tmp_reg__
 4424 13d0 0F90      		pop __tmp_reg__
 4425 13d2 0F90      		pop __tmp_reg__
 4426 13d4 CF91      		pop r28
 4427 13d6 DF91      		pop r29
 4428 13d8 1F91      		pop r17
 4429 13da 0F91      		pop r16
 4430 13dc FF90      		pop r15
 4431 13de EF90      		pop r14
 4432               	.LVL247:
 4433 13e0 DF90      		pop r13
 4434 13e2 CF90      		pop r12
 4435 13e4 BF90      		pop r11
 4436 13e6 AF90      		pop r10
 4437               	.LVL248:
 4438 13e8 9F90      		pop r9
 4439 13ea 8F90      		pop r8
 4440               	.LVL249:
 4441 13ec 7F90      		pop r7
 4442 13ee 6F90      		pop r6
 4443 13f0 5F90      		pop r5
 4444 13f2 4F90      		pop r4
 4445 13f4 3F90      		pop r3
 4446 13f6 2F90      		pop r2
 4447               	.LVL250:
 4448 13f8 0895      		ret
 4449               	.LFE72:
 4451               	.global	Timebase_DownCounter_SS_Expired
 4453               	Timebase_DownCounter_SS_Expired:
 4454               	.LFB73:
 4455               	.LM439:
 4456               	.LVL251:
 4457               	/* prologue: function */
 4458               	/* frame size = 0 */
 4459               	.LM440:
 4460 13fa 40E0      		ldi r20,lo8(0)
 4461 13fc E091 0000 		lds r30,Timebase
 4462 1400 F091 0000 		lds r31,(Timebase)+1
 4463 1404 90E0      		ldi r25,lo8(0)
 4464               	.LVL252:
 4465 1406 9C01      		movw r18,r24
 4466 1408 54E0      		ldi r21,4
 4467 140a 220F      	1:	lsl r18
 4468 140c 331F      		rol r19
 4469 140e 5A95      		dec r21
 4470 1410 01F4      		brne 1b
 4471 1412 280F      		add r18,r24
 4472 1414 391F      		adc r19,r25
 4473 1416 E20F      		add r30,r18
 4474 1418 F31F      		adc r31,r19
 4475 141a 818D      		ldd r24,Z+25
 4476               	.LVL253:
 4477 141c 8695      		lsr r24
 4478 141e 8F70      		andi r24,lo8(15)
 4479 1420 8430      		cpi r24,lo8(4)
 4480 1422 01F4      		brne .L205
 4481 1424 41E0      		ldi r20,lo8(1)
 4482               	.L205:
 4483               	.LM441:
 4484 1426 842F      		mov r24,r20
 4485               	/* epilogue start */
 4486 1428 0895      		ret
 4487               	.LFE73:
 4489               	.global	Timebase_DownCounter_SS_Expired_Event
 4491               	Timebase_DownCounter_SS_Expired_Event:
 4492               	.LFB74:
 4493               	.LM442:
 4494               	.LVL254:
 4495               	/* prologue: function */
 4496               	/* frame size = 0 */
 4497               	.LBB666:
 4498               	.LBB667:
 4499               	.LM443:
 4500 142a E091 0000 		lds r30,Timebase
 4501 142e F091 0000 		lds r31,(Timebase)+1
 4502 1432 90E0      		ldi r25,lo8(0)
 4503               	.LBE667:
 4504               	.LBE666:
 4505               	.LM444:
 4506 1434 9C01      		movw r18,r24
 4507               	.LVL255:
 4508 1436 64E0      		ldi r22,4
 4509 1438 220F      	1:	lsl r18
 4510 143a 331F      		rol r19
 4511 143c 6A95      		dec r22
 4512 143e 01F4      		brne 1b
 4513 1440 280F      		add r18,r24
 4514 1442 391F      		adc r19,r25
 4515 1444 E20F      		add r30,r18
 4516 1446 F31F      		adc r31,r19
 4517 1448 818D      		ldd r24,Z+25
 4518 144a 8695      		lsr r24
 4519 144c 8F70      		andi r24,lo8(15)
 4520 144e 8430      		cpi r24,lo8(4)
 4521 1450 01F0      		breq .L208
 4522 1452 80E0      		ldi r24,lo8(0)
 4523 1454 0895      		ret
 4524               	.L208:
 4525               	.LBB668:
 4526               	.LBB669:
 4527               	.LBB670:
 4528               	.LBB671:
 4529               	.LBB672:
 4530               	.LBB673:
 4531               	.LM445:
 4532 1456 168E      		std Z+30,__zero_reg__
 4533 1458 178E      		std Z+31,__zero_reg__
 4534 145a 10A2      		std Z+32,__zero_reg__
 4535 145c 11A2      		std Z+33,__zero_reg__
 4536               	.LBE673:
 4537               	.LBE672:
 4538               	.LBB674:
 4539               	.LBB675:
 4540               	.LM446:
 4541 145e 128E      		std Z+26,__zero_reg__
 4542 1460 138E      		std Z+27,__zero_reg__
 4543 1462 148E      		std Z+28,__zero_reg__
 4544 1464 158E      		std Z+29,__zero_reg__
 4545               	.LBE675:
 4546               	.LBE674:
 4547               	.LBB676:
 4548               	.LBB677:
 4549               	.LM447:
 4550 1466 12A2      		std Z+34,__zero_reg__
 4551 1468 13A2      		std Z+35,__zero_reg__
 4552 146a 14A2      		std Z+36,__zero_reg__
 4553 146c 15A2      		std Z+37,__zero_reg__
 4554               	.LBE677:
 4555               	.LBE676:
 4556               	.LBB678:
 4557               	.LBB679:
 4558               	.LM448:
 4559 146e 818D      		ldd r24,Z+25
 4560               	.LBE679:
 4561               	.LBE678:
 4562               	.LBB680:
 4563               	.LBB681:
 4564               	.LM449:
 4565 1470 807E      		andi r24,lo8(-32)
 4566 1472 818F      		std Z+25,r24
 4567 1474 81E0      		ldi r24,lo8(1)
 4568               	.LBE681:
 4569               	.LBE680:
 4570               	.LBE671:
 4571               	.LBE670:
 4572               	.LBE669:
 4573               	.LBE668:
 4574               	.LM450:
 4575 1476 0895      		ret
 4576               	.LFE74:
 4578               	.global	Timebase_DownCounter_SS_Set_Period_Value_Securely
 4580               	Timebase_DownCounter_SS_Set_Period_Value_Securely:
 4581               	.LFB75:
 4582               	.LM451:
 4583               	.LVL256:
 4584 1478 CF93      		push r28
 4585 147a DF93      		push r29
 4586               	/* prologue: function */
 4587               	/* frame size = 0 */
 4588               	.LBB682:
 4589               	.LBB683:
 4590               	.LM452:
 4591 147c C091 0000 		lds r28,Timebase
 4592 1480 D091 0000 		lds r29,(Timebase)+1
 4593 1484 282F      		mov r18,r24
 4594 1486 30E0      		ldi r19,lo8(0)
 4595               	.LBE683:
 4596               	.LBE682:
 4597               	.LM453:
 4598 1488 F901      		movw r30,r18
 4599 148a A4E0      		ldi r26,4
 4600 148c EE0F      	1:	lsl r30
 4601 148e FF1F      		rol r31
 4602 1490 AA95      		dec r26
 4603 1492 01F4      		brne 1b
 4604 1494 E20F      		add r30,r18
 4605 1496 F31F      		adc r31,r19
 4606 1498 EC0F      		add r30,r28
 4607 149a FD1F      		adc r31,r29
 4608 149c 818D      		ldd r24,Z+25
 4609               	.LVL257:
 4610 149e 80FD      		sbrc r24,0
 4611 14a0 00C0      		rjmp .L215
 4612               	.LM454:
 4613 14a2 82A1      		ldd r24,Z+34
 4614 14a4 93A1      		ldd r25,Z+35
 4615 14a6 A4A1      		ldd r26,Z+36
 4616 14a8 B5A1      		ldd r27,Z+37
 4617 14aa 841B      		sub r24,r20
 4618 14ac 950B      		sbc r25,r21
 4619 14ae A60B      		sbc r26,r22
 4620 14b0 B70B      		sbc r27,r23
 4621               	.LBB684:
 4622               	.LBB685:
 4623               	.LM455:
 4624 14b2 B7FF      		sbrs r27,7
 4625 14b4 00C0      		rjmp .L213
 4626               	.LM456:
 4627 14b6 16A2      		std Z+38,__zero_reg__
 4628 14b8 17A2      		std Z+39,__zero_reg__
 4629 14ba 10A6      		std Z+40,__zero_reg__
 4630 14bc 11A6      		std Z+41,__zero_reg__
 4631 14be 00C0      		rjmp .L214
 4632               	.L213:
 4633               	.LM457:
 4634 14c0 86A3      		std Z+38,r24
 4635 14c2 97A3      		std Z+39,r25
 4636 14c4 A0A7      		std Z+40,r26
 4637 14c6 B1A7      		std Z+41,r27
 4638               	.L214:
 4639               	.LBE685:
 4640               	.LBE684:
 4641               	.LBB686:
 4642               	.LBB687:
 4643               	.LM458:
 4644 14c8 F901      		movw r30,r18
 4645 14ca 74E0      		ldi r23,4
 4646 14cc EE0F      	1:	lsl r30
 4647 14ce FF1F      		rol r31
 4648 14d0 7A95      		dec r23
 4649 14d2 01F4      		brne 1b
 4650 14d4 E20F      		add r30,r18
 4651 14d6 F31F      		adc r31,r19
 4652 14d8 EC0F      		add r30,r28
 4653 14da FD1F      		adc r31,r29
 4654 14dc 818D      		ldd r24,Z+25
 4655 14de 8160      		ori r24,lo8(1)
 4656 14e0 818F      		std Z+25,r24
 4657               	.L215:
 4658               	/* epilogue start */
 4659               	.LBE687:
 4660               	.LBE686:
 4661               	.LM459:
 4662 14e2 DF91      		pop r29
 4663 14e4 CF91      		pop r28
 4664 14e6 0895      		ret
 4665               	.LFE75:
 4667               	.global	Timebase_DownCounter_SS_Get_Remaining_Period_Value
 4669               	Timebase_DownCounter_SS_Get_Remaining_Period_Value:
 4670               	.LFB76:
 4671               	.LM460:
 4672               	.LVL258:
 4673               	/* prologue: function */
 4674               	/* frame size = 0 */
 4675               	.LBB688:
 4676               	.LBB689:
 4677               	.LM461:
 4678 14e8 E091 0000 		lds r30,Timebase
 4679 14ec F091 0000 		lds r31,(Timebase)+1
 4680 14f0 90E0      		ldi r25,lo8(0)
 4681               	.LBE689:
 4682               	.LBE688:
 4683               	.LM462:
 4684 14f2 9C01      		movw r18,r24
 4685               	.LVL259:
 4686 14f4 B4E0      		ldi r27,4
 4687 14f6 220F      	1:	lsl r18
 4688 14f8 331F      		rol r19
 4689 14fa BA95      		dec r27
 4690 14fc 01F4      		brne 1b
 4691 14fe 280F      		add r18,r24
 4692 1500 391F      		adc r19,r25
 4693 1502 E20F      		add r30,r18
 4694 1504 F31F      		adc r31,r19
 4695 1506 22A1      		ldd r18,Z+34
 4696 1508 33A1      		ldd r19,Z+35
 4697 150a 44A1      		ldd r20,Z+36
 4698 150c 55A1      		ldd r21,Z+37
 4699               	.LVL260:
 4700 150e 86A1      		ldd r24,Z+38
 4701 1510 97A1      		ldd r25,Z+39
 4702 1512 A0A5      		ldd r26,Z+40
 4703 1514 B1A5      		ldd r27,Z+41
 4704 1516 281B      		sub r18,r24
 4705 1518 390B      		sbc r19,r25
 4706 151a 4A0B      		sbc r20,r26
 4707 151c 5B0B      		sbc r21,r27
 4708 151e 57FF      		sbrs r21,7
 4709 1520 00C0      		rjmp .L217
 4710 1522 20E0      		ldi r18,lo8(0)
 4711 1524 30E0      		ldi r19,hi8(0)
 4712 1526 40E0      		ldi r20,hlo8(0)
 4713 1528 50E0      		ldi r21,hhi8(0)
 4714               	.L217:
 4715               	.LM463:
 4716 152a B901      		movw r22,r18
 4717               	.LVL261:
 4718 152c CA01      		movw r24,r20
 4719               	/* epilogue start */
 4720 152e 0895      		ret
 4721               	.LFE76:
 4723               	.global	Timebase_DownCounter_SS_Period_Value_Expired
 4725               	Timebase_DownCounter_SS_Period_Value_Expired:
 4726               	.LFB77:
 4727               	.LM464:
 4728               	.LVL262:
 4729 1530 CF93      		push r28
 4730 1532 DF93      		push r29
 4731               	/* prologue: function */
 4732               	/* frame size = 0 */
 4733               	.LBB690:
 4734               	.LBB691:
 4735               	.LBB692:
 4736               	.LBB693:
 4737               	.LM465:
 4738 1534 C091 0000 		lds r28,Timebase
 4739 1538 D091 0000 		lds r29,(Timebase)+1
 4740 153c 682F      		mov r22,r24
 4741 153e 70E0      		ldi r23,lo8(0)
 4742               	.LBE693:
 4743               	.LBE692:
 4744               	.LM466:
 4745 1540 FB01      		movw r30,r22
 4746 1542 44E0      		ldi r20,4
 4747 1544 EE0F      	1:	lsl r30
 4748 1546 FF1F      		rol r31
 4749 1548 4A95      		dec r20
 4750 154a 01F4      		brne 1b
 4751 154c E60F      		add r30,r22
 4752 154e F71F      		adc r31,r23
 4753 1550 EC0F      		add r30,r28
 4754 1552 FD1F      		adc r31,r29
 4755 1554 22A1      		ldd r18,Z+34
 4756 1556 33A1      		ldd r19,Z+35
 4757 1558 44A1      		ldd r20,Z+36
 4758 155a 55A1      		ldd r21,Z+37
 4759               	.LVL263:
 4760 155c 86A1      		ldd r24,Z+38
 4761 155e 97A1      		ldd r25,Z+39
 4762 1560 A0A5      		ldd r26,Z+40
 4763 1562 B1A5      		ldd r27,Z+41
 4764               	.LVL264:
 4765 1564 281B      		sub r18,r24
 4766 1566 390B      		sbc r19,r25
 4767 1568 4A0B      		sbc r20,r26
 4768 156a 5B0B      		sbc r21,r27
 4769               	.LM467:
 4770 156c 57FD      		sbrc r21,7
 4771 156e 00C0      		rjmp .L220
 4772               	.LBE691:
 4773               	.LBE690:
 4774               	.LM468:
 4775 1570 2115      		cp r18,__zero_reg__
 4776 1572 3105      		cpc r19,__zero_reg__
 4777 1574 4105      		cpc r20,__zero_reg__
 4778 1576 5105      		cpc r21,__zero_reg__
 4779 1578 01F0      		breq .L220
 4780 157a 20E0      		ldi r18,lo8(0)
 4781               	.LVL265:
 4782 157c 00C0      		rjmp .L221
 4783               	.LVL266:
 4784               	.L220:
 4785 157e 20E0      		ldi r18,lo8(0)
 4786               	.LVL267:
 4787 1580 CB01      		movw r24,r22
 4788 1582 34E0      		ldi r19,4
 4789 1584 880F      	1:	lsl r24
 4790 1586 991F      		rol r25
 4791 1588 3A95      		dec r19
 4792 158a 01F4      		brne 1b
 4793 158c 860F      		add r24,r22
 4794 158e 971F      		adc r25,r23
 4795 1590 C80F      		add r28,r24
 4796 1592 D91F      		adc r29,r25
 4797 1594 898D      		ldd r24,Y+25
 4798 1596 80FF      		sbrs r24,0
 4799 1598 21E0      		ldi r18,lo8(1)
 4800               	.L222:
 4801 159a 81E0      		ldi r24,lo8(1)
 4802 159c 2827      		eor r18,r24
 4803               	.L221:
 4804               	.LM469:
 4805 159e 822F      		mov r24,r18
 4806               	/* epilogue start */
 4807 15a0 DF91      		pop r29
 4808 15a2 CF91      		pop r28
 4809 15a4 0895      		ret
 4810               	.LFE77:
 4812               	.global	Timebase_DownCounter_SS_Period_Value_Expired_Event
 4814               	Timebase_DownCounter_SS_Period_Value_Expired_Event:
 4815               	.LFB78:
 4816               	.LM470:
 4817               	.LVL268:
 4818 15a6 1F93      		push r17
 4819               	/* prologue: function */
 4820               	/* frame size = 0 */
 4821 15a8 182F      		mov r17,r24
 4822               	.LM471:
 4823 15aa 0E94 0000 		call Timebase_DownCounter_SS_Period_Value_Expired
 4824               	.LVL269:
 4825 15ae 8130      		cpi r24,lo8(1)
 4826 15b0 01F0      		breq .L225
 4827 15b2 80E0      		ldi r24,lo8(0)
 4828 15b4 00C0      		rjmp .L226
 4829               	.L225:
 4830               	.LBB694:
 4831               	.LBB695:
 4832               	.LM472:
 4833 15b6 E091 0000 		lds r30,Timebase
 4834 15ba F091 0000 		lds r31,(Timebase)+1
 4835 15be 212F      		mov r18,r17
 4836 15c0 30E0      		ldi r19,lo8(0)
 4837               	.LVL270:
 4838 15c2 C901      		movw r24,r18
 4839 15c4 54E0      		ldi r21,4
 4840 15c6 880F      	1:	lsl r24
 4841 15c8 991F      		rol r25
 4842 15ca 5A95      		dec r21
 4843 15cc 01F4      		brne 1b
 4844 15ce 820F      		add r24,r18
 4845 15d0 931F      		adc r25,r19
 4846 15d2 E80F      		add r30,r24
 4847 15d4 F91F      		adc r31,r25
 4848 15d6 818D      		ldd r24,Z+25
 4849 15d8 8E7F      		andi r24,lo8(-2)
 4850 15da 818F      		std Z+25,r24
 4851 15dc 81E0      		ldi r24,lo8(1)
 4852               	.L226:
 4853               	/* epilogue start */
 4854               	.LBE695:
 4855               	.LBE694:
 4856               	.LM473:
 4857 15de 1F91      		pop r17
 4858               	.LVL271:
 4859 15e0 0895      		ret
 4860               	.LFE78:
 4862               	.global	Timebase_DownCounter_SS_Update_All
 4864               	Timebase_DownCounter_SS_Update_All:
 4865               	.LFB79:
 4866               	.LM474:
 4867 15e2 1F93      		push r17
 4868               	/* prologue: function */
 4869               	/* frame size = 0 */
 4870               	.LM475:
 4871 15e4 10E0      		ldi r17,lo8(0)
 4872               	.LVL272:
 4873               	.L229:
 4874               	.LBB696:
 4875               	.LM476:
 4876 15e6 812F      		mov r24,r17
 4877 15e8 0E94 0000 		call Timebase_DownCounter_SS_Update
 4878               	.LM477:
 4879 15ec 1F5F      		subi r17,lo8(-(1))
 4880 15ee 1530      		cpi r17,lo8(5)
 4881 15f0 01F4      		brne .L229
 4882               	/* epilogue start */
 4883               	.LBE696:
 4884               	.LM478:
 4885 15f2 1F91      		pop r17
 4886               	.LVL273:
 4887 15f4 0895      		ret
 4888               	.LFE79:
 4890               	.global	Timebase_DownCounter_SS_Reset_All
 4892               	Timebase_DownCounter_SS_Reset_All:
 4893               	.LFB80:
 4894               	.LM479:
 4895               	/* prologue: function */
 4896               	/* frame size = 0 */
 4897               	.LBB697:
 4898               	.LBB698:
 4899               	.LBB699:
 4900               	.LBB700:
 4901               	.LBB701:
 4902               	.LM480:
 4903 15f6 4091 0000 		lds r20,Timebase
 4904 15fa 5091 0000 		lds r21,(Timebase)+1
 4905 15fe DA01      		movw r26,r20
 4906 1600 5A96      		adiw r26,26
 4907 1602 20E0      		ldi r18,lo8(0)
 4908 1604 30E0      		ldi r19,hi8(0)
 4909               	.L233:
 4910 1606 1496      		adiw r26,4
 4911 1608 1D92      		st X+,__zero_reg__
 4912 160a 1D92      		st X+,__zero_reg__
 4913 160c 1D92      		st X+,__zero_reg__
 4914 160e 1C92      		st X,__zero_reg__
 4915 1610 1797      		sbiw r26,4+3
 4916               	.LBE701:
 4917               	.LBE700:
 4918               	.LBB702:
 4919               	.LBB703:
 4920               	.LM481:
 4921 1612 1D92      		st X+,__zero_reg__
 4922 1614 1D92      		st X+,__zero_reg__
 4923 1616 1D92      		st X+,__zero_reg__
 4924 1618 1C92      		st X,__zero_reg__
 4925 161a 1397      		sbiw r26,3
 4926               	.LBE703:
 4927               	.LBE702:
 4928               	.LBB704:
 4929               	.LBB705:
 4930               	.LM482:
 4931 161c 1896      		adiw r26,8
 4932 161e 1D92      		st X+,__zero_reg__
 4933 1620 1D92      		st X+,__zero_reg__
 4934 1622 1D92      		st X+,__zero_reg__
 4935 1624 1C92      		st X,__zero_reg__
 4936 1626 1B97      		sbiw r26,8+3
 4937               	.LBE705:
 4938               	.LBE704:
 4939               	.LBB706:
 4940               	.LBB707:
 4941               	.LM483:
 4942 1628 F901      		movw r30,r18
 4943 162a 64E0      		ldi r22,4
 4944 162c EE0F      	1:	lsl r30
 4945 162e FF1F      		rol r31
 4946 1630 6A95      		dec r22
 4947 1632 01F4      		brne 1b
 4948 1634 E20F      		add r30,r18
 4949 1636 F31F      		adc r31,r19
 4950 1638 E40F      		add r30,r20
 4951 163a F51F      		adc r31,r21
 4952 163c 818D      		ldd r24,Z+25
 4953               	.LBE707:
 4954               	.LBE706:
 4955               	.LBB708:
 4956               	.LBB709:
 4957               	.LM484:
 4958 163e 807E      		andi r24,lo8(-32)
 4959 1640 818F      		std Z+25,r24
 4960 1642 2F5F      		subi r18,lo8(-(1))
 4961 1644 3F4F      		sbci r19,hi8(-(1))
 4962 1646 5196      		adiw r26,17
 4963               	.LBE709:
 4964               	.LBE708:
 4965               	.LBE699:
 4966               	.LBE698:
 4967               	.LM485:
 4968 1648 2530      		cpi r18,5
 4969 164a 3105      		cpc r19,__zero_reg__
 4970 164c 01F4      		brne .L233
 4971               	/* epilogue start */
 4972               	.LBE697:
 4973               	.LM486:
 4974 164e 0895      		ret
 4975               	.LFE80:
 4977               	.global	Timebase_Reset
 4979               	Timebase_Reset:
 4980               	.LFB81:
 4981               	.LM487:
 4982               	/* prologue: function */
 4983               	/* frame size = 0 */
 4984               	.LM488:
 4985 1650 0E94 0000 		call Timebase_DownCounter_SS_Reset_All
 4986               	.LM489:
 4987 1654 0E94 0000 		call Timebase_DownCounter_Reset_All
 4988               	/* epilogue start */
 4989               	.LM490:
 4990 1658 0895      		ret
 4991               	.LFE81:
 4993               	.global	Timebase_Init
 4995               	Timebase_Init:
 4996               	.LFB82:
 4997               	.LM491:
 4998               	.LVL274:
 4999 165a 0F93      		push r16
 5000 165c 1F93      		push r17
 5001               	/* prologue: function */
 5002               	/* frame size = 0 */
 5003 165e 8C01      		movw r16,r24
 5004               	.LM492:
 5005 1660 0E94 0000 		call Timebase_Struct_Init
 5006               	.LVL275:
 5007               	.LM493:
 5008 1664 C801      		movw r24,r16
 5009 1666 0E94 0000 		call Timebase_Timer_Config
 5010               	.LM494:
 5011 166a 0E94 0000 		call Timebase_Reset
 5012               	/* epilogue start */
 5013               	.LM495:
 5014 166e 1F91      		pop r17
 5015 1670 0F91      		pop r16
 5016               	.LVL276:
 5017 1672 0895      		ret
 5018               	.LFE82:
 5020               	.global	Timebase_Main_Loop_Executables
 5022               	Timebase_Main_Loop_Executables:
 5023               	.LFB83:
 5024               	.LM496:
 5025               	/* prologue: function */
 5026               	/* frame size = 0 */
 5027               	.LM497:
 5028 1674 E091 0000 		lds r30,Timebase
 5029 1678 F091 0000 		lds r31,(Timebase)+1
 5030 167c 8789      		ldd r24,Z+23
 5031 167e 83FF      		sbrs r24,3
 5032 1680 00C0      		rjmp .L241
 5033               	.LM498:
 5034 1682 0E94 0000 		call Timebase_DownCounter_SS_Update_All
 5035               	.LM499:
 5036 1686 E091 0000 		lds r30,Timebase
 5037 168a F091 0000 		lds r31,(Timebase)+1
 5038 168e 8789      		ldd r24,Z+23
 5039 1690 877F      		andi r24,lo8(-9)
 5040 1692 878B      		std Z+23,r24
 5041               	.L241:
 5042               	.LM500:
 5043 1694 E091 0000 		lds r30,Timebase
 5044 1698 F091 0000 		lds r31,(Timebase)+1
 5045 169c 8789      		ldd r24,Z+23
 5046 169e 81FF      		sbrs r24,1
 5047 16a0 00C0      		rjmp .L243
 5048               	.LM501:
 5049 16a2 0E94 0000 		call Timebase_DownCounter_Update_All
 5050               	.LM502:
 5051 16a6 E091 0000 		lds r30,Timebase
 5052 16aa F091 0000 		lds r31,(Timebase)+1
 5053 16ae 8789      		ldd r24,Z+23
 5054 16b0 8D7F      		andi r24,lo8(-3)
 5055 16b2 878B      		std Z+23,r24
 5056               	.L243:
 5057 16b4 0895      		ret
 5058               	.LFE83:
 5060               	.global	Timebase_ISR_Executables
 5062               	Timebase_ISR_Executables:
 5063               	.LFB84:
 5064               	.LM503:
 5065               	/* prologue: function */
 5066               	/* frame size = 0 */
 5067               	.LM504:
 5068 16b6 E091 0000 		lds r30,Timebase
 5069 16ba F091 0000 		lds r31,(Timebase)+1
 5070 16be 8085      		ldd r24,Z+8
 5071 16c0 9185      		ldd r25,Z+9
 5072 16c2 0196      		adiw r24,1
 5073 16c4 9187      		std Z+9,r25
 5074 16c6 8087      		std Z+8,r24
 5075               	.LM505:
 5076 16c8 8381      		ldd r24,Z+3
 5077 16ca 86BD      		out 70-32,r24
 5078               	.LM506:
 5079 16cc 8789      		ldd r24,Z+23
 5080 16ce 8860      		ori r24,lo8(8)
 5081 16d0 878B      		std Z+23,r24
 5082               	.LM507:
 5083 16d2 8085      		ldd r24,Z+8
 5084 16d4 9185      		ldd r25,Z+9
 5085 16d6 6181      		ldd r22,Z+1
 5086 16d8 7281      		ldd r23,Z+2
 5087 16da 0E94 0000 		call __udivmodhi4
 5088 16de 892B      		or r24,r25
 5089 16e0 01F4      		brne .L246
 5090               	.LM508:
 5091 16e2 8285      		ldd r24,Z+10
 5092 16e4 9385      		ldd r25,Z+11
 5093 16e6 A485      		ldd r26,Z+12
 5094 16e8 B585      		ldd r27,Z+13
 5095 16ea 0196      		adiw r24,1
 5096 16ec A11D      		adc r26,__zero_reg__
 5097 16ee B11D      		adc r27,__zero_reg__
 5098 16f0 8287      		std Z+10,r24
 5099 16f2 9387      		std Z+11,r25
 5100 16f4 A487      		std Z+12,r26
 5101 16f6 B587      		std Z+13,r27
 5102               	.LM509:
 5103 16f8 1186      		std Z+9,__zero_reg__
 5104 16fa 1086      		std Z+8,__zero_reg__
 5105               	.LM510:
 5106 16fc 8789      		ldd r24,Z+23
 5107 16fe 8260      		ori r24,lo8(2)
 5108 1700 878B      		std Z+23,r24
 5109               	.L246:
 5110 1702 0895      		ret
 5111               	.LFE84:
 5113               	.global	__vector_16
 5115               	__vector_16:
 5116               	.LFB85:
 5117               	.LM511:
 5118 1704 1F92      		push __zero_reg__
 5119 1706 0F92      		push r0
 5120 1708 0FB6      		in r0,__SREG__
 5121 170a 0F92      		push r0
 5122 170c 1124      		clr __zero_reg__
 5123 170e 2F93      		push r18
 5124 1710 3F93      		push r19
 5125 1712 4F93      		push r20
 5126 1714 5F93      		push r21
 5127 1716 6F93      		push r22
 5128 1718 7F93      		push r23
 5129 171a 8F93      		push r24
 5130 171c 9F93      		push r25
 5131 171e AF93      		push r26
 5132 1720 BF93      		push r27
 5133 1722 EF93      		push r30
 5134 1724 FF93      		push r31
 5135               	/* prologue: Signal */
 5136               	/* frame size = 0 */
 5137               	.LM512:
 5138 1726 5D9A      		sbi 43-32,5
 5139               	.LM513:
 5140 1728 0E94 0000 		call Timebase_ISR_Executables
 5141               	.LM514:
 5142 172c 5D98      		cbi 43-32,5
 5143               	/* epilogue start */
 5144               	.LM515:
 5145 172e FF91      		pop r31
 5146 1730 EF91      		pop r30
 5147 1732 BF91      		pop r27
 5148 1734 AF91      		pop r26
 5149 1736 9F91      		pop r25
 5150 1738 8F91      		pop r24
 5151 173a 7F91      		pop r23
 5152 173c 6F91      		pop r22
 5153 173e 5F91      		pop r21
 5154 1740 4F91      		pop r20
 5155 1742 3F91      		pop r19
 5156 1744 2F91      		pop r18
 5157 1746 0F90      		pop r0
 5158 1748 0FBE      		out __SREG__,r0
 5159 174a 0F90      		pop r0
 5160 174c 1F90      		pop __zero_reg__
 5161 174e 1895      		reti
 5162               	.LFE85:
 5164               		.data
 5167               	C.2.1640:
 5168 0000 0100      		.word	1
 5169 0002 0800      		.word	8
 5170 0004 4000      		.word	64
 5171 0006 0001      		.word	256
 5172 0008 0004      		.word	1024
 5173               		.comm Timebase_type,175,1
 5174               		.comm Timebase,2,1
 5831               	.Letext0:
DEFINED SYMBOLS
                            *ABS*:00000000 timebase.c
C:\Users\WALTON\AppData\Local\Temp/ccNioc54.s:2      *ABS*:0000003f __SREG__
C:\Users\WALTON\AppData\Local\Temp/ccNioc54.s:3      *ABS*:0000003e __SP_H__
C:\Users\WALTON\AppData\Local\Temp/ccNioc54.s:4      *ABS*:0000003d __SP_L__
C:\Users\WALTON\AppData\Local\Temp/ccNioc54.s:5      *ABS*:00000034 __CCP__
C:\Users\WALTON\AppData\Local\Temp/ccNioc54.s:6      *ABS*:00000000 __tmp_reg__
C:\Users\WALTON\AppData\Local\Temp/ccNioc54.s:7      *ABS*:00000001 __zero_reg__
C:\Users\WALTON\AppData\Local\Temp/ccNioc54.s:18     .text:00000000 Timebase_Struct_Init
                            *COM*:000000af Timebase_type
                            *COM*:00000002 Timebase
C:\Users\WALTON\AppData\Local\Temp/ccNioc54.s:179    .text:0000012c Timebase_Timer_Config
C:\Users\WALTON\AppData\Local\Temp/ccNioc54.s:5167   .data:00000000 C.2.1640
C:\Users\WALTON\AppData\Local\Temp/ccNioc54.s:499    .text:000002c6 Timebase_Atomic_Operation_Start
C:\Users\WALTON\AppData\Local\Temp/ccNioc54.s:517    .text:000002ca Timebase_Atomic_Operation_End
C:\Users\WALTON\AppData\Local\Temp/ccNioc54.s:535    .text:000002ce Timebase_Token_Executing
C:\Users\WALTON\AppData\Local\Temp/ccNioc54.s:551    .text:000002da Timebase_Token_Add
C:\Users\WALTON\AppData\Local\Temp/ccNioc54.s:577    .text:000002f0 Timebase_Token_Remove
C:\Users\WALTON\AppData\Local\Temp/ccNioc54.s:603    .text:00000306 Timebase_Token_Remove_All
C:\Users\WALTON\AppData\Local\Temp/ccNioc54.s:619    .text:00000312 Timebase_Timer_Get_SubSeconds
C:\Users\WALTON\AppData\Local\Temp/ccNioc54.s:637    .text:00000322 Timebase_Timer_Get_Seconds
C:\Users\WALTON\AppData\Local\Temp/ccNioc54.s:658    .text:00000338 Timebase_Timer_Get_SubSeconds_Atomic
C:\Users\WALTON\AppData\Local\Temp/ccNioc54.s:698    .text:0000034c Timebase_Timer_Get_Seconds_Atomic
C:\Users\WALTON\AppData\Local\Temp/ccNioc54.s:741    .text:00000366 Timebase_Timer_Set_SubSeconds
C:\Users\WALTON\AppData\Local\Temp/ccNioc54.s:759    .text:00000374 Timebase_Timer_Set_Seconds
C:\Users\WALTON\AppData\Local\Temp/ccNioc54.s:779    .text:00000386 Timebase_Timer_Delay_SubSeconds
C:\Users\WALTON\AppData\Local\Temp/ccNioc54.s:1003   .text:00000446 Timebase_Timer_Await_SubSeconds
C:\Users\WALTON\AppData\Local\Temp/ccNioc54.s:1132   .text:000004c2 Timebase_Timer_Delay_Seconds
C:\Users\WALTON\AppData\Local\Temp/ccNioc54.s:1229   .text:00000504 Timebase_Window_Timer_Reset
C:\Users\WALTON\AppData\Local\Temp/ccNioc54.s:1255   .text:00000520 Timebase_Window_Timer_Start
C:\Users\WALTON\AppData\Local\Temp/ccNioc54.s:1347   .text:0000055c Timebase_Window_Timer_Get_Interval
C:\Users\WALTON\AppData\Local\Temp/ccNioc54.s:1485   .text:000005de Timebase_Window_Timer_Get_Interval_Reset
C:\Users\WALTON\AppData\Local\Temp/ccNioc54.s:1525   .text:00000608 Timebase_DownCounter_Get_Status
C:\Users\WALTON\AppData\Local\Temp/ccNioc54.s:1561   .text:00000636 Timebase_DownCounter_Set_Status
C:\Users\WALTON\AppData\Local\Temp/ccNioc54.s:1601   .text:0000066a Timebase_DownCounter_Get_Value
C:\Users\WALTON\AppData\Local\Temp/ccNioc54.s:1639   .text:0000069a Timebase_DownCounter_Set_Value
C:\Users\WALTON\AppData\Local\Temp/ccNioc54.s:1676   .text:000006ca Timebase_DownCounter_Get_EndValue
C:\Users\WALTON\AppData\Local\Temp/ccNioc54.s:1714   .text:000006fa Timebase_DownCounter_Set_EndValue
C:\Users\WALTON\AppData\Local\Temp/ccNioc54.s:1751   .text:0000072a Timebase_DownCounter_Get_PeriodValue
C:\Users\WALTON\AppData\Local\Temp/ccNioc54.s:1789   .text:0000075a Timebase_DownCounter_Set_PeriodValue
C:\Users\WALTON\AppData\Local\Temp/ccNioc54.s:1851   .text:000007b6 Timebase_DownCounter_Get_Period_Flag
C:\Users\WALTON\AppData\Local\Temp/ccNioc54.s:1886   .text:000007e2 Timebase_DownCounter_Set_Period_Flag
C:\Users\WALTON\AppData\Local\Temp/ccNioc54.s:1922   .text:00000810 Timebase_DownCounter_Clear_Period_Flag
C:\Users\WALTON\AppData\Local\Temp/ccNioc54.s:1958   .text:0000083e Timebase_DownCounter_Reset
C:\Users\WALTON\AppData\Local\Temp/ccNioc54.s:2021   .text:0000087e Timebase_DownCounter_Clear_All_Flags
C:\Users\WALTON\AppData\Local\Temp/ccNioc54.s:2088   .text:000008be Timebase_DownCounter_Start
C:\Users\WALTON\AppData\Local\Temp/ccNioc54.s:2138   .text:000008f8 Timebase_DownCounter_Stop
C:\Users\WALTON\AppData\Local\Temp/ccNioc54.s:2188   .text:00000932 Timebase_DownCounter_Set_Securely
C:\Users\WALTON\AppData\Local\Temp/ccNioc54.s:2288   .text:000009a4 Timebase_DownCounter_Set_Forcefully
C:\Users\WALTON\AppData\Local\Temp/ccNioc54.s:2362   .text:000009f2 Timebase_DownCounter_Update
C:\Users\WALTON\AppData\Local\Temp/ccNioc54.s:2529   .text:00000abc Timebase_DownCounter_Expired
C:\Users\WALTON\AppData\Local\Temp/ccNioc54.s:2571   .text:00000af4 Timebase_DownCounter_Expired_Event
C:\Users\WALTON\AppData\Local\Temp/ccNioc54.s:2658   .text:00000b48 Timebase_DownCounter_Set_Period_Value_Securely
C:\Users\WALTON\AppData\Local\Temp/ccNioc54.s:2757   .text:00000bcc Timebase_DownCounter_Get_Remaining_Period_Value
C:\Users\WALTON\AppData\Local\Temp/ccNioc54.s:2821   .text:00000c24 Timebase_DownCounter_Period_Value_Expired
C:\Users\WALTON\AppData\Local\Temp/ccNioc54.s:2921   .text:00000cb0 Timebase_DownCounter_Period_Value_Expired_Event
C:\Users\WALTON\AppData\Local\Temp/ccNioc54.s:2975   .text:00000cf4 Timebase_DownCounter_Update_All
C:\Users\WALTON\AppData\Local\Temp/ccNioc54.s:3003   .text:00000d08 Timebase_DownCounter_Reset_All
C:\Users\WALTON\AppData\Local\Temp/ccNioc54.s:3093   .text:00000d5e Timebase_DownCounter_SS_Get_Status
C:\Users\WALTON\AppData\Local\Temp/ccNioc54.s:3125   .text:00000d84 Timebase_DownCounter_SS_Set_Status
C:\Users\WALTON\AppData\Local\Temp/ccNioc54.s:3161   .text:00000db0 Timebase_DownCounter_SS_Get_Value
C:\Users\WALTON\AppData\Local\Temp/ccNioc54.s:3202   .text:00000de6 Timebase_DownCounter_SS_Set_Value
C:\Users\WALTON\AppData\Local\Temp/ccNioc54.s:3234   .text:00000e0e Timebase_DownCounter_SS_Get_EndValueSec
C:\Users\WALTON\AppData\Local\Temp/ccNioc54.s:3275   .text:00000e44 Timebase_DownCounter_SS_Get_EndValueSubSec
C:\Users\WALTON\AppData\Local\Temp/ccNioc54.s:3316   .text:00000e7a Timebase_DownCounter_SS_Set_EndValueSec
C:\Users\WALTON\AppData\Local\Temp/ccNioc54.s:3348   .text:00000ea2 Timebase_DownCounter_SS_Set_EndValueSubSec
C:\Users\WALTON\AppData\Local\Temp/ccNioc54.s:3380   .text:00000eca Timebase_DownCounter_SS_Get_PeriodValue
C:\Users\WALTON\AppData\Local\Temp/ccNioc54.s:3421   .text:00000f00 Timebase_DownCounter_SS_Set_PeriodValue
C:\Users\WALTON\AppData\Local\Temp/ccNioc54.s:3474   .text:00000f4c Timebase_DownCounter_SS_Get_Period_Flag
C:\Users\WALTON\AppData\Local\Temp/ccNioc54.s:3505   .text:00000f70 Timebase_DownCounter_SS_Set_Period_Flag
C:\Users\WALTON\AppData\Local\Temp/ccNioc54.s:3537   .text:00000f96 Timebase_DownCounter_SS_Clear_Period_Flag
C:\Users\WALTON\AppData\Local\Temp/ccNioc54.s:3569   .text:00000fbc Timebase_DownCounter_SS_Reset
C:\Users\WALTON\AppData\Local\Temp/ccNioc54.s:3636   .text:00000ffa Timebase_DownCounter_SS_Clear_All_Flags
C:\Users\WALTON\AppData\Local\Temp/ccNioc54.s:3707   .text:00001038 Timebase_DownCounter_SS_Start
C:\Users\WALTON\AppData\Local\Temp/ccNioc54.s:3753   .text:0000106a Timebase_DownCounter_SS_Stop
C:\Users\WALTON\AppData\Local\Temp/ccNioc54.s:3799   .text:0000109c Timebase_DownCounter_SS_Set_Securely
C:\Users\WALTON\AppData\Local\Temp/ccNioc54.s:4052   .text:00001206 Timebase_DownCounter_SS_Set_Forcefully
C:\Users\WALTON\AppData\Local\Temp/ccNioc54.s:4126   .text:0000124a Timebase_DownCounter_SS_Update
C:\Users\WALTON\AppData\Local\Temp/ccNioc54.s:4453   .text:000013fa Timebase_DownCounter_SS_Expired
C:\Users\WALTON\AppData\Local\Temp/ccNioc54.s:4491   .text:0000142a Timebase_DownCounter_SS_Expired_Event
C:\Users\WALTON\AppData\Local\Temp/ccNioc54.s:4580   .text:00001478 Timebase_DownCounter_SS_Set_Period_Value_Securely
C:\Users\WALTON\AppData\Local\Temp/ccNioc54.s:4669   .text:000014e8 Timebase_DownCounter_SS_Get_Remaining_Period_Value
C:\Users\WALTON\AppData\Local\Temp/ccNioc54.s:4725   .text:00001530 Timebase_DownCounter_SS_Period_Value_Expired
C:\Users\WALTON\AppData\Local\Temp/ccNioc54.s:4814   .text:000015a6 Timebase_DownCounter_SS_Period_Value_Expired_Event
C:\Users\WALTON\AppData\Local\Temp/ccNioc54.s:4864   .text:000015e2 Timebase_DownCounter_SS_Update_All
C:\Users\WALTON\AppData\Local\Temp/ccNioc54.s:4892   .text:000015f6 Timebase_DownCounter_SS_Reset_All
C:\Users\WALTON\AppData\Local\Temp/ccNioc54.s:4979   .text:00001650 Timebase_Reset
C:\Users\WALTON\AppData\Local\Temp/ccNioc54.s:4995   .text:0000165a Timebase_Init
C:\Users\WALTON\AppData\Local\Temp/ccNioc54.s:5022   .text:00001674 Timebase_Main_Loop_Executables
C:\Users\WALTON\AppData\Local\Temp/ccNioc54.s:5062   .text:000016b6 Timebase_ISR_Executables
C:\Users\WALTON\AppData\Local\Temp/ccNioc54.s:5115   .text:00001704 __vector_16

UNDEFINED SYMBOLS
__divmodsi4
__mulsi3
__udivmodhi4
__do_copy_data
__do_clear_bss
