   1               		.file	"timebase.c"
   2               	__SREG__ = 0x3f
   3               	__SP_H__ = 0x3e
   4               	__SP_L__ = 0x3d
   5               	__CCP__  = 0x34
   6               	__tmp_reg__ = 0
   7               	__zero_reg__ = 1
  15               	.Ltext0:
  16               	.global	Timebase_Struct_Init
  18               	Timebase_Struct_Init:
  19               	.LFB6:
  20               	.LM1:
  21               	/* prologue: function */
  22               	/* frame size = 0 */
  23               	.LM2:
  24 0000 80E0      		ldi r24,lo8(Timebase_type)
  25 0002 90E0      		ldi r25,hi8(Timebase_type)
  26 0004 9093 0000 		sts (Timebase)+1,r25
  27 0008 8093 0000 		sts Timebase,r24
  28               	.LM3:
  29 000c 81E0      		ldi r24,lo8(1)
  30 000e 90E0      		ldi r25,hi8(1)
  31 0010 9093 0000 		sts (Timebase_type)+1,r25
  32 0014 8093 0000 		sts Timebase_type,r24
  33               	.LM4:
  34 0018 1092 0000 		sts (Timebase_type+2)+1,__zero_reg__
  35 001c 1092 0000 		sts Timebase_type+2,__zero_reg__
  36               	.LM5:
  37 0020 1092 0000 		sts (Timebase_type+14)+1,__zero_reg__
  38 0024 1092 0000 		sts Timebase_type+14,__zero_reg__
  39               	.LM6:
  40 0028 1092 0000 		sts Timebase_type+16,__zero_reg__
  41 002c 1092 0000 		sts (Timebase_type+16)+1,__zero_reg__
  42 0030 1092 0000 		sts (Timebase_type+16)+2,__zero_reg__
  43 0034 1092 0000 		sts (Timebase_type+16)+3,__zero_reg__
  44               	.LM7:
  45 0038 1092 0000 		sts Timebase_type+20,__zero_reg__
  46 003c 1092 0000 		sts (Timebase_type+20)+1,__zero_reg__
  47 0040 1092 0000 		sts (Timebase_type+20)+2,__zero_reg__
  48 0044 1092 0000 		sts (Timebase_type+20)+3,__zero_reg__
  49               	.LM8:
  50 0048 1092 0000 		sts (Timebase_type+8)+1,__zero_reg__
  51 004c 1092 0000 		sts Timebase_type+8,__zero_reg__
  52               	.LM9:
  53 0050 1092 0000 		sts Timebase_type+10,__zero_reg__
  54 0054 1092 0000 		sts (Timebase_type+10)+1,__zero_reg__
  55 0058 1092 0000 		sts (Timebase_type+10)+2,__zero_reg__
  56 005c 1092 0000 		sts (Timebase_type+10)+3,__zero_reg__
  57               	.LM10:
  58 0060 1092 0000 		sts Timebase_type+24,__zero_reg__
  59               	.LM11:
  60 0064 1092 0000 		sts Timebase_type+4,__zero_reg__
  61 0068 1092 0000 		sts (Timebase_type+4)+1,__zero_reg__
  62 006c 1092 0000 		sts (Timebase_type+4)+2,__zero_reg__
  63 0070 1092 0000 		sts (Timebase_type+4)+3,__zero_reg__
  64               	.LM12:
  65 0074 1092 0000 		sts Timebase_type+25,__zero_reg__
  66 0078 1092 0000 		sts (Timebase_type+25)+1,__zero_reg__
  67 007c 1092 0000 		sts (Timebase_type+25)+2,__zero_reg__
  68 0080 1092 0000 		sts (Timebase_type+25)+3,__zero_reg__
  69               	.LM13:
  70 0084 1092 0000 		sts Timebase_type+29,__zero_reg__
  71 0088 1092 0000 		sts (Timebase_type+29)+1,__zero_reg__
  72 008c 1092 0000 		sts (Timebase_type+29)+2,__zero_reg__
  73 0090 1092 0000 		sts (Timebase_type+29)+3,__zero_reg__
  74               	.LM14:
  75 0094 1092 0000 		sts Timebase_type+33,__zero_reg__
  76               	.LM15:
  77 0098 1092 0000 		sts Timebase_type+34,__zero_reg__
  78               	.LBB406:
  79               	.LM16:
  80 009c 1092 0000 		sts Timebase_type+56,__zero_reg__
  81               	.LM17:
  82 00a0 1092 0000 		sts Timebase_type+57,__zero_reg__
  83 00a4 1092 0000 		sts (Timebase_type+57)+1,__zero_reg__
  84 00a8 1092 0000 		sts (Timebase_type+57)+2,__zero_reg__
  85 00ac 1092 0000 		sts (Timebase_type+57)+3,__zero_reg__
  86               	.LM18:
  87 00b0 1092 0000 		sts Timebase_type+61,__zero_reg__
  88 00b4 1092 0000 		sts (Timebase_type+61)+1,__zero_reg__
  89 00b8 1092 0000 		sts (Timebase_type+61)+2,__zero_reg__
  90 00bc 1092 0000 		sts (Timebase_type+61)+3,__zero_reg__
  91               	.LM19:
  92 00c0 1092 0000 		sts Timebase_type+65,__zero_reg__
  93 00c4 1092 0000 		sts (Timebase_type+65)+1,__zero_reg__
  94 00c8 1092 0000 		sts (Timebase_type+65)+2,__zero_reg__
  95 00cc 1092 0000 		sts (Timebase_type+65)+3,__zero_reg__
  96               	.LM20:
  97 00d0 1092 0000 		sts Timebase_type+69,__zero_reg__
  98 00d4 1092 0000 		sts (Timebase_type+69)+1,__zero_reg__
  99 00d8 1092 0000 		sts (Timebase_type+69)+2,__zero_reg__
 100 00dc 1092 0000 		sts (Timebase_type+69)+3,__zero_reg__
 101               	.LBE406:
 102               	.LBB407:
 103               	.LM21:
 104 00e0 1092 0000 		sts Timebase_type+35,__zero_reg__
 105               	.LM22:
 106 00e4 1092 0000 		sts Timebase_type+36,__zero_reg__
 107 00e8 1092 0000 		sts (Timebase_type+36)+1,__zero_reg__
 108 00ec 1092 0000 		sts (Timebase_type+36)+2,__zero_reg__
 109 00f0 1092 0000 		sts (Timebase_type+36)+3,__zero_reg__
 110               	.LM23:
 111 00f4 1092 0000 		sts Timebase_type+40,__zero_reg__
 112 00f8 1092 0000 		sts (Timebase_type+40)+1,__zero_reg__
 113 00fc 1092 0000 		sts (Timebase_type+40)+2,__zero_reg__
 114 0100 1092 0000 		sts (Timebase_type+40)+3,__zero_reg__
 115               	.LM24:
 116 0104 1092 0000 		sts Timebase_type+44,__zero_reg__
 117 0108 1092 0000 		sts (Timebase_type+44)+1,__zero_reg__
 118 010c 1092 0000 		sts (Timebase_type+44)+2,__zero_reg__
 119 0110 1092 0000 		sts (Timebase_type+44)+3,__zero_reg__
 120               	.LM25:
 121 0114 1092 0000 		sts Timebase_type+48,__zero_reg__
 122 0118 1092 0000 		sts (Timebase_type+48)+1,__zero_reg__
 123 011c 1092 0000 		sts (Timebase_type+48)+2,__zero_reg__
 124 0120 1092 0000 		sts (Timebase_type+48)+3,__zero_reg__
 125               	.LM26:
 126 0124 1092 0000 		sts Timebase_type+52,__zero_reg__
 127 0128 1092 0000 		sts (Timebase_type+52)+1,__zero_reg__
 128 012c 1092 0000 		sts (Timebase_type+52)+2,__zero_reg__
 129 0130 1092 0000 		sts (Timebase_type+52)+3,__zero_reg__
 130               	/* epilogue start */
 131               	.LBE407:
 132               	.LM27:
 133 0134 0895      		ret
 134               	.LFE6:
 136               	.global	Timebase_Timer_Enable
 138               	Timebase_Timer_Enable:
 139               	.LFB7:
 140               	.LM28:
 141               	.LVL0:
 142 0136 8F92      		push r8
 143 0138 9F92      		push r9
 144 013a BF92      		push r11
 145 013c CF92      		push r12
 146 013e DF92      		push r13
 147 0140 EF92      		push r14
 148 0142 FF92      		push r15
 149 0144 0F93      		push r16
 150 0146 1F93      		push r17
 151 0148 DF93      		push r29
 152 014a CF93      		push r28
 153 014c CDB7      		in r28,__SP_L__
 154 014e DEB7      		in r29,__SP_H__
 155 0150 2A97      		sbiw r28,10
 156 0152 0FB6      		in __tmp_reg__,__SREG__
 157 0154 F894      		cli
 158 0156 DEBF      		out __SP_H__,r29
 159 0158 0FBE      		out __SREG__,__tmp_reg__
 160 015a CDBF      		out __SP_L__,r28
 161               	/* prologue: function */
 162               	/* frame size = 10 */
 163 015c 4C01      		movw r8,r24
 164               	.LM29:
 165 015e DE01      		movw r26,r28
 166 0160 1196      		adiw r26,1
 167 0162 E0E0      		ldi r30,lo8(C.1.1794)
 168 0164 F0E0      		ldi r31,hi8(C.1.1794)
 169 0166 8AE0      		ldi r24,lo8(10)
 170               	.LVL1:
 171               	.L4:
 172 0168 0190      		ld r0,Z+
 173 016a 0D92      		st X+,r0
 174 016c 8150      		subi r24,lo8(-(-1))
 175 016e 01F4      		brne .L4
 176               	.LM30:
 177 0170 9401      		movw r18,r8
 178 0172 40E0      		ldi r20,lo8(0)
 179 0174 50E0      		ldi r21,hi8(0)
 180               	.LVL2:
 181 0176 60E0      		ldi r22,lo8(12000000)
 182 0178 7BE1      		ldi r23,hi8(12000000)
 183 017a 87EB      		ldi r24,hlo8(12000000)
 184 017c 90E0      		ldi r25,hhi8(12000000)
 185 017e 0E94 0000 		call __divmodsi4
 186 0182 B22E      		mov r11,r18
 187 0184 C32E      		mov r12,r19
 188 0186 D42E      		mov r13,r20
 189               	.LVL3:
 190 0188 052F      		mov r16,r21
 191 018a 7E01      		movw r14,r28
 192 018c 0894      		sec
 193 018e E11C      		adc r14,__zero_reg__
 194 0190 F11C      		adc r15,__zero_reg__
 195 0192 C901      		movw r24,r18
 196 0194 DA01      		movw r26,r20
 197 0196 9C01      		movw r18,r24
 198 0198 AD01      		movw r20,r26
 199               	.LVL4:
 200 019a 10E0      		ldi r17,lo8(0)
 201               	.LVL5:
 202 019c 00C0      		rjmp .L5
 203               	.LVL6:
 204               	.L7:
 205               	.LM31:
 206 019e F701      		movw r30,r14
 207 01a0 2191      		ld r18,Z+
 208 01a2 3191      		ld r19,Z+
 209               	.LVL7:
 210 01a4 7F01      		movw r14,r30
 211 01a6 40E0      		ldi r20,lo8(0)
 212 01a8 50E0      		ldi r21,hi8(0)
 213 01aa 6B2D      		mov r22,r11
 214 01ac 7C2D      		mov r23,r12
 215 01ae 8D2D      		mov r24,r13
 216               	.LVL8:
 217 01b0 902F      		mov r25,r16
 218 01b2 0E94 0000 		call __divmodsi4
 219 01b6 C901      		movw r24,r18
 220 01b8 DA01      		movw r26,r20
 221 01ba 9C01      		movw r18,r24
 222 01bc AD01      		movw r20,r26
 223               	.LVL9:
 224               	.LM32:
 225 01be 1F5F      		subi r17,lo8(-(1))
 226               	.LM33:
 227 01c0 1530      		cpi r17,lo8(5)
 228 01c2 01F0      		breq .L6
 229               	.LVL10:
 230               	.L5:
 231               	.LM34:
 232 01c4 2F3F      		cpi r18,lo8(255)
 233 01c6 3105      		cpc r19,__zero_reg__
 234 01c8 4105      		cpc r20,__zero_reg__
 235 01ca 5105      		cpc r21,__zero_reg__
 236 01cc 01F0      		breq .+2
 237 01ce 04F4      		brge .L7
 238               	.L6:
 239               	.LM35:
 240 01d0 812F      		mov r24,r17
 241 01d2 8150      		subi r24,lo8(-(-1))
 242               	.LVL11:
 243               	.LM36:
 244 01d4 14BC      		out 68-32,__zero_reg__
 245               	.LM37:
 246 01d6 15BC      		out 69-32,__zero_reg__
 247               	.LM38:
 248 01d8 1092 6E00 		sts 110,__zero_reg__
 249               	.LM39:
 250 01dc 15BA      		out 53-32,__zero_reg__
 251               	.LM40:
 252 01de 17BC      		out 71-32,__zero_reg__
 253               	.LM41:
 254 01e0 18BC      		out 72-32,__zero_reg__
 255               	.LM42:
 256 01e2 16BC      		out 70-32,__zero_reg__
 257               	.LM43:
 258 01e4 17BC      		out 71-32,__zero_reg__
 259               	.LM44:
 260 01e6 8823      		tst r24
 261 01e8 01F4      		brne .L8
 262               	.LM45:
 263 01ea 81E0      		ldi r24,lo8(1)
 264               	.LVL12:
 265 01ec 00C0      		rjmp .L15
 266               	.LVL13:
 267               	.L8:
 268               	.LM46:
 269 01ee 8130      		cpi r24,lo8(1)
 270 01f0 01F4      		brne .L10
 271               	.LM47:
 272 01f2 82E0      		ldi r24,lo8(2)
 273               	.LVL14:
 274 01f4 00C0      		rjmp .L15
 275               	.LVL15:
 276               	.L10:
 277               	.LM48:
 278 01f6 8230      		cpi r24,lo8(2)
 279 01f8 01F4      		brne .L11
 280               	.LM49:
 281 01fa 83E0      		ldi r24,lo8(3)
 282               	.LVL16:
 283 01fc 00C0      		rjmp .L15
 284               	.LVL17:
 285               	.L11:
 286               	.LM50:
 287 01fe 8330      		cpi r24,lo8(3)
 288 0200 01F4      		brne .L12
 289               	.LM51:
 290 0202 84E0      		ldi r24,lo8(4)
 291               	.LVL18:
 292 0204 00C0      		rjmp .L15
 293               	.LVL19:
 294               	.L12:
 295               	.LM52:
 296 0206 8430      		cpi r24,lo8(4)
 297 0208 01F4      		brne .L9
 298               	.LM53:
 299 020a 85E0      		ldi r24,lo8(5)
 300               	.LVL20:
 301               	.L15:
 302 020c 85BD      		out 69-32,r24
 303               	.LVL21:
 304               	.L9:
 305               	.LM54:
 306 020e E091 0000 		lds r30,Timebase
 307 0212 F091 0000 		lds r31,(Timebase)+1
 308 0216 8FEF      		ldi r24,lo8(255)
 309 0218 90E0      		ldi r25,hi8(255)
 310               	.LVL22:
 311 021a 821B      		sub r24,r18
 312 021c 930B      		sbc r25,r19
 313 021e 9383      		std Z+3,r25
 314 0220 8283      		std Z+2,r24
 315               	.LM55:
 316 0222 8281      		ldd r24,Z+2
 317 0224 9381      		ldd r25,Z+3
 318 0226 86BD      		out 70-32,r24
 319               	.LM56:
 320 0228 81E0      		ldi r24,lo8(1)
 321 022a 8093 6E00 		sts 110,r24
 322               	.LM57:
 323               	/* #APP */
 324               	 ;  355 "timebase.c" 1
 325 022e 7894      		sei
 326               	 ;  0 "" 2
 327               	.LM58:
 328               	/* #NOAPP */
 329 0230 9182      		std Z+1,r9
 330 0232 8082      		st Z,r8
 331               	/* epilogue start */
 332               	.LM59:
 333 0234 2A96      		adiw r28,10
 334 0236 0FB6      		in __tmp_reg__,__SREG__
 335 0238 F894      		cli
 336 023a DEBF      		out __SP_H__,r29
 337 023c 0FBE      		out __SREG__,__tmp_reg__
 338 023e CDBF      		out __SP_L__,r28
 339 0240 CF91      		pop r28
 340 0242 DF91      		pop r29
 341 0244 1F91      		pop r17
 342 0246 0F91      		pop r16
 343 0248 FF90      		pop r15
 344 024a EF90      		pop r14
 345 024c DF90      		pop r13
 346 024e CF90      		pop r12
 347 0250 BF90      		pop r11
 348 0252 9F90      		pop r9
 349 0254 8F90      		pop r8
 350               	.LVL23:
 351 0256 0895      		ret
 352               	.LFE7:
 354               	.global	Timebase_Timer_Disable
 356               	Timebase_Timer_Disable:
 357               	.LFB8:
 358               	.LM60:
 359               	/* prologue: function */
 360               	/* frame size = 0 */
 361               	.LM61:
 362 0258 14BC      		out 68-32,__zero_reg__
 363               	.LM62:
 364 025a 15BC      		out 69-32,__zero_reg__
 365               	.LM63:
 366 025c 1092 6E00 		sts 110,__zero_reg__
 367               	.LM64:
 368 0260 87E0      		ldi r24,lo8(7)
 369 0262 85BB      		out 53-32,r24
 370               	.LM65:
 371 0264 17BC      		out 71-32,__zero_reg__
 372               	.LM66:
 373 0266 18BC      		out 72-32,__zero_reg__
 374               	.LM67:
 375 0268 16BC      		out 70-32,__zero_reg__
 376               	/* epilogue start */
 377               	.LM68:
 378 026a 0895      		ret
 379               	.LFE8:
 381               	.global	Timebase_Atomic_Operation_Start
 383               	Timebase_Atomic_Operation_Start:
 384               	.LFB9:
 385               	.LM69:
 386               	/* prologue: function */
 387               	/* frame size = 0 */
 388               	.LM70:
 389               	/* #APP */
 390               	 ;  433 "timebase.c" 1
 391 026c F894      		cli
 392               	 ;  0 "" 2
 393               	/* epilogue start */
 394               	.LM71:
 395               	/* #NOAPP */
 396 026e 0895      		ret
 397               	.LFE9:
 399               	.global	Timebase_Atomic_Operation_End
 401               	Timebase_Atomic_Operation_End:
 402               	.LFB10:
 403               	.LM72:
 404               	/* prologue: function */
 405               	/* frame size = 0 */
 406               	.LM73:
 407               	/* #APP */
 408               	 ;  438 "timebase.c" 1
 409 0270 7894      		sei
 410               	 ;  0 "" 2
 411               	/* epilogue start */
 412               	.LM74:
 413               	/* #NOAPP */
 414 0272 0895      		ret
 415               	.LFE10:
 417               	.global	Timebase_Timer_Get_SubSecondsShadow
 419               	Timebase_Timer_Get_SubSecondsShadow:
 420               	.LFB12:
 421               	.LM75:
 422               	/* prologue: function */
 423               	/* frame size = 0 */
 424               	.LM76:
 425 0274 E091 0000 		lds r30,Timebase
 426 0278 F091 0000 		lds r31,(Timebase)+1
 427 027c 2685      		ldd r18,Z+14
 428 027e 3785      		ldd r19,Z+15
 429               	.LM77:
 430 0280 C901      		movw r24,r18
 431               	/* epilogue start */
 432 0282 0895      		ret
 433               	.LFE12:
 435               	.global	Timebase_Timer_Get_SubSecondsUpTime
 437               	Timebase_Timer_Get_SubSecondsUpTime:
 438               	.LFB13:
 439               	.LM78:
 440               	/* prologue: function */
 441               	/* frame size = 0 */
 442               	.LM79:
 443 0284 E091 0000 		lds r30,Timebase
 444 0288 F091 0000 		lds r31,(Timebase)+1
 445 028c 2089      		ldd r18,Z+16
 446 028e 3189      		ldd r19,Z+17
 447 0290 4289      		ldd r20,Z+18
 448 0292 5389      		ldd r21,Z+19
 449               	.LM80:
 450 0294 B901      		movw r22,r18
 451 0296 CA01      		movw r24,r20
 452               	/* epilogue start */
 453 0298 0895      		ret
 454               	.LFE13:
 456               	.global	Timebase_Timer_Get_SecondsShadow
 458               	Timebase_Timer_Get_SecondsShadow:
 459               	.LFB14:
 460               	.LM81:
 461               	/* prologue: function */
 462               	/* frame size = 0 */
 463               	.LM82:
 464 029a E091 0000 		lds r30,Timebase
 465 029e F091 0000 		lds r31,(Timebase)+1
 466 02a2 2489      		ldd r18,Z+20
 467 02a4 3589      		ldd r19,Z+21
 468 02a6 4689      		ldd r20,Z+22
 469 02a8 5789      		ldd r21,Z+23
 470               	.LM83:
 471 02aa B901      		movw r22,r18
 472 02ac CA01      		movw r24,r20
 473               	/* epilogue start */
 474 02ae 0895      		ret
 475               	.LFE14:
 477               	.global	Timebase_Timer_Get_SubSeconds
 479               	Timebase_Timer_Get_SubSeconds:
 480               	.LFB15:
 481               	.LM84:
 482               	/* prologue: function */
 483               	/* frame size = 0 */
 484               	.LM85:
 485 02b0 E091 0000 		lds r30,Timebase
 486 02b4 F091 0000 		lds r31,(Timebase)+1
 487 02b8 2085      		ldd r18,Z+8
 488 02ba 3185      		ldd r19,Z+9
 489               	.LM86:
 490 02bc C901      		movw r24,r18
 491               	/* epilogue start */
 492 02be 0895      		ret
 493               	.LFE15:
 495               	.global	Timebase_Timer_Get_Seconds
 497               	Timebase_Timer_Get_Seconds:
 498               	.LFB16:
 499               	.LM87:
 500               	/* prologue: function */
 501               	/* frame size = 0 */
 502               	.LM88:
 503 02c0 E091 0000 		lds r30,Timebase
 504 02c4 F091 0000 		lds r31,(Timebase)+1
 505 02c8 2285      		ldd r18,Z+10
 506 02ca 3385      		ldd r19,Z+11
 507 02cc 4485      		ldd r20,Z+12
 508 02ce 5585      		ldd r21,Z+13
 509               	.LM89:
 510 02d0 B901      		movw r22,r18
 511 02d2 CA01      		movw r24,r20
 512               	/* epilogue start */
 513 02d4 0895      		ret
 514               	.LFE16:
 516               	.global	Timebase_Timer_Set_SubSeconds
 518               	Timebase_Timer_Set_SubSeconds:
 519               	.LFB17:
 520               	.LM90:
 521               	.LVL24:
 522               	/* prologue: function */
 523               	/* frame size = 0 */
 524               	.LM91:
 525 02d6 E091 0000 		lds r30,Timebase
 526 02da F091 0000 		lds r31,(Timebase)+1
 527 02de 9187      		std Z+9,r25
 528 02e0 8087      		std Z+8,r24
 529               	/* epilogue start */
 530               	.LM92:
 531 02e2 0895      		ret
 532               	.LFE17:
 534               	.global	Timebase_Timer_Set_SubSecondsShadow
 536               	Timebase_Timer_Set_SubSecondsShadow:
 537               	.LFB18:
 538               	.LM93:
 539               	.LVL25:
 540               	/* prologue: function */
 541               	/* frame size = 0 */
 542               	.LM94:
 543 02e4 E091 0000 		lds r30,Timebase
 544 02e8 F091 0000 		lds r31,(Timebase)+1
 545 02ec 9787      		std Z+15,r25
 546 02ee 8687      		std Z+14,r24
 547               	/* epilogue start */
 548               	.LM95:
 549 02f0 0895      		ret
 550               	.LFE18:
 552               	.global	Timebase_Timer_Set_SubSecondsUpTime
 554               	Timebase_Timer_Set_SubSecondsUpTime:
 555               	.LFB19:
 556               	.LM96:
 557               	.LVL26:
 558               	/* prologue: function */
 559               	/* frame size = 0 */
 560               	.LM97:
 561 02f2 E091 0000 		lds r30,Timebase
 562 02f6 F091 0000 		lds r31,(Timebase)+1
 563 02fa 608B      		std Z+16,r22
 564 02fc 718B      		std Z+17,r23
 565 02fe 828B      		std Z+18,r24
 566 0300 938B      		std Z+19,r25
 567               	/* epilogue start */
 568               	.LM98:
 569 0302 0895      		ret
 570               	.LFE19:
 572               	.global	Timebase_Timer_Set_Seconds
 574               	Timebase_Timer_Set_Seconds:
 575               	.LFB20:
 576               	.LM99:
 577               	.LVL27:
 578               	/* prologue: function */
 579               	/* frame size = 0 */
 580               	.LM100:
 581 0304 E091 0000 		lds r30,Timebase
 582 0308 F091 0000 		lds r31,(Timebase)+1
 583 030c 6287      		std Z+10,r22
 584 030e 7387      		std Z+11,r23
 585 0310 8487      		std Z+12,r24
 586 0312 9587      		std Z+13,r25
 587               	/* epilogue start */
 588               	.LM101:
 589 0314 0895      		ret
 590               	.LFE20:
 592               	.global	Timebase_Timer_Get_SubSecondsShadow_Securely
 594               	Timebase_Timer_Get_SubSecondsShadow_Securely:
 595               	.LFB21:
 596               	.LM102:
 597               	/* prologue: function */
 598               	/* frame size = 0 */
 599               	.LM103:
 600 0316 E091 0000 		lds r30,Timebase
 601 031a F091 0000 		lds r31,(Timebase)+1
 602               	.L41:
 603 031e 2685      		ldd r18,Z+14
 604 0320 3785      		ldd r19,Z+15
 605               	.LVL28:
 606               	.LM104:
 607 0322 8685      		ldd r24,Z+14
 608 0324 9785      		ldd r25,Z+15
 609               	.LVL29:
 610               	.LM105:
 611 0326 2817      		cp r18,r24
 612 0328 3907      		cpc r19,r25
 613 032a 01F4      		brne .L41
 614               	.LM106:
 615 032c C901      		movw r24,r18
 616               	.LVL30:
 617               	/* epilogue start */
 618 032e 0895      		ret
 619               	.LFE21:
 621               	.global	Timebase_Timer_Get_SubSecondsUpTime_Securely
 623               	Timebase_Timer_Get_SubSecondsUpTime_Securely:
 624               	.LFB22:
 625               	.LM107:
 626               	/* prologue: function */
 627               	/* frame size = 0 */
 628               	.LM108:
 629 0330 E091 0000 		lds r30,Timebase
 630 0334 F091 0000 		lds r31,(Timebase)+1
 631               	.L45:
 632 0338 2089      		ldd r18,Z+16
 633 033a 3189      		ldd r19,Z+17
 634 033c 4289      		ldd r20,Z+18
 635 033e 5389      		ldd r21,Z+19
 636               	.LVL31:
 637               	.LM109:
 638 0340 8089      		ldd r24,Z+16
 639 0342 9189      		ldd r25,Z+17
 640 0344 A289      		ldd r26,Z+18
 641 0346 B389      		ldd r27,Z+19
 642               	.LVL32:
 643               	.LM110:
 644 0348 2817      		cp r18,r24
 645 034a 3907      		cpc r19,r25
 646 034c 4A07      		cpc r20,r26
 647 034e 5B07      		cpc r21,r27
 648 0350 01F4      		brne .L45
 649               	.LM111:
 650 0352 B901      		movw r22,r18
 651               	.LVL33:
 652 0354 CA01      		movw r24,r20
 653               	.LVL34:
 654               	/* epilogue start */
 655 0356 0895      		ret
 656               	.LFE22:
 658               	.global	Timebase_Timer_Get_SecondsShadow_Securely
 660               	Timebase_Timer_Get_SecondsShadow_Securely:
 661               	.LFB23:
 662               	.LM112:
 663               	/* prologue: function */
 664               	/* frame size = 0 */
 665               	.LM113:
 666 0358 E091 0000 		lds r30,Timebase
 667 035c F091 0000 		lds r31,(Timebase)+1
 668               	.L49:
 669 0360 2489      		ldd r18,Z+20
 670 0362 3589      		ldd r19,Z+21
 671 0364 4689      		ldd r20,Z+22
 672 0366 5789      		ldd r21,Z+23
 673               	.LVL35:
 674               	.LM114:
 675 0368 8489      		ldd r24,Z+20
 676 036a 9589      		ldd r25,Z+21
 677 036c A689      		ldd r26,Z+22
 678 036e B789      		ldd r27,Z+23
 679               	.LVL36:
 680               	.LM115:
 681 0370 2817      		cp r18,r24
 682 0372 3907      		cpc r19,r25
 683 0374 4A07      		cpc r20,r26
 684 0376 5B07      		cpc r21,r27
 685 0378 01F4      		brne .L49
 686               	.LM116:
 687 037a B901      		movw r22,r18
 688               	.LVL37:
 689 037c CA01      		movw r24,r20
 690               	.LVL38:
 691               	/* epilogue start */
 692 037e 0895      		ret
 693               	.LFE23:
 695               	.global	Timebase_Timer_Sync_With_Shadow_Variables
 697               	Timebase_Timer_Sync_With_Shadow_Variables:
 698               	.LFB24:
 699               	.LM117:
 700               	/* prologue: function */
 701               	/* frame size = 0 */
 702               	.LM118:
 703 0380 E091 0000 		lds r30,Timebase
 704 0384 F091 0000 		lds r31,(Timebase)+1
 705 0388 808D      		ldd r24,Z+24
 706 038a 8823      		tst r24
 707 038c 01F4      		brne .L56
 708               	.L57:
 709               	.LBB408:
 710               	.LBB409:
 711               	.LM119:
 712 038e 2685      		ldd r18,Z+14
 713 0390 3785      		ldd r19,Z+15
 714               	.LVL39:
 715               	.LM120:
 716 0392 8685      		ldd r24,Z+14
 717 0394 9785      		ldd r25,Z+15
 718               	.LVL40:
 719               	.LM121:
 720 0396 2817      		cp r18,r24
 721 0398 3907      		cpc r19,r25
 722 039a 01F4      		brne .L57
 723               	.LBE409:
 724               	.LBE408:
 725               	.LM122:
 726 039c 3187      		std Z+9,r19
 727 039e 2087      		std Z+8,r18
 728               	.L55:
 729               	.LBB410:
 730               	.LBB411:
 731               	.LM123:
 732 03a0 2489      		ldd r18,Z+20
 733 03a2 3589      		ldd r19,Z+21
 734 03a4 4689      		ldd r20,Z+22
 735 03a6 5789      		ldd r21,Z+23
 736               	.LVL41:
 737               	.LM124:
 738 03a8 8489      		ldd r24,Z+20
 739 03aa 9589      		ldd r25,Z+21
 740 03ac A689      		ldd r26,Z+22
 741 03ae B789      		ldd r27,Z+23
 742               	.LVL42:
 743               	.LM125:
 744 03b0 2817      		cp r18,r24
 745 03b2 3907      		cpc r19,r25
 746 03b4 4A07      		cpc r20,r26
 747 03b6 5B07      		cpc r21,r27
 748 03b8 01F4      		brne .L55
 749               	.LBE411:
 750               	.LBE410:
 751               	.LM126:
 752 03ba 2287      		std Z+10,r18
 753 03bc 3387      		std Z+11,r19
 754 03be 4487      		std Z+12,r20
 755 03c0 5587      		std Z+13,r21
 756               	.LM127:
 757 03c2 81E0      		ldi r24,lo8(1)
 758               	.LVL43:
 759 03c4 808F      		std Z+24,r24
 760               	.L56:
 761 03c6 0895      		ret
 762               	.LFE24:
 764               	.global	Timebase_Timer_Delay_SubSeconds
 766               	Timebase_Timer_Delay_SubSeconds:
 767               	.LFB25:
 768               	.LM128:
 769               	.LVL44:
 770 03c8 8F92      		push r8
 771 03ca 9F92      		push r9
 772 03cc AF92      		push r10
 773 03ce BF92      		push r11
 774 03d0 CF92      		push r12
 775 03d2 DF92      		push r13
 776 03d4 EF92      		push r14
 777 03d6 FF92      		push r15
 778 03d8 0F93      		push r16
 779 03da 1F93      		push r17
 780 03dc CF93      		push r28
 781 03de DF93      		push r29
 782               	/* prologue: function */
 783               	/* frame size = 0 */
 784 03e0 5C01      		movw r10,r24
 785               	.LBB412:
 786               	.LBB413:
 787               	.LM129:
 788 03e2 C091 0000 		lds r28,Timebase
 789 03e6 D091 0000 		lds r29,(Timebase)+1
 790               	.LVL45:
 791               	.L61:
 792 03ea CE84      		ldd r12,Y+14
 793 03ec DF84      		ldd r13,Y+15
 794               	.LVL46:
 795               	.LM130:
 796 03ee 8E85      		ldd r24,Y+14
 797 03f0 9F85      		ldd r25,Y+15
 798               	.LVL47:
 799               	.LM131:
 800 03f2 C816      		cp r12,r24
 801 03f4 D906      		cpc r13,r25
 802 03f6 01F4      		brne .L61
 803               	.L69:
 804               	.LBE413:
 805               	.LBE412:
 806               	.LBB414:
 807               	.LBB415:
 808               	.LM132:
 809 03f8 EC88      		ldd r14,Y+20
 810 03fa FD88      		ldd r15,Y+21
 811 03fc 0E89      		ldd r16,Y+22
 812 03fe 1F89      		ldd r17,Y+23
 813               	.LVL48:
 814               	.LM133:
 815 0400 8C89      		ldd r24,Y+20
 816 0402 9D89      		ldd r25,Y+21
 817 0404 AE89      		ldd r26,Y+22
 818 0406 BF89      		ldd r27,Y+23
 819               	.LVL49:
 820               	.LM134:
 821 0408 E816      		cp r14,r24
 822 040a F906      		cpc r15,r25
 823 040c 0A07      		cpc r16,r26
 824 040e 1B07      		cpc r17,r27
 825 0410 01F4      		brne .L69
 826               	.LBE415:
 827               	.LBE414:
 828               	.LM135:
 829 0412 2881      		ld r18,Y
 830 0414 3981      		ldd r19,Y+1
 831 0416 40E0      		ldi r20,lo8(0)
 832 0418 50E0      		ldi r21,hi8(0)
 833 041a C801      		movw r24,r16
 834 041c B701      		movw r22,r14
 835 041e 0E94 0000 		call __mulsi3
 836               	.LM136:
 837 0422 7601      		movw r14,r12
 838               	.LVL50:
 839 0424 00E0      		ldi r16,lo8(0)
 840 0426 10E0      		ldi r17,hi8(0)
 841               	.LVL51:
 842 0428 9501      		movw r18,r10
 843 042a 40E0      		ldi r20,lo8(0)
 844 042c 50E0      		ldi r21,hi8(0)
 845               	.LVL52:
 846 042e E20E      		add r14,r18
 847 0430 F31E      		adc r15,r19
 848 0432 041F      		adc r16,r20
 849 0434 151F      		adc r17,r21
 850               	.LVL53:
 851               	.LM137:
 852 0436 E60E      		add r14,r22
 853 0438 F71E      		adc r15,r23
 854 043a 081F      		adc r16,r24
 855 043c 191F      		adc r17,r25
 856 043e 20E0      		ldi r18,lo8(0)
 857 0440 30E0      		ldi r19,hi8(0)
 858 0442 40E0      		ldi r20,hlo8(0)
 859 0444 50E0      		ldi r21,hhi8(0)
 860               	.LVL54:
 861 0446 00C0      		rjmp .L63
 862               	.LVL55:
 863               	.L68:
 864               	.LBB416:
 865               	.LBB417:
 866               	.LM138:
 867 0448 8E84      		ldd r8,Y+14
 868 044a 9F84      		ldd r9,Y+15
 869               	.LM139:
 870 044c 8E85      		ldd r24,Y+14
 871 044e 9F85      		ldd r25,Y+15
 872               	.LVL56:
 873               	.LM140:
 874 0450 8816      		cp r8,r24
 875 0452 9906      		cpc r9,r25
 876 0454 01F4      		brne .L68
 877               	.LVL57:
 878               	.L67:
 879               	.LBE417:
 880               	.LBE416:
 881               	.LBB418:
 882               	.LBB419:
 883               	.LM141:
 884 0456 AC88      		ldd r10,Y+20
 885 0458 BD88      		ldd r11,Y+21
 886 045a CE88      		ldd r12,Y+22
 887 045c DF88      		ldd r13,Y+23
 888               	.LVL58:
 889               	.LM142:
 890 045e 8C89      		ldd r24,Y+20
 891 0460 9D89      		ldd r25,Y+21
 892 0462 AE89      		ldd r26,Y+22
 893 0464 BF89      		ldd r27,Y+23
 894               	.LVL59:
 895               	.LM143:
 896 0466 A816      		cp r10,r24
 897 0468 B906      		cpc r11,r25
 898 046a CA06      		cpc r12,r26
 899 046c DB06      		cpc r13,r27
 900 046e 01F4      		brne .L67
 901               	.LBE419:
 902               	.LBE418:
 903               	.LM144:
 904 0470 2881      		ld r18,Y
 905 0472 3981      		ldd r19,Y+1
 906               	.LVL60:
 907 0474 40E0      		ldi r20,lo8(0)
 908 0476 50E0      		ldi r21,hi8(0)
 909               	.LVL61:
 910 0478 C601      		movw r24,r12
 911 047a B501      		movw r22,r10
 912 047c 0E94 0000 		call __mulsi3
 913               	.LVL62:
 914 0480 9B01      		movw r18,r22
 915 0482 AC01      		movw r20,r24
 916               	.LVL63:
 917               	.LM145:
 918 0484 C401      		movw r24,r8
 919               	.LVL64:
 920 0486 A0E0      		ldi r26,lo8(0)
 921 0488 B0E0      		ldi r27,hi8(0)
 922               	.LVL65:
 923 048a 280F      		add r18,r24
 924 048c 391F      		adc r19,r25
 925 048e 4A1F      		adc r20,r26
 926 0490 5B1F      		adc r21,r27
 927               	.LVL66:
 928               	.L63:
 929               	.LM146:
 930 0492 2E15      		cp r18,r14
 931 0494 3F05      		cpc r19,r15
 932 0496 4007      		cpc r20,r16
 933 0498 5107      		cpc r21,r17
 934 049a 04F0      		brlt .L68
 935               	/* epilogue start */
 936               	.LM147:
 937 049c DF91      		pop r29
 938 049e CF91      		pop r28
 939 04a0 1F91      		pop r17
 940 04a2 0F91      		pop r16
 941               	.LVL67:
 942 04a4 FF90      		pop r15
 943 04a6 EF90      		pop r14
 944               	.LVL68:
 945 04a8 DF90      		pop r13
 946 04aa CF90      		pop r12
 947               	.LVL69:
 948 04ac BF90      		pop r11
 949 04ae AF90      		pop r10
 950               	.LVL70:
 951 04b0 9F90      		pop r9
 952 04b2 8F90      		pop r8
 953 04b4 0895      		ret
 954               	.LFE25:
 956               	.global	Timebase_Timer_Await_SubSeconds
 958               	Timebase_Timer_Await_SubSeconds:
 959               	.LFB26:
 960               	.LM148:
 961               	.LVL71:
 962 04b6 CF93      		push r28
 963 04b8 DF93      		push r29
 964               	/* prologue: function */
 965               	/* frame size = 0 */
 966 04ba EC01      		movw r28,r24
 967               	.LBB420:
 968               	.LBB421:
 969               	.LM149:
 970 04bc E091 0000 		lds r30,Timebase
 971 04c0 F091 0000 		lds r31,(Timebase)+1
 972               	.LVL72:
 973               	.L76:
 974 04c4 6685      		ldd r22,Z+14
 975 04c6 7785      		ldd r23,Z+15
 976               	.LVL73:
 977               	.LM150:
 978 04c8 8685      		ldd r24,Z+14
 979 04ca 9785      		ldd r25,Z+15
 980               	.LVL74:
 981               	.LM151:
 982 04cc 6817      		cp r22,r24
 983 04ce 7907      		cpc r23,r25
 984 04d0 01F4      		brne .L76
 985 04d2 00C0      		rjmp .L85
 986               	.LVL75:
 987               	.L82:
 988               	.LBE421:
 989               	.LBE420:
 990               	.LBB422:
 991               	.LBB423:
 992               	.LM152:
 993 04d4 6685      		ldd r22,Z+14
 994 04d6 7785      		ldd r23,Z+15
 995               	.LVL76:
 996               	.LM153:
 997 04d8 8685      		ldd r24,Z+14
 998 04da 9785      		ldd r25,Z+15
 999               	.LVL77:
 1000               	.LM154:
 1001 04dc 6817      		cp r22,r24
 1002 04de 7907      		cpc r23,r25
 1003 04e0 01F4      		brne .L82
 1004               	.LVL78:
 1005               	.L85:
 1006               	.LBE423:
 1007               	.LBE422:
 1008               	.LM155:
 1009 04e2 2481      		ldd r18,Z+4
 1010 04e4 3581      		ldd r19,Z+5
 1011 04e6 4681      		ldd r20,Z+6
 1012 04e8 5781      		ldd r21,Z+7
 1013 04ea CB01      		movw r24,r22
 1014               	.LVL79:
 1015 04ec A0E0      		ldi r26,lo8(0)
 1016 04ee B0E0      		ldi r27,hi8(0)
 1017 04f0 8217      		cp r24,r18
 1018 04f2 9307      		cpc r25,r19
 1019 04f4 A407      		cpc r26,r20
 1020 04f6 B507      		cpc r27,r21
 1021 04f8 01F4      		brne .L82
 1022               	.LVL80:
 1023               	.L81:
 1024               	.LBB424:
 1025               	.LBB425:
 1026               	.LM156:
 1027 04fa 2685      		ldd r18,Z+14
 1028 04fc 3785      		ldd r19,Z+15
 1029               	.LVL81:
 1030               	.LM157:
 1031 04fe 8685      		ldd r24,Z+14
 1032 0500 9785      		ldd r25,Z+15
 1033               	.LVL82:
 1034               	.LM158:
 1035 0502 2817      		cp r18,r24
 1036 0504 3907      		cpc r19,r25
 1037 0506 01F4      		brne .L81
 1038               	.LBE425:
 1039               	.LBE424:
 1040               	.LM159:
 1041 0508 C901      		movw r24,r18
 1042               	.LVL83:
 1043 050a A0E0      		ldi r26,lo8(0)
 1044 050c B0E0      		ldi r27,hi8(0)
 1045               	.LVL84:
 1046 050e 8483      		std Z+4,r24
 1047 0510 9583      		std Z+5,r25
 1048 0512 A683      		std Z+6,r26
 1049 0514 B783      		std Z+7,r27
 1050               	.LM160:
 1051 0516 2481      		ldd r18,Z+4
 1052 0518 3581      		ldd r19,Z+5
 1053 051a 4681      		ldd r20,Z+6
 1054 051c 5781      		ldd r21,Z+7
 1055               	.LVL85:
 1056 051e CE01      		movw r24,r28
 1057 0520 A0E0      		ldi r26,lo8(0)
 1058 0522 B0E0      		ldi r27,hi8(0)
 1059               	.LVL86:
 1060 0524 820F      		add r24,r18
 1061 0526 931F      		adc r25,r19
 1062 0528 A41F      		adc r26,r20
 1063 052a B51F      		adc r27,r21
 1064               	.LVL87:
 1065 052c 8483      		std Z+4,r24
 1066 052e 9583      		std Z+5,r25
 1067 0530 A683      		std Z+6,r26
 1068 0532 B783      		std Z+7,r27
 1069               	.LM161:
 1070 0534 2481      		ldd r18,Z+4
 1071 0536 3581      		ldd r19,Z+5
 1072 0538 4681      		ldd r20,Z+6
 1073 053a 5781      		ldd r21,Z+7
 1074 053c 8081      		ld r24,Z
 1075 053e 9181      		ldd r25,Z+1
 1076               	.LVL88:
 1077 0540 A0E0      		ldi r26,lo8(0)
 1078 0542 B0E0      		ldi r27,hi8(0)
 1079               	.LVL89:
 1080 0544 2817      		cp r18,r24
 1081 0546 3907      		cpc r19,r25
 1082 0548 4A07      		cpc r20,r26
 1083 054a 5B07      		cpc r21,r27
 1084 054c 04F0      		brlt .L80
 1085               	.LM162:
 1086 054e 2481      		ldd r18,Z+4
 1087 0550 3581      		ldd r19,Z+5
 1088 0552 4681      		ldd r20,Z+6
 1089 0554 5781      		ldd r21,Z+7
 1090 0556 8081      		ld r24,Z
 1091 0558 9181      		ldd r25,Z+1
 1092 055a A0E0      		ldi r26,lo8(0)
 1093 055c B0E0      		ldi r27,hi8(0)
 1094 055e 281B      		sub r18,r24
 1095 0560 390B      		sbc r19,r25
 1096 0562 4A0B      		sbc r20,r26
 1097 0564 5B0B      		sbc r21,r27
 1098 0566 2483      		std Z+4,r18
 1099 0568 3583      		std Z+5,r19
 1100 056a 4683      		std Z+6,r20
 1101 056c 5783      		std Z+7,r21
 1102               	.L80:
 1103               	/* epilogue start */
 1104               	.LM163:
 1105 056e DF91      		pop r29
 1106 0570 CF91      		pop r28
 1107 0572 0895      		ret
 1108               	.LFE26:
 1110               	.global	Timebase_Timer_Delay_Seconds
 1112               	Timebase_Timer_Delay_Seconds:
 1113               	.LFB27:
 1114               	.LM164:
 1115               	.LVL90:
 1116 0574 EF92      		push r14
 1117 0576 FF92      		push r15
 1118 0578 0F93      		push r16
 1119 057a 1F93      		push r17
 1120               	/* prologue: function */
 1121               	/* frame size = 0 */
 1122 057c BC01      		movw r22,r24
 1123               	.LBB426:
 1124               	.LBB427:
 1125               	.LM165:
 1126 057e E091 0000 		lds r30,Timebase
 1127 0582 F091 0000 		lds r31,(Timebase)+1
 1128               	.LVL91:
 1129               	.L87:
 1130 0586 2489      		ldd r18,Z+20
 1131 0588 3589      		ldd r19,Z+21
 1132 058a 4689      		ldd r20,Z+22
 1133 058c 5789      		ldd r21,Z+23
 1134               	.LVL92:
 1135               	.LM166:
 1136 058e 8489      		ldd r24,Z+20
 1137 0590 9589      		ldd r25,Z+21
 1138 0592 A689      		ldd r26,Z+22
 1139 0594 B789      		ldd r27,Z+23
 1140               	.LVL93:
 1141               	.LM167:
 1142 0596 2817      		cp r18,r24
 1143 0598 3907      		cpc r19,r25
 1144 059a 4A07      		cpc r20,r26
 1145 059c 5B07      		cpc r21,r27
 1146 059e 01F4      		brne .L87
 1147               	.LBE427:
 1148               	.LBE426:
 1149               	.LM168:
 1150 05a0 7B01      		movw r14,r22
 1151               	.LVL94:
 1152 05a2 00E0      		ldi r16,lo8(0)
 1153 05a4 10E0      		ldi r17,hi8(0)
 1154               	.LVL95:
 1155 05a6 E20E      		add r14,r18
 1156 05a8 F31E      		adc r15,r19
 1157 05aa 041F      		adc r16,r20
 1158 05ac 151F      		adc r17,r21
 1159               	.LVL96:
 1160 05ae 20E0      		ldi r18,lo8(0)
 1161 05b0 30E0      		ldi r19,hi8(0)
 1162 05b2 40E0      		ldi r20,hlo8(0)
 1163 05b4 50E0      		ldi r21,hhi8(0)
 1164               	.LVL97:
 1165 05b6 00C0      		rjmp .L88
 1166               	.LVL98:
 1167               	.L91:
 1168               	.LBB428:
 1169               	.LBB429:
 1170               	.LM169:
 1171 05b8 2489      		ldd r18,Z+20
 1172 05ba 3589      		ldd r19,Z+21
 1173 05bc 4689      		ldd r20,Z+22
 1174 05be 5789      		ldd r21,Z+23
 1175               	.LM170:
 1176 05c0 8489      		ldd r24,Z+20
 1177 05c2 9589      		ldd r25,Z+21
 1178 05c4 A689      		ldd r26,Z+22
 1179 05c6 B789      		ldd r27,Z+23
 1180               	.LVL99:
 1181               	.LM171:
 1182 05c8 2817      		cp r18,r24
 1183 05ca 3907      		cpc r19,r25
 1184 05cc 4A07      		cpc r20,r26
 1185 05ce 5B07      		cpc r21,r27
 1186 05d0 01F4      		brne .L91
 1187               	.LVL100:
 1188               	.L88:
 1189               	.LBE429:
 1190               	.LBE428:
 1191               	.LM172:
 1192 05d2 2E15      		cp r18,r14
 1193 05d4 3F05      		cpc r19,r15
 1194 05d6 4007      		cpc r20,r16
 1195 05d8 5107      		cpc r21,r17
 1196 05da 04F0      		brlt .L91
 1197               	/* epilogue start */
 1198               	.LM173:
 1199 05dc 1F91      		pop r17
 1200 05de 0F91      		pop r16
 1201               	.LVL101:
 1202 05e0 FF90      		pop r15
 1203 05e2 EF90      		pop r14
 1204               	.LVL102:
 1205 05e4 0895      		ret
 1206               	.LFE27:
 1208               	.global	Timebase_Window_Timer_Reset
 1210               	Timebase_Window_Timer_Reset:
 1211               	.LFB28:
 1212               	.LM174:
 1213               	/* prologue: function */
 1214               	/* frame size = 0 */
 1215               	.LM175:
 1216 05e6 E091 0000 		lds r30,Timebase
 1217 05ea F091 0000 		lds r31,(Timebase)+1
 1218 05ee 118E      		std Z+25,__zero_reg__
 1219 05f0 128E      		std Z+26,__zero_reg__
 1220 05f2 138E      		std Z+27,__zero_reg__
 1221 05f4 148E      		std Z+28,__zero_reg__
 1222               	.LM176:
 1223 05f6 158E      		std Z+29,__zero_reg__
 1224 05f8 168E      		std Z+30,__zero_reg__
 1225 05fa 178E      		std Z+31,__zero_reg__
 1226 05fc 10A2      		std Z+32,__zero_reg__
 1227               	.LM177:
 1228 05fe 11A2      		std Z+33,__zero_reg__
 1229               	/* epilogue start */
 1230               	.LM178:
 1231 0600 0895      		ret
 1232               	.LFE28:
 1234               	.global	Timebase_Window_Timer_Start
 1236               	Timebase_Window_Timer_Start:
 1237               	.LFB29:
 1238               	.LM179:
 1239               	/* prologue: function */
 1240               	/* frame size = 0 */
 1241               	.LM180:
 1242 0602 E091 0000 		lds r30,Timebase
 1243 0606 F091 0000 		lds r31,(Timebase)+1
 1244 060a 81A1      		ldd r24,Z+33
 1245 060c 8823      		tst r24
 1246 060e 01F4      		brne .L98
 1247               	.LBB430:
 1248               	.LBB431:
 1249               	.LM181:
 1250               	/* #APP */
 1251               	 ;  433 "timebase.c" 1
 1252 0610 F894      		cli
 1253               	 ;  0 "" 2
 1254               	/* #NOAPP */
 1255               	.LBE431:
 1256               	.LBE430:
 1257               	.LBB432:
 1258               	.LBB433:
 1259               	.LM182:
 1260 0612 8489      		ldd r24,Z+20
 1261 0614 9589      		ldd r25,Z+21
 1262 0616 A689      		ldd r26,Z+22
 1263 0618 B789      		ldd r27,Z+23
 1264               	.LBE433:
 1265               	.LBE432:
 1266               	.LM183:
 1267 061a 818F      		std Z+25,r24
 1268 061c 928F      		std Z+26,r25
 1269 061e A38F      		std Z+27,r26
 1270 0620 B48F      		std Z+28,r27
 1271               	.LBB434:
 1272               	.LBB435:
 1273               	.LM184:
 1274 0622 8685      		ldd r24,Z+14
 1275 0624 9785      		ldd r25,Z+15
 1276               	.LBE435:
 1277               	.LBE434:
 1278               	.LM185:
 1279 0626 A0E0      		ldi r26,lo8(0)
 1280 0628 B0E0      		ldi r27,hi8(0)
 1281 062a 858F      		std Z+29,r24
 1282 062c 968F      		std Z+30,r25
 1283 062e A78F      		std Z+31,r26
 1284 0630 B0A3      		std Z+32,r27
 1285               	.LBB436:
 1286               	.LBB437:
 1287               	.LM186:
 1288               	/* #APP */
 1289               	 ;  438 "timebase.c" 1
 1290 0632 7894      		sei
 1291               	 ;  0 "" 2
 1292               	/* #NOAPP */
 1293               	.LBE437:
 1294               	.LBE436:
 1295               	.LM187:
 1296 0634 81E0      		ldi r24,lo8(1)
 1297 0636 81A3      		std Z+33,r24
 1298               	.L98:
 1299 0638 0895      		ret
 1300               	.LFE29:
 1302               	.global	Timebase_Window_Timer_Get_Interval
 1304               	Timebase_Window_Timer_Get_Interval:
 1305               	.LFB30:
 1306               	.LM188:
 1307 063a EF92      		push r14
 1308 063c FF92      		push r15
 1309 063e 0F93      		push r16
 1310 0640 1F93      		push r17
 1311 0642 CF93      		push r28
 1312 0644 DF93      		push r29
 1313               	/* prologue: function */
 1314               	/* frame size = 0 */
 1315               	.LM189:
 1316 0646 C091 0000 		lds r28,Timebase
 1317 064a D091 0000 		lds r29,(Timebase)+1
 1318 064e 89A1      		ldd r24,Y+33
 1319 0650 8130      		cpi r24,lo8(1)
 1320 0652 01F0      		breq .L100
 1321 0654 EE24      		clr r14
 1322 0656 FF24      		clr r15
 1323 0658 8701      		movw r16,r14
 1324               	.LVL103:
 1325 065a 00C0      		rjmp .L101
 1326               	.LVL104:
 1327               	.L100:
 1328               	.LBB438:
 1329               	.LBB439:
 1330               	.LM190:
 1331               	/* #APP */
 1332               	 ;  433 "timebase.c" 1
 1333 065c F894      		cli
 1334               	 ;  0 "" 2
 1335               	/* #NOAPP */
 1336               	.LBE439:
 1337               	.LBE438:
 1338               	.LBB440:
 1339               	.LBB441:
 1340               	.LM191:
 1341 065e 2C89      		ldd r18,Y+20
 1342 0660 3D89      		ldd r19,Y+21
 1343 0662 4E89      		ldd r20,Y+22
 1344 0664 5F89      		ldd r21,Y+23
 1345               	.LVL105:
 1346               	.LBE441:
 1347               	.LBE440:
 1348               	.LBB442:
 1349               	.LBB443:
 1350               	.LM192:
 1351 0666 8E85      		ldd r24,Y+14
 1352 0668 9F85      		ldd r25,Y+15
 1353               	.LBE443:
 1354               	.LBE442:
 1355               	.LM193:
 1356 066a 7C01      		movw r14,r24
 1357               	.LVL106:
 1358 066c 00E0      		ldi r16,lo8(0)
 1359 066e 10E0      		ldi r17,hi8(0)
 1360               	.LVL107:
 1361               	.LBB444:
 1362               	.LBB445:
 1363               	.LM194:
 1364               	/* #APP */
 1365               	 ;  438 "timebase.c" 1
 1366 0670 7894      		sei
 1367               	 ;  0 "" 2
 1368               	/* #NOAPP */
 1369               	.LBE445:
 1370               	.LBE444:
 1371               	.LM195:
 1372 0672 898D      		ldd r24,Y+25
 1373 0674 9A8D      		ldd r25,Y+26
 1374 0676 AB8D      		ldd r26,Y+27
 1375 0678 BC8D      		ldd r27,Y+28
 1376 067a 281B      		sub r18,r24
 1377 067c 390B      		sbc r19,r25
 1378 067e 4A0B      		sbc r20,r26
 1379 0680 5B0B      		sbc r21,r27
 1380               	.LVL108:
 1381               	.LM196:
 1382 0682 6881      		ld r22,Y
 1383 0684 7981      		ldd r23,Y+1
 1384 0686 80E0      		ldi r24,lo8(0)
 1385 0688 90E0      		ldi r25,hi8(0)
 1386 068a 0E94 0000 		call __mulsi3
 1387               	.LVL109:
 1388               	.LM197:
 1389 068e 2D8D      		ldd r18,Y+29
 1390 0690 3E8D      		ldd r19,Y+30
 1391 0692 4F8D      		ldd r20,Y+31
 1392 0694 58A1      		ldd r21,Y+32
 1393 0696 E21A      		sub r14,r18
 1394 0698 F30A      		sbc r15,r19
 1395 069a 040B      		sbc r16,r20
 1396 069c 150B      		sbc r17,r21
 1397               	.LVL110:
 1398 069e E60E      		add r14,r22
 1399 06a0 F71E      		adc r15,r23
 1400 06a2 081F      		adc r16,r24
 1401 06a4 191F      		adc r17,r25
 1402               	.L101:
 1403               	.LM198:
 1404 06a6 B701      		movw r22,r14
 1405               	.LVL111:
 1406 06a8 C801      		movw r24,r16
 1407               	.LVL112:
 1408               	/* epilogue start */
 1409 06aa DF91      		pop r29
 1410 06ac CF91      		pop r28
 1411 06ae 1F91      		pop r17
 1412 06b0 0F91      		pop r16
 1413 06b2 FF90      		pop r15
 1414 06b4 EF90      		pop r14
 1415 06b6 0895      		ret
 1416               	.LFE30:
 1418               	.global	Timebase_Window_Timer_Get_Interval_Reset
 1420               	Timebase_Window_Timer_Get_Interval_Reset:
 1421               	.LFB31:
 1422               	.LM199:
 1423               	/* prologue: function */
 1424               	/* frame size = 0 */
 1425               	.LM200:
 1426 06b8 0E94 0000 		call Timebase_Window_Timer_Get_Interval
 1427 06bc 282F      		mov r18,r24
 1428               	.LVL113:
 1429               	.LM201:
 1430 06be E091 0000 		lds r30,Timebase
 1431 06c2 F091 0000 		lds r31,(Timebase)+1
 1432 06c6 81A1      		ldd r24,Z+33
 1433 06c8 8130      		cpi r24,lo8(1)
 1434 06ca 01F4      		brne .L104
 1435               	.LBB446:
 1436               	.LBB447:
 1437               	.LM202:
 1438 06cc 118E      		std Z+25,__zero_reg__
 1439 06ce 128E      		std Z+26,__zero_reg__
 1440 06d0 138E      		std Z+27,__zero_reg__
 1441 06d2 148E      		std Z+28,__zero_reg__
 1442               	.LM203:
 1443 06d4 158E      		std Z+29,__zero_reg__
 1444 06d6 168E      		std Z+30,__zero_reg__
 1445 06d8 178E      		std Z+31,__zero_reg__
 1446 06da 10A2      		std Z+32,__zero_reg__
 1447               	.LM204:
 1448 06dc 11A2      		std Z+33,__zero_reg__
 1449               	.L104:
 1450               	.LBE447:
 1451               	.LBE446:
 1452               	.LM205:
 1453 06de 822F      		mov r24,r18
 1454               	/* epilogue start */
 1455 06e0 0895      		ret
 1456               	.LFE31:
 1458               	.global	Timebase_DownCounter_SS_Get_Status
 1460               	Timebase_DownCounter_SS_Get_Status:
 1461               	.LFB32:
 1462               	.LM206:
 1463               	.LVL114:
 1464               	/* prologue: function */
 1465               	/* frame size = 0 */
 1466               	.LM207:
 1467 06e2 E091 0000 		lds r30,Timebase
 1468 06e6 F091 0000 		lds r31,(Timebase)+1
 1469 06ea 90E0      		ldi r25,lo8(0)
 1470               	.LVL115:
 1471 06ec 25E1      		ldi r18,lo8(21)
 1472 06ee 30E0      		ldi r19,hi8(21)
 1473 06f0 AC01      		movw r20,r24
 1474 06f2 429F      		mul r20,r18
 1475 06f4 C001      		movw r24,r0
 1476 06f6 439F      		mul r20,r19
 1477 06f8 900D      		add r25,r0
 1478 06fa 529F      		mul r21,r18
 1479 06fc 900D      		add r25,r0
 1480 06fe 1124      		clr r1
 1481               	.LVL116:
 1482 0700 E80F      		add r30,r24
 1483 0702 F91F      		adc r31,r25
 1484 0704 83A1      		ldd r24,Z+35
 1485 0706 8695      		lsr r24
 1486               	.LM208:
 1487 0708 8F70      		andi r24,lo8(15)
 1488               	/* epilogue start */
 1489 070a 0895      		ret
 1490               	.LFE32:
 1492               	.global	Timebase_DownCounter_SS_Set_Status
 1494               	Timebase_DownCounter_SS_Set_Status:
 1495               	.LFB33:
 1496               	.LM209:
 1497               	.LVL117:
 1498               	/* prologue: function */
 1499               	/* frame size = 0 */
 1500               	.LM210:
 1501 070c E091 0000 		lds r30,Timebase
 1502 0710 F091 0000 		lds r31,(Timebase)+1
 1503 0714 90E0      		ldi r25,lo8(0)
 1504               	.LVL118:
 1505 0716 25E1      		ldi r18,lo8(21)
 1506 0718 30E0      		ldi r19,hi8(21)
 1507 071a AC01      		movw r20,r24
 1508 071c 429F      		mul r20,r18
 1509 071e C001      		movw r24,r0
 1510 0720 439F      		mul r20,r19
 1511 0722 900D      		add r25,r0
 1512 0724 529F      		mul r21,r18
 1513 0726 900D      		add r25,r0
 1514 0728 1124      		clr r1
 1515               	.LVL119:
 1516 072a E80F      		add r30,r24
 1517 072c F91F      		adc r31,r25
 1518 072e 6F70      		andi r22,lo8(15)
 1519               	.LVL120:
 1520 0730 660F      		lsl r22
 1521 0732 83A1      		ldd r24,Z+35
 1522 0734 817E      		andi r24,lo8(-31)
 1523 0736 862B      		or r24,r22
 1524 0738 83A3      		std Z+35,r24
 1525               	/* epilogue start */
 1526               	.LM211:
 1527 073a 0895      		ret
 1528               	.LFE33:
 1530               	.global	Timebase_DownCounter_SS_Get_Value
 1532               	Timebase_DownCounter_SS_Get_Value:
 1533               	.LFB34:
 1534               	.LM212:
 1535               	.LVL121:
 1536               	/* prologue: function */
 1537               	/* frame size = 0 */
 1538               	.LM213:
 1539 073c E091 0000 		lds r30,Timebase
 1540 0740 F091 0000 		lds r31,(Timebase)+1
 1541 0744 90E0      		ldi r25,lo8(0)
 1542               	.LVL122:
 1543 0746 25E1      		ldi r18,lo8(21)
 1544 0748 30E0      		ldi r19,hi8(21)
 1545 074a AC01      		movw r20,r24
 1546 074c 429F      		mul r20,r18
 1547 074e C001      		movw r24,r0
 1548 0750 439F      		mul r20,r19
 1549 0752 900D      		add r25,r0
 1550 0754 529F      		mul r21,r18
 1551 0756 900D      		add r25,r0
 1552 0758 1124      		clr r1
 1553               	.LVL123:
 1554 075a E80F      		add r30,r24
 1555 075c F91F      		adc r31,r25
 1556 075e DF01      		movw r26,r30
 1557 0760 9C96      		adiw r26,44
 1558 0762 64A5      		ldd r22,Z+44
 1559 0764 1196      		adiw r26,1
 1560 0766 7C91      		ld r23,X
 1561 0768 1197      		sbiw r26,1
 1562               	.LM214:
 1563 076a 1296      		adiw r26,2
 1564 076c 8C91      		ld r24,X
 1565 076e 1297      		sbiw r26,2
 1566 0770 1396      		adiw r26,3
 1567 0772 9C91      		ld r25,X
 1568               	.LVL124:
 1569               	/* epilogue start */
 1570 0774 0895      		ret
 1571               	.LFE34:
 1573               	.global	Timebase_DownCounter_SS_Set_Value
 1575               	Timebase_DownCounter_SS_Set_Value:
 1576               	.LFB35:
 1577               	.LM215:
 1578               	.LVL125:
 1579               	/* prologue: function */
 1580               	/* frame size = 0 */
 1581               	.LM216:
 1582 0776 E091 0000 		lds r30,Timebase
 1583 077a F091 0000 		lds r31,(Timebase)+1
 1584 077e 90E0      		ldi r25,lo8(0)
 1585               	.LVL126:
 1586 0780 25E1      		ldi r18,lo8(21)
 1587 0782 30E0      		ldi r19,hi8(21)
 1588 0784 DC01      		movw r26,r24
 1589 0786 A29F      		mul r26,r18
 1590 0788 C001      		movw r24,r0
 1591 078a A39F      		mul r26,r19
 1592 078c 900D      		add r25,r0
 1593 078e B29F      		mul r27,r18
 1594 0790 900D      		add r25,r0
 1595 0792 1124      		clr r1
 1596               	.LVL127:
 1597 0794 E80F      		add r30,r24
 1598 0796 F91F      		adc r31,r25
 1599 0798 44A7      		std Z+44,r20
 1600 079a 55A7      		std Z+45,r21
 1601 079c 66A7      		std Z+46,r22
 1602 079e 77A7      		std Z+47,r23
 1603               	/* epilogue start */
 1604               	.LM217:
 1605 07a0 0895      		ret
 1606               	.LFE35:
 1608               	.global	Timebase_DownCounter_SS_Get_EndValueSec
 1610               	Timebase_DownCounter_SS_Get_EndValueSec:
 1611               	.LFB36:
 1612               	.LM218:
 1613               	.LVL128:
 1614               	/* prologue: function */
 1615               	/* frame size = 0 */
 1616               	.LM219:
 1617 07a2 E091 0000 		lds r30,Timebase
 1618 07a6 F091 0000 		lds r31,(Timebase)+1
 1619 07aa 90E0      		ldi r25,lo8(0)
 1620               	.LVL129:
 1621 07ac 25E1      		ldi r18,lo8(21)
 1622 07ae 30E0      		ldi r19,hi8(21)
 1623 07b0 AC01      		movw r20,r24
 1624 07b2 429F      		mul r20,r18
 1625 07b4 C001      		movw r24,r0
 1626 07b6 439F      		mul r20,r19
 1627 07b8 900D      		add r25,r0
 1628 07ba 529F      		mul r21,r18
 1629 07bc 900D      		add r25,r0
 1630 07be 1124      		clr r1
 1631               	.LVL130:
 1632 07c0 E80F      		add r30,r24
 1633 07c2 F91F      		adc r31,r25
 1634 07c4 DF01      		movw r26,r30
 1635 07c6 9496      		adiw r26,36
 1636 07c8 64A1      		ldd r22,Z+36
 1637 07ca 1196      		adiw r26,1
 1638 07cc 7C91      		ld r23,X
 1639 07ce 1197      		sbiw r26,1
 1640               	.LM220:
 1641 07d0 1296      		adiw r26,2
 1642 07d2 8C91      		ld r24,X
 1643 07d4 1297      		sbiw r26,2
 1644 07d6 1396      		adiw r26,3
 1645 07d8 9C91      		ld r25,X
 1646               	.LVL131:
 1647               	/* epilogue start */
 1648 07da 0895      		ret
 1649               	.LFE36:
 1651               	.global	Timebase_DownCounter_SS_Get_EndValueSubSec
 1653               	Timebase_DownCounter_SS_Get_EndValueSubSec:
 1654               	.LFB37:
 1655               	.LM221:
 1656               	.LVL132:
 1657               	/* prologue: function */
 1658               	/* frame size = 0 */
 1659               	.LM222:
 1660 07dc E091 0000 		lds r30,Timebase
 1661 07e0 F091 0000 		lds r31,(Timebase)+1
 1662 07e4 90E0      		ldi r25,lo8(0)
 1663               	.LVL133:
 1664 07e6 25E1      		ldi r18,lo8(21)
 1665 07e8 30E0      		ldi r19,hi8(21)
 1666 07ea AC01      		movw r20,r24
 1667 07ec 429F      		mul r20,r18
 1668 07ee C001      		movw r24,r0
 1669 07f0 439F      		mul r20,r19
 1670 07f2 900D      		add r25,r0
 1671 07f4 529F      		mul r21,r18
 1672 07f6 900D      		add r25,r0
 1673 07f8 1124      		clr r1
 1674               	.LVL134:
 1675 07fa E80F      		add r30,r24
 1676 07fc F91F      		adc r31,r25
 1677 07fe DF01      		movw r26,r30
 1678 0800 9896      		adiw r26,40
 1679 0802 60A5      		ldd r22,Z+40
 1680 0804 1196      		adiw r26,1
 1681 0806 7C91      		ld r23,X
 1682 0808 1197      		sbiw r26,1
 1683               	.LM223:
 1684 080a 1296      		adiw r26,2
 1685 080c 8C91      		ld r24,X
 1686 080e 1297      		sbiw r26,2
 1687 0810 1396      		adiw r26,3
 1688 0812 9C91      		ld r25,X
 1689               	.LVL135:
 1690               	/* epilogue start */
 1691 0814 0895      		ret
 1692               	.LFE37:
 1694               	.global	Timebase_DownCounter_SS_Set_EndValueSec
 1696               	Timebase_DownCounter_SS_Set_EndValueSec:
 1697               	.LFB38:
 1698               	.LM224:
 1699               	.LVL136:
 1700               	/* prologue: function */
 1701               	/* frame size = 0 */
 1702               	.LM225:
 1703 0816 E091 0000 		lds r30,Timebase
 1704 081a F091 0000 		lds r31,(Timebase)+1
 1705 081e 90E0      		ldi r25,lo8(0)
 1706               	.LVL137:
 1707 0820 25E1      		ldi r18,lo8(21)
 1708 0822 30E0      		ldi r19,hi8(21)
 1709 0824 DC01      		movw r26,r24
 1710 0826 A29F      		mul r26,r18
 1711 0828 C001      		movw r24,r0
 1712 082a A39F      		mul r26,r19
 1713 082c 900D      		add r25,r0
 1714 082e B29F      		mul r27,r18
 1715 0830 900D      		add r25,r0
 1716 0832 1124      		clr r1
 1717               	.LVL138:
 1718 0834 E80F      		add r30,r24
 1719 0836 F91F      		adc r31,r25
 1720 0838 44A3      		std Z+36,r20
 1721 083a 55A3      		std Z+37,r21
 1722 083c 66A3      		std Z+38,r22
 1723 083e 77A3      		std Z+39,r23
 1724               	/* epilogue start */
 1725               	.LM226:
 1726 0840 0895      		ret
 1727               	.LFE38:
 1729               	.global	Timebase_DownCounter_SS_Set_EndValueSubSec
 1731               	Timebase_DownCounter_SS_Set_EndValueSubSec:
 1732               	.LFB39:
 1733               	.LM227:
 1734               	.LVL139:
 1735               	/* prologue: function */
 1736               	/* frame size = 0 */
 1737               	.LM228:
 1738 0842 E091 0000 		lds r30,Timebase
 1739 0846 F091 0000 		lds r31,(Timebase)+1
 1740 084a 90E0      		ldi r25,lo8(0)
 1741               	.LVL140:
 1742 084c 25E1      		ldi r18,lo8(21)
 1743 084e 30E0      		ldi r19,hi8(21)
 1744 0850 DC01      		movw r26,r24
 1745 0852 A29F      		mul r26,r18
 1746 0854 C001      		movw r24,r0
 1747 0856 A39F      		mul r26,r19
 1748 0858 900D      		add r25,r0
 1749 085a B29F      		mul r27,r18
 1750 085c 900D      		add r25,r0
 1751 085e 1124      		clr r1
 1752               	.LVL141:
 1753 0860 E80F      		add r30,r24
 1754 0862 F91F      		adc r31,r25
 1755 0864 40A7      		std Z+40,r20
 1756 0866 51A7      		std Z+41,r21
 1757 0868 62A7      		std Z+42,r22
 1758 086a 73A7      		std Z+43,r23
 1759               	/* epilogue start */
 1760               	.LM229:
 1761 086c 0895      		ret
 1762               	.LFE39:
 1764               	.global	Timebase_DownCounter_SS_Get_PeriodValue
 1766               	Timebase_DownCounter_SS_Get_PeriodValue:
 1767               	.LFB40:
 1768               	.LM230:
 1769               	.LVL142:
 1770               	/* prologue: function */
 1771               	/* frame size = 0 */
 1772               	.LM231:
 1773 086e E091 0000 		lds r30,Timebase
 1774 0872 F091 0000 		lds r31,(Timebase)+1
 1775 0876 90E0      		ldi r25,lo8(0)
 1776               	.LVL143:
 1777 0878 25E1      		ldi r18,lo8(21)
 1778 087a 30E0      		ldi r19,hi8(21)
 1779 087c AC01      		movw r20,r24
 1780 087e 429F      		mul r20,r18
 1781 0880 C001      		movw r24,r0
 1782 0882 439F      		mul r20,r19
 1783 0884 900D      		add r25,r0
 1784 0886 529F      		mul r21,r18
 1785 0888 900D      		add r25,r0
 1786 088a 1124      		clr r1
 1787               	.LVL144:
 1788 088c E80F      		add r30,r24
 1789 088e F91F      		adc r31,r25
 1790 0890 DF01      		movw r26,r30
 1791 0892 D096      		adiw r26,48
 1792 0894 60A9      		ldd r22,Z+48
 1793 0896 1196      		adiw r26,1
 1794 0898 7C91      		ld r23,X
 1795 089a 1197      		sbiw r26,1
 1796               	.LM232:
 1797 089c 1296      		adiw r26,2
 1798 089e 8C91      		ld r24,X
 1799 08a0 1297      		sbiw r26,2
 1800 08a2 1396      		adiw r26,3
 1801 08a4 9C91      		ld r25,X
 1802               	.LVL145:
 1803               	/* epilogue start */
 1804 08a6 0895      		ret
 1805               	.LFE40:
 1807               	.global	Timebase_DownCounter_SS_Set_PeriodValue
 1809               	Timebase_DownCounter_SS_Set_PeriodValue:
 1810               	.LFB41:
 1811               	.LM233:
 1812               	.LVL146:
 1813               	/* prologue: function */
 1814               	/* frame size = 0 */
 1815 08a8 E091 0000 		lds r30,Timebase
 1816 08ac F091 0000 		lds r31,(Timebase)+1
 1817 08b0 282F      		mov r18,r24
 1818 08b2 30E0      		ldi r19,lo8(0)
 1819               	.LVL147:
 1820               	.LM234:
 1821 08b4 77FF      		sbrs r23,7
 1822 08b6 00C0      		rjmp .L125
 1823               	.LVL148:
 1824               	.LM235:
 1825 08b8 85E1      		ldi r24,lo8(21)
 1826 08ba 90E0      		ldi r25,hi8(21)
 1827 08bc AC01      		movw r20,r24
 1828               	.LVL149:
 1829 08be 249F      		mul r18,r20
 1830 08c0 C001      		movw r24,r0
 1831 08c2 259F      		mul r18,r21
 1832 08c4 900D      		add r25,r0
 1833 08c6 349F      		mul r19,r20
 1834 08c8 900D      		add r25,r0
 1835 08ca 1124      		clr r1
 1836 08cc E80F      		add r30,r24
 1837 08ce F91F      		adc r31,r25
 1838 08d0 10AA      		std Z+48,__zero_reg__
 1839 08d2 11AA      		std Z+49,__zero_reg__
 1840 08d4 12AA      		std Z+50,__zero_reg__
 1841 08d6 13AA      		std Z+51,__zero_reg__
 1842 08d8 0895      		ret
 1843               	.LVL150:
 1844               	.L125:
 1845               	.LM236:
 1846 08da 85E1      		ldi r24,lo8(21)
 1847 08dc 90E0      		ldi r25,hi8(21)
 1848 08de DC01      		movw r26,r24
 1849 08e0 2A9F      		mul r18,r26
 1850 08e2 C001      		movw r24,r0
 1851 08e4 2B9F      		mul r18,r27
 1852 08e6 900D      		add r25,r0
 1853 08e8 3A9F      		mul r19,r26
 1854 08ea 900D      		add r25,r0
 1855 08ec 1124      		clr r1
 1856 08ee E80F      		add r30,r24
 1857 08f0 F91F      		adc r31,r25
 1858 08f2 40AB      		std Z+48,r20
 1859 08f4 51AB      		std Z+49,r21
 1860 08f6 62AB      		std Z+50,r22
 1861 08f8 73AB      		std Z+51,r23
 1862 08fa 0895      		ret
 1863               	.LFE41:
 1865               	.global	Timebase_DownCounter_SS_Get_Period_Flag
 1867               	Timebase_DownCounter_SS_Get_Period_Flag:
 1868               	.LFB42:
 1869               	.LM237:
 1870               	.LVL151:
 1871               	/* prologue: function */
 1872               	/* frame size = 0 */
 1873               	.LM238:
 1874 08fc E091 0000 		lds r30,Timebase
 1875 0900 F091 0000 		lds r31,(Timebase)+1
 1876 0904 90E0      		ldi r25,lo8(0)
 1877               	.LVL152:
 1878 0906 25E1      		ldi r18,lo8(21)
 1879 0908 30E0      		ldi r19,hi8(21)
 1880 090a AC01      		movw r20,r24
 1881 090c 429F      		mul r20,r18
 1882 090e C001      		movw r24,r0
 1883 0910 439F      		mul r20,r19
 1884 0912 900D      		add r25,r0
 1885 0914 529F      		mul r21,r18
 1886 0916 900D      		add r25,r0
 1887 0918 1124      		clr r1
 1888               	.LVL153:
 1889 091a E80F      		add r30,r24
 1890 091c F91F      		adc r31,r25
 1891 091e 83A1      		ldd r24,Z+35
 1892               	.LM239:
 1893 0920 8170      		andi r24,lo8(1)
 1894               	/* epilogue start */
 1895 0922 0895      		ret
 1896               	.LFE42:
 1898               	.global	Timebase_DownCounter_SS_Set_Period_Flag
 1900               	Timebase_DownCounter_SS_Set_Period_Flag:
 1901               	.LFB43:
 1902               	.LM240:
 1903               	.LVL154:
 1904               	/* prologue: function */
 1905               	/* frame size = 0 */
 1906               	.LM241:
 1907 0924 E091 0000 		lds r30,Timebase
 1908 0928 F091 0000 		lds r31,(Timebase)+1
 1909 092c 90E0      		ldi r25,lo8(0)
 1910               	.LVL155:
 1911 092e 25E1      		ldi r18,lo8(21)
 1912 0930 30E0      		ldi r19,hi8(21)
 1913 0932 AC01      		movw r20,r24
 1914 0934 429F      		mul r20,r18
 1915 0936 C001      		movw r24,r0
 1916 0938 439F      		mul r20,r19
 1917 093a 900D      		add r25,r0
 1918 093c 529F      		mul r21,r18
 1919 093e 900D      		add r25,r0
 1920 0940 1124      		clr r1
 1921               	.LVL156:
 1922 0942 E80F      		add r30,r24
 1923 0944 F91F      		adc r31,r25
 1924 0946 83A1      		ldd r24,Z+35
 1925 0948 8160      		ori r24,lo8(1)
 1926 094a 83A3      		std Z+35,r24
 1927               	/* epilogue start */
 1928               	.LM242:
 1929 094c 0895      		ret
 1930               	.LFE43:
 1932               	.global	Timebase_DownCounter_SS_Clear_Period_Flag
 1934               	Timebase_DownCounter_SS_Clear_Period_Flag:
 1935               	.LFB44:
 1936               	.LM243:
 1937               	.LVL157:
 1938               	/* prologue: function */
 1939               	/* frame size = 0 */
 1940               	.LM244:
 1941 094e E091 0000 		lds r30,Timebase
 1942 0952 F091 0000 		lds r31,(Timebase)+1
 1943 0956 90E0      		ldi r25,lo8(0)
 1944               	.LVL158:
 1945 0958 25E1      		ldi r18,lo8(21)
 1946 095a 30E0      		ldi r19,hi8(21)
 1947 095c AC01      		movw r20,r24
 1948 095e 429F      		mul r20,r18
 1949 0960 C001      		movw r24,r0
 1950 0962 439F      		mul r20,r19
 1951 0964 900D      		add r25,r0
 1952 0966 529F      		mul r21,r18
 1953 0968 900D      		add r25,r0
 1954 096a 1124      		clr r1
 1955               	.LVL159:
 1956 096c E80F      		add r30,r24
 1957 096e F91F      		adc r31,r25
 1958 0970 83A1      		ldd r24,Z+35
 1959 0972 8E7F      		andi r24,lo8(-2)
 1960 0974 83A3      		std Z+35,r24
 1961               	/* epilogue start */
 1962               	.LM245:
 1963 0976 0895      		ret
 1964               	.LFE44:
 1966               	.global	Timebase_DownCounter_SS_Get_ReloadValue
 1968               	Timebase_DownCounter_SS_Get_ReloadValue:
 1969               	.LFB45:
 1970               	.LM246:
 1971               	.LVL160:
 1972               	/* prologue: function */
 1973               	/* frame size = 0 */
 1974               	.LM247:
 1975 0978 E091 0000 		lds r30,Timebase
 1976 097c F091 0000 		lds r31,(Timebase)+1
 1977 0980 90E0      		ldi r25,lo8(0)
 1978               	.LVL161:
 1979 0982 25E1      		ldi r18,lo8(21)
 1980 0984 30E0      		ldi r19,hi8(21)
 1981 0986 AC01      		movw r20,r24
 1982 0988 429F      		mul r20,r18
 1983 098a C001      		movw r24,r0
 1984 098c 439F      		mul r20,r19
 1985 098e 900D      		add r25,r0
 1986 0990 529F      		mul r21,r18
 1987 0992 900D      		add r25,r0
 1988 0994 1124      		clr r1
 1989               	.LVL162:
 1990 0996 E80F      		add r30,r24
 1991 0998 F91F      		adc r31,r25
 1992 099a DF01      		movw r26,r30
 1993 099c D496      		adiw r26,52
 1994 099e 64A9      		ldd r22,Z+52
 1995 09a0 1196      		adiw r26,1
 1996 09a2 7C91      		ld r23,X
 1997 09a4 1197      		sbiw r26,1
 1998               	.LM248:
 1999 09a6 1296      		adiw r26,2
 2000 09a8 8C91      		ld r24,X
 2001 09aa 1297      		sbiw r26,2
 2002 09ac 1396      		adiw r26,3
 2003 09ae 9C91      		ld r25,X
 2004               	.LVL163:
 2005               	/* epilogue start */
 2006 09b0 0895      		ret
 2007               	.LFE45:
 2009               	.global	Timebase_DownCounter_SS_Set_ReloadValue
 2011               	Timebase_DownCounter_SS_Set_ReloadValue:
 2012               	.LFB46:
 2013               	.LM249:
 2014               	.LVL164:
 2015               	/* prologue: function */
 2016               	/* frame size = 0 */
 2017               	.LM250:
 2018 09b2 E091 0000 		lds r30,Timebase
 2019 09b6 F091 0000 		lds r31,(Timebase)+1
 2020 09ba 90E0      		ldi r25,lo8(0)
 2021               	.LVL165:
 2022 09bc 25E1      		ldi r18,lo8(21)
 2023 09be 30E0      		ldi r19,hi8(21)
 2024 09c0 DC01      		movw r26,r24
 2025 09c2 A29F      		mul r26,r18
 2026 09c4 C001      		movw r24,r0
 2027 09c6 A39F      		mul r26,r19
 2028 09c8 900D      		add r25,r0
 2029 09ca B29F      		mul r27,r18
 2030 09cc 900D      		add r25,r0
 2031 09ce 1124      		clr r1
 2032               	.LVL166:
 2033 09d0 E80F      		add r30,r24
 2034 09d2 F91F      		adc r31,r25
 2035 09d4 44AB      		std Z+52,r20
 2036 09d6 55AB      		std Z+53,r21
 2037 09d8 66AB      		std Z+54,r22
 2038 09da 77AB      		std Z+55,r23
 2039               	/* epilogue start */
 2040               	.LM251:
 2041 09dc 0895      		ret
 2042               	.LFE46:
 2044               	.global	Timebase_DownCounter_SS_Reset
 2046               	Timebase_DownCounter_SS_Reset:
 2047               	.LFB47:
 2048               	.LM252:
 2049               	.LVL167:
 2050               	/* prologue: function */
 2051               	/* frame size = 0 */
 2052               	.LBB448:
 2053               	.LBB449:
 2054               	.LM253:
 2055 09de E091 0000 		lds r30,Timebase
 2056 09e2 F091 0000 		lds r31,(Timebase)+1
 2057 09e6 90E0      		ldi r25,lo8(0)
 2058 09e8 25E1      		ldi r18,lo8(21)
 2059 09ea 30E0      		ldi r19,hi8(21)
 2060 09ec AC01      		movw r20,r24
 2061               	.LVL168:
 2062 09ee 429F      		mul r20,r18
 2063 09f0 C001      		movw r24,r0
 2064 09f2 439F      		mul r20,r19
 2065 09f4 900D      		add r25,r0
 2066 09f6 529F      		mul r21,r18
 2067 09f8 900D      		add r25,r0
 2068 09fa 1124      		clr r1
 2069 09fc E80F      		add r30,r24
 2070 09fe F91F      		adc r31,r25
 2071 0a00 10A6      		std Z+40,__zero_reg__
 2072 0a02 11A6      		std Z+41,__zero_reg__
 2073 0a04 12A6      		std Z+42,__zero_reg__
 2074 0a06 13A6      		std Z+43,__zero_reg__
 2075               	.LBE449:
 2076               	.LBE448:
 2077               	.LBB450:
 2078               	.LBB451:
 2079               	.LM254:
 2080 0a08 14A2      		std Z+36,__zero_reg__
 2081 0a0a 15A2      		std Z+37,__zero_reg__
 2082 0a0c 16A2      		std Z+38,__zero_reg__
 2083 0a0e 17A2      		std Z+39,__zero_reg__
 2084               	.LBE451:
 2085               	.LBE450:
 2086               	.LBB452:
 2087               	.LBB453:
 2088               	.LM255:
 2089 0a10 14A6      		std Z+44,__zero_reg__
 2090 0a12 15A6      		std Z+45,__zero_reg__
 2091 0a14 16A6      		std Z+46,__zero_reg__
 2092 0a16 17A6      		std Z+47,__zero_reg__
 2093               	.LBE453:
 2094               	.LBE452:
 2095               	.LBB454:
 2096               	.LBB455:
 2097               	.LM256:
 2098 0a18 83A1      		ldd r24,Z+35
 2099               	.LBE455:
 2100               	.LBE454:
 2101               	.LBB456:
 2102               	.LBB457:
 2103               	.LM257:
 2104 0a1a 807E      		andi r24,lo8(-32)
 2105 0a1c 83A3      		std Z+35,r24
 2106               	.LBE457:
 2107               	.LBE456:
 2108               	.LBB458:
 2109               	.LBB459:
 2110               	.LM258:
 2111 0a1e 14AA      		std Z+52,__zero_reg__
 2112 0a20 15AA      		std Z+53,__zero_reg__
 2113 0a22 16AA      		std Z+54,__zero_reg__
 2114 0a24 17AA      		std Z+55,__zero_reg__
 2115               	/* epilogue start */
 2116               	.LBE459:
 2117               	.LBE458:
 2118               	.LM259:
 2119 0a26 0895      		ret
 2120               	.LFE47:
 2122               	.global	Timebase_DownCounter_SS_Clear_All_Flags
 2124               	Timebase_DownCounter_SS_Clear_All_Flags:
 2125               	.LFB48:
 2126               	.LM260:
 2127               	.LVL169:
 2128               	/* prologue: function */
 2129               	/* frame size = 0 */
 2130               	.LBB460:
 2131               	.LBB461:
 2132               	.LBB462:
 2133               	.LBB463:
 2134               	.LM261:
 2135 0a28 E091 0000 		lds r30,Timebase
 2136 0a2c F091 0000 		lds r31,(Timebase)+1
 2137 0a30 90E0      		ldi r25,lo8(0)
 2138 0a32 25E1      		ldi r18,lo8(21)
 2139 0a34 30E0      		ldi r19,hi8(21)
 2140 0a36 AC01      		movw r20,r24
 2141               	.LVL170:
 2142 0a38 429F      		mul r20,r18
 2143 0a3a C001      		movw r24,r0
 2144 0a3c 439F      		mul r20,r19
 2145 0a3e 900D      		add r25,r0
 2146 0a40 529F      		mul r21,r18
 2147 0a42 900D      		add r25,r0
 2148 0a44 1124      		clr r1
 2149 0a46 E80F      		add r30,r24
 2150 0a48 F91F      		adc r31,r25
 2151 0a4a 10A6      		std Z+40,__zero_reg__
 2152 0a4c 11A6      		std Z+41,__zero_reg__
 2153 0a4e 12A6      		std Z+42,__zero_reg__
 2154 0a50 13A6      		std Z+43,__zero_reg__
 2155               	.LBE463:
 2156               	.LBE462:
 2157               	.LBB464:
 2158               	.LBB465:
 2159               	.LM262:
 2160 0a52 14A2      		std Z+36,__zero_reg__
 2161 0a54 15A2      		std Z+37,__zero_reg__
 2162 0a56 16A2      		std Z+38,__zero_reg__
 2163 0a58 17A2      		std Z+39,__zero_reg__
 2164               	.LBE465:
 2165               	.LBE464:
 2166               	.LBB466:
 2167               	.LBB467:
 2168               	.LM263:
 2169 0a5a 14A6      		std Z+44,__zero_reg__
 2170 0a5c 15A6      		std Z+45,__zero_reg__
 2171 0a5e 16A6      		std Z+46,__zero_reg__
 2172 0a60 17A6      		std Z+47,__zero_reg__
 2173               	.LBE467:
 2174               	.LBE466:
 2175               	.LBB468:
 2176               	.LBB469:
 2177               	.LM264:
 2178 0a62 83A1      		ldd r24,Z+35
 2179               	.LBE469:
 2180               	.LBE468:
 2181               	.LBB470:
 2182               	.LBB471:
 2183               	.LM265:
 2184 0a64 807E      		andi r24,lo8(-32)
 2185 0a66 83A3      		std Z+35,r24
 2186               	.LBE471:
 2187               	.LBE470:
 2188               	.LBB472:
 2189               	.LBB473:
 2190               	.LM266:
 2191 0a68 14AA      		std Z+52,__zero_reg__
 2192 0a6a 15AA      		std Z+53,__zero_reg__
 2193 0a6c 16AA      		std Z+54,__zero_reg__
 2194 0a6e 17AA      		std Z+55,__zero_reg__
 2195               	/* epilogue start */
 2196               	.LBE473:
 2197               	.LBE472:
 2198               	.LBE461:
 2199               	.LBE460:
 2200               	.LM267:
 2201 0a70 0895      		ret
 2202               	.LFE48:
 2204               	.global	Timebase_DownCounter_SS_Start
 2206               	Timebase_DownCounter_SS_Start:
 2207               	.LFB49:
 2208               	.LM268:
 2209               	.LVL171:
 2210               	/* prologue: function */
 2211               	/* frame size = 0 */
 2212               	.LBB474:
 2213               	.LBB475:
 2214               	.LM269:
 2215 0a72 E091 0000 		lds r30,Timebase
 2216 0a76 F091 0000 		lds r31,(Timebase)+1
 2217 0a7a 90E0      		ldi r25,lo8(0)
 2218               	.LBE475:
 2219               	.LBE474:
 2220               	.LM270:
 2221 0a7c 25E1      		ldi r18,lo8(21)
 2222 0a7e 30E0      		ldi r19,hi8(21)
 2223 0a80 AC01      		movw r20,r24
 2224               	.LVL172:
 2225 0a82 429F      		mul r20,r18
 2226 0a84 C001      		movw r24,r0
 2227 0a86 439F      		mul r20,r19
 2228 0a88 900D      		add r25,r0
 2229 0a8a 529F      		mul r21,r18
 2230 0a8c 900D      		add r25,r0
 2231 0a8e 1124      		clr r1
 2232 0a90 E80F      		add r30,r24
 2233 0a92 F91F      		adc r31,r25
 2234 0a94 93A1      		ldd r25,Z+35
 2235 0a96 892F      		mov r24,r25
 2236 0a98 8695      		lsr r24
 2237 0a9a 8F70      		andi r24,lo8(15)
 2238 0a9c 8130      		cpi r24,lo8(1)
 2239 0a9e 01F0      		breq .L144
 2240               	.LBB476:
 2241               	.LBB477:
 2242               	.LM271:
 2243 0aa0 917E      		andi r25,lo8(-31)
 2244 0aa2 9260      		ori r25,lo8(2)
 2245 0aa4 93A3      		std Z+35,r25
 2246               	.L144:
 2247 0aa6 0895      		ret
 2248               	.LBE477:
 2249               	.LBE476:
 2250               	.LFE49:
 2252               	.global	Timebase_DownCounter_SS_Stop
 2254               	Timebase_DownCounter_SS_Stop:
 2255               	.LFB50:
 2256               	.LM272:
 2257               	.LVL173:
 2258               	/* prologue: function */
 2259               	/* frame size = 0 */
 2260               	.LBB478:
 2261               	.LBB479:
 2262               	.LM273:
 2263 0aa8 E091 0000 		lds r30,Timebase
 2264 0aac F091 0000 		lds r31,(Timebase)+1
 2265 0ab0 90E0      		ldi r25,lo8(0)
 2266               	.LBE479:
 2267               	.LBE478:
 2268               	.LM274:
 2269 0ab2 25E1      		ldi r18,lo8(21)
 2270 0ab4 30E0      		ldi r19,hi8(21)
 2271 0ab6 AC01      		movw r20,r24
 2272               	.LVL174:
 2273 0ab8 429F      		mul r20,r18
 2274 0aba C001      		movw r24,r0
 2275 0abc 439F      		mul r20,r19
 2276 0abe 900D      		add r25,r0
 2277 0ac0 529F      		mul r21,r18
 2278 0ac2 900D      		add r25,r0
 2279 0ac4 1124      		clr r1
 2280 0ac6 E80F      		add r30,r24
 2281 0ac8 F91F      		adc r31,r25
 2282 0aca 93A1      		ldd r25,Z+35
 2283 0acc 892F      		mov r24,r25
 2284 0ace 8695      		lsr r24
 2285 0ad0 8F70      		andi r24,lo8(15)
 2286 0ad2 8230      		cpi r24,lo8(2)
 2287 0ad4 01F0      		breq .L147
 2288               	.LBB480:
 2289               	.LBB481:
 2290               	.LM275:
 2291 0ad6 917E      		andi r25,lo8(-31)
 2292 0ad8 9460      		ori r25,lo8(4)
 2293 0ada 93A3      		std Z+35,r25
 2294               	.L147:
 2295 0adc 0895      		ret
 2296               	.LBE481:
 2297               	.LBE480:
 2298               	.LFE50:
 2300               	.global	Timebase_DownCounter_SS_Set_Securely
 2302               	Timebase_DownCounter_SS_Set_Securely:
 2303               	.LFB51:
 2304               	.LM276:
 2305               	.LVL175:
 2306 0ade 2F92      		push r2
 2307 0ae0 3F92      		push r3
 2308 0ae2 4F92      		push r4
 2309 0ae4 5F92      		push r5
 2310 0ae6 6F92      		push r6
 2311 0ae8 7F92      		push r7
 2312 0aea 8F92      		push r8
 2313 0aec 9F92      		push r9
 2314 0aee AF92      		push r10
 2315 0af0 BF92      		push r11
 2316 0af2 CF92      		push r12
 2317 0af4 DF92      		push r13
 2318 0af6 EF92      		push r14
 2319 0af8 FF92      		push r15
 2320 0afa 0F93      		push r16
 2321 0afc 1F93      		push r17
 2322 0afe DF93      		push r29
 2323 0b00 CF93      		push r28
 2324 0b02 CDB7      		in r28,__SP_L__
 2325 0b04 DEB7      		in r29,__SP_H__
 2326 0b06 2897      		sbiw r28,8
 2327 0b08 0FB6      		in __tmp_reg__,__SREG__
 2328 0b0a F894      		cli
 2329 0b0c DEBF      		out __SP_H__,r29
 2330 0b0e 0FBE      		out __SREG__,__tmp_reg__
 2331 0b10 CDBF      		out __SP_L__,r28
 2332               	/* prologue: function */
 2333               	/* frame size = 8 */
 2334 0b12 1A01      		movw r2,r20
 2335 0b14 2B01      		movw r4,r22
 2336               	.LBB482:
 2337               	.LBB483:
 2338               	.LM277:
 2339 0b16 2091 0000 		lds r18,Timebase
 2340 0b1a 3091 0000 		lds r19,(Timebase)+1
 2341 0b1e 3887      		std Y+8,r19
 2342 0b20 2F83      		std Y+7,r18
 2343 0b22 A82F      		mov r26,r24
 2344 0b24 B0E0      		ldi r27,lo8(0)
 2345 0b26 BA83      		std Y+2,r27
 2346 0b28 A983      		std Y+1,r26
 2347               	.LBE483:
 2348               	.LBE482:
 2349               	.LM278:
 2350 0b2a 85E1      		ldi r24,lo8(21)
 2351 0b2c 90E0      		ldi r25,hi8(21)
 2352               	.LVL176:
 2353 0b2e A89F      		mul r26,r24
 2354 0b30 F001      		movw r30,r0
 2355 0b32 A99F      		mul r26,r25
 2356 0b34 F00D      		add r31,r0
 2357 0b36 B89F      		mul r27,r24
 2358 0b38 F00D      		add r31,r0
 2359 0b3a 1124      		clr r1
 2360 0b3c E20F      		add r30,r18
 2361 0b3e F31F      		adc r31,r19
 2362 0b40 83A1      		ldd r24,Z+35
 2363 0b42 8695      		lsr r24
 2364 0b44 8F70      		andi r24,lo8(15)
 2365 0b46 01F0      		breq .+2
 2366 0b48 00C0      		rjmp .L151
 2367               	.LVL177:
 2368               	.LBB484:
 2369               	.LBB485:
 2370               	.LM279:
 2371 0b4a 44A7      		std Z+44,r20
 2372 0b4c 55A7      		std Z+45,r21
 2373 0b4e 66A7      		std Z+46,r22
 2374 0b50 77A7      		std Z+47,r23
 2375               	.LBE485:
 2376               	.LBE484:
 2377               	.LBB486:
 2378               	.LBB487:
 2379               	.LM280:
 2380 0b52 F901      		movw r30,r18
 2381 0b54 C084      		ldd r12,Z+8
 2382 0b56 D184      		ldd r13,Z+9
 2383               	.LBE487:
 2384               	.LBE486:
 2385               	.LBB488:
 2386               	.LBB489:
 2387               	.LM281:
 2388 0b58 D901      		movw r26,r18
 2389 0b5a 1A96      		adiw r26,10
 2390 0b5c 8D91      		ld r24,X+
 2391 0b5e 9D91      		ld r25,X+
 2392 0b60 0D90      		ld __tmp_reg__,X+
 2393 0b62 BC91      		ld r27,X
 2394 0b64 A02D      		mov r26,__tmp_reg__
 2395 0b66 8B83      		std Y+3,r24
 2396 0b68 9C83      		std Y+4,r25
 2397 0b6a AD83      		std Y+5,r26
 2398 0b6c BE83      		std Y+6,r27
 2399               	.LVL178:
 2400               	.LBE489:
 2401               	.LBE488:
 2402               	.LM282:
 2403 0b6e 2081      		ld r18,Z
 2404 0b70 3181      		ldd r19,Z+1
 2405 0b72 40E0      		ldi r20,lo8(0)
 2406 0b74 50E0      		ldi r21,hi8(0)
 2407 0b76 C201      		movw r24,r4
 2408 0b78 B101      		movw r22,r2
 2409 0b7a 0E94 0000 		call __divmodsi4
 2410 0b7e 7B01      		movw r14,r22
 2411 0b80 8C01      		movw r16,r24
 2412               	.LM283:
 2413 0b82 EF81      		ldd r30,Y+7
 2414 0b84 F885      		ldd r31,Y+8
 2415 0b86 2081      		ld r18,Z
 2416 0b88 3181      		ldd r19,Z+1
 2417 0b8a 40E0      		ldi r20,lo8(0)
 2418 0b8c 50E0      		ldi r21,hi8(0)
 2419 0b8e C201      		movw r24,r4
 2420 0b90 B101      		movw r22,r2
 2421 0b92 0E94 0000 		call __divmodsi4
 2422 0b96 C901      		movw r24,r18
 2423 0b98 DA01      		movw r26,r20
 2424 0b9a 3C01      		movw r6,r24
 2425 0b9c 4D01      		movw r8,r26
 2426               	.LVL179:
 2427               	.LM284:
 2428 0b9e 5601      		movw r10,r12
 2429               	.LVL180:
 2430 0ba0 CC24      		clr r12
 2431 0ba2 DD24      		clr r13
 2432               	.LVL181:
 2433 0ba4 AE0C      		add r10,r14
 2434 0ba6 BF1C      		adc r11,r15
 2435 0ba8 C01E      		adc r12,r16
 2436 0baa D11E      		adc r13,r17
 2437               	.LVL182:
 2438               	.LM285:
 2439 0bac AF81      		ldd r26,Y+7
 2440 0bae B885      		ldd r27,Y+8
 2441 0bb0 8D91      		ld r24,X+
 2442 0bb2 9C91      		ld r25,X
 2443               	.LVL183:
 2444 0bb4 A0E0      		ldi r26,lo8(0)
 2445 0bb6 B0E0      		ldi r27,hi8(0)
 2446 0bb8 A816      		cp r10,r24
 2447 0bba B906      		cpc r11,r25
 2448 0bbc CA06      		cpc r12,r26
 2449 0bbe DB06      		cpc r13,r27
 2450 0bc0 04F0      		brlt .L150
 2451               	.LM286:
 2452 0bc2 0894      		sec
 2453 0bc4 611C      		adc r6,__zero_reg__
 2454 0bc6 711C      		adc r7,__zero_reg__
 2455 0bc8 811C      		adc r8,__zero_reg__
 2456 0bca 911C      		adc r9,__zero_reg__
 2457               	.LM287:
 2458 0bcc EF81      		ldd r30,Y+7
 2459 0bce F885      		ldd r31,Y+8
 2460 0bd0 2081      		ld r18,Z
 2461 0bd2 3181      		ldd r19,Z+1
 2462 0bd4 40E0      		ldi r20,lo8(0)
 2463 0bd6 50E0      		ldi r21,hi8(0)
 2464 0bd8 C601      		movw r24,r12
 2465 0bda B501      		movw r22,r10
 2466 0bdc 0E94 0000 		call __divmodsi4
 2467 0be0 AC01      		movw r20,r24
 2468 0be2 CB01      		movw r24,r22
 2469 0be4 DA01      		movw r26,r20
 2470 0be6 5C01      		movw r10,r24
 2471 0be8 6D01      		movw r12,r26
 2472               	.L150:
 2473               	.LBB490:
 2474               	.LBB491:
 2475               	.LM288:
 2476 0bea 85E1      		ldi r24,lo8(21)
 2477 0bec 90E0      		ldi r25,hi8(21)
 2478 0bee 2981      		ldd r18,Y+1
 2479 0bf0 3A81      		ldd r19,Y+2
 2480 0bf2 289F      		mul r18,r24
 2481 0bf4 A001      		movw r20,r0
 2482 0bf6 299F      		mul r18,r25
 2483 0bf8 500D      		add r21,r0
 2484 0bfa 389F      		mul r19,r24
 2485 0bfc 500D      		add r21,r0
 2486 0bfe 1124      		clr r1
 2487 0c00 8F81      		ldd r24,Y+7
 2488 0c02 9885      		ldd r25,Y+8
 2489 0c04 480F      		add r20,r24
 2490 0c06 591F      		adc r21,r25
 2491 0c08 8B81      		ldd r24,Y+3
 2492 0c0a 9C81      		ldd r25,Y+4
 2493 0c0c AD81      		ldd r26,Y+5
 2494 0c0e BE81      		ldd r27,Y+6
 2495 0c10 860D      		add r24,r6
 2496 0c12 971D      		adc r25,r7
 2497 0c14 A81D      		adc r26,r8
 2498 0c16 B91D      		adc r27,r9
 2499 0c18 FA01      		movw r30,r20
 2500 0c1a 84A3      		std Z+36,r24
 2501 0c1c 95A3      		std Z+37,r25
 2502 0c1e A6A3      		std Z+38,r26
 2503 0c20 B7A3      		std Z+39,r27
 2504               	.LBE491:
 2505               	.LBE490:
 2506               	.LBB492:
 2507               	.LBB493:
 2508               	.LM289:
 2509 0c22 DA01      		movw r26,r20
 2510 0c24 9896      		adiw r26,40
 2511 0c26 AD92      		st X+,r10
 2512 0c28 BD92      		st X+,r11
 2513 0c2a CD92      		st X+,r12
 2514 0c2c DC92      		st X,r13
 2515 0c2e 9B97      		sbiw r26,40+3
 2516               	.LBE493:
 2517               	.LBE492:
 2518               	.LBB494:
 2519               	.LBB495:
 2520               	.LM290:
 2521 0c30 24AA      		std Z+52,r2
 2522 0c32 35AA      		std Z+53,r3
 2523 0c34 46AA      		std Z+54,r4
 2524 0c36 57AA      		std Z+55,r5
 2525               	.LBE495:
 2526               	.LBE494:
 2527               	.LBB496:
 2528               	.LBB497:
 2529               	.LM291:
 2530 0c38 93A1      		ldd r25,Z+35
 2531 0c3a 892F      		mov r24,r25
 2532 0c3c 8695      		lsr r24
 2533 0c3e 8F70      		andi r24,lo8(15)
 2534 0c40 8130      		cpi r24,lo8(1)
 2535 0c42 01F0      		breq .L151
 2536               	.LBB498:
 2537               	.LBB499:
 2538               	.LM292:
 2539 0c44 917E      		andi r25,lo8(-31)
 2540 0c46 9260      		ori r25,lo8(2)
 2541 0c48 93A3      		std Z+35,r25
 2542               	.LVL184:
 2543               	.L151:
 2544               	/* epilogue start */
 2545               	.LBE499:
 2546               	.LBE498:
 2547               	.LBE497:
 2548               	.LBE496:
 2549               	.LM293:
 2550 0c4a 2896      		adiw r28,8
 2551 0c4c 0FB6      		in __tmp_reg__,__SREG__
 2552 0c4e F894      		cli
 2553 0c50 DEBF      		out __SP_H__,r29
 2554 0c52 0FBE      		out __SREG__,__tmp_reg__
 2555 0c54 CDBF      		out __SP_L__,r28
 2556 0c56 CF91      		pop r28
 2557 0c58 DF91      		pop r29
 2558 0c5a 1F91      		pop r17
 2559 0c5c 0F91      		pop r16
 2560 0c5e FF90      		pop r15
 2561 0c60 EF90      		pop r14
 2562 0c62 DF90      		pop r13
 2563 0c64 CF90      		pop r12
 2564               	.LVL185:
 2565 0c66 BF90      		pop r11
 2566 0c68 AF90      		pop r10
 2567               	.LVL186:
 2568 0c6a 9F90      		pop r9
 2569 0c6c 8F90      		pop r8
 2570 0c6e 7F90      		pop r7
 2571 0c70 6F90      		pop r6
 2572               	.LVL187:
 2573 0c72 5F90      		pop r5
 2574 0c74 4F90      		pop r4
 2575 0c76 3F90      		pop r3
 2576 0c78 2F90      		pop r2
 2577               	.LVL188:
 2578 0c7a 0895      		ret
 2579               	.LFE51:
 2581               	.global	Timebase_DownCounter_SS_Set_Forcefully
 2583               	Timebase_DownCounter_SS_Set_Forcefully:
 2584               	.LFB52:
 2585               	.LM294:
 2586               	.LVL189:
 2587 0c7c CF92      		push r12
 2588 0c7e DF92      		push r13
 2589 0c80 EF92      		push r14
 2590 0c82 FF92      		push r15
 2591 0c84 0F93      		push r16
 2592 0c86 1F93      		push r17
 2593               	/* prologue: function */
 2594               	/* frame size = 0 */
 2595 0c88 7A01      		movw r14,r20
 2596 0c8a 8B01      		movw r16,r22
 2597               	.LBB500:
 2598               	.LBB501:
 2599               	.LBB502:
 2600               	.LBB503:
 2601               	.LM295:
 2602 0c8c E091 0000 		lds r30,Timebase
 2603 0c90 F091 0000 		lds r31,(Timebase)+1
 2604 0c94 482F      		mov r20,r24
 2605               	.LVL190:
 2606 0c96 50E0      		ldi r21,lo8(0)
 2607 0c98 25E1      		ldi r18,lo8(21)
 2608 0c9a 30E0      		ldi r19,hi8(21)
 2609 0c9c 429F      		mul r20,r18
 2610 0c9e 6001      		movw r12,r0
 2611 0ca0 439F      		mul r20,r19
 2612 0ca2 D00C      		add r13,r0
 2613 0ca4 529F      		mul r21,r18
 2614 0ca6 D00C      		add r13,r0
 2615 0ca8 1124      		clr r1
 2616 0caa EC0D      		add r30,r12
 2617 0cac FD1D      		adc r31,r13
 2618 0cae 10A6      		std Z+40,__zero_reg__
 2619 0cb0 11A6      		std Z+41,__zero_reg__
 2620 0cb2 12A6      		std Z+42,__zero_reg__
 2621 0cb4 13A6      		std Z+43,__zero_reg__
 2622               	.LBE503:
 2623               	.LBE502:
 2624               	.LBB504:
 2625               	.LBB505:
 2626               	.LM296:
 2627 0cb6 14A2      		std Z+36,__zero_reg__
 2628 0cb8 15A2      		std Z+37,__zero_reg__
 2629 0cba 16A2      		std Z+38,__zero_reg__
 2630 0cbc 17A2      		std Z+39,__zero_reg__
 2631               	.LBE505:
 2632               	.LBE504:
 2633               	.LBB506:
 2634               	.LBB507:
 2635               	.LM297:
 2636 0cbe 14A6      		std Z+44,__zero_reg__
 2637 0cc0 15A6      		std Z+45,__zero_reg__
 2638 0cc2 16A6      		std Z+46,__zero_reg__
 2639 0cc4 17A6      		std Z+47,__zero_reg__
 2640               	.LBE507:
 2641               	.LBE506:
 2642               	.LBB508:
 2643               	.LBB509:
 2644               	.LM298:
 2645 0cc6 93A1      		ldd r25,Z+35
 2646               	.LBE509:
 2647               	.LBE508:
 2648               	.LBB510:
 2649               	.LBB511:
 2650               	.LM299:
 2651 0cc8 907E      		andi r25,lo8(-32)
 2652 0cca 93A3      		std Z+35,r25
 2653               	.LBE511:
 2654               	.LBE510:
 2655               	.LBB512:
 2656               	.LBB513:
 2657               	.LM300:
 2658 0ccc 14AA      		std Z+52,__zero_reg__
 2659 0cce 15AA      		std Z+53,__zero_reg__
 2660 0cd0 16AA      		std Z+54,__zero_reg__
 2661 0cd2 17AA      		std Z+55,__zero_reg__
 2662               	.LBE513:
 2663               	.LBE512:
 2664               	.LBE501:
 2665               	.LBE500:
 2666               	.LM301:
 2667 0cd4 B801      		movw r22,r16
 2668 0cd6 A701      		movw r20,r14
 2669 0cd8 0E94 0000 		call Timebase_DownCounter_SS_Set_Securely
 2670               	.LVL191:
 2671               	.LBB514:
 2672               	.LBB515:
 2673               	.LM302:
 2674 0cdc E091 0000 		lds r30,Timebase
 2675 0ce0 F091 0000 		lds r31,(Timebase)+1
 2676 0ce4 EC0D      		add r30,r12
 2677 0ce6 FD1D      		adc r31,r13
 2678 0ce8 E4AA      		std Z+52,r14
 2679 0cea F5AA      		std Z+53,r15
 2680 0cec 06AB      		std Z+54,r16
 2681 0cee 17AB      		std Z+55,r17
 2682               	/* epilogue start */
 2683               	.LBE515:
 2684               	.LBE514:
 2685               	.LM303:
 2686 0cf0 1F91      		pop r17
 2687 0cf2 0F91      		pop r16
 2688 0cf4 FF90      		pop r15
 2689 0cf6 EF90      		pop r14
 2690               	.LVL192:
 2691 0cf8 DF90      		pop r13
 2692 0cfa CF90      		pop r12
 2693 0cfc 0895      		ret
 2694               	.LFE52:
 2696               	.global	Timebase_DownCounter_SS_Update
 2698               	Timebase_DownCounter_SS_Update:
 2699               	.LFB53:
 2700               	.LM304:
 2701               	.LVL193:
 2702 0cfe 2F92      		push r2
 2703 0d00 3F92      		push r3
 2704 0d02 4F92      		push r4
 2705 0d04 5F92      		push r5
 2706 0d06 6F92      		push r6
 2707 0d08 7F92      		push r7
 2708 0d0a 8F92      		push r8
 2709 0d0c 9F92      		push r9
 2710 0d0e AF92      		push r10
 2711 0d10 BF92      		push r11
 2712 0d12 CF92      		push r12
 2713 0d14 DF92      		push r13
 2714 0d16 EF92      		push r14
 2715 0d18 FF92      		push r15
 2716 0d1a 0F93      		push r16
 2717 0d1c 1F93      		push r17
 2718 0d1e CF93      		push r28
 2719 0d20 DF93      		push r29
 2720               	/* prologue: function */
 2721               	/* frame size = 0 */
 2722               	.LBB516:
 2723               	.LBB517:
 2724               	.LM305:
 2725 0d22 E091 0000 		lds r30,Timebase
 2726 0d26 F091 0000 		lds r31,(Timebase)+1
 2727 0d2a 90E0      		ldi r25,lo8(0)
 2728 0d2c 25E1      		ldi r18,lo8(21)
 2729 0d2e 30E0      		ldi r19,hi8(21)
 2730 0d30 829F      		mul r24,r18
 2731 0d32 E001      		movw r28,r0
 2732 0d34 839F      		mul r24,r19
 2733 0d36 D00D      		add r29,r0
 2734 0d38 929F      		mul r25,r18
 2735 0d3a D00D      		add r29,r0
 2736 0d3c 1124      		clr r1
 2737               	.LVL194:
 2738 0d3e CE0F      		add r28,r30
 2739 0d40 DF1F      		adc r29,r31
 2740 0d42 8BA1      		ldd r24,Y+35
 2741 0d44 8695      		lsr r24
 2742 0d46 8F70      		andi r24,lo8(15)
 2743               	.LBE517:
 2744               	.LBE516:
 2745               	.LM306:
 2746 0d48 8130      		cpi r24,lo8(1)
 2747 0d4a 01F0      		breq .+2
 2748 0d4c 00C0      		rjmp .L155
 2749               	.LBB518:
 2750               	.LBB519:
 2751               	.LM307:
 2752 0d4e E084      		ldd r14,Z+8
 2753 0d50 F184      		ldd r15,Z+9
 2754               	.LBE519:
 2755               	.LBE518:
 2756               	.LM308:
 2757 0d52 00E0      		ldi r16,lo8(0)
 2758 0d54 10E0      		ldi r17,hi8(0)
 2759               	.LVL195:
 2760               	.LBB520:
 2761               	.LBB521:
 2762               	.LM309:
 2763 0d56 8285      		ldd r24,Z+10
 2764 0d58 9385      		ldd r25,Z+11
 2765 0d5a A485      		ldd r26,Z+12
 2766 0d5c B585      		ldd r27,Z+13
 2767               	.LVL196:
 2768               	.LBE521:
 2769               	.LBE520:
 2770               	.LM310:
 2771 0d5e 2CA1      		ldd r18,Y+36
 2772 0d60 3DA1      		ldd r19,Y+37
 2773 0d62 4EA1      		ldd r20,Y+38
 2774 0d64 5FA1      		ldd r21,Y+39
 2775 0d66 281B      		sub r18,r24
 2776 0d68 390B      		sbc r19,r25
 2777 0d6a 4A0B      		sbc r20,r26
 2778 0d6c 5B0B      		sbc r21,r27
 2779               	.LM311:
 2780 0d6e 6081      		ld r22,Z
 2781 0d70 7181      		ldd r23,Z+1
 2782               	.LM312:
 2783 0d72 80E0      		ldi r24,lo8(0)
 2784 0d74 90E0      		ldi r25,hi8(0)
 2785               	.LVL197:
 2786 0d76 0E94 0000 		call __mulsi3
 2787 0d7a 6E19      		sub r22,r14
 2788 0d7c 7F09      		sbc r23,r15
 2789 0d7e 800B      		sbc r24,r16
 2790 0d80 910B      		sbc r25,r17
 2791               	.LVL198:
 2792               	.LM313:
 2793 0d82 28A5      		ldd r18,Y+40
 2794 0d84 39A5      		ldd r19,Y+41
 2795 0d86 4AA5      		ldd r20,Y+42
 2796 0d88 5BA5      		ldd r21,Y+43
 2797 0d8a 620F      		add r22,r18
 2798 0d8c 731F      		adc r23,r19
 2799 0d8e 841F      		adc r24,r20
 2800 0d90 951F      		adc r25,r21
 2801               	.LBB522:
 2802               	.LBB523:
 2803               	.LM314:
 2804 0d92 6CA7      		std Y+44,r22
 2805 0d94 7DA7      		std Y+45,r23
 2806 0d96 8EA7      		std Y+46,r24
 2807 0d98 9FA7      		std Y+47,r25
 2808               	.LBE523:
 2809               	.LBE522:
 2810               	.LM315:
 2811 0d9a 1616      		cp __zero_reg__,r22
 2812 0d9c 1706      		cpc __zero_reg__,r23
 2813 0d9e 1806      		cpc __zero_reg__,r24
 2814 0da0 1906      		cpc __zero_reg__,r25
 2815 0da2 04F4      		brge .+2
 2816 0da4 00C0      		rjmp .L157
 2817               	.LBB524:
 2818               	.LBB525:
 2819               	.LBB526:
 2820               	.LM316:
 2821 0da6 8CA9      		ldd r24,Y+52
 2822 0da8 9DA9      		ldd r25,Y+53
 2823 0daa AEA9      		ldd r26,Y+54
 2824 0dac BFA9      		ldd r27,Y+55
 2825               	.LVL199:
 2826               	.LBE526:
 2827               	.LBE525:
 2828               	.LBB527:
 2829               	.LBB528:
 2830               	.LBB529:
 2831               	.LBB530:
 2832               	.LM317:
 2833 0dae 18A6      		std Y+40,__zero_reg__
 2834 0db0 19A6      		std Y+41,__zero_reg__
 2835 0db2 1AA6      		std Y+42,__zero_reg__
 2836 0db4 1BA6      		std Y+43,__zero_reg__
 2837               	.LBE530:
 2838               	.LBE529:
 2839               	.LBB531:
 2840               	.LBB532:
 2841               	.LM318:
 2842 0db6 1CA2      		std Y+36,__zero_reg__
 2843 0db8 1DA2      		std Y+37,__zero_reg__
 2844 0dba 1EA2      		std Y+38,__zero_reg__
 2845 0dbc 1FA2      		std Y+39,__zero_reg__
 2846               	.LBE532:
 2847               	.LBE531:
 2848               	.LBB533:
 2849               	.LBB534:
 2850               	.LM319:
 2851 0dbe 1CA6      		std Y+44,__zero_reg__
 2852 0dc0 1DA6      		std Y+45,__zero_reg__
 2853 0dc2 1EA6      		std Y+46,__zero_reg__
 2854 0dc4 1FA6      		std Y+47,__zero_reg__
 2855               	.LBE534:
 2856               	.LBE533:
 2857               	.LBB535:
 2858               	.LBB536:
 2859               	.LM320:
 2860 0dc6 2BA1      		ldd r18,Y+35
 2861 0dc8 2E7F      		andi r18,lo8(-2)
 2862 0dca 2BA3      		std Y+35,r18
 2863               	.LBE536:
 2864               	.LBE535:
 2865               	.LBE528:
 2866               	.LBE527:
 2867               	.LBB537:
 2868               	.LBB538:
 2869               	.LM321:
 2870 0dcc 8CAB      		std Y+52,r24
 2871 0dce 9DAB      		std Y+53,r25
 2872 0dd0 AEAB      		std Y+54,r26
 2873 0dd2 BFAB      		std Y+55,r27
 2874               	.LBE538:
 2875               	.LBE537:
 2876               	.LBB539:
 2877               	.LBB540:
 2878               	.LM322:
 2879 0dd4 8BA1      		ldd r24,Y+35
 2880               	.LVL200:
 2881 0dd6 817E      		andi r24,lo8(-31)
 2882 0dd8 8860      		ori r24,lo8(8)
 2883 0dda 8BA3      		std Y+35,r24
 2884 0ddc 00C0      		rjmp .L157
 2885               	.LVL201:
 2886               	.L155:
 2887               	.LBE540:
 2888               	.LBE539:
 2889               	.LBE524:
 2890               	.LM323:
 2891 0dde 8230      		cpi r24,lo8(2)
 2892 0de0 01F4      		brne .L157
 2893               	.LBB541:
 2894               	.LBB542:
 2895               	.LM324:
 2896 0de2 6084      		ldd r6,Z+8
 2897 0de4 7184      		ldd r7,Z+9
 2898               	.LBE542:
 2899               	.LBE541:
 2900               	.LBB543:
 2901               	.LBB544:
 2902               	.LM325:
 2903 0de6 E284      		ldd r14,Z+10
 2904 0de8 F384      		ldd r15,Z+11
 2905 0dea 0485      		ldd r16,Z+12
 2906 0dec 1585      		ldd r17,Z+13
 2907               	.LVL202:
 2908               	.LBE544:
 2909               	.LBE543:
 2910               	.LBB545:
 2911               	.LBB546:
 2912               	.LM326:
 2913 0dee 2CA4      		ldd r2,Y+44
 2914 0df0 3DA4      		ldd r3,Y+45
 2915 0df2 4EA4      		ldd r4,Y+46
 2916 0df4 5FA4      		ldd r5,Y+47
 2917               	.LVL203:
 2918               	.LBE546:
 2919               	.LBE545:
 2920               	.LM327:
 2921 0df6 2081      		ld r18,Z
 2922 0df8 3181      		ldd r19,Z+1
 2923               	.LM328:
 2924 0dfa A080      		ld r10,Z
 2925 0dfc B180      		ldd r11,Z+1
 2926               	.LBB547:
 2927               	.LBB548:
 2928               	.LM329:
 2929 0dfe 40E0      		ldi r20,lo8(0)
 2930 0e00 50E0      		ldi r21,hi8(0)
 2931 0e02 C201      		movw r24,r4
 2932 0e04 B101      		movw r22,r2
 2933 0e06 0E94 0000 		call __divmodsi4
 2934 0e0a E20E      		add r14,r18
 2935 0e0c F31E      		adc r15,r19
 2936 0e0e 041F      		adc r16,r20
 2937 0e10 151F      		adc r17,r21
 2938 0e12 ECA2      		std Y+36,r14
 2939 0e14 FDA2      		std Y+37,r15
 2940 0e16 0EA3      		std Y+38,r16
 2941 0e18 1FA3      		std Y+39,r17
 2942               	.LBE548:
 2943               	.LBE547:
 2944               	.LBB549:
 2945               	.LBB550:
 2946               	.LM330:
 2947 0e1a CC24      		clr r12
 2948 0e1c DD24      		clr r13
 2949 0e1e C201      		movw r24,r4
 2950 0e20 B101      		movw r22,r2
 2951 0e22 A601      		movw r20,r12
 2952 0e24 9501      		movw r18,r10
 2953 0e26 0E94 0000 		call __divmodsi4
 2954 0e2a 8824      		clr r8
 2955 0e2c 9924      		clr r9
 2956 0e2e 660E      		add r6,r22
 2957 0e30 771E      		adc r7,r23
 2958 0e32 881E      		adc r8,r24
 2959 0e34 991E      		adc r9,r25
 2960 0e36 68A6      		std Y+40,r6
 2961 0e38 79A6      		std Y+41,r7
 2962 0e3a 8AA6      		std Y+42,r8
 2963 0e3c 9BA6      		std Y+43,r9
 2964               	.LVL204:
 2965               	.L157:
 2966               	/* epilogue start */
 2967               	.LBE550:
 2968               	.LBE549:
 2969               	.LM331:
 2970 0e3e DF91      		pop r29
 2971 0e40 CF91      		pop r28
 2972 0e42 1F91      		pop r17
 2973 0e44 0F91      		pop r16
 2974               	.LVL205:
 2975 0e46 FF90      		pop r15
 2976 0e48 EF90      		pop r14
 2977               	.LVL206:
 2978 0e4a DF90      		pop r13
 2979 0e4c CF90      		pop r12
 2980 0e4e BF90      		pop r11
 2981 0e50 AF90      		pop r10
 2982 0e52 9F90      		pop r9
 2983 0e54 8F90      		pop r8
 2984 0e56 7F90      		pop r7
 2985 0e58 6F90      		pop r6
 2986 0e5a 5F90      		pop r5
 2987 0e5c 4F90      		pop r4
 2988 0e5e 3F90      		pop r3
 2989 0e60 2F90      		pop r2
 2990               	.LVL207:
 2991 0e62 0895      		ret
 2992               	.LFE53:
 2994               	.global	Timebase_DownCounter_SS_Expired
 2996               	Timebase_DownCounter_SS_Expired:
 2997               	.LFB54:
 2998               	.LM332:
 2999               	.LVL208:
 3000               	/* prologue: function */
 3001               	/* frame size = 0 */
 3002               	.LM333:
 3003 0e64 40E0      		ldi r20,lo8(0)
 3004 0e66 E091 0000 		lds r30,Timebase
 3005 0e6a F091 0000 		lds r31,(Timebase)+1
 3006 0e6e 90E0      		ldi r25,lo8(0)
 3007               	.LVL209:
 3008 0e70 25E1      		ldi r18,lo8(21)
 3009 0e72 30E0      		ldi r19,hi8(21)
 3010 0e74 BC01      		movw r22,r24
 3011 0e76 629F      		mul r22,r18
 3012 0e78 C001      		movw r24,r0
 3013 0e7a 639F      		mul r22,r19
 3014 0e7c 900D      		add r25,r0
 3015 0e7e 729F      		mul r23,r18
 3016 0e80 900D      		add r25,r0
 3017 0e82 1124      		clr r1
 3018               	.LVL210:
 3019 0e84 E80F      		add r30,r24
 3020 0e86 F91F      		adc r31,r25
 3021 0e88 83A1      		ldd r24,Z+35
 3022 0e8a 8695      		lsr r24
 3023 0e8c 8F70      		andi r24,lo8(15)
 3024 0e8e 8430      		cpi r24,lo8(4)
 3025 0e90 01F4      		brne .L159
 3026 0e92 41E0      		ldi r20,lo8(1)
 3027               	.L159:
 3028               	.LM334:
 3029 0e94 842F      		mov r24,r20
 3030               	/* epilogue start */
 3031 0e96 0895      		ret
 3032               	.LFE54:
 3034               	.global	Timebase_DownCounter_SS_Expired_Event
 3036               	Timebase_DownCounter_SS_Expired_Event:
 3037               	.LFB55:
 3038               	.LM335:
 3039               	.LVL211:
 3040               	/* prologue: function */
 3041               	/* frame size = 0 */
 3042               	.LBB551:
 3043               	.LBB552:
 3044               	.LM336:
 3045 0e98 E091 0000 		lds r30,Timebase
 3046 0e9c F091 0000 		lds r31,(Timebase)+1
 3047 0ea0 90E0      		ldi r25,lo8(0)
 3048               	.LBE552:
 3049               	.LBE551:
 3050               	.LM337:
 3051 0ea2 25E1      		ldi r18,lo8(21)
 3052 0ea4 30E0      		ldi r19,hi8(21)
 3053 0ea6 AC01      		movw r20,r24
 3054               	.LVL212:
 3055 0ea8 429F      		mul r20,r18
 3056 0eaa C001      		movw r24,r0
 3057 0eac 439F      		mul r20,r19
 3058 0eae 900D      		add r25,r0
 3059 0eb0 529F      		mul r21,r18
 3060 0eb2 900D      		add r25,r0
 3061 0eb4 1124      		clr r1
 3062 0eb6 E80F      		add r30,r24
 3063 0eb8 F91F      		adc r31,r25
 3064 0eba 83A1      		ldd r24,Z+35
 3065 0ebc 8695      		lsr r24
 3066 0ebe 8F70      		andi r24,lo8(15)
 3067 0ec0 8430      		cpi r24,lo8(4)
 3068 0ec2 01F0      		breq .L162
 3069 0ec4 80E0      		ldi r24,lo8(0)
 3070 0ec6 0895      		ret
 3071               	.L162:
 3072               	.LBB553:
 3073               	.LBB554:
 3074               	.LBB555:
 3075               	.LBB556:
 3076               	.LBB557:
 3077               	.LBB558:
 3078               	.LM338:
 3079 0ec8 10A6      		std Z+40,__zero_reg__
 3080 0eca 11A6      		std Z+41,__zero_reg__
 3081 0ecc 12A6      		std Z+42,__zero_reg__
 3082 0ece 13A6      		std Z+43,__zero_reg__
 3083               	.LBE558:
 3084               	.LBE557:
 3085               	.LBB559:
 3086               	.LBB560:
 3087               	.LM339:
 3088 0ed0 14A2      		std Z+36,__zero_reg__
 3089 0ed2 15A2      		std Z+37,__zero_reg__
 3090 0ed4 16A2      		std Z+38,__zero_reg__
 3091 0ed6 17A2      		std Z+39,__zero_reg__
 3092               	.LBE560:
 3093               	.LBE559:
 3094               	.LBB561:
 3095               	.LBB562:
 3096               	.LM340:
 3097 0ed8 14A6      		std Z+44,__zero_reg__
 3098 0eda 15A6      		std Z+45,__zero_reg__
 3099 0edc 16A6      		std Z+46,__zero_reg__
 3100 0ede 17A6      		std Z+47,__zero_reg__
 3101               	.LBE562:
 3102               	.LBE561:
 3103               	.LBB563:
 3104               	.LBB564:
 3105               	.LM341:
 3106 0ee0 83A1      		ldd r24,Z+35
 3107               	.LBE564:
 3108               	.LBE563:
 3109               	.LBB565:
 3110               	.LBB566:
 3111               	.LM342:
 3112 0ee2 807E      		andi r24,lo8(-32)
 3113 0ee4 83A3      		std Z+35,r24
 3114               	.LBE566:
 3115               	.LBE565:
 3116               	.LBB567:
 3117               	.LBB568:
 3118               	.LM343:
 3119 0ee6 14AA      		std Z+52,__zero_reg__
 3120 0ee8 15AA      		std Z+53,__zero_reg__
 3121 0eea 16AA      		std Z+54,__zero_reg__
 3122 0eec 17AA      		std Z+55,__zero_reg__
 3123 0eee 81E0      		ldi r24,lo8(1)
 3124               	.LBE568:
 3125               	.LBE567:
 3126               	.LBE556:
 3127               	.LBE555:
 3128               	.LBE554:
 3129               	.LBE553:
 3130               	.LM344:
 3131 0ef0 0895      		ret
 3132               	.LFE55:
 3134               	.global	Timebase_DownCounter_SS_Oneshot_Expired_Event
 3136               	Timebase_DownCounter_SS_Oneshot_Expired_Event:
 3137               	.LFB56:
 3138               	.LM345:
 3139               	.LVL213:
 3140               	/* prologue: function */
 3141               	/* frame size = 0 */
 3142               	.LM346:
 3143 0ef2 0E94 0000 		call Timebase_DownCounter_SS_Expired_Event
 3144               	.LVL214:
 3145               	/* epilogue start */
 3146               	.LM347:
 3147 0ef6 0895      		ret
 3148               	.LFE56:
 3150               	.global	Timebase_DownCounter_SS_Continuous_Expired_Event
 3152               	Timebase_DownCounter_SS_Continuous_Expired_Event:
 3153               	.LFB57:
 3154               	.LM348:
 3155               	.LVL215:
 3156               	/* prologue: function */
 3157               	/* frame size = 0 */
 3158 0ef8 A82F      		mov r26,r24
 3159               	.LBB569:
 3160               	.LBB570:
 3161               	.LM349:
 3162 0efa E091 0000 		lds r30,Timebase
 3163 0efe F091 0000 		lds r31,(Timebase)+1
 3164 0f02 282F      		mov r18,r24
 3165 0f04 30E0      		ldi r19,lo8(0)
 3166               	.LBE570:
 3167               	.LBE569:
 3168               	.LM350:
 3169 0f06 85E1      		ldi r24,lo8(21)
 3170 0f08 90E0      		ldi r25,hi8(21)
 3171               	.LVL216:
 3172 0f0a AC01      		movw r20,r24
 3173 0f0c 249F      		mul r18,r20
 3174 0f0e C001      		movw r24,r0
 3175 0f10 259F      		mul r18,r21
 3176 0f12 900D      		add r25,r0
 3177 0f14 349F      		mul r19,r20
 3178 0f16 900D      		add r25,r0
 3179 0f18 1124      		clr r1
 3180 0f1a E80F      		add r30,r24
 3181 0f1c F91F      		adc r31,r25
 3182 0f1e 83A1      		ldd r24,Z+35
 3183 0f20 8695      		lsr r24
 3184 0f22 8F70      		andi r24,lo8(15)
 3185 0f24 8430      		cpi r24,lo8(4)
 3186 0f26 01F0      		breq .L168
 3187 0f28 80E0      		ldi r24,lo8(0)
 3188 0f2a 0895      		ret
 3189               	.L168:
 3190               	.LBB571:
 3191               	.LBB572:
 3192               	.LBB573:
 3193               	.LM351:
 3194 0f2c 44A9      		ldd r20,Z+52
 3195 0f2e 55A9      		ldd r21,Z+53
 3196 0f30 66A9      		ldd r22,Z+54
 3197 0f32 77A9      		ldd r23,Z+55
 3198               	.LVL217:
 3199               	.LBE573:
 3200               	.LBE572:
 3201               	.LBB574:
 3202               	.LBB575:
 3203               	.LBB576:
 3204               	.LBB577:
 3205               	.LBB578:
 3206               	.LBB579:
 3207               	.LM352:
 3208 0f34 10A6      		std Z+40,__zero_reg__
 3209 0f36 11A6      		std Z+41,__zero_reg__
 3210 0f38 12A6      		std Z+42,__zero_reg__
 3211 0f3a 13A6      		std Z+43,__zero_reg__
 3212               	.LBE579:
 3213               	.LBE578:
 3214               	.LBB580:
 3215               	.LBB581:
 3216               	.LM353:
 3217 0f3c 14A2      		std Z+36,__zero_reg__
 3218 0f3e 15A2      		std Z+37,__zero_reg__
 3219 0f40 16A2      		std Z+38,__zero_reg__
 3220 0f42 17A2      		std Z+39,__zero_reg__
 3221               	.LBE581:
 3222               	.LBE580:
 3223               	.LBB582:
 3224               	.LBB583:
 3225               	.LM354:
 3226 0f44 14A6      		std Z+44,__zero_reg__
 3227 0f46 15A6      		std Z+45,__zero_reg__
 3228 0f48 16A6      		std Z+46,__zero_reg__
 3229 0f4a 17A6      		std Z+47,__zero_reg__
 3230               	.LBE583:
 3231               	.LBE582:
 3232               	.LBB584:
 3233               	.LBB585:
 3234               	.LM355:
 3235 0f4c 83A1      		ldd r24,Z+35
 3236               	.LBE585:
 3237               	.LBE584:
 3238               	.LBB586:
 3239               	.LBB587:
 3240               	.LM356:
 3241 0f4e 807E      		andi r24,lo8(-32)
 3242 0f50 83A3      		std Z+35,r24
 3243               	.LBE587:
 3244               	.LBE586:
 3245               	.LBB588:
 3246               	.LBB589:
 3247               	.LM357:
 3248 0f52 14AA      		std Z+52,__zero_reg__
 3249 0f54 15AA      		std Z+53,__zero_reg__
 3250 0f56 16AA      		std Z+54,__zero_reg__
 3251 0f58 17AA      		std Z+55,__zero_reg__
 3252               	.LBE589:
 3253               	.LBE588:
 3254               	.LBE577:
 3255               	.LBE576:
 3256               	.LBE575:
 3257               	.LBE574:
 3258               	.LM358:
 3259 0f5a 8A2F      		mov r24,r26
 3260 0f5c 0E94 0000 		call Timebase_DownCounter_SS_Set_Securely
 3261               	.LVL218:
 3262 0f60 81E0      		ldi r24,lo8(1)
 3263               	.LBE571:
 3264               	.LM359:
 3265 0f62 0895      		ret
 3266               	.LFE57:
 3268               	.global	Timebase_DownCounter_SS_Set_Period_Value_Securely
 3270               	Timebase_DownCounter_SS_Set_Period_Value_Securely:
 3271               	.LFB58:
 3272               	.LM360:
 3273               	.LVL219:
 3274 0f64 CF93      		push r28
 3275 0f66 DF93      		push r29
 3276               	/* prologue: function */
 3277               	/* frame size = 0 */
 3278               	.LBB590:
 3279               	.LBB591:
 3280               	.LM361:
 3281 0f68 C091 0000 		lds r28,Timebase
 3282 0f6c D091 0000 		lds r29,(Timebase)+1
 3283 0f70 282F      		mov r18,r24
 3284 0f72 30E0      		ldi r19,lo8(0)
 3285               	.LBE591:
 3286               	.LBE590:
 3287               	.LM362:
 3288 0f74 85E1      		ldi r24,lo8(21)
 3289 0f76 90E0      		ldi r25,hi8(21)
 3290               	.LVL220:
 3291 0f78 289F      		mul r18,r24
 3292 0f7a F001      		movw r30,r0
 3293 0f7c 299F      		mul r18,r25
 3294 0f7e F00D      		add r31,r0
 3295 0f80 389F      		mul r19,r24
 3296 0f82 F00D      		add r31,r0
 3297 0f84 1124      		clr r1
 3298 0f86 EC0F      		add r30,r28
 3299 0f88 FD1F      		adc r31,r29
 3300 0f8a 83A1      		ldd r24,Z+35
 3301 0f8c 80FD      		sbrc r24,0
 3302 0f8e 00C0      		rjmp .L175
 3303               	.LM363:
 3304 0f90 84A5      		ldd r24,Z+44
 3305 0f92 95A5      		ldd r25,Z+45
 3306 0f94 A6A5      		ldd r26,Z+46
 3307 0f96 B7A5      		ldd r27,Z+47
 3308 0f98 841B      		sub r24,r20
 3309 0f9a 950B      		sbc r25,r21
 3310 0f9c A60B      		sbc r26,r22
 3311 0f9e B70B      		sbc r27,r23
 3312               	.LBB592:
 3313               	.LBB593:
 3314               	.LM364:
 3315 0fa0 B7FF      		sbrs r27,7
 3316 0fa2 00C0      		rjmp .L173
 3317               	.LM365:
 3318 0fa4 10AA      		std Z+48,__zero_reg__
 3319 0fa6 11AA      		std Z+49,__zero_reg__
 3320 0fa8 12AA      		std Z+50,__zero_reg__
 3321 0faa 13AA      		std Z+51,__zero_reg__
 3322 0fac 00C0      		rjmp .L174
 3323               	.L173:
 3324               	.LM366:
 3325 0fae 80AB      		std Z+48,r24
 3326 0fb0 91AB      		std Z+49,r25
 3327 0fb2 A2AB      		std Z+50,r26
 3328 0fb4 B3AB      		std Z+51,r27
 3329               	.L174:
 3330               	.LBE593:
 3331               	.LBE592:
 3332               	.LBB594:
 3333               	.LBB595:
 3334               	.LM367:
 3335 0fb6 85E1      		ldi r24,lo8(21)
 3336 0fb8 90E0      		ldi r25,hi8(21)
 3337 0fba 289F      		mul r18,r24
 3338 0fbc F001      		movw r30,r0
 3339 0fbe 299F      		mul r18,r25
 3340 0fc0 F00D      		add r31,r0
 3341 0fc2 389F      		mul r19,r24
 3342 0fc4 F00D      		add r31,r0
 3343 0fc6 1124      		clr r1
 3344 0fc8 EC0F      		add r30,r28
 3345 0fca FD1F      		adc r31,r29
 3346 0fcc 83A1      		ldd r24,Z+35
 3347 0fce 8160      		ori r24,lo8(1)
 3348 0fd0 83A3      		std Z+35,r24
 3349               	.L175:
 3350               	/* epilogue start */
 3351               	.LBE595:
 3352               	.LBE594:
 3353               	.LM368:
 3354 0fd2 DF91      		pop r29
 3355 0fd4 CF91      		pop r28
 3356 0fd6 0895      		ret
 3357               	.LFE58:
 3359               	.global	Timebase_DownCounter_SS_Get_Remaining_Period_Value
 3361               	Timebase_DownCounter_SS_Get_Remaining_Period_Value:
 3362               	.LFB59:
 3363               	.LM369:
 3364               	.LVL221:
 3365               	/* prologue: function */
 3366               	/* frame size = 0 */
 3367               	.LBB596:
 3368               	.LBB597:
 3369               	.LM370:
 3370 0fd8 E091 0000 		lds r30,Timebase
 3371 0fdc F091 0000 		lds r31,(Timebase)+1
 3372 0fe0 90E0      		ldi r25,lo8(0)
 3373               	.LBE597:
 3374               	.LBE596:
 3375               	.LM371:
 3376 0fe2 25E1      		ldi r18,lo8(21)
 3377 0fe4 30E0      		ldi r19,hi8(21)
 3378 0fe6 AC01      		movw r20,r24
 3379               	.LVL222:
 3380 0fe8 429F      		mul r20,r18
 3381 0fea C001      		movw r24,r0
 3382 0fec 439F      		mul r20,r19
 3383 0fee 900D      		add r25,r0
 3384 0ff0 529F      		mul r21,r18
 3385 0ff2 900D      		add r25,r0
 3386 0ff4 1124      		clr r1
 3387 0ff6 E80F      		add r30,r24
 3388 0ff8 F91F      		adc r31,r25
 3389 0ffa 24A5      		ldd r18,Z+44
 3390 0ffc 35A5      		ldd r19,Z+45
 3391 0ffe 46A5      		ldd r20,Z+46
 3392 1000 57A5      		ldd r21,Z+47
 3393               	.LVL223:
 3394 1002 80A9      		ldd r24,Z+48
 3395 1004 91A9      		ldd r25,Z+49
 3396 1006 A2A9      		ldd r26,Z+50
 3397 1008 B3A9      		ldd r27,Z+51
 3398 100a 281B      		sub r18,r24
 3399 100c 390B      		sbc r19,r25
 3400 100e 4A0B      		sbc r20,r26
 3401 1010 5B0B      		sbc r21,r27
 3402 1012 57FF      		sbrs r21,7
 3403 1014 00C0      		rjmp .L177
 3404 1016 20E0      		ldi r18,lo8(0)
 3405 1018 30E0      		ldi r19,hi8(0)
 3406 101a 40E0      		ldi r20,hlo8(0)
 3407 101c 50E0      		ldi r21,hhi8(0)
 3408               	.L177:
 3409               	.LM372:
 3410 101e B901      		movw r22,r18
 3411               	.LVL224:
 3412 1020 CA01      		movw r24,r20
 3413               	/* epilogue start */
 3414 1022 0895      		ret
 3415               	.LFE59:
 3417               	.global	Timebase_DownCounter_SS_Period_Value_Expired
 3419               	Timebase_DownCounter_SS_Period_Value_Expired:
 3420               	.LFB60:
 3421               	.LM373:
 3422               	.LVL225:
 3423 1024 CF93      		push r28
 3424 1026 DF93      		push r29
 3425               	/* prologue: function */
 3426               	/* frame size = 0 */
 3427               	.LBB598:
 3428               	.LBB599:
 3429               	.LBB600:
 3430               	.LBB601:
 3431               	.LM374:
 3432 1028 C091 0000 		lds r28,Timebase
 3433 102c D091 0000 		lds r29,(Timebase)+1
 3434 1030 682F      		mov r22,r24
 3435 1032 70E0      		ldi r23,lo8(0)
 3436               	.LBE601:
 3437               	.LBE600:
 3438               	.LM375:
 3439 1034 85E1      		ldi r24,lo8(21)
 3440 1036 90E0      		ldi r25,hi8(21)
 3441               	.LVL226:
 3442 1038 689F      		mul r22,r24
 3443 103a F001      		movw r30,r0
 3444 103c 699F      		mul r22,r25
 3445 103e F00D      		add r31,r0
 3446 1040 789F      		mul r23,r24
 3447 1042 F00D      		add r31,r0
 3448 1044 1124      		clr r1
 3449 1046 EC0F      		add r30,r28
 3450 1048 FD1F      		adc r31,r29
 3451 104a 24A5      		ldd r18,Z+44
 3452 104c 35A5      		ldd r19,Z+45
 3453 104e 46A5      		ldd r20,Z+46
 3454 1050 57A5      		ldd r21,Z+47
 3455               	.LVL227:
 3456 1052 80A9      		ldd r24,Z+48
 3457 1054 91A9      		ldd r25,Z+49
 3458 1056 A2A9      		ldd r26,Z+50
 3459 1058 B3A9      		ldd r27,Z+51
 3460 105a 281B      		sub r18,r24
 3461 105c 390B      		sbc r19,r25
 3462 105e 4A0B      		sbc r20,r26
 3463 1060 5B0B      		sbc r21,r27
 3464               	.LM376:
 3465 1062 57FD      		sbrc r21,7
 3466 1064 00C0      		rjmp .L180
 3467               	.LBE599:
 3468               	.LBE598:
 3469               	.LM377:
 3470 1066 2115      		cp r18,__zero_reg__
 3471 1068 3105      		cpc r19,__zero_reg__
 3472 106a 4105      		cpc r20,__zero_reg__
 3473 106c 5105      		cpc r21,__zero_reg__
 3474 106e 01F0      		breq .L180
 3475 1070 20E0      		ldi r18,lo8(0)
 3476               	.LVL228:
 3477 1072 00C0      		rjmp .L181
 3478               	.LVL229:
 3479               	.L180:
 3480 1074 20E0      		ldi r18,lo8(0)
 3481               	.LVL230:
 3482 1076 85E1      		ldi r24,lo8(21)
 3483 1078 90E0      		ldi r25,hi8(21)
 3484 107a AC01      		movw r20,r24
 3485 107c 649F      		mul r22,r20
 3486 107e C001      		movw r24,r0
 3487 1080 659F      		mul r22,r21
 3488 1082 900D      		add r25,r0
 3489 1084 749F      		mul r23,r20
 3490 1086 900D      		add r25,r0
 3491 1088 1124      		clr r1
 3492 108a C80F      		add r28,r24
 3493 108c D91F      		adc r29,r25
 3494 108e 8BA1      		ldd r24,Y+35
 3495 1090 80FF      		sbrs r24,0
 3496 1092 21E0      		ldi r18,lo8(1)
 3497               	.L182:
 3498 1094 81E0      		ldi r24,lo8(1)
 3499 1096 2827      		eor r18,r24
 3500               	.L181:
 3501               	.LM378:
 3502 1098 822F      		mov r24,r18
 3503               	/* epilogue start */
 3504 109a DF91      		pop r29
 3505 109c CF91      		pop r28
 3506 109e 0895      		ret
 3507               	.LFE60:
 3509               	.global	Timebase_DownCounter_SS_Period_Value_Expired_Event
 3511               	Timebase_DownCounter_SS_Period_Value_Expired_Event:
 3512               	.LFB61:
 3513               	.LM379:
 3514               	.LVL231:
 3515 10a0 1F93      		push r17
 3516               	/* prologue: function */
 3517               	/* frame size = 0 */
 3518 10a2 182F      		mov r17,r24
 3519               	.LM380:
 3520 10a4 0E94 0000 		call Timebase_DownCounter_SS_Period_Value_Expired
 3521               	.LVL232:
 3522 10a8 8130      		cpi r24,lo8(1)
 3523 10aa 01F0      		breq .L185
 3524 10ac 80E0      		ldi r24,lo8(0)
 3525 10ae 00C0      		rjmp .L186
 3526               	.L185:
 3527               	.LBB602:
 3528               	.LBB603:
 3529               	.LM381:
 3530 10b0 E091 0000 		lds r30,Timebase
 3531 10b4 F091 0000 		lds r31,(Timebase)+1
 3532 10b8 212F      		mov r18,r17
 3533 10ba 30E0      		ldi r19,lo8(0)
 3534               	.LVL233:
 3535 10bc 85E1      		ldi r24,lo8(21)
 3536 10be 90E0      		ldi r25,hi8(21)
 3537 10c0 AC01      		movw r20,r24
 3538 10c2 249F      		mul r18,r20
 3539 10c4 C001      		movw r24,r0
 3540 10c6 259F      		mul r18,r21
 3541 10c8 900D      		add r25,r0
 3542 10ca 349F      		mul r19,r20
 3543 10cc 900D      		add r25,r0
 3544 10ce 1124      		clr r1
 3545 10d0 E80F      		add r30,r24
 3546 10d2 F91F      		adc r31,r25
 3547 10d4 83A1      		ldd r24,Z+35
 3548 10d6 8E7F      		andi r24,lo8(-2)
 3549 10d8 83A3      		std Z+35,r24
 3550 10da 81E0      		ldi r24,lo8(1)
 3551               	.L186:
 3552               	/* epilogue start */
 3553               	.LBE603:
 3554               	.LBE602:
 3555               	.LM382:
 3556 10dc 1F91      		pop r17
 3557               	.LVL234:
 3558 10de 0895      		ret
 3559               	.LFE61:
 3561               	.global	Timebase_DownCounter_SS_Update_All
 3563               	Timebase_DownCounter_SS_Update_All:
 3564               	.LFB62:
 3565               	.LM383:
 3566               	/* prologue: function */
 3567               	/* frame size = 0 */
 3568               	.LBB604:
 3569               	.LM384:
 3570 10e0 80E0      		ldi r24,lo8(0)
 3571 10e2 0E94 0000 		call Timebase_DownCounter_SS_Update
 3572               	/* epilogue start */
 3573               	.LBE604:
 3574               	.LM385:
 3575 10e6 0895      		ret
 3576               	.LFE62:
 3578               	.global	Timebase_DownCounter_SS_Reset_All
 3580               	Timebase_DownCounter_SS_Reset_All:
 3581               	.LFB63:
 3582               	.LM386:
 3583               	/* prologue: function */
 3584               	/* frame size = 0 */
 3585               	.LBB605:
 3586               	.LBB606:
 3587               	.LBB607:
 3588               	.LBB608:
 3589               	.LBB609:
 3590               	.LM387:
 3591 10e8 E091 0000 		lds r30,Timebase
 3592 10ec F091 0000 		lds r31,(Timebase)+1
 3593 10f0 10A6      		std Z+40,__zero_reg__
 3594 10f2 11A6      		std Z+41,__zero_reg__
 3595 10f4 12A6      		std Z+42,__zero_reg__
 3596 10f6 13A6      		std Z+43,__zero_reg__
 3597               	.LBE609:
 3598               	.LBE608:
 3599               	.LBB610:
 3600               	.LBB611:
 3601               	.LM388:
 3602 10f8 14A2      		std Z+36,__zero_reg__
 3603 10fa 15A2      		std Z+37,__zero_reg__
 3604 10fc 16A2      		std Z+38,__zero_reg__
 3605 10fe 17A2      		std Z+39,__zero_reg__
 3606               	.LBE611:
 3607               	.LBE610:
 3608               	.LBB612:
 3609               	.LBB613:
 3610               	.LM389:
 3611 1100 14A6      		std Z+44,__zero_reg__
 3612 1102 15A6      		std Z+45,__zero_reg__
 3613 1104 16A6      		std Z+46,__zero_reg__
 3614 1106 17A6      		std Z+47,__zero_reg__
 3615               	.LBE613:
 3616               	.LBE612:
 3617               	.LBB614:
 3618               	.LBB615:
 3619               	.LM390:
 3620 1108 83A1      		ldd r24,Z+35
 3621               	.LBE615:
 3622               	.LBE614:
 3623               	.LBB616:
 3624               	.LBB617:
 3625               	.LM391:
 3626 110a 807E      		andi r24,lo8(-32)
 3627 110c 83A3      		std Z+35,r24
 3628               	.LBE617:
 3629               	.LBE616:
 3630               	.LBB618:
 3631               	.LBB619:
 3632               	.LM392:
 3633 110e 14AA      		std Z+52,__zero_reg__
 3634 1110 15AA      		std Z+53,__zero_reg__
 3635 1112 16AA      		std Z+54,__zero_reg__
 3636 1114 17AA      		std Z+55,__zero_reg__
 3637               	/* epilogue start */
 3638               	.LBE619:
 3639               	.LBE618:
 3640               	.LBE607:
 3641               	.LBE606:
 3642               	.LBE605:
 3643               	.LM393:
 3644 1116 0895      		ret
 3645               	.LFE63:
 3647               	.global	Timebase_DownCounter_Get_Status
 3649               	Timebase_DownCounter_Get_Status:
 3650               	.LFB64:
 3651               	.LM394:
 3652               	.LVL235:
 3653               	/* prologue: function */
 3654               	/* frame size = 0 */
 3655               	.LM395:
 3656 1118 E091 0000 		lds r30,Timebase
 3657 111c F091 0000 		lds r31,(Timebase)+1
 3658 1120 90E0      		ldi r25,lo8(0)
 3659               	.LVL236:
 3660 1122 9C01      		movw r18,r24
 3661 1124 44E0      		ldi r20,4
 3662 1126 220F      	1:	lsl r18
 3663 1128 331F      		rol r19
 3664 112a 4A95      		dec r20
 3665 112c 01F4      		brne 1b
 3666 112e 280F      		add r18,r24
 3667 1130 391F      		adc r19,r25
 3668 1132 E20F      		add r30,r18
 3669 1134 F31F      		adc r31,r19
 3670 1136 80AD      		ldd r24,Z+56
 3671               	.LVL237:
 3672 1138 8695      		lsr r24
 3673               	.LM396:
 3674 113a 8F70      		andi r24,lo8(15)
 3675               	/* epilogue start */
 3676 113c 0895      		ret
 3677               	.LFE64:
 3679               	.global	Timebase_DownCounter_Set_Status
 3681               	Timebase_DownCounter_Set_Status:
 3682               	.LFB65:
 3683               	.LM397:
 3684               	.LVL238:
 3685               	/* prologue: function */
 3686               	/* frame size = 0 */
 3687               	.LM398:
 3688 113e E091 0000 		lds r30,Timebase
 3689 1142 F091 0000 		lds r31,(Timebase)+1
 3690 1146 90E0      		ldi r25,lo8(0)
 3691               	.LVL239:
 3692 1148 9C01      		movw r18,r24
 3693 114a 54E0      		ldi r21,4
 3694 114c 220F      	1:	lsl r18
 3695 114e 331F      		rol r19
 3696 1150 5A95      		dec r21
 3697 1152 01F4      		brne 1b
 3698 1154 280F      		add r18,r24
 3699 1156 391F      		adc r19,r25
 3700 1158 E20F      		add r30,r18
 3701 115a F31F      		adc r31,r19
 3702 115c 6F70      		andi r22,lo8(15)
 3703               	.LVL240:
 3704 115e 660F      		lsl r22
 3705 1160 80AD      		ldd r24,Z+56
 3706               	.LVL241:
 3707 1162 817E      		andi r24,lo8(-31)
 3708 1164 862B      		or r24,r22
 3709 1166 80AF      		std Z+56,r24
 3710               	/* epilogue start */
 3711               	.LM399:
 3712 1168 0895      		ret
 3713               	.LFE65:
 3715               	.global	Timebase_DownCounter_Get_Value
 3717               	Timebase_DownCounter_Get_Value:
 3718               	.LFB66:
 3719               	.LM400:
 3720               	.LVL242:
 3721               	/* prologue: function */
 3722               	/* frame size = 0 */
 3723               	.LM401:
 3724 116a E091 0000 		lds r30,Timebase
 3725 116e F091 0000 		lds r31,(Timebase)+1
 3726 1172 90E0      		ldi r25,lo8(0)
 3727               	.LVL243:
 3728 1174 9C01      		movw r18,r24
 3729 1176 64E0      		ldi r22,4
 3730 1178 220F      	1:	lsl r18
 3731 117a 331F      		rol r19
 3732 117c 6A95      		dec r22
 3733 117e 01F4      		brne 1b
 3734 1180 280F      		add r18,r24
 3735 1182 391F      		adc r19,r25
 3736 1184 E20F      		add r30,r18
 3737 1186 F31F      		adc r31,r19
 3738 1188 FD96      		adiw r30,61
 3739 118a 6081      		ld r22,Z
 3740 118c 7181      		ldd r23,Z+1
 3741               	.LM402:
 3742 118e 8281      		ldd r24,Z+2
 3743               	.LVL244:
 3744 1190 9381      		ldd r25,Z+3
 3745               	.LVL245:
 3746               	/* epilogue start */
 3747 1192 0895      		ret
 3748               	.LFE66:
 3750               	.global	Timebase_DownCounter_Set_Value
 3752               	Timebase_DownCounter_Set_Value:
 3753               	.LFB67:
 3754               	.LM403:
 3755               	.LVL246:
 3756               	/* prologue: function */
 3757               	/* frame size = 0 */
 3758               	.LM404:
 3759 1194 E091 0000 		lds r30,Timebase
 3760 1198 F091 0000 		lds r31,(Timebase)+1
 3761 119c 90E0      		ldi r25,lo8(0)
 3762               	.LVL247:
 3763 119e 9C01      		movw r18,r24
 3764 11a0 A4E0      		ldi r26,4
 3765 11a2 220F      	1:	lsl r18
 3766 11a4 331F      		rol r19
 3767 11a6 AA95      		dec r26
 3768 11a8 01F4      		brne 1b
 3769 11aa 280F      		add r18,r24
 3770 11ac 391F      		adc r19,r25
 3771 11ae E20F      		add r30,r18
 3772 11b0 F31F      		adc r31,r19
 3773 11b2 FD96      		adiw r30,61
 3774 11b4 4083      		st Z,r20
 3775 11b6 5183      		std Z+1,r21
 3776 11b8 6283      		std Z+2,r22
 3777 11ba 7383      		std Z+3,r23
 3778               	/* epilogue start */
 3779               	.LM405:
 3780 11bc 0895      		ret
 3781               	.LFE67:
 3783               	.global	Timebase_DownCounter_Get_EndValue
 3785               	Timebase_DownCounter_Get_EndValue:
 3786               	.LFB68:
 3787               	.LM406:
 3788               	.LVL248:
 3789               	/* prologue: function */
 3790               	/* frame size = 0 */
 3791               	.LM407:
 3792 11be E091 0000 		lds r30,Timebase
 3793 11c2 F091 0000 		lds r31,(Timebase)+1
 3794 11c6 90E0      		ldi r25,lo8(0)
 3795               	.LVL249:
 3796 11c8 9C01      		movw r18,r24
 3797 11ca B4E0      		ldi r27,4
 3798 11cc 220F      	1:	lsl r18
 3799 11ce 331F      		rol r19
 3800 11d0 BA95      		dec r27
 3801 11d2 01F4      		brne 1b
 3802 11d4 280F      		add r18,r24
 3803 11d6 391F      		adc r19,r25
 3804 11d8 E20F      		add r30,r18
 3805 11da F31F      		adc r31,r19
 3806 11dc DF01      		movw r26,r30
 3807 11de D996      		adiw r26,57
 3808 11e0 61AD      		ldd r22,Z+57
 3809 11e2 1196      		adiw r26,1
 3810 11e4 7C91      		ld r23,X
 3811 11e6 1197      		sbiw r26,1
 3812               	.LM408:
 3813 11e8 1296      		adiw r26,2
 3814 11ea 8C91      		ld r24,X
 3815 11ec 1297      		sbiw r26,2
 3816               	.LVL250:
 3817 11ee 1396      		adiw r26,3
 3818 11f0 9C91      		ld r25,X
 3819               	.LVL251:
 3820               	/* epilogue start */
 3821 11f2 0895      		ret
 3822               	.LFE68:
 3824               	.global	Timebase_DownCounter_Set_EndValue
 3826               	Timebase_DownCounter_Set_EndValue:
 3827               	.LFB69:
 3828               	.LM409:
 3829               	.LVL252:
 3830               	/* prologue: function */
 3831               	/* frame size = 0 */
 3832               	.LM410:
 3833 11f4 E091 0000 		lds r30,Timebase
 3834 11f8 F091 0000 		lds r31,(Timebase)+1
 3835 11fc 90E0      		ldi r25,lo8(0)
 3836               	.LVL253:
 3837 11fe 9C01      		movw r18,r24
 3838 1200 A4E0      		ldi r26,4
 3839 1202 220F      	1:	lsl r18
 3840 1204 331F      		rol r19
 3841 1206 AA95      		dec r26
 3842 1208 01F4      		brne 1b
 3843 120a 280F      		add r18,r24
 3844 120c 391F      		adc r19,r25
 3845 120e E20F      		add r30,r18
 3846 1210 F31F      		adc r31,r19
 3847 1212 41AF      		std Z+57,r20
 3848 1214 52AF      		std Z+58,r21
 3849 1216 63AF      		std Z+59,r22
 3850 1218 74AF      		std Z+60,r23
 3851               	/* epilogue start */
 3852               	.LM411:
 3853 121a 0895      		ret
 3854               	.LFE69:
 3856               	.global	Timebase_DownCounter_Get_PeriodValue
 3858               	Timebase_DownCounter_Get_PeriodValue:
 3859               	.LFB70:
 3860               	.LM412:
 3861               	.LVL254:
 3862               	/* prologue: function */
 3863               	/* frame size = 0 */
 3864               	.LM413:
 3865 121c E091 0000 		lds r30,Timebase
 3866 1220 F091 0000 		lds r31,(Timebase)+1
 3867 1224 90E0      		ldi r25,lo8(0)
 3868               	.LVL255:
 3869 1226 9C01      		movw r18,r24
 3870 1228 B4E0      		ldi r27,4
 3871 122a 220F      	1:	lsl r18
 3872 122c 331F      		rol r19
 3873 122e BA95      		dec r27
 3874 1230 01F4      		brne 1b
 3875 1232 280F      		add r18,r24
 3876 1234 391F      		adc r19,r25
 3877 1236 E20F      		add r30,r18
 3878 1238 F31F      		adc r31,r19
 3879 123a EF5B      		subi r30,lo8(-(65))
 3880 123c FF4F      		sbci r31,hi8(-(65))
 3881 123e 6081      		ld r22,Z
 3882 1240 7181      		ldd r23,Z+1
 3883               	.LM414:
 3884 1242 8281      		ldd r24,Z+2
 3885               	.LVL256:
 3886 1244 9381      		ldd r25,Z+3
 3887               	.LVL257:
 3888               	/* epilogue start */
 3889 1246 0895      		ret
 3890               	.LFE70:
 3892               	.global	Timebase_DownCounter_Set_PeriodValue
 3894               	Timebase_DownCounter_Set_PeriodValue:
 3895               	.LFB71:
 3896               	.LM415:
 3897               	.LVL258:
 3898               	/* prologue: function */
 3899               	/* frame size = 0 */
 3900 1248 E091 0000 		lds r30,Timebase
 3901 124c F091 0000 		lds r31,(Timebase)+1
 3902 1250 282F      		mov r18,r24
 3903 1252 30E0      		ldi r19,lo8(0)
 3904               	.LVL259:
 3905               	.LM416:
 3906 1254 77FF      		sbrs r23,7
 3907 1256 00C0      		rjmp .L207
 3908               	.LVL260:
 3909               	.LM417:
 3910 1258 C901      		movw r24,r18
 3911 125a B4E0      		ldi r27,4
 3912 125c 880F      	1:	lsl r24
 3913 125e 991F      		rol r25
 3914 1260 BA95      		dec r27
 3915 1262 01F4      		brne 1b
 3916 1264 820F      		add r24,r18
 3917 1266 931F      		adc r25,r19
 3918 1268 E80F      		add r30,r24
 3919 126a F91F      		adc r31,r25
 3920 126c EF5B      		subi r30,lo8(-(65))
 3921 126e FF4F      		sbci r31,hi8(-(65))
 3922 1270 1082      		st Z,__zero_reg__
 3923 1272 1182      		std Z+1,__zero_reg__
 3924 1274 1282      		std Z+2,__zero_reg__
 3925 1276 1382      		std Z+3,__zero_reg__
 3926 1278 0895      		ret
 3927               	.LVL261:
 3928               	.L207:
 3929               	.LM418:
 3930 127a C901      		movw r24,r18
 3931 127c A4E0      		ldi r26,4
 3932 127e 880F      	1:	lsl r24
 3933 1280 991F      		rol r25
 3934 1282 AA95      		dec r26
 3935 1284 01F4      		brne 1b
 3936 1286 820F      		add r24,r18
 3937 1288 931F      		adc r25,r19
 3938 128a E80F      		add r30,r24
 3939 128c F91F      		adc r31,r25
 3940 128e EF5B      		subi r30,lo8(-(65))
 3941 1290 FF4F      		sbci r31,hi8(-(65))
 3942 1292 4083      		st Z,r20
 3943 1294 5183      		std Z+1,r21
 3944 1296 6283      		std Z+2,r22
 3945 1298 7383      		std Z+3,r23
 3946 129a 0895      		ret
 3947               	.LFE71:
 3949               	.global	Timebase_DownCounter_Get_Period_Flag
 3951               	Timebase_DownCounter_Get_Period_Flag:
 3952               	.LFB72:
 3953               	.LM419:
 3954               	.LVL262:
 3955               	/* prologue: function */
 3956               	/* frame size = 0 */
 3957               	.LM420:
 3958 129c E091 0000 		lds r30,Timebase
 3959 12a0 F091 0000 		lds r31,(Timebase)+1
 3960 12a4 90E0      		ldi r25,lo8(0)
 3961               	.LVL263:
 3962 12a6 9C01      		movw r18,r24
 3963 12a8 44E0      		ldi r20,4
 3964 12aa 220F      	1:	lsl r18
 3965 12ac 331F      		rol r19
 3966 12ae 4A95      		dec r20
 3967 12b0 01F4      		brne 1b
 3968 12b2 280F      		add r18,r24
 3969 12b4 391F      		adc r19,r25
 3970 12b6 E20F      		add r30,r18
 3971 12b8 F31F      		adc r31,r19
 3972 12ba 80AD      		ldd r24,Z+56
 3973               	.LVL264:
 3974               	.LM421:
 3975 12bc 8170      		andi r24,lo8(1)
 3976               	/* epilogue start */
 3977 12be 0895      		ret
 3978               	.LFE72:
 3980               	.global	Timebase_DownCounter_Set_Period_Flag
 3982               	Timebase_DownCounter_Set_Period_Flag:
 3983               	.LFB73:
 3984               	.LM422:
 3985               	.LVL265:
 3986               	/* prologue: function */
 3987               	/* frame size = 0 */
 3988               	.LM423:
 3989 12c0 E091 0000 		lds r30,Timebase
 3990 12c4 F091 0000 		lds r31,(Timebase)+1
 3991 12c8 90E0      		ldi r25,lo8(0)
 3992               	.LVL266:
 3993 12ca 9C01      		movw r18,r24
 3994 12cc 54E0      		ldi r21,4
 3995 12ce 220F      	1:	lsl r18
 3996 12d0 331F      		rol r19
 3997 12d2 5A95      		dec r21
 3998 12d4 01F4      		brne 1b
 3999 12d6 280F      		add r18,r24
 4000 12d8 391F      		adc r19,r25
 4001 12da E20F      		add r30,r18
 4002 12dc F31F      		adc r31,r19
 4003 12de 80AD      		ldd r24,Z+56
 4004               	.LVL267:
 4005 12e0 8160      		ori r24,lo8(1)
 4006 12e2 80AF      		std Z+56,r24
 4007               	/* epilogue start */
 4008               	.LM424:
 4009 12e4 0895      		ret
 4010               	.LFE73:
 4012               	.global	Timebase_DownCounter_Clear_Period_Flag
 4014               	Timebase_DownCounter_Clear_Period_Flag:
 4015               	.LFB74:
 4016               	.LM425:
 4017               	.LVL268:
 4018               	/* prologue: function */
 4019               	/* frame size = 0 */
 4020               	.LM426:
 4021 12e6 E091 0000 		lds r30,Timebase
 4022 12ea F091 0000 		lds r31,(Timebase)+1
 4023 12ee 90E0      		ldi r25,lo8(0)
 4024               	.LVL269:
 4025 12f0 9C01      		movw r18,r24
 4026 12f2 64E0      		ldi r22,4
 4027 12f4 220F      	1:	lsl r18
 4028 12f6 331F      		rol r19
 4029 12f8 6A95      		dec r22
 4030 12fa 01F4      		brne 1b
 4031 12fc 280F      		add r18,r24
 4032 12fe 391F      		adc r19,r25
 4033 1300 E20F      		add r30,r18
 4034 1302 F31F      		adc r31,r19
 4035 1304 80AD      		ldd r24,Z+56
 4036               	.LVL270:
 4037 1306 8E7F      		andi r24,lo8(-2)
 4038 1308 80AF      		std Z+56,r24
 4039               	/* epilogue start */
 4040               	.LM427:
 4041 130a 0895      		ret
 4042               	.LFE74:
 4044               	.global	Timebase_DownCounter_Get_ReloadValue
 4046               	Timebase_DownCounter_Get_ReloadValue:
 4047               	.LFB75:
 4048               	.LM428:
 4049               	.LVL271:
 4050               	/* prologue: function */
 4051               	/* frame size = 0 */
 4052               	.LM429:
 4053 130c E091 0000 		lds r30,Timebase
 4054 1310 F091 0000 		lds r31,(Timebase)+1
 4055 1314 90E0      		ldi r25,lo8(0)
 4056               	.LVL272:
 4057 1316 9C01      		movw r18,r24
 4058 1318 74E0      		ldi r23,4
 4059 131a 220F      	1:	lsl r18
 4060 131c 331F      		rol r19
 4061 131e 7A95      		dec r23
 4062 1320 01F4      		brne 1b
 4063 1322 280F      		add r18,r24
 4064 1324 391F      		adc r19,r25
 4065 1326 E20F      		add r30,r18
 4066 1328 F31F      		adc r31,r19
 4067 132a EB5B      		subi r30,lo8(-(69))
 4068 132c FF4F      		sbci r31,hi8(-(69))
 4069 132e 6081      		ld r22,Z
 4070 1330 7181      		ldd r23,Z+1
 4071               	.LM430:
 4072 1332 8281      		ldd r24,Z+2
 4073               	.LVL273:
 4074 1334 9381      		ldd r25,Z+3
 4075               	.LVL274:
 4076               	/* epilogue start */
 4077 1336 0895      		ret
 4078               	.LFE75:
 4080               	.global	Timebase_DownCounter_Set_ReloadValue
 4082               	Timebase_DownCounter_Set_ReloadValue:
 4083               	.LFB76:
 4084               	.LM431:
 4085               	.LVL275:
 4086               	/* prologue: function */
 4087               	/* frame size = 0 */
 4088               	.LM432:
 4089 1338 E091 0000 		lds r30,Timebase
 4090 133c F091 0000 		lds r31,(Timebase)+1
 4091 1340 90E0      		ldi r25,lo8(0)
 4092               	.LVL276:
 4093 1342 9C01      		movw r18,r24
 4094 1344 A4E0      		ldi r26,4
 4095 1346 220F      	1:	lsl r18
 4096 1348 331F      		rol r19
 4097 134a AA95      		dec r26
 4098 134c 01F4      		brne 1b
 4099 134e 280F      		add r18,r24
 4100 1350 391F      		adc r19,r25
 4101 1352 E20F      		add r30,r18
 4102 1354 F31F      		adc r31,r19
 4103 1356 EB5B      		subi r30,lo8(-(69))
 4104 1358 FF4F      		sbci r31,hi8(-(69))
 4105 135a 4083      		st Z,r20
 4106 135c 5183      		std Z+1,r21
 4107 135e 6283      		std Z+2,r22
 4108 1360 7383      		std Z+3,r23
 4109               	/* epilogue start */
 4110               	.LM433:
 4111 1362 0895      		ret
 4112               	.LFE76:
 4114               	.global	Timebase_DownCounter_Reset
 4116               	Timebase_DownCounter_Reset:
 4117               	.LFB77:
 4118               	.LM434:
 4119               	.LVL277:
 4120               	/* prologue: function */
 4121               	/* frame size = 0 */
 4122               	.LBB620:
 4123               	.LBB621:
 4124               	.LM435:
 4125 1364 E091 0000 		lds r30,Timebase
 4126 1368 F091 0000 		lds r31,(Timebase)+1
 4127 136c 90E0      		ldi r25,lo8(0)
 4128 136e 9C01      		movw r18,r24
 4129               	.LVL278:
 4130 1370 B4E0      		ldi r27,4
 4131 1372 220F      	1:	lsl r18
 4132 1374 331F      		rol r19
 4133 1376 BA95      		dec r27
 4134 1378 01F4      		brne 1b
 4135 137a 280F      		add r18,r24
 4136 137c 391F      		adc r19,r25
 4137 137e E20F      		add r30,r18
 4138 1380 F31F      		adc r31,r19
 4139 1382 11AE      		std Z+57,__zero_reg__
 4140 1384 12AE      		std Z+58,__zero_reg__
 4141 1386 13AE      		std Z+59,__zero_reg__
 4142 1388 14AE      		std Z+60,__zero_reg__
 4143               	.LBE621:
 4144               	.LBE620:
 4145               	.LBB622:
 4146               	.LBB623:
 4147               	.LM436:
 4148 138a FD96      		adiw r30,61
 4149 138c 1082      		st Z,__zero_reg__
 4150 138e 1182      		std Z+1,__zero_reg__
 4151 1390 1282      		std Z+2,__zero_reg__
 4152 1392 1382      		std Z+3,__zero_reg__
 4153 1394 FD97      		sbiw r30,61
 4154               	.LBE623:
 4155               	.LBE622:
 4156               	.LBB624:
 4157               	.LBB625:
 4158               	.LM437:
 4159 1396 80AD      		ldd r24,Z+56
 4160               	.LBE625:
 4161               	.LBE624:
 4162               	.LBB626:
 4163               	.LBB627:
 4164               	.LM438:
 4165 1398 807E      		andi r24,lo8(-32)
 4166 139a 80AF      		std Z+56,r24
 4167               	.LBE627:
 4168               	.LBE626:
 4169               	.LBB628:
 4170               	.LBB629:
 4171               	.LM439:
 4172 139c EB5B      		subi r30,lo8(-(69))
 4173 139e FF4F      		sbci r31,hi8(-(69))
 4174 13a0 1082      		st Z,__zero_reg__
 4175 13a2 1182      		std Z+1,__zero_reg__
 4176 13a4 1282      		std Z+2,__zero_reg__
 4177 13a6 1382      		std Z+3,__zero_reg__
 4178               	/* epilogue start */
 4179               	.LBE629:
 4180               	.LBE628:
 4181               	.LM440:
 4182 13a8 0895      		ret
 4183               	.LFE77:
 4185               	.global	Timebase_DownCounter_Clear_All_Flags
 4187               	Timebase_DownCounter_Clear_All_Flags:
 4188               	.LFB78:
 4189               	.LM441:
 4190               	.LVL279:
 4191               	/* prologue: function */
 4192               	/* frame size = 0 */
 4193               	.LBB630:
 4194               	.LBB631:
 4195               	.LBB632:
 4196               	.LBB633:
 4197               	.LM442:
 4198 13aa E091 0000 		lds r30,Timebase
 4199 13ae F091 0000 		lds r31,(Timebase)+1
 4200 13b2 90E0      		ldi r25,lo8(0)
 4201 13b4 9C01      		movw r18,r24
 4202               	.LVL280:
 4203 13b6 44E0      		ldi r20,4
 4204 13b8 220F      	1:	lsl r18
 4205 13ba 331F      		rol r19
 4206 13bc 4A95      		dec r20
 4207 13be 01F4      		brne 1b
 4208 13c0 280F      		add r18,r24
 4209 13c2 391F      		adc r19,r25
 4210 13c4 E20F      		add r30,r18
 4211 13c6 F31F      		adc r31,r19
 4212 13c8 11AE      		std Z+57,__zero_reg__
 4213 13ca 12AE      		std Z+58,__zero_reg__
 4214 13cc 13AE      		std Z+59,__zero_reg__
 4215 13ce 14AE      		std Z+60,__zero_reg__
 4216               	.LBE633:
 4217               	.LBE632:
 4218               	.LBB634:
 4219               	.LBB635:
 4220               	.LM443:
 4221 13d0 FD96      		adiw r30,61
 4222 13d2 1082      		st Z,__zero_reg__
 4223 13d4 1182      		std Z+1,__zero_reg__
 4224 13d6 1282      		std Z+2,__zero_reg__
 4225 13d8 1382      		std Z+3,__zero_reg__
 4226 13da FD97      		sbiw r30,61
 4227               	.LBE635:
 4228               	.LBE634:
 4229               	.LBB636:
 4230               	.LBB637:
 4231               	.LM444:
 4232 13dc 80AD      		ldd r24,Z+56
 4233               	.LBE637:
 4234               	.LBE636:
 4235               	.LBB638:
 4236               	.LBB639:
 4237               	.LM445:
 4238 13de 807E      		andi r24,lo8(-32)
 4239 13e0 80AF      		std Z+56,r24
 4240               	.LBE639:
 4241               	.LBE638:
 4242               	.LBB640:
 4243               	.LBB641:
 4244               	.LM446:
 4245 13e2 EB5B      		subi r30,lo8(-(69))
 4246 13e4 FF4F      		sbci r31,hi8(-(69))
 4247 13e6 1082      		st Z,__zero_reg__
 4248 13e8 1182      		std Z+1,__zero_reg__
 4249 13ea 1282      		std Z+2,__zero_reg__
 4250 13ec 1382      		std Z+3,__zero_reg__
 4251               	/* epilogue start */
 4252               	.LBE641:
 4253               	.LBE640:
 4254               	.LBE631:
 4255               	.LBE630:
 4256               	.LM447:
 4257 13ee 0895      		ret
 4258               	.LFE78:
 4260               	.global	Timebase_DownCounter_Start
 4262               	Timebase_DownCounter_Start:
 4263               	.LFB79:
 4264               	.LM448:
 4265               	.LVL281:
 4266               	/* prologue: function */
 4267               	/* frame size = 0 */
 4268               	.LBB642:
 4269               	.LBB643:
 4270               	.LM449:
 4271 13f0 E091 0000 		lds r30,Timebase
 4272 13f4 F091 0000 		lds r31,(Timebase)+1
 4273 13f8 90E0      		ldi r25,lo8(0)
 4274               	.LBE643:
 4275               	.LBE642:
 4276               	.LM450:
 4277 13fa 9C01      		movw r18,r24
 4278               	.LVL282:
 4279 13fc 54E0      		ldi r21,4
 4280 13fe 220F      	1:	lsl r18
 4281 1400 331F      		rol r19
 4282 1402 5A95      		dec r21
 4283 1404 01F4      		brne 1b
 4284 1406 280F      		add r18,r24
 4285 1408 391F      		adc r19,r25
 4286 140a E20F      		add r30,r18
 4287 140c F31F      		adc r31,r19
 4288 140e 90AD      		ldd r25,Z+56
 4289 1410 892F      		mov r24,r25
 4290 1412 8695      		lsr r24
 4291 1414 8F70      		andi r24,lo8(15)
 4292 1416 8130      		cpi r24,lo8(1)
 4293 1418 01F0      		breq .L226
 4294               	.LBB644:
 4295               	.LBB645:
 4296               	.LM451:
 4297 141a 917E      		andi r25,lo8(-31)
 4298 141c 9260      		ori r25,lo8(2)
 4299 141e 90AF      		std Z+56,r25
 4300               	.L226:
 4301 1420 0895      		ret
 4302               	.LBE645:
 4303               	.LBE644:
 4304               	.LFE79:
 4306               	.global	Timebase_DownCounter_Stop
 4308               	Timebase_DownCounter_Stop:
 4309               	.LFB80:
 4310               	.LM452:
 4311               	.LVL283:
 4312               	/* prologue: function */
 4313               	/* frame size = 0 */
 4314               	.LBB646:
 4315               	.LBB647:
 4316               	.LM453:
 4317 1422 E091 0000 		lds r30,Timebase
 4318 1426 F091 0000 		lds r31,(Timebase)+1
 4319 142a 90E0      		ldi r25,lo8(0)
 4320               	.LBE647:
 4321               	.LBE646:
 4322               	.LM454:
 4323 142c 9C01      		movw r18,r24
 4324               	.LVL284:
 4325 142e 64E0      		ldi r22,4
 4326 1430 220F      	1:	lsl r18
 4327 1432 331F      		rol r19
 4328 1434 6A95      		dec r22
 4329 1436 01F4      		brne 1b
 4330 1438 280F      		add r18,r24
 4331 143a 391F      		adc r19,r25
 4332 143c E20F      		add r30,r18
 4333 143e F31F      		adc r31,r19
 4334 1440 90AD      		ldd r25,Z+56
 4335 1442 892F      		mov r24,r25
 4336 1444 8695      		lsr r24
 4337 1446 8F70      		andi r24,lo8(15)
 4338 1448 8230      		cpi r24,lo8(2)
 4339 144a 01F0      		breq .L229
 4340               	.LBB648:
 4341               	.LBB649:
 4342               	.LM455:
 4343 144c 917E      		andi r25,lo8(-31)
 4344 144e 9460      		ori r25,lo8(4)
 4345 1450 90AF      		std Z+56,r25
 4346               	.L229:
 4347 1452 0895      		ret
 4348               	.LBE649:
 4349               	.LBE648:
 4350               	.LFE80:
 4352               	.global	Timebase_DownCounter_Set_Securely
 4354               	Timebase_DownCounter_Set_Securely:
 4355               	.LFB81:
 4356               	.LM456:
 4357               	.LVL285:
 4358               	/* prologue: function */
 4359               	/* frame size = 0 */
 4360               	.LBB650:
 4361               	.LBB651:
 4362               	.LM457:
 4363 1454 A091 0000 		lds r26,Timebase
 4364 1458 B091 0000 		lds r27,(Timebase)+1
 4365 145c 90E0      		ldi r25,lo8(0)
 4366               	.LBE651:
 4367               	.LBE650:
 4368               	.LM458:
 4369 145e FC01      		movw r30,r24
 4370               	.LVL286:
 4371 1460 24E0      		ldi r18,4
 4372 1462 EE0F      	1:	lsl r30
 4373 1464 FF1F      		rol r31
 4374 1466 2A95      		dec r18
 4375 1468 01F4      		brne 1b
 4376 146a E80F      		add r30,r24
 4377 146c F91F      		adc r31,r25
 4378 146e EA0F      		add r30,r26
 4379 1470 FB1F      		adc r31,r27
 4380 1472 80AD      		ldd r24,Z+56
 4381 1474 8695      		lsr r24
 4382 1476 8F70      		andi r24,lo8(15)
 4383 1478 01F4      		brne .L232
 4384               	.LBB652:
 4385               	.LBB653:
 4386               	.LM459:
 4387 147a FD96      		adiw r30,61
 4388 147c 4083      		st Z,r20
 4389 147e 5183      		std Z+1,r21
 4390 1480 6283      		std Z+2,r22
 4391 1482 7383      		std Z+3,r23
 4392 1484 FD97      		sbiw r30,61
 4393               	.LBE653:
 4394               	.LBE652:
 4395               	.LBB654:
 4396               	.LBB655:
 4397               	.LM460:
 4398 1486 1A96      		adiw r26,10
 4399 1488 8D91      		ld r24,X+
 4400 148a 9D91      		ld r25,X+
 4401 148c 0D90      		ld __tmp_reg__,X+
 4402 148e BC91      		ld r27,X
 4403 1490 A02D      		mov r26,__tmp_reg__
 4404               	.LBE655:
 4405               	.LBE654:
 4406               	.LBB656:
 4407               	.LBB657:
 4408               	.LM461:
 4409 1492 840F      		add r24,r20
 4410 1494 951F      		adc r25,r21
 4411 1496 A61F      		adc r26,r22
 4412 1498 B71F      		adc r27,r23
 4413 149a 81AF      		std Z+57,r24
 4414 149c 92AF      		std Z+58,r25
 4415 149e A3AF      		std Z+59,r26
 4416 14a0 B4AF      		std Z+60,r27
 4417               	.LBE657:
 4418               	.LBE656:
 4419               	.LBB658:
 4420               	.LBB659:
 4421               	.LM462:
 4422 14a2 EB5B      		subi r30,lo8(-(69))
 4423 14a4 FF4F      		sbci r31,hi8(-(69))
 4424 14a6 4083      		st Z,r20
 4425 14a8 5183      		std Z+1,r21
 4426 14aa 6283      		std Z+2,r22
 4427 14ac 7383      		std Z+3,r23
 4428 14ae E554      		subi r30,lo8(-(-69))
 4429 14b0 F040      		sbci r31,hi8(-(-69))
 4430               	.LBE659:
 4431               	.LBE658:
 4432               	.LBB660:
 4433               	.LBB661:
 4434               	.LM463:
 4435 14b2 90AD      		ldd r25,Z+56
 4436 14b4 892F      		mov r24,r25
 4437 14b6 8695      		lsr r24
 4438 14b8 8F70      		andi r24,lo8(15)
 4439 14ba 8130      		cpi r24,lo8(1)
 4440 14bc 01F0      		breq .L232
 4441               	.LBB662:
 4442               	.LBB663:
 4443               	.LM464:
 4444 14be 917E      		andi r25,lo8(-31)
 4445 14c0 9260      		ori r25,lo8(2)
 4446 14c2 90AF      		std Z+56,r25
 4447               	.L232:
 4448 14c4 0895      		ret
 4449               	.LBE663:
 4450               	.LBE662:
 4451               	.LBE661:
 4452               	.LBE660:
 4453               	.LFE81:
 4455               	.global	Timebase_DownCounter_Set_Forcefully
 4457               	Timebase_DownCounter_Set_Forcefully:
 4458               	.LFB82:
 4459               	.LM465:
 4460               	.LVL287:
 4461 14c6 CF92      		push r12
 4462 14c8 DF92      		push r13
 4463 14ca EF92      		push r14
 4464 14cc FF92      		push r15
 4465 14ce 0F93      		push r16
 4466 14d0 1F93      		push r17
 4467               	/* prologue: function */
 4468               	/* frame size = 0 */
 4469 14d2 6A01      		movw r12,r20
 4470 14d4 7B01      		movw r14,r22
 4471               	.LBB664:
 4472               	.LBB665:
 4473               	.LBB666:
 4474               	.LBB667:
 4475               	.LM466:
 4476 14d6 E091 0000 		lds r30,Timebase
 4477 14da F091 0000 		lds r31,(Timebase)+1
 4478 14de 282F      		mov r18,r24
 4479 14e0 30E0      		ldi r19,lo8(0)
 4480 14e2 8901      		movw r16,r18
 4481 14e4 44E0      		ldi r20,4
 4482 14e6 000F      	1:	lsl r16
 4483 14e8 111F      		rol r17
 4484 14ea 4A95      		dec r20
 4485 14ec 01F4      		brne 1b
 4486               	.LVL288:
 4487 14ee 020F      		add r16,r18
 4488 14f0 131F      		adc r17,r19
 4489 14f2 E00F      		add r30,r16
 4490 14f4 F11F      		adc r31,r17
 4491 14f6 11AE      		std Z+57,__zero_reg__
 4492 14f8 12AE      		std Z+58,__zero_reg__
 4493 14fa 13AE      		std Z+59,__zero_reg__
 4494 14fc 14AE      		std Z+60,__zero_reg__
 4495               	.LBE667:
 4496               	.LBE666:
 4497               	.LBB668:
 4498               	.LBB669:
 4499               	.LM467:
 4500 14fe FD96      		adiw r30,61
 4501 1500 1082      		st Z,__zero_reg__
 4502 1502 1182      		std Z+1,__zero_reg__
 4503 1504 1282      		std Z+2,__zero_reg__
 4504 1506 1382      		std Z+3,__zero_reg__
 4505 1508 FD97      		sbiw r30,61
 4506               	.LBE669:
 4507               	.LBE668:
 4508               	.LBB670:
 4509               	.LBB671:
 4510               	.LM468:
 4511 150a 90AD      		ldd r25,Z+56
 4512               	.LBE671:
 4513               	.LBE670:
 4514               	.LBB672:
 4515               	.LBB673:
 4516               	.LM469:
 4517 150c 907E      		andi r25,lo8(-32)
 4518 150e 90AF      		std Z+56,r25
 4519               	.LBE673:
 4520               	.LBE672:
 4521               	.LBB674:
 4522               	.LBB675:
 4523               	.LM470:
 4524 1510 EB5B      		subi r30,lo8(-(69))
 4525 1512 FF4F      		sbci r31,hi8(-(69))
 4526 1514 1082      		st Z,__zero_reg__
 4527 1516 1182      		std Z+1,__zero_reg__
 4528 1518 1282      		std Z+2,__zero_reg__
 4529 151a 1382      		std Z+3,__zero_reg__
 4530               	.LBE675:
 4531               	.LBE674:
 4532               	.LBE665:
 4533               	.LBE664:
 4534               	.LM471:
 4535 151c B701      		movw r22,r14
 4536 151e A601      		movw r20,r12
 4537 1520 0E94 0000 		call Timebase_DownCounter_Set_Securely
 4538               	.LVL289:
 4539               	.LBB676:
 4540               	.LBB677:
 4541               	.LM472:
 4542 1524 E091 0000 		lds r30,Timebase
 4543 1528 F091 0000 		lds r31,(Timebase)+1
 4544 152c E00F      		add r30,r16
 4545 152e F11F      		adc r31,r17
 4546 1530 EB5B      		subi r30,lo8(-(69))
 4547 1532 FF4F      		sbci r31,hi8(-(69))
 4548 1534 C082      		st Z,r12
 4549 1536 D182      		std Z+1,r13
 4550 1538 E282      		std Z+2,r14
 4551 153a F382      		std Z+3,r15
 4552               	/* epilogue start */
 4553               	.LBE677:
 4554               	.LBE676:
 4555               	.LM473:
 4556 153c 1F91      		pop r17
 4557 153e 0F91      		pop r16
 4558 1540 FF90      		pop r15
 4559 1542 EF90      		pop r14
 4560 1544 DF90      		pop r13
 4561 1546 CF90      		pop r12
 4562               	.LVL290:
 4563 1548 0895      		ret
 4564               	.LFE82:
 4566               	.global	Timebase_DownCounter_Update
 4568               	Timebase_DownCounter_Update:
 4569               	.LFB83:
 4570               	.LM474:
 4571               	.LVL291:
 4572 154a CF93      		push r28
 4573 154c DF93      		push r29
 4574               	/* prologue: function */
 4575               	/* frame size = 0 */
 4576               	.LBB678:
 4577               	.LBB679:
 4578               	.LM475:
 4579 154e E091 0000 		lds r30,Timebase
 4580 1552 F091 0000 		lds r31,(Timebase)+1
 4581 1556 90E0      		ldi r25,lo8(0)
 4582 1558 EC01      		movw r28,r24
 4583               	.LVL292:
 4584 155a 54E0      		ldi r21,4
 4585 155c CC0F      	1:	lsl r28
 4586 155e DD1F      		rol r29
 4587 1560 5A95      		dec r21
 4588 1562 01F4      		brne 1b
 4589 1564 C80F      		add r28,r24
 4590 1566 D91F      		adc r29,r25
 4591 1568 CE0F      		add r28,r30
 4592 156a DF1F      		adc r29,r31
 4593 156c 88AD      		ldd r24,Y+56
 4594 156e 8695      		lsr r24
 4595 1570 8F70      		andi r24,lo8(15)
 4596               	.LBE679:
 4597               	.LBE678:
 4598               	.LM476:
 4599 1572 8130      		cpi r24,lo8(1)
 4600 1574 01F4      		brne .L236
 4601               	.LBB680:
 4602               	.LBB681:
 4603               	.LM477:
 4604 1576 2285      		ldd r18,Z+10
 4605 1578 3385      		ldd r19,Z+11
 4606 157a 4485      		ldd r20,Z+12
 4607 157c 5585      		ldd r21,Z+13
 4608               	.LBE681:
 4609               	.LBE680:
 4610               	.LM478:
 4611 157e 89AD      		ldd r24,Y+57
 4612 1580 9AAD      		ldd r25,Y+58
 4613 1582 ABAD      		ldd r26,Y+59
 4614 1584 BCAD      		ldd r27,Y+60
 4615 1586 821B      		sub r24,r18
 4616 1588 930B      		sbc r25,r19
 4617 158a A40B      		sbc r26,r20
 4618 158c B50B      		sbc r27,r21
 4619               	.LBB682:
 4620               	.LBB683:
 4621               	.LM479:
 4622 158e BE01      		movw r22,r28
 4623 1590 635C      		subi r22,lo8(-(61))
 4624 1592 7F4F      		sbci r23,hi8(-(61))
 4625 1594 FB01      		movw r30,r22
 4626 1596 8083      		st Z,r24
 4627 1598 9183      		std Z+1,r25
 4628 159a A283      		std Z+2,r26
 4629 159c B383      		std Z+3,r27
 4630               	.LBE683:
 4631               	.LBE682:
 4632               	.LM480:
 4633 159e 1816      		cp __zero_reg__,r24
 4634 15a0 1906      		cpc __zero_reg__,r25
 4635 15a2 1A06      		cpc __zero_reg__,r26
 4636 15a4 1B06      		cpc __zero_reg__,r27
 4637 15a6 04F0      		brlt .L238
 4638               	.LBB684:
 4639               	.LBB685:
 4640               	.LBB686:
 4641               	.LM481:
 4642 15a8 FE01      		movw r30,r28
 4643 15aa EB5B      		subi r30,lo8(-(69))
 4644 15ac FF4F      		sbci r31,hi8(-(69))
 4645 15ae 2081      		ld r18,Z
 4646 15b0 3181      		ldd r19,Z+1
 4647 15b2 4281      		ldd r20,Z+2
 4648 15b4 5381      		ldd r21,Z+3
 4649               	.LVL293:
 4650               	.LBE686:
 4651               	.LBE685:
 4652               	.LBB687:
 4653               	.LBB688:
 4654               	.LBB689:
 4655               	.LBB690:
 4656               	.LM482:
 4657 15b6 19AE      		std Y+57,__zero_reg__
 4658 15b8 1AAE      		std Y+58,__zero_reg__
 4659 15ba 1BAE      		std Y+59,__zero_reg__
 4660 15bc 1CAE      		std Y+60,__zero_reg__
 4661               	.LBE690:
 4662               	.LBE689:
 4663               	.LBB691:
 4664               	.LBB692:
 4665               	.LM483:
 4666 15be DB01      		movw r26,r22
 4667 15c0 1D92      		st X+,__zero_reg__
 4668 15c2 1D92      		st X+,__zero_reg__
 4669 15c4 1D92      		st X+,__zero_reg__
 4670 15c6 1C92      		st X,__zero_reg__
 4671 15c8 1397      		sbiw r26,3
 4672               	.LBE692:
 4673               	.LBE691:
 4674               	.LBB693:
 4675               	.LBB694:
 4676               	.LM484:
 4677 15ca 88AD      		ldd r24,Y+56
 4678 15cc 8E7F      		andi r24,lo8(-2)
 4679 15ce 88AF      		std Y+56,r24
 4680               	.LBE694:
 4681               	.LBE693:
 4682               	.LBE688:
 4683               	.LBE687:
 4684               	.LBB695:
 4685               	.LBB696:
 4686               	.LM485:
 4687 15d0 2083      		st Z,r18
 4688 15d2 3183      		std Z+1,r19
 4689 15d4 4283      		std Z+2,r20
 4690 15d6 5383      		std Z+3,r21
 4691               	.LBE696:
 4692               	.LBE695:
 4693               	.LBB697:
 4694               	.LBB698:
 4695               	.LM486:
 4696 15d8 88AD      		ldd r24,Y+56
 4697 15da 817E      		andi r24,lo8(-31)
 4698 15dc 8860      		ori r24,lo8(8)
 4699 15de 88AF      		std Y+56,r24
 4700 15e0 00C0      		rjmp .L238
 4701               	.LVL294:
 4702               	.L236:
 4703               	.LBE698:
 4704               	.LBE697:
 4705               	.LBE684:
 4706               	.LM487:
 4707 15e2 8230      		cpi r24,lo8(2)
 4708 15e4 01F4      		brne .L238
 4709               	.LBB699:
 4710               	.LBB700:
 4711               	.LM488:
 4712 15e6 8285      		ldd r24,Z+10
 4713 15e8 9385      		ldd r25,Z+11
 4714 15ea A485      		ldd r26,Z+12
 4715 15ec B585      		ldd r27,Z+13
 4716               	.LBE700:
 4717               	.LBE699:
 4718               	.LBB701:
 4719               	.LBB702:
 4720               	.LM489:
 4721 15ee ED96      		adiw r28,61
 4722 15f0 2881      		ld r18,Y
 4723 15f2 3981      		ldd r19,Y+1
 4724 15f4 4A81      		ldd r20,Y+2
 4725 15f6 5B81      		ldd r21,Y+3
 4726 15f8 ED97      		sbiw r28,61
 4727 15fa 820F      		add r24,r18
 4728 15fc 931F      		adc r25,r19
 4729 15fe A41F      		adc r26,r20
 4730 1600 B51F      		adc r27,r21
 4731 1602 89AF      		std Y+57,r24
 4732 1604 9AAF      		std Y+58,r25
 4733 1606 ABAF      		std Y+59,r26
 4734 1608 BCAF      		std Y+60,r27
 4735               	.LVL295:
 4736               	.L238:
 4737               	/* epilogue start */
 4738               	.LBE702:
 4739               	.LBE701:
 4740               	.LM490:
 4741 160a DF91      		pop r29
 4742 160c CF91      		pop r28
 4743 160e 0895      		ret
 4744               	.LFE83:
 4746               	.global	Timebase_DownCounter_Expired
 4748               	Timebase_DownCounter_Expired:
 4749               	.LFB84:
 4750               	.LM491:
 4751               	.LVL296:
 4752               	/* prologue: function */
 4753               	/* frame size = 0 */
 4754               	.LM492:
 4755 1610 40E0      		ldi r20,lo8(0)
 4756 1612 E091 0000 		lds r30,Timebase
 4757 1616 F091 0000 		lds r31,(Timebase)+1
 4758 161a 90E0      		ldi r25,lo8(0)
 4759               	.LVL297:
 4760 161c 9C01      		movw r18,r24
 4761 161e 64E0      		ldi r22,4
 4762 1620 220F      	1:	lsl r18
 4763 1622 331F      		rol r19
 4764 1624 6A95      		dec r22
 4765 1626 01F4      		brne 1b
 4766 1628 280F      		add r18,r24
 4767 162a 391F      		adc r19,r25
 4768 162c E20F      		add r30,r18
 4769 162e F31F      		adc r31,r19
 4770 1630 80AD      		ldd r24,Z+56
 4771               	.LVL298:
 4772 1632 8695      		lsr r24
 4773 1634 8F70      		andi r24,lo8(15)
 4774 1636 8430      		cpi r24,lo8(4)
 4775 1638 01F4      		brne .L240
 4776 163a 41E0      		ldi r20,lo8(1)
 4777               	.L240:
 4778               	.LM493:
 4779 163c 842F      		mov r24,r20
 4780               	/* epilogue start */
 4781 163e 0895      		ret
 4782               	.LFE84:
 4784               	.global	Timebase_DownCounter_Expired_Event
 4786               	Timebase_DownCounter_Expired_Event:
 4787               	.LFB85:
 4788               	.LM494:
 4789               	.LVL299:
 4790               	/* prologue: function */
 4791               	/* frame size = 0 */
 4792               	.LBB703:
 4793               	.LBB704:
 4794               	.LM495:
 4795 1640 E091 0000 		lds r30,Timebase
 4796 1644 F091 0000 		lds r31,(Timebase)+1
 4797 1648 90E0      		ldi r25,lo8(0)
 4798               	.LBE704:
 4799               	.LBE703:
 4800               	.LM496:
 4801 164a 9C01      		movw r18,r24
 4802               	.LVL300:
 4803 164c 74E0      		ldi r23,4
 4804 164e 220F      	1:	lsl r18
 4805 1650 331F      		rol r19
 4806 1652 7A95      		dec r23
 4807 1654 01F4      		brne 1b
 4808 1656 280F      		add r18,r24
 4809 1658 391F      		adc r19,r25
 4810 165a E20F      		add r30,r18
 4811 165c F31F      		adc r31,r19
 4812 165e 80AD      		ldd r24,Z+56
 4813 1660 8695      		lsr r24
 4814 1662 8F70      		andi r24,lo8(15)
 4815 1664 8430      		cpi r24,lo8(4)
 4816 1666 01F0      		breq .L243
 4817 1668 80E0      		ldi r24,lo8(0)
 4818 166a 0895      		ret
 4819               	.L243:
 4820               	.LBB705:
 4821               	.LBB706:
 4822               	.LBB707:
 4823               	.LBB708:
 4824               	.LBB709:
 4825               	.LBB710:
 4826               	.LM497:
 4827 166c 11AE      		std Z+57,__zero_reg__
 4828 166e 12AE      		std Z+58,__zero_reg__
 4829 1670 13AE      		std Z+59,__zero_reg__
 4830 1672 14AE      		std Z+60,__zero_reg__
 4831               	.LBE710:
 4832               	.LBE709:
 4833               	.LBB711:
 4834               	.LBB712:
 4835               	.LM498:
 4836 1674 FD96      		adiw r30,61
 4837 1676 1082      		st Z,__zero_reg__
 4838 1678 1182      		std Z+1,__zero_reg__
 4839 167a 1282      		std Z+2,__zero_reg__
 4840 167c 1382      		std Z+3,__zero_reg__
 4841 167e FD97      		sbiw r30,61
 4842               	.LBE712:
 4843               	.LBE711:
 4844               	.LBB713:
 4845               	.LBB714:
 4846               	.LM499:
 4847 1680 80AD      		ldd r24,Z+56
 4848               	.LBE714:
 4849               	.LBE713:
 4850               	.LBB715:
 4851               	.LBB716:
 4852               	.LM500:
 4853 1682 807E      		andi r24,lo8(-32)
 4854 1684 80AF      		std Z+56,r24
 4855               	.LBE716:
 4856               	.LBE715:
 4857               	.LBB717:
 4858               	.LBB718:
 4859               	.LM501:
 4860 1686 EB5B      		subi r30,lo8(-(69))
 4861 1688 FF4F      		sbci r31,hi8(-(69))
 4862 168a 1082      		st Z,__zero_reg__
 4863 168c 1182      		std Z+1,__zero_reg__
 4864 168e 1282      		std Z+2,__zero_reg__
 4865 1690 1382      		std Z+3,__zero_reg__
 4866 1692 81E0      		ldi r24,lo8(1)
 4867               	.LBE718:
 4868               	.LBE717:
 4869               	.LBE708:
 4870               	.LBE707:
 4871               	.LBE706:
 4872               	.LBE705:
 4873               	.LM502:
 4874 1694 0895      		ret
 4875               	.LFE85:
 4877               	.global	Timebase_DownCounter_Set_Period_Value_Securely
 4879               	Timebase_DownCounter_Set_Period_Value_Securely:
 4880               	.LFB86:
 4881               	.LM503:
 4882               	.LVL301:
 4883 1696 CF93      		push r28
 4884 1698 DF93      		push r29
 4885               	/* prologue: function */
 4886               	/* frame size = 0 */
 4887               	.LBB719:
 4888               	.LBB720:
 4889               	.LM504:
 4890 169a C091 0000 		lds r28,Timebase
 4891 169e D091 0000 		lds r29,(Timebase)+1
 4892 16a2 282F      		mov r18,r24
 4893 16a4 30E0      		ldi r19,lo8(0)
 4894               	.LBE720:
 4895               	.LBE719:
 4896               	.LM505:
 4897 16a6 F901      		movw r30,r18
 4898 16a8 B4E0      		ldi r27,4
 4899 16aa EE0F      	1:	lsl r30
 4900 16ac FF1F      		rol r31
 4901 16ae BA95      		dec r27
 4902 16b0 01F4      		brne 1b
 4903 16b2 E20F      		add r30,r18
 4904 16b4 F31F      		adc r31,r19
 4905 16b6 EC0F      		add r30,r28
 4906 16b8 FD1F      		adc r31,r29
 4907 16ba 80AD      		ldd r24,Z+56
 4908               	.LVL302:
 4909 16bc 80FD      		sbrc r24,0
 4910 16be 00C0      		rjmp .L250
 4911               	.LM506:
 4912 16c0 FD96      		adiw r30,61
 4913 16c2 8191      		ld r24,Z+
 4914 16c4 9191      		ld r25,Z+
 4915 16c6 A191      		ld r26,Z+
 4916 16c8 B191      		ld r27,Z+
 4917 16ca 841B      		sub r24,r20
 4918 16cc 950B      		sbc r25,r21
 4919 16ce A60B      		sbc r26,r22
 4920 16d0 B70B      		sbc r27,r23
 4921               	.LBB721:
 4922               	.LBB722:
 4923               	.LM507:
 4924 16d2 B7FF      		sbrs r27,7
 4925 16d4 00C0      		rjmp .L248
 4926               	.LM508:
 4927 16d6 1082      		st Z,__zero_reg__
 4928 16d8 1182      		std Z+1,__zero_reg__
 4929 16da 1282      		std Z+2,__zero_reg__
 4930 16dc 1382      		std Z+3,__zero_reg__
 4931 16de 00C0      		rjmp .L249
 4932               	.L248:
 4933               	.LM509:
 4934 16e0 8083      		st Z,r24
 4935 16e2 9183      		std Z+1,r25
 4936 16e4 A283      		std Z+2,r26
 4937 16e6 B383      		std Z+3,r27
 4938               	.L249:
 4939               	.LBE722:
 4940               	.LBE721:
 4941               	.LBB723:
 4942               	.LBB724:
 4943               	.LM510:
 4944 16e8 F901      		movw r30,r18
 4945 16ea A4E0      		ldi r26,4
 4946 16ec EE0F      	1:	lsl r30
 4947 16ee FF1F      		rol r31
 4948 16f0 AA95      		dec r26
 4949 16f2 01F4      		brne 1b
 4950 16f4 E20F      		add r30,r18
 4951 16f6 F31F      		adc r31,r19
 4952 16f8 EC0F      		add r30,r28
 4953 16fa FD1F      		adc r31,r29
 4954 16fc 80AD      		ldd r24,Z+56
 4955 16fe 8160      		ori r24,lo8(1)
 4956 1700 80AF      		std Z+56,r24
 4957               	.L250:
 4958               	/* epilogue start */
 4959               	.LBE724:
 4960               	.LBE723:
 4961               	.LM511:
 4962 1702 DF91      		pop r29
 4963 1704 CF91      		pop r28
 4964 1706 0895      		ret
 4965               	.LFE86:
 4967               	.global	Timebase_DownCounter_Get_Remaining_Period_Value
 4969               	Timebase_DownCounter_Get_Remaining_Period_Value:
 4970               	.LFB87:
 4971               	.LM512:
 4972               	.LVL303:
 4973               	/* prologue: function */
 4974               	/* frame size = 0 */
 4975               	.LBB725:
 4976               	.LBB726:
 4977               	.LM513:
 4978 1708 E091 0000 		lds r30,Timebase
 4979 170c F091 0000 		lds r31,(Timebase)+1
 4980 1710 90E0      		ldi r25,lo8(0)
 4981               	.LBE726:
 4982               	.LBE725:
 4983               	.LM514:
 4984 1712 9C01      		movw r18,r24
 4985               	.LVL304:
 4986 1714 44E0      		ldi r20,4
 4987 1716 220F      	1:	lsl r18
 4988 1718 331F      		rol r19
 4989 171a 4A95      		dec r20
 4990 171c 01F4      		brne 1b
 4991 171e 280F      		add r18,r24
 4992 1720 391F      		adc r19,r25
 4993 1722 E20F      		add r30,r18
 4994 1724 F31F      		adc r31,r19
 4995 1726 DF01      		movw r26,r30
 4996 1728 AF5B      		subi r26,lo8(-(65))
 4997 172a BF4F      		sbci r27,hi8(-(65))
 4998 172c FD96      		adiw r30,61
 4999 172e 2081      		ld r18,Z
 5000 1730 3181      		ldd r19,Z+1
 5001 1732 4281      		ldd r20,Z+2
 5002 1734 5381      		ldd r21,Z+3
 5003               	.LVL305:
 5004 1736 8D91      		ld r24,X+
 5005 1738 9D91      		ld r25,X+
 5006 173a 0D90      		ld __tmp_reg__,X+
 5007 173c BC91      		ld r27,X
 5008 173e A02D      		mov r26,__tmp_reg__
 5009 1740 281B      		sub r18,r24
 5010 1742 390B      		sbc r19,r25
 5011 1744 4A0B      		sbc r20,r26
 5012 1746 5B0B      		sbc r21,r27
 5013 1748 57FF      		sbrs r21,7
 5014 174a 00C0      		rjmp .L252
 5015 174c 20E0      		ldi r18,lo8(0)
 5016 174e 30E0      		ldi r19,hi8(0)
 5017 1750 40E0      		ldi r20,hlo8(0)
 5018 1752 50E0      		ldi r21,hhi8(0)
 5019               	.L252:
 5020               	.LM515:
 5021 1754 B901      		movw r22,r18
 5022               	.LVL306:
 5023 1756 CA01      		movw r24,r20
 5024               	/* epilogue start */
 5025 1758 0895      		ret
 5026               	.LFE87:
 5028               	.global	Timebase_DownCounter_Period_Value_Expired
 5030               	Timebase_DownCounter_Period_Value_Expired:
 5031               	.LFB88:
 5032               	.LM516:
 5033               	.LVL307:
 5034 175a CF93      		push r28
 5035 175c DF93      		push r29
 5036               	/* prologue: function */
 5037               	/* frame size = 0 */
 5038               	.LBB727:
 5039               	.LBB728:
 5040               	.LBB729:
 5041               	.LBB730:
 5042               	.LM517:
 5043 175e C091 0000 		lds r28,Timebase
 5044 1762 D091 0000 		lds r29,(Timebase)+1
 5045 1766 682F      		mov r22,r24
 5046 1768 70E0      		ldi r23,lo8(0)
 5047               	.LBE730:
 5048               	.LBE729:
 5049               	.LM518:
 5050 176a FB01      		movw r30,r22
 5051 176c A4E0      		ldi r26,4
 5052 176e EE0F      	1:	lsl r30
 5053 1770 FF1F      		rol r31
 5054 1772 AA95      		dec r26
 5055 1774 01F4      		brne 1b
 5056 1776 E60F      		add r30,r22
 5057 1778 F71F      		adc r31,r23
 5058 177a EC0F      		add r30,r28
 5059 177c FD1F      		adc r31,r29
 5060 177e DF01      		movw r26,r30
 5061 1780 AF5B      		subi r26,lo8(-(65))
 5062 1782 BF4F      		sbci r27,hi8(-(65))
 5063 1784 FD96      		adiw r30,61
 5064 1786 2081      		ld r18,Z
 5065 1788 3181      		ldd r19,Z+1
 5066 178a 4281      		ldd r20,Z+2
 5067 178c 5381      		ldd r21,Z+3
 5068               	.LVL308:
 5069 178e 8D91      		ld r24,X+
 5070 1790 9D91      		ld r25,X+
 5071 1792 0D90      		ld __tmp_reg__,X+
 5072 1794 BC91      		ld r27,X
 5073 1796 A02D      		mov r26,__tmp_reg__
 5074               	.LVL309:
 5075 1798 281B      		sub r18,r24
 5076 179a 390B      		sbc r19,r25
 5077 179c 4A0B      		sbc r20,r26
 5078 179e 5B0B      		sbc r21,r27
 5079               	.LM519:
 5080 17a0 57FD      		sbrc r21,7
 5081 17a2 00C0      		rjmp .L255
 5082               	.LBE728:
 5083               	.LBE727:
 5084               	.LM520:
 5085 17a4 2115      		cp r18,__zero_reg__
 5086 17a6 3105      		cpc r19,__zero_reg__
 5087 17a8 4105      		cpc r20,__zero_reg__
 5088 17aa 5105      		cpc r21,__zero_reg__
 5089 17ac 01F0      		breq .L255
 5090 17ae 20E0      		ldi r18,lo8(0)
 5091               	.LVL310:
 5092 17b0 00C0      		rjmp .L256
 5093               	.LVL311:
 5094               	.L255:
 5095 17b2 20E0      		ldi r18,lo8(0)
 5096               	.LVL312:
 5097 17b4 CB01      		movw r24,r22
 5098 17b6 54E0      		ldi r21,4
 5099 17b8 880F      	1:	lsl r24
 5100 17ba 991F      		rol r25
 5101 17bc 5A95      		dec r21
 5102 17be 01F4      		brne 1b
 5103 17c0 860F      		add r24,r22
 5104 17c2 971F      		adc r25,r23
 5105 17c4 C80F      		add r28,r24
 5106 17c6 D91F      		adc r29,r25
 5107 17c8 88AD      		ldd r24,Y+56
 5108 17ca 80FF      		sbrs r24,0
 5109 17cc 21E0      		ldi r18,lo8(1)
 5110               	.L257:
 5111 17ce 81E0      		ldi r24,lo8(1)
 5112 17d0 2827      		eor r18,r24
 5113               	.L256:
 5114               	.LM521:
 5115 17d2 822F      		mov r24,r18
 5116               	/* epilogue start */
 5117 17d4 DF91      		pop r29
 5118 17d6 CF91      		pop r28
 5119 17d8 0895      		ret
 5120               	.LFE88:
 5122               	.global	Timebase_DownCounter_Period_Value_Expired_Event
 5124               	Timebase_DownCounter_Period_Value_Expired_Event:
 5125               	.LFB89:
 5126               	.LM522:
 5127               	.LVL313:
 5128 17da 1F93      		push r17
 5129               	/* prologue: function */
 5130               	/* frame size = 0 */
 5131 17dc 182F      		mov r17,r24
 5132               	.LM523:
 5133 17de 0E94 0000 		call Timebase_DownCounter_Period_Value_Expired
 5134               	.LVL314:
 5135 17e2 8130      		cpi r24,lo8(1)
 5136 17e4 01F0      		breq .L260
 5137 17e6 80E0      		ldi r24,lo8(0)
 5138 17e8 00C0      		rjmp .L261
 5139               	.L260:
 5140               	.LBB731:
 5141               	.LBB732:
 5142               	.LM524:
 5143 17ea E091 0000 		lds r30,Timebase
 5144 17ee F091 0000 		lds r31,(Timebase)+1
 5145 17f2 212F      		mov r18,r17
 5146 17f4 30E0      		ldi r19,lo8(0)
 5147               	.LVL315:
 5148 17f6 C901      		movw r24,r18
 5149 17f8 B4E0      		ldi r27,4
 5150 17fa 880F      	1:	lsl r24
 5151 17fc 991F      		rol r25
 5152 17fe BA95      		dec r27
 5153 1800 01F4      		brne 1b
 5154 1802 820F      		add r24,r18
 5155 1804 931F      		adc r25,r19
 5156 1806 E80F      		add r30,r24
 5157 1808 F91F      		adc r31,r25
 5158 180a 80AD      		ldd r24,Z+56
 5159 180c 8E7F      		andi r24,lo8(-2)
 5160 180e 80AF      		std Z+56,r24
 5161 1810 81E0      		ldi r24,lo8(1)
 5162               	.L261:
 5163               	/* epilogue start */
 5164               	.LBE732:
 5165               	.LBE731:
 5166               	.LM525:
 5167 1812 1F91      		pop r17
 5168               	.LVL316:
 5169 1814 0895      		ret
 5170               	.LFE89:
 5172               	.global	Timebase_DownCounter_Oneshot_Expired_Event
 5174               	Timebase_DownCounter_Oneshot_Expired_Event:
 5175               	.LFB90:
 5176               	.LM526:
 5177               	.LVL317:
 5178               	/* prologue: function */
 5179               	/* frame size = 0 */
 5180               	.LM527:
 5181 1816 0E94 0000 		call Timebase_DownCounter_Expired_Event
 5182               	.LVL318:
 5183               	/* epilogue start */
 5184               	.LM528:
 5185 181a 0895      		ret
 5186               	.LFE90:
 5188               	.global	Timebase_DownCounter_Continuous_Expired_Event
 5190               	Timebase_DownCounter_Continuous_Expired_Event:
 5191               	.LFB91:
 5192               	.LM529:
 5193               	.LVL319:
 5194 181c 1F93      		push r17
 5195               	/* prologue: function */
 5196               	/* frame size = 0 */
 5197 181e 182F      		mov r17,r24
 5198               	.LBB733:
 5199               	.LBB734:
 5200               	.LM530:
 5201 1820 A091 0000 		lds r26,Timebase
 5202 1824 B091 0000 		lds r27,(Timebase)+1
 5203 1828 90E0      		ldi r25,lo8(0)
 5204               	.LBE734:
 5205               	.LBE733:
 5206               	.LM531:
 5207 182a 9C01      		movw r18,r24
 5208               	.LVL320:
 5209 182c 44E0      		ldi r20,4
 5210 182e 220F      	1:	lsl r18
 5211 1830 331F      		rol r19
 5212 1832 4A95      		dec r20
 5213 1834 01F4      		brne 1b
 5214 1836 280F      		add r18,r24
 5215 1838 391F      		adc r19,r25
 5216 183a A20F      		add r26,r18
 5217 183c B31F      		adc r27,r19
 5218 183e D896      		adiw r26,56
 5219 1840 8C91      		ld r24,X
 5220 1842 D897      		sbiw r26,56
 5221 1844 8695      		lsr r24
 5222 1846 8F70      		andi r24,lo8(15)
 5223 1848 8430      		cpi r24,lo8(4)
 5224 184a 01F0      		breq .L266
 5225 184c 80E0      		ldi r24,lo8(0)
 5226 184e 00C0      		rjmp .L267
 5227               	.L266:
 5228               	.LBB735:
 5229               	.LBB736:
 5230               	.LBB737:
 5231               	.LM532:
 5232 1850 FD01      		movw r30,r26
 5233 1852 EB5B      		subi r30,lo8(-(69))
 5234 1854 FF4F      		sbci r31,hi8(-(69))
 5235 1856 4081      		ld r20,Z
 5236 1858 5181      		ldd r21,Z+1
 5237 185a 6281      		ldd r22,Z+2
 5238 185c 7381      		ldd r23,Z+3
 5239               	.LVL321:
 5240               	.LBE737:
 5241               	.LBE736:
 5242               	.LBB738:
 5243               	.LBB739:
 5244               	.LBB740:
 5245               	.LBB741:
 5246               	.LBB742:
 5247               	.LBB743:
 5248               	.LM533:
 5249 185e D996      		adiw r26,57
 5250 1860 1D92      		st X+,__zero_reg__
 5251 1862 1D92      		st X+,__zero_reg__
 5252 1864 1D92      		st X+,__zero_reg__
 5253 1866 1C92      		st X,__zero_reg__
 5254 1868 DC97      		sbiw r26,57+3
 5255               	.LBE743:
 5256               	.LBE742:
 5257               	.LBB744:
 5258               	.LBB745:
 5259               	.LM534:
 5260 186a DD96      		adiw r26,61
 5261 186c 1D92      		st X+,__zero_reg__
 5262 186e 1D92      		st X+,__zero_reg__
 5263 1870 1D92      		st X+,__zero_reg__
 5264 1872 1C92      		st X,__zero_reg__
 5265 1874 1397      		sbiw r26,3
 5266 1876 DD97      		sbiw r26,61
 5267               	.LBE745:
 5268               	.LBE744:
 5269               	.LBB746:
 5270               	.LBB747:
 5271               	.LM535:
 5272 1878 D896      		adiw r26,56
 5273 187a 8C91      		ld r24,X
 5274 187c D897      		sbiw r26,56
 5275               	.LBE747:
 5276               	.LBE746:
 5277               	.LBB748:
 5278               	.LBB749:
 5279               	.LM536:
 5280 187e 807E      		andi r24,lo8(-32)
 5281 1880 D896      		adiw r26,56
 5282 1882 8C93      		st X,r24
 5283               	.LBE749:
 5284               	.LBE748:
 5285               	.LBB750:
 5286               	.LBB751:
 5287               	.LM537:
 5288 1884 1082      		st Z,__zero_reg__
 5289 1886 1182      		std Z+1,__zero_reg__
 5290 1888 1282      		std Z+2,__zero_reg__
 5291 188a 1382      		std Z+3,__zero_reg__
 5292               	.LBE751:
 5293               	.LBE750:
 5294               	.LBE741:
 5295               	.LBE740:
 5296               	.LBE739:
 5297               	.LBE738:
 5298               	.LM538:
 5299 188c 812F      		mov r24,r17
 5300 188e 0E94 0000 		call Timebase_DownCounter_Set_Securely
 5301               	.LVL322:
 5302 1892 81E0      		ldi r24,lo8(1)
 5303               	.L267:
 5304               	/* epilogue start */
 5305               	.LBE735:
 5306               	.LM539:
 5307 1894 1F91      		pop r17
 5308               	.LVL323:
 5309 1896 0895      		ret
 5310               	.LFE91:
 5312               	.global	Timebase_DownCounter_Update_All
 5314               	Timebase_DownCounter_Update_All:
 5315               	.LFB92:
 5316               	.LM540:
 5317               	/* prologue: function */
 5318               	/* frame size = 0 */
 5319               	.LBB752:
 5320               	.LM541:
 5321 1898 80E0      		ldi r24,lo8(0)
 5322 189a 0E94 0000 		call Timebase_DownCounter_Update
 5323               	/* epilogue start */
 5324               	.LBE752:
 5325               	.LM542:
 5326 189e 0895      		ret
 5327               	.LFE92:
 5329               	.global	Timebase_DownCounter_Reset_All
 5331               	Timebase_DownCounter_Reset_All:
 5332               	.LFB93:
 5333               	.LM543:
 5334               	/* prologue: function */
 5335               	/* frame size = 0 */
 5336               	.LBB753:
 5337               	.LBB754:
 5338               	.LBB755:
 5339               	.LBB756:
 5340               	.LBB757:
 5341               	.LM544:
 5342 18a0 E091 0000 		lds r30,Timebase
 5343 18a4 F091 0000 		lds r31,(Timebase)+1
 5344 18a8 11AE      		std Z+57,__zero_reg__
 5345 18aa 12AE      		std Z+58,__zero_reg__
 5346 18ac 13AE      		std Z+59,__zero_reg__
 5347 18ae 14AE      		std Z+60,__zero_reg__
 5348               	.LBE757:
 5349               	.LBE756:
 5350               	.LBB758:
 5351               	.LBB759:
 5352               	.LM545:
 5353 18b0 FD96      		adiw r30,61
 5354 18b2 1082      		st Z,__zero_reg__
 5355 18b4 1182      		std Z+1,__zero_reg__
 5356 18b6 1282      		std Z+2,__zero_reg__
 5357 18b8 1382      		std Z+3,__zero_reg__
 5358 18ba FD97      		sbiw r30,61
 5359               	.LBE759:
 5360               	.LBE758:
 5361               	.LBB760:
 5362               	.LBB761:
 5363               	.LM546:
 5364 18bc 80AD      		ldd r24,Z+56
 5365               	.LBE761:
 5366               	.LBE760:
 5367               	.LBB762:
 5368               	.LBB763:
 5369               	.LM547:
 5370 18be 807E      		andi r24,lo8(-32)
 5371 18c0 80AF      		std Z+56,r24
 5372               	.LBE763:
 5373               	.LBE762:
 5374               	.LBB764:
 5375               	.LBB765:
 5376               	.LM548:
 5377 18c2 EB5B      		subi r30,lo8(-(69))
 5378 18c4 FF4F      		sbci r31,hi8(-(69))
 5379 18c6 1082      		st Z,__zero_reg__
 5380 18c8 1182      		std Z+1,__zero_reg__
 5381 18ca 1282      		std Z+2,__zero_reg__
 5382 18cc 1382      		std Z+3,__zero_reg__
 5383               	/* epilogue start */
 5384               	.LBE765:
 5385               	.LBE764:
 5386               	.LBE755:
 5387               	.LBE754:
 5388               	.LBE753:
 5389               	.LM549:
 5390 18ce 0895      		ret
 5391               	.LFE93:
 5393               	.global	Timebase_Get_Update_Req_Sts
 5395               	Timebase_Get_Update_Req_Sts:
 5396               	.LFB94:
 5397               	.LM550:
 5398               	/* prologue: function */
 5399               	/* frame size = 0 */
 5400               	.LM551:
 5401 18d0 E091 0000 		lds r30,Timebase
 5402 18d4 F091 0000 		lds r31,(Timebase)+1
 5403 18d8 82A1      		ldd r24,Z+34
 5404               	/* epilogue start */
 5405               	.LM552:
 5406 18da 0895      		ret
 5407               	.LFE94:
 5409               	.global	Timebase_Reset
 5411               	Timebase_Reset:
 5412               	.LFB95:
 5413               	.LM553:
 5414               	/* prologue: function */
 5415               	/* frame size = 0 */
 5416               	.LM554:
 5417 18dc 0E94 0000 		call Timebase_DownCounter_SS_Reset_All
 5418               	.LM555:
 5419 18e0 0E94 0000 		call Timebase_DownCounter_Reset_All
 5420               	/* epilogue start */
 5421               	.LM556:
 5422 18e4 0895      		ret
 5423               	.LFE95:
 5425               	.global	Timebase_LP_Reset
 5427               	Timebase_LP_Reset:
 5428               	.LFB96:
 5429               	.LM557:
 5430               	/* prologue: function */
 5431               	/* frame size = 0 */
 5432               	/* epilogue start */
 5433               	.LM558:
 5434 18e6 0895      		ret
 5435               	.LFE96:
 5437               	.global	Timebase_Init
 5439               	Timebase_Init:
 5440               	.LFB97:
 5441               	.LM559:
 5442               	.LVL324:
 5443 18e8 0F93      		push r16
 5444 18ea 1F93      		push r17
 5445               	/* prologue: function */
 5446               	/* frame size = 0 */
 5447 18ec 8C01      		movw r16,r24
 5448               	.LM560:
 5449 18ee 0E94 0000 		call Timebase_Struct_Init
 5450               	.LVL325:
 5451               	.LM561:
 5452 18f2 C801      		movw r24,r16
 5453 18f4 0E94 0000 		call Timebase_Timer_Enable
 5454               	.LM562:
 5455 18f8 0E94 0000 		call Timebase_Reset
 5456               	/* epilogue start */
 5457               	.LM563:
 5458 18fc 1F91      		pop r17
 5459 18fe 0F91      		pop r16
 5460               	.LVL326:
 5461 1900 0895      		ret
 5462               	.LFE97:
 5464               	.global	Timebase_Main_Loop_Executables
 5466               	Timebase_Main_Loop_Executables:
 5467               	.LFB98:
 5468               	.LM564:
 5469               	/* prologue: function */
 5470               	/* frame size = 0 */
 5471               	.LM565:
 5472 1902 E091 0000 		lds r30,Timebase
 5473 1906 F091 0000 		lds r31,(Timebase)+1
 5474 190a 82A1      		ldd r24,Z+34
 5475 190c 83FF      		sbrs r24,3
 5476 190e 00C0      		rjmp .L282
 5477               	.LM566:
 5478 1910 0E94 0000 		call Timebase_Timer_Sync_With_Shadow_Variables
 5479               	.LM567:
 5480 1914 0E94 0000 		call Timebase_DownCounter_SS_Update_All
 5481               	.LM568:
 5482 1918 E091 0000 		lds r30,Timebase
 5483 191c F091 0000 		lds r31,(Timebase)+1
 5484 1920 82A1      		ldd r24,Z+34
 5485 1922 877F      		andi r24,lo8(-9)
 5486 1924 82A3      		std Z+34,r24
 5487               	.L282:
 5488               	.LM569:
 5489 1926 E091 0000 		lds r30,Timebase
 5490 192a F091 0000 		lds r31,(Timebase)+1
 5491 192e 82A1      		ldd r24,Z+34
 5492 1930 81FF      		sbrs r24,1
 5493 1932 00C0      		rjmp .L283
 5494               	.LM570:
 5495 1934 0E94 0000 		call Timebase_Timer_Sync_With_Shadow_Variables
 5496               	.LM571:
 5497 1938 0E94 0000 		call Timebase_DownCounter_Update_All
 5498               	.LM572:
 5499 193c E091 0000 		lds r30,Timebase
 5500 1940 F091 0000 		lds r31,(Timebase)+1
 5501 1944 82A1      		ldd r24,Z+34
 5502 1946 8D7F      		andi r24,lo8(-3)
 5503 1948 82A3      		std Z+34,r24
 5504               	.L283:
 5505               	.LM573:
 5506 194a E091 0000 		lds r30,Timebase
 5507 194e F091 0000 		lds r31,(Timebase)+1
 5508 1952 108E      		std Z+24,__zero_reg__
 5509               	/* epilogue start */
 5510               	.LM574:
 5511 1954 0895      		ret
 5512               	.LFE98:
 5514               	.global	Timebase_ISR_Executables
 5516               	Timebase_ISR_Executables:
 5517               	.LFB99:
 5518               	.LM575:
 5519               	/* prologue: function */
 5520               	/* frame size = 0 */
 5521               	.LM576:
 5522 1956 E091 0000 		lds r30,Timebase
 5523 195a F091 0000 		lds r31,(Timebase)+1
 5524 195e 8685      		ldd r24,Z+14
 5525 1960 9785      		ldd r25,Z+15
 5526 1962 0196      		adiw r24,1
 5527 1964 9787      		std Z+15,r25
 5528 1966 8687      		std Z+14,r24
 5529               	.LM577:
 5530 1968 8089      		ldd r24,Z+16
 5531 196a 9189      		ldd r25,Z+17
 5532 196c A289      		ldd r26,Z+18
 5533 196e B389      		ldd r27,Z+19
 5534 1970 0196      		adiw r24,1
 5535 1972 A11D      		adc r26,__zero_reg__
 5536 1974 B11D      		adc r27,__zero_reg__
 5537 1976 808B      		std Z+16,r24
 5538 1978 918B      		std Z+17,r25
 5539 197a A28B      		std Z+18,r26
 5540 197c B38B      		std Z+19,r27
 5541               	.LM578:
 5542 197e 82A1      		ldd r24,Z+34
 5543 1980 8860      		ori r24,lo8(8)
 5544 1982 82A3      		std Z+34,r24
 5545               	.LM579:
 5546 1984 2685      		ldd r18,Z+14
 5547 1986 3785      		ldd r19,Z+15
 5548 1988 8081      		ld r24,Z
 5549 198a 9181      		ldd r25,Z+1
 5550 198c 2817      		cp r18,r24
 5551 198e 3907      		cpc r19,r25
 5552 1990 00F0      		brlo .L287
 5553               	.LM580:
 5554 1992 1786      		std Z+15,__zero_reg__
 5555 1994 1686      		std Z+14,__zero_reg__
 5556               	.LM581:
 5557 1996 8489      		ldd r24,Z+20
 5558 1998 9589      		ldd r25,Z+21
 5559 199a A689      		ldd r26,Z+22
 5560 199c B789      		ldd r27,Z+23
 5561 199e 0196      		adiw r24,1
 5562 19a0 A11D      		adc r26,__zero_reg__
 5563 19a2 B11D      		adc r27,__zero_reg__
 5564 19a4 848B      		std Z+20,r24
 5565 19a6 958B      		std Z+21,r25
 5566 19a8 A68B      		std Z+22,r26
 5567 19aa B78B      		std Z+23,r27
 5568               	.LM582:
 5569 19ac 82A1      		ldd r24,Z+34
 5570 19ae 8260      		ori r24,lo8(2)
 5571 19b0 82A3      		std Z+34,r24
 5572               	.L287:
 5573 19b2 0895      		ret
 5574               	.LFE99:
 5576               	.global	__vector_16
 5578               	__vector_16:
 5579               	.LFB11:
 5580               	.LM583:
 5581 19b4 1F92      		push __zero_reg__
 5582 19b6 0F92      		push r0
 5583 19b8 0FB6      		in r0,__SREG__
 5584 19ba 0F92      		push r0
 5585 19bc 1124      		clr __zero_reg__
 5586 19be 2F93      		push r18
 5587 19c0 3F93      		push r19
 5588 19c2 4F93      		push r20
 5589 19c4 5F93      		push r21
 5590 19c6 6F93      		push r22
 5591 19c8 7F93      		push r23
 5592 19ca 8F93      		push r24
 5593 19cc 9F93      		push r25
 5594 19ce AF93      		push r26
 5595 19d0 BF93      		push r27
 5596 19d2 EF93      		push r30
 5597 19d4 FF93      		push r31
 5598               	/* prologue: Signal */
 5599               	/* frame size = 0 */
 5600               	.LM584:
 5601 19d6 E091 0000 		lds r30,Timebase
 5602 19da F091 0000 		lds r31,(Timebase)+1
 5603 19de 8281      		ldd r24,Z+2
 5604 19e0 9381      		ldd r25,Z+3
 5605 19e2 86BD      		out 70-32,r24
 5606               	.LM585:
 5607 19e4 0E94 0000 		call Timebase_ISR_Executables
 5608               	/* epilogue start */
 5609               	.LM586:
 5610 19e8 FF91      		pop r31
 5611 19ea EF91      		pop r30
 5612 19ec BF91      		pop r27
 5613 19ee AF91      		pop r26
 5614 19f0 9F91      		pop r25
 5615 19f2 8F91      		pop r24
 5616 19f4 7F91      		pop r23
 5617 19f6 6F91      		pop r22
 5618 19f8 5F91      		pop r21
 5619 19fa 4F91      		pop r20
 5620 19fc 3F91      		pop r19
 5621 19fe 2F91      		pop r18
 5622 1a00 0F90      		pop r0
 5623 1a02 0FBE      		out __SREG__,r0
 5624 1a04 0F90      		pop r0
 5625 1a06 1F90      		pop __zero_reg__
 5626 1a08 1895      		reti
 5627               	.LFE11:
 5629               	.global	Timebase_LP_ISR_Executables
 5631               	Timebase_LP_ISR_Executables:
 5632               	.LFB100:
 5633               	.LM587:
 5634               	/* prologue: function */
 5635               	/* frame size = 0 */
 5636               	/* epilogue start */
 5637               	.LM588:
 5638 1a0a 0895      		ret
 5639               	.LFE100:
 5641               		.data
 5644               	C.1.1794:
 5645 0000 0100      		.word	1
 5646 0002 0800      		.word	8
 5647 0004 4000      		.word	64
 5648 0006 0001      		.word	256
 5649 0008 0004      		.word	1024
 5650               		.comm Timebase_type,73,1
 5651               		.comm Timebase,2,1
 6428               	.Letext0:
DEFINED SYMBOLS
                            *ABS*:00000000 timebase.c
C:\Users\farid\AppData\Local\Temp/ccYy660e.s:2      *ABS*:0000003f __SREG__
C:\Users\farid\AppData\Local\Temp/ccYy660e.s:3      *ABS*:0000003e __SP_H__
C:\Users\farid\AppData\Local\Temp/ccYy660e.s:4      *ABS*:0000003d __SP_L__
C:\Users\farid\AppData\Local\Temp/ccYy660e.s:5      *ABS*:00000034 __CCP__
C:\Users\farid\AppData\Local\Temp/ccYy660e.s:6      *ABS*:00000000 __tmp_reg__
C:\Users\farid\AppData\Local\Temp/ccYy660e.s:7      *ABS*:00000001 __zero_reg__
C:\Users\farid\AppData\Local\Temp/ccYy660e.s:18     .text:00000000 Timebase_Struct_Init
                            *COM*:00000049 Timebase_type
                            *COM*:00000002 Timebase
C:\Users\farid\AppData\Local\Temp/ccYy660e.s:138    .text:00000136 Timebase_Timer_Enable
C:\Users\farid\AppData\Local\Temp/ccYy660e.s:5644   .data:00000000 C.1.1794
C:\Users\farid\AppData\Local\Temp/ccYy660e.s:356    .text:00000258 Timebase_Timer_Disable
C:\Users\farid\AppData\Local\Temp/ccYy660e.s:383    .text:0000026c Timebase_Atomic_Operation_Start
C:\Users\farid\AppData\Local\Temp/ccYy660e.s:401    .text:00000270 Timebase_Atomic_Operation_End
C:\Users\farid\AppData\Local\Temp/ccYy660e.s:419    .text:00000274 Timebase_Timer_Get_SubSecondsShadow
C:\Users\farid\AppData\Local\Temp/ccYy660e.s:437    .text:00000284 Timebase_Timer_Get_SubSecondsUpTime
C:\Users\farid\AppData\Local\Temp/ccYy660e.s:458    .text:0000029a Timebase_Timer_Get_SecondsShadow
C:\Users\farid\AppData\Local\Temp/ccYy660e.s:479    .text:000002b0 Timebase_Timer_Get_SubSeconds
C:\Users\farid\AppData\Local\Temp/ccYy660e.s:497    .text:000002c0 Timebase_Timer_Get_Seconds
C:\Users\farid\AppData\Local\Temp/ccYy660e.s:518    .text:000002d6 Timebase_Timer_Set_SubSeconds
C:\Users\farid\AppData\Local\Temp/ccYy660e.s:536    .text:000002e4 Timebase_Timer_Set_SubSecondsShadow
C:\Users\farid\AppData\Local\Temp/ccYy660e.s:554    .text:000002f2 Timebase_Timer_Set_SubSecondsUpTime
C:\Users\farid\AppData\Local\Temp/ccYy660e.s:574    .text:00000304 Timebase_Timer_Set_Seconds
C:\Users\farid\AppData\Local\Temp/ccYy660e.s:594    .text:00000316 Timebase_Timer_Get_SubSecondsShadow_Securely
C:\Users\farid\AppData\Local\Temp/ccYy660e.s:623    .text:00000330 Timebase_Timer_Get_SubSecondsUpTime_Securely
C:\Users\farid\AppData\Local\Temp/ccYy660e.s:660    .text:00000358 Timebase_Timer_Get_SecondsShadow_Securely
C:\Users\farid\AppData\Local\Temp/ccYy660e.s:697    .text:00000380 Timebase_Timer_Sync_With_Shadow_Variables
C:\Users\farid\AppData\Local\Temp/ccYy660e.s:766    .text:000003c8 Timebase_Timer_Delay_SubSeconds
C:\Users\farid\AppData\Local\Temp/ccYy660e.s:958    .text:000004b6 Timebase_Timer_Await_SubSeconds
C:\Users\farid\AppData\Local\Temp/ccYy660e.s:1112   .text:00000574 Timebase_Timer_Delay_Seconds
C:\Users\farid\AppData\Local\Temp/ccYy660e.s:1210   .text:000005e6 Timebase_Window_Timer_Reset
C:\Users\farid\AppData\Local\Temp/ccYy660e.s:1236   .text:00000602 Timebase_Window_Timer_Start
C:\Users\farid\AppData\Local\Temp/ccYy660e.s:1304   .text:0000063a Timebase_Window_Timer_Get_Interval
C:\Users\farid\AppData\Local\Temp/ccYy660e.s:1420   .text:000006b8 Timebase_Window_Timer_Get_Interval_Reset
C:\Users\farid\AppData\Local\Temp/ccYy660e.s:1460   .text:000006e2 Timebase_DownCounter_SS_Get_Status
C:\Users\farid\AppData\Local\Temp/ccYy660e.s:1494   .text:0000070c Timebase_DownCounter_SS_Set_Status
C:\Users\farid\AppData\Local\Temp/ccYy660e.s:1532   .text:0000073c Timebase_DownCounter_SS_Get_Value
C:\Users\farid\AppData\Local\Temp/ccYy660e.s:1575   .text:00000776 Timebase_DownCounter_SS_Set_Value
C:\Users\farid\AppData\Local\Temp/ccYy660e.s:1610   .text:000007a2 Timebase_DownCounter_SS_Get_EndValueSec
C:\Users\farid\AppData\Local\Temp/ccYy660e.s:1653   .text:000007dc Timebase_DownCounter_SS_Get_EndValueSubSec
C:\Users\farid\AppData\Local\Temp/ccYy660e.s:1696   .text:00000816 Timebase_DownCounter_SS_Set_EndValueSec
C:\Users\farid\AppData\Local\Temp/ccYy660e.s:1731   .text:00000842 Timebase_DownCounter_SS_Set_EndValueSubSec
C:\Users\farid\AppData\Local\Temp/ccYy660e.s:1766   .text:0000086e Timebase_DownCounter_SS_Get_PeriodValue
C:\Users\farid\AppData\Local\Temp/ccYy660e.s:1809   .text:000008a8 Timebase_DownCounter_SS_Set_PeriodValue
C:\Users\farid\AppData\Local\Temp/ccYy660e.s:1867   .text:000008fc Timebase_DownCounter_SS_Get_Period_Flag
C:\Users\farid\AppData\Local\Temp/ccYy660e.s:1900   .text:00000924 Timebase_DownCounter_SS_Set_Period_Flag
C:\Users\farid\AppData\Local\Temp/ccYy660e.s:1934   .text:0000094e Timebase_DownCounter_SS_Clear_Period_Flag
C:\Users\farid\AppData\Local\Temp/ccYy660e.s:1968   .text:00000978 Timebase_DownCounter_SS_Get_ReloadValue
C:\Users\farid\AppData\Local\Temp/ccYy660e.s:2011   .text:000009b2 Timebase_DownCounter_SS_Set_ReloadValue
C:\Users\farid\AppData\Local\Temp/ccYy660e.s:2046   .text:000009de Timebase_DownCounter_SS_Reset
C:\Users\farid\AppData\Local\Temp/ccYy660e.s:2124   .text:00000a28 Timebase_DownCounter_SS_Clear_All_Flags
C:\Users\farid\AppData\Local\Temp/ccYy660e.s:2206   .text:00000a72 Timebase_DownCounter_SS_Start
C:\Users\farid\AppData\Local\Temp/ccYy660e.s:2254   .text:00000aa8 Timebase_DownCounter_SS_Stop
C:\Users\farid\AppData\Local\Temp/ccYy660e.s:2302   .text:00000ade Timebase_DownCounter_SS_Set_Securely
C:\Users\farid\AppData\Local\Temp/ccYy660e.s:2583   .text:00000c7c Timebase_DownCounter_SS_Set_Forcefully
C:\Users\farid\AppData\Local\Temp/ccYy660e.s:2698   .text:00000cfe Timebase_DownCounter_SS_Update
C:\Users\farid\AppData\Local\Temp/ccYy660e.s:2996   .text:00000e64 Timebase_DownCounter_SS_Expired
C:\Users\farid\AppData\Local\Temp/ccYy660e.s:3036   .text:00000e98 Timebase_DownCounter_SS_Expired_Event
C:\Users\farid\AppData\Local\Temp/ccYy660e.s:3136   .text:00000ef2 Timebase_DownCounter_SS_Oneshot_Expired_Event
C:\Users\farid\AppData\Local\Temp/ccYy660e.s:3152   .text:00000ef8 Timebase_DownCounter_SS_Continuous_Expired_Event
C:\Users\farid\AppData\Local\Temp/ccYy660e.s:3270   .text:00000f64 Timebase_DownCounter_SS_Set_Period_Value_Securely
C:\Users\farid\AppData\Local\Temp/ccYy660e.s:3361   .text:00000fd8 Timebase_DownCounter_SS_Get_Remaining_Period_Value
C:\Users\farid\AppData\Local\Temp/ccYy660e.s:3419   .text:00001024 Timebase_DownCounter_SS_Period_Value_Expired
C:\Users\farid\AppData\Local\Temp/ccYy660e.s:3511   .text:000010a0 Timebase_DownCounter_SS_Period_Value_Expired_Event
C:\Users\farid\AppData\Local\Temp/ccYy660e.s:3563   .text:000010e0 Timebase_DownCounter_SS_Update_All
C:\Users\farid\AppData\Local\Temp/ccYy660e.s:3580   .text:000010e8 Timebase_DownCounter_SS_Reset_All
C:\Users\farid\AppData\Local\Temp/ccYy660e.s:3649   .text:00001118 Timebase_DownCounter_Get_Status
C:\Users\farid\AppData\Local\Temp/ccYy660e.s:3681   .text:0000113e Timebase_DownCounter_Set_Status
C:\Users\farid\AppData\Local\Temp/ccYy660e.s:3717   .text:0000116a Timebase_DownCounter_Get_Value
C:\Users\farid\AppData\Local\Temp/ccYy660e.s:3752   .text:00001194 Timebase_DownCounter_Set_Value
C:\Users\farid\AppData\Local\Temp/ccYy660e.s:3785   .text:000011be Timebase_DownCounter_Get_EndValue
C:\Users\farid\AppData\Local\Temp/ccYy660e.s:3826   .text:000011f4 Timebase_DownCounter_Set_EndValue
C:\Users\farid\AppData\Local\Temp/ccYy660e.s:3858   .text:0000121c Timebase_DownCounter_Get_PeriodValue
C:\Users\farid\AppData\Local\Temp/ccYy660e.s:3894   .text:00001248 Timebase_DownCounter_Set_PeriodValue
C:\Users\farid\AppData\Local\Temp/ccYy660e.s:3951   .text:0000129c Timebase_DownCounter_Get_Period_Flag
C:\Users\farid\AppData\Local\Temp/ccYy660e.s:3982   .text:000012c0 Timebase_DownCounter_Set_Period_Flag
C:\Users\farid\AppData\Local\Temp/ccYy660e.s:4014   .text:000012e6 Timebase_DownCounter_Clear_Period_Flag
C:\Users\farid\AppData\Local\Temp/ccYy660e.s:4046   .text:0000130c Timebase_DownCounter_Get_ReloadValue
C:\Users\farid\AppData\Local\Temp/ccYy660e.s:4082   .text:00001338 Timebase_DownCounter_Set_ReloadValue
C:\Users\farid\AppData\Local\Temp/ccYy660e.s:4116   .text:00001364 Timebase_DownCounter_Reset
C:\Users\farid\AppData\Local\Temp/ccYy660e.s:4187   .text:000013aa Timebase_DownCounter_Clear_All_Flags
C:\Users\farid\AppData\Local\Temp/ccYy660e.s:4262   .text:000013f0 Timebase_DownCounter_Start
C:\Users\farid\AppData\Local\Temp/ccYy660e.s:4308   .text:00001422 Timebase_DownCounter_Stop
C:\Users\farid\AppData\Local\Temp/ccYy660e.s:4354   .text:00001454 Timebase_DownCounter_Set_Securely
C:\Users\farid\AppData\Local\Temp/ccYy660e.s:4457   .text:000014c6 Timebase_DownCounter_Set_Forcefully
C:\Users\farid\AppData\Local\Temp/ccYy660e.s:4568   .text:0000154a Timebase_DownCounter_Update
C:\Users\farid\AppData\Local\Temp/ccYy660e.s:4748   .text:00001610 Timebase_DownCounter_Expired
C:\Users\farid\AppData\Local\Temp/ccYy660e.s:4786   .text:00001640 Timebase_DownCounter_Expired_Event
C:\Users\farid\AppData\Local\Temp/ccYy660e.s:4879   .text:00001696 Timebase_DownCounter_Set_Period_Value_Securely
C:\Users\farid\AppData\Local\Temp/ccYy660e.s:4969   .text:00001708 Timebase_DownCounter_Get_Remaining_Period_Value
C:\Users\farid\AppData\Local\Temp/ccYy660e.s:5030   .text:0000175a Timebase_DownCounter_Period_Value_Expired
C:\Users\farid\AppData\Local\Temp/ccYy660e.s:5124   .text:000017da Timebase_DownCounter_Period_Value_Expired_Event
C:\Users\farid\AppData\Local\Temp/ccYy660e.s:5174   .text:00001816 Timebase_DownCounter_Oneshot_Expired_Event
C:\Users\farid\AppData\Local\Temp/ccYy660e.s:5190   .text:0000181c Timebase_DownCounter_Continuous_Expired_Event
C:\Users\farid\AppData\Local\Temp/ccYy660e.s:5314   .text:00001898 Timebase_DownCounter_Update_All
C:\Users\farid\AppData\Local\Temp/ccYy660e.s:5331   .text:000018a0 Timebase_DownCounter_Reset_All
C:\Users\farid\AppData\Local\Temp/ccYy660e.s:5395   .text:000018d0 Timebase_Get_Update_Req_Sts
C:\Users\farid\AppData\Local\Temp/ccYy660e.s:5411   .text:000018dc Timebase_Reset
C:\Users\farid\AppData\Local\Temp/ccYy660e.s:5427   .text:000018e6 Timebase_LP_Reset
C:\Users\farid\AppData\Local\Temp/ccYy660e.s:5439   .text:000018e8 Timebase_Init
C:\Users\farid\AppData\Local\Temp/ccYy660e.s:5466   .text:00001902 Timebase_Main_Loop_Executables
C:\Users\farid\AppData\Local\Temp/ccYy660e.s:5516   .text:00001956 Timebase_ISR_Executables
C:\Users\farid\AppData\Local\Temp/ccYy660e.s:5578   .text:000019b4 __vector_16
C:\Users\farid\AppData\Local\Temp/ccYy660e.s:5631   .text:00001a0a Timebase_LP_ISR_Executables

UNDEFINED SYMBOLS
__divmodsi4
__mulsi3
__do_copy_data
__do_clear_bss
