   1               		.file	"timebase.c"
   2               	__SREG__ = 0x3f
   3               	__SP_H__ = 0x3e
   4               	__SP_L__ = 0x3d
   5               	__CCP__  = 0x34
   6               	__tmp_reg__ = 0
   7               	__zero_reg__ = 1
  15               	.Ltext0:
  16               	.global	Timebase_Struct_Init
  18               	Timebase_Struct_Init:
  19               	.LFB6:
  20               	.LM1:
  21               	/* prologue: function */
  22               	/* frame size = 0 */
  23               	.LM2:
  24 0000 80E0      		ldi r24,lo8(Timebase_type)
  25 0002 90E0      		ldi r25,hi8(Timebase_type)
  26 0004 9093 0000 		sts (Timebase)+1,r25
  27 0008 8093 0000 		sts Timebase,r24
  28               	.LM3:
  29 000c 1092 0000 		sts Timebase_type,__zero_reg__
  30               	.LM4:
  31 0010 8091 0000 		lds r24,Timebase_type
  32 0014 8460      		ori r24,lo8(4)
  33 0016 8093 0000 		sts Timebase_type,r24
  34               	.LM5:
  35 001a 8091 0000 		lds r24,Timebase_type
  36 001e 8770      		andi r24,lo8(7)
  37 0020 8093 0000 		sts Timebase_type,r24
  38               	.LM6:
  39 0024 81E0      		ldi r24,lo8(1)
  40 0026 90E0      		ldi r25,hi8(1)
  41 0028 9093 0000 		sts (Timebase_type+1)+1,r25
  42 002c 8093 0000 		sts Timebase_type+1,r24
  43               	.LM7:
  44 0030 1092 0000 		sts Timebase_type+3,__zero_reg__
  45               	.LM8:
  46 0034 1092 0000 		sts (Timebase_type+8)+1,__zero_reg__
  47 0038 1092 0000 		sts Timebase_type+8,__zero_reg__
  48               	.LM9:
  49 003c 1092 0000 		sts Timebase_type+10,__zero_reg__
  50 0040 1092 0000 		sts (Timebase_type+10)+1,__zero_reg__
  51 0044 1092 0000 		sts (Timebase_type+10)+2,__zero_reg__
  52 0048 1092 0000 		sts (Timebase_type+10)+3,__zero_reg__
  53               	.LM10:
  54 004c 1092 0000 		sts Timebase_type+4,__zero_reg__
  55 0050 1092 0000 		sts (Timebase_type+4)+1,__zero_reg__
  56 0054 1092 0000 		sts (Timebase_type+4)+2,__zero_reg__
  57 0058 1092 0000 		sts (Timebase_type+4)+3,__zero_reg__
  58               	.LM11:
  59 005c 1092 0000 		sts Timebase_type+14,__zero_reg__
  60 0060 1092 0000 		sts (Timebase_type+14)+1,__zero_reg__
  61 0064 1092 0000 		sts (Timebase_type+14)+2,__zero_reg__
  62 0068 1092 0000 		sts (Timebase_type+14)+3,__zero_reg__
  63               	.LM12:
  64 006c 1092 0000 		sts Timebase_type+18,__zero_reg__
  65 0070 1092 0000 		sts (Timebase_type+18)+1,__zero_reg__
  66 0074 1092 0000 		sts (Timebase_type+18)+2,__zero_reg__
  67 0078 1092 0000 		sts (Timebase_type+18)+3,__zero_reg__
  68               	.LM13:
  69 007c 1092 0000 		sts Timebase_type+22,__zero_reg__
  70               	.LM14:
  71 0080 1092 0000 		sts Timebase_type+23,__zero_reg__
  72               	.LBB276:
  73               	.LM15:
  74 0084 1092 0000 		sts Timebase_type+24,__zero_reg__
  75               	.LM16:
  76 0088 1092 0000 		sts Timebase_type+25,__zero_reg__
  77 008c 1092 0000 		sts (Timebase_type+25)+1,__zero_reg__
  78 0090 1092 0000 		sts (Timebase_type+25)+2,__zero_reg__
  79 0094 1092 0000 		sts (Timebase_type+25)+3,__zero_reg__
  80               	.LM17:
  81 0098 1092 0000 		sts Timebase_type+29,__zero_reg__
  82 009c 1092 0000 		sts (Timebase_type+29)+1,__zero_reg__
  83 00a0 1092 0000 		sts (Timebase_type+29)+2,__zero_reg__
  84 00a4 1092 0000 		sts (Timebase_type+29)+3,__zero_reg__
  85               	.LM18:
  86 00a8 1092 0000 		sts Timebase_type+33,__zero_reg__
  87 00ac 1092 0000 		sts (Timebase_type+33)+1,__zero_reg__
  88 00b0 1092 0000 		sts (Timebase_type+33)+2,__zero_reg__
  89 00b4 1092 0000 		sts (Timebase_type+33)+3,__zero_reg__
  90               	.LM19:
  91 00b8 1092 0000 		sts Timebase_type+37,__zero_reg__
  92 00bc 1092 0000 		sts (Timebase_type+37)+1,__zero_reg__
  93 00c0 1092 0000 		sts (Timebase_type+37)+2,__zero_reg__
  94 00c4 1092 0000 		sts (Timebase_type+37)+3,__zero_reg__
  95               	.LM20:
  96 00c8 1092 0000 		sts Timebase_type+41,__zero_reg__
  97 00cc 1092 0000 		sts (Timebase_type+41)+1,__zero_reg__
  98 00d0 1092 0000 		sts (Timebase_type+41)+2,__zero_reg__
  99 00d4 1092 0000 		sts (Timebase_type+41)+3,__zero_reg__
 100               	.LBE276:
 101               	.LBB277:
 102               	.LM21:
 103 00d8 1092 0000 		sts Timebase_type+45,__zero_reg__
 104               	.LM22:
 105 00dc 1092 0000 		sts Timebase_type+46,__zero_reg__
 106 00e0 1092 0000 		sts (Timebase_type+46)+1,__zero_reg__
 107 00e4 1092 0000 		sts (Timebase_type+46)+2,__zero_reg__
 108 00e8 1092 0000 		sts (Timebase_type+46)+3,__zero_reg__
 109               	.LM23:
 110 00ec 1092 0000 		sts Timebase_type+50,__zero_reg__
 111 00f0 1092 0000 		sts (Timebase_type+50)+1,__zero_reg__
 112 00f4 1092 0000 		sts (Timebase_type+50)+2,__zero_reg__
 113 00f8 1092 0000 		sts (Timebase_type+50)+3,__zero_reg__
 114               	.LM24:
 115 00fc 1092 0000 		sts Timebase_type+54,__zero_reg__
 116 0100 1092 0000 		sts (Timebase_type+54)+1,__zero_reg__
 117 0104 1092 0000 		sts (Timebase_type+54)+2,__zero_reg__
 118 0108 1092 0000 		sts (Timebase_type+54)+3,__zero_reg__
 119               	/* epilogue start */
 120               	.LBE277:
 121               	.LM25:
 122 010c 0895      		ret
 123               	.LFE6:
 125               	.global	Timebase_Timer_Config
 127               	Timebase_Timer_Config:
 128               	.LFB7:
 129               	.LM26:
 130               	.LVL0:
 131 010e 7F92      		push r7
 132 0110 8F92      		push r8
 133 0112 9F92      		push r9
 134 0114 AF92      		push r10
 135 0116 BF92      		push r11
 136 0118 CF92      		push r12
 137 011a DF92      		push r13
 138 011c EF92      		push r14
 139 011e FF92      		push r15
 140 0120 0F93      		push r16
 141 0122 1F93      		push r17
 142 0124 DF93      		push r29
 143 0126 CF93      		push r28
 144 0128 CDB7      		in r28,__SP_L__
 145 012a DEB7      		in r29,__SP_H__
 146 012c 2A97      		sbiw r28,10
 147 012e 0FB6      		in __tmp_reg__,__SREG__
 148 0130 F894      		cli
 149 0132 DEBF      		out __SP_H__,r29
 150 0134 0FBE      		out __SREG__,__tmp_reg__
 151 0136 CDBF      		out __SP_L__,r28
 152               	/* prologue: function */
 153               	/* frame size = 10 */
 154 0138 8C01      		movw r16,r24
 155               	.LM27:
 156 013a C090 0000 		lds r12,Timebase
 157 013e D090 0000 		lds r13,(Timebase)+1
 158 0142 F601      		movw r30,r12
 159 0144 8081      		ld r24,Z
 160               	.LVL1:
 161 0146 80FF      		sbrs r24,0
 162 0148 00C0      		rjmp .L4
 163               	.LBB278:
 164               	.LM28:
 165 014a 0130      		cpi r16,1
 166 014c 1105      		cpc r17,__zero_reg__
 167 014e 01F4      		brne .L5
 168 0150 96E0      		ldi r25,lo8(6)
 169               	.LVL2:
 170 0152 00C0      		rjmp .L6
 171               	.LVL3:
 172               	.L5:
 173               	.LM29:
 174 0154 0230      		cpi r16,2
 175 0156 1105      		cpc r17,__zero_reg__
 176 0158 01F4      		brne .L7
 177 015a 95E0      		ldi r25,lo8(5)
 178               	.LVL4:
 179 015c 00C0      		rjmp .L6
 180               	.LVL5:
 181               	.L7:
 182               	.LM30:
 183 015e 0430      		cpi r16,4
 184 0160 1105      		cpc r17,__zero_reg__
 185 0162 01F4      		brne .L8
 186 0164 94E0      		ldi r25,lo8(4)
 187               	.LVL6:
 188 0166 00C0      		rjmp .L6
 189               	.LVL7:
 190               	.L8:
 191               	.LM31:
 192 0168 0830      		cpi r16,8
 193 016a 1105      		cpc r17,__zero_reg__
 194 016c 01F4      		brne .L9
 195 016e 93E0      		ldi r25,lo8(3)
 196               	.LVL8:
 197 0170 00C0      		rjmp .L6
 198               	.LVL9:
 199               	.L9:
 200               	.LM32:
 201 0172 0031      		cpi r16,16
 202 0174 1105      		cpc r17,__zero_reg__
 203 0176 01F4      		brne .L10
 204 0178 92E0      		ldi r25,lo8(2)
 205               	.LVL10:
 206 017a 00C0      		rjmp .L6
 207               	.LVL11:
 208               	.L10:
 209 017c 90E0      		ldi r25,lo8(0)
 210               	.LVL12:
 211 017e 0032      		cpi r16,32
 212 0180 1105      		cpc r17,__zero_reg__
 213 0182 01F4      		brne .L6
 214 0184 91E0      		ldi r25,lo8(1)
 215               	.L6:
 216               	.LM33:
 217               	/* #APP */
 218               	 ;  169 "timebase.c" 1
 219 0186 F894      		cli
 220               	 ;  0 "" 2
 221               	.LM34:
 222               	/* #NOAPP */
 223 0188 84B7      		in r24,84-32
 224 018a 877F      		andi r24,lo8(-9)
 225 018c 84BF      		out 84-32,r24
 226               	.LM35:
 227 018e 8091 6000 		lds r24,96
 228 0192 8068      		ori r24,lo8(-128)
 229 0194 8093 6000 		sts 96,r24
 230               	.LM36:
 231 0198 8091 6000 		lds r24,96
 232 019c 8861      		ori r24,lo8(24)
 233 019e 8093 6000 		sts 96,r24
 234               	.LM37:
 235 01a2 9064      		ori r25,lo8(64)
 236 01a4 9093 6000 		sts 96,r25
 237               	.LM38:
 238               	/* #APP */
 239               	 ;  174 "timebase.c" 1
 240 01a8 7894      		sei
 241               	 ;  0 "" 2
 242               	/* #NOAPP */
 243 01aa 00C0      		rjmp .L12
 244               	.LVL13:
 245               	.L4:
 246               	.LBE278:
 247               	.LM39:
 248 01ac 81FD      		sbrc r24,1
 249 01ae 00C0      		rjmp .L12
 250               	.LM40:
 251 01b0 82FF      		sbrs r24,2
 252 01b2 00C0      		rjmp .L12
 253               	.LBB279:
 254               	.LM41:
 255 01b4 DE01      		movw r26,r28
 256 01b6 1196      		adiw r26,1
 257 01b8 E0E0      		ldi r30,lo8(C.2.1342)
 258 01ba F0E0      		ldi r31,hi8(C.2.1342)
 259 01bc 8AE0      		ldi r24,lo8(10)
 260               	.L13:
 261 01be 0190      		ld r0,Z+
 262 01c0 0D92      		st X+,r0
 263 01c2 8150      		subi r24,lo8(-(-1))
 264 01c4 01F4      		brne .L13
 265               	.LM42:
 266 01c6 9801      		movw r18,r16
 267 01c8 40E0      		ldi r20,lo8(0)
 268 01ca 50E0      		ldi r21,hi8(0)
 269               	.LVL14:
 270 01cc 60E0      		ldi r22,lo8(8000000)
 271 01ce 72E1      		ldi r23,hi8(8000000)
 272 01d0 8AE7      		ldi r24,hlo8(8000000)
 273 01d2 90E0      		ldi r25,hhi8(8000000)
 274 01d4 0E94 0000 		call __divmodsi4
 275 01d8 722E      		mov r7,r18
 276 01da 832E      		mov r8,r19
 277 01dc 942E      		mov r9,r20
 278               	.LVL15:
 279 01de E52E      		mov r14,r21
 280 01e0 5E01      		movw r10,r28
 281 01e2 0894      		sec
 282 01e4 A11C      		adc r10,__zero_reg__
 283 01e6 B11C      		adc r11,__zero_reg__
 284 01e8 C901      		movw r24,r18
 285 01ea DA01      		movw r26,r20
 286 01ec 9C01      		movw r18,r24
 287 01ee AD01      		movw r20,r26
 288               	.LVL16:
 289 01f0 FF24      		clr r15
 290               	.LVL17:
 291 01f2 00C0      		rjmp .L14
 292               	.LVL18:
 293               	.L16:
 294               	.LM43:
 295 01f4 F501      		movw r30,r10
 296 01f6 2191      		ld r18,Z+
 297 01f8 3191      		ld r19,Z+
 298               	.LVL19:
 299 01fa 5F01      		movw r10,r30
 300 01fc 40E0      		ldi r20,lo8(0)
 301 01fe 50E0      		ldi r21,hi8(0)
 302 0200 672D      		mov r22,r7
 303 0202 782D      		mov r23,r8
 304 0204 892D      		mov r24,r9
 305               	.LVL20:
 306 0206 9E2D      		mov r25,r14
 307 0208 0E94 0000 		call __divmodsi4
 308 020c C901      		movw r24,r18
 309 020e DA01      		movw r26,r20
 310 0210 9C01      		movw r18,r24
 311 0212 AD01      		movw r20,r26
 312               	.LVL21:
 313               	.LM44:
 314 0214 F394      		inc r15
 315               	.LM45:
 316 0216 F5E0      		ldi r31,lo8(5)
 317 0218 FF16      		cp r15,r31
 318 021a 01F0      		breq .L15
 319               	.LVL22:
 320               	.L14:
 321               	.LM46:
 322 021c 2F3F      		cpi r18,lo8(255)
 323 021e 3105      		cpc r19,__zero_reg__
 324 0220 4105      		cpc r20,__zero_reg__
 325 0222 5105      		cpc r21,__zero_reg__
 326 0224 01F0      		breq .+2
 327 0226 04F4      		brge .L16
 328               	.L15:
 329               	.LM47:
 330 0228 8F2D      		mov r24,r15
 331 022a 8150      		subi r24,lo8(-(-1))
 332               	.LVL23:
 333               	.LM48:
 334 022c 14BC      		out 68-32,__zero_reg__
 335               	.LM49:
 336 022e 15BC      		out 69-32,__zero_reg__
 337               	.LM50:
 338 0230 1092 6E00 		sts 110,__zero_reg__
 339               	.LM51:
 340 0234 15BA      		out 53-32,__zero_reg__
 341               	.LM52:
 342 0236 17BC      		out 71-32,__zero_reg__
 343               	.LM53:
 344 0238 18BC      		out 72-32,__zero_reg__
 345               	.LM54:
 346 023a 16BC      		out 70-32,__zero_reg__
 347               	.LM55:
 348 023c 17BC      		out 71-32,__zero_reg__
 349               	.LM56:
 350 023e 8823      		tst r24
 351 0240 01F4      		brne .L17
 352               	.LM57:
 353 0242 81E0      		ldi r24,lo8(1)
 354               	.LVL24:
 355 0244 00C0      		rjmp .L24
 356               	.LVL25:
 357               	.L17:
 358               	.LM58:
 359 0246 8130      		cpi r24,lo8(1)
 360 0248 01F4      		brne .L19
 361               	.LM59:
 362 024a 82E0      		ldi r24,lo8(2)
 363               	.LVL26:
 364 024c 00C0      		rjmp .L24
 365               	.LVL27:
 366               	.L19:
 367               	.LM60:
 368 024e 8230      		cpi r24,lo8(2)
 369 0250 01F4      		brne .L20
 370               	.LM61:
 371 0252 83E0      		ldi r24,lo8(3)
 372               	.LVL28:
 373 0254 00C0      		rjmp .L24
 374               	.LVL29:
 375               	.L20:
 376               	.LM62:
 377 0256 8330      		cpi r24,lo8(3)
 378 0258 01F4      		brne .L21
 379               	.LM63:
 380 025a 84E0      		ldi r24,lo8(4)
 381               	.LVL30:
 382 025c 00C0      		rjmp .L24
 383               	.LVL31:
 384               	.L21:
 385               	.LM64:
 386 025e 8430      		cpi r24,lo8(4)
 387 0260 01F4      		brne .L18
 388               	.LM65:
 389 0262 85E0      		ldi r24,lo8(5)
 390               	.LVL32:
 391               	.L24:
 392 0264 85BD      		out 69-32,r24
 393               	.LVL33:
 394               	.L18:
 395               	.LM66:
 396 0266 822F      		mov r24,r18
 397               	.LVL34:
 398 0268 8095      		com r24
 399 026a F601      		movw r30,r12
 400 026c 8383      		std Z+3,r24
 401               	.LM67:
 402 026e 8381      		ldd r24,Z+3
 403 0270 86BD      		out 70-32,r24
 404               	.LM68:
 405 0272 81E0      		ldi r24,lo8(1)
 406 0274 8093 6E00 		sts 110,r24
 407               	.LM69:
 408               	/* #APP */
 409               	 ;  222 "timebase.c" 1
 410 0278 7894      		sei
 411               	 ;  0 "" 2
 412               	.LVL35:
 413               	/* #NOAPP */
 414               	.L12:
 415               	.LBE279:
 416               	.LM70:
 417 027a F601      		movw r30,r12
 418 027c 1283      		std Z+2,r17
 419 027e 0183      		std Z+1,r16
 420               	/* epilogue start */
 421               	.LM71:
 422 0280 2A96      		adiw r28,10
 423 0282 0FB6      		in __tmp_reg__,__SREG__
 424 0284 F894      		cli
 425 0286 DEBF      		out __SP_H__,r29
 426 0288 0FBE      		out __SREG__,__tmp_reg__
 427 028a CDBF      		out __SP_L__,r28
 428 028c CF91      		pop r28
 429 028e DF91      		pop r29
 430 0290 1F91      		pop r17
 431 0292 0F91      		pop r16
 432               	.LVL36:
 433 0294 FF90      		pop r15
 434 0296 EF90      		pop r14
 435 0298 DF90      		pop r13
 436 029a CF90      		pop r12
 437 029c BF90      		pop r11
 438 029e AF90      		pop r10
 439 02a0 9F90      		pop r9
 440 02a2 8F90      		pop r8
 441 02a4 7F90      		pop r7
 442 02a6 0895      		ret
 443               	.LFE7:
 445               	.global	Timebase_Token_Executing
 447               	Timebase_Token_Executing:
 448               	.LFB8:
 449               	.LM72:
 450               	/* prologue: function */
 451               	/* frame size = 0 */
 452               	.LM73:
 453 02a8 E091 0000 		lds r30,Timebase
 454 02ac F091 0000 		lds r31,(Timebase)+1
 455 02b0 8789      		ldd r24,Z+23
 456               	/* epilogue start */
 457               	.LM74:
 458 02b2 0895      		ret
 459               	.LFE8:
 461               	.global	Timebase_Token_Add
 463               	Timebase_Token_Add:
 464               	.LFB9:
 465               	.LM75:
 466               	/* prologue: function */
 467               	/* frame size = 0 */
 468               	.LBB280:
 469               	.LBB281:
 470               	.LM76:
 471 02b4 E091 0000 		lds r30,Timebase
 472 02b8 F091 0000 		lds r31,(Timebase)+1
 473 02bc 8789      		ldd r24,Z+23
 474               	.LBE281:
 475               	.LBE280:
 476               	.LM77:
 477 02be 8F33      		cpi r24,lo8(63)
 478 02c0 00F4      		brsh .L29
 479               	.LM78:
 480 02c2 8789      		ldd r24,Z+23
 481 02c4 8F5F      		subi r24,lo8(-(1))
 482 02c6 878B      		std Z+23,r24
 483               	.L29:
 484 02c8 0895      		ret
 485               	.LFE9:
 487               	.global	Timebase_Token_Remove
 489               	Timebase_Token_Remove:
 490               	.LFB10:
 491               	.LM79:
 492               	/* prologue: function */
 493               	/* frame size = 0 */
 494               	.LBB282:
 495               	.LBB283:
 496               	.LM80:
 497 02ca E091 0000 		lds r30,Timebase
 498 02ce F091 0000 		lds r31,(Timebase)+1
 499 02d2 8789      		ldd r24,Z+23
 500               	.LBE283:
 501               	.LBE282:
 502               	.LM81:
 503 02d4 8823      		tst r24
 504 02d6 01F0      		breq .L32
 505               	.LM82:
 506 02d8 8789      		ldd r24,Z+23
 507 02da 8150      		subi r24,lo8(-(-1))
 508 02dc 878B      		std Z+23,r24
 509               	.L32:
 510 02de 0895      		ret
 511               	.LFE10:
 513               	.global	Timebase_Token_Remove_All
 515               	Timebase_Token_Remove_All:
 516               	.LFB11:
 517               	.LM83:
 518               	/* prologue: function */
 519               	/* frame size = 0 */
 520               	.LM84:
 521 02e0 E091 0000 		lds r30,Timebase
 522 02e4 F091 0000 		lds r31,(Timebase)+1
 523 02e8 178A      		std Z+23,__zero_reg__
 524               	/* epilogue start */
 525               	.LM85:
 526 02ea 0895      		ret
 527               	.LFE11:
 529               	.global	Timebase_Timer_Get_SubSeconds
 531               	Timebase_Timer_Get_SubSeconds:
 532               	.LFB12:
 533               	.LM86:
 534               	/* prologue: function */
 535               	/* frame size = 0 */
 536               	.LM87:
 537 02ec E091 0000 		lds r30,Timebase
 538 02f0 F091 0000 		lds r31,(Timebase)+1
 539 02f4 2085      		ldd r18,Z+8
 540 02f6 3185      		ldd r19,Z+9
 541               	.LM88:
 542 02f8 C901      		movw r24,r18
 543               	/* epilogue start */
 544 02fa 0895      		ret
 545               	.LFE12:
 547               	.global	Timebase_Timer_Get_Seconds
 549               	Timebase_Timer_Get_Seconds:
 550               	.LFB13:
 551               	.LM89:
 552               	/* prologue: function */
 553               	/* frame size = 0 */
 554               	.LM90:
 555 02fc E091 0000 		lds r30,Timebase
 556 0300 F091 0000 		lds r31,(Timebase)+1
 557 0304 2285      		ldd r18,Z+10
 558 0306 3385      		ldd r19,Z+11
 559 0308 4485      		ldd r20,Z+12
 560 030a 5585      		ldd r21,Z+13
 561               	.LM91:
 562 030c B901      		movw r22,r18
 563 030e CA01      		movw r24,r20
 564               	/* epilogue start */
 565 0310 0895      		ret
 566               	.LFE13:
 568               	.global	Timebase_Timer_Set_SubSeconds
 570               	Timebase_Timer_Set_SubSeconds:
 571               	.LFB14:
 572               	.LM92:
 573               	.LVL37:
 574               	/* prologue: function */
 575               	/* frame size = 0 */
 576               	.LM93:
 577 0312 E091 0000 		lds r30,Timebase
 578 0316 F091 0000 		lds r31,(Timebase)+1
 579 031a 9187      		std Z+9,r25
 580 031c 8087      		std Z+8,r24
 581               	/* epilogue start */
 582               	.LM94:
 583 031e 0895      		ret
 584               	.LFE14:
 586               	.global	Timebase_Timer_Set_Seconds
 588               	Timebase_Timer_Set_Seconds:
 589               	.LFB15:
 590               	.LM95:
 591               	.LVL38:
 592               	/* prologue: function */
 593               	/* frame size = 0 */
 594               	.LM96:
 595 0320 E091 0000 		lds r30,Timebase
 596 0324 F091 0000 		lds r31,(Timebase)+1
 597 0328 6287      		std Z+10,r22
 598 032a 7387      		std Z+11,r23
 599 032c 8487      		std Z+12,r24
 600 032e 9587      		std Z+13,r25
 601               	/* epilogue start */
 602               	.LM97:
 603 0330 0895      		ret
 604               	.LFE15:
 606               	.global	Timebase_Timer_Delay_SubSeconds
 608               	Timebase_Timer_Delay_SubSeconds:
 609               	.LFB16:
 610               	.LM98:
 611               	.LVL39:
 612               	/* prologue: function */
 613               	/* frame size = 0 */
 614 0332 9C01      		movw r18,r24
 615               	.LBB284:
 616               	.LBB285:
 617               	.LBB286:
 618               	.LBB287:
 619               	.LM99:
 620 0334 E091 0000 		lds r30,Timebase
 621 0338 F091 0000 		lds r31,(Timebase)+1
 622 033c 8789      		ldd r24,Z+23
 623               	.LVL40:
 624               	.LBE287:
 625               	.LBE286:
 626               	.LM100:
 627 033e 8F33      		cpi r24,lo8(63)
 628 0340 00F4      		brsh .L44
 629               	.LM101:
 630 0342 8789      		ldd r24,Z+23
 631 0344 8F5F      		subi r24,lo8(-(1))
 632 0346 878B      		std Z+23,r24
 633               	.L44:
 634               	.LBE285:
 635               	.LBE284:
 636               	.LBB288:
 637               	.LBB289:
 638               	.LM102:
 639 0348 8085      		ldd r24,Z+8
 640 034a 9185      		ldd r25,Z+9
 641               	.LBE289:
 642               	.LBE288:
 643               	.LM103:
 644 034c A0E0      		ldi r26,lo8(0)
 645 034e B0E0      		ldi r27,hi8(0)
 646               	.LVL41:
 647               	.LM104:
 648 0350 40E0      		ldi r20,lo8(0)
 649 0352 50E0      		ldi r21,hi8(0)
 650               	.LVL42:
 651 0354 280F      		add r18,r24
 652 0356 391F      		adc r19,r25
 653 0358 4A1F      		adc r20,r26
 654 035a 5B1F      		adc r21,r27
 655               	.LVL43:
 656               	.L45:
 657               	.LBB290:
 658               	.LBB291:
 659               	.LM105:
 660 035c 8085      		ldd r24,Z+8
 661 035e 9185      		ldd r25,Z+9
 662               	.LBE291:
 663               	.LBE290:
 664               	.LM106:
 665 0360 A0E0      		ldi r26,lo8(0)
 666 0362 B0E0      		ldi r27,hi8(0)
 667 0364 8217      		cp r24,r18
 668 0366 9307      		cpc r25,r19
 669 0368 A407      		cpc r26,r20
 670 036a B507      		cpc r27,r21
 671 036c 04F0      		brlt .L45
 672               	.LBB292:
 673               	.LBB293:
 674               	.LBB294:
 675               	.LBB295:
 676               	.LM107:
 677 036e 8789      		ldd r24,Z+23
 678               	.LBE295:
 679               	.LBE294:
 680               	.LM108:
 681 0370 8823      		tst r24
 682 0372 01F0      		breq .L47
 683               	.LM109:
 684 0374 8789      		ldd r24,Z+23
 685 0376 8150      		subi r24,lo8(-(-1))
 686 0378 878B      		std Z+23,r24
 687               	.L47:
 688 037a 0895      		ret
 689               	.LBE293:
 690               	.LBE292:
 691               	.LFE16:
 693               	.global	Timebase_Timer_Await_SubSeconds
 695               	Timebase_Timer_Await_SubSeconds:
 696               	.LFB17:
 697               	.LM110:
 698               	.LVL44:
 699               	/* prologue: function */
 700               	/* frame size = 0 */
 701 037c BC01      		movw r22,r24
 702               	.LBB296:
 703               	.LBB297:
 704               	.LM111:
 705 037e E091 0000 		lds r30,Timebase
 706 0382 F091 0000 		lds r31,(Timebase)+1
 707               	.LVL45:
 708               	.L50:
 709 0386 8085      		ldd r24,Z+8
 710 0388 9185      		ldd r25,Z+9
 711               	.LBE297:
 712               	.LBE296:
 713               	.LM112:
 714 038a 2481      		ldd r18,Z+4
 715 038c 3581      		ldd r19,Z+5
 716 038e 4681      		ldd r20,Z+6
 717 0390 5781      		ldd r21,Z+7
 718 0392 A0E0      		ldi r26,lo8(0)
 719 0394 B0E0      		ldi r27,hi8(0)
 720 0396 8217      		cp r24,r18
 721 0398 9307      		cpc r25,r19
 722 039a A407      		cpc r26,r20
 723 039c B507      		cpc r27,r21
 724 039e 01F4      		brne .L50
 725               	.LBB298:
 726               	.LBB299:
 727               	.LM113:
 728 03a0 8085      		ldd r24,Z+8
 729 03a2 9185      		ldd r25,Z+9
 730               	.LBE299:
 731               	.LBE298:
 732               	.LM114:
 733 03a4 860F      		add r24,r22
 734 03a6 971F      		adc r25,r23
 735 03a8 A0E0      		ldi r26,lo8(0)
 736 03aa B0E0      		ldi r27,hi8(0)
 737 03ac 8483      		std Z+4,r24
 738 03ae 9583      		std Z+5,r25
 739 03b0 A683      		std Z+6,r26
 740 03b2 B783      		std Z+7,r27
 741               	.LM115:
 742 03b4 2481      		ldd r18,Z+4
 743 03b6 3581      		ldd r19,Z+5
 744 03b8 4681      		ldd r20,Z+6
 745 03ba 5781      		ldd r21,Z+7
 746 03bc 8181      		ldd r24,Z+1
 747 03be 9281      		ldd r25,Z+2
 748 03c0 A0E0      		ldi r26,lo8(0)
 749 03c2 B0E0      		ldi r27,hi8(0)
 750 03c4 2817      		cp r18,r24
 751 03c6 3907      		cpc r19,r25
 752 03c8 4A07      		cpc r20,r26
 753 03ca 5B07      		cpc r21,r27
 754 03cc 04F0      		brlt .L52
 755               	.LM116:
 756 03ce 2481      		ldd r18,Z+4
 757 03d0 3581      		ldd r19,Z+5
 758 03d2 4681      		ldd r20,Z+6
 759 03d4 5781      		ldd r21,Z+7
 760 03d6 8181      		ldd r24,Z+1
 761 03d8 9281      		ldd r25,Z+2
 762 03da A0E0      		ldi r26,lo8(0)
 763 03dc B0E0      		ldi r27,hi8(0)
 764 03de 281B      		sub r18,r24
 765 03e0 390B      		sbc r19,r25
 766 03e2 4A0B      		sbc r20,r26
 767 03e4 5B0B      		sbc r21,r27
 768 03e6 2483      		std Z+4,r18
 769 03e8 3583      		std Z+5,r19
 770 03ea 4683      		std Z+6,r20
 771 03ec 5783      		std Z+7,r21
 772               	.L52:
 773 03ee 0895      		ret
 774               	.LFE17:
 776               	.global	Timebase_Timer_Delay_Seconds
 778               	Timebase_Timer_Delay_Seconds:
 779               	.LFB18:
 780               	.LM117:
 781               	.LVL46:
 782 03f0 EF92      		push r14
 783 03f2 FF92      		push r15
 784 03f4 0F93      		push r16
 785 03f6 1F93      		push r17
 786               	/* prologue: function */
 787               	/* frame size = 0 */
 788               	.LBB300:
 789               	.LBB301:
 790               	.LM118:
 791 03f8 E091 0000 		lds r30,Timebase
 792 03fc F091 0000 		lds r31,(Timebase)+1
 793 0400 2285      		ldd r18,Z+10
 794 0402 3385      		ldd r19,Z+11
 795 0404 4485      		ldd r20,Z+12
 796 0406 5585      		ldd r21,Z+13
 797               	.LBE301:
 798               	.LBE300:
 799               	.LM119:
 800 0408 7C01      		movw r14,r24
 801               	.LVL47:
 802 040a 00E0      		ldi r16,lo8(0)
 803 040c 10E0      		ldi r17,hi8(0)
 804               	.LVL48:
 805 040e E20E      		add r14,r18
 806 0410 F31E      		adc r15,r19
 807 0412 041F      		adc r16,r20
 808 0414 151F      		adc r17,r21
 809               	.LVL49:
 810               	.L55:
 811               	.LBB302:
 812               	.LBB303:
 813               	.LM120:
 814 0416 8285      		ldd r24,Z+10
 815 0418 9385      		ldd r25,Z+11
 816 041a A485      		ldd r26,Z+12
 817 041c B585      		ldd r27,Z+13
 818               	.LVL50:
 819               	.LBE303:
 820               	.LBE302:
 821               	.LM121:
 822 041e 8E15      		cp r24,r14
 823 0420 9F05      		cpc r25,r15
 824 0422 A007      		cpc r26,r16
 825 0424 B107      		cpc r27,r17
 826 0426 04F0      		brlt .L55
 827               	/* epilogue start */
 828               	.LM122:
 829 0428 1F91      		pop r17
 830 042a 0F91      		pop r16
 831               	.LVL51:
 832 042c FF90      		pop r15
 833 042e EF90      		pop r14
 834               	.LVL52:
 835 0430 0895      		ret
 836               	.LFE18:
 838               	.global	Timebase_Window_Timer_Reset
 840               	Timebase_Window_Timer_Reset:
 841               	.LFB19:
 842               	.LM123:
 843               	/* prologue: function */
 844               	/* frame size = 0 */
 845               	.LM124:
 846 0432 E091 0000 		lds r30,Timebase
 847 0436 F091 0000 		lds r31,(Timebase)+1
 848 043a 1686      		std Z+14,__zero_reg__
 849 043c 1786      		std Z+15,__zero_reg__
 850 043e 108A      		std Z+16,__zero_reg__
 851 0440 118A      		std Z+17,__zero_reg__
 852               	.LM125:
 853 0442 128A      		std Z+18,__zero_reg__
 854 0444 138A      		std Z+19,__zero_reg__
 855 0446 148A      		std Z+20,__zero_reg__
 856 0448 158A      		std Z+21,__zero_reg__
 857               	.LM126:
 858 044a 168A      		std Z+22,__zero_reg__
 859               	/* epilogue start */
 860               	.LM127:
 861 044c 0895      		ret
 862               	.LFE19:
 864               	.global	Timebase_Window_Timer_Start
 866               	Timebase_Window_Timer_Start:
 867               	.LFB20:
 868               	.LM128:
 869               	/* prologue: function */
 870               	/* frame size = 0 */
 871               	.LM129:
 872 044e E091 0000 		lds r30,Timebase
 873 0452 F091 0000 		lds r31,(Timebase)+1
 874 0456 8689      		ldd r24,Z+22
 875 0458 8823      		tst r24
 876 045a 01F4      		brne .L62
 877               	.LBB304:
 878               	.LBB305:
 879               	.LM130:
 880 045c 8285      		ldd r24,Z+10
 881 045e 9385      		ldd r25,Z+11
 882 0460 A485      		ldd r26,Z+12
 883 0462 B585      		ldd r27,Z+13
 884               	.LBE305:
 885               	.LBE304:
 886               	.LM131:
 887 0464 8687      		std Z+14,r24
 888 0466 9787      		std Z+15,r25
 889 0468 A08B      		std Z+16,r26
 890 046a B18B      		std Z+17,r27
 891               	.LBB306:
 892               	.LBB307:
 893               	.LM132:
 894 046c 8085      		ldd r24,Z+8
 895 046e 9185      		ldd r25,Z+9
 896               	.LBE307:
 897               	.LBE306:
 898               	.LM133:
 899 0470 A0E0      		ldi r26,lo8(0)
 900 0472 B0E0      		ldi r27,hi8(0)
 901 0474 828B      		std Z+18,r24
 902 0476 938B      		std Z+19,r25
 903 0478 A48B      		std Z+20,r26
 904 047a B58B      		std Z+21,r27
 905               	.LM134:
 906 047c 81E0      		ldi r24,lo8(1)
 907 047e 868B      		std Z+22,r24
 908               	.L62:
 909 0480 0895      		ret
 910               	.LFE20:
 912               	.global	Timebase_Window_Timer_Get_Interval
 914               	Timebase_Window_Timer_Get_Interval:
 915               	.LFB21:
 916               	.LM135:
 917 0482 EF92      		push r14
 918 0484 FF92      		push r15
 919 0486 0F93      		push r16
 920 0488 1F93      		push r17
 921 048a CF93      		push r28
 922 048c DF93      		push r29
 923               	/* prologue: function */
 924               	/* frame size = 0 */
 925               	.LM136:
 926 048e C091 0000 		lds r28,Timebase
 927 0492 D091 0000 		lds r29,(Timebase)+1
 928 0496 8E89      		ldd r24,Y+22
 929 0498 8130      		cpi r24,lo8(1)
 930 049a 01F0      		breq .L64
 931 049c EE24      		clr r14
 932 049e FF24      		clr r15
 933 04a0 8701      		movw r16,r14
 934               	.LVL53:
 935 04a2 00C0      		rjmp .L65
 936               	.LVL54:
 937               	.L64:
 938               	.LBB308:
 939               	.LBB309:
 940               	.LBB310:
 941               	.LM137:
 942 04a4 2A85      		ldd r18,Y+10
 943 04a6 3B85      		ldd r19,Y+11
 944 04a8 4C85      		ldd r20,Y+12
 945 04aa 5D85      		ldd r21,Y+13
 946               	.LVL55:
 947               	.LBE310:
 948               	.LBE309:
 949               	.LBB311:
 950               	.LBB312:
 951               	.LM138:
 952 04ac 8885      		ldd r24,Y+8
 953 04ae 9985      		ldd r25,Y+9
 954               	.LBE312:
 955               	.LBE311:
 956               	.LM139:
 957 04b0 7C01      		movw r14,r24
 958               	.LVL56:
 959 04b2 00E0      		ldi r16,lo8(0)
 960 04b4 10E0      		ldi r17,hi8(0)
 961               	.LVL57:
 962               	.LM140:
 963 04b6 8E85      		ldd r24,Y+14
 964 04b8 9F85      		ldd r25,Y+15
 965 04ba A889      		ldd r26,Y+16
 966 04bc B989      		ldd r27,Y+17
 967 04be 281B      		sub r18,r24
 968 04c0 390B      		sbc r19,r25
 969 04c2 4A0B      		sbc r20,r26
 970 04c4 5B0B      		sbc r21,r27
 971               	.LVL58:
 972               	.LM141:
 973 04c6 6981      		ldd r22,Y+1
 974 04c8 7A81      		ldd r23,Y+2
 975 04ca 80E0      		ldi r24,lo8(0)
 976 04cc 90E0      		ldi r25,hi8(0)
 977 04ce 0E94 0000 		call __mulsi3
 978               	.LVL59:
 979               	.LM142:
 980 04d2 2A89      		ldd r18,Y+18
 981 04d4 3B89      		ldd r19,Y+19
 982 04d6 4C89      		ldd r20,Y+20
 983 04d8 5D89      		ldd r21,Y+21
 984 04da E21A      		sub r14,r18
 985 04dc F30A      		sbc r15,r19
 986 04de 040B      		sbc r16,r20
 987 04e0 150B      		sbc r17,r21
 988               	.LVL60:
 989 04e2 E60E      		add r14,r22
 990 04e4 F71E      		adc r15,r23
 991 04e6 081F      		adc r16,r24
 992 04e8 191F      		adc r17,r25
 993               	.L65:
 994               	.LBE308:
 995               	.LM143:
 996 04ea B701      		movw r22,r14
 997               	.LVL61:
 998 04ec C801      		movw r24,r16
 999               	.LVL62:
 1000               	/* epilogue start */
 1001 04ee DF91      		pop r29
 1002 04f0 CF91      		pop r28
 1003 04f2 1F91      		pop r17
 1004 04f4 0F91      		pop r16
 1005 04f6 FF90      		pop r15
 1006 04f8 EF90      		pop r14
 1007 04fa 0895      		ret
 1008               	.LFE21:
 1010               	.global	Timebase_Window_Timer_Get_Interval_Reset
 1012               	Timebase_Window_Timer_Get_Interval_Reset:
 1013               	.LFB22:
 1014               	.LM144:
 1015               	/* prologue: function */
 1016               	/* frame size = 0 */
 1017               	.LM145:
 1018 04fc 0E94 0000 		call Timebase_Window_Timer_Get_Interval
 1019 0500 282F      		mov r18,r24
 1020               	.LVL63:
 1021               	.LM146:
 1022 0502 E091 0000 		lds r30,Timebase
 1023 0506 F091 0000 		lds r31,(Timebase)+1
 1024 050a 8689      		ldd r24,Z+22
 1025 050c 8130      		cpi r24,lo8(1)
 1026 050e 01F4      		brne .L68
 1027               	.LBB313:
 1028               	.LBB314:
 1029               	.LM147:
 1030 0510 1686      		std Z+14,__zero_reg__
 1031 0512 1786      		std Z+15,__zero_reg__
 1032 0514 108A      		std Z+16,__zero_reg__
 1033 0516 118A      		std Z+17,__zero_reg__
 1034               	.LM148:
 1035 0518 128A      		std Z+18,__zero_reg__
 1036 051a 138A      		std Z+19,__zero_reg__
 1037 051c 148A      		std Z+20,__zero_reg__
 1038 051e 158A      		std Z+21,__zero_reg__
 1039               	.LM149:
 1040 0520 168A      		std Z+22,__zero_reg__
 1041               	.L68:
 1042               	.LBE314:
 1043               	.LBE313:
 1044               	.LM150:
 1045 0522 822F      		mov r24,r18
 1046               	/* epilogue start */
 1047 0524 0895      		ret
 1048               	.LFE22:
 1050               	.global	Timebase_UpCounter_Get_Status
 1052               	Timebase_UpCounter_Get_Status:
 1053               	.LFB23:
 1054               	.LM151:
 1055               	.LVL64:
 1056               	/* prologue: function */
 1057               	/* frame size = 0 */
 1058               	.LM152:
 1059 0526 E091 0000 		lds r30,Timebase
 1060 052a F091 0000 		lds r31,(Timebase)+1
 1061 052e 90E0      		ldi r25,lo8(0)
 1062               	.LVL65:
 1063 0530 25E1      		ldi r18,lo8(21)
 1064 0532 30E0      		ldi r19,hi8(21)
 1065 0534 AC01      		movw r20,r24
 1066 0536 429F      		mul r20,r18
 1067 0538 C001      		movw r24,r0
 1068 053a 439F      		mul r20,r19
 1069 053c 900D      		add r25,r0
 1070 053e 529F      		mul r21,r18
 1071 0540 900D      		add r25,r0
 1072 0542 1124      		clr r1
 1073               	.LVL66:
 1074 0544 E80F      		add r30,r24
 1075 0546 F91F      		adc r31,r25
 1076 0548 808D      		ldd r24,Z+24
 1077 054a 8695      		lsr r24
 1078               	.LM153:
 1079 054c 8F70      		andi r24,lo8(15)
 1080               	/* epilogue start */
 1081 054e 0895      		ret
 1082               	.LFE23:
 1084               	.global	Timebase_UpCounter_Set_Status
 1086               	Timebase_UpCounter_Set_Status:
 1087               	.LFB24:
 1088               	.LM154:
 1089               	.LVL67:
 1090               	/* prologue: function */
 1091               	/* frame size = 0 */
 1092               	.LM155:
 1093 0550 E091 0000 		lds r30,Timebase
 1094 0554 F091 0000 		lds r31,(Timebase)+1
 1095 0558 90E0      		ldi r25,lo8(0)
 1096               	.LVL68:
 1097 055a 25E1      		ldi r18,lo8(21)
 1098 055c 30E0      		ldi r19,hi8(21)
 1099 055e AC01      		movw r20,r24
 1100 0560 429F      		mul r20,r18
 1101 0562 C001      		movw r24,r0
 1102 0564 439F      		mul r20,r19
 1103 0566 900D      		add r25,r0
 1104 0568 529F      		mul r21,r18
 1105 056a 900D      		add r25,r0
 1106 056c 1124      		clr r1
 1107               	.LVL69:
 1108 056e E80F      		add r30,r24
 1109 0570 F91F      		adc r31,r25
 1110 0572 6F70      		andi r22,lo8(15)
 1111               	.LVL70:
 1112 0574 660F      		lsl r22
 1113 0576 808D      		ldd r24,Z+24
 1114 0578 817E      		andi r24,lo8(-31)
 1115 057a 862B      		or r24,r22
 1116 057c 808F      		std Z+24,r24
 1117               	/* epilogue start */
 1118               	.LM156:
 1119 057e 0895      		ret
 1120               	.LFE24:
 1122               	.global	Timebase_UpCounter_Get_Value
 1124               	Timebase_UpCounter_Get_Value:
 1125               	.LFB25:
 1126               	.LM157:
 1127               	.LVL71:
 1128               	/* prologue: function */
 1129               	/* frame size = 0 */
 1130               	.LM158:
 1131 0580 E091 0000 		lds r30,Timebase
 1132 0584 F091 0000 		lds r31,(Timebase)+1
 1133 0588 90E0      		ldi r25,lo8(0)
 1134               	.LVL72:
 1135 058a 25E1      		ldi r18,lo8(21)
 1136 058c 30E0      		ldi r19,hi8(21)
 1137 058e AC01      		movw r20,r24
 1138 0590 429F      		mul r20,r18
 1139 0592 C001      		movw r24,r0
 1140 0594 439F      		mul r20,r19
 1141 0596 900D      		add r25,r0
 1142 0598 529F      		mul r21,r18
 1143 059a 900D      		add r25,r0
 1144 059c 1124      		clr r1
 1145               	.LVL73:
 1146 059e E80F      		add r30,r24
 1147 05a0 F91F      		adc r31,r25
 1148 05a2 DF01      		movw r26,r30
 1149 05a4 9596      		adiw r26,37
 1150 05a6 65A1      		ldd r22,Z+37
 1151 05a8 1196      		adiw r26,1
 1152 05aa 7C91      		ld r23,X
 1153 05ac 1197      		sbiw r26,1
 1154               	.LM159:
 1155 05ae 1296      		adiw r26,2
 1156 05b0 8C91      		ld r24,X
 1157 05b2 1297      		sbiw r26,2
 1158 05b4 1396      		adiw r26,3
 1159 05b6 9C91      		ld r25,X
 1160               	.LVL74:
 1161               	/* epilogue start */
 1162 05b8 0895      		ret
 1163               	.LFE25:
 1165               	.global	Timebase_UpCounter_Set_Value
 1167               	Timebase_UpCounter_Set_Value:
 1168               	.LFB26:
 1169               	.LM160:
 1170               	.LVL75:
 1171               	/* prologue: function */
 1172               	/* frame size = 0 */
 1173               	.LM161:
 1174 05ba E091 0000 		lds r30,Timebase
 1175 05be F091 0000 		lds r31,(Timebase)+1
 1176 05c2 90E0      		ldi r25,lo8(0)
 1177               	.LVL76:
 1178 05c4 25E1      		ldi r18,lo8(21)
 1179 05c6 30E0      		ldi r19,hi8(21)
 1180 05c8 DC01      		movw r26,r24
 1181 05ca A29F      		mul r26,r18
 1182 05cc C001      		movw r24,r0
 1183 05ce A39F      		mul r26,r19
 1184 05d0 900D      		add r25,r0
 1185 05d2 B29F      		mul r27,r18
 1186 05d4 900D      		add r25,r0
 1187 05d6 1124      		clr r1
 1188               	.LVL77:
 1189 05d8 E80F      		add r30,r24
 1190 05da F91F      		adc r31,r25
 1191 05dc 45A3      		std Z+37,r20
 1192 05de 56A3      		std Z+38,r21
 1193 05e0 67A3      		std Z+39,r22
 1194 05e2 70A7      		std Z+40,r23
 1195               	/* epilogue start */
 1196               	.LM162:
 1197 05e4 0895      		ret
 1198               	.LFE26:
 1200               	.global	Timebase_UpCounter_Get_EndValue
 1202               	Timebase_UpCounter_Get_EndValue:
 1203               	.LFB27:
 1204               	.LM163:
 1205               	.LVL78:
 1206               	/* prologue: function */
 1207               	/* frame size = 0 */
 1208               	.LM164:
 1209 05e6 E091 0000 		lds r30,Timebase
 1210 05ea F091 0000 		lds r31,(Timebase)+1
 1211 05ee 90E0      		ldi r25,lo8(0)
 1212               	.LVL79:
 1213 05f0 25E1      		ldi r18,lo8(21)
 1214 05f2 30E0      		ldi r19,hi8(21)
 1215 05f4 AC01      		movw r20,r24
 1216 05f6 429F      		mul r20,r18
 1217 05f8 C001      		movw r24,r0
 1218 05fa 439F      		mul r20,r19
 1219 05fc 900D      		add r25,r0
 1220 05fe 529F      		mul r21,r18
 1221 0600 900D      		add r25,r0
 1222 0602 1124      		clr r1
 1223               	.LVL80:
 1224 0604 E80F      		add r30,r24
 1225 0606 F91F      		adc r31,r25
 1226 0608 DF01      		movw r26,r30
 1227 060a 5996      		adiw r26,25
 1228 060c 618D      		ldd r22,Z+25
 1229 060e 1196      		adiw r26,1
 1230 0610 7C91      		ld r23,X
 1231 0612 1197      		sbiw r26,1
 1232               	.LM165:
 1233 0614 1296      		adiw r26,2
 1234 0616 8C91      		ld r24,X
 1235 0618 1297      		sbiw r26,2
 1236 061a 1396      		adiw r26,3
 1237 061c 9C91      		ld r25,X
 1238               	.LVL81:
 1239               	/* epilogue start */
 1240 061e 0895      		ret
 1241               	.LFE27:
 1243               	.global	Timebase_UpCounter_Set_EndValue
 1245               	Timebase_UpCounter_Set_EndValue:
 1246               	.LFB28:
 1247               	.LM166:
 1248               	.LVL82:
 1249               	/* prologue: function */
 1250               	/* frame size = 0 */
 1251               	.LM167:
 1252 0620 E091 0000 		lds r30,Timebase
 1253 0624 F091 0000 		lds r31,(Timebase)+1
 1254 0628 90E0      		ldi r25,lo8(0)
 1255               	.LVL83:
 1256 062a 25E1      		ldi r18,lo8(21)
 1257 062c 30E0      		ldi r19,hi8(21)
 1258 062e DC01      		movw r26,r24
 1259 0630 A29F      		mul r26,r18
 1260 0632 C001      		movw r24,r0
 1261 0634 A39F      		mul r26,r19
 1262 0636 900D      		add r25,r0
 1263 0638 B29F      		mul r27,r18
 1264 063a 900D      		add r25,r0
 1265 063c 1124      		clr r1
 1266               	.LVL84:
 1267 063e E80F      		add r30,r24
 1268 0640 F91F      		adc r31,r25
 1269 0642 418F      		std Z+25,r20
 1270 0644 528F      		std Z+26,r21
 1271 0646 638F      		std Z+27,r22
 1272 0648 748F      		std Z+28,r23
 1273               	/* epilogue start */
 1274               	.LM168:
 1275 064a 0895      		ret
 1276               	.LFE28:
 1278               	.global	Timebase_UpCounter_Get_TargetValue
 1280               	Timebase_UpCounter_Get_TargetValue:
 1281               	.LFB29:
 1282               	.LM169:
 1283               	.LVL85:
 1284               	/* prologue: function */
 1285               	/* frame size = 0 */
 1286               	.LM170:
 1287 064c E091 0000 		lds r30,Timebase
 1288 0650 F091 0000 		lds r31,(Timebase)+1
 1289 0654 90E0      		ldi r25,lo8(0)
 1290               	.LVL86:
 1291 0656 25E1      		ldi r18,lo8(21)
 1292 0658 30E0      		ldi r19,hi8(21)
 1293 065a AC01      		movw r20,r24
 1294 065c 429F      		mul r20,r18
 1295 065e C001      		movw r24,r0
 1296 0660 439F      		mul r20,r19
 1297 0662 900D      		add r25,r0
 1298 0664 529F      		mul r21,r18
 1299 0666 900D      		add r25,r0
 1300 0668 1124      		clr r1
 1301               	.LVL87:
 1302 066a E80F      		add r30,r24
 1303 066c F91F      		adc r31,r25
 1304 066e DF01      		movw r26,r30
 1305 0670 5D96      		adiw r26,29
 1306 0672 658D      		ldd r22,Z+29
 1307 0674 1196      		adiw r26,1
 1308 0676 7C91      		ld r23,X
 1309 0678 1197      		sbiw r26,1
 1310               	.LM171:
 1311 067a 1296      		adiw r26,2
 1312 067c 8C91      		ld r24,X
 1313 067e 1297      		sbiw r26,2
 1314 0680 1396      		adiw r26,3
 1315 0682 9C91      		ld r25,X
 1316               	.LVL88:
 1317               	/* epilogue start */
 1318 0684 0895      		ret
 1319               	.LFE29:
 1321               	.global	Timebase_UpCounter_Set_TargetValue
 1323               	Timebase_UpCounter_Set_TargetValue:
 1324               	.LFB30:
 1325               	.LM172:
 1326               	.LVL89:
 1327               	/* prologue: function */
 1328               	/* frame size = 0 */
 1329               	.LM173:
 1330 0686 E091 0000 		lds r30,Timebase
 1331 068a F091 0000 		lds r31,(Timebase)+1
 1332 068e 90E0      		ldi r25,lo8(0)
 1333               	.LVL90:
 1334 0690 25E1      		ldi r18,lo8(21)
 1335 0692 30E0      		ldi r19,hi8(21)
 1336 0694 DC01      		movw r26,r24
 1337 0696 A29F      		mul r26,r18
 1338 0698 C001      		movw r24,r0
 1339 069a A39F      		mul r26,r19
 1340 069c 900D      		add r25,r0
 1341 069e B29F      		mul r27,r18
 1342 06a0 900D      		add r25,r0
 1343 06a2 1124      		clr r1
 1344               	.LVL91:
 1345 06a4 E80F      		add r30,r24
 1346 06a6 F91F      		adc r31,r25
 1347 06a8 458F      		std Z+29,r20
 1348 06aa 568F      		std Z+30,r21
 1349 06ac 678F      		std Z+31,r22
 1350 06ae 70A3      		std Z+32,r23
 1351               	/* epilogue start */
 1352               	.LM174:
 1353 06b0 0895      		ret
 1354               	.LFE30:
 1356               	.global	Timebase_UpCounter_Get_TemporaryValue
 1358               	Timebase_UpCounter_Get_TemporaryValue:
 1359               	.LFB31:
 1360               	.LM175:
 1361               	.LVL92:
 1362               	/* prologue: function */
 1363               	/* frame size = 0 */
 1364               	.LM176:
 1365 06b2 E091 0000 		lds r30,Timebase
 1366 06b6 F091 0000 		lds r31,(Timebase)+1
 1367 06ba 90E0      		ldi r25,lo8(0)
 1368               	.LVL93:
 1369 06bc 25E1      		ldi r18,lo8(21)
 1370 06be 30E0      		ldi r19,hi8(21)
 1371 06c0 AC01      		movw r20,r24
 1372 06c2 429F      		mul r20,r18
 1373 06c4 C001      		movw r24,r0
 1374 06c6 439F      		mul r20,r19
 1375 06c8 900D      		add r25,r0
 1376 06ca 529F      		mul r21,r18
 1377 06cc 900D      		add r25,r0
 1378 06ce 1124      		clr r1
 1379               	.LVL94:
 1380 06d0 E80F      		add r30,r24
 1381 06d2 F91F      		adc r31,r25
 1382 06d4 DF01      		movw r26,r30
 1383 06d6 9196      		adiw r26,33
 1384 06d8 61A1      		ldd r22,Z+33
 1385 06da 1196      		adiw r26,1
 1386 06dc 7C91      		ld r23,X
 1387 06de 1197      		sbiw r26,1
 1388               	.LM177:
 1389 06e0 1296      		adiw r26,2
 1390 06e2 8C91      		ld r24,X
 1391 06e4 1297      		sbiw r26,2
 1392 06e6 1396      		adiw r26,3
 1393 06e8 9C91      		ld r25,X
 1394               	.LVL95:
 1395               	/* epilogue start */
 1396 06ea 0895      		ret
 1397               	.LFE31:
 1399               	.global	Timebase_UpCounter_Set_TemporaryValue
 1401               	Timebase_UpCounter_Set_TemporaryValue:
 1402               	.LFB32:
 1403               	.LM178:
 1404               	.LVL96:
 1405               	/* prologue: function */
 1406               	/* frame size = 0 */
 1407               	.LM179:
 1408 06ec E091 0000 		lds r30,Timebase
 1409 06f0 F091 0000 		lds r31,(Timebase)+1
 1410 06f4 90E0      		ldi r25,lo8(0)
 1411               	.LVL97:
 1412 06f6 25E1      		ldi r18,lo8(21)
 1413 06f8 30E0      		ldi r19,hi8(21)
 1414 06fa DC01      		movw r26,r24
 1415 06fc A29F      		mul r26,r18
 1416 06fe C001      		movw r24,r0
 1417 0700 A39F      		mul r26,r19
 1418 0702 900D      		add r25,r0
 1419 0704 B29F      		mul r27,r18
 1420 0706 900D      		add r25,r0
 1421 0708 1124      		clr r1
 1422               	.LVL98:
 1423 070a E80F      		add r30,r24
 1424 070c F91F      		adc r31,r25
 1425 070e 41A3      		std Z+33,r20
 1426 0710 52A3      		std Z+34,r21
 1427 0712 63A3      		std Z+35,r22
 1428 0714 74A3      		std Z+36,r23
 1429               	/* epilogue start */
 1430               	.LM180:
 1431 0716 0895      		ret
 1432               	.LFE32:
 1434               	.global	Timebase_UpCounter_Get_PeriodValue
 1436               	Timebase_UpCounter_Get_PeriodValue:
 1437               	.LFB33:
 1438               	.LM181:
 1439               	.LVL99:
 1440               	/* prologue: function */
 1441               	/* frame size = 0 */
 1442               	.LM182:
 1443 0718 E091 0000 		lds r30,Timebase
 1444 071c F091 0000 		lds r31,(Timebase)+1
 1445 0720 90E0      		ldi r25,lo8(0)
 1446               	.LVL100:
 1447 0722 25E1      		ldi r18,lo8(21)
 1448 0724 30E0      		ldi r19,hi8(21)
 1449 0726 AC01      		movw r20,r24
 1450 0728 429F      		mul r20,r18
 1451 072a C001      		movw r24,r0
 1452 072c 439F      		mul r20,r19
 1453 072e 900D      		add r25,r0
 1454 0730 529F      		mul r21,r18
 1455 0732 900D      		add r25,r0
 1456 0734 1124      		clr r1
 1457               	.LVL101:
 1458 0736 E80F      		add r30,r24
 1459 0738 F91F      		adc r31,r25
 1460 073a DF01      		movw r26,r30
 1461 073c 9996      		adiw r26,41
 1462 073e 61A5      		ldd r22,Z+41
 1463 0740 1196      		adiw r26,1
 1464 0742 7C91      		ld r23,X
 1465 0744 1197      		sbiw r26,1
 1466               	.LM183:
 1467 0746 1296      		adiw r26,2
 1468 0748 8C91      		ld r24,X
 1469 074a 1297      		sbiw r26,2
 1470 074c 1396      		adiw r26,3
 1471 074e 9C91      		ld r25,X
 1472               	.LVL102:
 1473               	/* epilogue start */
 1474 0750 0895      		ret
 1475               	.LFE33:
 1477               	.global	Timebase_UpCounter_Set_PeriodValue
 1479               	Timebase_UpCounter_Set_PeriodValue:
 1480               	.LFB34:
 1481               	.LM184:
 1482               	.LVL103:
 1483               	/* prologue: function */
 1484               	/* frame size = 0 */
 1485               	.LM185:
 1486 0752 E091 0000 		lds r30,Timebase
 1487 0756 F091 0000 		lds r31,(Timebase)+1
 1488 075a 90E0      		ldi r25,lo8(0)
 1489               	.LVL104:
 1490 075c 25E1      		ldi r18,lo8(21)
 1491 075e 30E0      		ldi r19,hi8(21)
 1492 0760 DC01      		movw r26,r24
 1493 0762 A29F      		mul r26,r18
 1494 0764 C001      		movw r24,r0
 1495 0766 A39F      		mul r26,r19
 1496 0768 900D      		add r25,r0
 1497 076a B29F      		mul r27,r18
 1498 076c 900D      		add r25,r0
 1499 076e 1124      		clr r1
 1500               	.LVL105:
 1501 0770 E80F      		add r30,r24
 1502 0772 F91F      		adc r31,r25
 1503 0774 41A7      		std Z+41,r20
 1504 0776 52A7      		std Z+42,r21
 1505 0778 63A7      		std Z+43,r22
 1506 077a 74A7      		std Z+44,r23
 1507               	/* epilogue start */
 1508               	.LM186:
 1509 077c 0895      		ret
 1510               	.LFE34:
 1512               	.global	Timebase_UpCounter_Get_Period_Flag
 1514               	Timebase_UpCounter_Get_Period_Flag:
 1515               	.LFB35:
 1516               	.LM187:
 1517               	.LVL106:
 1518               	/* prologue: function */
 1519               	/* frame size = 0 */
 1520               	.LM188:
 1521 077e E091 0000 		lds r30,Timebase
 1522 0782 F091 0000 		lds r31,(Timebase)+1
 1523 0786 90E0      		ldi r25,lo8(0)
 1524               	.LVL107:
 1525 0788 25E1      		ldi r18,lo8(21)
 1526 078a 30E0      		ldi r19,hi8(21)
 1527 078c AC01      		movw r20,r24
 1528 078e 429F      		mul r20,r18
 1529 0790 C001      		movw r24,r0
 1530 0792 439F      		mul r20,r19
 1531 0794 900D      		add r25,r0
 1532 0796 529F      		mul r21,r18
 1533 0798 900D      		add r25,r0
 1534 079a 1124      		clr r1
 1535               	.LVL108:
 1536 079c E80F      		add r30,r24
 1537 079e F91F      		adc r31,r25
 1538 07a0 808D      		ldd r24,Z+24
 1539               	.LM189:
 1540 07a2 8170      		andi r24,lo8(1)
 1541               	/* epilogue start */
 1542 07a4 0895      		ret
 1543               	.LFE35:
 1545               	.global	Timebase_UpCounter_Set_Period_Flag
 1547               	Timebase_UpCounter_Set_Period_Flag:
 1548               	.LFB36:
 1549               	.LM190:
 1550               	.LVL109:
 1551               	/* prologue: function */
 1552               	/* frame size = 0 */
 1553               	.LM191:
 1554 07a6 E091 0000 		lds r30,Timebase
 1555 07aa F091 0000 		lds r31,(Timebase)+1
 1556 07ae 90E0      		ldi r25,lo8(0)
 1557               	.LVL110:
 1558 07b0 25E1      		ldi r18,lo8(21)
 1559 07b2 30E0      		ldi r19,hi8(21)
 1560 07b4 AC01      		movw r20,r24
 1561 07b6 429F      		mul r20,r18
 1562 07b8 C001      		movw r24,r0
 1563 07ba 439F      		mul r20,r19
 1564 07bc 900D      		add r25,r0
 1565 07be 529F      		mul r21,r18
 1566 07c0 900D      		add r25,r0
 1567 07c2 1124      		clr r1
 1568               	.LVL111:
 1569 07c4 E80F      		add r30,r24
 1570 07c6 F91F      		adc r31,r25
 1571 07c8 808D      		ldd r24,Z+24
 1572 07ca 8160      		ori r24,lo8(1)
 1573 07cc 808F      		std Z+24,r24
 1574               	/* epilogue start */
 1575               	.LM192:
 1576 07ce 0895      		ret
 1577               	.LFE36:
 1579               	.global	Timebase_UpCounter_Clear_Period_Flag
 1581               	Timebase_UpCounter_Clear_Period_Flag:
 1582               	.LFB37:
 1583               	.LM193:
 1584               	.LVL112:
 1585               	/* prologue: function */
 1586               	/* frame size = 0 */
 1587               	.LM194:
 1588 07d0 E091 0000 		lds r30,Timebase
 1589 07d4 F091 0000 		lds r31,(Timebase)+1
 1590 07d8 90E0      		ldi r25,lo8(0)
 1591               	.LVL113:
 1592 07da 25E1      		ldi r18,lo8(21)
 1593 07dc 30E0      		ldi r19,hi8(21)
 1594 07de AC01      		movw r20,r24
 1595 07e0 429F      		mul r20,r18
 1596 07e2 C001      		movw r24,r0
 1597 07e4 439F      		mul r20,r19
 1598 07e6 900D      		add r25,r0
 1599 07e8 529F      		mul r21,r18
 1600 07ea 900D      		add r25,r0
 1601 07ec 1124      		clr r1
 1602               	.LVL114:
 1603 07ee E80F      		add r30,r24
 1604 07f0 F91F      		adc r31,r25
 1605 07f2 808D      		ldd r24,Z+24
 1606 07f4 8E7F      		andi r24,lo8(-2)
 1607 07f6 808F      		std Z+24,r24
 1608               	/* epilogue start */
 1609               	.LM195:
 1610 07f8 0895      		ret
 1611               	.LFE37:
 1613               	.global	Timebase_UpCounter_Reset
 1615               	Timebase_UpCounter_Reset:
 1616               	.LFB38:
 1617               	.LM196:
 1618               	.LVL115:
 1619               	/* prologue: function */
 1620               	/* frame size = 0 */
 1621               	.LBB315:
 1622               	.LBB316:
 1623               	.LM197:
 1624 07fa E091 0000 		lds r30,Timebase
 1625 07fe F091 0000 		lds r31,(Timebase)+1
 1626 0802 90E0      		ldi r25,lo8(0)
 1627 0804 25E1      		ldi r18,lo8(21)
 1628 0806 30E0      		ldi r19,hi8(21)
 1629 0808 AC01      		movw r20,r24
 1630               	.LVL116:
 1631 080a 429F      		mul r20,r18
 1632 080c C001      		movw r24,r0
 1633 080e 439F      		mul r20,r19
 1634 0810 900D      		add r25,r0
 1635 0812 529F      		mul r21,r18
 1636 0814 900D      		add r25,r0
 1637 0816 1124      		clr r1
 1638 0818 E80F      		add r30,r24
 1639 081a F91F      		adc r31,r25
 1640 081c 808D      		ldd r24,Z+24
 1641               	.LBE316:
 1642               	.LBE315:
 1643               	.LBB317:
 1644               	.LBB318:
 1645               	.LM198:
 1646 081e 15A2      		std Z+37,__zero_reg__
 1647 0820 16A2      		std Z+38,__zero_reg__
 1648 0822 17A2      		std Z+39,__zero_reg__
 1649 0824 10A6      		std Z+40,__zero_reg__
 1650               	.LBE318:
 1651               	.LBE317:
 1652               	.LBB319:
 1653               	.LBB320:
 1654               	.LM199:
 1655 0826 118E      		std Z+25,__zero_reg__
 1656 0828 128E      		std Z+26,__zero_reg__
 1657 082a 138E      		std Z+27,__zero_reg__
 1658 082c 148E      		std Z+28,__zero_reg__
 1659               	.LBE320:
 1660               	.LBE319:
 1661               	.LBB321:
 1662               	.LBB322:
 1663               	.LM200:
 1664 082e 158E      		std Z+29,__zero_reg__
 1665 0830 168E      		std Z+30,__zero_reg__
 1666 0832 178E      		std Z+31,__zero_reg__
 1667 0834 10A2      		std Z+32,__zero_reg__
 1668               	.LBE322:
 1669               	.LBE321:
 1670               	.LBB323:
 1671               	.LBB324:
 1672               	.LM201:
 1673 0836 11A2      		std Z+33,__zero_reg__
 1674 0838 12A2      		std Z+34,__zero_reg__
 1675 083a 13A2      		std Z+35,__zero_reg__
 1676 083c 14A2      		std Z+36,__zero_reg__
 1677               	.LBE324:
 1678               	.LBE323:
 1679               	.LBB325:
 1680               	.LBB326:
 1681               	.LM202:
 1682 083e 11A6      		std Z+41,__zero_reg__
 1683 0840 12A6      		std Z+42,__zero_reg__
 1684 0842 13A6      		std Z+43,__zero_reg__
 1685 0844 14A6      		std Z+44,__zero_reg__
 1686               	.LBE326:
 1687               	.LBE325:
 1688               	.LBB327:
 1689               	.LBB328:
 1690               	.LM203:
 1691 0846 807E      		andi r24,lo8(-32)
 1692 0848 808F      		std Z+24,r24
 1693               	/* epilogue start */
 1694               	.LBE328:
 1695               	.LBE327:
 1696               	.LM204:
 1697 084a 0895      		ret
 1698               	.LFE38:
 1700               	.global	Timebase_UpCounter_Clear_All_Flags
 1702               	Timebase_UpCounter_Clear_All_Flags:
 1703               	.LFB39:
 1704               	.LM205:
 1705               	.LVL117:
 1706               	/* prologue: function */
 1707               	/* frame size = 0 */
 1708               	.LM206:
 1709 084c 0E94 0000 		call Timebase_UpCounter_Reset
 1710               	.LVL118:
 1711               	/* epilogue start */
 1712               	.LM207:
 1713 0850 0895      		ret
 1714               	.LFE39:
 1716               	.global	Timebase_UpCounter_Start
 1718               	Timebase_UpCounter_Start:
 1719               	.LFB40:
 1720               	.LM208:
 1721               	.LVL119:
 1722               	/* prologue: function */
 1723               	/* frame size = 0 */
 1724               	.LBB329:
 1725               	.LBB330:
 1726               	.LM209:
 1727 0852 E091 0000 		lds r30,Timebase
 1728 0856 F091 0000 		lds r31,(Timebase)+1
 1729 085a 90E0      		ldi r25,lo8(0)
 1730               	.LBE330:
 1731               	.LBE329:
 1732               	.LM210:
 1733 085c 25E1      		ldi r18,lo8(21)
 1734 085e 30E0      		ldi r19,hi8(21)
 1735 0860 AC01      		movw r20,r24
 1736               	.LVL120:
 1737 0862 429F      		mul r20,r18
 1738 0864 C001      		movw r24,r0
 1739 0866 439F      		mul r20,r19
 1740 0868 900D      		add r25,r0
 1741 086a 529F      		mul r21,r18
 1742 086c 900D      		add r25,r0
 1743 086e 1124      		clr r1
 1744 0870 E80F      		add r30,r24
 1745 0872 F91F      		adc r31,r25
 1746 0874 908D      		ldd r25,Z+24
 1747 0876 892F      		mov r24,r25
 1748 0878 8695      		lsr r24
 1749 087a 8F70      		andi r24,lo8(15)
 1750 087c 8130      		cpi r24,lo8(1)
 1751 087e 01F0      		breq .L106
 1752               	.LBB331:
 1753               	.LBB332:
 1754               	.LM211:
 1755 0880 917E      		andi r25,lo8(-31)
 1756 0882 9260      		ori r25,lo8(2)
 1757 0884 908F      		std Z+24,r25
 1758               	.L106:
 1759 0886 0895      		ret
 1760               	.LBE332:
 1761               	.LBE331:
 1762               	.LFE40:
 1764               	.global	Timebase_UpCounter_Stop
 1766               	Timebase_UpCounter_Stop:
 1767               	.LFB41:
 1768               	.LM212:
 1769               	.LVL121:
 1770               	/* prologue: function */
 1771               	/* frame size = 0 */
 1772               	.LBB333:
 1773               	.LBB334:
 1774               	.LM213:
 1775 0888 E091 0000 		lds r30,Timebase
 1776 088c F091 0000 		lds r31,(Timebase)+1
 1777 0890 90E0      		ldi r25,lo8(0)
 1778               	.LBE334:
 1779               	.LBE333:
 1780               	.LM214:
 1781 0892 25E1      		ldi r18,lo8(21)
 1782 0894 30E0      		ldi r19,hi8(21)
 1783 0896 AC01      		movw r20,r24
 1784               	.LVL122:
 1785 0898 429F      		mul r20,r18
 1786 089a C001      		movw r24,r0
 1787 089c 439F      		mul r20,r19
 1788 089e 900D      		add r25,r0
 1789 08a0 529F      		mul r21,r18
 1790 08a2 900D      		add r25,r0
 1791 08a4 1124      		clr r1
 1792 08a6 E80F      		add r30,r24
 1793 08a8 F91F      		adc r31,r25
 1794 08aa 908D      		ldd r25,Z+24
 1795 08ac 892F      		mov r24,r25
 1796 08ae 8695      		lsr r24
 1797 08b0 8F70      		andi r24,lo8(15)
 1798 08b2 8230      		cpi r24,lo8(2)
 1799 08b4 01F0      		breq .L109
 1800               	.LBB335:
 1801               	.LBB336:
 1802               	.LM215:
 1803 08b6 917E      		andi r25,lo8(-31)
 1804 08b8 9460      		ori r25,lo8(4)
 1805 08ba 908F      		std Z+24,r25
 1806               	.L109:
 1807 08bc 0895      		ret
 1808               	.LBE336:
 1809               	.LBE335:
 1810               	.LFE41:
 1812               	.global	Timebase_UpCounter_Set_Securely
 1814               	Timebase_UpCounter_Set_Securely:
 1815               	.LFB42:
 1816               	.LM216:
 1817               	.LVL123:
 1818               	/* prologue: function */
 1819               	/* frame size = 0 */
 1820               	.LBB337:
 1821               	.LBB338:
 1822               	.LM217:
 1823 08be A091 0000 		lds r26,Timebase
 1824 08c2 B091 0000 		lds r27,(Timebase)+1
 1825 08c6 90E0      		ldi r25,lo8(0)
 1826               	.LBE338:
 1827               	.LBE337:
 1828               	.LM218:
 1829 08c8 25E1      		ldi r18,lo8(21)
 1830 08ca 30E0      		ldi r19,hi8(21)
 1831 08cc 829F      		mul r24,r18
 1832 08ce F001      		movw r30,r0
 1833 08d0 839F      		mul r24,r19
 1834 08d2 F00D      		add r31,r0
 1835 08d4 929F      		mul r25,r18
 1836 08d6 F00D      		add r31,r0
 1837 08d8 1124      		clr r1
 1838               	.LVL124:
 1839 08da EA0F      		add r30,r26
 1840 08dc FB1F      		adc r31,r27
 1841 08de 808D      		ldd r24,Z+24
 1842 08e0 8695      		lsr r24
 1843 08e2 8F70      		andi r24,lo8(15)
 1844 08e4 01F4      		brne .L112
 1845               	.LBB339:
 1846               	.LBB340:
 1847               	.LM219:
 1848 08e6 15A2      		std Z+37,__zero_reg__
 1849 08e8 16A2      		std Z+38,__zero_reg__
 1850 08ea 17A2      		std Z+39,__zero_reg__
 1851 08ec 10A6      		std Z+40,__zero_reg__
 1852               	.LBE340:
 1853               	.LBE339:
 1854               	.LBB341:
 1855               	.LBB342:
 1856               	.LM220:
 1857 08ee 11A2      		std Z+33,__zero_reg__
 1858 08f0 12A2      		std Z+34,__zero_reg__
 1859 08f2 13A2      		std Z+35,__zero_reg__
 1860 08f4 14A2      		std Z+36,__zero_reg__
 1861               	.LBE342:
 1862               	.LBE341:
 1863               	.LBB343:
 1864               	.LBB344:
 1865               	.LM221:
 1866 08f6 458F      		std Z+29,r20
 1867 08f8 568F      		std Z+30,r21
 1868 08fa 678F      		std Z+31,r22
 1869 08fc 70A3      		std Z+32,r23
 1870               	.LBE344:
 1871               	.LBE343:
 1872               	.LBB345:
 1873               	.LBB346:
 1874               	.LM222:
 1875 08fe 1A96      		adiw r26,10
 1876 0900 8D91      		ld r24,X+
 1877 0902 9D91      		ld r25,X+
 1878 0904 0D90      		ld __tmp_reg__,X+
 1879 0906 BC91      		ld r27,X
 1880 0908 A02D      		mov r26,__tmp_reg__
 1881               	.LBE346:
 1882               	.LBE345:
 1883               	.LBB347:
 1884               	.LBB348:
 1885               	.LM223:
 1886 090a 840F      		add r24,r20
 1887 090c 951F      		adc r25,r21
 1888 090e A61F      		adc r26,r22
 1889 0910 B71F      		adc r27,r23
 1890 0912 818F      		std Z+25,r24
 1891 0914 928F      		std Z+26,r25
 1892 0916 A38F      		std Z+27,r26
 1893 0918 B48F      		std Z+28,r27
 1894               	.LBE348:
 1895               	.LBE347:
 1896               	.LBB349:
 1897               	.LBB350:
 1898               	.LM224:
 1899 091a 908D      		ldd r25,Z+24
 1900 091c 892F      		mov r24,r25
 1901 091e 8695      		lsr r24
 1902 0920 8F70      		andi r24,lo8(15)
 1903 0922 8130      		cpi r24,lo8(1)
 1904 0924 01F0      		breq .L112
 1905               	.LBB351:
 1906               	.LBB352:
 1907               	.LM225:
 1908 0926 917E      		andi r25,lo8(-31)
 1909 0928 9260      		ori r25,lo8(2)
 1910 092a 908F      		std Z+24,r25
 1911               	.L112:
 1912 092c 0895      		ret
 1913               	.LBE352:
 1914               	.LBE351:
 1915               	.LBE350:
 1916               	.LBE349:
 1917               	.LFE42:
 1919               	.global	Timebase_UpCounter_Set_Forcefully
 1921               	Timebase_UpCounter_Set_Forcefully:
 1922               	.LFB43:
 1923               	.LM226:
 1924               	.LVL125:
 1925 092e DF92      		push r13
 1926 0930 EF92      		push r14
 1927 0932 FF92      		push r15
 1928 0934 0F93      		push r16
 1929 0936 1F93      		push r17
 1930               	/* prologue: function */
 1931               	/* frame size = 0 */
 1932 0938 D82E      		mov r13,r24
 1933 093a 7A01      		movw r14,r20
 1934 093c 8B01      		movw r16,r22
 1935               	.LM227:
 1936 093e 0E94 0000 		call Timebase_UpCounter_Reset
 1937               	.LVL126:
 1938               	.LM228:
 1939 0942 8D2D      		mov r24,r13
 1940 0944 B801      		movw r22,r16
 1941 0946 A701      		movw r20,r14
 1942 0948 0E94 0000 		call Timebase_UpCounter_Set_Securely
 1943               	/* epilogue start */
 1944               	.LM229:
 1945 094c 1F91      		pop r17
 1946 094e 0F91      		pop r16
 1947 0950 FF90      		pop r15
 1948 0952 EF90      		pop r14
 1949               	.LVL127:
 1950 0954 DF90      		pop r13
 1951               	.LVL128:
 1952 0956 0895      		ret
 1953               	.LFE43:
 1955               	.global	Timebase_UpCounter_Update
 1957               	Timebase_UpCounter_Update:
 1958               	.LFB44:
 1959               	.LM230:
 1960               	.LVL129:
 1961 0958 EF92      		push r14
 1962 095a FF92      		push r15
 1963 095c 0F93      		push r16
 1964 095e 1F93      		push r17
 1965               	/* prologue: function */
 1966               	/* frame size = 0 */
 1967               	.LBB353:
 1968               	.LBB354:
 1969               	.LM231:
 1970 0960 A091 0000 		lds r26,Timebase
 1971 0964 B091 0000 		lds r27,(Timebase)+1
 1972 0968 90E0      		ldi r25,lo8(0)
 1973 096a 25E1      		ldi r18,lo8(21)
 1974 096c 30E0      		ldi r19,hi8(21)
 1975 096e 829F      		mul r24,r18
 1976 0970 F001      		movw r30,r0
 1977 0972 839F      		mul r24,r19
 1978 0974 F00D      		add r31,r0
 1979 0976 929F      		mul r25,r18
 1980 0978 F00D      		add r31,r0
 1981 097a 1124      		clr r1
 1982               	.LVL130:
 1983 097c EA0F      		add r30,r26
 1984 097e FB1F      		adc r31,r27
 1985 0980 808D      		ldd r24,Z+24
 1986 0982 8695      		lsr r24
 1987 0984 8F70      		andi r24,lo8(15)
 1988               	.LBE354:
 1989               	.LBE353:
 1990               	.LM232:
 1991 0986 8130      		cpi r24,lo8(1)
 1992 0988 01F4      		brne .L116
 1993               	.LBB355:
 1994               	.LBB356:
 1995               	.LM233:
 1996 098a 1A96      		adiw r26,10
 1997 098c 8D91      		ld r24,X+
 1998 098e 9D91      		ld r25,X+
 1999 0990 0D90      		ld __tmp_reg__,X+
 2000 0992 BC91      		ld r27,X
 2001 0994 A02D      		mov r26,__tmp_reg__
 2002               	.LBE356:
 2003               	.LBE355:
 2004               	.LM234:
 2005 0996 218D      		ldd r18,Z+25
 2006 0998 328D      		ldd r19,Z+26
 2007 099a 438D      		ldd r20,Z+27
 2008 099c 548D      		ldd r21,Z+28
 2009 099e 281B      		sub r18,r24
 2010 09a0 390B      		sbc r19,r25
 2011 09a2 4A0B      		sbc r20,r26
 2012 09a4 5B0B      		sbc r21,r27
 2013               	.LBB357:
 2014               	.LBB358:
 2015               	.LM235:
 2016 09a6 21A3      		std Z+33,r18
 2017 09a8 32A3      		std Z+34,r19
 2018 09aa 43A3      		std Z+35,r20
 2019 09ac 54A3      		std Z+36,r21
 2020               	.LBE358:
 2021               	.LBE357:
 2022               	.LBB359:
 2023               	.LBB360:
 2024               	.LM236:
 2025 09ae E58C      		ldd r14,Z+29
 2026 09b0 F68C      		ldd r15,Z+30
 2027 09b2 078D      		ldd r16,Z+31
 2028 09b4 10A1      		ldd r17,Z+32
 2029 09b6 D801      		movw r26,r16
 2030 09b8 C701      		movw r24,r14
 2031 09ba 821B      		sub r24,r18
 2032 09bc 930B      		sbc r25,r19
 2033 09be A40B      		sbc r26,r20
 2034 09c0 B50B      		sbc r27,r21
 2035 09c2 85A3      		std Z+37,r24
 2036 09c4 96A3      		std Z+38,r25
 2037 09c6 A7A3      		std Z+39,r26
 2038 09c8 B0A7      		std Z+40,r27
 2039               	.LBE360:
 2040               	.LBE359:
 2041               	.LM237:
 2042 09ca 1216      		cp __zero_reg__,r18
 2043 09cc 1306      		cpc __zero_reg__,r19
 2044 09ce 1406      		cpc __zero_reg__,r20
 2045 09d0 1506      		cpc __zero_reg__,r21
 2046 09d2 04F0      		brlt .L118
 2047               	.LBB361:
 2048               	.LBB362:
 2049               	.LM238:
 2050 09d4 118E      		std Z+25,__zero_reg__
 2051 09d6 128E      		std Z+26,__zero_reg__
 2052 09d8 138E      		std Z+27,__zero_reg__
 2053 09da 148E      		std Z+28,__zero_reg__
 2054               	.LBE362:
 2055               	.LBE361:
 2056               	.LBB363:
 2057               	.LBB364:
 2058               	.LM239:
 2059 09dc 11A2      		std Z+33,__zero_reg__
 2060 09de 12A2      		std Z+34,__zero_reg__
 2061 09e0 13A2      		std Z+35,__zero_reg__
 2062 09e2 14A2      		std Z+36,__zero_reg__
 2063               	.LBE364:
 2064               	.LBE363:
 2065               	.LBB365:
 2066               	.LBB366:
 2067               	.LM240:
 2068 09e4 E5A2      		std Z+37,r14
 2069 09e6 F6A2      		std Z+38,r15
 2070 09e8 07A3      		std Z+39,r16
 2071 09ea 10A7      		std Z+40,r17
 2072               	.LBE366:
 2073               	.LBE365:
 2074               	.LBB367:
 2075               	.LBB368:
 2076               	.LM241:
 2077 09ec 808D      		ldd r24,Z+24
 2078 09ee 817E      		andi r24,lo8(-31)
 2079 09f0 8860      		ori r24,lo8(8)
 2080 09f2 808F      		std Z+24,r24
 2081 09f4 00C0      		rjmp .L118
 2082               	.L116:
 2083               	.LBE368:
 2084               	.LBE367:
 2085               	.LM242:
 2086 09f6 8230      		cpi r24,lo8(2)
 2087 09f8 01F4      		brne .L118
 2088               	.LBB369:
 2089               	.LBB370:
 2090               	.LM243:
 2091 09fa 1A96      		adiw r26,10
 2092 09fc 8D91      		ld r24,X+
 2093 09fe 9D91      		ld r25,X+
 2094 0a00 0D90      		ld __tmp_reg__,X+
 2095 0a02 BC91      		ld r27,X
 2096 0a04 A02D      		mov r26,__tmp_reg__
 2097               	.LBE370:
 2098               	.LBE369:
 2099               	.LBB371:
 2100               	.LBB372:
 2101               	.LM244:
 2102 0a06 21A1      		ldd r18,Z+33
 2103 0a08 32A1      		ldd r19,Z+34
 2104 0a0a 43A1      		ldd r20,Z+35
 2105 0a0c 54A1      		ldd r21,Z+36
 2106 0a0e 820F      		add r24,r18
 2107 0a10 931F      		adc r25,r19
 2108 0a12 A41F      		adc r26,r20
 2109 0a14 B51F      		adc r27,r21
 2110 0a16 818F      		std Z+25,r24
 2111 0a18 928F      		std Z+26,r25
 2112 0a1a A38F      		std Z+27,r26
 2113 0a1c B48F      		std Z+28,r27
 2114               	.LBE372:
 2115               	.LBE371:
 2116               	.LBB373:
 2117               	.LBB374:
 2118               	.LM245:
 2119 0a1e 858D      		ldd r24,Z+29
 2120 0a20 968D      		ldd r25,Z+30
 2121 0a22 A78D      		ldd r26,Z+31
 2122 0a24 B0A1      		ldd r27,Z+32
 2123 0a26 821B      		sub r24,r18
 2124 0a28 930B      		sbc r25,r19
 2125 0a2a A40B      		sbc r26,r20
 2126 0a2c B50B      		sbc r27,r21
 2127 0a2e 85A3      		std Z+37,r24
 2128 0a30 96A3      		std Z+38,r25
 2129 0a32 A7A3      		std Z+39,r26
 2130 0a34 B0A7      		std Z+40,r27
 2131               	.L118:
 2132               	/* epilogue start */
 2133               	.LBE374:
 2134               	.LBE373:
 2135               	.LM246:
 2136 0a36 1F91      		pop r17
 2137 0a38 0F91      		pop r16
 2138 0a3a FF90      		pop r15
 2139 0a3c EF90      		pop r14
 2140 0a3e 0895      		ret
 2141               	.LFE44:
 2143               	.global	Timebase_UpCounter_Expired
 2145               	Timebase_UpCounter_Expired:
 2146               	.LFB45:
 2147               	.LM247:
 2148               	.LVL131:
 2149               	/* prologue: function */
 2150               	/* frame size = 0 */
 2151               	.LM248:
 2152 0a40 40E0      		ldi r20,lo8(0)
 2153 0a42 E091 0000 		lds r30,Timebase
 2154 0a46 F091 0000 		lds r31,(Timebase)+1
 2155 0a4a 90E0      		ldi r25,lo8(0)
 2156               	.LVL132:
 2157 0a4c 25E1      		ldi r18,lo8(21)
 2158 0a4e 30E0      		ldi r19,hi8(21)
 2159 0a50 BC01      		movw r22,r24
 2160 0a52 629F      		mul r22,r18
 2161 0a54 C001      		movw r24,r0
 2162 0a56 639F      		mul r22,r19
 2163 0a58 900D      		add r25,r0
 2164 0a5a 729F      		mul r23,r18
 2165 0a5c 900D      		add r25,r0
 2166 0a5e 1124      		clr r1
 2167               	.LVL133:
 2168 0a60 E80F      		add r30,r24
 2169 0a62 F91F      		adc r31,r25
 2170 0a64 808D      		ldd r24,Z+24
 2171 0a66 8695      		lsr r24
 2172 0a68 8F70      		andi r24,lo8(15)
 2173 0a6a 8430      		cpi r24,lo8(4)
 2174 0a6c 01F4      		brne .L120
 2175 0a6e 41E0      		ldi r20,lo8(1)
 2176               	.L120:
 2177               	.LM249:
 2178 0a70 842F      		mov r24,r20
 2179               	/* epilogue start */
 2180 0a72 0895      		ret
 2181               	.LFE45:
 2183               	.global	Timebase_UpCounter_Expired_Event
 2185               	Timebase_UpCounter_Expired_Event:
 2186               	.LFB46:
 2187               	.LM250:
 2188               	.LVL134:
 2189               	/* prologue: function */
 2190               	/* frame size = 0 */
 2191 0a74 482F      		mov r20,r24
 2192               	.LM251:
 2193 0a76 E091 0000 		lds r30,Timebase
 2194 0a7a F091 0000 		lds r31,(Timebase)+1
 2195 0a7e 282F      		mov r18,r24
 2196 0a80 30E0      		ldi r19,lo8(0)
 2197               	.LVL135:
 2198 0a82 85E1      		ldi r24,lo8(21)
 2199 0a84 90E0      		ldi r25,hi8(21)
 2200               	.LVL136:
 2201 0a86 BC01      		movw r22,r24
 2202 0a88 269F      		mul r18,r22
 2203 0a8a C001      		movw r24,r0
 2204 0a8c 279F      		mul r18,r23
 2205 0a8e 900D      		add r25,r0
 2206 0a90 369F      		mul r19,r22
 2207 0a92 900D      		add r25,r0
 2208 0a94 1124      		clr r1
 2209 0a96 E80F      		add r30,r24
 2210 0a98 F91F      		adc r31,r25
 2211 0a9a 808D      		ldd r24,Z+24
 2212 0a9c 8695      		lsr r24
 2213 0a9e 8F70      		andi r24,lo8(15)
 2214 0aa0 8430      		cpi r24,lo8(4)
 2215 0aa2 01F0      		breq .L123
 2216 0aa4 80E0      		ldi r24,lo8(0)
 2217 0aa6 0895      		ret
 2218               	.L123:
 2219               	.LBB375:
 2220               	.LBB376:
 2221               	.LM252:
 2222 0aa8 842F      		mov r24,r20
 2223 0aaa 0E94 0000 		call Timebase_UpCounter_Reset
 2224               	.LVL137:
 2225 0aae 81E0      		ldi r24,lo8(1)
 2226               	.LBE376:
 2227               	.LBE375:
 2228               	.LM253:
 2229 0ab0 0895      		ret
 2230               	.LFE46:
 2232               	.global	Timebase_UpCounter_Set_Period_Value_Securely
 2234               	Timebase_UpCounter_Set_Period_Value_Securely:
 2235               	.LFB47:
 2236               	.LM254:
 2237               	.LVL138:
 2238               	/* prologue: function */
 2239               	/* frame size = 0 */
 2240               	.LBB377:
 2241               	.LBB378:
 2242               	.LM255:
 2243 0ab2 E091 0000 		lds r30,Timebase
 2244 0ab6 F091 0000 		lds r31,(Timebase)+1
 2245 0aba 90E0      		ldi r25,lo8(0)
 2246               	.LBE378:
 2247               	.LBE377:
 2248               	.LM256:
 2249 0abc 25E1      		ldi r18,lo8(21)
 2250 0abe 30E0      		ldi r19,hi8(21)
 2251 0ac0 DC01      		movw r26,r24
 2252               	.LVL139:
 2253 0ac2 A29F      		mul r26,r18
 2254 0ac4 C001      		movw r24,r0
 2255 0ac6 A39F      		mul r26,r19
 2256 0ac8 900D      		add r25,r0
 2257 0aca B29F      		mul r27,r18
 2258 0acc 900D      		add r25,r0
 2259 0ace 1124      		clr r1
 2260 0ad0 E80F      		add r30,r24
 2261 0ad2 F91F      		adc r31,r25
 2262 0ad4 808D      		ldd r24,Z+24
 2263 0ad6 80FD      		sbrc r24,0
 2264 0ad8 00C0      		rjmp .L128
 2265               	.LBB379:
 2266               	.LBB380:
 2267               	.LM257:
 2268 0ada 85A1      		ldd r24,Z+37
 2269 0adc 96A1      		ldd r25,Z+38
 2270 0ade A7A1      		ldd r26,Z+39
 2271 0ae0 B0A5      		ldd r27,Z+40
 2272 0ae2 840F      		add r24,r20
 2273 0ae4 951F      		adc r25,r21
 2274 0ae6 A61F      		adc r26,r22
 2275 0ae8 B71F      		adc r27,r23
 2276 0aea 81A7      		std Z+41,r24
 2277 0aec 92A7      		std Z+42,r25
 2278 0aee A3A7      		std Z+43,r26
 2279 0af0 B4A7      		std Z+44,r27
 2280               	.LBE380:
 2281               	.LBE379:
 2282               	.LBB381:
 2283               	.LBB382:
 2284               	.LM258:
 2285 0af2 808D      		ldd r24,Z+24
 2286 0af4 8160      		ori r24,lo8(1)
 2287 0af6 808F      		std Z+24,r24
 2288               	.L128:
 2289 0af8 0895      		ret
 2290               	.LBE382:
 2291               	.LBE381:
 2292               	.LFE47:
 2294               	.global	Timebase_UpCounter_Get_Remaining_Period_Value
 2296               	Timebase_UpCounter_Get_Remaining_Period_Value:
 2297               	.LFB48:
 2298               	.LM259:
 2299               	.LVL140:
 2300               	/* prologue: function */
 2301               	/* frame size = 0 */
 2302               	.LBB383:
 2303               	.LBB384:
 2304               	.LM260:
 2305 0afa E091 0000 		lds r30,Timebase
 2306 0afe F091 0000 		lds r31,(Timebase)+1
 2307 0b02 90E0      		ldi r25,lo8(0)
 2308               	.LBE384:
 2309               	.LBE383:
 2310               	.LM261:
 2311 0b04 25E1      		ldi r18,lo8(21)
 2312 0b06 30E0      		ldi r19,hi8(21)
 2313 0b08 AC01      		movw r20,r24
 2314               	.LVL141:
 2315 0b0a 429F      		mul r20,r18
 2316 0b0c C001      		movw r24,r0
 2317 0b0e 439F      		mul r20,r19
 2318 0b10 900D      		add r25,r0
 2319 0b12 529F      		mul r21,r18
 2320 0b14 900D      		add r25,r0
 2321 0b16 1124      		clr r1
 2322 0b18 E80F      		add r30,r24
 2323 0b1a F91F      		adc r31,r25
 2324 0b1c 21A5      		ldd r18,Z+41
 2325 0b1e 32A5      		ldd r19,Z+42
 2326 0b20 43A5      		ldd r20,Z+43
 2327 0b22 54A5      		ldd r21,Z+44
 2328               	.LVL142:
 2329 0b24 85A1      		ldd r24,Z+37
 2330 0b26 96A1      		ldd r25,Z+38
 2331 0b28 A7A1      		ldd r26,Z+39
 2332 0b2a B0A5      		ldd r27,Z+40
 2333 0b2c 281B      		sub r18,r24
 2334 0b2e 390B      		sbc r19,r25
 2335 0b30 4A0B      		sbc r20,r26
 2336 0b32 5B0B      		sbc r21,r27
 2337 0b34 57FF      		sbrs r21,7
 2338 0b36 00C0      		rjmp .L130
 2339 0b38 20E0      		ldi r18,lo8(0)
 2340 0b3a 30E0      		ldi r19,hi8(0)
 2341 0b3c 40E0      		ldi r20,hlo8(0)
 2342 0b3e 50E0      		ldi r21,hhi8(0)
 2343               	.L130:
 2344               	.LM262:
 2345 0b40 B901      		movw r22,r18
 2346               	.LVL143:
 2347 0b42 CA01      		movw r24,r20
 2348               	/* epilogue start */
 2349 0b44 0895      		ret
 2350               	.LFE48:
 2352               	.global	Timebase_UpCounter_Period_Value_Expired
 2354               	Timebase_UpCounter_Period_Value_Expired:
 2355               	.LFB49:
 2356               	.LM263:
 2357               	.LVL144:
 2358 0b46 CF93      		push r28
 2359 0b48 DF93      		push r29
 2360               	/* prologue: function */
 2361               	/* frame size = 0 */
 2362               	.LBB385:
 2363               	.LBB386:
 2364               	.LBB387:
 2365               	.LBB388:
 2366               	.LM264:
 2367 0b4a C091 0000 		lds r28,Timebase
 2368 0b4e D091 0000 		lds r29,(Timebase)+1
 2369 0b52 682F      		mov r22,r24
 2370 0b54 70E0      		ldi r23,lo8(0)
 2371               	.LBE388:
 2372               	.LBE387:
 2373               	.LM265:
 2374 0b56 85E1      		ldi r24,lo8(21)
 2375 0b58 90E0      		ldi r25,hi8(21)
 2376               	.LVL145:
 2377 0b5a 689F      		mul r22,r24
 2378 0b5c F001      		movw r30,r0
 2379 0b5e 699F      		mul r22,r25
 2380 0b60 F00D      		add r31,r0
 2381 0b62 789F      		mul r23,r24
 2382 0b64 F00D      		add r31,r0
 2383 0b66 1124      		clr r1
 2384 0b68 EC0F      		add r30,r28
 2385 0b6a FD1F      		adc r31,r29
 2386 0b6c 21A5      		ldd r18,Z+41
 2387 0b6e 32A5      		ldd r19,Z+42
 2388 0b70 43A5      		ldd r20,Z+43
 2389 0b72 54A5      		ldd r21,Z+44
 2390               	.LVL146:
 2391 0b74 85A1      		ldd r24,Z+37
 2392 0b76 96A1      		ldd r25,Z+38
 2393 0b78 A7A1      		ldd r26,Z+39
 2394 0b7a B0A5      		ldd r27,Z+40
 2395 0b7c 281B      		sub r18,r24
 2396 0b7e 390B      		sbc r19,r25
 2397 0b80 4A0B      		sbc r20,r26
 2398 0b82 5B0B      		sbc r21,r27
 2399               	.LM266:
 2400 0b84 57FD      		sbrc r21,7
 2401 0b86 00C0      		rjmp .L133
 2402               	.LBE386:
 2403               	.LBE385:
 2404               	.LM267:
 2405 0b88 2115      		cp r18,__zero_reg__
 2406 0b8a 3105      		cpc r19,__zero_reg__
 2407 0b8c 4105      		cpc r20,__zero_reg__
 2408 0b8e 5105      		cpc r21,__zero_reg__
 2409 0b90 01F0      		breq .L133
 2410 0b92 20E0      		ldi r18,lo8(0)
 2411               	.LVL147:
 2412 0b94 00C0      		rjmp .L134
 2413               	.LVL148:
 2414               	.L133:
 2415 0b96 20E0      		ldi r18,lo8(0)
 2416               	.LVL149:
 2417 0b98 85E1      		ldi r24,lo8(21)
 2418 0b9a 90E0      		ldi r25,hi8(21)
 2419 0b9c AC01      		movw r20,r24
 2420 0b9e 649F      		mul r22,r20
 2421 0ba0 C001      		movw r24,r0
 2422 0ba2 659F      		mul r22,r21
 2423 0ba4 900D      		add r25,r0
 2424 0ba6 749F      		mul r23,r20
 2425 0ba8 900D      		add r25,r0
 2426 0baa 1124      		clr r1
 2427 0bac C80F      		add r28,r24
 2428 0bae D91F      		adc r29,r25
 2429 0bb0 888D      		ldd r24,Y+24
 2430 0bb2 80FF      		sbrs r24,0
 2431 0bb4 21E0      		ldi r18,lo8(1)
 2432               	.L135:
 2433 0bb6 81E0      		ldi r24,lo8(1)
 2434 0bb8 2827      		eor r18,r24
 2435               	.L134:
 2436               	.LM268:
 2437 0bba 822F      		mov r24,r18
 2438               	/* epilogue start */
 2439 0bbc DF91      		pop r29
 2440 0bbe CF91      		pop r28
 2441 0bc0 0895      		ret
 2442               	.LFE49:
 2444               	.global	Timebase_UpCounter_Period_Value_Expired_Event
 2446               	Timebase_UpCounter_Period_Value_Expired_Event:
 2447               	.LFB50:
 2448               	.LM269:
 2449               	.LVL150:
 2450 0bc2 1F93      		push r17
 2451               	/* prologue: function */
 2452               	/* frame size = 0 */
 2453 0bc4 182F      		mov r17,r24
 2454               	.LM270:
 2455 0bc6 0E94 0000 		call Timebase_UpCounter_Period_Value_Expired
 2456               	.LVL151:
 2457 0bca 8130      		cpi r24,lo8(1)
 2458 0bcc 01F0      		breq .L138
 2459 0bce 80E0      		ldi r24,lo8(0)
 2460 0bd0 00C0      		rjmp .L139
 2461               	.L138:
 2462               	.LBB389:
 2463               	.LBB390:
 2464               	.LM271:
 2465 0bd2 E091 0000 		lds r30,Timebase
 2466 0bd6 F091 0000 		lds r31,(Timebase)+1
 2467 0bda 212F      		mov r18,r17
 2468 0bdc 30E0      		ldi r19,lo8(0)
 2469               	.LVL152:
 2470 0bde 85E1      		ldi r24,lo8(21)
 2471 0be0 90E0      		ldi r25,hi8(21)
 2472 0be2 AC01      		movw r20,r24
 2473 0be4 249F      		mul r18,r20
 2474 0be6 C001      		movw r24,r0
 2475 0be8 259F      		mul r18,r21
 2476 0bea 900D      		add r25,r0
 2477 0bec 349F      		mul r19,r20
 2478 0bee 900D      		add r25,r0
 2479 0bf0 1124      		clr r1
 2480 0bf2 E80F      		add r30,r24
 2481 0bf4 F91F      		adc r31,r25
 2482 0bf6 808D      		ldd r24,Z+24
 2483 0bf8 8E7F      		andi r24,lo8(-2)
 2484 0bfa 808F      		std Z+24,r24
 2485 0bfc 81E0      		ldi r24,lo8(1)
 2486               	.L139:
 2487               	/* epilogue start */
 2488               	.LBE390:
 2489               	.LBE389:
 2490               	.LM272:
 2491 0bfe 1F91      		pop r17
 2492               	.LVL153:
 2493 0c00 0895      		ret
 2494               	.LFE50:
 2496               	.global	Timebase_UpCounter_Update_All
 2498               	Timebase_UpCounter_Update_All:
 2499               	.LFB51:
 2500               	.LM273:
 2501               	/* prologue: function */
 2502               	/* frame size = 0 */
 2503               	.LBB391:
 2504               	.LM274:
 2505 0c02 80E0      		ldi r24,lo8(0)
 2506 0c04 0E94 0000 		call Timebase_UpCounter_Update
 2507               	/* epilogue start */
 2508               	.LBE391:
 2509               	.LM275:
 2510 0c08 0895      		ret
 2511               	.LFE51:
 2513               	.global	Timebase_UpCounter_Reset_All
 2515               	Timebase_UpCounter_Reset_All:
 2516               	.LFB52:
 2517               	.LM276:
 2518               	/* prologue: function */
 2519               	/* frame size = 0 */
 2520               	.LBB392:
 2521               	.LM277:
 2522 0c0a 80E0      		ldi r24,lo8(0)
 2523 0c0c 0E94 0000 		call Timebase_UpCounter_Reset
 2524               	/* epilogue start */
 2525               	.LBE392:
 2526               	.LM278:
 2527 0c10 0895      		ret
 2528               	.LFE52:
 2530               	.global	Timebase_DownCounter_Get_Status
 2532               	Timebase_DownCounter_Get_Status:
 2533               	.LFB53:
 2534               	.LM279:
 2535               	.LVL154:
 2536               	/* prologue: function */
 2537               	/* frame size = 0 */
 2538               	.LM280:
 2539 0c12 E091 0000 		lds r30,Timebase
 2540 0c16 F091 0000 		lds r31,(Timebase)+1
 2541 0c1a 90E0      		ldi r25,lo8(0)
 2542               	.LVL155:
 2543 0c1c 2DE0      		ldi r18,lo8(13)
 2544 0c1e 30E0      		ldi r19,hi8(13)
 2545 0c20 AC01      		movw r20,r24
 2546 0c22 429F      		mul r20,r18
 2547 0c24 C001      		movw r24,r0
 2548 0c26 439F      		mul r20,r19
 2549 0c28 900D      		add r25,r0
 2550 0c2a 529F      		mul r21,r18
 2551 0c2c 900D      		add r25,r0
 2552 0c2e 1124      		clr r1
 2553               	.LVL156:
 2554 0c30 E80F      		add r30,r24
 2555 0c32 F91F      		adc r31,r25
 2556 0c34 85A5      		ldd r24,Z+45
 2557 0c36 8695      		lsr r24
 2558               	.LM281:
 2559 0c38 8F70      		andi r24,lo8(15)
 2560               	/* epilogue start */
 2561 0c3a 0895      		ret
 2562               	.LFE53:
 2564               	.global	Timebase_DownCounter_Set_Status
 2566               	Timebase_DownCounter_Set_Status:
 2567               	.LFB54:
 2568               	.LM282:
 2569               	.LVL157:
 2570               	/* prologue: function */
 2571               	/* frame size = 0 */
 2572               	.LM283:
 2573 0c3c E091 0000 		lds r30,Timebase
 2574 0c40 F091 0000 		lds r31,(Timebase)+1
 2575 0c44 90E0      		ldi r25,lo8(0)
 2576               	.LVL158:
 2577 0c46 2DE0      		ldi r18,lo8(13)
 2578 0c48 30E0      		ldi r19,hi8(13)
 2579 0c4a AC01      		movw r20,r24
 2580 0c4c 429F      		mul r20,r18
 2581 0c4e C001      		movw r24,r0
 2582 0c50 439F      		mul r20,r19
 2583 0c52 900D      		add r25,r0
 2584 0c54 529F      		mul r21,r18
 2585 0c56 900D      		add r25,r0
 2586 0c58 1124      		clr r1
 2587               	.LVL159:
 2588 0c5a E80F      		add r30,r24
 2589 0c5c F91F      		adc r31,r25
 2590 0c5e 6F70      		andi r22,lo8(15)
 2591               	.LVL160:
 2592 0c60 660F      		lsl r22
 2593 0c62 85A5      		ldd r24,Z+45
 2594 0c64 817E      		andi r24,lo8(-31)
 2595 0c66 862B      		or r24,r22
 2596 0c68 85A7      		std Z+45,r24
 2597               	/* epilogue start */
 2598               	.LM284:
 2599 0c6a 0895      		ret
 2600               	.LFE54:
 2602               	.global	Timebase_DownCounter_Get_Value
 2604               	Timebase_DownCounter_Get_Value:
 2605               	.LFB55:
 2606               	.LM285:
 2607               	.LVL161:
 2608               	/* prologue: function */
 2609               	/* frame size = 0 */
 2610               	.LM286:
 2611 0c6c E091 0000 		lds r30,Timebase
 2612 0c70 F091 0000 		lds r31,(Timebase)+1
 2613 0c74 90E0      		ldi r25,lo8(0)
 2614               	.LVL162:
 2615 0c76 2DE0      		ldi r18,lo8(13)
 2616 0c78 30E0      		ldi r19,hi8(13)
 2617 0c7a AC01      		movw r20,r24
 2618 0c7c 429F      		mul r20,r18
 2619 0c7e C001      		movw r24,r0
 2620 0c80 439F      		mul r20,r19
 2621 0c82 900D      		add r25,r0
 2622 0c84 529F      		mul r21,r18
 2623 0c86 900D      		add r25,r0
 2624 0c88 1124      		clr r1
 2625               	.LVL163:
 2626 0c8a E80F      		add r30,r24
 2627 0c8c F91F      		adc r31,r25
 2628 0c8e DF01      		movw r26,r30
 2629 0c90 D296      		adiw r26,50
 2630 0c92 62A9      		ldd r22,Z+50
 2631 0c94 1196      		adiw r26,1
 2632 0c96 7C91      		ld r23,X
 2633 0c98 1197      		sbiw r26,1
 2634               	.LM287:
 2635 0c9a 1296      		adiw r26,2
 2636 0c9c 8C91      		ld r24,X
 2637 0c9e 1297      		sbiw r26,2
 2638 0ca0 1396      		adiw r26,3
 2639 0ca2 9C91      		ld r25,X
 2640               	.LVL164:
 2641               	/* epilogue start */
 2642 0ca4 0895      		ret
 2643               	.LFE55:
 2645               	.global	Timebase_DownCounter_Set_Value
 2647               	Timebase_DownCounter_Set_Value:
 2648               	.LFB56:
 2649               	.LM288:
 2650               	.LVL165:
 2651               	/* prologue: function */
 2652               	/* frame size = 0 */
 2653               	.LM289:
 2654 0ca6 E091 0000 		lds r30,Timebase
 2655 0caa F091 0000 		lds r31,(Timebase)+1
 2656 0cae 90E0      		ldi r25,lo8(0)
 2657               	.LVL166:
 2658 0cb0 2DE0      		ldi r18,lo8(13)
 2659 0cb2 30E0      		ldi r19,hi8(13)
 2660 0cb4 DC01      		movw r26,r24
 2661 0cb6 A29F      		mul r26,r18
 2662 0cb8 C001      		movw r24,r0
 2663 0cba A39F      		mul r26,r19
 2664 0cbc 900D      		add r25,r0
 2665 0cbe B29F      		mul r27,r18
 2666 0cc0 900D      		add r25,r0
 2667 0cc2 1124      		clr r1
 2668               	.LVL167:
 2669 0cc4 E80F      		add r30,r24
 2670 0cc6 F91F      		adc r31,r25
 2671 0cc8 42AB      		std Z+50,r20
 2672 0cca 53AB      		std Z+51,r21
 2673 0ccc 64AB      		std Z+52,r22
 2674 0cce 75AB      		std Z+53,r23
 2675               	/* epilogue start */
 2676               	.LM290:
 2677 0cd0 0895      		ret
 2678               	.LFE56:
 2680               	.global	Timebase_DownCounter_Get_EndValue
 2682               	Timebase_DownCounter_Get_EndValue:
 2683               	.LFB57:
 2684               	.LM291:
 2685               	.LVL168:
 2686               	/* prologue: function */
 2687               	/* frame size = 0 */
 2688               	.LM292:
 2689 0cd2 E091 0000 		lds r30,Timebase
 2690 0cd6 F091 0000 		lds r31,(Timebase)+1
 2691 0cda 90E0      		ldi r25,lo8(0)
 2692               	.LVL169:
 2693 0cdc 2DE0      		ldi r18,lo8(13)
 2694 0cde 30E0      		ldi r19,hi8(13)
 2695 0ce0 AC01      		movw r20,r24
 2696 0ce2 429F      		mul r20,r18
 2697 0ce4 C001      		movw r24,r0
 2698 0ce6 439F      		mul r20,r19
 2699 0ce8 900D      		add r25,r0
 2700 0cea 529F      		mul r21,r18
 2701 0cec 900D      		add r25,r0
 2702 0cee 1124      		clr r1
 2703               	.LVL170:
 2704 0cf0 E80F      		add r30,r24
 2705 0cf2 F91F      		adc r31,r25
 2706 0cf4 DF01      		movw r26,r30
 2707 0cf6 9E96      		adiw r26,46
 2708 0cf8 66A5      		ldd r22,Z+46
 2709 0cfa 1196      		adiw r26,1
 2710 0cfc 7C91      		ld r23,X
 2711 0cfe 1197      		sbiw r26,1
 2712               	.LM293:
 2713 0d00 1296      		adiw r26,2
 2714 0d02 8C91      		ld r24,X
 2715 0d04 1297      		sbiw r26,2
 2716 0d06 1396      		adiw r26,3
 2717 0d08 9C91      		ld r25,X
 2718               	.LVL171:
 2719               	/* epilogue start */
 2720 0d0a 0895      		ret
 2721               	.LFE57:
 2723               	.global	Timebase_DownCounter_Set_EndValue
 2725               	Timebase_DownCounter_Set_EndValue:
 2726               	.LFB58:
 2727               	.LM294:
 2728               	.LVL172:
 2729               	/* prologue: function */
 2730               	/* frame size = 0 */
 2731               	.LM295:
 2732 0d0c E091 0000 		lds r30,Timebase
 2733 0d10 F091 0000 		lds r31,(Timebase)+1
 2734 0d14 90E0      		ldi r25,lo8(0)
 2735               	.LVL173:
 2736 0d16 2DE0      		ldi r18,lo8(13)
 2737 0d18 30E0      		ldi r19,hi8(13)
 2738 0d1a DC01      		movw r26,r24
 2739 0d1c A29F      		mul r26,r18
 2740 0d1e C001      		movw r24,r0
 2741 0d20 A39F      		mul r26,r19
 2742 0d22 900D      		add r25,r0
 2743 0d24 B29F      		mul r27,r18
 2744 0d26 900D      		add r25,r0
 2745 0d28 1124      		clr r1
 2746               	.LVL174:
 2747 0d2a E80F      		add r30,r24
 2748 0d2c F91F      		adc r31,r25
 2749 0d2e 46A7      		std Z+46,r20
 2750 0d30 57A7      		std Z+47,r21
 2751 0d32 60AB      		std Z+48,r22
 2752 0d34 71AB      		std Z+49,r23
 2753               	/* epilogue start */
 2754               	.LM296:
 2755 0d36 0895      		ret
 2756               	.LFE58:
 2758               	.global	Timebase_DownCounter_Get_PeriodValue
 2760               	Timebase_DownCounter_Get_PeriodValue:
 2761               	.LFB59:
 2762               	.LM297:
 2763               	.LVL175:
 2764               	/* prologue: function */
 2765               	/* frame size = 0 */
 2766               	.LM298:
 2767 0d38 E091 0000 		lds r30,Timebase
 2768 0d3c F091 0000 		lds r31,(Timebase)+1
 2769 0d40 90E0      		ldi r25,lo8(0)
 2770               	.LVL176:
 2771 0d42 2DE0      		ldi r18,lo8(13)
 2772 0d44 30E0      		ldi r19,hi8(13)
 2773 0d46 AC01      		movw r20,r24
 2774 0d48 429F      		mul r20,r18
 2775 0d4a C001      		movw r24,r0
 2776 0d4c 439F      		mul r20,r19
 2777 0d4e 900D      		add r25,r0
 2778 0d50 529F      		mul r21,r18
 2779 0d52 900D      		add r25,r0
 2780 0d54 1124      		clr r1
 2781               	.LVL177:
 2782 0d56 E80F      		add r30,r24
 2783 0d58 F91F      		adc r31,r25
 2784 0d5a DF01      		movw r26,r30
 2785 0d5c D696      		adiw r26,54
 2786 0d5e 66A9      		ldd r22,Z+54
 2787 0d60 1196      		adiw r26,1
 2788 0d62 7C91      		ld r23,X
 2789 0d64 1197      		sbiw r26,1
 2790               	.LM299:
 2791 0d66 1296      		adiw r26,2
 2792 0d68 8C91      		ld r24,X
 2793 0d6a 1297      		sbiw r26,2
 2794 0d6c 1396      		adiw r26,3
 2795 0d6e 9C91      		ld r25,X
 2796               	.LVL178:
 2797               	/* epilogue start */
 2798 0d70 0895      		ret
 2799               	.LFE59:
 2801               	.global	Timebase_DownCounter_Set_PeriodValue
 2803               	Timebase_DownCounter_Set_PeriodValue:
 2804               	.LFB60:
 2805               	.LM300:
 2806               	.LVL179:
 2807               	/* prologue: function */
 2808               	/* frame size = 0 */
 2809 0d72 E091 0000 		lds r30,Timebase
 2810 0d76 F091 0000 		lds r31,(Timebase)+1
 2811 0d7a 282F      		mov r18,r24
 2812 0d7c 30E0      		ldi r19,lo8(0)
 2813               	.LVL180:
 2814               	.LM301:
 2815 0d7e 77FF      		sbrs r23,7
 2816 0d80 00C0      		rjmp .L160
 2817               	.LVL181:
 2818               	.LM302:
 2819 0d82 8DE0      		ldi r24,lo8(13)
 2820 0d84 90E0      		ldi r25,hi8(13)
 2821 0d86 AC01      		movw r20,r24
 2822               	.LVL182:
 2823 0d88 249F      		mul r18,r20
 2824 0d8a C001      		movw r24,r0
 2825 0d8c 259F      		mul r18,r21
 2826 0d8e 900D      		add r25,r0
 2827 0d90 349F      		mul r19,r20
 2828 0d92 900D      		add r25,r0
 2829 0d94 1124      		clr r1
 2830 0d96 E80F      		add r30,r24
 2831 0d98 F91F      		adc r31,r25
 2832 0d9a 16AA      		std Z+54,__zero_reg__
 2833 0d9c 17AA      		std Z+55,__zero_reg__
 2834 0d9e 10AE      		std Z+56,__zero_reg__
 2835 0da0 11AE      		std Z+57,__zero_reg__
 2836 0da2 0895      		ret
 2837               	.LVL183:
 2838               	.L160:
 2839               	.LM303:
 2840 0da4 8DE0      		ldi r24,lo8(13)
 2841 0da6 90E0      		ldi r25,hi8(13)
 2842 0da8 DC01      		movw r26,r24
 2843 0daa 2A9F      		mul r18,r26
 2844 0dac C001      		movw r24,r0
 2845 0dae 2B9F      		mul r18,r27
 2846 0db0 900D      		add r25,r0
 2847 0db2 3A9F      		mul r19,r26
 2848 0db4 900D      		add r25,r0
 2849 0db6 1124      		clr r1
 2850 0db8 E80F      		add r30,r24
 2851 0dba F91F      		adc r31,r25
 2852 0dbc 46AB      		std Z+54,r20
 2853 0dbe 57AB      		std Z+55,r21
 2854 0dc0 60AF      		std Z+56,r22
 2855 0dc2 71AF      		std Z+57,r23
 2856 0dc4 0895      		ret
 2857               	.LFE60:
 2859               	.global	Timebase_DownCounter_Get_Period_Flag
 2861               	Timebase_DownCounter_Get_Period_Flag:
 2862               	.LFB61:
 2863               	.LM304:
 2864               	.LVL184:
 2865               	/* prologue: function */
 2866               	/* frame size = 0 */
 2867               	.LM305:
 2868 0dc6 E091 0000 		lds r30,Timebase
 2869 0dca F091 0000 		lds r31,(Timebase)+1
 2870 0dce 90E0      		ldi r25,lo8(0)
 2871               	.LVL185:
 2872 0dd0 2DE0      		ldi r18,lo8(13)
 2873 0dd2 30E0      		ldi r19,hi8(13)
 2874 0dd4 AC01      		movw r20,r24
 2875 0dd6 429F      		mul r20,r18
 2876 0dd8 C001      		movw r24,r0
 2877 0dda 439F      		mul r20,r19
 2878 0ddc 900D      		add r25,r0
 2879 0dde 529F      		mul r21,r18
 2880 0de0 900D      		add r25,r0
 2881 0de2 1124      		clr r1
 2882               	.LVL186:
 2883 0de4 E80F      		add r30,r24
 2884 0de6 F91F      		adc r31,r25
 2885 0de8 85A5      		ldd r24,Z+45
 2886               	.LM306:
 2887 0dea 8170      		andi r24,lo8(1)
 2888               	/* epilogue start */
 2889 0dec 0895      		ret
 2890               	.LFE61:
 2892               	.global	Timebase_DownCounter_Set_Period_Flag
 2894               	Timebase_DownCounter_Set_Period_Flag:
 2895               	.LFB62:
 2896               	.LM307:
 2897               	.LVL187:
 2898               	/* prologue: function */
 2899               	/* frame size = 0 */
 2900               	.LM308:
 2901 0dee E091 0000 		lds r30,Timebase
 2902 0df2 F091 0000 		lds r31,(Timebase)+1
 2903 0df6 90E0      		ldi r25,lo8(0)
 2904               	.LVL188:
 2905 0df8 2DE0      		ldi r18,lo8(13)
 2906 0dfa 30E0      		ldi r19,hi8(13)
 2907 0dfc AC01      		movw r20,r24
 2908 0dfe 429F      		mul r20,r18
 2909 0e00 C001      		movw r24,r0
 2910 0e02 439F      		mul r20,r19
 2911 0e04 900D      		add r25,r0
 2912 0e06 529F      		mul r21,r18
 2913 0e08 900D      		add r25,r0
 2914 0e0a 1124      		clr r1
 2915               	.LVL189:
 2916 0e0c E80F      		add r30,r24
 2917 0e0e F91F      		adc r31,r25
 2918 0e10 85A5      		ldd r24,Z+45
 2919 0e12 8160      		ori r24,lo8(1)
 2920 0e14 85A7      		std Z+45,r24
 2921               	/* epilogue start */
 2922               	.LM309:
 2923 0e16 0895      		ret
 2924               	.LFE62:
 2926               	.global	Timebase_DownCounter_Clear_Period_Flag
 2928               	Timebase_DownCounter_Clear_Period_Flag:
 2929               	.LFB63:
 2930               	.LM310:
 2931               	.LVL190:
 2932               	/* prologue: function */
 2933               	/* frame size = 0 */
 2934               	.LM311:
 2935 0e18 E091 0000 		lds r30,Timebase
 2936 0e1c F091 0000 		lds r31,(Timebase)+1
 2937 0e20 90E0      		ldi r25,lo8(0)
 2938               	.LVL191:
 2939 0e22 2DE0      		ldi r18,lo8(13)
 2940 0e24 30E0      		ldi r19,hi8(13)
 2941 0e26 AC01      		movw r20,r24
 2942 0e28 429F      		mul r20,r18
 2943 0e2a C001      		movw r24,r0
 2944 0e2c 439F      		mul r20,r19
 2945 0e2e 900D      		add r25,r0
 2946 0e30 529F      		mul r21,r18
 2947 0e32 900D      		add r25,r0
 2948 0e34 1124      		clr r1
 2949               	.LVL192:
 2950 0e36 E80F      		add r30,r24
 2951 0e38 F91F      		adc r31,r25
 2952 0e3a 85A5      		ldd r24,Z+45
 2953 0e3c 8E7F      		andi r24,lo8(-2)
 2954 0e3e 85A7      		std Z+45,r24
 2955               	/* epilogue start */
 2956               	.LM312:
 2957 0e40 0895      		ret
 2958               	.LFE63:
 2960               	.global	Timebase_DownCounter_Reset
 2962               	Timebase_DownCounter_Reset:
 2963               	.LFB64:
 2964               	.LM313:
 2965               	.LVL193:
 2966               	/* prologue: function */
 2967               	/* frame size = 0 */
 2968               	.LBB393:
 2969               	.LBB394:
 2970               	.LM314:
 2971 0e42 E091 0000 		lds r30,Timebase
 2972 0e46 F091 0000 		lds r31,(Timebase)+1
 2973 0e4a 90E0      		ldi r25,lo8(0)
 2974 0e4c 2DE0      		ldi r18,lo8(13)
 2975 0e4e 30E0      		ldi r19,hi8(13)
 2976 0e50 AC01      		movw r20,r24
 2977               	.LVL194:
 2978 0e52 429F      		mul r20,r18
 2979 0e54 C001      		movw r24,r0
 2980 0e56 439F      		mul r20,r19
 2981 0e58 900D      		add r25,r0
 2982 0e5a 529F      		mul r21,r18
 2983 0e5c 900D      		add r25,r0
 2984 0e5e 1124      		clr r1
 2985 0e60 E80F      		add r30,r24
 2986 0e62 F91F      		adc r31,r25
 2987 0e64 16A6      		std Z+46,__zero_reg__
 2988 0e66 17A6      		std Z+47,__zero_reg__
 2989 0e68 10AA      		std Z+48,__zero_reg__
 2990 0e6a 11AA      		std Z+49,__zero_reg__
 2991               	.LBE394:
 2992               	.LBE393:
 2993               	.LBB395:
 2994               	.LBB396:
 2995               	.LM315:
 2996 0e6c 12AA      		std Z+50,__zero_reg__
 2997 0e6e 13AA      		std Z+51,__zero_reg__
 2998 0e70 14AA      		std Z+52,__zero_reg__
 2999 0e72 15AA      		std Z+53,__zero_reg__
 3000               	.LBE396:
 3001               	.LBE395:
 3002               	.LBB397:
 3003               	.LBB398:
 3004               	.LM316:
 3005 0e74 85A5      		ldd r24,Z+45
 3006               	.LBE398:
 3007               	.LBE397:
 3008               	.LBB399:
 3009               	.LBB400:
 3010               	.LM317:
 3011 0e76 807E      		andi r24,lo8(-32)
 3012 0e78 85A7      		std Z+45,r24
 3013               	/* epilogue start */
 3014               	.LBE400:
 3015               	.LBE399:
 3016               	.LM318:
 3017 0e7a 0895      		ret
 3018               	.LFE64:
 3020               	.global	Timebase_DownCounter_Clear_All_Flags
 3022               	Timebase_DownCounter_Clear_All_Flags:
 3023               	.LFB65:
 3024               	.LM319:
 3025               	.LVL195:
 3026               	/* prologue: function */
 3027               	/* frame size = 0 */
 3028               	.LBB401:
 3029               	.LBB402:
 3030               	.LBB403:
 3031               	.LBB404:
 3032               	.LM320:
 3033 0e7c E091 0000 		lds r30,Timebase
 3034 0e80 F091 0000 		lds r31,(Timebase)+1
 3035 0e84 90E0      		ldi r25,lo8(0)
 3036 0e86 2DE0      		ldi r18,lo8(13)
 3037 0e88 30E0      		ldi r19,hi8(13)
 3038 0e8a AC01      		movw r20,r24
 3039               	.LVL196:
 3040 0e8c 429F      		mul r20,r18
 3041 0e8e C001      		movw r24,r0
 3042 0e90 439F      		mul r20,r19
 3043 0e92 900D      		add r25,r0
 3044 0e94 529F      		mul r21,r18
 3045 0e96 900D      		add r25,r0
 3046 0e98 1124      		clr r1
 3047 0e9a E80F      		add r30,r24
 3048 0e9c F91F      		adc r31,r25
 3049 0e9e 16A6      		std Z+46,__zero_reg__
 3050 0ea0 17A6      		std Z+47,__zero_reg__
 3051 0ea2 10AA      		std Z+48,__zero_reg__
 3052 0ea4 11AA      		std Z+49,__zero_reg__
 3053               	.LBE404:
 3054               	.LBE403:
 3055               	.LBB405:
 3056               	.LBB406:
 3057               	.LM321:
 3058 0ea6 12AA      		std Z+50,__zero_reg__
 3059 0ea8 13AA      		std Z+51,__zero_reg__
 3060 0eaa 14AA      		std Z+52,__zero_reg__
 3061 0eac 15AA      		std Z+53,__zero_reg__
 3062               	.LBE406:
 3063               	.LBE405:
 3064               	.LBB407:
 3065               	.LBB408:
 3066               	.LM322:
 3067 0eae 85A5      		ldd r24,Z+45
 3068               	.LBE408:
 3069               	.LBE407:
 3070               	.LBB409:
 3071               	.LBB410:
 3072               	.LM323:
 3073 0eb0 807E      		andi r24,lo8(-32)
 3074 0eb2 85A7      		std Z+45,r24
 3075               	/* epilogue start */
 3076               	.LBE410:
 3077               	.LBE409:
 3078               	.LBE402:
 3079               	.LBE401:
 3080               	.LM324:
 3081 0eb4 0895      		ret
 3082               	.LFE65:
 3084               	.global	Timebase_DownCounter_Start
 3086               	Timebase_DownCounter_Start:
 3087               	.LFB66:
 3088               	.LM325:
 3089               	.LVL197:
 3090               	/* prologue: function */
 3091               	/* frame size = 0 */
 3092               	.LBB411:
 3093               	.LBB412:
 3094               	.LM326:
 3095 0eb6 E091 0000 		lds r30,Timebase
 3096 0eba F091 0000 		lds r31,(Timebase)+1
 3097 0ebe 90E0      		ldi r25,lo8(0)
 3098               	.LBE412:
 3099               	.LBE411:
 3100               	.LM327:
 3101 0ec0 2DE0      		ldi r18,lo8(13)
 3102 0ec2 30E0      		ldi r19,hi8(13)
 3103 0ec4 AC01      		movw r20,r24
 3104               	.LVL198:
 3105 0ec6 429F      		mul r20,r18
 3106 0ec8 C001      		movw r24,r0
 3107 0eca 439F      		mul r20,r19
 3108 0ecc 900D      		add r25,r0
 3109 0ece 529F      		mul r21,r18
 3110 0ed0 900D      		add r25,r0
 3111 0ed2 1124      		clr r1
 3112 0ed4 E80F      		add r30,r24
 3113 0ed6 F91F      		adc r31,r25
 3114 0ed8 95A5      		ldd r25,Z+45
 3115 0eda 892F      		mov r24,r25
 3116 0edc 8695      		lsr r24
 3117 0ede 8F70      		andi r24,lo8(15)
 3118 0ee0 8130      		cpi r24,lo8(1)
 3119 0ee2 01F0      		breq .L175
 3120               	.LBB413:
 3121               	.LBB414:
 3122               	.LM328:
 3123 0ee4 917E      		andi r25,lo8(-31)
 3124 0ee6 9260      		ori r25,lo8(2)
 3125 0ee8 95A7      		std Z+45,r25
 3126               	.L175:
 3127 0eea 0895      		ret
 3128               	.LBE414:
 3129               	.LBE413:
 3130               	.LFE66:
 3132               	.global	Timebase_DownCounter_Stop
 3134               	Timebase_DownCounter_Stop:
 3135               	.LFB67:
 3136               	.LM329:
 3137               	.LVL199:
 3138               	/* prologue: function */
 3139               	/* frame size = 0 */
 3140               	.LBB415:
 3141               	.LBB416:
 3142               	.LM330:
 3143 0eec E091 0000 		lds r30,Timebase
 3144 0ef0 F091 0000 		lds r31,(Timebase)+1
 3145 0ef4 90E0      		ldi r25,lo8(0)
 3146               	.LBE416:
 3147               	.LBE415:
 3148               	.LM331:
 3149 0ef6 2DE0      		ldi r18,lo8(13)
 3150 0ef8 30E0      		ldi r19,hi8(13)
 3151 0efa AC01      		movw r20,r24
 3152               	.LVL200:
 3153 0efc 429F      		mul r20,r18
 3154 0efe C001      		movw r24,r0
 3155 0f00 439F      		mul r20,r19
 3156 0f02 900D      		add r25,r0
 3157 0f04 529F      		mul r21,r18
 3158 0f06 900D      		add r25,r0
 3159 0f08 1124      		clr r1
 3160 0f0a E80F      		add r30,r24
 3161 0f0c F91F      		adc r31,r25
 3162 0f0e 95A5      		ldd r25,Z+45
 3163 0f10 892F      		mov r24,r25
 3164 0f12 8695      		lsr r24
 3165 0f14 8F70      		andi r24,lo8(15)
 3166 0f16 8230      		cpi r24,lo8(2)
 3167 0f18 01F0      		breq .L178
 3168               	.LBB417:
 3169               	.LBB418:
 3170               	.LM332:
 3171 0f1a 917E      		andi r25,lo8(-31)
 3172 0f1c 9460      		ori r25,lo8(4)
 3173 0f1e 95A7      		std Z+45,r25
 3174               	.L178:
 3175 0f20 0895      		ret
 3176               	.LBE418:
 3177               	.LBE417:
 3178               	.LFE67:
 3180               	.global	Timebase_DownCounter_Set_Securely
 3182               	Timebase_DownCounter_Set_Securely:
 3183               	.LFB68:
 3184               	.LM333:
 3185               	.LVL201:
 3186               	/* prologue: function */
 3187               	/* frame size = 0 */
 3188               	.LBB419:
 3189               	.LBB420:
 3190               	.LM334:
 3191 0f22 A091 0000 		lds r26,Timebase
 3192 0f26 B091 0000 		lds r27,(Timebase)+1
 3193 0f2a 90E0      		ldi r25,lo8(0)
 3194               	.LBE420:
 3195               	.LBE419:
 3196               	.LM335:
 3197 0f2c 2DE0      		ldi r18,lo8(13)
 3198 0f2e 30E0      		ldi r19,hi8(13)
 3199 0f30 829F      		mul r24,r18
 3200 0f32 F001      		movw r30,r0
 3201 0f34 839F      		mul r24,r19
 3202 0f36 F00D      		add r31,r0
 3203 0f38 929F      		mul r25,r18
 3204 0f3a F00D      		add r31,r0
 3205 0f3c 1124      		clr r1
 3206               	.LVL202:
 3207 0f3e EA0F      		add r30,r26
 3208 0f40 FB1F      		adc r31,r27
 3209 0f42 85A5      		ldd r24,Z+45
 3210 0f44 8695      		lsr r24
 3211 0f46 8F70      		andi r24,lo8(15)
 3212 0f48 01F4      		brne .L181
 3213               	.LBB421:
 3214               	.LBB422:
 3215               	.LM336:
 3216 0f4a 42AB      		std Z+50,r20
 3217 0f4c 53AB      		std Z+51,r21
 3218 0f4e 64AB      		std Z+52,r22
 3219 0f50 75AB      		std Z+53,r23
 3220               	.LBE422:
 3221               	.LBE421:
 3222               	.LBB423:
 3223               	.LBB424:
 3224               	.LM337:
 3225 0f52 1A96      		adiw r26,10
 3226 0f54 8D91      		ld r24,X+
 3227 0f56 9D91      		ld r25,X+
 3228 0f58 0D90      		ld __tmp_reg__,X+
 3229 0f5a BC91      		ld r27,X
 3230 0f5c A02D      		mov r26,__tmp_reg__
 3231               	.LBE424:
 3232               	.LBE423:
 3233               	.LBB425:
 3234               	.LBB426:
 3235               	.LM338:
 3236 0f5e 840F      		add r24,r20
 3237 0f60 951F      		adc r25,r21
 3238 0f62 A61F      		adc r26,r22
 3239 0f64 B71F      		adc r27,r23
 3240 0f66 86A7      		std Z+46,r24
 3241 0f68 97A7      		std Z+47,r25
 3242 0f6a A0AB      		std Z+48,r26
 3243 0f6c B1AB      		std Z+49,r27
 3244               	.LBE426:
 3245               	.LBE425:
 3246               	.LBB427:
 3247               	.LBB428:
 3248               	.LM339:
 3249 0f6e 95A5      		ldd r25,Z+45
 3250 0f70 892F      		mov r24,r25
 3251 0f72 8695      		lsr r24
 3252 0f74 8F70      		andi r24,lo8(15)
 3253 0f76 8130      		cpi r24,lo8(1)
 3254 0f78 01F0      		breq .L181
 3255               	.LBB429:
 3256               	.LBB430:
 3257               	.LM340:
 3258 0f7a 917E      		andi r25,lo8(-31)
 3259 0f7c 9260      		ori r25,lo8(2)
 3260 0f7e 95A7      		std Z+45,r25
 3261               	.L181:
 3262 0f80 0895      		ret
 3263               	.LBE430:
 3264               	.LBE429:
 3265               	.LBE428:
 3266               	.LBE427:
 3267               	.LFE68:
 3269               	.global	Timebase_DownCounter_Set_Forcefully
 3271               	Timebase_DownCounter_Set_Forcefully:
 3272               	.LFB69:
 3273               	.LM341:
 3274               	.LVL203:
 3275 0f82 CF93      		push r28
 3276 0f84 DF93      		push r29
 3277               	/* prologue: function */
 3278               	/* frame size = 0 */
 3279               	.LBB431:
 3280               	.LBB432:
 3281               	.LBB433:
 3282               	.LBB434:
 3283               	.LM342:
 3284 0f86 E091 0000 		lds r30,Timebase
 3285 0f8a F091 0000 		lds r31,(Timebase)+1
 3286 0f8e A82F      		mov r26,r24
 3287 0f90 B0E0      		ldi r27,lo8(0)
 3288 0f92 2DE0      		ldi r18,lo8(13)
 3289 0f94 30E0      		ldi r19,hi8(13)
 3290 0f96 E901      		movw r28,r18
 3291 0f98 AC9F      		mul r26,r28
 3292 0f9a 9001      		movw r18,r0
 3293 0f9c AD9F      		mul r26,r29
 3294 0f9e 300D      		add r19,r0
 3295 0fa0 BC9F      		mul r27,r28
 3296 0fa2 300D      		add r19,r0
 3297 0fa4 1124      		clr r1
 3298 0fa6 E20F      		add r30,r18
 3299 0fa8 F31F      		adc r31,r19
 3300 0faa 16A6      		std Z+46,__zero_reg__
 3301 0fac 17A6      		std Z+47,__zero_reg__
 3302 0fae 10AA      		std Z+48,__zero_reg__
 3303 0fb0 11AA      		std Z+49,__zero_reg__
 3304               	.LBE434:
 3305               	.LBE433:
 3306               	.LBB435:
 3307               	.LBB436:
 3308               	.LM343:
 3309 0fb2 12AA      		std Z+50,__zero_reg__
 3310 0fb4 13AA      		std Z+51,__zero_reg__
 3311 0fb6 14AA      		std Z+52,__zero_reg__
 3312 0fb8 15AA      		std Z+53,__zero_reg__
 3313               	.LBE436:
 3314               	.LBE435:
 3315               	.LBB437:
 3316               	.LBB438:
 3317               	.LM344:
 3318 0fba 95A5      		ldd r25,Z+45
 3319               	.LBE438:
 3320               	.LBE437:
 3321               	.LBB439:
 3322               	.LBB440:
 3323               	.LM345:
 3324 0fbc 907E      		andi r25,lo8(-32)
 3325 0fbe 95A7      		std Z+45,r25
 3326               	.LBE440:
 3327               	.LBE439:
 3328               	.LBE432:
 3329               	.LBE431:
 3330               	.LM346:
 3331 0fc0 0E94 0000 		call Timebase_DownCounter_Set_Securely
 3332               	.LVL204:
 3333               	/* epilogue start */
 3334               	.LM347:
 3335 0fc4 DF91      		pop r29
 3336 0fc6 CF91      		pop r28
 3337 0fc8 0895      		ret
 3338               	.LFE69:
 3340               	.global	Timebase_DownCounter_Update
 3342               	Timebase_DownCounter_Update:
 3343               	.LFB70:
 3344               	.LM348:
 3345               	.LVL205:
 3346               	/* prologue: function */
 3347               	/* frame size = 0 */
 3348               	.LBB441:
 3349               	.LBB442:
 3350               	.LM349:
 3351 0fca A091 0000 		lds r26,Timebase
 3352 0fce B091 0000 		lds r27,(Timebase)+1
 3353 0fd2 90E0      		ldi r25,lo8(0)
 3354 0fd4 2DE0      		ldi r18,lo8(13)
 3355 0fd6 30E0      		ldi r19,hi8(13)
 3356 0fd8 829F      		mul r24,r18
 3357 0fda F001      		movw r30,r0
 3358 0fdc 839F      		mul r24,r19
 3359 0fde F00D      		add r31,r0
 3360 0fe0 929F      		mul r25,r18
 3361 0fe2 F00D      		add r31,r0
 3362 0fe4 1124      		clr r1
 3363               	.LVL206:
 3364 0fe6 EA0F      		add r30,r26
 3365 0fe8 FB1F      		adc r31,r27
 3366 0fea 85A5      		ldd r24,Z+45
 3367 0fec 8695      		lsr r24
 3368 0fee 8F70      		andi r24,lo8(15)
 3369               	.LBE442:
 3370               	.LBE441:
 3371               	.LM350:
 3372 0ff0 8130      		cpi r24,lo8(1)
 3373 0ff2 01F4      		brne .L185
 3374               	.LBB443:
 3375               	.LBB444:
 3376               	.LM351:
 3377 0ff4 1A96      		adiw r26,10
 3378 0ff6 2D91      		ld r18,X+
 3379 0ff8 3D91      		ld r19,X+
 3380 0ffa 4D91      		ld r20,X+
 3381 0ffc 5C91      		ld r21,X
 3382 0ffe 1D97      		sbiw r26,10+3
 3383               	.LBE444:
 3384               	.LBE443:
 3385               	.LM352:
 3386 1000 86A5      		ldd r24,Z+46
 3387 1002 97A5      		ldd r25,Z+47
 3388 1004 A0A9      		ldd r26,Z+48
 3389 1006 B1A9      		ldd r27,Z+49
 3390 1008 821B      		sub r24,r18
 3391 100a 930B      		sbc r25,r19
 3392 100c A40B      		sbc r26,r20
 3393 100e B50B      		sbc r27,r21
 3394               	.LBB445:
 3395               	.LBB446:
 3396               	.LM353:
 3397 1010 82AB      		std Z+50,r24
 3398 1012 93AB      		std Z+51,r25
 3399 1014 A4AB      		std Z+52,r26
 3400 1016 B5AB      		std Z+53,r27
 3401               	.LBE446:
 3402               	.LBE445:
 3403               	.LM354:
 3404 1018 1816      		cp __zero_reg__,r24
 3405 101a 1906      		cpc __zero_reg__,r25
 3406 101c 1A06      		cpc __zero_reg__,r26
 3407 101e 1B06      		cpc __zero_reg__,r27
 3408 1020 04F0      		brlt .L187
 3409               	.LBB447:
 3410               	.LBB448:
 3411               	.LBB449:
 3412               	.LBB450:
 3413               	.LM355:
 3414 1022 16A6      		std Z+46,__zero_reg__
 3415 1024 17A6      		std Z+47,__zero_reg__
 3416 1026 10AA      		std Z+48,__zero_reg__
 3417 1028 11AA      		std Z+49,__zero_reg__
 3418               	.LBE450:
 3419               	.LBE449:
 3420               	.LBB451:
 3421               	.LBB452:
 3422               	.LM356:
 3423 102a 12AA      		std Z+50,__zero_reg__
 3424 102c 13AA      		std Z+51,__zero_reg__
 3425 102e 14AA      		std Z+52,__zero_reg__
 3426 1030 15AA      		std Z+53,__zero_reg__
 3427               	.LBE452:
 3428               	.LBE451:
 3429               	.LBB453:
 3430               	.LBB454:
 3431               	.LM357:
 3432 1032 85A5      		ldd r24,Z+45
 3433               	.LBE454:
 3434               	.LBE453:
 3435               	.LBE448:
 3436               	.LBE447:
 3437               	.LBB455:
 3438               	.LBB456:
 3439               	.LM358:
 3440 1034 807E      		andi r24,lo8(-32)
 3441 1036 8860      		ori r24,lo8(8)
 3442 1038 85A7      		std Z+45,r24
 3443 103a 0895      		ret
 3444               	.L185:
 3445               	.LBE456:
 3446               	.LBE455:
 3447               	.LM359:
 3448 103c 8230      		cpi r24,lo8(2)
 3449 103e 01F4      		brne .L187
 3450               	.LBB457:
 3451               	.LBB458:
 3452               	.LM360:
 3453 1040 1A96      		adiw r26,10
 3454 1042 8D91      		ld r24,X+
 3455 1044 9D91      		ld r25,X+
 3456 1046 0D90      		ld __tmp_reg__,X+
 3457 1048 BC91      		ld r27,X
 3458 104a A02D      		mov r26,__tmp_reg__
 3459               	.LBE458:
 3460               	.LBE457:
 3461               	.LBB459:
 3462               	.LBB460:
 3463               	.LM361:
 3464 104c 22A9      		ldd r18,Z+50
 3465 104e 33A9      		ldd r19,Z+51
 3466 1050 44A9      		ldd r20,Z+52
 3467 1052 55A9      		ldd r21,Z+53
 3468 1054 820F      		add r24,r18
 3469 1056 931F      		adc r25,r19
 3470 1058 A41F      		adc r26,r20
 3471 105a B51F      		adc r27,r21
 3472 105c 86A7      		std Z+46,r24
 3473 105e 97A7      		std Z+47,r25
 3474 1060 A0AB      		std Z+48,r26
 3475 1062 B1AB      		std Z+49,r27
 3476               	.L187:
 3477 1064 0895      		ret
 3478               	.LBE460:
 3479               	.LBE459:
 3480               	.LFE70:
 3482               	.global	Timebase_DownCounter_Expired
 3484               	Timebase_DownCounter_Expired:
 3485               	.LFB71:
 3486               	.LM362:
 3487               	.LVL207:
 3488               	/* prologue: function */
 3489               	/* frame size = 0 */
 3490               	.LM363:
 3491 1066 40E0      		ldi r20,lo8(0)
 3492 1068 E091 0000 		lds r30,Timebase
 3493 106c F091 0000 		lds r31,(Timebase)+1
 3494 1070 90E0      		ldi r25,lo8(0)
 3495               	.LVL208:
 3496 1072 2DE0      		ldi r18,lo8(13)
 3497 1074 30E0      		ldi r19,hi8(13)
 3498 1076 BC01      		movw r22,r24
 3499 1078 629F      		mul r22,r18
 3500 107a C001      		movw r24,r0
 3501 107c 639F      		mul r22,r19
 3502 107e 900D      		add r25,r0
 3503 1080 729F      		mul r23,r18
 3504 1082 900D      		add r25,r0
 3505 1084 1124      		clr r1
 3506               	.LVL209:
 3507 1086 E80F      		add r30,r24
 3508 1088 F91F      		adc r31,r25
 3509 108a 85A5      		ldd r24,Z+45
 3510 108c 8695      		lsr r24
 3511 108e 8F70      		andi r24,lo8(15)
 3512 1090 8430      		cpi r24,lo8(4)
 3513 1092 01F4      		brne .L189
 3514 1094 41E0      		ldi r20,lo8(1)
 3515               	.L189:
 3516               	.LM364:
 3517 1096 842F      		mov r24,r20
 3518               	/* epilogue start */
 3519 1098 0895      		ret
 3520               	.LFE71:
 3522               	.global	Timebase_DownCounter_Expired_Event
 3524               	Timebase_DownCounter_Expired_Event:
 3525               	.LFB72:
 3526               	.LM365:
 3527               	.LVL210:
 3528               	/* prologue: function */
 3529               	/* frame size = 0 */
 3530               	.LBB461:
 3531               	.LBB462:
 3532               	.LM366:
 3533 109a E091 0000 		lds r30,Timebase
 3534 109e F091 0000 		lds r31,(Timebase)+1
 3535 10a2 90E0      		ldi r25,lo8(0)
 3536               	.LBE462:
 3537               	.LBE461:
 3538               	.LM367:
 3539 10a4 2DE0      		ldi r18,lo8(13)
 3540 10a6 30E0      		ldi r19,hi8(13)
 3541 10a8 AC01      		movw r20,r24
 3542               	.LVL211:
 3543 10aa 429F      		mul r20,r18
 3544 10ac C001      		movw r24,r0
 3545 10ae 439F      		mul r20,r19
 3546 10b0 900D      		add r25,r0
 3547 10b2 529F      		mul r21,r18
 3548 10b4 900D      		add r25,r0
 3549 10b6 1124      		clr r1
 3550 10b8 E80F      		add r30,r24
 3551 10ba F91F      		adc r31,r25
 3552 10bc 85A5      		ldd r24,Z+45
 3553 10be 8695      		lsr r24
 3554 10c0 8F70      		andi r24,lo8(15)
 3555 10c2 8430      		cpi r24,lo8(4)
 3556 10c4 01F0      		breq .L192
 3557 10c6 80E0      		ldi r24,lo8(0)
 3558 10c8 0895      		ret
 3559               	.L192:
 3560               	.LBB463:
 3561               	.LBB464:
 3562               	.LBB465:
 3563               	.LBB466:
 3564               	.LBB467:
 3565               	.LBB468:
 3566               	.LM368:
 3567 10ca 16A6      		std Z+46,__zero_reg__
 3568 10cc 17A6      		std Z+47,__zero_reg__
 3569 10ce 10AA      		std Z+48,__zero_reg__
 3570 10d0 11AA      		std Z+49,__zero_reg__
 3571               	.LBE468:
 3572               	.LBE467:
 3573               	.LBB469:
 3574               	.LBB470:
 3575               	.LM369:
 3576 10d2 12AA      		std Z+50,__zero_reg__
 3577 10d4 13AA      		std Z+51,__zero_reg__
 3578 10d6 14AA      		std Z+52,__zero_reg__
 3579 10d8 15AA      		std Z+53,__zero_reg__
 3580               	.LBE470:
 3581               	.LBE469:
 3582               	.LBB471:
 3583               	.LBB472:
 3584               	.LM370:
 3585 10da 85A5      		ldd r24,Z+45
 3586               	.LBE472:
 3587               	.LBE471:
 3588               	.LBB473:
 3589               	.LBB474:
 3590               	.LM371:
 3591 10dc 807E      		andi r24,lo8(-32)
 3592 10de 85A7      		std Z+45,r24
 3593 10e0 81E0      		ldi r24,lo8(1)
 3594               	.LBE474:
 3595               	.LBE473:
 3596               	.LBE466:
 3597               	.LBE465:
 3598               	.LBE464:
 3599               	.LBE463:
 3600               	.LM372:
 3601 10e2 0895      		ret
 3602               	.LFE72:
 3604               	.global	Timebase_DownCounter_Set_Period_Value_Securely
 3606               	Timebase_DownCounter_Set_Period_Value_Securely:
 3607               	.LFB73:
 3608               	.LM373:
 3609               	.LVL212:
 3610 10e4 CF93      		push r28
 3611 10e6 DF93      		push r29
 3612               	/* prologue: function */
 3613               	/* frame size = 0 */
 3614               	.LBB475:
 3615               	.LBB476:
 3616               	.LM374:
 3617 10e8 C091 0000 		lds r28,Timebase
 3618 10ec D091 0000 		lds r29,(Timebase)+1
 3619 10f0 282F      		mov r18,r24
 3620 10f2 30E0      		ldi r19,lo8(0)
 3621               	.LBE476:
 3622               	.LBE475:
 3623               	.LM375:
 3624 10f4 8DE0      		ldi r24,lo8(13)
 3625 10f6 90E0      		ldi r25,hi8(13)
 3626               	.LVL213:
 3627 10f8 289F      		mul r18,r24
 3628 10fa F001      		movw r30,r0
 3629 10fc 299F      		mul r18,r25
 3630 10fe F00D      		add r31,r0
 3631 1100 389F      		mul r19,r24
 3632 1102 F00D      		add r31,r0
 3633 1104 1124      		clr r1
 3634 1106 EC0F      		add r30,r28
 3635 1108 FD1F      		adc r31,r29
 3636 110a 85A5      		ldd r24,Z+45
 3637 110c 80FD      		sbrc r24,0
 3638 110e 00C0      		rjmp .L199
 3639               	.LM376:
 3640 1110 82A9      		ldd r24,Z+50
 3641 1112 93A9      		ldd r25,Z+51
 3642 1114 A4A9      		ldd r26,Z+52
 3643 1116 B5A9      		ldd r27,Z+53
 3644 1118 841B      		sub r24,r20
 3645 111a 950B      		sbc r25,r21
 3646 111c A60B      		sbc r26,r22
 3647 111e B70B      		sbc r27,r23
 3648               	.LBB477:
 3649               	.LBB478:
 3650               	.LM377:
 3651 1120 B7FF      		sbrs r27,7
 3652 1122 00C0      		rjmp .L197
 3653               	.LM378:
 3654 1124 16AA      		std Z+54,__zero_reg__
 3655 1126 17AA      		std Z+55,__zero_reg__
 3656 1128 10AE      		std Z+56,__zero_reg__
 3657 112a 11AE      		std Z+57,__zero_reg__
 3658 112c 00C0      		rjmp .L198
 3659               	.L197:
 3660               	.LM379:
 3661 112e 86AB      		std Z+54,r24
 3662 1130 97AB      		std Z+55,r25
 3663 1132 A0AF      		std Z+56,r26
 3664 1134 B1AF      		std Z+57,r27
 3665               	.L198:
 3666               	.LBE478:
 3667               	.LBE477:
 3668               	.LBB479:
 3669               	.LBB480:
 3670               	.LM380:
 3671 1136 8DE0      		ldi r24,lo8(13)
 3672 1138 90E0      		ldi r25,hi8(13)
 3673 113a 289F      		mul r18,r24
 3674 113c F001      		movw r30,r0
 3675 113e 299F      		mul r18,r25
 3676 1140 F00D      		add r31,r0
 3677 1142 389F      		mul r19,r24
 3678 1144 F00D      		add r31,r0
 3679 1146 1124      		clr r1
 3680 1148 EC0F      		add r30,r28
 3681 114a FD1F      		adc r31,r29
 3682 114c 85A5      		ldd r24,Z+45
 3683 114e 8160      		ori r24,lo8(1)
 3684 1150 85A7      		std Z+45,r24
 3685               	.L199:
 3686               	/* epilogue start */
 3687               	.LBE480:
 3688               	.LBE479:
 3689               	.LM381:
 3690 1152 DF91      		pop r29
 3691 1154 CF91      		pop r28
 3692 1156 0895      		ret
 3693               	.LFE73:
 3695               	.global	Timebase_DownCounter_Get_Remaining_Period_Value
 3697               	Timebase_DownCounter_Get_Remaining_Period_Value:
 3698               	.LFB74:
 3699               	.LM382:
 3700               	.LVL214:
 3701               	/* prologue: function */
 3702               	/* frame size = 0 */
 3703               	.LBB481:
 3704               	.LBB482:
 3705               	.LM383:
 3706 1158 E091 0000 		lds r30,Timebase
 3707 115c F091 0000 		lds r31,(Timebase)+1
 3708 1160 90E0      		ldi r25,lo8(0)
 3709               	.LBE482:
 3710               	.LBE481:
 3711               	.LM384:
 3712 1162 2DE0      		ldi r18,lo8(13)
 3713 1164 30E0      		ldi r19,hi8(13)
 3714 1166 AC01      		movw r20,r24
 3715               	.LVL215:
 3716 1168 429F      		mul r20,r18
 3717 116a C001      		movw r24,r0
 3718 116c 439F      		mul r20,r19
 3719 116e 900D      		add r25,r0
 3720 1170 529F      		mul r21,r18
 3721 1172 900D      		add r25,r0
 3722 1174 1124      		clr r1
 3723 1176 E80F      		add r30,r24
 3724 1178 F91F      		adc r31,r25
 3725 117a 22A9      		ldd r18,Z+50
 3726 117c 33A9      		ldd r19,Z+51
 3727 117e 44A9      		ldd r20,Z+52
 3728 1180 55A9      		ldd r21,Z+53
 3729               	.LVL216:
 3730 1182 86A9      		ldd r24,Z+54
 3731 1184 97A9      		ldd r25,Z+55
 3732 1186 A0AD      		ldd r26,Z+56
 3733 1188 B1AD      		ldd r27,Z+57
 3734 118a 281B      		sub r18,r24
 3735 118c 390B      		sbc r19,r25
 3736 118e 4A0B      		sbc r20,r26
 3737 1190 5B0B      		sbc r21,r27
 3738 1192 57FF      		sbrs r21,7
 3739 1194 00C0      		rjmp .L201
 3740 1196 20E0      		ldi r18,lo8(0)
 3741 1198 30E0      		ldi r19,hi8(0)
 3742 119a 40E0      		ldi r20,hlo8(0)
 3743 119c 50E0      		ldi r21,hhi8(0)
 3744               	.L201:
 3745               	.LM385:
 3746 119e B901      		movw r22,r18
 3747               	.LVL217:
 3748 11a0 CA01      		movw r24,r20
 3749               	/* epilogue start */
 3750 11a2 0895      		ret
 3751               	.LFE74:
 3753               	.global	Timebase_DownCounter_Period_Value_Expired
 3755               	Timebase_DownCounter_Period_Value_Expired:
 3756               	.LFB75:
 3757               	.LM386:
 3758               	.LVL218:
 3759 11a4 CF93      		push r28
 3760 11a6 DF93      		push r29
 3761               	/* prologue: function */
 3762               	/* frame size = 0 */
 3763               	.LBB483:
 3764               	.LBB484:
 3765               	.LBB485:
 3766               	.LBB486:
 3767               	.LM387:
 3768 11a8 C091 0000 		lds r28,Timebase
 3769 11ac D091 0000 		lds r29,(Timebase)+1
 3770 11b0 682F      		mov r22,r24
 3771 11b2 70E0      		ldi r23,lo8(0)
 3772               	.LBE486:
 3773               	.LBE485:
 3774               	.LM388:
 3775 11b4 8DE0      		ldi r24,lo8(13)
 3776 11b6 90E0      		ldi r25,hi8(13)
 3777               	.LVL219:
 3778 11b8 689F      		mul r22,r24
 3779 11ba F001      		movw r30,r0
 3780 11bc 699F      		mul r22,r25
 3781 11be F00D      		add r31,r0
 3782 11c0 789F      		mul r23,r24
 3783 11c2 F00D      		add r31,r0
 3784 11c4 1124      		clr r1
 3785 11c6 EC0F      		add r30,r28
 3786 11c8 FD1F      		adc r31,r29
 3787 11ca 22A9      		ldd r18,Z+50
 3788 11cc 33A9      		ldd r19,Z+51
 3789 11ce 44A9      		ldd r20,Z+52
 3790 11d0 55A9      		ldd r21,Z+53
 3791               	.LVL220:
 3792 11d2 86A9      		ldd r24,Z+54
 3793 11d4 97A9      		ldd r25,Z+55
 3794 11d6 A0AD      		ldd r26,Z+56
 3795 11d8 B1AD      		ldd r27,Z+57
 3796 11da 281B      		sub r18,r24
 3797 11dc 390B      		sbc r19,r25
 3798 11de 4A0B      		sbc r20,r26
 3799 11e0 5B0B      		sbc r21,r27
 3800               	.LM389:
 3801 11e2 57FD      		sbrc r21,7
 3802 11e4 00C0      		rjmp .L204
 3803               	.LBE484:
 3804               	.LBE483:
 3805               	.LM390:
 3806 11e6 2115      		cp r18,__zero_reg__
 3807 11e8 3105      		cpc r19,__zero_reg__
 3808 11ea 4105      		cpc r20,__zero_reg__
 3809 11ec 5105      		cpc r21,__zero_reg__
 3810 11ee 01F0      		breq .L204
 3811 11f0 20E0      		ldi r18,lo8(0)
 3812               	.LVL221:
 3813 11f2 00C0      		rjmp .L205
 3814               	.LVL222:
 3815               	.L204:
 3816 11f4 20E0      		ldi r18,lo8(0)
 3817               	.LVL223:
 3818 11f6 8DE0      		ldi r24,lo8(13)
 3819 11f8 90E0      		ldi r25,hi8(13)
 3820 11fa AC01      		movw r20,r24
 3821 11fc 649F      		mul r22,r20
 3822 11fe C001      		movw r24,r0
 3823 1200 659F      		mul r22,r21
 3824 1202 900D      		add r25,r0
 3825 1204 749F      		mul r23,r20
 3826 1206 900D      		add r25,r0
 3827 1208 1124      		clr r1
 3828 120a C80F      		add r28,r24
 3829 120c D91F      		adc r29,r25
 3830 120e 8DA5      		ldd r24,Y+45
 3831 1210 80FF      		sbrs r24,0
 3832 1212 21E0      		ldi r18,lo8(1)
 3833               	.L206:
 3834 1214 81E0      		ldi r24,lo8(1)
 3835 1216 2827      		eor r18,r24
 3836               	.L205:
 3837               	.LM391:
 3838 1218 822F      		mov r24,r18
 3839               	/* epilogue start */
 3840 121a DF91      		pop r29
 3841 121c CF91      		pop r28
 3842 121e 0895      		ret
 3843               	.LFE75:
 3845               	.global	Timebase_DownCounter_Period_Value_Expired_Event
 3847               	Timebase_DownCounter_Period_Value_Expired_Event:
 3848               	.LFB76:
 3849               	.LM392:
 3850               	.LVL224:
 3851 1220 1F93      		push r17
 3852               	/* prologue: function */
 3853               	/* frame size = 0 */
 3854 1222 182F      		mov r17,r24
 3855               	.LM393:
 3856 1224 0E94 0000 		call Timebase_DownCounter_Period_Value_Expired
 3857               	.LVL225:
 3858 1228 8130      		cpi r24,lo8(1)
 3859 122a 01F0      		breq .L209
 3860 122c 80E0      		ldi r24,lo8(0)
 3861 122e 00C0      		rjmp .L210
 3862               	.L209:
 3863               	.LBB487:
 3864               	.LBB488:
 3865               	.LM394:
 3866 1230 E091 0000 		lds r30,Timebase
 3867 1234 F091 0000 		lds r31,(Timebase)+1
 3868 1238 212F      		mov r18,r17
 3869 123a 30E0      		ldi r19,lo8(0)
 3870               	.LVL226:
 3871 123c 8DE0      		ldi r24,lo8(13)
 3872 123e 90E0      		ldi r25,hi8(13)
 3873 1240 AC01      		movw r20,r24
 3874 1242 249F      		mul r18,r20
 3875 1244 C001      		movw r24,r0
 3876 1246 259F      		mul r18,r21
 3877 1248 900D      		add r25,r0
 3878 124a 349F      		mul r19,r20
 3879 124c 900D      		add r25,r0
 3880 124e 1124      		clr r1
 3881 1250 E80F      		add r30,r24
 3882 1252 F91F      		adc r31,r25
 3883 1254 85A5      		ldd r24,Z+45
 3884 1256 8E7F      		andi r24,lo8(-2)
 3885 1258 85A7      		std Z+45,r24
 3886 125a 81E0      		ldi r24,lo8(1)
 3887               	.L210:
 3888               	/* epilogue start */
 3889               	.LBE488:
 3890               	.LBE487:
 3891               	.LM395:
 3892 125c 1F91      		pop r17
 3893               	.LVL227:
 3894 125e 0895      		ret
 3895               	.LFE76:
 3897               	.global	Timebase_DownCounter_Update_All
 3899               	Timebase_DownCounter_Update_All:
 3900               	.LFB77:
 3901               	.LM396:
 3902               	/* prologue: function */
 3903               	/* frame size = 0 */
 3904               	.LBB489:
 3905               	.LM397:
 3906 1260 80E0      		ldi r24,lo8(0)
 3907 1262 0E94 0000 		call Timebase_DownCounter_Update
 3908               	/* epilogue start */
 3909               	.LBE489:
 3910               	.LM398:
 3911 1266 0895      		ret
 3912               	.LFE77:
 3914               	.global	Timebase_DownCounter_Reset_All
 3916               	Timebase_DownCounter_Reset_All:
 3917               	.LFB78:
 3918               	.LM399:
 3919               	/* prologue: function */
 3920               	/* frame size = 0 */
 3921               	.LBB490:
 3922               	.LBB491:
 3923               	.LBB492:
 3924               	.LBB493:
 3925               	.LBB494:
 3926               	.LM400:
 3927 1268 E091 0000 		lds r30,Timebase
 3928 126c F091 0000 		lds r31,(Timebase)+1
 3929 1270 16A6      		std Z+46,__zero_reg__
 3930 1272 17A6      		std Z+47,__zero_reg__
 3931 1274 10AA      		std Z+48,__zero_reg__
 3932 1276 11AA      		std Z+49,__zero_reg__
 3933               	.LBE494:
 3934               	.LBE493:
 3935               	.LBB495:
 3936               	.LBB496:
 3937               	.LM401:
 3938 1278 12AA      		std Z+50,__zero_reg__
 3939 127a 13AA      		std Z+51,__zero_reg__
 3940 127c 14AA      		std Z+52,__zero_reg__
 3941 127e 15AA      		std Z+53,__zero_reg__
 3942               	.LBE496:
 3943               	.LBE495:
 3944               	.LBB497:
 3945               	.LBB498:
 3946               	.LM402:
 3947 1280 85A5      		ldd r24,Z+45
 3948               	.LBE498:
 3949               	.LBE497:
 3950               	.LBB499:
 3951               	.LBB500:
 3952               	.LM403:
 3953 1282 807E      		andi r24,lo8(-32)
 3954 1284 85A7      		std Z+45,r24
 3955               	/* epilogue start */
 3956               	.LBE500:
 3957               	.LBE499:
 3958               	.LBE492:
 3959               	.LBE491:
 3960               	.LBE490:
 3961               	.LM404:
 3962 1286 0895      		ret
 3963               	.LFE78:
 3965               	.global	Timebase_Reset
 3967               	Timebase_Reset:
 3968               	.LFB79:
 3969               	.LM405:
 3970               	/* prologue: function */
 3971               	/* frame size = 0 */
 3972               	.LM406:
 3973 1288 0E94 0000 		call Timebase_UpCounter_Reset_All
 3974               	.LM407:
 3975 128c 0E94 0000 		call Timebase_DownCounter_Reset_All
 3976               	/* epilogue start */
 3977               	.LM408:
 3978 1290 0895      		ret
 3979               	.LFE79:
 3981               	.global	Timebase_Init
 3983               	Timebase_Init:
 3984               	.LFB80:
 3985               	.LM409:
 3986               	.LVL228:
 3987 1292 0F93      		push r16
 3988 1294 1F93      		push r17
 3989               	/* prologue: function */
 3990               	/* frame size = 0 */
 3991 1296 8C01      		movw r16,r24
 3992               	.LM410:
 3993 1298 0E94 0000 		call Timebase_Struct_Init
 3994               	.LVL229:
 3995               	.LM411:
 3996 129c C801      		movw r24,r16
 3997 129e 0E94 0000 		call Timebase_Timer_Config
 3998               	.LM412:
 3999 12a2 0E94 0000 		call Timebase_Reset
 4000               	/* epilogue start */
 4001               	.LM413:
 4002 12a6 1F91      		pop r17
 4003 12a8 0F91      		pop r16
 4004               	.LVL230:
 4005 12aa 0895      		ret
 4006               	.LFE80:
 4008               	.global	Timebase_Main_Loop_Executables
 4010               	Timebase_Main_Loop_Executables:
 4011               	.LFB81:
 4012               	.LM414:
 4013               	/* prologue: function */
 4014               	/* frame size = 0 */
 4015               	.LM415:
 4016 12ac 0E94 0000 		call Timebase_UpCounter_Update_All
 4017               	.LM416:
 4018 12b0 0E94 0000 		call Timebase_DownCounter_Update_All
 4019               	/* epilogue start */
 4020               	.LM417:
 4021 12b4 0895      		ret
 4022               	.LFE81:
 4024               	.global	Timebase_ISR_Executables
 4026               	Timebase_ISR_Executables:
 4027               	.LFB82:
 4028               	.LM418:
 4029               	/* prologue: function */
 4030               	/* frame size = 0 */
 4031               	.LM419:
 4032 12b6 E091 0000 		lds r30,Timebase
 4033 12ba F091 0000 		lds r31,(Timebase)+1
 4034 12be 8085      		ldd r24,Z+8
 4035 12c0 9185      		ldd r25,Z+9
 4036 12c2 0196      		adiw r24,1
 4037 12c4 9187      		std Z+9,r25
 4038 12c6 8087      		std Z+8,r24
 4039               	.LM420:
 4040 12c8 8381      		ldd r24,Z+3
 4041 12ca 86BD      		out 70-32,r24
 4042               	.LM421:
 4043 12cc 8085      		ldd r24,Z+8
 4044 12ce 9185      		ldd r25,Z+9
 4045 12d0 6181      		ldd r22,Z+1
 4046 12d2 7281      		ldd r23,Z+2
 4047 12d4 0E94 0000 		call __udivmodhi4
 4048 12d8 892B      		or r24,r25
 4049 12da 01F4      		brne .L224
 4050               	.LM422:
 4051 12dc 8285      		ldd r24,Z+10
 4052 12de 9385      		ldd r25,Z+11
 4053 12e0 A485      		ldd r26,Z+12
 4054 12e2 B585      		ldd r27,Z+13
 4055 12e4 0196      		adiw r24,1
 4056 12e6 A11D      		adc r26,__zero_reg__
 4057 12e8 B11D      		adc r27,__zero_reg__
 4058 12ea 8287      		std Z+10,r24
 4059 12ec 9387      		std Z+11,r25
 4060 12ee A487      		std Z+12,r26
 4061 12f0 B587      		std Z+13,r27
 4062               	.LBB501:
 4063               	.LBB502:
 4064               	.LM423:
 4065 12f2 8789      		ldd r24,Z+23
 4066               	.LBE502:
 4067               	.LBE501:
 4068               	.LM424:
 4069 12f4 8823      		tst r24
 4070 12f6 01F4      		brne .L224
 4071               	.LM425:
 4072 12f8 1186      		std Z+9,__zero_reg__
 4073 12fa 1086      		std Z+8,__zero_reg__
 4074               	.L224:
 4075 12fc 0895      		ret
 4076               	.LFE82:
 4078               	.global	__vector_16
 4080               	__vector_16:
 4081               	.LFB83:
 4082               	.LM426:
 4083 12fe 1F92      		push __zero_reg__
 4084 1300 0F92      		push r0
 4085 1302 0FB6      		in r0,__SREG__
 4086 1304 0F92      		push r0
 4087 1306 1124      		clr __zero_reg__
 4088 1308 2F93      		push r18
 4089 130a 3F93      		push r19
 4090 130c 4F93      		push r20
 4091 130e 5F93      		push r21
 4092 1310 6F93      		push r22
 4093 1312 7F93      		push r23
 4094 1314 8F93      		push r24
 4095 1316 9F93      		push r25
 4096 1318 AF93      		push r26
 4097 131a BF93      		push r27
 4098 131c EF93      		push r30
 4099 131e FF93      		push r31
 4100               	/* prologue: Signal */
 4101               	/* frame size = 0 */
 4102               	.LM427:
 4103 1320 5D9A      		sbi 43-32,5
 4104               	.LM428:
 4105 1322 0E94 0000 		call Timebase_ISR_Executables
 4106               	.LM429:
 4107 1326 5D98      		cbi 43-32,5
 4108               	/* epilogue start */
 4109               	.LM430:
 4110 1328 FF91      		pop r31
 4111 132a EF91      		pop r30
 4112 132c BF91      		pop r27
 4113 132e AF91      		pop r26
 4114 1330 9F91      		pop r25
 4115 1332 8F91      		pop r24
 4116 1334 7F91      		pop r23
 4117 1336 6F91      		pop r22
 4118 1338 5F91      		pop r21
 4119 133a 4F91      		pop r20
 4120 133c 3F91      		pop r19
 4121 133e 2F91      		pop r18
 4122 1340 0F90      		pop r0
 4123 1342 0FBE      		out __SREG__,r0
 4124 1344 0F90      		pop r0
 4125 1346 1F90      		pop __zero_reg__
 4126 1348 1895      		reti
 4127               	.LFE83:
 4129               		.data
 4132               	C.2.1342:
 4133 0000 0100      		.word	1
 4134 0002 0800      		.word	8
 4135 0004 4000      		.word	64
 4136 0006 0001      		.word	256
 4137 0008 0004      		.word	1024
 4138               		.comm Timebase_type,58,1
 4139               		.comm Timebase,2,1
 4780               	.Letext0:
DEFINED SYMBOLS
                            *ABS*:00000000 timebase.c
C:\Users\FARIDU~1\AppData\Local\Temp/ccx0agfe.s:2      *ABS*:0000003f __SREG__
C:\Users\FARIDU~1\AppData\Local\Temp/ccx0agfe.s:3      *ABS*:0000003e __SP_H__
C:\Users\FARIDU~1\AppData\Local\Temp/ccx0agfe.s:4      *ABS*:0000003d __SP_L__
C:\Users\FARIDU~1\AppData\Local\Temp/ccx0agfe.s:5      *ABS*:00000034 __CCP__
C:\Users\FARIDU~1\AppData\Local\Temp/ccx0agfe.s:6      *ABS*:00000000 __tmp_reg__
C:\Users\FARIDU~1\AppData\Local\Temp/ccx0agfe.s:7      *ABS*:00000001 __zero_reg__
C:\Users\FARIDU~1\AppData\Local\Temp/ccx0agfe.s:18     .text:00000000 Timebase_Struct_Init
                            *COM*:0000003a Timebase_type
                            *COM*:00000002 Timebase
C:\Users\FARIDU~1\AppData\Local\Temp/ccx0agfe.s:127    .text:0000010e Timebase_Timer_Config
C:\Users\FARIDU~1\AppData\Local\Temp/ccx0agfe.s:4132   .data:00000000 C.2.1342
C:\Users\FARIDU~1\AppData\Local\Temp/ccx0agfe.s:447    .text:000002a8 Timebase_Token_Executing
C:\Users\FARIDU~1\AppData\Local\Temp/ccx0agfe.s:463    .text:000002b4 Timebase_Token_Add
C:\Users\FARIDU~1\AppData\Local\Temp/ccx0agfe.s:489    .text:000002ca Timebase_Token_Remove
C:\Users\FARIDU~1\AppData\Local\Temp/ccx0agfe.s:515    .text:000002e0 Timebase_Token_Remove_All
C:\Users\FARIDU~1\AppData\Local\Temp/ccx0agfe.s:531    .text:000002ec Timebase_Timer_Get_SubSeconds
C:\Users\FARIDU~1\AppData\Local\Temp/ccx0agfe.s:549    .text:000002fc Timebase_Timer_Get_Seconds
C:\Users\FARIDU~1\AppData\Local\Temp/ccx0agfe.s:570    .text:00000312 Timebase_Timer_Set_SubSeconds
C:\Users\FARIDU~1\AppData\Local\Temp/ccx0agfe.s:588    .text:00000320 Timebase_Timer_Set_Seconds
C:\Users\FARIDU~1\AppData\Local\Temp/ccx0agfe.s:608    .text:00000332 Timebase_Timer_Delay_SubSeconds
C:\Users\FARIDU~1\AppData\Local\Temp/ccx0agfe.s:695    .text:0000037c Timebase_Timer_Await_SubSeconds
C:\Users\FARIDU~1\AppData\Local\Temp/ccx0agfe.s:778    .text:000003f0 Timebase_Timer_Delay_Seconds
C:\Users\FARIDU~1\AppData\Local\Temp/ccx0agfe.s:840    .text:00000432 Timebase_Window_Timer_Reset
C:\Users\FARIDU~1\AppData\Local\Temp/ccx0agfe.s:866    .text:0000044e Timebase_Window_Timer_Start
C:\Users\FARIDU~1\AppData\Local\Temp/ccx0agfe.s:914    .text:00000482 Timebase_Window_Timer_Get_Interval
C:\Users\FARIDU~1\AppData\Local\Temp/ccx0agfe.s:1012   .text:000004fc Timebase_Window_Timer_Get_Interval_Reset
C:\Users\FARIDU~1\AppData\Local\Temp/ccx0agfe.s:1052   .text:00000526 Timebase_UpCounter_Get_Status
C:\Users\FARIDU~1\AppData\Local\Temp/ccx0agfe.s:1086   .text:00000550 Timebase_UpCounter_Set_Status
C:\Users\FARIDU~1\AppData\Local\Temp/ccx0agfe.s:1124   .text:00000580 Timebase_UpCounter_Get_Value
C:\Users\FARIDU~1\AppData\Local\Temp/ccx0agfe.s:1167   .text:000005ba Timebase_UpCounter_Set_Value
C:\Users\FARIDU~1\AppData\Local\Temp/ccx0agfe.s:1202   .text:000005e6 Timebase_UpCounter_Get_EndValue
C:\Users\FARIDU~1\AppData\Local\Temp/ccx0agfe.s:1245   .text:00000620 Timebase_UpCounter_Set_EndValue
C:\Users\FARIDU~1\AppData\Local\Temp/ccx0agfe.s:1280   .text:0000064c Timebase_UpCounter_Get_TargetValue
C:\Users\FARIDU~1\AppData\Local\Temp/ccx0agfe.s:1323   .text:00000686 Timebase_UpCounter_Set_TargetValue
C:\Users\FARIDU~1\AppData\Local\Temp/ccx0agfe.s:1358   .text:000006b2 Timebase_UpCounter_Get_TemporaryValue
C:\Users\FARIDU~1\AppData\Local\Temp/ccx0agfe.s:1401   .text:000006ec Timebase_UpCounter_Set_TemporaryValue
C:\Users\FARIDU~1\AppData\Local\Temp/ccx0agfe.s:1436   .text:00000718 Timebase_UpCounter_Get_PeriodValue
C:\Users\FARIDU~1\AppData\Local\Temp/ccx0agfe.s:1479   .text:00000752 Timebase_UpCounter_Set_PeriodValue
C:\Users\FARIDU~1\AppData\Local\Temp/ccx0agfe.s:1514   .text:0000077e Timebase_UpCounter_Get_Period_Flag
C:\Users\FARIDU~1\AppData\Local\Temp/ccx0agfe.s:1547   .text:000007a6 Timebase_UpCounter_Set_Period_Flag
C:\Users\FARIDU~1\AppData\Local\Temp/ccx0agfe.s:1581   .text:000007d0 Timebase_UpCounter_Clear_Period_Flag
C:\Users\FARIDU~1\AppData\Local\Temp/ccx0agfe.s:1615   .text:000007fa Timebase_UpCounter_Reset
C:\Users\FARIDU~1\AppData\Local\Temp/ccx0agfe.s:1702   .text:0000084c Timebase_UpCounter_Clear_All_Flags
C:\Users\FARIDU~1\AppData\Local\Temp/ccx0agfe.s:1718   .text:00000852 Timebase_UpCounter_Start
C:\Users\FARIDU~1\AppData\Local\Temp/ccx0agfe.s:1766   .text:00000888 Timebase_UpCounter_Stop
C:\Users\FARIDU~1\AppData\Local\Temp/ccx0agfe.s:1814   .text:000008be Timebase_UpCounter_Set_Securely
C:\Users\FARIDU~1\AppData\Local\Temp/ccx0agfe.s:1921   .text:0000092e Timebase_UpCounter_Set_Forcefully
C:\Users\FARIDU~1\AppData\Local\Temp/ccx0agfe.s:1957   .text:00000958 Timebase_UpCounter_Update
C:\Users\FARIDU~1\AppData\Local\Temp/ccx0agfe.s:2145   .text:00000a40 Timebase_UpCounter_Expired
C:\Users\FARIDU~1\AppData\Local\Temp/ccx0agfe.s:2185   .text:00000a74 Timebase_UpCounter_Expired_Event
C:\Users\FARIDU~1\AppData\Local\Temp/ccx0agfe.s:2234   .text:00000ab2 Timebase_UpCounter_Set_Period_Value_Securely
C:\Users\FARIDU~1\AppData\Local\Temp/ccx0agfe.s:2296   .text:00000afa Timebase_UpCounter_Get_Remaining_Period_Value
C:\Users\FARIDU~1\AppData\Local\Temp/ccx0agfe.s:2354   .text:00000b46 Timebase_UpCounter_Period_Value_Expired
C:\Users\FARIDU~1\AppData\Local\Temp/ccx0agfe.s:2446   .text:00000bc2 Timebase_UpCounter_Period_Value_Expired_Event
C:\Users\FARIDU~1\AppData\Local\Temp/ccx0agfe.s:2498   .text:00000c02 Timebase_UpCounter_Update_All
C:\Users\FARIDU~1\AppData\Local\Temp/ccx0agfe.s:2515   .text:00000c0a Timebase_UpCounter_Reset_All
C:\Users\FARIDU~1\AppData\Local\Temp/ccx0agfe.s:2532   .text:00000c12 Timebase_DownCounter_Get_Status
C:\Users\FARIDU~1\AppData\Local\Temp/ccx0agfe.s:2566   .text:00000c3c Timebase_DownCounter_Set_Status
C:\Users\FARIDU~1\AppData\Local\Temp/ccx0agfe.s:2604   .text:00000c6c Timebase_DownCounter_Get_Value
C:\Users\FARIDU~1\AppData\Local\Temp/ccx0agfe.s:2647   .text:00000ca6 Timebase_DownCounter_Set_Value
C:\Users\FARIDU~1\AppData\Local\Temp/ccx0agfe.s:2682   .text:00000cd2 Timebase_DownCounter_Get_EndValue
C:\Users\FARIDU~1\AppData\Local\Temp/ccx0agfe.s:2725   .text:00000d0c Timebase_DownCounter_Set_EndValue
C:\Users\FARIDU~1\AppData\Local\Temp/ccx0agfe.s:2760   .text:00000d38 Timebase_DownCounter_Get_PeriodValue
C:\Users\FARIDU~1\AppData\Local\Temp/ccx0agfe.s:2803   .text:00000d72 Timebase_DownCounter_Set_PeriodValue
C:\Users\FARIDU~1\AppData\Local\Temp/ccx0agfe.s:2861   .text:00000dc6 Timebase_DownCounter_Get_Period_Flag
C:\Users\FARIDU~1\AppData\Local\Temp/ccx0agfe.s:2894   .text:00000dee Timebase_DownCounter_Set_Period_Flag
C:\Users\FARIDU~1\AppData\Local\Temp/ccx0agfe.s:2928   .text:00000e18 Timebase_DownCounter_Clear_Period_Flag
C:\Users\FARIDU~1\AppData\Local\Temp/ccx0agfe.s:2962   .text:00000e42 Timebase_DownCounter_Reset
C:\Users\FARIDU~1\AppData\Local\Temp/ccx0agfe.s:3022   .text:00000e7c Timebase_DownCounter_Clear_All_Flags
C:\Users\FARIDU~1\AppData\Local\Temp/ccx0agfe.s:3086   .text:00000eb6 Timebase_DownCounter_Start
C:\Users\FARIDU~1\AppData\Local\Temp/ccx0agfe.s:3134   .text:00000eec Timebase_DownCounter_Stop
C:\Users\FARIDU~1\AppData\Local\Temp/ccx0agfe.s:3182   .text:00000f22 Timebase_DownCounter_Set_Securely
C:\Users\FARIDU~1\AppData\Local\Temp/ccx0agfe.s:3271   .text:00000f82 Timebase_DownCounter_Set_Forcefully
C:\Users\FARIDU~1\AppData\Local\Temp/ccx0agfe.s:3342   .text:00000fca Timebase_DownCounter_Update
C:\Users\FARIDU~1\AppData\Local\Temp/ccx0agfe.s:3484   .text:00001066 Timebase_DownCounter_Expired
C:\Users\FARIDU~1\AppData\Local\Temp/ccx0agfe.s:3524   .text:0000109a Timebase_DownCounter_Expired_Event
C:\Users\FARIDU~1\AppData\Local\Temp/ccx0agfe.s:3606   .text:000010e4 Timebase_DownCounter_Set_Period_Value_Securely
C:\Users\FARIDU~1\AppData\Local\Temp/ccx0agfe.s:3697   .text:00001158 Timebase_DownCounter_Get_Remaining_Period_Value
C:\Users\FARIDU~1\AppData\Local\Temp/ccx0agfe.s:3755   .text:000011a4 Timebase_DownCounter_Period_Value_Expired
C:\Users\FARIDU~1\AppData\Local\Temp/ccx0agfe.s:3847   .text:00001220 Timebase_DownCounter_Period_Value_Expired_Event
C:\Users\FARIDU~1\AppData\Local\Temp/ccx0agfe.s:3899   .text:00001260 Timebase_DownCounter_Update_All
C:\Users\FARIDU~1\AppData\Local\Temp/ccx0agfe.s:3916   .text:00001268 Timebase_DownCounter_Reset_All
C:\Users\FARIDU~1\AppData\Local\Temp/ccx0agfe.s:3967   .text:00001288 Timebase_Reset
C:\Users\FARIDU~1\AppData\Local\Temp/ccx0agfe.s:3983   .text:00001292 Timebase_Init
C:\Users\FARIDU~1\AppData\Local\Temp/ccx0agfe.s:4010   .text:000012ac Timebase_Main_Loop_Executables
C:\Users\FARIDU~1\AppData\Local\Temp/ccx0agfe.s:4026   .text:000012b6 Timebase_ISR_Executables
C:\Users\FARIDU~1\AppData\Local\Temp/ccx0agfe.s:4080   .text:000012fe __vector_16

UNDEFINED SYMBOLS
__divmodsi4
__mulsi3
__udivmodhi4
__do_copy_data
__do_clear_bss
