   1               		.file	"timebase.c"
   2               	__SREG__ = 0x3f
   3               	__SP_H__ = 0x3e
   4               	__SP_L__ = 0x3d
   5               	__CCP__  = 0x34
   6               	__tmp_reg__ = 0
   7               	__zero_reg__ = 1
  15               	.Ltext0:
  16               	.global	Timebase_Struct_Init
  18               	Timebase_Struct_Init:
  19               	.LFB6:
  20               	.LM1:
  21               	/* prologue: function */
  22               	/* frame size = 0 */
  23               	.LM2:
  24 0000 80E0      		ldi r24,lo8(Timebase_type)
  25 0002 90E0      		ldi r25,hi8(Timebase_type)
  26 0004 9093 0000 		sts (Timebase)+1,r25
  27 0008 8093 0000 		sts Timebase,r24
  28               	.LM3:
  29 000c 81E0      		ldi r24,lo8(1)
  30 000e 90E0      		ldi r25,hi8(1)
  31 0010 9093 0000 		sts (Timebase_type)+1,r25
  32 0014 8093 0000 		sts Timebase_type,r24
  33               	.LM4:
  34 0018 1092 0000 		sts (Timebase_type+2)+1,__zero_reg__
  35 001c 1092 0000 		sts Timebase_type+2,__zero_reg__
  36               	.LM5:
  37 0020 1092 0000 		sts (Timebase_type+14)+1,__zero_reg__
  38 0024 1092 0000 		sts Timebase_type+14,__zero_reg__
  39               	.LM6:
  40 0028 1092 0000 		sts Timebase_type+16,__zero_reg__
  41 002c 1092 0000 		sts (Timebase_type+16)+1,__zero_reg__
  42 0030 1092 0000 		sts (Timebase_type+16)+2,__zero_reg__
  43 0034 1092 0000 		sts (Timebase_type+16)+3,__zero_reg__
  44               	.LM7:
  45 0038 1092 0000 		sts Timebase_type+20,__zero_reg__
  46 003c 1092 0000 		sts (Timebase_type+20)+1,__zero_reg__
  47 0040 1092 0000 		sts (Timebase_type+20)+2,__zero_reg__
  48 0044 1092 0000 		sts (Timebase_type+20)+3,__zero_reg__
  49               	.LM8:
  50 0048 1092 0000 		sts (Timebase_type+8)+1,__zero_reg__
  51 004c 1092 0000 		sts Timebase_type+8,__zero_reg__
  52               	.LM9:
  53 0050 1092 0000 		sts Timebase_type+10,__zero_reg__
  54 0054 1092 0000 		sts (Timebase_type+10)+1,__zero_reg__
  55 0058 1092 0000 		sts (Timebase_type+10)+2,__zero_reg__
  56 005c 1092 0000 		sts (Timebase_type+10)+3,__zero_reg__
  57               	.LM10:
  58 0060 1092 0000 		sts Timebase_type+24,__zero_reg__
  59               	.LM11:
  60 0064 1092 0000 		sts Timebase_type+4,__zero_reg__
  61 0068 1092 0000 		sts (Timebase_type+4)+1,__zero_reg__
  62 006c 1092 0000 		sts (Timebase_type+4)+2,__zero_reg__
  63 0070 1092 0000 		sts (Timebase_type+4)+3,__zero_reg__
  64               	.LM12:
  65 0074 1092 0000 		sts Timebase_type+25,__zero_reg__
  66               	.LBB221:
  67               	.LM13:
  68 0078 1092 0000 		sts Timebase_type+26,__zero_reg__
  69               	.LM14:
  70 007c 1092 0000 		sts Timebase_type+27,__zero_reg__
  71 0080 1092 0000 		sts (Timebase_type+27)+1,__zero_reg__
  72 0084 1092 0000 		sts (Timebase_type+27)+2,__zero_reg__
  73 0088 1092 0000 		sts (Timebase_type+27)+3,__zero_reg__
  74               	.LM15:
  75 008c 1092 0000 		sts Timebase_type+31,__zero_reg__
  76 0090 1092 0000 		sts (Timebase_type+31)+1,__zero_reg__
  77 0094 1092 0000 		sts (Timebase_type+31)+2,__zero_reg__
  78 0098 1092 0000 		sts (Timebase_type+31)+3,__zero_reg__
  79               	.LM16:
  80 009c 1092 0000 		sts Timebase_type+35,__zero_reg__
  81 00a0 1092 0000 		sts (Timebase_type+35)+1,__zero_reg__
  82 00a4 1092 0000 		sts (Timebase_type+35)+2,__zero_reg__
  83 00a8 1092 0000 		sts (Timebase_type+35)+3,__zero_reg__
  84               	.LM17:
  85 00ac 1092 0000 		sts Timebase_type+39,__zero_reg__
  86 00b0 1092 0000 		sts (Timebase_type+39)+1,__zero_reg__
  87 00b4 1092 0000 		sts (Timebase_type+39)+2,__zero_reg__
  88 00b8 1092 0000 		sts (Timebase_type+39)+3,__zero_reg__
  89               	.LM18:
  90 00bc 1092 0000 		sts Timebase_type+43,__zero_reg__
  91 00c0 1092 0000 		sts (Timebase_type+43)+1,__zero_reg__
  92 00c4 1092 0000 		sts (Timebase_type+43)+2,__zero_reg__
  93 00c8 1092 0000 		sts (Timebase_type+43)+3,__zero_reg__
  94               	/* epilogue start */
  95               	.LBE221:
  96               	.LM19:
  97 00cc 0895      		ret
  98               	.LFE6:
 100               	.global	Timebase_Timer_Enable
 102               	Timebase_Timer_Enable:
 103               	.LFB7:
 104               	.LM20:
 105               	.LVL0:
 106 00ce 8F92      		push r8
 107 00d0 9F92      		push r9
 108 00d2 BF92      		push r11
 109 00d4 CF92      		push r12
 110 00d6 DF92      		push r13
 111 00d8 EF92      		push r14
 112 00da FF92      		push r15
 113 00dc 0F93      		push r16
 114 00de 1F93      		push r17
 115 00e0 DF93      		push r29
 116 00e2 CF93      		push r28
 117 00e4 CDB7      		in r28,__SP_L__
 118 00e6 DEB7      		in r29,__SP_H__
 119 00e8 2A97      		sbiw r28,10
 120 00ea 0FB6      		in __tmp_reg__,__SREG__
 121 00ec F894      		cli
 122 00ee DEBF      		out __SP_H__,r29
 123 00f0 0FBE      		out __SREG__,__tmp_reg__
 124 00f2 CDBF      		out __SP_L__,r28
 125               	/* prologue: function */
 126               	/* frame size = 10 */
 127 00f4 4C01      		movw r8,r24
 128               	.LM21:
 129 00f6 DE01      		movw r26,r28
 130 00f8 1196      		adiw r26,1
 131 00fa E0E0      		ldi r30,lo8(C.1.1778)
 132 00fc F0E0      		ldi r31,hi8(C.1.1778)
 133 00fe 8AE0      		ldi r24,lo8(10)
 134               	.LVL1:
 135               	.L4:
 136 0100 0190      		ld r0,Z+
 137 0102 0D92      		st X+,r0
 138 0104 8150      		subi r24,lo8(-(-1))
 139 0106 01F4      		brne .L4
 140               	.LM22:
 141 0108 9401      		movw r18,r8
 142 010a 40E0      		ldi r20,lo8(0)
 143 010c 50E0      		ldi r21,hi8(0)
 144               	.LVL2:
 145 010e 60E0      		ldi r22,lo8(12000000)
 146 0110 7BE1      		ldi r23,hi8(12000000)
 147 0112 87EB      		ldi r24,hlo8(12000000)
 148 0114 90E0      		ldi r25,hhi8(12000000)
 149 0116 0E94 0000 		call __divmodsi4
 150 011a B22E      		mov r11,r18
 151 011c C32E      		mov r12,r19
 152 011e D42E      		mov r13,r20
 153               	.LVL3:
 154 0120 052F      		mov r16,r21
 155 0122 7E01      		movw r14,r28
 156 0124 0894      		sec
 157 0126 E11C      		adc r14,__zero_reg__
 158 0128 F11C      		adc r15,__zero_reg__
 159 012a C901      		movw r24,r18
 160 012c DA01      		movw r26,r20
 161 012e 9C01      		movw r18,r24
 162 0130 AD01      		movw r20,r26
 163               	.LVL4:
 164 0132 10E0      		ldi r17,lo8(0)
 165               	.LVL5:
 166 0134 00C0      		rjmp .L5
 167               	.LVL6:
 168               	.L7:
 169               	.LM23:
 170 0136 F701      		movw r30,r14
 171 0138 2191      		ld r18,Z+
 172 013a 3191      		ld r19,Z+
 173               	.LVL7:
 174 013c 7F01      		movw r14,r30
 175 013e 40E0      		ldi r20,lo8(0)
 176 0140 50E0      		ldi r21,hi8(0)
 177 0142 6B2D      		mov r22,r11
 178 0144 7C2D      		mov r23,r12
 179 0146 8D2D      		mov r24,r13
 180               	.LVL8:
 181 0148 902F      		mov r25,r16
 182 014a 0E94 0000 		call __divmodsi4
 183 014e C901      		movw r24,r18
 184 0150 DA01      		movw r26,r20
 185 0152 9C01      		movw r18,r24
 186 0154 AD01      		movw r20,r26
 187               	.LVL9:
 188               	.LM24:
 189 0156 1F5F      		subi r17,lo8(-(1))
 190               	.LM25:
 191 0158 1530      		cpi r17,lo8(5)
 192 015a 01F0      		breq .L6
 193               	.LVL10:
 194               	.L5:
 195               	.LM26:
 196 015c 2F3F      		cpi r18,lo8(255)
 197 015e 3105      		cpc r19,__zero_reg__
 198 0160 4105      		cpc r20,__zero_reg__
 199 0162 5105      		cpc r21,__zero_reg__
 200 0164 01F0      		breq .+2
 201 0166 04F4      		brge .L7
 202               	.L6:
 203               	.LM27:
 204 0168 812F      		mov r24,r17
 205 016a 8150      		subi r24,lo8(-(-1))
 206               	.LVL11:
 207               	.LM28:
 208 016c 14BC      		out 68-32,__zero_reg__
 209               	.LM29:
 210 016e 15BC      		out 69-32,__zero_reg__
 211               	.LM30:
 212 0170 1092 6E00 		sts 110,__zero_reg__
 213               	.LM31:
 214 0174 15BA      		out 53-32,__zero_reg__
 215               	.LM32:
 216 0176 17BC      		out 71-32,__zero_reg__
 217               	.LM33:
 218 0178 18BC      		out 72-32,__zero_reg__
 219               	.LM34:
 220 017a 16BC      		out 70-32,__zero_reg__
 221               	.LM35:
 222 017c 17BC      		out 71-32,__zero_reg__
 223               	.LM36:
 224 017e 8823      		tst r24
 225 0180 01F4      		brne .L8
 226               	.LM37:
 227 0182 81E0      		ldi r24,lo8(1)
 228               	.LVL12:
 229 0184 00C0      		rjmp .L15
 230               	.LVL13:
 231               	.L8:
 232               	.LM38:
 233 0186 8130      		cpi r24,lo8(1)
 234 0188 01F4      		brne .L10
 235               	.LM39:
 236 018a 82E0      		ldi r24,lo8(2)
 237               	.LVL14:
 238 018c 00C0      		rjmp .L15
 239               	.LVL15:
 240               	.L10:
 241               	.LM40:
 242 018e 8230      		cpi r24,lo8(2)
 243 0190 01F4      		brne .L11
 244               	.LM41:
 245 0192 83E0      		ldi r24,lo8(3)
 246               	.LVL16:
 247 0194 00C0      		rjmp .L15
 248               	.LVL17:
 249               	.L11:
 250               	.LM42:
 251 0196 8330      		cpi r24,lo8(3)
 252 0198 01F4      		brne .L12
 253               	.LM43:
 254 019a 84E0      		ldi r24,lo8(4)
 255               	.LVL18:
 256 019c 00C0      		rjmp .L15
 257               	.LVL19:
 258               	.L12:
 259               	.LM44:
 260 019e 8430      		cpi r24,lo8(4)
 261 01a0 01F4      		brne .L9
 262               	.LM45:
 263 01a2 85E0      		ldi r24,lo8(5)
 264               	.LVL20:
 265               	.L15:
 266 01a4 85BD      		out 69-32,r24
 267               	.LVL21:
 268               	.L9:
 269               	.LM46:
 270 01a6 E091 0000 		lds r30,Timebase
 271 01aa F091 0000 		lds r31,(Timebase)+1
 272 01ae 8FEF      		ldi r24,lo8(255)
 273 01b0 90E0      		ldi r25,hi8(255)
 274               	.LVL22:
 275 01b2 821B      		sub r24,r18
 276 01b4 930B      		sbc r25,r19
 277 01b6 9383      		std Z+3,r25
 278 01b8 8283      		std Z+2,r24
 279               	.LM47:
 280 01ba 8281      		ldd r24,Z+2
 281 01bc 9381      		ldd r25,Z+3
 282 01be 86BD      		out 70-32,r24
 283               	.LM48:
 284 01c0 81E0      		ldi r24,lo8(1)
 285 01c2 8093 6E00 		sts 110,r24
 286               	.LM49:
 287               	/* #APP */
 288               	 ;  355 "timebase.c" 1
 289 01c6 7894      		sei
 290               	 ;  0 "" 2
 291               	.LM50:
 292               	/* #NOAPP */
 293 01c8 9182      		std Z+1,r9
 294 01ca 8082      		st Z,r8
 295               	/* epilogue start */
 296               	.LM51:
 297 01cc 2A96      		adiw r28,10
 298 01ce 0FB6      		in __tmp_reg__,__SREG__
 299 01d0 F894      		cli
 300 01d2 DEBF      		out __SP_H__,r29
 301 01d4 0FBE      		out __SREG__,__tmp_reg__
 302 01d6 CDBF      		out __SP_L__,r28
 303 01d8 CF91      		pop r28
 304 01da DF91      		pop r29
 305 01dc 1F91      		pop r17
 306 01de 0F91      		pop r16
 307 01e0 FF90      		pop r15
 308 01e2 EF90      		pop r14
 309 01e4 DF90      		pop r13
 310 01e6 CF90      		pop r12
 311 01e8 BF90      		pop r11
 312 01ea 9F90      		pop r9
 313 01ec 8F90      		pop r8
 314               	.LVL23:
 315 01ee 0895      		ret
 316               	.LFE7:
 318               	.global	Timebase_Timer_Disable
 320               	Timebase_Timer_Disable:
 321               	.LFB8:
 322               	.LM52:
 323               	/* prologue: function */
 324               	/* frame size = 0 */
 325               	.LM53:
 326 01f0 14BC      		out 68-32,__zero_reg__
 327               	.LM54:
 328 01f2 15BC      		out 69-32,__zero_reg__
 329               	.LM55:
 330 01f4 1092 6E00 		sts 110,__zero_reg__
 331               	.LM56:
 332 01f8 87E0      		ldi r24,lo8(7)
 333 01fa 85BB      		out 53-32,r24
 334               	.LM57:
 335 01fc 17BC      		out 71-32,__zero_reg__
 336               	.LM58:
 337 01fe 18BC      		out 72-32,__zero_reg__
 338               	.LM59:
 339 0200 16BC      		out 70-32,__zero_reg__
 340               	/* epilogue start */
 341               	.LM60:
 342 0202 0895      		ret
 343               	.LFE8:
 345               	.global	Timebase_Atomic_Operation_Start
 347               	Timebase_Atomic_Operation_Start:
 348               	.LFB9:
 349               	.LM61:
 350               	/* prologue: function */
 351               	/* frame size = 0 */
 352               	.LM62:
 353               	/* #APP */
 354               	 ;  433 "timebase.c" 1
 355 0204 F894      		cli
 356               	 ;  0 "" 2
 357               	/* epilogue start */
 358               	.LM63:
 359               	/* #NOAPP */
 360 0206 0895      		ret
 361               	.LFE9:
 363               	.global	Timebase_Atomic_Operation_End
 365               	Timebase_Atomic_Operation_End:
 366               	.LFB10:
 367               	.LM64:
 368               	/* prologue: function */
 369               	/* frame size = 0 */
 370               	.LM65:
 371               	/* #APP */
 372               	 ;  438 "timebase.c" 1
 373 0208 7894      		sei
 374               	 ;  0 "" 2
 375               	/* epilogue start */
 376               	.LM66:
 377               	/* #NOAPP */
 378 020a 0895      		ret
 379               	.LFE10:
 381               	.global	Timebase_Timer_Get_SubSecondsShadow
 383               	Timebase_Timer_Get_SubSecondsShadow:
 384               	.LFB12:
 385               	.LM67:
 386               	/* prologue: function */
 387               	/* frame size = 0 */
 388               	.LM68:
 389 020c E091 0000 		lds r30,Timebase
 390 0210 F091 0000 		lds r31,(Timebase)+1
 391 0214 2685      		ldd r18,Z+14
 392 0216 3785      		ldd r19,Z+15
 393               	.LM69:
 394 0218 C901      		movw r24,r18
 395               	/* epilogue start */
 396 021a 0895      		ret
 397               	.LFE12:
 399               	.global	Timebase_Timer_Get_SubSecondsUpTime
 401               	Timebase_Timer_Get_SubSecondsUpTime:
 402               	.LFB13:
 403               	.LM70:
 404               	/* prologue: function */
 405               	/* frame size = 0 */
 406               	.LM71:
 407 021c E091 0000 		lds r30,Timebase
 408 0220 F091 0000 		lds r31,(Timebase)+1
 409 0224 2089      		ldd r18,Z+16
 410 0226 3189      		ldd r19,Z+17
 411 0228 4289      		ldd r20,Z+18
 412 022a 5389      		ldd r21,Z+19
 413               	.LM72:
 414 022c B901      		movw r22,r18
 415 022e CA01      		movw r24,r20
 416               	/* epilogue start */
 417 0230 0895      		ret
 418               	.LFE13:
 420               	.global	Timebase_Timer_Get_SecondsShadow
 422               	Timebase_Timer_Get_SecondsShadow:
 423               	.LFB14:
 424               	.LM73:
 425               	/* prologue: function */
 426               	/* frame size = 0 */
 427               	.LM74:
 428 0232 E091 0000 		lds r30,Timebase
 429 0236 F091 0000 		lds r31,(Timebase)+1
 430 023a 2489      		ldd r18,Z+20
 431 023c 3589      		ldd r19,Z+21
 432 023e 4689      		ldd r20,Z+22
 433 0240 5789      		ldd r21,Z+23
 434               	.LM75:
 435 0242 B901      		movw r22,r18
 436 0244 CA01      		movw r24,r20
 437               	/* epilogue start */
 438 0246 0895      		ret
 439               	.LFE14:
 441               	.global	Timebase_Timer_Get_SubSeconds
 443               	Timebase_Timer_Get_SubSeconds:
 444               	.LFB15:
 445               	.LM76:
 446               	/* prologue: function */
 447               	/* frame size = 0 */
 448               	.LM77:
 449 0248 E091 0000 		lds r30,Timebase
 450 024c F091 0000 		lds r31,(Timebase)+1
 451 0250 2085      		ldd r18,Z+8
 452 0252 3185      		ldd r19,Z+9
 453               	.LM78:
 454 0254 C901      		movw r24,r18
 455               	/* epilogue start */
 456 0256 0895      		ret
 457               	.LFE15:
 459               	.global	Timebase_Timer_Get_Seconds
 461               	Timebase_Timer_Get_Seconds:
 462               	.LFB16:
 463               	.LM79:
 464               	/* prologue: function */
 465               	/* frame size = 0 */
 466               	.LM80:
 467 0258 E091 0000 		lds r30,Timebase
 468 025c F091 0000 		lds r31,(Timebase)+1
 469 0260 2285      		ldd r18,Z+10
 470 0262 3385      		ldd r19,Z+11
 471 0264 4485      		ldd r20,Z+12
 472 0266 5585      		ldd r21,Z+13
 473               	.LM81:
 474 0268 B901      		movw r22,r18
 475 026a CA01      		movw r24,r20
 476               	/* epilogue start */
 477 026c 0895      		ret
 478               	.LFE16:
 480               	.global	Timebase_Timer_Set_SubSeconds
 482               	Timebase_Timer_Set_SubSeconds:
 483               	.LFB17:
 484               	.LM82:
 485               	.LVL24:
 486               	/* prologue: function */
 487               	/* frame size = 0 */
 488               	.LM83:
 489 026e E091 0000 		lds r30,Timebase
 490 0272 F091 0000 		lds r31,(Timebase)+1
 491 0276 9187      		std Z+9,r25
 492 0278 8087      		std Z+8,r24
 493               	/* epilogue start */
 494               	.LM84:
 495 027a 0895      		ret
 496               	.LFE17:
 498               	.global	Timebase_Timer_Set_SubSecondsShadow
 500               	Timebase_Timer_Set_SubSecondsShadow:
 501               	.LFB18:
 502               	.LM85:
 503               	.LVL25:
 504               	/* prologue: function */
 505               	/* frame size = 0 */
 506               	.LM86:
 507 027c E091 0000 		lds r30,Timebase
 508 0280 F091 0000 		lds r31,(Timebase)+1
 509 0284 9787      		std Z+15,r25
 510 0286 8687      		std Z+14,r24
 511               	/* epilogue start */
 512               	.LM87:
 513 0288 0895      		ret
 514               	.LFE18:
 516               	.global	Timebase_Timer_Set_SubSecondsUpTime
 518               	Timebase_Timer_Set_SubSecondsUpTime:
 519               	.LFB19:
 520               	.LM88:
 521               	.LVL26:
 522               	/* prologue: function */
 523               	/* frame size = 0 */
 524               	.LM89:
 525 028a E091 0000 		lds r30,Timebase
 526 028e F091 0000 		lds r31,(Timebase)+1
 527 0292 608B      		std Z+16,r22
 528 0294 718B      		std Z+17,r23
 529 0296 828B      		std Z+18,r24
 530 0298 938B      		std Z+19,r25
 531               	/* epilogue start */
 532               	.LM90:
 533 029a 0895      		ret
 534               	.LFE19:
 536               	.global	Timebase_Timer_Set_Seconds
 538               	Timebase_Timer_Set_Seconds:
 539               	.LFB20:
 540               	.LM91:
 541               	.LVL27:
 542               	/* prologue: function */
 543               	/* frame size = 0 */
 544               	.LM92:
 545 029c E091 0000 		lds r30,Timebase
 546 02a0 F091 0000 		lds r31,(Timebase)+1
 547 02a4 6287      		std Z+10,r22
 548 02a6 7387      		std Z+11,r23
 549 02a8 8487      		std Z+12,r24
 550 02aa 9587      		std Z+13,r25
 551               	/* epilogue start */
 552               	.LM93:
 553 02ac 0895      		ret
 554               	.LFE20:
 556               	.global	Timebase_Timer_Get_SubSecondsShadow_Securely
 558               	Timebase_Timer_Get_SubSecondsShadow_Securely:
 559               	.LFB21:
 560               	.LM94:
 561               	/* prologue: function */
 562               	/* frame size = 0 */
 563               	.LM95:
 564 02ae E091 0000 		lds r30,Timebase
 565 02b2 F091 0000 		lds r31,(Timebase)+1
 566               	.L41:
 567 02b6 2685      		ldd r18,Z+14
 568 02b8 3785      		ldd r19,Z+15
 569               	.LVL28:
 570               	.LM96:
 571 02ba 8685      		ldd r24,Z+14
 572 02bc 9785      		ldd r25,Z+15
 573               	.LVL29:
 574               	.LM97:
 575 02be 2817      		cp r18,r24
 576 02c0 3907      		cpc r19,r25
 577 02c2 01F4      		brne .L41
 578               	.LM98:
 579 02c4 C901      		movw r24,r18
 580               	.LVL30:
 581               	/* epilogue start */
 582 02c6 0895      		ret
 583               	.LFE21:
 585               	.global	Timebase_Timer_Get_SubSecondsUpTime_Securely
 587               	Timebase_Timer_Get_SubSecondsUpTime_Securely:
 588               	.LFB22:
 589               	.LM99:
 590               	/* prologue: function */
 591               	/* frame size = 0 */
 592               	.LM100:
 593 02c8 E091 0000 		lds r30,Timebase
 594 02cc F091 0000 		lds r31,(Timebase)+1
 595               	.L45:
 596 02d0 2089      		ldd r18,Z+16
 597 02d2 3189      		ldd r19,Z+17
 598 02d4 4289      		ldd r20,Z+18
 599 02d6 5389      		ldd r21,Z+19
 600               	.LVL31:
 601               	.LM101:
 602 02d8 8089      		ldd r24,Z+16
 603 02da 9189      		ldd r25,Z+17
 604 02dc A289      		ldd r26,Z+18
 605 02de B389      		ldd r27,Z+19
 606               	.LVL32:
 607               	.LM102:
 608 02e0 2817      		cp r18,r24
 609 02e2 3907      		cpc r19,r25
 610 02e4 4A07      		cpc r20,r26
 611 02e6 5B07      		cpc r21,r27
 612 02e8 01F4      		brne .L45
 613               	.LM103:
 614 02ea B901      		movw r22,r18
 615               	.LVL33:
 616 02ec CA01      		movw r24,r20
 617               	.LVL34:
 618               	/* epilogue start */
 619 02ee 0895      		ret
 620               	.LFE22:
 622               	.global	Timebase_Timer_Get_SecondsShadow_Securely
 624               	Timebase_Timer_Get_SecondsShadow_Securely:
 625               	.LFB23:
 626               	.LM104:
 627               	/* prologue: function */
 628               	/* frame size = 0 */
 629               	.LM105:
 630 02f0 E091 0000 		lds r30,Timebase
 631 02f4 F091 0000 		lds r31,(Timebase)+1
 632               	.L49:
 633 02f8 2489      		ldd r18,Z+20
 634 02fa 3589      		ldd r19,Z+21
 635 02fc 4689      		ldd r20,Z+22
 636 02fe 5789      		ldd r21,Z+23
 637               	.LVL35:
 638               	.LM106:
 639 0300 8489      		ldd r24,Z+20
 640 0302 9589      		ldd r25,Z+21
 641 0304 A689      		ldd r26,Z+22
 642 0306 B789      		ldd r27,Z+23
 643               	.LVL36:
 644               	.LM107:
 645 0308 2817      		cp r18,r24
 646 030a 3907      		cpc r19,r25
 647 030c 4A07      		cpc r20,r26
 648 030e 5B07      		cpc r21,r27
 649 0310 01F4      		brne .L49
 650               	.LM108:
 651 0312 B901      		movw r22,r18
 652               	.LVL37:
 653 0314 CA01      		movw r24,r20
 654               	.LVL38:
 655               	/* epilogue start */
 656 0316 0895      		ret
 657               	.LFE23:
 659               	.global	Timebase_Timer_Sync_With_Shadow_Variables
 661               	Timebase_Timer_Sync_With_Shadow_Variables:
 662               	.LFB24:
 663               	.LM109:
 664               	/* prologue: function */
 665               	/* frame size = 0 */
 666               	.LM110:
 667 0318 E091 0000 		lds r30,Timebase
 668 031c F091 0000 		lds r31,(Timebase)+1
 669 0320 808D      		ldd r24,Z+24
 670 0322 8823      		tst r24
 671 0324 01F4      		brne .L56
 672               	.L57:
 673               	.LBB222:
 674               	.LBB223:
 675               	.LM111:
 676 0326 2685      		ldd r18,Z+14
 677 0328 3785      		ldd r19,Z+15
 678               	.LVL39:
 679               	.LM112:
 680 032a 8685      		ldd r24,Z+14
 681 032c 9785      		ldd r25,Z+15
 682               	.LVL40:
 683               	.LM113:
 684 032e 2817      		cp r18,r24
 685 0330 3907      		cpc r19,r25
 686 0332 01F4      		brne .L57
 687               	.LBE223:
 688               	.LBE222:
 689               	.LM114:
 690 0334 3187      		std Z+9,r19
 691 0336 2087      		std Z+8,r18
 692               	.L55:
 693               	.LBB224:
 694               	.LBB225:
 695               	.LM115:
 696 0338 2489      		ldd r18,Z+20
 697 033a 3589      		ldd r19,Z+21
 698 033c 4689      		ldd r20,Z+22
 699 033e 5789      		ldd r21,Z+23
 700               	.LVL41:
 701               	.LM116:
 702 0340 8489      		ldd r24,Z+20
 703 0342 9589      		ldd r25,Z+21
 704 0344 A689      		ldd r26,Z+22
 705 0346 B789      		ldd r27,Z+23
 706               	.LVL42:
 707               	.LM117:
 708 0348 2817      		cp r18,r24
 709 034a 3907      		cpc r19,r25
 710 034c 4A07      		cpc r20,r26
 711 034e 5B07      		cpc r21,r27
 712 0350 01F4      		brne .L55
 713               	.LBE225:
 714               	.LBE224:
 715               	.LM118:
 716 0352 2287      		std Z+10,r18
 717 0354 3387      		std Z+11,r19
 718 0356 4487      		std Z+12,r20
 719 0358 5587      		std Z+13,r21
 720               	.LM119:
 721 035a 81E0      		ldi r24,lo8(1)
 722               	.LVL43:
 723 035c 808F      		std Z+24,r24
 724               	.L56:
 725 035e 0895      		ret
 726               	.LFE24:
 728               	.global	Timebase_Timer_Delay_SubSeconds
 730               	Timebase_Timer_Delay_SubSeconds:
 731               	.LFB25:
 732               	.LM120:
 733               	.LVL44:
 734 0360 8F92      		push r8
 735 0362 9F92      		push r9
 736 0364 AF92      		push r10
 737 0366 BF92      		push r11
 738 0368 CF92      		push r12
 739 036a DF92      		push r13
 740 036c EF92      		push r14
 741 036e FF92      		push r15
 742 0370 0F93      		push r16
 743 0372 1F93      		push r17
 744 0374 CF93      		push r28
 745 0376 DF93      		push r29
 746               	/* prologue: function */
 747               	/* frame size = 0 */
 748 0378 5C01      		movw r10,r24
 749               	.LBB226:
 750               	.LBB227:
 751               	.LM121:
 752 037a C091 0000 		lds r28,Timebase
 753 037e D091 0000 		lds r29,(Timebase)+1
 754               	.LVL45:
 755               	.L61:
 756 0382 CE84      		ldd r12,Y+14
 757 0384 DF84      		ldd r13,Y+15
 758               	.LVL46:
 759               	.LM122:
 760 0386 8E85      		ldd r24,Y+14
 761 0388 9F85      		ldd r25,Y+15
 762               	.LVL47:
 763               	.LM123:
 764 038a C816      		cp r12,r24
 765 038c D906      		cpc r13,r25
 766 038e 01F4      		brne .L61
 767               	.L69:
 768               	.LBE227:
 769               	.LBE226:
 770               	.LBB228:
 771               	.LBB229:
 772               	.LM124:
 773 0390 EC88      		ldd r14,Y+20
 774 0392 FD88      		ldd r15,Y+21
 775 0394 0E89      		ldd r16,Y+22
 776 0396 1F89      		ldd r17,Y+23
 777               	.LVL48:
 778               	.LM125:
 779 0398 8C89      		ldd r24,Y+20
 780 039a 9D89      		ldd r25,Y+21
 781 039c AE89      		ldd r26,Y+22
 782 039e BF89      		ldd r27,Y+23
 783               	.LVL49:
 784               	.LM126:
 785 03a0 E816      		cp r14,r24
 786 03a2 F906      		cpc r15,r25
 787 03a4 0A07      		cpc r16,r26
 788 03a6 1B07      		cpc r17,r27
 789 03a8 01F4      		brne .L69
 790               	.LBE229:
 791               	.LBE228:
 792               	.LM127:
 793 03aa 2881      		ld r18,Y
 794 03ac 3981      		ldd r19,Y+1
 795 03ae 40E0      		ldi r20,lo8(0)
 796 03b0 50E0      		ldi r21,hi8(0)
 797 03b2 C801      		movw r24,r16
 798 03b4 B701      		movw r22,r14
 799 03b6 0E94 0000 		call __mulsi3
 800               	.LM128:
 801 03ba 7601      		movw r14,r12
 802               	.LVL50:
 803 03bc 00E0      		ldi r16,lo8(0)
 804 03be 10E0      		ldi r17,hi8(0)
 805               	.LVL51:
 806 03c0 9501      		movw r18,r10
 807 03c2 40E0      		ldi r20,lo8(0)
 808 03c4 50E0      		ldi r21,hi8(0)
 809               	.LVL52:
 810 03c6 E20E      		add r14,r18
 811 03c8 F31E      		adc r15,r19
 812 03ca 041F      		adc r16,r20
 813 03cc 151F      		adc r17,r21
 814               	.LVL53:
 815               	.LM129:
 816 03ce E60E      		add r14,r22
 817 03d0 F71E      		adc r15,r23
 818 03d2 081F      		adc r16,r24
 819 03d4 191F      		adc r17,r25
 820 03d6 20E0      		ldi r18,lo8(0)
 821 03d8 30E0      		ldi r19,hi8(0)
 822 03da 40E0      		ldi r20,hlo8(0)
 823 03dc 50E0      		ldi r21,hhi8(0)
 824               	.LVL54:
 825 03de 00C0      		rjmp .L63
 826               	.LVL55:
 827               	.L68:
 828               	.LBB230:
 829               	.LBB231:
 830               	.LM130:
 831 03e0 8E84      		ldd r8,Y+14
 832 03e2 9F84      		ldd r9,Y+15
 833               	.LM131:
 834 03e4 8E85      		ldd r24,Y+14
 835 03e6 9F85      		ldd r25,Y+15
 836               	.LVL56:
 837               	.LM132:
 838 03e8 8816      		cp r8,r24
 839 03ea 9906      		cpc r9,r25
 840 03ec 01F4      		brne .L68
 841               	.LVL57:
 842               	.L67:
 843               	.LBE231:
 844               	.LBE230:
 845               	.LBB232:
 846               	.LBB233:
 847               	.LM133:
 848 03ee AC88      		ldd r10,Y+20
 849 03f0 BD88      		ldd r11,Y+21
 850 03f2 CE88      		ldd r12,Y+22
 851 03f4 DF88      		ldd r13,Y+23
 852               	.LVL58:
 853               	.LM134:
 854 03f6 8C89      		ldd r24,Y+20
 855 03f8 9D89      		ldd r25,Y+21
 856 03fa AE89      		ldd r26,Y+22
 857 03fc BF89      		ldd r27,Y+23
 858               	.LVL59:
 859               	.LM135:
 860 03fe A816      		cp r10,r24
 861 0400 B906      		cpc r11,r25
 862 0402 CA06      		cpc r12,r26
 863 0404 DB06      		cpc r13,r27
 864 0406 01F4      		brne .L67
 865               	.LBE233:
 866               	.LBE232:
 867               	.LM136:
 868 0408 2881      		ld r18,Y
 869 040a 3981      		ldd r19,Y+1
 870               	.LVL60:
 871 040c 40E0      		ldi r20,lo8(0)
 872 040e 50E0      		ldi r21,hi8(0)
 873               	.LVL61:
 874 0410 C601      		movw r24,r12
 875 0412 B501      		movw r22,r10
 876 0414 0E94 0000 		call __mulsi3
 877               	.LVL62:
 878 0418 9B01      		movw r18,r22
 879 041a AC01      		movw r20,r24
 880               	.LVL63:
 881               	.LM137:
 882 041c C401      		movw r24,r8
 883               	.LVL64:
 884 041e A0E0      		ldi r26,lo8(0)
 885 0420 B0E0      		ldi r27,hi8(0)
 886               	.LVL65:
 887 0422 280F      		add r18,r24
 888 0424 391F      		adc r19,r25
 889 0426 4A1F      		adc r20,r26
 890 0428 5B1F      		adc r21,r27
 891               	.LVL66:
 892               	.L63:
 893               	.LM138:
 894 042a 2E15      		cp r18,r14
 895 042c 3F05      		cpc r19,r15
 896 042e 4007      		cpc r20,r16
 897 0430 5107      		cpc r21,r17
 898 0432 04F0      		brlt .L68
 899               	/* epilogue start */
 900               	.LM139:
 901 0434 DF91      		pop r29
 902 0436 CF91      		pop r28
 903 0438 1F91      		pop r17
 904 043a 0F91      		pop r16
 905               	.LVL67:
 906 043c FF90      		pop r15
 907 043e EF90      		pop r14
 908               	.LVL68:
 909 0440 DF90      		pop r13
 910 0442 CF90      		pop r12
 911               	.LVL69:
 912 0444 BF90      		pop r11
 913 0446 AF90      		pop r10
 914               	.LVL70:
 915 0448 9F90      		pop r9
 916 044a 8F90      		pop r8
 917 044c 0895      		ret
 918               	.LFE25:
 920               	.global	Timebase_Timer_Await_SubSeconds
 922               	Timebase_Timer_Await_SubSeconds:
 923               	.LFB26:
 924               	.LM140:
 925               	.LVL71:
 926 044e CF93      		push r28
 927 0450 DF93      		push r29
 928               	/* prologue: function */
 929               	/* frame size = 0 */
 930 0452 EC01      		movw r28,r24
 931               	.LBB234:
 932               	.LBB235:
 933               	.LM141:
 934 0454 E091 0000 		lds r30,Timebase
 935 0458 F091 0000 		lds r31,(Timebase)+1
 936               	.LVL72:
 937               	.L76:
 938 045c 6685      		ldd r22,Z+14
 939 045e 7785      		ldd r23,Z+15
 940               	.LVL73:
 941               	.LM142:
 942 0460 8685      		ldd r24,Z+14
 943 0462 9785      		ldd r25,Z+15
 944               	.LVL74:
 945               	.LM143:
 946 0464 6817      		cp r22,r24
 947 0466 7907      		cpc r23,r25
 948 0468 01F4      		brne .L76
 949 046a 00C0      		rjmp .L85
 950               	.LVL75:
 951               	.L82:
 952               	.LBE235:
 953               	.LBE234:
 954               	.LBB236:
 955               	.LBB237:
 956               	.LM144:
 957 046c 6685      		ldd r22,Z+14
 958 046e 7785      		ldd r23,Z+15
 959               	.LVL76:
 960               	.LM145:
 961 0470 8685      		ldd r24,Z+14
 962 0472 9785      		ldd r25,Z+15
 963               	.LVL77:
 964               	.LM146:
 965 0474 6817      		cp r22,r24
 966 0476 7907      		cpc r23,r25
 967 0478 01F4      		brne .L82
 968               	.LVL78:
 969               	.L85:
 970               	.LBE237:
 971               	.LBE236:
 972               	.LM147:
 973 047a 2481      		ldd r18,Z+4
 974 047c 3581      		ldd r19,Z+5
 975 047e 4681      		ldd r20,Z+6
 976 0480 5781      		ldd r21,Z+7
 977 0482 CB01      		movw r24,r22
 978               	.LVL79:
 979 0484 A0E0      		ldi r26,lo8(0)
 980 0486 B0E0      		ldi r27,hi8(0)
 981 0488 8217      		cp r24,r18
 982 048a 9307      		cpc r25,r19
 983 048c A407      		cpc r26,r20
 984 048e B507      		cpc r27,r21
 985 0490 01F4      		brne .L82
 986               	.LVL80:
 987               	.L81:
 988               	.LBB238:
 989               	.LBB239:
 990               	.LM148:
 991 0492 2685      		ldd r18,Z+14
 992 0494 3785      		ldd r19,Z+15
 993               	.LVL81:
 994               	.LM149:
 995 0496 8685      		ldd r24,Z+14
 996 0498 9785      		ldd r25,Z+15
 997               	.LVL82:
 998               	.LM150:
 999 049a 2817      		cp r18,r24
 1000 049c 3907      		cpc r19,r25
 1001 049e 01F4      		brne .L81
 1002               	.LBE239:
 1003               	.LBE238:
 1004               	.LM151:
 1005 04a0 C901      		movw r24,r18
 1006               	.LVL83:
 1007 04a2 A0E0      		ldi r26,lo8(0)
 1008 04a4 B0E0      		ldi r27,hi8(0)
 1009               	.LVL84:
 1010 04a6 8483      		std Z+4,r24
 1011 04a8 9583      		std Z+5,r25
 1012 04aa A683      		std Z+6,r26
 1013 04ac B783      		std Z+7,r27
 1014               	.LM152:
 1015 04ae 2481      		ldd r18,Z+4
 1016 04b0 3581      		ldd r19,Z+5
 1017 04b2 4681      		ldd r20,Z+6
 1018 04b4 5781      		ldd r21,Z+7
 1019               	.LVL85:
 1020 04b6 CE01      		movw r24,r28
 1021 04b8 A0E0      		ldi r26,lo8(0)
 1022 04ba B0E0      		ldi r27,hi8(0)
 1023               	.LVL86:
 1024 04bc 820F      		add r24,r18
 1025 04be 931F      		adc r25,r19
 1026 04c0 A41F      		adc r26,r20
 1027 04c2 B51F      		adc r27,r21
 1028               	.LVL87:
 1029 04c4 8483      		std Z+4,r24
 1030 04c6 9583      		std Z+5,r25
 1031 04c8 A683      		std Z+6,r26
 1032 04ca B783      		std Z+7,r27
 1033               	.LM153:
 1034 04cc 2481      		ldd r18,Z+4
 1035 04ce 3581      		ldd r19,Z+5
 1036 04d0 4681      		ldd r20,Z+6
 1037 04d2 5781      		ldd r21,Z+7
 1038 04d4 8081      		ld r24,Z
 1039 04d6 9181      		ldd r25,Z+1
 1040               	.LVL88:
 1041 04d8 A0E0      		ldi r26,lo8(0)
 1042 04da B0E0      		ldi r27,hi8(0)
 1043               	.LVL89:
 1044 04dc 2817      		cp r18,r24
 1045 04de 3907      		cpc r19,r25
 1046 04e0 4A07      		cpc r20,r26
 1047 04e2 5B07      		cpc r21,r27
 1048 04e4 04F0      		brlt .L80
 1049               	.LM154:
 1050 04e6 2481      		ldd r18,Z+4
 1051 04e8 3581      		ldd r19,Z+5
 1052 04ea 4681      		ldd r20,Z+6
 1053 04ec 5781      		ldd r21,Z+7
 1054 04ee 8081      		ld r24,Z
 1055 04f0 9181      		ldd r25,Z+1
 1056 04f2 A0E0      		ldi r26,lo8(0)
 1057 04f4 B0E0      		ldi r27,hi8(0)
 1058 04f6 281B      		sub r18,r24
 1059 04f8 390B      		sbc r19,r25
 1060 04fa 4A0B      		sbc r20,r26
 1061 04fc 5B0B      		sbc r21,r27
 1062 04fe 2483      		std Z+4,r18
 1063 0500 3583      		std Z+5,r19
 1064 0502 4683      		std Z+6,r20
 1065 0504 5783      		std Z+7,r21
 1066               	.L80:
 1067               	/* epilogue start */
 1068               	.LM155:
 1069 0506 DF91      		pop r29
 1070 0508 CF91      		pop r28
 1071 050a 0895      		ret
 1072               	.LFE26:
 1074               	.global	Timebase_Timer_Delay_Seconds
 1076               	Timebase_Timer_Delay_Seconds:
 1077               	.LFB27:
 1078               	.LM156:
 1079               	.LVL90:
 1080 050c EF92      		push r14
 1081 050e FF92      		push r15
 1082 0510 0F93      		push r16
 1083 0512 1F93      		push r17
 1084               	/* prologue: function */
 1085               	/* frame size = 0 */
 1086 0514 BC01      		movw r22,r24
 1087               	.LBB240:
 1088               	.LBB241:
 1089               	.LM157:
 1090 0516 E091 0000 		lds r30,Timebase
 1091 051a F091 0000 		lds r31,(Timebase)+1
 1092               	.LVL91:
 1093               	.L87:
 1094 051e 2489      		ldd r18,Z+20
 1095 0520 3589      		ldd r19,Z+21
 1096 0522 4689      		ldd r20,Z+22
 1097 0524 5789      		ldd r21,Z+23
 1098               	.LVL92:
 1099               	.LM158:
 1100 0526 8489      		ldd r24,Z+20
 1101 0528 9589      		ldd r25,Z+21
 1102 052a A689      		ldd r26,Z+22
 1103 052c B789      		ldd r27,Z+23
 1104               	.LVL93:
 1105               	.LM159:
 1106 052e 2817      		cp r18,r24
 1107 0530 3907      		cpc r19,r25
 1108 0532 4A07      		cpc r20,r26
 1109 0534 5B07      		cpc r21,r27
 1110 0536 01F4      		brne .L87
 1111               	.LBE241:
 1112               	.LBE240:
 1113               	.LM160:
 1114 0538 7B01      		movw r14,r22
 1115               	.LVL94:
 1116 053a 00E0      		ldi r16,lo8(0)
 1117 053c 10E0      		ldi r17,hi8(0)
 1118               	.LVL95:
 1119 053e E20E      		add r14,r18
 1120 0540 F31E      		adc r15,r19
 1121 0542 041F      		adc r16,r20
 1122 0544 151F      		adc r17,r21
 1123               	.LVL96:
 1124 0546 20E0      		ldi r18,lo8(0)
 1125 0548 30E0      		ldi r19,hi8(0)
 1126 054a 40E0      		ldi r20,hlo8(0)
 1127 054c 50E0      		ldi r21,hhi8(0)
 1128               	.LVL97:
 1129 054e 00C0      		rjmp .L88
 1130               	.LVL98:
 1131               	.L91:
 1132               	.LBB242:
 1133               	.LBB243:
 1134               	.LM161:
 1135 0550 2489      		ldd r18,Z+20
 1136 0552 3589      		ldd r19,Z+21
 1137 0554 4689      		ldd r20,Z+22
 1138 0556 5789      		ldd r21,Z+23
 1139               	.LM162:
 1140 0558 8489      		ldd r24,Z+20
 1141 055a 9589      		ldd r25,Z+21
 1142 055c A689      		ldd r26,Z+22
 1143 055e B789      		ldd r27,Z+23
 1144               	.LVL99:
 1145               	.LM163:
 1146 0560 2817      		cp r18,r24
 1147 0562 3907      		cpc r19,r25
 1148 0564 4A07      		cpc r20,r26
 1149 0566 5B07      		cpc r21,r27
 1150 0568 01F4      		brne .L91
 1151               	.LVL100:
 1152               	.L88:
 1153               	.LBE243:
 1154               	.LBE242:
 1155               	.LM164:
 1156 056a 2E15      		cp r18,r14
 1157 056c 3F05      		cpc r19,r15
 1158 056e 4007      		cpc r20,r16
 1159 0570 5107      		cpc r21,r17
 1160 0572 04F0      		brlt .L91
 1161               	/* epilogue start */
 1162               	.LM165:
 1163 0574 1F91      		pop r17
 1164 0576 0F91      		pop r16
 1165               	.LVL101:
 1166 0578 FF90      		pop r15
 1167 057a EF90      		pop r14
 1168               	.LVL102:
 1169 057c 0895      		ret
 1170               	.LFE27:
 1172               	.global	Timebase_DownCounter_SS_Get_Status
 1174               	Timebase_DownCounter_SS_Get_Status:
 1175               	.LFB28:
 1176               	.LM166:
 1177               	.LVL103:
 1178               	/* prologue: function */
 1179               	/* frame size = 0 */
 1180               	.LM167:
 1181 057e E091 0000 		lds r30,Timebase
 1182 0582 F091 0000 		lds r31,(Timebase)+1
 1183 0586 90E0      		ldi r25,lo8(0)
 1184               	.LVL104:
 1185 0588 25E1      		ldi r18,lo8(21)
 1186 058a 30E0      		ldi r19,hi8(21)
 1187 058c AC01      		movw r20,r24
 1188 058e 429F      		mul r20,r18
 1189 0590 C001      		movw r24,r0
 1190 0592 439F      		mul r20,r19
 1191 0594 900D      		add r25,r0
 1192 0596 529F      		mul r21,r18
 1193 0598 900D      		add r25,r0
 1194 059a 1124      		clr r1
 1195               	.LVL105:
 1196 059c E80F      		add r30,r24
 1197 059e F91F      		adc r31,r25
 1198 05a0 828D      		ldd r24,Z+26
 1199 05a2 8695      		lsr r24
 1200               	.LM168:
 1201 05a4 8F70      		andi r24,lo8(15)
 1202               	/* epilogue start */
 1203 05a6 0895      		ret
 1204               	.LFE28:
 1206               	.global	Timebase_DownCounter_SS_Set_Status
 1208               	Timebase_DownCounter_SS_Set_Status:
 1209               	.LFB29:
 1210               	.LM169:
 1211               	.LVL106:
 1212               	/* prologue: function */
 1213               	/* frame size = 0 */
 1214               	.LM170:
 1215 05a8 E091 0000 		lds r30,Timebase
 1216 05ac F091 0000 		lds r31,(Timebase)+1
 1217 05b0 90E0      		ldi r25,lo8(0)
 1218               	.LVL107:
 1219 05b2 25E1      		ldi r18,lo8(21)
 1220 05b4 30E0      		ldi r19,hi8(21)
 1221 05b6 AC01      		movw r20,r24
 1222 05b8 429F      		mul r20,r18
 1223 05ba C001      		movw r24,r0
 1224 05bc 439F      		mul r20,r19
 1225 05be 900D      		add r25,r0
 1226 05c0 529F      		mul r21,r18
 1227 05c2 900D      		add r25,r0
 1228 05c4 1124      		clr r1
 1229               	.LVL108:
 1230 05c6 E80F      		add r30,r24
 1231 05c8 F91F      		adc r31,r25
 1232 05ca 6F70      		andi r22,lo8(15)
 1233               	.LVL109:
 1234 05cc 660F      		lsl r22
 1235 05ce 828D      		ldd r24,Z+26
 1236 05d0 817E      		andi r24,lo8(-31)
 1237 05d2 862B      		or r24,r22
 1238 05d4 828F      		std Z+26,r24
 1239               	/* epilogue start */
 1240               	.LM171:
 1241 05d6 0895      		ret
 1242               	.LFE29:
 1244               	.global	Timebase_DownCounter_SS_Get_Value
 1246               	Timebase_DownCounter_SS_Get_Value:
 1247               	.LFB30:
 1248               	.LM172:
 1249               	.LVL110:
 1250               	/* prologue: function */
 1251               	/* frame size = 0 */
 1252               	.LM173:
 1253 05d8 E091 0000 		lds r30,Timebase
 1254 05dc F091 0000 		lds r31,(Timebase)+1
 1255 05e0 90E0      		ldi r25,lo8(0)
 1256               	.LVL111:
 1257 05e2 25E1      		ldi r18,lo8(21)
 1258 05e4 30E0      		ldi r19,hi8(21)
 1259 05e6 AC01      		movw r20,r24
 1260 05e8 429F      		mul r20,r18
 1261 05ea C001      		movw r24,r0
 1262 05ec 439F      		mul r20,r19
 1263 05ee 900D      		add r25,r0
 1264 05f0 529F      		mul r21,r18
 1265 05f2 900D      		add r25,r0
 1266 05f4 1124      		clr r1
 1267               	.LVL112:
 1268 05f6 E80F      		add r30,r24
 1269 05f8 F91F      		adc r31,r25
 1270 05fa DF01      		movw r26,r30
 1271 05fc 9396      		adiw r26,35
 1272 05fe 63A1      		ldd r22,Z+35
 1273 0600 1196      		adiw r26,1
 1274 0602 7C91      		ld r23,X
 1275 0604 1197      		sbiw r26,1
 1276               	.LM174:
 1277 0606 1296      		adiw r26,2
 1278 0608 8C91      		ld r24,X
 1279 060a 1297      		sbiw r26,2
 1280 060c 1396      		adiw r26,3
 1281 060e 9C91      		ld r25,X
 1282               	.LVL113:
 1283               	/* epilogue start */
 1284 0610 0895      		ret
 1285               	.LFE30:
 1287               	.global	Timebase_DownCounter_SS_Set_Value
 1289               	Timebase_DownCounter_SS_Set_Value:
 1290               	.LFB31:
 1291               	.LM175:
 1292               	.LVL114:
 1293               	/* prologue: function */
 1294               	/* frame size = 0 */
 1295               	.LM176:
 1296 0612 E091 0000 		lds r30,Timebase
 1297 0616 F091 0000 		lds r31,(Timebase)+1
 1298 061a 90E0      		ldi r25,lo8(0)
 1299               	.LVL115:
 1300 061c 25E1      		ldi r18,lo8(21)
 1301 061e 30E0      		ldi r19,hi8(21)
 1302 0620 DC01      		movw r26,r24
 1303 0622 A29F      		mul r26,r18
 1304 0624 C001      		movw r24,r0
 1305 0626 A39F      		mul r26,r19
 1306 0628 900D      		add r25,r0
 1307 062a B29F      		mul r27,r18
 1308 062c 900D      		add r25,r0
 1309 062e 1124      		clr r1
 1310               	.LVL116:
 1311 0630 E80F      		add r30,r24
 1312 0632 F91F      		adc r31,r25
 1313 0634 43A3      		std Z+35,r20
 1314 0636 54A3      		std Z+36,r21
 1315 0638 65A3      		std Z+37,r22
 1316 063a 76A3      		std Z+38,r23
 1317               	/* epilogue start */
 1318               	.LM177:
 1319 063c 0895      		ret
 1320               	.LFE31:
 1322               	.global	Timebase_DownCounter_SS_Get_EndValueSec
 1324               	Timebase_DownCounter_SS_Get_EndValueSec:
 1325               	.LFB32:
 1326               	.LM178:
 1327               	.LVL117:
 1328               	/* prologue: function */
 1329               	/* frame size = 0 */
 1330               	.LM179:
 1331 063e E091 0000 		lds r30,Timebase
 1332 0642 F091 0000 		lds r31,(Timebase)+1
 1333 0646 90E0      		ldi r25,lo8(0)
 1334               	.LVL118:
 1335 0648 25E1      		ldi r18,lo8(21)
 1336 064a 30E0      		ldi r19,hi8(21)
 1337 064c AC01      		movw r20,r24
 1338 064e 429F      		mul r20,r18
 1339 0650 C001      		movw r24,r0
 1340 0652 439F      		mul r20,r19
 1341 0654 900D      		add r25,r0
 1342 0656 529F      		mul r21,r18
 1343 0658 900D      		add r25,r0
 1344 065a 1124      		clr r1
 1345               	.LVL119:
 1346 065c E80F      		add r30,r24
 1347 065e F91F      		adc r31,r25
 1348 0660 DF01      		movw r26,r30
 1349 0662 5B96      		adiw r26,27
 1350 0664 638D      		ldd r22,Z+27
 1351 0666 1196      		adiw r26,1
 1352 0668 7C91      		ld r23,X
 1353 066a 1197      		sbiw r26,1
 1354               	.LM180:
 1355 066c 1296      		adiw r26,2
 1356 066e 8C91      		ld r24,X
 1357 0670 1297      		sbiw r26,2
 1358 0672 1396      		adiw r26,3
 1359 0674 9C91      		ld r25,X
 1360               	.LVL120:
 1361               	/* epilogue start */
 1362 0676 0895      		ret
 1363               	.LFE32:
 1365               	.global	Timebase_DownCounter_SS_Get_EndValueSubSec
 1367               	Timebase_DownCounter_SS_Get_EndValueSubSec:
 1368               	.LFB33:
 1369               	.LM181:
 1370               	.LVL121:
 1371               	/* prologue: function */
 1372               	/* frame size = 0 */
 1373               	.LM182:
 1374 0678 E091 0000 		lds r30,Timebase
 1375 067c F091 0000 		lds r31,(Timebase)+1
 1376 0680 90E0      		ldi r25,lo8(0)
 1377               	.LVL122:
 1378 0682 25E1      		ldi r18,lo8(21)
 1379 0684 30E0      		ldi r19,hi8(21)
 1380 0686 AC01      		movw r20,r24
 1381 0688 429F      		mul r20,r18
 1382 068a C001      		movw r24,r0
 1383 068c 439F      		mul r20,r19
 1384 068e 900D      		add r25,r0
 1385 0690 529F      		mul r21,r18
 1386 0692 900D      		add r25,r0
 1387 0694 1124      		clr r1
 1388               	.LVL123:
 1389 0696 E80F      		add r30,r24
 1390 0698 F91F      		adc r31,r25
 1391 069a DF01      		movw r26,r30
 1392 069c 5F96      		adiw r26,31
 1393 069e 678D      		ldd r22,Z+31
 1394 06a0 1196      		adiw r26,1
 1395 06a2 7C91      		ld r23,X
 1396 06a4 1197      		sbiw r26,1
 1397               	.LM183:
 1398 06a6 1296      		adiw r26,2
 1399 06a8 8C91      		ld r24,X
 1400 06aa 1297      		sbiw r26,2
 1401 06ac 1396      		adiw r26,3
 1402 06ae 9C91      		ld r25,X
 1403               	.LVL124:
 1404               	/* epilogue start */
 1405 06b0 0895      		ret
 1406               	.LFE33:
 1408               	.global	Timebase_DownCounter_SS_Set_EndValueSec
 1410               	Timebase_DownCounter_SS_Set_EndValueSec:
 1411               	.LFB34:
 1412               	.LM184:
 1413               	.LVL125:
 1414               	/* prologue: function */
 1415               	/* frame size = 0 */
 1416               	.LM185:
 1417 06b2 E091 0000 		lds r30,Timebase
 1418 06b6 F091 0000 		lds r31,(Timebase)+1
 1419 06ba 90E0      		ldi r25,lo8(0)
 1420               	.LVL126:
 1421 06bc 25E1      		ldi r18,lo8(21)
 1422 06be 30E0      		ldi r19,hi8(21)
 1423 06c0 DC01      		movw r26,r24
 1424 06c2 A29F      		mul r26,r18
 1425 06c4 C001      		movw r24,r0
 1426 06c6 A39F      		mul r26,r19
 1427 06c8 900D      		add r25,r0
 1428 06ca B29F      		mul r27,r18
 1429 06cc 900D      		add r25,r0
 1430 06ce 1124      		clr r1
 1431               	.LVL127:
 1432 06d0 E80F      		add r30,r24
 1433 06d2 F91F      		adc r31,r25
 1434 06d4 438F      		std Z+27,r20
 1435 06d6 548F      		std Z+28,r21
 1436 06d8 658F      		std Z+29,r22
 1437 06da 768F      		std Z+30,r23
 1438               	/* epilogue start */
 1439               	.LM186:
 1440 06dc 0895      		ret
 1441               	.LFE34:
 1443               	.global	Timebase_DownCounter_SS_Set_EndValueSubSec
 1445               	Timebase_DownCounter_SS_Set_EndValueSubSec:
 1446               	.LFB35:
 1447               	.LM187:
 1448               	.LVL128:
 1449               	/* prologue: function */
 1450               	/* frame size = 0 */
 1451               	.LM188:
 1452 06de E091 0000 		lds r30,Timebase
 1453 06e2 F091 0000 		lds r31,(Timebase)+1
 1454 06e6 90E0      		ldi r25,lo8(0)
 1455               	.LVL129:
 1456 06e8 25E1      		ldi r18,lo8(21)
 1457 06ea 30E0      		ldi r19,hi8(21)
 1458 06ec DC01      		movw r26,r24
 1459 06ee A29F      		mul r26,r18
 1460 06f0 C001      		movw r24,r0
 1461 06f2 A39F      		mul r26,r19
 1462 06f4 900D      		add r25,r0
 1463 06f6 B29F      		mul r27,r18
 1464 06f8 900D      		add r25,r0
 1465 06fa 1124      		clr r1
 1466               	.LVL130:
 1467 06fc E80F      		add r30,r24
 1468 06fe F91F      		adc r31,r25
 1469 0700 478F      		std Z+31,r20
 1470 0702 50A3      		std Z+32,r21
 1471 0704 61A3      		std Z+33,r22
 1472 0706 72A3      		std Z+34,r23
 1473               	/* epilogue start */
 1474               	.LM189:
 1475 0708 0895      		ret
 1476               	.LFE35:
 1478               	.global	Timebase_DownCounter_SS_Get_PeriodValue
 1480               	Timebase_DownCounter_SS_Get_PeriodValue:
 1481               	.LFB36:
 1482               	.LM190:
 1483               	.LVL131:
 1484               	/* prologue: function */
 1485               	/* frame size = 0 */
 1486               	.LM191:
 1487 070a E091 0000 		lds r30,Timebase
 1488 070e F091 0000 		lds r31,(Timebase)+1
 1489 0712 90E0      		ldi r25,lo8(0)
 1490               	.LVL132:
 1491 0714 25E1      		ldi r18,lo8(21)
 1492 0716 30E0      		ldi r19,hi8(21)
 1493 0718 AC01      		movw r20,r24
 1494 071a 429F      		mul r20,r18
 1495 071c C001      		movw r24,r0
 1496 071e 439F      		mul r20,r19
 1497 0720 900D      		add r25,r0
 1498 0722 529F      		mul r21,r18
 1499 0724 900D      		add r25,r0
 1500 0726 1124      		clr r1
 1501               	.LVL133:
 1502 0728 E80F      		add r30,r24
 1503 072a F91F      		adc r31,r25
 1504 072c DF01      		movw r26,r30
 1505 072e 9796      		adiw r26,39
 1506 0730 67A1      		ldd r22,Z+39
 1507 0732 1196      		adiw r26,1
 1508 0734 7C91      		ld r23,X
 1509 0736 1197      		sbiw r26,1
 1510               	.LM192:
 1511 0738 1296      		adiw r26,2
 1512 073a 8C91      		ld r24,X
 1513 073c 1297      		sbiw r26,2
 1514 073e 1396      		adiw r26,3
 1515 0740 9C91      		ld r25,X
 1516               	.LVL134:
 1517               	/* epilogue start */
 1518 0742 0895      		ret
 1519               	.LFE36:
 1521               	.global	Timebase_DownCounter_SS_Set_PeriodValue
 1523               	Timebase_DownCounter_SS_Set_PeriodValue:
 1524               	.LFB37:
 1525               	.LM193:
 1526               	.LVL135:
 1527               	/* prologue: function */
 1528               	/* frame size = 0 */
 1529 0744 E091 0000 		lds r30,Timebase
 1530 0748 F091 0000 		lds r31,(Timebase)+1
 1531 074c 282F      		mov r18,r24
 1532 074e 30E0      		ldi r19,lo8(0)
 1533               	.LVL136:
 1534               	.LM194:
 1535 0750 77FF      		sbrs r23,7
 1536 0752 00C0      		rjmp .L113
 1537               	.LVL137:
 1538               	.LM195:
 1539 0754 85E1      		ldi r24,lo8(21)
 1540 0756 90E0      		ldi r25,hi8(21)
 1541 0758 AC01      		movw r20,r24
 1542               	.LVL138:
 1543 075a 249F      		mul r18,r20
 1544 075c C001      		movw r24,r0
 1545 075e 259F      		mul r18,r21
 1546 0760 900D      		add r25,r0
 1547 0762 349F      		mul r19,r20
 1548 0764 900D      		add r25,r0
 1549 0766 1124      		clr r1
 1550 0768 E80F      		add r30,r24
 1551 076a F91F      		adc r31,r25
 1552 076c 17A2      		std Z+39,__zero_reg__
 1553 076e 10A6      		std Z+40,__zero_reg__
 1554 0770 11A6      		std Z+41,__zero_reg__
 1555 0772 12A6      		std Z+42,__zero_reg__
 1556 0774 0895      		ret
 1557               	.LVL139:
 1558               	.L113:
 1559               	.LM196:
 1560 0776 85E1      		ldi r24,lo8(21)
 1561 0778 90E0      		ldi r25,hi8(21)
 1562 077a DC01      		movw r26,r24
 1563 077c 2A9F      		mul r18,r26
 1564 077e C001      		movw r24,r0
 1565 0780 2B9F      		mul r18,r27
 1566 0782 900D      		add r25,r0
 1567 0784 3A9F      		mul r19,r26
 1568 0786 900D      		add r25,r0
 1569 0788 1124      		clr r1
 1570 078a E80F      		add r30,r24
 1571 078c F91F      		adc r31,r25
 1572 078e 47A3      		std Z+39,r20
 1573 0790 50A7      		std Z+40,r21
 1574 0792 61A7      		std Z+41,r22
 1575 0794 72A7      		std Z+42,r23
 1576 0796 0895      		ret
 1577               	.LFE37:
 1579               	.global	Timebase_DownCounter_SS_Get_Period_Flag
 1581               	Timebase_DownCounter_SS_Get_Period_Flag:
 1582               	.LFB38:
 1583               	.LM197:
 1584               	.LVL140:
 1585               	/* prologue: function */
 1586               	/* frame size = 0 */
 1587               	.LM198:
 1588 0798 E091 0000 		lds r30,Timebase
 1589 079c F091 0000 		lds r31,(Timebase)+1
 1590 07a0 90E0      		ldi r25,lo8(0)
 1591               	.LVL141:
 1592 07a2 25E1      		ldi r18,lo8(21)
 1593 07a4 30E0      		ldi r19,hi8(21)
 1594 07a6 AC01      		movw r20,r24
 1595 07a8 429F      		mul r20,r18
 1596 07aa C001      		movw r24,r0
 1597 07ac 439F      		mul r20,r19
 1598 07ae 900D      		add r25,r0
 1599 07b0 529F      		mul r21,r18
 1600 07b2 900D      		add r25,r0
 1601 07b4 1124      		clr r1
 1602               	.LVL142:
 1603 07b6 E80F      		add r30,r24
 1604 07b8 F91F      		adc r31,r25
 1605 07ba 828D      		ldd r24,Z+26
 1606               	.LM199:
 1607 07bc 8170      		andi r24,lo8(1)
 1608               	/* epilogue start */
 1609 07be 0895      		ret
 1610               	.LFE38:
 1612               	.global	Timebase_DownCounter_SS_Set_Period_Flag
 1614               	Timebase_DownCounter_SS_Set_Period_Flag:
 1615               	.LFB39:
 1616               	.LM200:
 1617               	.LVL143:
 1618               	/* prologue: function */
 1619               	/* frame size = 0 */
 1620               	.LM201:
 1621 07c0 E091 0000 		lds r30,Timebase
 1622 07c4 F091 0000 		lds r31,(Timebase)+1
 1623 07c8 90E0      		ldi r25,lo8(0)
 1624               	.LVL144:
 1625 07ca 25E1      		ldi r18,lo8(21)
 1626 07cc 30E0      		ldi r19,hi8(21)
 1627 07ce AC01      		movw r20,r24
 1628 07d0 429F      		mul r20,r18
 1629 07d2 C001      		movw r24,r0
 1630 07d4 439F      		mul r20,r19
 1631 07d6 900D      		add r25,r0
 1632 07d8 529F      		mul r21,r18
 1633 07da 900D      		add r25,r0
 1634 07dc 1124      		clr r1
 1635               	.LVL145:
 1636 07de E80F      		add r30,r24
 1637 07e0 F91F      		adc r31,r25
 1638 07e2 828D      		ldd r24,Z+26
 1639 07e4 8160      		ori r24,lo8(1)
 1640 07e6 828F      		std Z+26,r24
 1641               	/* epilogue start */
 1642               	.LM202:
 1643 07e8 0895      		ret
 1644               	.LFE39:
 1646               	.global	Timebase_DownCounter_SS_Clear_Period_Flag
 1648               	Timebase_DownCounter_SS_Clear_Period_Flag:
 1649               	.LFB40:
 1650               	.LM203:
 1651               	.LVL146:
 1652               	/* prologue: function */
 1653               	/* frame size = 0 */
 1654               	.LM204:
 1655 07ea E091 0000 		lds r30,Timebase
 1656 07ee F091 0000 		lds r31,(Timebase)+1
 1657 07f2 90E0      		ldi r25,lo8(0)
 1658               	.LVL147:
 1659 07f4 25E1      		ldi r18,lo8(21)
 1660 07f6 30E0      		ldi r19,hi8(21)
 1661 07f8 AC01      		movw r20,r24
 1662 07fa 429F      		mul r20,r18
 1663 07fc C001      		movw r24,r0
 1664 07fe 439F      		mul r20,r19
 1665 0800 900D      		add r25,r0
 1666 0802 529F      		mul r21,r18
 1667 0804 900D      		add r25,r0
 1668 0806 1124      		clr r1
 1669               	.LVL148:
 1670 0808 E80F      		add r30,r24
 1671 080a F91F      		adc r31,r25
 1672 080c 828D      		ldd r24,Z+26
 1673 080e 8E7F      		andi r24,lo8(-2)
 1674 0810 828F      		std Z+26,r24
 1675               	/* epilogue start */
 1676               	.LM205:
 1677 0812 0895      		ret
 1678               	.LFE40:
 1680               	.global	Timebase_DownCounter_SS_Get_ReloadValue
 1682               	Timebase_DownCounter_SS_Get_ReloadValue:
 1683               	.LFB41:
 1684               	.LM206:
 1685               	.LVL149:
 1686               	/* prologue: function */
 1687               	/* frame size = 0 */
 1688               	.LM207:
 1689 0814 E091 0000 		lds r30,Timebase
 1690 0818 F091 0000 		lds r31,(Timebase)+1
 1691 081c 90E0      		ldi r25,lo8(0)
 1692               	.LVL150:
 1693 081e 25E1      		ldi r18,lo8(21)
 1694 0820 30E0      		ldi r19,hi8(21)
 1695 0822 AC01      		movw r20,r24
 1696 0824 429F      		mul r20,r18
 1697 0826 C001      		movw r24,r0
 1698 0828 439F      		mul r20,r19
 1699 082a 900D      		add r25,r0
 1700 082c 529F      		mul r21,r18
 1701 082e 900D      		add r25,r0
 1702 0830 1124      		clr r1
 1703               	.LVL151:
 1704 0832 E80F      		add r30,r24
 1705 0834 F91F      		adc r31,r25
 1706 0836 DF01      		movw r26,r30
 1707 0838 9B96      		adiw r26,43
 1708 083a 63A5      		ldd r22,Z+43
 1709 083c 1196      		adiw r26,1
 1710 083e 7C91      		ld r23,X
 1711 0840 1197      		sbiw r26,1
 1712               	.LM208:
 1713 0842 1296      		adiw r26,2
 1714 0844 8C91      		ld r24,X
 1715 0846 1297      		sbiw r26,2
 1716 0848 1396      		adiw r26,3
 1717 084a 9C91      		ld r25,X
 1718               	.LVL152:
 1719               	/* epilogue start */
 1720 084c 0895      		ret
 1721               	.LFE41:
 1723               	.global	Timebase_DownCounter_SS_Set_ReloadValue
 1725               	Timebase_DownCounter_SS_Set_ReloadValue:
 1726               	.LFB42:
 1727               	.LM209:
 1728               	.LVL153:
 1729               	/* prologue: function */
 1730               	/* frame size = 0 */
 1731               	.LM210:
 1732 084e E091 0000 		lds r30,Timebase
 1733 0852 F091 0000 		lds r31,(Timebase)+1
 1734 0856 90E0      		ldi r25,lo8(0)
 1735               	.LVL154:
 1736 0858 25E1      		ldi r18,lo8(21)
 1737 085a 30E0      		ldi r19,hi8(21)
 1738 085c DC01      		movw r26,r24
 1739 085e A29F      		mul r26,r18
 1740 0860 C001      		movw r24,r0
 1741 0862 A39F      		mul r26,r19
 1742 0864 900D      		add r25,r0
 1743 0866 B29F      		mul r27,r18
 1744 0868 900D      		add r25,r0
 1745 086a 1124      		clr r1
 1746               	.LVL155:
 1747 086c E80F      		add r30,r24
 1748 086e F91F      		adc r31,r25
 1749 0870 43A7      		std Z+43,r20
 1750 0872 54A7      		std Z+44,r21
 1751 0874 65A7      		std Z+45,r22
 1752 0876 76A7      		std Z+46,r23
 1753               	/* epilogue start */
 1754               	.LM211:
 1755 0878 0895      		ret
 1756               	.LFE42:
 1758               	.global	Timebase_DownCounter_SS_Reset
 1760               	Timebase_DownCounter_SS_Reset:
 1761               	.LFB43:
 1762               	.LM212:
 1763               	.LVL156:
 1764               	/* prologue: function */
 1765               	/* frame size = 0 */
 1766               	.LBB244:
 1767               	.LBB245:
 1768               	.LM213:
 1769 087a E091 0000 		lds r30,Timebase
 1770 087e F091 0000 		lds r31,(Timebase)+1
 1771 0882 90E0      		ldi r25,lo8(0)
 1772 0884 25E1      		ldi r18,lo8(21)
 1773 0886 30E0      		ldi r19,hi8(21)
 1774 0888 AC01      		movw r20,r24
 1775               	.LVL157:
 1776 088a 429F      		mul r20,r18
 1777 088c C001      		movw r24,r0
 1778 088e 439F      		mul r20,r19
 1779 0890 900D      		add r25,r0
 1780 0892 529F      		mul r21,r18
 1781 0894 900D      		add r25,r0
 1782 0896 1124      		clr r1
 1783 0898 E80F      		add r30,r24
 1784 089a F91F      		adc r31,r25
 1785 089c 178E      		std Z+31,__zero_reg__
 1786 089e 10A2      		std Z+32,__zero_reg__
 1787 08a0 11A2      		std Z+33,__zero_reg__
 1788 08a2 12A2      		std Z+34,__zero_reg__
 1789               	.LBE245:
 1790               	.LBE244:
 1791               	.LBB246:
 1792               	.LBB247:
 1793               	.LM214:
 1794 08a4 138E      		std Z+27,__zero_reg__
 1795 08a6 148E      		std Z+28,__zero_reg__
 1796 08a8 158E      		std Z+29,__zero_reg__
 1797 08aa 168E      		std Z+30,__zero_reg__
 1798               	.LBE247:
 1799               	.LBE246:
 1800               	.LBB248:
 1801               	.LBB249:
 1802               	.LM215:
 1803 08ac 13A2      		std Z+35,__zero_reg__
 1804 08ae 14A2      		std Z+36,__zero_reg__
 1805 08b0 15A2      		std Z+37,__zero_reg__
 1806 08b2 16A2      		std Z+38,__zero_reg__
 1807               	.LBE249:
 1808               	.LBE248:
 1809               	.LBB250:
 1810               	.LBB251:
 1811               	.LM216:
 1812 08b4 828D      		ldd r24,Z+26
 1813               	.LBE251:
 1814               	.LBE250:
 1815               	.LBB252:
 1816               	.LBB253:
 1817               	.LM217:
 1818 08b6 807E      		andi r24,lo8(-32)
 1819 08b8 828F      		std Z+26,r24
 1820               	.LBE253:
 1821               	.LBE252:
 1822               	.LBB254:
 1823               	.LBB255:
 1824               	.LM218:
 1825 08ba 13A6      		std Z+43,__zero_reg__
 1826 08bc 14A6      		std Z+44,__zero_reg__
 1827 08be 15A6      		std Z+45,__zero_reg__
 1828 08c0 16A6      		std Z+46,__zero_reg__
 1829               	/* epilogue start */
 1830               	.LBE255:
 1831               	.LBE254:
 1832               	.LM219:
 1833 08c2 0895      		ret
 1834               	.LFE43:
 1836               	.global	Timebase_DownCounter_SS_Clear_All_Flags
 1838               	Timebase_DownCounter_SS_Clear_All_Flags:
 1839               	.LFB44:
 1840               	.LM220:
 1841               	.LVL158:
 1842               	/* prologue: function */
 1843               	/* frame size = 0 */
 1844               	.LBB256:
 1845               	.LBB257:
 1846               	.LBB258:
 1847               	.LBB259:
 1848               	.LM221:
 1849 08c4 E091 0000 		lds r30,Timebase
 1850 08c8 F091 0000 		lds r31,(Timebase)+1
 1851 08cc 90E0      		ldi r25,lo8(0)
 1852 08ce 25E1      		ldi r18,lo8(21)
 1853 08d0 30E0      		ldi r19,hi8(21)
 1854 08d2 AC01      		movw r20,r24
 1855               	.LVL159:
 1856 08d4 429F      		mul r20,r18
 1857 08d6 C001      		movw r24,r0
 1858 08d8 439F      		mul r20,r19
 1859 08da 900D      		add r25,r0
 1860 08dc 529F      		mul r21,r18
 1861 08de 900D      		add r25,r0
 1862 08e0 1124      		clr r1
 1863 08e2 E80F      		add r30,r24
 1864 08e4 F91F      		adc r31,r25
 1865 08e6 178E      		std Z+31,__zero_reg__
 1866 08e8 10A2      		std Z+32,__zero_reg__
 1867 08ea 11A2      		std Z+33,__zero_reg__
 1868 08ec 12A2      		std Z+34,__zero_reg__
 1869               	.LBE259:
 1870               	.LBE258:
 1871               	.LBB260:
 1872               	.LBB261:
 1873               	.LM222:
 1874 08ee 138E      		std Z+27,__zero_reg__
 1875 08f0 148E      		std Z+28,__zero_reg__
 1876 08f2 158E      		std Z+29,__zero_reg__
 1877 08f4 168E      		std Z+30,__zero_reg__
 1878               	.LBE261:
 1879               	.LBE260:
 1880               	.LBB262:
 1881               	.LBB263:
 1882               	.LM223:
 1883 08f6 13A2      		std Z+35,__zero_reg__
 1884 08f8 14A2      		std Z+36,__zero_reg__
 1885 08fa 15A2      		std Z+37,__zero_reg__
 1886 08fc 16A2      		std Z+38,__zero_reg__
 1887               	.LBE263:
 1888               	.LBE262:
 1889               	.LBB264:
 1890               	.LBB265:
 1891               	.LM224:
 1892 08fe 828D      		ldd r24,Z+26
 1893               	.LBE265:
 1894               	.LBE264:
 1895               	.LBB266:
 1896               	.LBB267:
 1897               	.LM225:
 1898 0900 807E      		andi r24,lo8(-32)
 1899 0902 828F      		std Z+26,r24
 1900               	.LBE267:
 1901               	.LBE266:
 1902               	.LBB268:
 1903               	.LBB269:
 1904               	.LM226:
 1905 0904 13A6      		std Z+43,__zero_reg__
 1906 0906 14A6      		std Z+44,__zero_reg__
 1907 0908 15A6      		std Z+45,__zero_reg__
 1908 090a 16A6      		std Z+46,__zero_reg__
 1909               	/* epilogue start */
 1910               	.LBE269:
 1911               	.LBE268:
 1912               	.LBE257:
 1913               	.LBE256:
 1914               	.LM227:
 1915 090c 0895      		ret
 1916               	.LFE44:
 1918               	.global	Timebase_DownCounter_SS_Start
 1920               	Timebase_DownCounter_SS_Start:
 1921               	.LFB45:
 1922               	.LM228:
 1923               	.LVL160:
 1924               	/* prologue: function */
 1925               	/* frame size = 0 */
 1926               	.LBB270:
 1927               	.LBB271:
 1928               	.LM229:
 1929 090e E091 0000 		lds r30,Timebase
 1930 0912 F091 0000 		lds r31,(Timebase)+1
 1931 0916 90E0      		ldi r25,lo8(0)
 1932               	.LBE271:
 1933               	.LBE270:
 1934               	.LM230:
 1935 0918 25E1      		ldi r18,lo8(21)
 1936 091a 30E0      		ldi r19,hi8(21)
 1937 091c AC01      		movw r20,r24
 1938               	.LVL161:
 1939 091e 429F      		mul r20,r18
 1940 0920 C001      		movw r24,r0
 1941 0922 439F      		mul r20,r19
 1942 0924 900D      		add r25,r0
 1943 0926 529F      		mul r21,r18
 1944 0928 900D      		add r25,r0
 1945 092a 1124      		clr r1
 1946 092c E80F      		add r30,r24
 1947 092e F91F      		adc r31,r25
 1948 0930 928D      		ldd r25,Z+26
 1949 0932 892F      		mov r24,r25
 1950 0934 8695      		lsr r24
 1951 0936 8F70      		andi r24,lo8(15)
 1952 0938 8130      		cpi r24,lo8(1)
 1953 093a 01F0      		breq .L132
 1954               	.LBB272:
 1955               	.LBB273:
 1956               	.LM231:
 1957 093c 917E      		andi r25,lo8(-31)
 1958 093e 9260      		ori r25,lo8(2)
 1959 0940 928F      		std Z+26,r25
 1960               	.L132:
 1961 0942 0895      		ret
 1962               	.LBE273:
 1963               	.LBE272:
 1964               	.LFE45:
 1966               	.global	Timebase_DownCounter_SS_Stop
 1968               	Timebase_DownCounter_SS_Stop:
 1969               	.LFB46:
 1970               	.LM232:
 1971               	.LVL162:
 1972               	/* prologue: function */
 1973               	/* frame size = 0 */
 1974               	.LBB274:
 1975               	.LBB275:
 1976               	.LM233:
 1977 0944 E091 0000 		lds r30,Timebase
 1978 0948 F091 0000 		lds r31,(Timebase)+1
 1979 094c 90E0      		ldi r25,lo8(0)
 1980               	.LBE275:
 1981               	.LBE274:
 1982               	.LM234:
 1983 094e 25E1      		ldi r18,lo8(21)
 1984 0950 30E0      		ldi r19,hi8(21)
 1985 0952 AC01      		movw r20,r24
 1986               	.LVL163:
 1987 0954 429F      		mul r20,r18
 1988 0956 C001      		movw r24,r0
 1989 0958 439F      		mul r20,r19
 1990 095a 900D      		add r25,r0
 1991 095c 529F      		mul r21,r18
 1992 095e 900D      		add r25,r0
 1993 0960 1124      		clr r1
 1994 0962 E80F      		add r30,r24
 1995 0964 F91F      		adc r31,r25
 1996 0966 928D      		ldd r25,Z+26
 1997 0968 892F      		mov r24,r25
 1998 096a 8695      		lsr r24
 1999 096c 8F70      		andi r24,lo8(15)
 2000 096e 8230      		cpi r24,lo8(2)
 2001 0970 01F0      		breq .L135
 2002               	.LBB276:
 2003               	.LBB277:
 2004               	.LM235:
 2005 0972 917E      		andi r25,lo8(-31)
 2006 0974 9460      		ori r25,lo8(4)
 2007 0976 928F      		std Z+26,r25
 2008               	.L135:
 2009 0978 0895      		ret
 2010               	.LBE277:
 2011               	.LBE276:
 2012               	.LFE46:
 2014               	.global	Timebase_DownCounter_SS_Set_Securely
 2016               	Timebase_DownCounter_SS_Set_Securely:
 2017               	.LFB47:
 2018               	.LM236:
 2019               	.LVL164:
 2020 097a 2F92      		push r2
 2021 097c 3F92      		push r3
 2022 097e 4F92      		push r4
 2023 0980 5F92      		push r5
 2024 0982 6F92      		push r6
 2025 0984 7F92      		push r7
 2026 0986 8F92      		push r8
 2027 0988 9F92      		push r9
 2028 098a AF92      		push r10
 2029 098c BF92      		push r11
 2030 098e CF92      		push r12
 2031 0990 DF92      		push r13
 2032 0992 EF92      		push r14
 2033 0994 FF92      		push r15
 2034 0996 0F93      		push r16
 2035 0998 1F93      		push r17
 2036 099a DF93      		push r29
 2037 099c CF93      		push r28
 2038 099e CDB7      		in r28,__SP_L__
 2039 09a0 DEB7      		in r29,__SP_H__
 2040 09a2 2897      		sbiw r28,8
 2041 09a4 0FB6      		in __tmp_reg__,__SREG__
 2042 09a6 F894      		cli
 2043 09a8 DEBF      		out __SP_H__,r29
 2044 09aa 0FBE      		out __SREG__,__tmp_reg__
 2045 09ac CDBF      		out __SP_L__,r28
 2046               	/* prologue: function */
 2047               	/* frame size = 8 */
 2048 09ae 1A01      		movw r2,r20
 2049 09b0 2B01      		movw r4,r22
 2050               	.LBB278:
 2051               	.LBB279:
 2052               	.LM237:
 2053 09b2 2091 0000 		lds r18,Timebase
 2054 09b6 3091 0000 		lds r19,(Timebase)+1
 2055 09ba 3887      		std Y+8,r19
 2056 09bc 2F83      		std Y+7,r18
 2057 09be A82F      		mov r26,r24
 2058 09c0 B0E0      		ldi r27,lo8(0)
 2059 09c2 BA83      		std Y+2,r27
 2060 09c4 A983      		std Y+1,r26
 2061               	.LBE279:
 2062               	.LBE278:
 2063               	.LM238:
 2064 09c6 85E1      		ldi r24,lo8(21)
 2065 09c8 90E0      		ldi r25,hi8(21)
 2066               	.LVL165:
 2067 09ca A89F      		mul r26,r24
 2068 09cc F001      		movw r30,r0
 2069 09ce A99F      		mul r26,r25
 2070 09d0 F00D      		add r31,r0
 2071 09d2 B89F      		mul r27,r24
 2072 09d4 F00D      		add r31,r0
 2073 09d6 1124      		clr r1
 2074 09d8 E20F      		add r30,r18
 2075 09da F31F      		adc r31,r19
 2076 09dc 828D      		ldd r24,Z+26
 2077 09de 8695      		lsr r24
 2078 09e0 8F70      		andi r24,lo8(15)
 2079 09e2 01F0      		breq .+2
 2080 09e4 00C0      		rjmp .L139
 2081               	.LVL166:
 2082               	.LBB280:
 2083               	.LBB281:
 2084               	.LM239:
 2085 09e6 43A3      		std Z+35,r20
 2086 09e8 54A3      		std Z+36,r21
 2087 09ea 65A3      		std Z+37,r22
 2088 09ec 76A3      		std Z+38,r23
 2089               	.LBE281:
 2090               	.LBE280:
 2091               	.LBB282:
 2092               	.LBB283:
 2093               	.LM240:
 2094 09ee F901      		movw r30,r18
 2095 09f0 C084      		ldd r12,Z+8
 2096 09f2 D184      		ldd r13,Z+9
 2097               	.LBE283:
 2098               	.LBE282:
 2099               	.LBB284:
 2100               	.LBB285:
 2101               	.LM241:
 2102 09f4 D901      		movw r26,r18
 2103 09f6 1A96      		adiw r26,10
 2104 09f8 8D91      		ld r24,X+
 2105 09fa 9D91      		ld r25,X+
 2106 09fc 0D90      		ld __tmp_reg__,X+
 2107 09fe BC91      		ld r27,X
 2108 0a00 A02D      		mov r26,__tmp_reg__
 2109 0a02 8B83      		std Y+3,r24
 2110 0a04 9C83      		std Y+4,r25
 2111 0a06 AD83      		std Y+5,r26
 2112 0a08 BE83      		std Y+6,r27
 2113               	.LVL167:
 2114               	.LBE285:
 2115               	.LBE284:
 2116               	.LM242:
 2117 0a0a 2081      		ld r18,Z
 2118 0a0c 3181      		ldd r19,Z+1
 2119 0a0e 40E0      		ldi r20,lo8(0)
 2120 0a10 50E0      		ldi r21,hi8(0)
 2121 0a12 C201      		movw r24,r4
 2122 0a14 B101      		movw r22,r2
 2123 0a16 0E94 0000 		call __divmodsi4
 2124 0a1a 7B01      		movw r14,r22
 2125 0a1c 8C01      		movw r16,r24
 2126               	.LM243:
 2127 0a1e EF81      		ldd r30,Y+7
 2128 0a20 F885      		ldd r31,Y+8
 2129 0a22 2081      		ld r18,Z
 2130 0a24 3181      		ldd r19,Z+1
 2131 0a26 40E0      		ldi r20,lo8(0)
 2132 0a28 50E0      		ldi r21,hi8(0)
 2133 0a2a C201      		movw r24,r4
 2134 0a2c B101      		movw r22,r2
 2135 0a2e 0E94 0000 		call __divmodsi4
 2136 0a32 C901      		movw r24,r18
 2137 0a34 DA01      		movw r26,r20
 2138 0a36 3C01      		movw r6,r24
 2139 0a38 4D01      		movw r8,r26
 2140               	.LVL168:
 2141               	.LM244:
 2142 0a3a 5601      		movw r10,r12
 2143               	.LVL169:
 2144 0a3c CC24      		clr r12
 2145 0a3e DD24      		clr r13
 2146               	.LVL170:
 2147 0a40 AE0C      		add r10,r14
 2148 0a42 BF1C      		adc r11,r15
 2149 0a44 C01E      		adc r12,r16
 2150 0a46 D11E      		adc r13,r17
 2151               	.LVL171:
 2152               	.LM245:
 2153 0a48 AF81      		ldd r26,Y+7
 2154 0a4a B885      		ldd r27,Y+8
 2155 0a4c 8D91      		ld r24,X+
 2156 0a4e 9C91      		ld r25,X
 2157               	.LVL172:
 2158 0a50 A0E0      		ldi r26,lo8(0)
 2159 0a52 B0E0      		ldi r27,hi8(0)
 2160 0a54 A816      		cp r10,r24
 2161 0a56 B906      		cpc r11,r25
 2162 0a58 CA06      		cpc r12,r26
 2163 0a5a DB06      		cpc r13,r27
 2164 0a5c 04F0      		brlt .L138
 2165               	.LM246:
 2166 0a5e 0894      		sec
 2167 0a60 611C      		adc r6,__zero_reg__
 2168 0a62 711C      		adc r7,__zero_reg__
 2169 0a64 811C      		adc r8,__zero_reg__
 2170 0a66 911C      		adc r9,__zero_reg__
 2171               	.LM247:
 2172 0a68 EF81      		ldd r30,Y+7
 2173 0a6a F885      		ldd r31,Y+8
 2174 0a6c 2081      		ld r18,Z
 2175 0a6e 3181      		ldd r19,Z+1
 2176 0a70 40E0      		ldi r20,lo8(0)
 2177 0a72 50E0      		ldi r21,hi8(0)
 2178 0a74 C601      		movw r24,r12
 2179 0a76 B501      		movw r22,r10
 2180 0a78 0E94 0000 		call __divmodsi4
 2181 0a7c AC01      		movw r20,r24
 2182 0a7e CB01      		movw r24,r22
 2183 0a80 DA01      		movw r26,r20
 2184 0a82 5C01      		movw r10,r24
 2185 0a84 6D01      		movw r12,r26
 2186               	.L138:
 2187               	.LBB286:
 2188               	.LBB287:
 2189               	.LM248:
 2190 0a86 85E1      		ldi r24,lo8(21)
 2191 0a88 90E0      		ldi r25,hi8(21)
 2192 0a8a 2981      		ldd r18,Y+1
 2193 0a8c 3A81      		ldd r19,Y+2
 2194 0a8e 289F      		mul r18,r24
 2195 0a90 A001      		movw r20,r0
 2196 0a92 299F      		mul r18,r25
 2197 0a94 500D      		add r21,r0
 2198 0a96 389F      		mul r19,r24
 2199 0a98 500D      		add r21,r0
 2200 0a9a 1124      		clr r1
 2201 0a9c 8F81      		ldd r24,Y+7
 2202 0a9e 9885      		ldd r25,Y+8
 2203 0aa0 480F      		add r20,r24
 2204 0aa2 591F      		adc r21,r25
 2205 0aa4 8B81      		ldd r24,Y+3
 2206 0aa6 9C81      		ldd r25,Y+4
 2207 0aa8 AD81      		ldd r26,Y+5
 2208 0aaa BE81      		ldd r27,Y+6
 2209 0aac 860D      		add r24,r6
 2210 0aae 971D      		adc r25,r7
 2211 0ab0 A81D      		adc r26,r8
 2212 0ab2 B91D      		adc r27,r9
 2213 0ab4 FA01      		movw r30,r20
 2214 0ab6 838F      		std Z+27,r24
 2215 0ab8 948F      		std Z+28,r25
 2216 0aba A58F      		std Z+29,r26
 2217 0abc B68F      		std Z+30,r27
 2218               	.LBE287:
 2219               	.LBE286:
 2220               	.LBB288:
 2221               	.LBB289:
 2222               	.LM249:
 2223 0abe DA01      		movw r26,r20
 2224 0ac0 5F96      		adiw r26,31
 2225 0ac2 AD92      		st X+,r10
 2226 0ac4 BD92      		st X+,r11
 2227 0ac6 CD92      		st X+,r12
 2228 0ac8 DC92      		st X,r13
 2229 0aca 9297      		sbiw r26,31+3
 2230               	.LBE289:
 2231               	.LBE288:
 2232               	.LBB290:
 2233               	.LBB291:
 2234               	.LM250:
 2235 0acc 23A6      		std Z+43,r2
 2236 0ace 34A6      		std Z+44,r3
 2237 0ad0 45A6      		std Z+45,r4
 2238 0ad2 56A6      		std Z+46,r5
 2239               	.LBE291:
 2240               	.LBE290:
 2241               	.LBB292:
 2242               	.LBB293:
 2243               	.LM251:
 2244 0ad4 928D      		ldd r25,Z+26
 2245 0ad6 892F      		mov r24,r25
 2246 0ad8 8695      		lsr r24
 2247 0ada 8F70      		andi r24,lo8(15)
 2248 0adc 8130      		cpi r24,lo8(1)
 2249 0ade 01F0      		breq .L139
 2250               	.LBB294:
 2251               	.LBB295:
 2252               	.LM252:
 2253 0ae0 917E      		andi r25,lo8(-31)
 2254 0ae2 9260      		ori r25,lo8(2)
 2255 0ae4 928F      		std Z+26,r25
 2256               	.LVL173:
 2257               	.L139:
 2258               	/* epilogue start */
 2259               	.LBE295:
 2260               	.LBE294:
 2261               	.LBE293:
 2262               	.LBE292:
 2263               	.LM253:
 2264 0ae6 2896      		adiw r28,8
 2265 0ae8 0FB6      		in __tmp_reg__,__SREG__
 2266 0aea F894      		cli
 2267 0aec DEBF      		out __SP_H__,r29
 2268 0aee 0FBE      		out __SREG__,__tmp_reg__
 2269 0af0 CDBF      		out __SP_L__,r28
 2270 0af2 CF91      		pop r28
 2271 0af4 DF91      		pop r29
 2272 0af6 1F91      		pop r17
 2273 0af8 0F91      		pop r16
 2274 0afa FF90      		pop r15
 2275 0afc EF90      		pop r14
 2276 0afe DF90      		pop r13
 2277 0b00 CF90      		pop r12
 2278               	.LVL174:
 2279 0b02 BF90      		pop r11
 2280 0b04 AF90      		pop r10
 2281               	.LVL175:
 2282 0b06 9F90      		pop r9
 2283 0b08 8F90      		pop r8
 2284 0b0a 7F90      		pop r7
 2285 0b0c 6F90      		pop r6
 2286               	.LVL176:
 2287 0b0e 5F90      		pop r5
 2288 0b10 4F90      		pop r4
 2289 0b12 3F90      		pop r3
 2290 0b14 2F90      		pop r2
 2291               	.LVL177:
 2292 0b16 0895      		ret
 2293               	.LFE47:
 2295               	.global	Timebase_DownCounter_SS_Set_Forcefully
 2297               	Timebase_DownCounter_SS_Set_Forcefully:
 2298               	.LFB48:
 2299               	.LM254:
 2300               	.LVL178:
 2301 0b18 CF92      		push r12
 2302 0b1a DF92      		push r13
 2303 0b1c EF92      		push r14
 2304 0b1e FF92      		push r15
 2305 0b20 0F93      		push r16
 2306 0b22 1F93      		push r17
 2307               	/* prologue: function */
 2308               	/* frame size = 0 */
 2309 0b24 7A01      		movw r14,r20
 2310 0b26 8B01      		movw r16,r22
 2311               	.LBB296:
 2312               	.LBB297:
 2313               	.LBB298:
 2314               	.LBB299:
 2315               	.LM255:
 2316 0b28 E091 0000 		lds r30,Timebase
 2317 0b2c F091 0000 		lds r31,(Timebase)+1
 2318 0b30 482F      		mov r20,r24
 2319               	.LVL179:
 2320 0b32 50E0      		ldi r21,lo8(0)
 2321 0b34 25E1      		ldi r18,lo8(21)
 2322 0b36 30E0      		ldi r19,hi8(21)
 2323 0b38 429F      		mul r20,r18
 2324 0b3a 6001      		movw r12,r0
 2325 0b3c 439F      		mul r20,r19
 2326 0b3e D00C      		add r13,r0
 2327 0b40 529F      		mul r21,r18
 2328 0b42 D00C      		add r13,r0
 2329 0b44 1124      		clr r1
 2330 0b46 EC0D      		add r30,r12
 2331 0b48 FD1D      		adc r31,r13
 2332 0b4a 178E      		std Z+31,__zero_reg__
 2333 0b4c 10A2      		std Z+32,__zero_reg__
 2334 0b4e 11A2      		std Z+33,__zero_reg__
 2335 0b50 12A2      		std Z+34,__zero_reg__
 2336               	.LBE299:
 2337               	.LBE298:
 2338               	.LBB300:
 2339               	.LBB301:
 2340               	.LM256:
 2341 0b52 138E      		std Z+27,__zero_reg__
 2342 0b54 148E      		std Z+28,__zero_reg__
 2343 0b56 158E      		std Z+29,__zero_reg__
 2344 0b58 168E      		std Z+30,__zero_reg__
 2345               	.LBE301:
 2346               	.LBE300:
 2347               	.LBB302:
 2348               	.LBB303:
 2349               	.LM257:
 2350 0b5a 13A2      		std Z+35,__zero_reg__
 2351 0b5c 14A2      		std Z+36,__zero_reg__
 2352 0b5e 15A2      		std Z+37,__zero_reg__
 2353 0b60 16A2      		std Z+38,__zero_reg__
 2354               	.LBE303:
 2355               	.LBE302:
 2356               	.LBB304:
 2357               	.LBB305:
 2358               	.LM258:
 2359 0b62 928D      		ldd r25,Z+26
 2360               	.LBE305:
 2361               	.LBE304:
 2362               	.LBB306:
 2363               	.LBB307:
 2364               	.LM259:
 2365 0b64 907E      		andi r25,lo8(-32)
 2366 0b66 928F      		std Z+26,r25
 2367               	.LBE307:
 2368               	.LBE306:
 2369               	.LBB308:
 2370               	.LBB309:
 2371               	.LM260:
 2372 0b68 13A6      		std Z+43,__zero_reg__
 2373 0b6a 14A6      		std Z+44,__zero_reg__
 2374 0b6c 15A6      		std Z+45,__zero_reg__
 2375 0b6e 16A6      		std Z+46,__zero_reg__
 2376               	.LBE309:
 2377               	.LBE308:
 2378               	.LBE297:
 2379               	.LBE296:
 2380               	.LM261:
 2381 0b70 B801      		movw r22,r16
 2382 0b72 A701      		movw r20,r14
 2383 0b74 0E94 0000 		call Timebase_DownCounter_SS_Set_Securely
 2384               	.LVL180:
 2385               	.LBB310:
 2386               	.LBB311:
 2387               	.LM262:
 2388 0b78 E091 0000 		lds r30,Timebase
 2389 0b7c F091 0000 		lds r31,(Timebase)+1
 2390 0b80 EC0D      		add r30,r12
 2391 0b82 FD1D      		adc r31,r13
 2392 0b84 E3A6      		std Z+43,r14
 2393 0b86 F4A6      		std Z+44,r15
 2394 0b88 05A7      		std Z+45,r16
 2395 0b8a 16A7      		std Z+46,r17
 2396               	/* epilogue start */
 2397               	.LBE311:
 2398               	.LBE310:
 2399               	.LM263:
 2400 0b8c 1F91      		pop r17
 2401 0b8e 0F91      		pop r16
 2402 0b90 FF90      		pop r15
 2403 0b92 EF90      		pop r14
 2404               	.LVL181:
 2405 0b94 DF90      		pop r13
 2406 0b96 CF90      		pop r12
 2407 0b98 0895      		ret
 2408               	.LFE48:
 2410               	.global	Timebase_DownCounter_SS_Update
 2412               	Timebase_DownCounter_SS_Update:
 2413               	.LFB49:
 2414               	.LM264:
 2415               	.LVL182:
 2416 0b9a 2F92      		push r2
 2417 0b9c 3F92      		push r3
 2418 0b9e 4F92      		push r4
 2419 0ba0 5F92      		push r5
 2420 0ba2 6F92      		push r6
 2421 0ba4 7F92      		push r7
 2422 0ba6 8F92      		push r8
 2423 0ba8 9F92      		push r9
 2424 0baa AF92      		push r10
 2425 0bac BF92      		push r11
 2426 0bae CF92      		push r12
 2427 0bb0 DF92      		push r13
 2428 0bb2 EF92      		push r14
 2429 0bb4 FF92      		push r15
 2430 0bb6 0F93      		push r16
 2431 0bb8 1F93      		push r17
 2432 0bba CF93      		push r28
 2433 0bbc DF93      		push r29
 2434               	/* prologue: function */
 2435               	/* frame size = 0 */
 2436               	.LBB312:
 2437               	.LBB313:
 2438               	.LM265:
 2439 0bbe E091 0000 		lds r30,Timebase
 2440 0bc2 F091 0000 		lds r31,(Timebase)+1
 2441 0bc6 90E0      		ldi r25,lo8(0)
 2442 0bc8 25E1      		ldi r18,lo8(21)
 2443 0bca 30E0      		ldi r19,hi8(21)
 2444 0bcc 829F      		mul r24,r18
 2445 0bce E001      		movw r28,r0
 2446 0bd0 839F      		mul r24,r19
 2447 0bd2 D00D      		add r29,r0
 2448 0bd4 929F      		mul r25,r18
 2449 0bd6 D00D      		add r29,r0
 2450 0bd8 1124      		clr r1
 2451               	.LVL183:
 2452 0bda CE0F      		add r28,r30
 2453 0bdc DF1F      		adc r29,r31
 2454 0bde 8A8D      		ldd r24,Y+26
 2455 0be0 8695      		lsr r24
 2456 0be2 8F70      		andi r24,lo8(15)
 2457               	.LBE313:
 2458               	.LBE312:
 2459               	.LM266:
 2460 0be4 8130      		cpi r24,lo8(1)
 2461 0be6 01F0      		breq .+2
 2462 0be8 00C0      		rjmp .L143
 2463               	.LBB314:
 2464               	.LBB315:
 2465               	.LM267:
 2466 0bea E084      		ldd r14,Z+8
 2467 0bec F184      		ldd r15,Z+9
 2468               	.LBE315:
 2469               	.LBE314:
 2470               	.LM268:
 2471 0bee 00E0      		ldi r16,lo8(0)
 2472 0bf0 10E0      		ldi r17,hi8(0)
 2473               	.LVL184:
 2474               	.LBB316:
 2475               	.LBB317:
 2476               	.LM269:
 2477 0bf2 8285      		ldd r24,Z+10
 2478 0bf4 9385      		ldd r25,Z+11
 2479 0bf6 A485      		ldd r26,Z+12
 2480 0bf8 B585      		ldd r27,Z+13
 2481               	.LVL185:
 2482               	.LBE317:
 2483               	.LBE316:
 2484               	.LM270:
 2485 0bfa 2B8D      		ldd r18,Y+27
 2486 0bfc 3C8D      		ldd r19,Y+28
 2487 0bfe 4D8D      		ldd r20,Y+29
 2488 0c00 5E8D      		ldd r21,Y+30
 2489 0c02 281B      		sub r18,r24
 2490 0c04 390B      		sbc r19,r25
 2491 0c06 4A0B      		sbc r20,r26
 2492 0c08 5B0B      		sbc r21,r27
 2493               	.LM271:
 2494 0c0a 6081      		ld r22,Z
 2495 0c0c 7181      		ldd r23,Z+1
 2496               	.LM272:
 2497 0c0e 80E0      		ldi r24,lo8(0)
 2498 0c10 90E0      		ldi r25,hi8(0)
 2499               	.LVL186:
 2500 0c12 0E94 0000 		call __mulsi3
 2501 0c16 6E19      		sub r22,r14
 2502 0c18 7F09      		sbc r23,r15
 2503 0c1a 800B      		sbc r24,r16
 2504 0c1c 910B      		sbc r25,r17
 2505               	.LVL187:
 2506               	.LM273:
 2507 0c1e 2F8D      		ldd r18,Y+31
 2508 0c20 38A1      		ldd r19,Y+32
 2509 0c22 49A1      		ldd r20,Y+33
 2510 0c24 5AA1      		ldd r21,Y+34
 2511 0c26 620F      		add r22,r18
 2512 0c28 731F      		adc r23,r19
 2513 0c2a 841F      		adc r24,r20
 2514 0c2c 951F      		adc r25,r21
 2515               	.LBB318:
 2516               	.LBB319:
 2517               	.LM274:
 2518 0c2e 6BA3      		std Y+35,r22
 2519 0c30 7CA3      		std Y+36,r23
 2520 0c32 8DA3      		std Y+37,r24
 2521 0c34 9EA3      		std Y+38,r25
 2522               	.LBE319:
 2523               	.LBE318:
 2524               	.LM275:
 2525 0c36 1616      		cp __zero_reg__,r22
 2526 0c38 1706      		cpc __zero_reg__,r23
 2527 0c3a 1806      		cpc __zero_reg__,r24
 2528 0c3c 1906      		cpc __zero_reg__,r25
 2529 0c3e 04F4      		brge .+2
 2530 0c40 00C0      		rjmp .L145
 2531               	.LBB320:
 2532               	.LBB321:
 2533               	.LBB322:
 2534               	.LM276:
 2535 0c42 8BA5      		ldd r24,Y+43
 2536 0c44 9CA5      		ldd r25,Y+44
 2537 0c46 ADA5      		ldd r26,Y+45
 2538 0c48 BEA5      		ldd r27,Y+46
 2539               	.LVL188:
 2540               	.LBE322:
 2541               	.LBE321:
 2542               	.LBB323:
 2543               	.LBB324:
 2544               	.LBB325:
 2545               	.LBB326:
 2546               	.LM277:
 2547 0c4a 1F8E      		std Y+31,__zero_reg__
 2548 0c4c 18A2      		std Y+32,__zero_reg__
 2549 0c4e 19A2      		std Y+33,__zero_reg__
 2550 0c50 1AA2      		std Y+34,__zero_reg__
 2551               	.LBE326:
 2552               	.LBE325:
 2553               	.LBB327:
 2554               	.LBB328:
 2555               	.LM278:
 2556 0c52 1B8E      		std Y+27,__zero_reg__
 2557 0c54 1C8E      		std Y+28,__zero_reg__
 2558 0c56 1D8E      		std Y+29,__zero_reg__
 2559 0c58 1E8E      		std Y+30,__zero_reg__
 2560               	.LBE328:
 2561               	.LBE327:
 2562               	.LBB329:
 2563               	.LBB330:
 2564               	.LM279:
 2565 0c5a 1BA2      		std Y+35,__zero_reg__
 2566 0c5c 1CA2      		std Y+36,__zero_reg__
 2567 0c5e 1DA2      		std Y+37,__zero_reg__
 2568 0c60 1EA2      		std Y+38,__zero_reg__
 2569               	.LBE330:
 2570               	.LBE329:
 2571               	.LBB331:
 2572               	.LBB332:
 2573               	.LM280:
 2574 0c62 2A8D      		ldd r18,Y+26
 2575 0c64 2E7F      		andi r18,lo8(-2)
 2576 0c66 2A8F      		std Y+26,r18
 2577               	.LBE332:
 2578               	.LBE331:
 2579               	.LBE324:
 2580               	.LBE323:
 2581               	.LBB333:
 2582               	.LBB334:
 2583               	.LM281:
 2584 0c68 8BA7      		std Y+43,r24
 2585 0c6a 9CA7      		std Y+44,r25
 2586 0c6c ADA7      		std Y+45,r26
 2587 0c6e BEA7      		std Y+46,r27
 2588               	.LBE334:
 2589               	.LBE333:
 2590               	.LBB335:
 2591               	.LBB336:
 2592               	.LM282:
 2593 0c70 8A8D      		ldd r24,Y+26
 2594               	.LVL189:
 2595 0c72 817E      		andi r24,lo8(-31)
 2596 0c74 8860      		ori r24,lo8(8)
 2597 0c76 8A8F      		std Y+26,r24
 2598 0c78 00C0      		rjmp .L145
 2599               	.LVL190:
 2600               	.L143:
 2601               	.LBE336:
 2602               	.LBE335:
 2603               	.LBE320:
 2604               	.LM283:
 2605 0c7a 8230      		cpi r24,lo8(2)
 2606 0c7c 01F4      		brne .L145
 2607               	.LBB337:
 2608               	.LBB338:
 2609               	.LM284:
 2610 0c7e 6084      		ldd r6,Z+8
 2611 0c80 7184      		ldd r7,Z+9
 2612               	.LBE338:
 2613               	.LBE337:
 2614               	.LBB339:
 2615               	.LBB340:
 2616               	.LM285:
 2617 0c82 E284      		ldd r14,Z+10
 2618 0c84 F384      		ldd r15,Z+11
 2619 0c86 0485      		ldd r16,Z+12
 2620 0c88 1585      		ldd r17,Z+13
 2621               	.LVL191:
 2622               	.LBE340:
 2623               	.LBE339:
 2624               	.LBB341:
 2625               	.LBB342:
 2626               	.LM286:
 2627 0c8a 2BA0      		ldd r2,Y+35
 2628 0c8c 3CA0      		ldd r3,Y+36
 2629 0c8e 4DA0      		ldd r4,Y+37
 2630 0c90 5EA0      		ldd r5,Y+38
 2631               	.LVL192:
 2632               	.LBE342:
 2633               	.LBE341:
 2634               	.LM287:
 2635 0c92 2081      		ld r18,Z
 2636 0c94 3181      		ldd r19,Z+1
 2637               	.LM288:
 2638 0c96 A080      		ld r10,Z
 2639 0c98 B180      		ldd r11,Z+1
 2640               	.LBB343:
 2641               	.LBB344:
 2642               	.LM289:
 2643 0c9a 40E0      		ldi r20,lo8(0)
 2644 0c9c 50E0      		ldi r21,hi8(0)
 2645 0c9e C201      		movw r24,r4
 2646 0ca0 B101      		movw r22,r2
 2647 0ca2 0E94 0000 		call __divmodsi4
 2648 0ca6 E20E      		add r14,r18
 2649 0ca8 F31E      		adc r15,r19
 2650 0caa 041F      		adc r16,r20
 2651 0cac 151F      		adc r17,r21
 2652 0cae EB8E      		std Y+27,r14
 2653 0cb0 FC8E      		std Y+28,r15
 2654 0cb2 0D8F      		std Y+29,r16
 2655 0cb4 1E8F      		std Y+30,r17
 2656               	.LBE344:
 2657               	.LBE343:
 2658               	.LBB345:
 2659               	.LBB346:
 2660               	.LM290:
 2661 0cb6 CC24      		clr r12
 2662 0cb8 DD24      		clr r13
 2663 0cba C201      		movw r24,r4
 2664 0cbc B101      		movw r22,r2
 2665 0cbe A601      		movw r20,r12
 2666 0cc0 9501      		movw r18,r10
 2667 0cc2 0E94 0000 		call __divmodsi4
 2668 0cc6 8824      		clr r8
 2669 0cc8 9924      		clr r9
 2670 0cca 660E      		add r6,r22
 2671 0ccc 771E      		adc r7,r23
 2672 0cce 881E      		adc r8,r24
 2673 0cd0 991E      		adc r9,r25
 2674 0cd2 6F8E      		std Y+31,r6
 2675 0cd4 78A2      		std Y+32,r7
 2676 0cd6 89A2      		std Y+33,r8
 2677 0cd8 9AA2      		std Y+34,r9
 2678               	.LVL193:
 2679               	.L145:
 2680               	/* epilogue start */
 2681               	.LBE346:
 2682               	.LBE345:
 2683               	.LM291:
 2684 0cda DF91      		pop r29
 2685 0cdc CF91      		pop r28
 2686 0cde 1F91      		pop r17
 2687 0ce0 0F91      		pop r16
 2688               	.LVL194:
 2689 0ce2 FF90      		pop r15
 2690 0ce4 EF90      		pop r14
 2691               	.LVL195:
 2692 0ce6 DF90      		pop r13
 2693 0ce8 CF90      		pop r12
 2694 0cea BF90      		pop r11
 2695 0cec AF90      		pop r10
 2696 0cee 9F90      		pop r9
 2697 0cf0 8F90      		pop r8
 2698 0cf2 7F90      		pop r7
 2699 0cf4 6F90      		pop r6
 2700 0cf6 5F90      		pop r5
 2701 0cf8 4F90      		pop r4
 2702 0cfa 3F90      		pop r3
 2703 0cfc 2F90      		pop r2
 2704               	.LVL196:
 2705 0cfe 0895      		ret
 2706               	.LFE49:
 2708               	.global	Timebase_DownCounter_SS_Expired
 2710               	Timebase_DownCounter_SS_Expired:
 2711               	.LFB50:
 2712               	.LM292:
 2713               	.LVL197:
 2714               	/* prologue: function */
 2715               	/* frame size = 0 */
 2716               	.LM293:
 2717 0d00 40E0      		ldi r20,lo8(0)
 2718 0d02 E091 0000 		lds r30,Timebase
 2719 0d06 F091 0000 		lds r31,(Timebase)+1
 2720 0d0a 90E0      		ldi r25,lo8(0)
 2721               	.LVL198:
 2722 0d0c 25E1      		ldi r18,lo8(21)
 2723 0d0e 30E0      		ldi r19,hi8(21)
 2724 0d10 BC01      		movw r22,r24
 2725 0d12 629F      		mul r22,r18
 2726 0d14 C001      		movw r24,r0
 2727 0d16 639F      		mul r22,r19
 2728 0d18 900D      		add r25,r0
 2729 0d1a 729F      		mul r23,r18
 2730 0d1c 900D      		add r25,r0
 2731 0d1e 1124      		clr r1
 2732               	.LVL199:
 2733 0d20 E80F      		add r30,r24
 2734 0d22 F91F      		adc r31,r25
 2735 0d24 828D      		ldd r24,Z+26
 2736 0d26 8695      		lsr r24
 2737 0d28 8F70      		andi r24,lo8(15)
 2738 0d2a 8430      		cpi r24,lo8(4)
 2739 0d2c 01F4      		brne .L147
 2740 0d2e 41E0      		ldi r20,lo8(1)
 2741               	.L147:
 2742               	.LM294:
 2743 0d30 842F      		mov r24,r20
 2744               	/* epilogue start */
 2745 0d32 0895      		ret
 2746               	.LFE50:
 2748               	.global	Timebase_DownCounter_SS_Expired_Event
 2750               	Timebase_DownCounter_SS_Expired_Event:
 2751               	.LFB51:
 2752               	.LM295:
 2753               	.LVL200:
 2754               	/* prologue: function */
 2755               	/* frame size = 0 */
 2756               	.LBB347:
 2757               	.LBB348:
 2758               	.LM296:
 2759 0d34 E091 0000 		lds r30,Timebase
 2760 0d38 F091 0000 		lds r31,(Timebase)+1
 2761 0d3c 90E0      		ldi r25,lo8(0)
 2762               	.LBE348:
 2763               	.LBE347:
 2764               	.LM297:
 2765 0d3e 25E1      		ldi r18,lo8(21)
 2766 0d40 30E0      		ldi r19,hi8(21)
 2767 0d42 AC01      		movw r20,r24
 2768               	.LVL201:
 2769 0d44 429F      		mul r20,r18
 2770 0d46 C001      		movw r24,r0
 2771 0d48 439F      		mul r20,r19
 2772 0d4a 900D      		add r25,r0
 2773 0d4c 529F      		mul r21,r18
 2774 0d4e 900D      		add r25,r0
 2775 0d50 1124      		clr r1
 2776 0d52 E80F      		add r30,r24
 2777 0d54 F91F      		adc r31,r25
 2778 0d56 828D      		ldd r24,Z+26
 2779 0d58 8695      		lsr r24
 2780 0d5a 8F70      		andi r24,lo8(15)
 2781 0d5c 8430      		cpi r24,lo8(4)
 2782 0d5e 01F0      		breq .L150
 2783 0d60 80E0      		ldi r24,lo8(0)
 2784 0d62 0895      		ret
 2785               	.L150:
 2786               	.LBB349:
 2787               	.LBB350:
 2788               	.LBB351:
 2789               	.LBB352:
 2790               	.LBB353:
 2791               	.LBB354:
 2792               	.LM298:
 2793 0d64 178E      		std Z+31,__zero_reg__
 2794 0d66 10A2      		std Z+32,__zero_reg__
 2795 0d68 11A2      		std Z+33,__zero_reg__
 2796 0d6a 12A2      		std Z+34,__zero_reg__
 2797               	.LBE354:
 2798               	.LBE353:
 2799               	.LBB355:
 2800               	.LBB356:
 2801               	.LM299:
 2802 0d6c 138E      		std Z+27,__zero_reg__
 2803 0d6e 148E      		std Z+28,__zero_reg__
 2804 0d70 158E      		std Z+29,__zero_reg__
 2805 0d72 168E      		std Z+30,__zero_reg__
 2806               	.LBE356:
 2807               	.LBE355:
 2808               	.LBB357:
 2809               	.LBB358:
 2810               	.LM300:
 2811 0d74 13A2      		std Z+35,__zero_reg__
 2812 0d76 14A2      		std Z+36,__zero_reg__
 2813 0d78 15A2      		std Z+37,__zero_reg__
 2814 0d7a 16A2      		std Z+38,__zero_reg__
 2815               	.LBE358:
 2816               	.LBE357:
 2817               	.LBB359:
 2818               	.LBB360:
 2819               	.LM301:
 2820 0d7c 828D      		ldd r24,Z+26
 2821               	.LBE360:
 2822               	.LBE359:
 2823               	.LBB361:
 2824               	.LBB362:
 2825               	.LM302:
 2826 0d7e 807E      		andi r24,lo8(-32)
 2827 0d80 828F      		std Z+26,r24
 2828               	.LBE362:
 2829               	.LBE361:
 2830               	.LBB363:
 2831               	.LBB364:
 2832               	.LM303:
 2833 0d82 13A6      		std Z+43,__zero_reg__
 2834 0d84 14A6      		std Z+44,__zero_reg__
 2835 0d86 15A6      		std Z+45,__zero_reg__
 2836 0d88 16A6      		std Z+46,__zero_reg__
 2837 0d8a 81E0      		ldi r24,lo8(1)
 2838               	.LBE364:
 2839               	.LBE363:
 2840               	.LBE352:
 2841               	.LBE351:
 2842               	.LBE350:
 2843               	.LBE349:
 2844               	.LM304:
 2845 0d8c 0895      		ret
 2846               	.LFE51:
 2848               	.global	Timebase_DownCounter_SS_Oneshot_Expired_Event
 2850               	Timebase_DownCounter_SS_Oneshot_Expired_Event:
 2851               	.LFB52:
 2852               	.LM305:
 2853               	.LVL202:
 2854               	/* prologue: function */
 2855               	/* frame size = 0 */
 2856               	.LM306:
 2857 0d8e 0E94 0000 		call Timebase_DownCounter_SS_Expired_Event
 2858               	.LVL203:
 2859               	/* epilogue start */
 2860               	.LM307:
 2861 0d92 0895      		ret
 2862               	.LFE52:
 2864               	.global	Timebase_DownCounter_SS_Continuous_Expired_Event
 2866               	Timebase_DownCounter_SS_Continuous_Expired_Event:
 2867               	.LFB53:
 2868               	.LM308:
 2869               	.LVL204:
 2870               	/* prologue: function */
 2871               	/* frame size = 0 */
 2872 0d94 A82F      		mov r26,r24
 2873               	.LBB365:
 2874               	.LBB366:
 2875               	.LM309:
 2876 0d96 E091 0000 		lds r30,Timebase
 2877 0d9a F091 0000 		lds r31,(Timebase)+1
 2878 0d9e 282F      		mov r18,r24
 2879 0da0 30E0      		ldi r19,lo8(0)
 2880               	.LBE366:
 2881               	.LBE365:
 2882               	.LM310:
 2883 0da2 85E1      		ldi r24,lo8(21)
 2884 0da4 90E0      		ldi r25,hi8(21)
 2885               	.LVL205:
 2886 0da6 AC01      		movw r20,r24
 2887 0da8 249F      		mul r18,r20
 2888 0daa C001      		movw r24,r0
 2889 0dac 259F      		mul r18,r21
 2890 0dae 900D      		add r25,r0
 2891 0db0 349F      		mul r19,r20
 2892 0db2 900D      		add r25,r0
 2893 0db4 1124      		clr r1
 2894 0db6 E80F      		add r30,r24
 2895 0db8 F91F      		adc r31,r25
 2896 0dba 828D      		ldd r24,Z+26
 2897 0dbc 8695      		lsr r24
 2898 0dbe 8F70      		andi r24,lo8(15)
 2899 0dc0 8430      		cpi r24,lo8(4)
 2900 0dc2 01F0      		breq .L156
 2901 0dc4 80E0      		ldi r24,lo8(0)
 2902 0dc6 0895      		ret
 2903               	.L156:
 2904               	.LBB367:
 2905               	.LBB368:
 2906               	.LBB369:
 2907               	.LM311:
 2908 0dc8 43A5      		ldd r20,Z+43
 2909 0dca 54A5      		ldd r21,Z+44
 2910 0dcc 65A5      		ldd r22,Z+45
 2911 0dce 76A5      		ldd r23,Z+46
 2912               	.LVL206:
 2913               	.LBE369:
 2914               	.LBE368:
 2915               	.LBB370:
 2916               	.LBB371:
 2917               	.LBB372:
 2918               	.LBB373:
 2919               	.LBB374:
 2920               	.LBB375:
 2921               	.LM312:
 2922 0dd0 178E      		std Z+31,__zero_reg__
 2923 0dd2 10A2      		std Z+32,__zero_reg__
 2924 0dd4 11A2      		std Z+33,__zero_reg__
 2925 0dd6 12A2      		std Z+34,__zero_reg__
 2926               	.LBE375:
 2927               	.LBE374:
 2928               	.LBB376:
 2929               	.LBB377:
 2930               	.LM313:
 2931 0dd8 138E      		std Z+27,__zero_reg__
 2932 0dda 148E      		std Z+28,__zero_reg__
 2933 0ddc 158E      		std Z+29,__zero_reg__
 2934 0dde 168E      		std Z+30,__zero_reg__
 2935               	.LBE377:
 2936               	.LBE376:
 2937               	.LBB378:
 2938               	.LBB379:
 2939               	.LM314:
 2940 0de0 13A2      		std Z+35,__zero_reg__
 2941 0de2 14A2      		std Z+36,__zero_reg__
 2942 0de4 15A2      		std Z+37,__zero_reg__
 2943 0de6 16A2      		std Z+38,__zero_reg__
 2944               	.LBE379:
 2945               	.LBE378:
 2946               	.LBB380:
 2947               	.LBB381:
 2948               	.LM315:
 2949 0de8 828D      		ldd r24,Z+26
 2950               	.LBE381:
 2951               	.LBE380:
 2952               	.LBB382:
 2953               	.LBB383:
 2954               	.LM316:
 2955 0dea 807E      		andi r24,lo8(-32)
 2956 0dec 828F      		std Z+26,r24
 2957               	.LBE383:
 2958               	.LBE382:
 2959               	.LBB384:
 2960               	.LBB385:
 2961               	.LM317:
 2962 0dee 13A6      		std Z+43,__zero_reg__
 2963 0df0 14A6      		std Z+44,__zero_reg__
 2964 0df2 15A6      		std Z+45,__zero_reg__
 2965 0df4 16A6      		std Z+46,__zero_reg__
 2966               	.LBE385:
 2967               	.LBE384:
 2968               	.LBE373:
 2969               	.LBE372:
 2970               	.LBE371:
 2971               	.LBE370:
 2972               	.LM318:
 2973 0df6 8A2F      		mov r24,r26
 2974 0df8 0E94 0000 		call Timebase_DownCounter_SS_Set_Securely
 2975               	.LVL207:
 2976 0dfc 81E0      		ldi r24,lo8(1)
 2977               	.LBE367:
 2978               	.LM319:
 2979 0dfe 0895      		ret
 2980               	.LFE53:
 2982               	.global	Timebase_DownCounter_SS_Set_Period_Value_Securely
 2984               	Timebase_DownCounter_SS_Set_Period_Value_Securely:
 2985               	.LFB54:
 2986               	.LM320:
 2987               	.LVL208:
 2988 0e00 CF93      		push r28
 2989 0e02 DF93      		push r29
 2990               	/* prologue: function */
 2991               	/* frame size = 0 */
 2992               	.LBB386:
 2993               	.LBB387:
 2994               	.LM321:
 2995 0e04 C091 0000 		lds r28,Timebase
 2996 0e08 D091 0000 		lds r29,(Timebase)+1
 2997 0e0c 282F      		mov r18,r24
 2998 0e0e 30E0      		ldi r19,lo8(0)
 2999               	.LBE387:
 3000               	.LBE386:
 3001               	.LM322:
 3002 0e10 85E1      		ldi r24,lo8(21)
 3003 0e12 90E0      		ldi r25,hi8(21)
 3004               	.LVL209:
 3005 0e14 289F      		mul r18,r24
 3006 0e16 F001      		movw r30,r0
 3007 0e18 299F      		mul r18,r25
 3008 0e1a F00D      		add r31,r0
 3009 0e1c 389F      		mul r19,r24
 3010 0e1e F00D      		add r31,r0
 3011 0e20 1124      		clr r1
 3012 0e22 EC0F      		add r30,r28
 3013 0e24 FD1F      		adc r31,r29
 3014 0e26 828D      		ldd r24,Z+26
 3015 0e28 80FD      		sbrc r24,0
 3016 0e2a 00C0      		rjmp .L163
 3017               	.LM323:
 3018 0e2c 83A1      		ldd r24,Z+35
 3019 0e2e 94A1      		ldd r25,Z+36
 3020 0e30 A5A1      		ldd r26,Z+37
 3021 0e32 B6A1      		ldd r27,Z+38
 3022 0e34 841B      		sub r24,r20
 3023 0e36 950B      		sbc r25,r21
 3024 0e38 A60B      		sbc r26,r22
 3025 0e3a B70B      		sbc r27,r23
 3026               	.LBB388:
 3027               	.LBB389:
 3028               	.LM324:
 3029 0e3c B7FF      		sbrs r27,7
 3030 0e3e 00C0      		rjmp .L161
 3031               	.LM325:
 3032 0e40 17A2      		std Z+39,__zero_reg__
 3033 0e42 10A6      		std Z+40,__zero_reg__
 3034 0e44 11A6      		std Z+41,__zero_reg__
 3035 0e46 12A6      		std Z+42,__zero_reg__
 3036 0e48 00C0      		rjmp .L162
 3037               	.L161:
 3038               	.LM326:
 3039 0e4a 87A3      		std Z+39,r24
 3040 0e4c 90A7      		std Z+40,r25
 3041 0e4e A1A7      		std Z+41,r26
 3042 0e50 B2A7      		std Z+42,r27
 3043               	.L162:
 3044               	.LBE389:
 3045               	.LBE388:
 3046               	.LBB390:
 3047               	.LBB391:
 3048               	.LM327:
 3049 0e52 85E1      		ldi r24,lo8(21)
 3050 0e54 90E0      		ldi r25,hi8(21)
 3051 0e56 289F      		mul r18,r24
 3052 0e58 F001      		movw r30,r0
 3053 0e5a 299F      		mul r18,r25
 3054 0e5c F00D      		add r31,r0
 3055 0e5e 389F      		mul r19,r24
 3056 0e60 F00D      		add r31,r0
 3057 0e62 1124      		clr r1
 3058 0e64 EC0F      		add r30,r28
 3059 0e66 FD1F      		adc r31,r29
 3060 0e68 828D      		ldd r24,Z+26
 3061 0e6a 8160      		ori r24,lo8(1)
 3062 0e6c 828F      		std Z+26,r24
 3063               	.L163:
 3064               	/* epilogue start */
 3065               	.LBE391:
 3066               	.LBE390:
 3067               	.LM328:
 3068 0e6e DF91      		pop r29
 3069 0e70 CF91      		pop r28
 3070 0e72 0895      		ret
 3071               	.LFE54:
 3073               	.global	Timebase_DownCounter_SS_Get_Remaining_Period_Value
 3075               	Timebase_DownCounter_SS_Get_Remaining_Period_Value:
 3076               	.LFB55:
 3077               	.LM329:
 3078               	.LVL210:
 3079               	/* prologue: function */
 3080               	/* frame size = 0 */
 3081               	.LBB392:
 3082               	.LBB393:
 3083               	.LM330:
 3084 0e74 E091 0000 		lds r30,Timebase
 3085 0e78 F091 0000 		lds r31,(Timebase)+1
 3086 0e7c 90E0      		ldi r25,lo8(0)
 3087               	.LBE393:
 3088               	.LBE392:
 3089               	.LM331:
 3090 0e7e 25E1      		ldi r18,lo8(21)
 3091 0e80 30E0      		ldi r19,hi8(21)
 3092 0e82 AC01      		movw r20,r24
 3093               	.LVL211:
 3094 0e84 429F      		mul r20,r18
 3095 0e86 C001      		movw r24,r0
 3096 0e88 439F      		mul r20,r19
 3097 0e8a 900D      		add r25,r0
 3098 0e8c 529F      		mul r21,r18
 3099 0e8e 900D      		add r25,r0
 3100 0e90 1124      		clr r1
 3101 0e92 E80F      		add r30,r24
 3102 0e94 F91F      		adc r31,r25
 3103 0e96 23A1      		ldd r18,Z+35
 3104 0e98 34A1      		ldd r19,Z+36
 3105 0e9a 45A1      		ldd r20,Z+37
 3106 0e9c 56A1      		ldd r21,Z+38
 3107               	.LVL212:
 3108 0e9e 87A1      		ldd r24,Z+39
 3109 0ea0 90A5      		ldd r25,Z+40
 3110 0ea2 A1A5      		ldd r26,Z+41
 3111 0ea4 B2A5      		ldd r27,Z+42
 3112 0ea6 281B      		sub r18,r24
 3113 0ea8 390B      		sbc r19,r25
 3114 0eaa 4A0B      		sbc r20,r26
 3115 0eac 5B0B      		sbc r21,r27
 3116 0eae 57FF      		sbrs r21,7
 3117 0eb0 00C0      		rjmp .L165
 3118 0eb2 20E0      		ldi r18,lo8(0)
 3119 0eb4 30E0      		ldi r19,hi8(0)
 3120 0eb6 40E0      		ldi r20,hlo8(0)
 3121 0eb8 50E0      		ldi r21,hhi8(0)
 3122               	.L165:
 3123               	.LM332:
 3124 0eba B901      		movw r22,r18
 3125               	.LVL213:
 3126 0ebc CA01      		movw r24,r20
 3127               	/* epilogue start */
 3128 0ebe 0895      		ret
 3129               	.LFE55:
 3131               	.global	Timebase_DownCounter_SS_Period_Value_Expired
 3133               	Timebase_DownCounter_SS_Period_Value_Expired:
 3134               	.LFB56:
 3135               	.LM333:
 3136               	.LVL214:
 3137 0ec0 CF93      		push r28
 3138 0ec2 DF93      		push r29
 3139               	/* prologue: function */
 3140               	/* frame size = 0 */
 3141               	.LBB394:
 3142               	.LBB395:
 3143               	.LBB396:
 3144               	.LBB397:
 3145               	.LM334:
 3146 0ec4 C091 0000 		lds r28,Timebase
 3147 0ec8 D091 0000 		lds r29,(Timebase)+1
 3148 0ecc 682F      		mov r22,r24
 3149 0ece 70E0      		ldi r23,lo8(0)
 3150               	.LBE397:
 3151               	.LBE396:
 3152               	.LM335:
 3153 0ed0 85E1      		ldi r24,lo8(21)
 3154 0ed2 90E0      		ldi r25,hi8(21)
 3155               	.LVL215:
 3156 0ed4 689F      		mul r22,r24
 3157 0ed6 F001      		movw r30,r0
 3158 0ed8 699F      		mul r22,r25
 3159 0eda F00D      		add r31,r0
 3160 0edc 789F      		mul r23,r24
 3161 0ede F00D      		add r31,r0
 3162 0ee0 1124      		clr r1
 3163 0ee2 EC0F      		add r30,r28
 3164 0ee4 FD1F      		adc r31,r29
 3165 0ee6 23A1      		ldd r18,Z+35
 3166 0ee8 34A1      		ldd r19,Z+36
 3167 0eea 45A1      		ldd r20,Z+37
 3168 0eec 56A1      		ldd r21,Z+38
 3169               	.LVL216:
 3170 0eee 87A1      		ldd r24,Z+39
 3171 0ef0 90A5      		ldd r25,Z+40
 3172 0ef2 A1A5      		ldd r26,Z+41
 3173 0ef4 B2A5      		ldd r27,Z+42
 3174 0ef6 281B      		sub r18,r24
 3175 0ef8 390B      		sbc r19,r25
 3176 0efa 4A0B      		sbc r20,r26
 3177 0efc 5B0B      		sbc r21,r27
 3178               	.LM336:
 3179 0efe 57FD      		sbrc r21,7
 3180 0f00 00C0      		rjmp .L168
 3181               	.LBE395:
 3182               	.LBE394:
 3183               	.LM337:
 3184 0f02 2115      		cp r18,__zero_reg__
 3185 0f04 3105      		cpc r19,__zero_reg__
 3186 0f06 4105      		cpc r20,__zero_reg__
 3187 0f08 5105      		cpc r21,__zero_reg__
 3188 0f0a 01F0      		breq .L168
 3189 0f0c 20E0      		ldi r18,lo8(0)
 3190               	.LVL217:
 3191 0f0e 00C0      		rjmp .L169
 3192               	.LVL218:
 3193               	.L168:
 3194 0f10 20E0      		ldi r18,lo8(0)
 3195               	.LVL219:
 3196 0f12 85E1      		ldi r24,lo8(21)
 3197 0f14 90E0      		ldi r25,hi8(21)
 3198 0f16 AC01      		movw r20,r24
 3199 0f18 649F      		mul r22,r20
 3200 0f1a C001      		movw r24,r0
 3201 0f1c 659F      		mul r22,r21
 3202 0f1e 900D      		add r25,r0
 3203 0f20 749F      		mul r23,r20
 3204 0f22 900D      		add r25,r0
 3205 0f24 1124      		clr r1
 3206 0f26 C80F      		add r28,r24
 3207 0f28 D91F      		adc r29,r25
 3208 0f2a 8A8D      		ldd r24,Y+26
 3209 0f2c 80FF      		sbrs r24,0
 3210 0f2e 21E0      		ldi r18,lo8(1)
 3211               	.L170:
 3212 0f30 81E0      		ldi r24,lo8(1)
 3213 0f32 2827      		eor r18,r24
 3214               	.L169:
 3215               	.LM338:
 3216 0f34 822F      		mov r24,r18
 3217               	/* epilogue start */
 3218 0f36 DF91      		pop r29
 3219 0f38 CF91      		pop r28
 3220 0f3a 0895      		ret
 3221               	.LFE56:
 3223               	.global	Timebase_DownCounter_SS_Period_Value_Expired_Event
 3225               	Timebase_DownCounter_SS_Period_Value_Expired_Event:
 3226               	.LFB57:
 3227               	.LM339:
 3228               	.LVL220:
 3229 0f3c 1F93      		push r17
 3230               	/* prologue: function */
 3231               	/* frame size = 0 */
 3232 0f3e 182F      		mov r17,r24
 3233               	.LM340:
 3234 0f40 0E94 0000 		call Timebase_DownCounter_SS_Period_Value_Expired
 3235               	.LVL221:
 3236 0f44 8130      		cpi r24,lo8(1)
 3237 0f46 01F0      		breq .L173
 3238 0f48 80E0      		ldi r24,lo8(0)
 3239 0f4a 00C0      		rjmp .L174
 3240               	.L173:
 3241               	.LBB398:
 3242               	.LBB399:
 3243               	.LM341:
 3244 0f4c E091 0000 		lds r30,Timebase
 3245 0f50 F091 0000 		lds r31,(Timebase)+1
 3246 0f54 212F      		mov r18,r17
 3247 0f56 30E0      		ldi r19,lo8(0)
 3248               	.LVL222:
 3249 0f58 85E1      		ldi r24,lo8(21)
 3250 0f5a 90E0      		ldi r25,hi8(21)
 3251 0f5c AC01      		movw r20,r24
 3252 0f5e 249F      		mul r18,r20
 3253 0f60 C001      		movw r24,r0
 3254 0f62 259F      		mul r18,r21
 3255 0f64 900D      		add r25,r0
 3256 0f66 349F      		mul r19,r20
 3257 0f68 900D      		add r25,r0
 3258 0f6a 1124      		clr r1
 3259 0f6c E80F      		add r30,r24
 3260 0f6e F91F      		adc r31,r25
 3261 0f70 828D      		ldd r24,Z+26
 3262 0f72 8E7F      		andi r24,lo8(-2)
 3263 0f74 828F      		std Z+26,r24
 3264 0f76 81E0      		ldi r24,lo8(1)
 3265               	.L174:
 3266               	/* epilogue start */
 3267               	.LBE399:
 3268               	.LBE398:
 3269               	.LM342:
 3270 0f78 1F91      		pop r17
 3271               	.LVL223:
 3272 0f7a 0895      		ret
 3273               	.LFE57:
 3275               	.global	Timebase_DownCounter_SS_Update_All
 3277               	Timebase_DownCounter_SS_Update_All:
 3278               	.LFB58:
 3279               	.LM343:
 3280               	/* prologue: function */
 3281               	/* frame size = 0 */
 3282               	.LBB400:
 3283               	.LM344:
 3284 0f7c 80E0      		ldi r24,lo8(0)
 3285 0f7e 0E94 0000 		call Timebase_DownCounter_SS_Update
 3286               	/* epilogue start */
 3287               	.LBE400:
 3288               	.LM345:
 3289 0f82 0895      		ret
 3290               	.LFE58:
 3292               	.global	Timebase_DownCounter_SS_Reset_All
 3294               	Timebase_DownCounter_SS_Reset_All:
 3295               	.LFB59:
 3296               	.LM346:
 3297               	/* prologue: function */
 3298               	/* frame size = 0 */
 3299               	.LBB401:
 3300               	.LBB402:
 3301               	.LBB403:
 3302               	.LBB404:
 3303               	.LBB405:
 3304               	.LM347:
 3305 0f84 E091 0000 		lds r30,Timebase
 3306 0f88 F091 0000 		lds r31,(Timebase)+1
 3307 0f8c 178E      		std Z+31,__zero_reg__
 3308 0f8e 10A2      		std Z+32,__zero_reg__
 3309 0f90 11A2      		std Z+33,__zero_reg__
 3310 0f92 12A2      		std Z+34,__zero_reg__
 3311               	.LBE405:
 3312               	.LBE404:
 3313               	.LBB406:
 3314               	.LBB407:
 3315               	.LM348:
 3316 0f94 138E      		std Z+27,__zero_reg__
 3317 0f96 148E      		std Z+28,__zero_reg__
 3318 0f98 158E      		std Z+29,__zero_reg__
 3319 0f9a 168E      		std Z+30,__zero_reg__
 3320               	.LBE407:
 3321               	.LBE406:
 3322               	.LBB408:
 3323               	.LBB409:
 3324               	.LM349:
 3325 0f9c 13A2      		std Z+35,__zero_reg__
 3326 0f9e 14A2      		std Z+36,__zero_reg__
 3327 0fa0 15A2      		std Z+37,__zero_reg__
 3328 0fa2 16A2      		std Z+38,__zero_reg__
 3329               	.LBE409:
 3330               	.LBE408:
 3331               	.LBB410:
 3332               	.LBB411:
 3333               	.LM350:
 3334 0fa4 828D      		ldd r24,Z+26
 3335               	.LBE411:
 3336               	.LBE410:
 3337               	.LBB412:
 3338               	.LBB413:
 3339               	.LM351:
 3340 0fa6 807E      		andi r24,lo8(-32)
 3341 0fa8 828F      		std Z+26,r24
 3342               	.LBE413:
 3343               	.LBE412:
 3344               	.LBB414:
 3345               	.LBB415:
 3346               	.LM352:
 3347 0faa 13A6      		std Z+43,__zero_reg__
 3348 0fac 14A6      		std Z+44,__zero_reg__
 3349 0fae 15A6      		std Z+45,__zero_reg__
 3350 0fb0 16A6      		std Z+46,__zero_reg__
 3351               	/* epilogue start */
 3352               	.LBE415:
 3353               	.LBE414:
 3354               	.LBE403:
 3355               	.LBE402:
 3356               	.LBE401:
 3357               	.LM353:
 3358 0fb2 0895      		ret
 3359               	.LFE59:
 3361               	.global	Timebase_Get_Update_Req_Sts
 3363               	Timebase_Get_Update_Req_Sts:
 3364               	.LFB60:
 3365               	.LM354:
 3366               	/* prologue: function */
 3367               	/* frame size = 0 */
 3368               	.LM355:
 3369 0fb4 E091 0000 		lds r30,Timebase
 3370 0fb8 F091 0000 		lds r31,(Timebase)+1
 3371 0fbc 818D      		ldd r24,Z+25
 3372               	/* epilogue start */
 3373               	.LM356:
 3374 0fbe 0895      		ret
 3375               	.LFE60:
 3377               	.global	Timebase_Reset
 3379               	Timebase_Reset:
 3380               	.LFB61:
 3381               	.LM357:
 3382               	/* prologue: function */
 3383               	/* frame size = 0 */
 3384               	.LM358:
 3385 0fc0 0E94 0000 		call Timebase_DownCounter_SS_Reset_All
 3386               	/* epilogue start */
 3387               	.LM359:
 3388 0fc4 0895      		ret
 3389               	.LFE61:
 3391               	.global	Timebase_LP_Reset
 3393               	Timebase_LP_Reset:
 3394               	.LFB62:
 3395               	.LM360:
 3396               	/* prologue: function */
 3397               	/* frame size = 0 */
 3398               	/* epilogue start */
 3399               	.LM361:
 3400 0fc6 0895      		ret
 3401               	.LFE62:
 3403               	.global	Timebase_Init
 3405               	Timebase_Init:
 3406               	.LFB63:
 3407               	.LM362:
 3408               	.LVL224:
 3409 0fc8 0F93      		push r16
 3410 0fca 1F93      		push r17
 3411               	/* prologue: function */
 3412               	/* frame size = 0 */
 3413 0fcc 8C01      		movw r16,r24
 3414               	.LM363:
 3415 0fce 0E94 0000 		call Timebase_Struct_Init
 3416               	.LVL225:
 3417               	.LM364:
 3418 0fd2 C801      		movw r24,r16
 3419 0fd4 0E94 0000 		call Timebase_Timer_Enable
 3420               	.LBB416:
 3421               	.LBB417:
 3422               	.LM365:
 3423 0fd8 0E94 0000 		call Timebase_DownCounter_SS_Reset_All
 3424               	/* epilogue start */
 3425               	.LBE417:
 3426               	.LBE416:
 3427               	.LM366:
 3428 0fdc 1F91      		pop r17
 3429 0fde 0F91      		pop r16
 3430               	.LVL226:
 3431 0fe0 0895      		ret
 3432               	.LFE63:
 3434               	.global	Timebase_Main_Loop_Executables
 3436               	Timebase_Main_Loop_Executables:
 3437               	.LFB64:
 3438               	.LM367:
 3439               	/* prologue: function */
 3440               	/* frame size = 0 */
 3441               	.LM368:
 3442 0fe2 E091 0000 		lds r30,Timebase
 3443 0fe6 F091 0000 		lds r31,(Timebase)+1
 3444 0fea 818D      		ldd r24,Z+25
 3445 0fec 83FF      		sbrs r24,3
 3446 0fee 00C0      		rjmp .L189
 3447               	.LM369:
 3448 0ff0 0E94 0000 		call Timebase_Timer_Sync_With_Shadow_Variables
 3449               	.LM370:
 3450 0ff4 0E94 0000 		call Timebase_DownCounter_SS_Update_All
 3451               	.LM371:
 3452 0ff8 E091 0000 		lds r30,Timebase
 3453 0ffc F091 0000 		lds r31,(Timebase)+1
 3454 1000 818D      		ldd r24,Z+25
 3455 1002 877F      		andi r24,lo8(-9)
 3456 1004 818F      		std Z+25,r24
 3457               	.L189:
 3458               	.LM372:
 3459 1006 E091 0000 		lds r30,Timebase
 3460 100a F091 0000 		lds r31,(Timebase)+1
 3461 100e 108E      		std Z+24,__zero_reg__
 3462               	/* epilogue start */
 3463               	.LM373:
 3464 1010 0895      		ret
 3465               	.LFE64:
 3467               	.global	Timebase_ISR_Executables
 3469               	Timebase_ISR_Executables:
 3470               	.LFB65:
 3471               	.LM374:
 3472               	/* prologue: function */
 3473               	/* frame size = 0 */
 3474               	.LM375:
 3475 1012 E091 0000 		lds r30,Timebase
 3476 1016 F091 0000 		lds r31,(Timebase)+1
 3477 101a 8685      		ldd r24,Z+14
 3478 101c 9785      		ldd r25,Z+15
 3479 101e 0196      		adiw r24,1
 3480 1020 9787      		std Z+15,r25
 3481 1022 8687      		std Z+14,r24
 3482               	.LM376:
 3483 1024 8089      		ldd r24,Z+16
 3484 1026 9189      		ldd r25,Z+17
 3485 1028 A289      		ldd r26,Z+18
 3486 102a B389      		ldd r27,Z+19
 3487 102c 0196      		adiw r24,1
 3488 102e A11D      		adc r26,__zero_reg__
 3489 1030 B11D      		adc r27,__zero_reg__
 3490 1032 808B      		std Z+16,r24
 3491 1034 918B      		std Z+17,r25
 3492 1036 A28B      		std Z+18,r26
 3493 1038 B38B      		std Z+19,r27
 3494               	.LM377:
 3495 103a 818D      		ldd r24,Z+25
 3496 103c 8860      		ori r24,lo8(8)
 3497 103e 818F      		std Z+25,r24
 3498               	.LM378:
 3499 1040 2685      		ldd r18,Z+14
 3500 1042 3785      		ldd r19,Z+15
 3501 1044 8081      		ld r24,Z
 3502 1046 9181      		ldd r25,Z+1
 3503 1048 2817      		cp r18,r24
 3504 104a 3907      		cpc r19,r25
 3505 104c 00F0      		brlo .L193
 3506               	.LM379:
 3507 104e 1786      		std Z+15,__zero_reg__
 3508 1050 1686      		std Z+14,__zero_reg__
 3509               	.LM380:
 3510 1052 8489      		ldd r24,Z+20
 3511 1054 9589      		ldd r25,Z+21
 3512 1056 A689      		ldd r26,Z+22
 3513 1058 B789      		ldd r27,Z+23
 3514 105a 0196      		adiw r24,1
 3515 105c A11D      		adc r26,__zero_reg__
 3516 105e B11D      		adc r27,__zero_reg__
 3517 1060 848B      		std Z+20,r24
 3518 1062 958B      		std Z+21,r25
 3519 1064 A68B      		std Z+22,r26
 3520 1066 B78B      		std Z+23,r27
 3521               	.L193:
 3522 1068 0895      		ret
 3523               	.LFE65:
 3525               	.global	__vector_16
 3527               	__vector_16:
 3528               	.LFB11:
 3529               	.LM381:
 3530 106a 1F92      		push __zero_reg__
 3531 106c 0F92      		push r0
 3532 106e 0FB6      		in r0,__SREG__
 3533 1070 0F92      		push r0
 3534 1072 1124      		clr __zero_reg__
 3535 1074 2F93      		push r18
 3536 1076 3F93      		push r19
 3537 1078 4F93      		push r20
 3538 107a 5F93      		push r21
 3539 107c 6F93      		push r22
 3540 107e 7F93      		push r23
 3541 1080 8F93      		push r24
 3542 1082 9F93      		push r25
 3543 1084 AF93      		push r26
 3544 1086 BF93      		push r27
 3545 1088 EF93      		push r30
 3546 108a FF93      		push r31
 3547               	/* prologue: Signal */
 3548               	/* frame size = 0 */
 3549               	.LM382:
 3550 108c E091 0000 		lds r30,Timebase
 3551 1090 F091 0000 		lds r31,(Timebase)+1
 3552 1094 8281      		ldd r24,Z+2
 3553 1096 9381      		ldd r25,Z+3
 3554 1098 86BD      		out 70-32,r24
 3555               	.LM383:
 3556 109a 0E94 0000 		call Timebase_ISR_Executables
 3557               	/* epilogue start */
 3558               	.LM384:
 3559 109e FF91      		pop r31
 3560 10a0 EF91      		pop r30
 3561 10a2 BF91      		pop r27
 3562 10a4 AF91      		pop r26
 3563 10a6 9F91      		pop r25
 3564 10a8 8F91      		pop r24
 3565 10aa 7F91      		pop r23
 3566 10ac 6F91      		pop r22
 3567 10ae 5F91      		pop r21
 3568 10b0 4F91      		pop r20
 3569 10b2 3F91      		pop r19
 3570 10b4 2F91      		pop r18
 3571 10b6 0F90      		pop r0
 3572 10b8 0FBE      		out __SREG__,r0
 3573 10ba 0F90      		pop r0
 3574 10bc 1F90      		pop __zero_reg__
 3575 10be 1895      		reti
 3576               	.LFE11:
 3578               	.global	Timebase_LP_ISR_Executables
 3580               	Timebase_LP_ISR_Executables:
 3581               	.LFB66:
 3582               	.LM385:
 3583               	/* prologue: function */
 3584               	/* frame size = 0 */
 3585               	/* epilogue start */
 3586               	.LM386:
 3587 10c0 0895      		ret
 3588               	.LFE66:
 3590               		.data
 3593               	C.1.1778:
 3594 0000 0100      		.word	1
 3595 0002 0800      		.word	8
 3596 0004 4000      		.word	64
 3597 0006 0001      		.word	256
 3598 0008 0004      		.word	1024
 3599               		.comm Timebase_type,47,1
 3600               		.comm Timebase,2,1
 4105               	.Letext0:
DEFINED SYMBOLS
                            *ABS*:00000000 timebase.c
C:\Users\WALTON\AppData\Local\Temp/ccqXbAyz.s:2      *ABS*:0000003f __SREG__
C:\Users\WALTON\AppData\Local\Temp/ccqXbAyz.s:3      *ABS*:0000003e __SP_H__
C:\Users\WALTON\AppData\Local\Temp/ccqXbAyz.s:4      *ABS*:0000003d __SP_L__
C:\Users\WALTON\AppData\Local\Temp/ccqXbAyz.s:5      *ABS*:00000034 __CCP__
C:\Users\WALTON\AppData\Local\Temp/ccqXbAyz.s:6      *ABS*:00000000 __tmp_reg__
C:\Users\WALTON\AppData\Local\Temp/ccqXbAyz.s:7      *ABS*:00000001 __zero_reg__
C:\Users\WALTON\AppData\Local\Temp/ccqXbAyz.s:18     .text:00000000 Timebase_Struct_Init
                            *COM*:0000002f Timebase_type
                            *COM*:00000002 Timebase
C:\Users\WALTON\AppData\Local\Temp/ccqXbAyz.s:102    .text:000000ce Timebase_Timer_Enable
C:\Users\WALTON\AppData\Local\Temp/ccqXbAyz.s:3593   .data:00000000 C.1.1778
C:\Users\WALTON\AppData\Local\Temp/ccqXbAyz.s:320    .text:000001f0 Timebase_Timer_Disable
C:\Users\WALTON\AppData\Local\Temp/ccqXbAyz.s:347    .text:00000204 Timebase_Atomic_Operation_Start
C:\Users\WALTON\AppData\Local\Temp/ccqXbAyz.s:365    .text:00000208 Timebase_Atomic_Operation_End
C:\Users\WALTON\AppData\Local\Temp/ccqXbAyz.s:383    .text:0000020c Timebase_Timer_Get_SubSecondsShadow
C:\Users\WALTON\AppData\Local\Temp/ccqXbAyz.s:401    .text:0000021c Timebase_Timer_Get_SubSecondsUpTime
C:\Users\WALTON\AppData\Local\Temp/ccqXbAyz.s:422    .text:00000232 Timebase_Timer_Get_SecondsShadow
C:\Users\WALTON\AppData\Local\Temp/ccqXbAyz.s:443    .text:00000248 Timebase_Timer_Get_SubSeconds
C:\Users\WALTON\AppData\Local\Temp/ccqXbAyz.s:461    .text:00000258 Timebase_Timer_Get_Seconds
C:\Users\WALTON\AppData\Local\Temp/ccqXbAyz.s:482    .text:0000026e Timebase_Timer_Set_SubSeconds
C:\Users\WALTON\AppData\Local\Temp/ccqXbAyz.s:500    .text:0000027c Timebase_Timer_Set_SubSecondsShadow
C:\Users\WALTON\AppData\Local\Temp/ccqXbAyz.s:518    .text:0000028a Timebase_Timer_Set_SubSecondsUpTime
C:\Users\WALTON\AppData\Local\Temp/ccqXbAyz.s:538    .text:0000029c Timebase_Timer_Set_Seconds
C:\Users\WALTON\AppData\Local\Temp/ccqXbAyz.s:558    .text:000002ae Timebase_Timer_Get_SubSecondsShadow_Securely
C:\Users\WALTON\AppData\Local\Temp/ccqXbAyz.s:587    .text:000002c8 Timebase_Timer_Get_SubSecondsUpTime_Securely
C:\Users\WALTON\AppData\Local\Temp/ccqXbAyz.s:624    .text:000002f0 Timebase_Timer_Get_SecondsShadow_Securely
C:\Users\WALTON\AppData\Local\Temp/ccqXbAyz.s:661    .text:00000318 Timebase_Timer_Sync_With_Shadow_Variables
C:\Users\WALTON\AppData\Local\Temp/ccqXbAyz.s:730    .text:00000360 Timebase_Timer_Delay_SubSeconds
C:\Users\WALTON\AppData\Local\Temp/ccqXbAyz.s:922    .text:0000044e Timebase_Timer_Await_SubSeconds
C:\Users\WALTON\AppData\Local\Temp/ccqXbAyz.s:1076   .text:0000050c Timebase_Timer_Delay_Seconds
C:\Users\WALTON\AppData\Local\Temp/ccqXbAyz.s:1174   .text:0000057e Timebase_DownCounter_SS_Get_Status
C:\Users\WALTON\AppData\Local\Temp/ccqXbAyz.s:1208   .text:000005a8 Timebase_DownCounter_SS_Set_Status
C:\Users\WALTON\AppData\Local\Temp/ccqXbAyz.s:1246   .text:000005d8 Timebase_DownCounter_SS_Get_Value
C:\Users\WALTON\AppData\Local\Temp/ccqXbAyz.s:1289   .text:00000612 Timebase_DownCounter_SS_Set_Value
C:\Users\WALTON\AppData\Local\Temp/ccqXbAyz.s:1324   .text:0000063e Timebase_DownCounter_SS_Get_EndValueSec
C:\Users\WALTON\AppData\Local\Temp/ccqXbAyz.s:1367   .text:00000678 Timebase_DownCounter_SS_Get_EndValueSubSec
C:\Users\WALTON\AppData\Local\Temp/ccqXbAyz.s:1410   .text:000006b2 Timebase_DownCounter_SS_Set_EndValueSec
C:\Users\WALTON\AppData\Local\Temp/ccqXbAyz.s:1445   .text:000006de Timebase_DownCounter_SS_Set_EndValueSubSec
C:\Users\WALTON\AppData\Local\Temp/ccqXbAyz.s:1480   .text:0000070a Timebase_DownCounter_SS_Get_PeriodValue
C:\Users\WALTON\AppData\Local\Temp/ccqXbAyz.s:1523   .text:00000744 Timebase_DownCounter_SS_Set_PeriodValue
C:\Users\WALTON\AppData\Local\Temp/ccqXbAyz.s:1581   .text:00000798 Timebase_DownCounter_SS_Get_Period_Flag
C:\Users\WALTON\AppData\Local\Temp/ccqXbAyz.s:1614   .text:000007c0 Timebase_DownCounter_SS_Set_Period_Flag
C:\Users\WALTON\AppData\Local\Temp/ccqXbAyz.s:1648   .text:000007ea Timebase_DownCounter_SS_Clear_Period_Flag
C:\Users\WALTON\AppData\Local\Temp/ccqXbAyz.s:1682   .text:00000814 Timebase_DownCounter_SS_Get_ReloadValue
C:\Users\WALTON\AppData\Local\Temp/ccqXbAyz.s:1725   .text:0000084e Timebase_DownCounter_SS_Set_ReloadValue
C:\Users\WALTON\AppData\Local\Temp/ccqXbAyz.s:1760   .text:0000087a Timebase_DownCounter_SS_Reset
C:\Users\WALTON\AppData\Local\Temp/ccqXbAyz.s:1838   .text:000008c4 Timebase_DownCounter_SS_Clear_All_Flags
C:\Users\WALTON\AppData\Local\Temp/ccqXbAyz.s:1920   .text:0000090e Timebase_DownCounter_SS_Start
C:\Users\WALTON\AppData\Local\Temp/ccqXbAyz.s:1968   .text:00000944 Timebase_DownCounter_SS_Stop
C:\Users\WALTON\AppData\Local\Temp/ccqXbAyz.s:2016   .text:0000097a Timebase_DownCounter_SS_Set_Securely
C:\Users\WALTON\AppData\Local\Temp/ccqXbAyz.s:2297   .text:00000b18 Timebase_DownCounter_SS_Set_Forcefully
C:\Users\WALTON\AppData\Local\Temp/ccqXbAyz.s:2412   .text:00000b9a Timebase_DownCounter_SS_Update
C:\Users\WALTON\AppData\Local\Temp/ccqXbAyz.s:2710   .text:00000d00 Timebase_DownCounter_SS_Expired
C:\Users\WALTON\AppData\Local\Temp/ccqXbAyz.s:2750   .text:00000d34 Timebase_DownCounter_SS_Expired_Event
C:\Users\WALTON\AppData\Local\Temp/ccqXbAyz.s:2850   .text:00000d8e Timebase_DownCounter_SS_Oneshot_Expired_Event
C:\Users\WALTON\AppData\Local\Temp/ccqXbAyz.s:2866   .text:00000d94 Timebase_DownCounter_SS_Continuous_Expired_Event
C:\Users\WALTON\AppData\Local\Temp/ccqXbAyz.s:2984   .text:00000e00 Timebase_DownCounter_SS_Set_Period_Value_Securely
C:\Users\WALTON\AppData\Local\Temp/ccqXbAyz.s:3075   .text:00000e74 Timebase_DownCounter_SS_Get_Remaining_Period_Value
C:\Users\WALTON\AppData\Local\Temp/ccqXbAyz.s:3133   .text:00000ec0 Timebase_DownCounter_SS_Period_Value_Expired
C:\Users\WALTON\AppData\Local\Temp/ccqXbAyz.s:3225   .text:00000f3c Timebase_DownCounter_SS_Period_Value_Expired_Event
C:\Users\WALTON\AppData\Local\Temp/ccqXbAyz.s:3277   .text:00000f7c Timebase_DownCounter_SS_Update_All
C:\Users\WALTON\AppData\Local\Temp/ccqXbAyz.s:3294   .text:00000f84 Timebase_DownCounter_SS_Reset_All
C:\Users\WALTON\AppData\Local\Temp/ccqXbAyz.s:3363   .text:00000fb4 Timebase_Get_Update_Req_Sts
C:\Users\WALTON\AppData\Local\Temp/ccqXbAyz.s:3379   .text:00000fc0 Timebase_Reset
C:\Users\WALTON\AppData\Local\Temp/ccqXbAyz.s:3393   .text:00000fc6 Timebase_LP_Reset
C:\Users\WALTON\AppData\Local\Temp/ccqXbAyz.s:3405   .text:00000fc8 Timebase_Init
C:\Users\WALTON\AppData\Local\Temp/ccqXbAyz.s:3436   .text:00000fe2 Timebase_Main_Loop_Executables
C:\Users\WALTON\AppData\Local\Temp/ccqXbAyz.s:3469   .text:00001012 Timebase_ISR_Executables
C:\Users\WALTON\AppData\Local\Temp/ccqXbAyz.s:3527   .text:0000106a __vector_16
C:\Users\WALTON\AppData\Local\Temp/ccqXbAyz.s:3580   .text:000010c0 Timebase_LP_ISR_Executables

UNDEFINED SYMBOLS
__divmodsi4
__mulsi3
__do_copy_data
__do_clear_bss
