   1               		.file	"timebase.c"
   2               	__SREG__ = 0x3f
   3               	__SP_H__ = 0x3e
   4               	__SP_L__ = 0x3d
   5               	__CCP__  = 0x34
   6               	__tmp_reg__ = 0
   7               	__zero_reg__ = 1
  15               	.Ltext0:
  16               	.global	Timebase_Struct_Init
  18               	Timebase_Struct_Init:
  19               	.LFB6:
  20               	.LM1:
  21               	/* prologue: function */
  22               	/* frame size = 0 */
  23               	.LM2:
  24 0000 80E0      		ldi r24,lo8(Timebase_type)
  25 0002 90E0      		ldi r25,hi8(Timebase_type)
  26 0004 9093 0000 		sts (Timebase)+1,r25
  27 0008 8093 0000 		sts Timebase,r24
  28               	.LM3:
  29 000c 81E0      		ldi r24,lo8(1)
  30 000e 90E0      		ldi r25,hi8(1)
  31 0010 9093 0000 		sts (Timebase_type)+1,r25
  32 0014 8093 0000 		sts Timebase_type,r24
  33               	.LM4:
  34 0018 1092 0000 		sts (Timebase_type+2)+1,__zero_reg__
  35 001c 1092 0000 		sts Timebase_type+2,__zero_reg__
  36               	.LM5:
  37 0020 1092 0000 		sts (Timebase_type+14)+1,__zero_reg__
  38 0024 1092 0000 		sts Timebase_type+14,__zero_reg__
  39               	.LM6:
  40 0028 1092 0000 		sts Timebase_type+16,__zero_reg__
  41 002c 1092 0000 		sts (Timebase_type+16)+1,__zero_reg__
  42 0030 1092 0000 		sts (Timebase_type+16)+2,__zero_reg__
  43 0034 1092 0000 		sts (Timebase_type+16)+3,__zero_reg__
  44               	.LM7:
  45 0038 1092 0000 		sts Timebase_type+20,__zero_reg__
  46 003c 1092 0000 		sts (Timebase_type+20)+1,__zero_reg__
  47 0040 1092 0000 		sts (Timebase_type+20)+2,__zero_reg__
  48 0044 1092 0000 		sts (Timebase_type+20)+3,__zero_reg__
  49               	.LM8:
  50 0048 1092 0000 		sts (Timebase_type+8)+1,__zero_reg__
  51 004c 1092 0000 		sts Timebase_type+8,__zero_reg__
  52               	.LM9:
  53 0050 1092 0000 		sts Timebase_type+10,__zero_reg__
  54 0054 1092 0000 		sts (Timebase_type+10)+1,__zero_reg__
  55 0058 1092 0000 		sts (Timebase_type+10)+2,__zero_reg__
  56 005c 1092 0000 		sts (Timebase_type+10)+3,__zero_reg__
  57               	.LM10:
  58 0060 1092 0000 		sts Timebase_type+24,__zero_reg__
  59               	.LM11:
  60 0064 1092 0000 		sts Timebase_type+4,__zero_reg__
  61 0068 1092 0000 		sts (Timebase_type+4)+1,__zero_reg__
  62 006c 1092 0000 		sts (Timebase_type+4)+2,__zero_reg__
  63 0070 1092 0000 		sts (Timebase_type+4)+3,__zero_reg__
  64               	.LM12:
  65 0074 1092 0000 		sts Timebase_type+25,__zero_reg__
  66 0078 1092 0000 		sts (Timebase_type+25)+1,__zero_reg__
  67 007c 1092 0000 		sts (Timebase_type+25)+2,__zero_reg__
  68 0080 1092 0000 		sts (Timebase_type+25)+3,__zero_reg__
  69               	.LM13:
  70 0084 1092 0000 		sts Timebase_type+29,__zero_reg__
  71 0088 1092 0000 		sts (Timebase_type+29)+1,__zero_reg__
  72 008c 1092 0000 		sts (Timebase_type+29)+2,__zero_reg__
  73 0090 1092 0000 		sts (Timebase_type+29)+3,__zero_reg__
  74               	.LM14:
  75 0094 1092 0000 		sts Timebase_type+33,__zero_reg__
  76               	.LM15:
  77 0098 1092 0000 		sts Timebase_type+34,__zero_reg__
  78               	.LBB239:
  79               	.LM16:
  80 009c 1092 0000 		sts Timebase_type+35,__zero_reg__
  81               	.LM17:
  82 00a0 1092 0000 		sts Timebase_type+36,__zero_reg__
  83 00a4 1092 0000 		sts (Timebase_type+36)+1,__zero_reg__
  84 00a8 1092 0000 		sts (Timebase_type+36)+2,__zero_reg__
  85 00ac 1092 0000 		sts (Timebase_type+36)+3,__zero_reg__
  86               	.LM18:
  87 00b0 1092 0000 		sts Timebase_type+40,__zero_reg__
  88 00b4 1092 0000 		sts (Timebase_type+40)+1,__zero_reg__
  89 00b8 1092 0000 		sts (Timebase_type+40)+2,__zero_reg__
  90 00bc 1092 0000 		sts (Timebase_type+40)+3,__zero_reg__
  91               	.LM19:
  92 00c0 1092 0000 		sts Timebase_type+44,__zero_reg__
  93 00c4 1092 0000 		sts (Timebase_type+44)+1,__zero_reg__
  94 00c8 1092 0000 		sts (Timebase_type+44)+2,__zero_reg__
  95 00cc 1092 0000 		sts (Timebase_type+44)+3,__zero_reg__
  96               	.LM20:
  97 00d0 1092 0000 		sts Timebase_type+48,__zero_reg__
  98 00d4 1092 0000 		sts (Timebase_type+48)+1,__zero_reg__
  99 00d8 1092 0000 		sts (Timebase_type+48)+2,__zero_reg__
 100 00dc 1092 0000 		sts (Timebase_type+48)+3,__zero_reg__
 101               	.LM21:
 102 00e0 1092 0000 		sts Timebase_type+52,__zero_reg__
 103 00e4 1092 0000 		sts (Timebase_type+52)+1,__zero_reg__
 104 00e8 1092 0000 		sts (Timebase_type+52)+2,__zero_reg__
 105 00ec 1092 0000 		sts (Timebase_type+52)+3,__zero_reg__
 106               	/* epilogue start */
 107               	.LBE239:
 108               	.LM22:
 109 00f0 0895      		ret
 110               	.LFE6:
 112               	.global	Timebase_Timer_Enable
 114               	Timebase_Timer_Enable:
 115               	.LFB7:
 116               	.LM23:
 117               	.LVL0:
 118 00f2 8F92      		push r8
 119 00f4 9F92      		push r9
 120 00f6 BF92      		push r11
 121 00f8 CF92      		push r12
 122 00fa DF92      		push r13
 123 00fc EF92      		push r14
 124 00fe FF92      		push r15
 125 0100 0F93      		push r16
 126 0102 1F93      		push r17
 127 0104 DF93      		push r29
 128 0106 CF93      		push r28
 129 0108 CDB7      		in r28,__SP_L__
 130 010a DEB7      		in r29,__SP_H__
 131 010c 2A97      		sbiw r28,10
 132 010e 0FB6      		in __tmp_reg__,__SREG__
 133 0110 F894      		cli
 134 0112 DEBF      		out __SP_H__,r29
 135 0114 0FBE      		out __SREG__,__tmp_reg__
 136 0116 CDBF      		out __SP_L__,r28
 137               	/* prologue: function */
 138               	/* frame size = 10 */
 139 0118 4C01      		movw r8,r24
 140               	.LM24:
 141 011a DE01      		movw r26,r28
 142 011c 1196      		adiw r26,1
 143 011e E0E0      		ldi r30,lo8(C.1.1781)
 144 0120 F0E0      		ldi r31,hi8(C.1.1781)
 145 0122 8AE0      		ldi r24,lo8(10)
 146               	.LVL1:
 147               	.L4:
 148 0124 0190      		ld r0,Z+
 149 0126 0D92      		st X+,r0
 150 0128 8150      		subi r24,lo8(-(-1))
 151 012a 01F4      		brne .L4
 152               	.LM25:
 153 012c 9401      		movw r18,r8
 154 012e 40E0      		ldi r20,lo8(0)
 155 0130 50E0      		ldi r21,hi8(0)
 156               	.LVL2:
 157 0132 60E0      		ldi r22,lo8(12000000)
 158 0134 7BE1      		ldi r23,hi8(12000000)
 159 0136 87EB      		ldi r24,hlo8(12000000)
 160 0138 90E0      		ldi r25,hhi8(12000000)
 161 013a 0E94 0000 		call __divmodsi4
 162 013e B22E      		mov r11,r18
 163 0140 C32E      		mov r12,r19
 164 0142 D42E      		mov r13,r20
 165               	.LVL3:
 166 0144 052F      		mov r16,r21
 167 0146 7E01      		movw r14,r28
 168 0148 0894      		sec
 169 014a E11C      		adc r14,__zero_reg__
 170 014c F11C      		adc r15,__zero_reg__
 171 014e C901      		movw r24,r18
 172 0150 DA01      		movw r26,r20
 173 0152 9C01      		movw r18,r24
 174 0154 AD01      		movw r20,r26
 175               	.LVL4:
 176 0156 10E0      		ldi r17,lo8(0)
 177               	.LVL5:
 178 0158 00C0      		rjmp .L5
 179               	.LVL6:
 180               	.L7:
 181               	.LM26:
 182 015a F701      		movw r30,r14
 183 015c 2191      		ld r18,Z+
 184 015e 3191      		ld r19,Z+
 185               	.LVL7:
 186 0160 7F01      		movw r14,r30
 187 0162 40E0      		ldi r20,lo8(0)
 188 0164 50E0      		ldi r21,hi8(0)
 189 0166 6B2D      		mov r22,r11
 190 0168 7C2D      		mov r23,r12
 191 016a 8D2D      		mov r24,r13
 192               	.LVL8:
 193 016c 902F      		mov r25,r16
 194 016e 0E94 0000 		call __divmodsi4
 195 0172 C901      		movw r24,r18
 196 0174 DA01      		movw r26,r20
 197 0176 9C01      		movw r18,r24
 198 0178 AD01      		movw r20,r26
 199               	.LVL9:
 200               	.LM27:
 201 017a 1F5F      		subi r17,lo8(-(1))
 202               	.LM28:
 203 017c 1530      		cpi r17,lo8(5)
 204 017e 01F0      		breq .L6
 205               	.LVL10:
 206               	.L5:
 207               	.LM29:
 208 0180 2F3F      		cpi r18,lo8(255)
 209 0182 3105      		cpc r19,__zero_reg__
 210 0184 4105      		cpc r20,__zero_reg__
 211 0186 5105      		cpc r21,__zero_reg__
 212 0188 01F0      		breq .+2
 213 018a 04F4      		brge .L7
 214               	.L6:
 215               	.LM30:
 216 018c 812F      		mov r24,r17
 217 018e 8150      		subi r24,lo8(-(-1))
 218               	.LVL11:
 219               	.LM31:
 220 0190 14BC      		out 68-32,__zero_reg__
 221               	.LM32:
 222 0192 15BC      		out 69-32,__zero_reg__
 223               	.LM33:
 224 0194 1092 6E00 		sts 110,__zero_reg__
 225               	.LM34:
 226 0198 15BA      		out 53-32,__zero_reg__
 227               	.LM35:
 228 019a 17BC      		out 71-32,__zero_reg__
 229               	.LM36:
 230 019c 18BC      		out 72-32,__zero_reg__
 231               	.LM37:
 232 019e 16BC      		out 70-32,__zero_reg__
 233               	.LM38:
 234 01a0 17BC      		out 71-32,__zero_reg__
 235               	.LM39:
 236 01a2 8823      		tst r24
 237 01a4 01F4      		brne .L8
 238               	.LM40:
 239 01a6 81E0      		ldi r24,lo8(1)
 240               	.LVL12:
 241 01a8 00C0      		rjmp .L15
 242               	.LVL13:
 243               	.L8:
 244               	.LM41:
 245 01aa 8130      		cpi r24,lo8(1)
 246 01ac 01F4      		brne .L10
 247               	.LM42:
 248 01ae 82E0      		ldi r24,lo8(2)
 249               	.LVL14:
 250 01b0 00C0      		rjmp .L15
 251               	.LVL15:
 252               	.L10:
 253               	.LM43:
 254 01b2 8230      		cpi r24,lo8(2)
 255 01b4 01F4      		brne .L11
 256               	.LM44:
 257 01b6 83E0      		ldi r24,lo8(3)
 258               	.LVL16:
 259 01b8 00C0      		rjmp .L15
 260               	.LVL17:
 261               	.L11:
 262               	.LM45:
 263 01ba 8330      		cpi r24,lo8(3)
 264 01bc 01F4      		brne .L12
 265               	.LM46:
 266 01be 84E0      		ldi r24,lo8(4)
 267               	.LVL18:
 268 01c0 00C0      		rjmp .L15
 269               	.LVL19:
 270               	.L12:
 271               	.LM47:
 272 01c2 8430      		cpi r24,lo8(4)
 273 01c4 01F4      		brne .L9
 274               	.LM48:
 275 01c6 85E0      		ldi r24,lo8(5)
 276               	.LVL20:
 277               	.L15:
 278 01c8 85BD      		out 69-32,r24
 279               	.LVL21:
 280               	.L9:
 281               	.LM49:
 282 01ca E091 0000 		lds r30,Timebase
 283 01ce F091 0000 		lds r31,(Timebase)+1
 284 01d2 8FEF      		ldi r24,lo8(255)
 285 01d4 90E0      		ldi r25,hi8(255)
 286               	.LVL22:
 287 01d6 821B      		sub r24,r18
 288 01d8 930B      		sbc r25,r19
 289 01da 9383      		std Z+3,r25
 290 01dc 8283      		std Z+2,r24
 291               	.LM50:
 292 01de 8281      		ldd r24,Z+2
 293 01e0 9381      		ldd r25,Z+3
 294 01e2 86BD      		out 70-32,r24
 295               	.LM51:
 296 01e4 81E0      		ldi r24,lo8(1)
 297 01e6 8093 6E00 		sts 110,r24
 298               	.LM52:
 299               	/* #APP */
 300               	 ;  355 "timebase.c" 1
 301 01ea 7894      		sei
 302               	 ;  0 "" 2
 303               	.LM53:
 304               	/* #NOAPP */
 305 01ec 9182      		std Z+1,r9
 306 01ee 8082      		st Z,r8
 307               	/* epilogue start */
 308               	.LM54:
 309 01f0 2A96      		adiw r28,10
 310 01f2 0FB6      		in __tmp_reg__,__SREG__
 311 01f4 F894      		cli
 312 01f6 DEBF      		out __SP_H__,r29
 313 01f8 0FBE      		out __SREG__,__tmp_reg__
 314 01fa CDBF      		out __SP_L__,r28
 315 01fc CF91      		pop r28
 316 01fe DF91      		pop r29
 317 0200 1F91      		pop r17
 318 0202 0F91      		pop r16
 319 0204 FF90      		pop r15
 320 0206 EF90      		pop r14
 321 0208 DF90      		pop r13
 322 020a CF90      		pop r12
 323 020c BF90      		pop r11
 324 020e 9F90      		pop r9
 325 0210 8F90      		pop r8
 326               	.LVL23:
 327 0212 0895      		ret
 328               	.LFE7:
 330               	.global	Timebase_Timer_Disable
 332               	Timebase_Timer_Disable:
 333               	.LFB8:
 334               	.LM55:
 335               	/* prologue: function */
 336               	/* frame size = 0 */
 337               	.LM56:
 338 0214 14BC      		out 68-32,__zero_reg__
 339               	.LM57:
 340 0216 15BC      		out 69-32,__zero_reg__
 341               	.LM58:
 342 0218 1092 6E00 		sts 110,__zero_reg__
 343               	.LM59:
 344 021c 87E0      		ldi r24,lo8(7)
 345 021e 85BB      		out 53-32,r24
 346               	.LM60:
 347 0220 17BC      		out 71-32,__zero_reg__
 348               	.LM61:
 349 0222 18BC      		out 72-32,__zero_reg__
 350               	.LM62:
 351 0224 16BC      		out 70-32,__zero_reg__
 352               	/* epilogue start */
 353               	.LM63:
 354 0226 0895      		ret
 355               	.LFE8:
 357               	.global	Timebase_Atomic_Operation_Start
 359               	Timebase_Atomic_Operation_Start:
 360               	.LFB9:
 361               	.LM64:
 362               	/* prologue: function */
 363               	/* frame size = 0 */
 364               	.LM65:
 365               	/* #APP */
 366               	 ;  433 "timebase.c" 1
 367 0228 F894      		cli
 368               	 ;  0 "" 2
 369               	/* epilogue start */
 370               	.LM66:
 371               	/* #NOAPP */
 372 022a 0895      		ret
 373               	.LFE9:
 375               	.global	Timebase_Atomic_Operation_End
 377               	Timebase_Atomic_Operation_End:
 378               	.LFB10:
 379               	.LM67:
 380               	/* prologue: function */
 381               	/* frame size = 0 */
 382               	.LM68:
 383               	/* #APP */
 384               	 ;  438 "timebase.c" 1
 385 022c 7894      		sei
 386               	 ;  0 "" 2
 387               	/* epilogue start */
 388               	.LM69:
 389               	/* #NOAPP */
 390 022e 0895      		ret
 391               	.LFE10:
 393               	.global	Timebase_Timer_Get_SubSecondsShadow
 395               	Timebase_Timer_Get_SubSecondsShadow:
 396               	.LFB12:
 397               	.LM70:
 398               	/* prologue: function */
 399               	/* frame size = 0 */
 400               	.LM71:
 401 0230 E091 0000 		lds r30,Timebase
 402 0234 F091 0000 		lds r31,(Timebase)+1
 403 0238 2685      		ldd r18,Z+14
 404 023a 3785      		ldd r19,Z+15
 405               	.LM72:
 406 023c C901      		movw r24,r18
 407               	/* epilogue start */
 408 023e 0895      		ret
 409               	.LFE12:
 411               	.global	Timebase_Timer_Get_SubSecondsUpTime
 413               	Timebase_Timer_Get_SubSecondsUpTime:
 414               	.LFB13:
 415               	.LM73:
 416               	/* prologue: function */
 417               	/* frame size = 0 */
 418               	.LM74:
 419 0240 E091 0000 		lds r30,Timebase
 420 0244 F091 0000 		lds r31,(Timebase)+1
 421 0248 2089      		ldd r18,Z+16
 422 024a 3189      		ldd r19,Z+17
 423 024c 4289      		ldd r20,Z+18
 424 024e 5389      		ldd r21,Z+19
 425               	.LM75:
 426 0250 B901      		movw r22,r18
 427 0252 CA01      		movw r24,r20
 428               	/* epilogue start */
 429 0254 0895      		ret
 430               	.LFE13:
 432               	.global	Timebase_Timer_Get_SecondsShadow
 434               	Timebase_Timer_Get_SecondsShadow:
 435               	.LFB14:
 436               	.LM76:
 437               	/* prologue: function */
 438               	/* frame size = 0 */
 439               	.LM77:
 440 0256 E091 0000 		lds r30,Timebase
 441 025a F091 0000 		lds r31,(Timebase)+1
 442 025e 2489      		ldd r18,Z+20
 443 0260 3589      		ldd r19,Z+21
 444 0262 4689      		ldd r20,Z+22
 445 0264 5789      		ldd r21,Z+23
 446               	.LM78:
 447 0266 B901      		movw r22,r18
 448 0268 CA01      		movw r24,r20
 449               	/* epilogue start */
 450 026a 0895      		ret
 451               	.LFE14:
 453               	.global	Timebase_Timer_Get_SubSeconds
 455               	Timebase_Timer_Get_SubSeconds:
 456               	.LFB15:
 457               	.LM79:
 458               	/* prologue: function */
 459               	/* frame size = 0 */
 460               	.LM80:
 461 026c E091 0000 		lds r30,Timebase
 462 0270 F091 0000 		lds r31,(Timebase)+1
 463 0274 2085      		ldd r18,Z+8
 464 0276 3185      		ldd r19,Z+9
 465               	.LM81:
 466 0278 C901      		movw r24,r18
 467               	/* epilogue start */
 468 027a 0895      		ret
 469               	.LFE15:
 471               	.global	Timebase_Timer_Get_Seconds
 473               	Timebase_Timer_Get_Seconds:
 474               	.LFB16:
 475               	.LM82:
 476               	/* prologue: function */
 477               	/* frame size = 0 */
 478               	.LM83:
 479 027c E091 0000 		lds r30,Timebase
 480 0280 F091 0000 		lds r31,(Timebase)+1
 481 0284 2285      		ldd r18,Z+10
 482 0286 3385      		ldd r19,Z+11
 483 0288 4485      		ldd r20,Z+12
 484 028a 5585      		ldd r21,Z+13
 485               	.LM84:
 486 028c B901      		movw r22,r18
 487 028e CA01      		movw r24,r20
 488               	/* epilogue start */
 489 0290 0895      		ret
 490               	.LFE16:
 492               	.global	Timebase_Timer_Set_SubSeconds
 494               	Timebase_Timer_Set_SubSeconds:
 495               	.LFB17:
 496               	.LM85:
 497               	.LVL24:
 498               	/* prologue: function */
 499               	/* frame size = 0 */
 500               	.LM86:
 501 0292 E091 0000 		lds r30,Timebase
 502 0296 F091 0000 		lds r31,(Timebase)+1
 503 029a 9187      		std Z+9,r25
 504 029c 8087      		std Z+8,r24
 505               	/* epilogue start */
 506               	.LM87:
 507 029e 0895      		ret
 508               	.LFE17:
 510               	.global	Timebase_Timer_Set_SubSecondsShadow
 512               	Timebase_Timer_Set_SubSecondsShadow:
 513               	.LFB18:
 514               	.LM88:
 515               	.LVL25:
 516               	/* prologue: function */
 517               	/* frame size = 0 */
 518               	.LM89:
 519 02a0 E091 0000 		lds r30,Timebase
 520 02a4 F091 0000 		lds r31,(Timebase)+1
 521 02a8 9787      		std Z+15,r25
 522 02aa 8687      		std Z+14,r24
 523               	/* epilogue start */
 524               	.LM90:
 525 02ac 0895      		ret
 526               	.LFE18:
 528               	.global	Timebase_Timer_Set_SubSecondsUpTime
 530               	Timebase_Timer_Set_SubSecondsUpTime:
 531               	.LFB19:
 532               	.LM91:
 533               	.LVL26:
 534               	/* prologue: function */
 535               	/* frame size = 0 */
 536               	.LM92:
 537 02ae E091 0000 		lds r30,Timebase
 538 02b2 F091 0000 		lds r31,(Timebase)+1
 539 02b6 608B      		std Z+16,r22
 540 02b8 718B      		std Z+17,r23
 541 02ba 828B      		std Z+18,r24
 542 02bc 938B      		std Z+19,r25
 543               	/* epilogue start */
 544               	.LM93:
 545 02be 0895      		ret
 546               	.LFE19:
 548               	.global	Timebase_Timer_Set_Seconds
 550               	Timebase_Timer_Set_Seconds:
 551               	.LFB20:
 552               	.LM94:
 553               	.LVL27:
 554               	/* prologue: function */
 555               	/* frame size = 0 */
 556               	.LM95:
 557 02c0 E091 0000 		lds r30,Timebase
 558 02c4 F091 0000 		lds r31,(Timebase)+1
 559 02c8 6287      		std Z+10,r22
 560 02ca 7387      		std Z+11,r23
 561 02cc 8487      		std Z+12,r24
 562 02ce 9587      		std Z+13,r25
 563               	/* epilogue start */
 564               	.LM96:
 565 02d0 0895      		ret
 566               	.LFE20:
 568               	.global	Timebase_Timer_Get_SubSecondsShadow_Securely
 570               	Timebase_Timer_Get_SubSecondsShadow_Securely:
 571               	.LFB21:
 572               	.LM97:
 573               	/* prologue: function */
 574               	/* frame size = 0 */
 575               	.LM98:
 576 02d2 E091 0000 		lds r30,Timebase
 577 02d6 F091 0000 		lds r31,(Timebase)+1
 578               	.L41:
 579 02da 2685      		ldd r18,Z+14
 580 02dc 3785      		ldd r19,Z+15
 581               	.LVL28:
 582               	.LM99:
 583 02de 8685      		ldd r24,Z+14
 584 02e0 9785      		ldd r25,Z+15
 585               	.LVL29:
 586               	.LM100:
 587 02e2 2817      		cp r18,r24
 588 02e4 3907      		cpc r19,r25
 589 02e6 01F4      		brne .L41
 590               	.LM101:
 591 02e8 C901      		movw r24,r18
 592               	.LVL30:
 593               	/* epilogue start */
 594 02ea 0895      		ret
 595               	.LFE21:
 597               	.global	Timebase_Timer_Get_SubSecondsUpTime_Securely
 599               	Timebase_Timer_Get_SubSecondsUpTime_Securely:
 600               	.LFB22:
 601               	.LM102:
 602               	/* prologue: function */
 603               	/* frame size = 0 */
 604               	.LM103:
 605 02ec E091 0000 		lds r30,Timebase
 606 02f0 F091 0000 		lds r31,(Timebase)+1
 607               	.L45:
 608 02f4 2089      		ldd r18,Z+16
 609 02f6 3189      		ldd r19,Z+17
 610 02f8 4289      		ldd r20,Z+18
 611 02fa 5389      		ldd r21,Z+19
 612               	.LVL31:
 613               	.LM104:
 614 02fc 8089      		ldd r24,Z+16
 615 02fe 9189      		ldd r25,Z+17
 616 0300 A289      		ldd r26,Z+18
 617 0302 B389      		ldd r27,Z+19
 618               	.LVL32:
 619               	.LM105:
 620 0304 2817      		cp r18,r24
 621 0306 3907      		cpc r19,r25
 622 0308 4A07      		cpc r20,r26
 623 030a 5B07      		cpc r21,r27
 624 030c 01F4      		brne .L45
 625               	.LM106:
 626 030e B901      		movw r22,r18
 627               	.LVL33:
 628 0310 CA01      		movw r24,r20
 629               	.LVL34:
 630               	/* epilogue start */
 631 0312 0895      		ret
 632               	.LFE22:
 634               	.global	Timebase_Timer_Get_SecondsShadow_Securely
 636               	Timebase_Timer_Get_SecondsShadow_Securely:
 637               	.LFB23:
 638               	.LM107:
 639               	/* prologue: function */
 640               	/* frame size = 0 */
 641               	.LM108:
 642 0314 E091 0000 		lds r30,Timebase
 643 0318 F091 0000 		lds r31,(Timebase)+1
 644               	.L49:
 645 031c 2489      		ldd r18,Z+20
 646 031e 3589      		ldd r19,Z+21
 647 0320 4689      		ldd r20,Z+22
 648 0322 5789      		ldd r21,Z+23
 649               	.LVL35:
 650               	.LM109:
 651 0324 8489      		ldd r24,Z+20
 652 0326 9589      		ldd r25,Z+21
 653 0328 A689      		ldd r26,Z+22
 654 032a B789      		ldd r27,Z+23
 655               	.LVL36:
 656               	.LM110:
 657 032c 2817      		cp r18,r24
 658 032e 3907      		cpc r19,r25
 659 0330 4A07      		cpc r20,r26
 660 0332 5B07      		cpc r21,r27
 661 0334 01F4      		brne .L49
 662               	.LM111:
 663 0336 B901      		movw r22,r18
 664               	.LVL37:
 665 0338 CA01      		movw r24,r20
 666               	.LVL38:
 667               	/* epilogue start */
 668 033a 0895      		ret
 669               	.LFE23:
 671               	.global	Timebase_Timer_Sync_With_Shadow_Variables
 673               	Timebase_Timer_Sync_With_Shadow_Variables:
 674               	.LFB24:
 675               	.LM112:
 676               	/* prologue: function */
 677               	/* frame size = 0 */
 678               	.LM113:
 679 033c E091 0000 		lds r30,Timebase
 680 0340 F091 0000 		lds r31,(Timebase)+1
 681 0344 808D      		ldd r24,Z+24
 682 0346 8823      		tst r24
 683 0348 01F4      		brne .L56
 684               	.L57:
 685               	.LBB240:
 686               	.LBB241:
 687               	.LM114:
 688 034a 2685      		ldd r18,Z+14
 689 034c 3785      		ldd r19,Z+15
 690               	.LVL39:
 691               	.LM115:
 692 034e 8685      		ldd r24,Z+14
 693 0350 9785      		ldd r25,Z+15
 694               	.LVL40:
 695               	.LM116:
 696 0352 2817      		cp r18,r24
 697 0354 3907      		cpc r19,r25
 698 0356 01F4      		brne .L57
 699               	.LBE241:
 700               	.LBE240:
 701               	.LM117:
 702 0358 3187      		std Z+9,r19
 703 035a 2087      		std Z+8,r18
 704               	.L55:
 705               	.LBB242:
 706               	.LBB243:
 707               	.LM118:
 708 035c 2489      		ldd r18,Z+20
 709 035e 3589      		ldd r19,Z+21
 710 0360 4689      		ldd r20,Z+22
 711 0362 5789      		ldd r21,Z+23
 712               	.LVL41:
 713               	.LM119:
 714 0364 8489      		ldd r24,Z+20
 715 0366 9589      		ldd r25,Z+21
 716 0368 A689      		ldd r26,Z+22
 717 036a B789      		ldd r27,Z+23
 718               	.LVL42:
 719               	.LM120:
 720 036c 2817      		cp r18,r24
 721 036e 3907      		cpc r19,r25
 722 0370 4A07      		cpc r20,r26
 723 0372 5B07      		cpc r21,r27
 724 0374 01F4      		brne .L55
 725               	.LBE243:
 726               	.LBE242:
 727               	.LM121:
 728 0376 2287      		std Z+10,r18
 729 0378 3387      		std Z+11,r19
 730 037a 4487      		std Z+12,r20
 731 037c 5587      		std Z+13,r21
 732               	.LM122:
 733 037e 81E0      		ldi r24,lo8(1)
 734               	.LVL43:
 735 0380 808F      		std Z+24,r24
 736               	.L56:
 737 0382 0895      		ret
 738               	.LFE24:
 740               	.global	Timebase_Timer_Delay_SubSeconds
 742               	Timebase_Timer_Delay_SubSeconds:
 743               	.LFB25:
 744               	.LM123:
 745               	.LVL44:
 746 0384 8F92      		push r8
 747 0386 9F92      		push r9
 748 0388 AF92      		push r10
 749 038a BF92      		push r11
 750 038c CF92      		push r12
 751 038e DF92      		push r13
 752 0390 EF92      		push r14
 753 0392 FF92      		push r15
 754 0394 0F93      		push r16
 755 0396 1F93      		push r17
 756 0398 CF93      		push r28
 757 039a DF93      		push r29
 758               	/* prologue: function */
 759               	/* frame size = 0 */
 760 039c 5C01      		movw r10,r24
 761               	.LBB244:
 762               	.LBB245:
 763               	.LM124:
 764 039e C091 0000 		lds r28,Timebase
 765 03a2 D091 0000 		lds r29,(Timebase)+1
 766               	.LVL45:
 767               	.L61:
 768 03a6 CE84      		ldd r12,Y+14
 769 03a8 DF84      		ldd r13,Y+15
 770               	.LVL46:
 771               	.LM125:
 772 03aa 8E85      		ldd r24,Y+14
 773 03ac 9F85      		ldd r25,Y+15
 774               	.LVL47:
 775               	.LM126:
 776 03ae C816      		cp r12,r24
 777 03b0 D906      		cpc r13,r25
 778 03b2 01F4      		brne .L61
 779               	.L69:
 780               	.LBE245:
 781               	.LBE244:
 782               	.LBB246:
 783               	.LBB247:
 784               	.LM127:
 785 03b4 EC88      		ldd r14,Y+20
 786 03b6 FD88      		ldd r15,Y+21
 787 03b8 0E89      		ldd r16,Y+22
 788 03ba 1F89      		ldd r17,Y+23
 789               	.LVL48:
 790               	.LM128:
 791 03bc 8C89      		ldd r24,Y+20
 792 03be 9D89      		ldd r25,Y+21
 793 03c0 AE89      		ldd r26,Y+22
 794 03c2 BF89      		ldd r27,Y+23
 795               	.LVL49:
 796               	.LM129:
 797 03c4 E816      		cp r14,r24
 798 03c6 F906      		cpc r15,r25
 799 03c8 0A07      		cpc r16,r26
 800 03ca 1B07      		cpc r17,r27
 801 03cc 01F4      		brne .L69
 802               	.LBE247:
 803               	.LBE246:
 804               	.LM130:
 805 03ce 2881      		ld r18,Y
 806 03d0 3981      		ldd r19,Y+1
 807 03d2 40E0      		ldi r20,lo8(0)
 808 03d4 50E0      		ldi r21,hi8(0)
 809 03d6 C801      		movw r24,r16
 810 03d8 B701      		movw r22,r14
 811 03da 0E94 0000 		call __mulsi3
 812               	.LM131:
 813 03de 7601      		movw r14,r12
 814               	.LVL50:
 815 03e0 00E0      		ldi r16,lo8(0)
 816 03e2 10E0      		ldi r17,hi8(0)
 817               	.LVL51:
 818 03e4 9501      		movw r18,r10
 819 03e6 40E0      		ldi r20,lo8(0)
 820 03e8 50E0      		ldi r21,hi8(0)
 821               	.LVL52:
 822 03ea E20E      		add r14,r18
 823 03ec F31E      		adc r15,r19
 824 03ee 041F      		adc r16,r20
 825 03f0 151F      		adc r17,r21
 826               	.LVL53:
 827               	.LM132:
 828 03f2 E60E      		add r14,r22
 829 03f4 F71E      		adc r15,r23
 830 03f6 081F      		adc r16,r24
 831 03f8 191F      		adc r17,r25
 832 03fa 20E0      		ldi r18,lo8(0)
 833 03fc 30E0      		ldi r19,hi8(0)
 834 03fe 40E0      		ldi r20,hlo8(0)
 835 0400 50E0      		ldi r21,hhi8(0)
 836               	.LVL54:
 837 0402 00C0      		rjmp .L63
 838               	.LVL55:
 839               	.L68:
 840               	.LBB248:
 841               	.LBB249:
 842               	.LM133:
 843 0404 8E84      		ldd r8,Y+14
 844 0406 9F84      		ldd r9,Y+15
 845               	.LM134:
 846 0408 8E85      		ldd r24,Y+14
 847 040a 9F85      		ldd r25,Y+15
 848               	.LVL56:
 849               	.LM135:
 850 040c 8816      		cp r8,r24
 851 040e 9906      		cpc r9,r25
 852 0410 01F4      		brne .L68
 853               	.LVL57:
 854               	.L67:
 855               	.LBE249:
 856               	.LBE248:
 857               	.LBB250:
 858               	.LBB251:
 859               	.LM136:
 860 0412 AC88      		ldd r10,Y+20
 861 0414 BD88      		ldd r11,Y+21
 862 0416 CE88      		ldd r12,Y+22
 863 0418 DF88      		ldd r13,Y+23
 864               	.LVL58:
 865               	.LM137:
 866 041a 8C89      		ldd r24,Y+20
 867 041c 9D89      		ldd r25,Y+21
 868 041e AE89      		ldd r26,Y+22
 869 0420 BF89      		ldd r27,Y+23
 870               	.LVL59:
 871               	.LM138:
 872 0422 A816      		cp r10,r24
 873 0424 B906      		cpc r11,r25
 874 0426 CA06      		cpc r12,r26
 875 0428 DB06      		cpc r13,r27
 876 042a 01F4      		brne .L67
 877               	.LBE251:
 878               	.LBE250:
 879               	.LM139:
 880 042c 2881      		ld r18,Y
 881 042e 3981      		ldd r19,Y+1
 882               	.LVL60:
 883 0430 40E0      		ldi r20,lo8(0)
 884 0432 50E0      		ldi r21,hi8(0)
 885               	.LVL61:
 886 0434 C601      		movw r24,r12
 887 0436 B501      		movw r22,r10
 888 0438 0E94 0000 		call __mulsi3
 889               	.LVL62:
 890 043c 9B01      		movw r18,r22
 891 043e AC01      		movw r20,r24
 892               	.LVL63:
 893               	.LM140:
 894 0440 C401      		movw r24,r8
 895               	.LVL64:
 896 0442 A0E0      		ldi r26,lo8(0)
 897 0444 B0E0      		ldi r27,hi8(0)
 898               	.LVL65:
 899 0446 280F      		add r18,r24
 900 0448 391F      		adc r19,r25
 901 044a 4A1F      		adc r20,r26
 902 044c 5B1F      		adc r21,r27
 903               	.LVL66:
 904               	.L63:
 905               	.LM141:
 906 044e 2E15      		cp r18,r14
 907 0450 3F05      		cpc r19,r15
 908 0452 4007      		cpc r20,r16
 909 0454 5107      		cpc r21,r17
 910 0456 04F0      		brlt .L68
 911               	/* epilogue start */
 912               	.LM142:
 913 0458 DF91      		pop r29
 914 045a CF91      		pop r28
 915 045c 1F91      		pop r17
 916 045e 0F91      		pop r16
 917               	.LVL67:
 918 0460 FF90      		pop r15
 919 0462 EF90      		pop r14
 920               	.LVL68:
 921 0464 DF90      		pop r13
 922 0466 CF90      		pop r12
 923               	.LVL69:
 924 0468 BF90      		pop r11
 925 046a AF90      		pop r10
 926               	.LVL70:
 927 046c 9F90      		pop r9
 928 046e 8F90      		pop r8
 929 0470 0895      		ret
 930               	.LFE25:
 932               	.global	Timebase_Timer_Await_SubSeconds
 934               	Timebase_Timer_Await_SubSeconds:
 935               	.LFB26:
 936               	.LM143:
 937               	.LVL71:
 938 0472 CF93      		push r28
 939 0474 DF93      		push r29
 940               	/* prologue: function */
 941               	/* frame size = 0 */
 942 0476 EC01      		movw r28,r24
 943               	.LBB252:
 944               	.LBB253:
 945               	.LM144:
 946 0478 E091 0000 		lds r30,Timebase
 947 047c F091 0000 		lds r31,(Timebase)+1
 948               	.LVL72:
 949               	.L76:
 950 0480 6685      		ldd r22,Z+14
 951 0482 7785      		ldd r23,Z+15
 952               	.LVL73:
 953               	.LM145:
 954 0484 8685      		ldd r24,Z+14
 955 0486 9785      		ldd r25,Z+15
 956               	.LVL74:
 957               	.LM146:
 958 0488 6817      		cp r22,r24
 959 048a 7907      		cpc r23,r25
 960 048c 01F4      		brne .L76
 961 048e 00C0      		rjmp .L85
 962               	.LVL75:
 963               	.L82:
 964               	.LBE253:
 965               	.LBE252:
 966               	.LBB254:
 967               	.LBB255:
 968               	.LM147:
 969 0490 6685      		ldd r22,Z+14
 970 0492 7785      		ldd r23,Z+15
 971               	.LVL76:
 972               	.LM148:
 973 0494 8685      		ldd r24,Z+14
 974 0496 9785      		ldd r25,Z+15
 975               	.LVL77:
 976               	.LM149:
 977 0498 6817      		cp r22,r24
 978 049a 7907      		cpc r23,r25
 979 049c 01F4      		brne .L82
 980               	.LVL78:
 981               	.L85:
 982               	.LBE255:
 983               	.LBE254:
 984               	.LM150:
 985 049e 2481      		ldd r18,Z+4
 986 04a0 3581      		ldd r19,Z+5
 987 04a2 4681      		ldd r20,Z+6
 988 04a4 5781      		ldd r21,Z+7
 989 04a6 CB01      		movw r24,r22
 990               	.LVL79:
 991 04a8 A0E0      		ldi r26,lo8(0)
 992 04aa B0E0      		ldi r27,hi8(0)
 993 04ac 8217      		cp r24,r18
 994 04ae 9307      		cpc r25,r19
 995 04b0 A407      		cpc r26,r20
 996 04b2 B507      		cpc r27,r21
 997 04b4 01F4      		brne .L82
 998               	.LVL80:
 999               	.L81:
 1000               	.LBB256:
 1001               	.LBB257:
 1002               	.LM151:
 1003 04b6 2685      		ldd r18,Z+14
 1004 04b8 3785      		ldd r19,Z+15
 1005               	.LVL81:
 1006               	.LM152:
 1007 04ba 8685      		ldd r24,Z+14
 1008 04bc 9785      		ldd r25,Z+15
 1009               	.LVL82:
 1010               	.LM153:
 1011 04be 2817      		cp r18,r24
 1012 04c0 3907      		cpc r19,r25
 1013 04c2 01F4      		brne .L81
 1014               	.LBE257:
 1015               	.LBE256:
 1016               	.LM154:
 1017 04c4 C901      		movw r24,r18
 1018               	.LVL83:
 1019 04c6 A0E0      		ldi r26,lo8(0)
 1020 04c8 B0E0      		ldi r27,hi8(0)
 1021               	.LVL84:
 1022 04ca 8483      		std Z+4,r24
 1023 04cc 9583      		std Z+5,r25
 1024 04ce A683      		std Z+6,r26
 1025 04d0 B783      		std Z+7,r27
 1026               	.LM155:
 1027 04d2 2481      		ldd r18,Z+4
 1028 04d4 3581      		ldd r19,Z+5
 1029 04d6 4681      		ldd r20,Z+6
 1030 04d8 5781      		ldd r21,Z+7
 1031               	.LVL85:
 1032 04da CE01      		movw r24,r28
 1033 04dc A0E0      		ldi r26,lo8(0)
 1034 04de B0E0      		ldi r27,hi8(0)
 1035               	.LVL86:
 1036 04e0 820F      		add r24,r18
 1037 04e2 931F      		adc r25,r19
 1038 04e4 A41F      		adc r26,r20
 1039 04e6 B51F      		adc r27,r21
 1040               	.LVL87:
 1041 04e8 8483      		std Z+4,r24
 1042 04ea 9583      		std Z+5,r25
 1043 04ec A683      		std Z+6,r26
 1044 04ee B783      		std Z+7,r27
 1045               	.LM156:
 1046 04f0 2481      		ldd r18,Z+4
 1047 04f2 3581      		ldd r19,Z+5
 1048 04f4 4681      		ldd r20,Z+6
 1049 04f6 5781      		ldd r21,Z+7
 1050 04f8 8081      		ld r24,Z
 1051 04fa 9181      		ldd r25,Z+1
 1052               	.LVL88:
 1053 04fc A0E0      		ldi r26,lo8(0)
 1054 04fe B0E0      		ldi r27,hi8(0)
 1055               	.LVL89:
 1056 0500 2817      		cp r18,r24
 1057 0502 3907      		cpc r19,r25
 1058 0504 4A07      		cpc r20,r26
 1059 0506 5B07      		cpc r21,r27
 1060 0508 04F0      		brlt .L80
 1061               	.LM157:
 1062 050a 2481      		ldd r18,Z+4
 1063 050c 3581      		ldd r19,Z+5
 1064 050e 4681      		ldd r20,Z+6
 1065 0510 5781      		ldd r21,Z+7
 1066 0512 8081      		ld r24,Z
 1067 0514 9181      		ldd r25,Z+1
 1068 0516 A0E0      		ldi r26,lo8(0)
 1069 0518 B0E0      		ldi r27,hi8(0)
 1070 051a 281B      		sub r18,r24
 1071 051c 390B      		sbc r19,r25
 1072 051e 4A0B      		sbc r20,r26
 1073 0520 5B0B      		sbc r21,r27
 1074 0522 2483      		std Z+4,r18
 1075 0524 3583      		std Z+5,r19
 1076 0526 4683      		std Z+6,r20
 1077 0528 5783      		std Z+7,r21
 1078               	.L80:
 1079               	/* epilogue start */
 1080               	.LM158:
 1081 052a DF91      		pop r29
 1082 052c CF91      		pop r28
 1083 052e 0895      		ret
 1084               	.LFE26:
 1086               	.global	Timebase_Timer_Delay_Seconds
 1088               	Timebase_Timer_Delay_Seconds:
 1089               	.LFB27:
 1090               	.LM159:
 1091               	.LVL90:
 1092 0530 EF92      		push r14
 1093 0532 FF92      		push r15
 1094 0534 0F93      		push r16
 1095 0536 1F93      		push r17
 1096               	/* prologue: function */
 1097               	/* frame size = 0 */
 1098 0538 BC01      		movw r22,r24
 1099               	.LBB258:
 1100               	.LBB259:
 1101               	.LM160:
 1102 053a E091 0000 		lds r30,Timebase
 1103 053e F091 0000 		lds r31,(Timebase)+1
 1104               	.LVL91:
 1105               	.L87:
 1106 0542 2489      		ldd r18,Z+20
 1107 0544 3589      		ldd r19,Z+21
 1108 0546 4689      		ldd r20,Z+22
 1109 0548 5789      		ldd r21,Z+23
 1110               	.LVL92:
 1111               	.LM161:
 1112 054a 8489      		ldd r24,Z+20
 1113 054c 9589      		ldd r25,Z+21
 1114 054e A689      		ldd r26,Z+22
 1115 0550 B789      		ldd r27,Z+23
 1116               	.LVL93:
 1117               	.LM162:
 1118 0552 2817      		cp r18,r24
 1119 0554 3907      		cpc r19,r25
 1120 0556 4A07      		cpc r20,r26
 1121 0558 5B07      		cpc r21,r27
 1122 055a 01F4      		brne .L87
 1123               	.LBE259:
 1124               	.LBE258:
 1125               	.LM163:
 1126 055c 7B01      		movw r14,r22
 1127               	.LVL94:
 1128 055e 00E0      		ldi r16,lo8(0)
 1129 0560 10E0      		ldi r17,hi8(0)
 1130               	.LVL95:
 1131 0562 E20E      		add r14,r18
 1132 0564 F31E      		adc r15,r19
 1133 0566 041F      		adc r16,r20
 1134 0568 151F      		adc r17,r21
 1135               	.LVL96:
 1136 056a 20E0      		ldi r18,lo8(0)
 1137 056c 30E0      		ldi r19,hi8(0)
 1138 056e 40E0      		ldi r20,hlo8(0)
 1139 0570 50E0      		ldi r21,hhi8(0)
 1140               	.LVL97:
 1141 0572 00C0      		rjmp .L88
 1142               	.LVL98:
 1143               	.L91:
 1144               	.LBB260:
 1145               	.LBB261:
 1146               	.LM164:
 1147 0574 2489      		ldd r18,Z+20
 1148 0576 3589      		ldd r19,Z+21
 1149 0578 4689      		ldd r20,Z+22
 1150 057a 5789      		ldd r21,Z+23
 1151               	.LM165:
 1152 057c 8489      		ldd r24,Z+20
 1153 057e 9589      		ldd r25,Z+21
 1154 0580 A689      		ldd r26,Z+22
 1155 0582 B789      		ldd r27,Z+23
 1156               	.LVL99:
 1157               	.LM166:
 1158 0584 2817      		cp r18,r24
 1159 0586 3907      		cpc r19,r25
 1160 0588 4A07      		cpc r20,r26
 1161 058a 5B07      		cpc r21,r27
 1162 058c 01F4      		brne .L91
 1163               	.LVL100:
 1164               	.L88:
 1165               	.LBE261:
 1166               	.LBE260:
 1167               	.LM167:
 1168 058e 2E15      		cp r18,r14
 1169 0590 3F05      		cpc r19,r15
 1170 0592 4007      		cpc r20,r16
 1171 0594 5107      		cpc r21,r17
 1172 0596 04F0      		brlt .L91
 1173               	/* epilogue start */
 1174               	.LM168:
 1175 0598 1F91      		pop r17
 1176 059a 0F91      		pop r16
 1177               	.LVL101:
 1178 059c FF90      		pop r15
 1179 059e EF90      		pop r14
 1180               	.LVL102:
 1181 05a0 0895      		ret
 1182               	.LFE27:
 1184               	.global	Timebase_Window_Timer_Reset
 1186               	Timebase_Window_Timer_Reset:
 1187               	.LFB28:
 1188               	.LM169:
 1189               	/* prologue: function */
 1190               	/* frame size = 0 */
 1191               	.LM170:
 1192 05a2 E091 0000 		lds r30,Timebase
 1193 05a6 F091 0000 		lds r31,(Timebase)+1
 1194 05aa 118E      		std Z+25,__zero_reg__
 1195 05ac 128E      		std Z+26,__zero_reg__
 1196 05ae 138E      		std Z+27,__zero_reg__
 1197 05b0 148E      		std Z+28,__zero_reg__
 1198               	.LM171:
 1199 05b2 158E      		std Z+29,__zero_reg__
 1200 05b4 168E      		std Z+30,__zero_reg__
 1201 05b6 178E      		std Z+31,__zero_reg__
 1202 05b8 10A2      		std Z+32,__zero_reg__
 1203               	.LM172:
 1204 05ba 11A2      		std Z+33,__zero_reg__
 1205               	/* epilogue start */
 1206               	.LM173:
 1207 05bc 0895      		ret
 1208               	.LFE28:
 1210               	.global	Timebase_Window_Timer_Start
 1212               	Timebase_Window_Timer_Start:
 1213               	.LFB29:
 1214               	.LM174:
 1215               	/* prologue: function */
 1216               	/* frame size = 0 */
 1217               	.LM175:
 1218 05be E091 0000 		lds r30,Timebase
 1219 05c2 F091 0000 		lds r31,(Timebase)+1
 1220 05c6 81A1      		ldd r24,Z+33
 1221 05c8 8823      		tst r24
 1222 05ca 01F4      		brne .L98
 1223               	.LBB262:
 1224               	.LBB263:
 1225               	.LM176:
 1226               	/* #APP */
 1227               	 ;  433 "timebase.c" 1
 1228 05cc F894      		cli
 1229               	 ;  0 "" 2
 1230               	/* #NOAPP */
 1231               	.LBE263:
 1232               	.LBE262:
 1233               	.LBB264:
 1234               	.LBB265:
 1235               	.LM177:
 1236 05ce 8489      		ldd r24,Z+20
 1237 05d0 9589      		ldd r25,Z+21
 1238 05d2 A689      		ldd r26,Z+22
 1239 05d4 B789      		ldd r27,Z+23
 1240               	.LBE265:
 1241               	.LBE264:
 1242               	.LM178:
 1243 05d6 818F      		std Z+25,r24
 1244 05d8 928F      		std Z+26,r25
 1245 05da A38F      		std Z+27,r26
 1246 05dc B48F      		std Z+28,r27
 1247               	.LBB266:
 1248               	.LBB267:
 1249               	.LM179:
 1250 05de 8685      		ldd r24,Z+14
 1251 05e0 9785      		ldd r25,Z+15
 1252               	.LBE267:
 1253               	.LBE266:
 1254               	.LM180:
 1255 05e2 A0E0      		ldi r26,lo8(0)
 1256 05e4 B0E0      		ldi r27,hi8(0)
 1257 05e6 858F      		std Z+29,r24
 1258 05e8 968F      		std Z+30,r25
 1259 05ea A78F      		std Z+31,r26
 1260 05ec B0A3      		std Z+32,r27
 1261               	.LBB268:
 1262               	.LBB269:
 1263               	.LM181:
 1264               	/* #APP */
 1265               	 ;  438 "timebase.c" 1
 1266 05ee 7894      		sei
 1267               	 ;  0 "" 2
 1268               	/* #NOAPP */
 1269               	.LBE269:
 1270               	.LBE268:
 1271               	.LM182:
 1272 05f0 81E0      		ldi r24,lo8(1)
 1273 05f2 81A3      		std Z+33,r24
 1274               	.L98:
 1275 05f4 0895      		ret
 1276               	.LFE29:
 1278               	.global	Timebase_Window_Timer_Get_Interval
 1280               	Timebase_Window_Timer_Get_Interval:
 1281               	.LFB30:
 1282               	.LM183:
 1283 05f6 EF92      		push r14
 1284 05f8 FF92      		push r15
 1285 05fa 0F93      		push r16
 1286 05fc 1F93      		push r17
 1287 05fe CF93      		push r28
 1288 0600 DF93      		push r29
 1289               	/* prologue: function */
 1290               	/* frame size = 0 */
 1291               	.LM184:
 1292 0602 C091 0000 		lds r28,Timebase
 1293 0606 D091 0000 		lds r29,(Timebase)+1
 1294 060a 89A1      		ldd r24,Y+33
 1295 060c 8130      		cpi r24,lo8(1)
 1296 060e 01F0      		breq .L100
 1297 0610 EE24      		clr r14
 1298 0612 FF24      		clr r15
 1299 0614 8701      		movw r16,r14
 1300               	.LVL103:
 1301 0616 00C0      		rjmp .L101
 1302               	.LVL104:
 1303               	.L100:
 1304               	.LBB270:
 1305               	.LBB271:
 1306               	.LM185:
 1307               	/* #APP */
 1308               	 ;  433 "timebase.c" 1
 1309 0618 F894      		cli
 1310               	 ;  0 "" 2
 1311               	/* #NOAPP */
 1312               	.LBE271:
 1313               	.LBE270:
 1314               	.LBB272:
 1315               	.LBB273:
 1316               	.LM186:
 1317 061a 2C89      		ldd r18,Y+20
 1318 061c 3D89      		ldd r19,Y+21
 1319 061e 4E89      		ldd r20,Y+22
 1320 0620 5F89      		ldd r21,Y+23
 1321               	.LVL105:
 1322               	.LBE273:
 1323               	.LBE272:
 1324               	.LBB274:
 1325               	.LBB275:
 1326               	.LM187:
 1327 0622 8E85      		ldd r24,Y+14
 1328 0624 9F85      		ldd r25,Y+15
 1329               	.LBE275:
 1330               	.LBE274:
 1331               	.LM188:
 1332 0626 7C01      		movw r14,r24
 1333               	.LVL106:
 1334 0628 00E0      		ldi r16,lo8(0)
 1335 062a 10E0      		ldi r17,hi8(0)
 1336               	.LVL107:
 1337               	.LBB276:
 1338               	.LBB277:
 1339               	.LM189:
 1340               	/* #APP */
 1341               	 ;  438 "timebase.c" 1
 1342 062c 7894      		sei
 1343               	 ;  0 "" 2
 1344               	/* #NOAPP */
 1345               	.LBE277:
 1346               	.LBE276:
 1347               	.LM190:
 1348 062e 898D      		ldd r24,Y+25
 1349 0630 9A8D      		ldd r25,Y+26
 1350 0632 AB8D      		ldd r26,Y+27
 1351 0634 BC8D      		ldd r27,Y+28
 1352 0636 281B      		sub r18,r24
 1353 0638 390B      		sbc r19,r25
 1354 063a 4A0B      		sbc r20,r26
 1355 063c 5B0B      		sbc r21,r27
 1356               	.LVL108:
 1357               	.LM191:
 1358 063e 6881      		ld r22,Y
 1359 0640 7981      		ldd r23,Y+1
 1360 0642 80E0      		ldi r24,lo8(0)
 1361 0644 90E0      		ldi r25,hi8(0)
 1362 0646 0E94 0000 		call __mulsi3
 1363               	.LVL109:
 1364               	.LM192:
 1365 064a 2D8D      		ldd r18,Y+29
 1366 064c 3E8D      		ldd r19,Y+30
 1367 064e 4F8D      		ldd r20,Y+31
 1368 0650 58A1      		ldd r21,Y+32
 1369 0652 E21A      		sub r14,r18
 1370 0654 F30A      		sbc r15,r19
 1371 0656 040B      		sbc r16,r20
 1372 0658 150B      		sbc r17,r21
 1373               	.LVL110:
 1374 065a E60E      		add r14,r22
 1375 065c F71E      		adc r15,r23
 1376 065e 081F      		adc r16,r24
 1377 0660 191F      		adc r17,r25
 1378               	.L101:
 1379               	.LM193:
 1380 0662 B701      		movw r22,r14
 1381               	.LVL111:
 1382 0664 C801      		movw r24,r16
 1383               	.LVL112:
 1384               	/* epilogue start */
 1385 0666 DF91      		pop r29
 1386 0668 CF91      		pop r28
 1387 066a 1F91      		pop r17
 1388 066c 0F91      		pop r16
 1389 066e FF90      		pop r15
 1390 0670 EF90      		pop r14
 1391 0672 0895      		ret
 1392               	.LFE30:
 1394               	.global	Timebase_Window_Timer_Get_Interval_Reset
 1396               	Timebase_Window_Timer_Get_Interval_Reset:
 1397               	.LFB31:
 1398               	.LM194:
 1399               	/* prologue: function */
 1400               	/* frame size = 0 */
 1401               	.LM195:
 1402 0674 0E94 0000 		call Timebase_Window_Timer_Get_Interval
 1403 0678 282F      		mov r18,r24
 1404               	.LVL113:
 1405               	.LM196:
 1406 067a E091 0000 		lds r30,Timebase
 1407 067e F091 0000 		lds r31,(Timebase)+1
 1408 0682 81A1      		ldd r24,Z+33
 1409 0684 8130      		cpi r24,lo8(1)
 1410 0686 01F4      		brne .L104
 1411               	.LBB278:
 1412               	.LBB279:
 1413               	.LM197:
 1414 0688 118E      		std Z+25,__zero_reg__
 1415 068a 128E      		std Z+26,__zero_reg__
 1416 068c 138E      		std Z+27,__zero_reg__
 1417 068e 148E      		std Z+28,__zero_reg__
 1418               	.LM198:
 1419 0690 158E      		std Z+29,__zero_reg__
 1420 0692 168E      		std Z+30,__zero_reg__
 1421 0694 178E      		std Z+31,__zero_reg__
 1422 0696 10A2      		std Z+32,__zero_reg__
 1423               	.LM199:
 1424 0698 11A2      		std Z+33,__zero_reg__
 1425               	.L104:
 1426               	.LBE279:
 1427               	.LBE278:
 1428               	.LM200:
 1429 069a 822F      		mov r24,r18
 1430               	/* epilogue start */
 1431 069c 0895      		ret
 1432               	.LFE31:
 1434               	.global	Timebase_DownCounter_SS_Get_Status
 1436               	Timebase_DownCounter_SS_Get_Status:
 1437               	.LFB32:
 1438               	.LM201:
 1439               	.LVL114:
 1440               	/* prologue: function */
 1441               	/* frame size = 0 */
 1442               	.LM202:
 1443 069e E091 0000 		lds r30,Timebase
 1444 06a2 F091 0000 		lds r31,(Timebase)+1
 1445 06a6 90E0      		ldi r25,lo8(0)
 1446               	.LVL115:
 1447 06a8 25E1      		ldi r18,lo8(21)
 1448 06aa 30E0      		ldi r19,hi8(21)
 1449 06ac AC01      		movw r20,r24
 1450 06ae 429F      		mul r20,r18
 1451 06b0 C001      		movw r24,r0
 1452 06b2 439F      		mul r20,r19
 1453 06b4 900D      		add r25,r0
 1454 06b6 529F      		mul r21,r18
 1455 06b8 900D      		add r25,r0
 1456 06ba 1124      		clr r1
 1457               	.LVL116:
 1458 06bc E80F      		add r30,r24
 1459 06be F91F      		adc r31,r25
 1460 06c0 83A1      		ldd r24,Z+35
 1461 06c2 8695      		lsr r24
 1462               	.LM203:
 1463 06c4 8F70      		andi r24,lo8(15)
 1464               	/* epilogue start */
 1465 06c6 0895      		ret
 1466               	.LFE32:
 1468               	.global	Timebase_DownCounter_SS_Set_Status
 1470               	Timebase_DownCounter_SS_Set_Status:
 1471               	.LFB33:
 1472               	.LM204:
 1473               	.LVL117:
 1474               	/* prologue: function */
 1475               	/* frame size = 0 */
 1476               	.LM205:
 1477 06c8 E091 0000 		lds r30,Timebase
 1478 06cc F091 0000 		lds r31,(Timebase)+1
 1479 06d0 90E0      		ldi r25,lo8(0)
 1480               	.LVL118:
 1481 06d2 25E1      		ldi r18,lo8(21)
 1482 06d4 30E0      		ldi r19,hi8(21)
 1483 06d6 AC01      		movw r20,r24
 1484 06d8 429F      		mul r20,r18
 1485 06da C001      		movw r24,r0
 1486 06dc 439F      		mul r20,r19
 1487 06de 900D      		add r25,r0
 1488 06e0 529F      		mul r21,r18
 1489 06e2 900D      		add r25,r0
 1490 06e4 1124      		clr r1
 1491               	.LVL119:
 1492 06e6 E80F      		add r30,r24
 1493 06e8 F91F      		adc r31,r25
 1494 06ea 6F70      		andi r22,lo8(15)
 1495               	.LVL120:
 1496 06ec 660F      		lsl r22
 1497 06ee 83A1      		ldd r24,Z+35
 1498 06f0 817E      		andi r24,lo8(-31)
 1499 06f2 862B      		or r24,r22
 1500 06f4 83A3      		std Z+35,r24
 1501               	/* epilogue start */
 1502               	.LM206:
 1503 06f6 0895      		ret
 1504               	.LFE33:
 1506               	.global	Timebase_DownCounter_SS_Get_Value
 1508               	Timebase_DownCounter_SS_Get_Value:
 1509               	.LFB34:
 1510               	.LM207:
 1511               	.LVL121:
 1512               	/* prologue: function */
 1513               	/* frame size = 0 */
 1514               	.LM208:
 1515 06f8 E091 0000 		lds r30,Timebase
 1516 06fc F091 0000 		lds r31,(Timebase)+1
 1517 0700 90E0      		ldi r25,lo8(0)
 1518               	.LVL122:
 1519 0702 25E1      		ldi r18,lo8(21)
 1520 0704 30E0      		ldi r19,hi8(21)
 1521 0706 AC01      		movw r20,r24
 1522 0708 429F      		mul r20,r18
 1523 070a C001      		movw r24,r0
 1524 070c 439F      		mul r20,r19
 1525 070e 900D      		add r25,r0
 1526 0710 529F      		mul r21,r18
 1527 0712 900D      		add r25,r0
 1528 0714 1124      		clr r1
 1529               	.LVL123:
 1530 0716 E80F      		add r30,r24
 1531 0718 F91F      		adc r31,r25
 1532 071a DF01      		movw r26,r30
 1533 071c 9C96      		adiw r26,44
 1534 071e 64A5      		ldd r22,Z+44
 1535 0720 1196      		adiw r26,1
 1536 0722 7C91      		ld r23,X
 1537 0724 1197      		sbiw r26,1
 1538               	.LM209:
 1539 0726 1296      		adiw r26,2
 1540 0728 8C91      		ld r24,X
 1541 072a 1297      		sbiw r26,2
 1542 072c 1396      		adiw r26,3
 1543 072e 9C91      		ld r25,X
 1544               	.LVL124:
 1545               	/* epilogue start */
 1546 0730 0895      		ret
 1547               	.LFE34:
 1549               	.global	Timebase_DownCounter_SS_Set_Value
 1551               	Timebase_DownCounter_SS_Set_Value:
 1552               	.LFB35:
 1553               	.LM210:
 1554               	.LVL125:
 1555               	/* prologue: function */
 1556               	/* frame size = 0 */
 1557               	.LM211:
 1558 0732 E091 0000 		lds r30,Timebase
 1559 0736 F091 0000 		lds r31,(Timebase)+1
 1560 073a 90E0      		ldi r25,lo8(0)
 1561               	.LVL126:
 1562 073c 25E1      		ldi r18,lo8(21)
 1563 073e 30E0      		ldi r19,hi8(21)
 1564 0740 DC01      		movw r26,r24
 1565 0742 A29F      		mul r26,r18
 1566 0744 C001      		movw r24,r0
 1567 0746 A39F      		mul r26,r19
 1568 0748 900D      		add r25,r0
 1569 074a B29F      		mul r27,r18
 1570 074c 900D      		add r25,r0
 1571 074e 1124      		clr r1
 1572               	.LVL127:
 1573 0750 E80F      		add r30,r24
 1574 0752 F91F      		adc r31,r25
 1575 0754 44A7      		std Z+44,r20
 1576 0756 55A7      		std Z+45,r21
 1577 0758 66A7      		std Z+46,r22
 1578 075a 77A7      		std Z+47,r23
 1579               	/* epilogue start */
 1580               	.LM212:
 1581 075c 0895      		ret
 1582               	.LFE35:
 1584               	.global	Timebase_DownCounter_SS_Get_EndValueSec
 1586               	Timebase_DownCounter_SS_Get_EndValueSec:
 1587               	.LFB36:
 1588               	.LM213:
 1589               	.LVL128:
 1590               	/* prologue: function */
 1591               	/* frame size = 0 */
 1592               	.LM214:
 1593 075e E091 0000 		lds r30,Timebase
 1594 0762 F091 0000 		lds r31,(Timebase)+1
 1595 0766 90E0      		ldi r25,lo8(0)
 1596               	.LVL129:
 1597 0768 25E1      		ldi r18,lo8(21)
 1598 076a 30E0      		ldi r19,hi8(21)
 1599 076c AC01      		movw r20,r24
 1600 076e 429F      		mul r20,r18
 1601 0770 C001      		movw r24,r0
 1602 0772 439F      		mul r20,r19
 1603 0774 900D      		add r25,r0
 1604 0776 529F      		mul r21,r18
 1605 0778 900D      		add r25,r0
 1606 077a 1124      		clr r1
 1607               	.LVL130:
 1608 077c E80F      		add r30,r24
 1609 077e F91F      		adc r31,r25
 1610 0780 DF01      		movw r26,r30
 1611 0782 9496      		adiw r26,36
 1612 0784 64A1      		ldd r22,Z+36
 1613 0786 1196      		adiw r26,1
 1614 0788 7C91      		ld r23,X
 1615 078a 1197      		sbiw r26,1
 1616               	.LM215:
 1617 078c 1296      		adiw r26,2
 1618 078e 8C91      		ld r24,X
 1619 0790 1297      		sbiw r26,2
 1620 0792 1396      		adiw r26,3
 1621 0794 9C91      		ld r25,X
 1622               	.LVL131:
 1623               	/* epilogue start */
 1624 0796 0895      		ret
 1625               	.LFE36:
 1627               	.global	Timebase_DownCounter_SS_Get_EndValueSubSec
 1629               	Timebase_DownCounter_SS_Get_EndValueSubSec:
 1630               	.LFB37:
 1631               	.LM216:
 1632               	.LVL132:
 1633               	/* prologue: function */
 1634               	/* frame size = 0 */
 1635               	.LM217:
 1636 0798 E091 0000 		lds r30,Timebase
 1637 079c F091 0000 		lds r31,(Timebase)+1
 1638 07a0 90E0      		ldi r25,lo8(0)
 1639               	.LVL133:
 1640 07a2 25E1      		ldi r18,lo8(21)
 1641 07a4 30E0      		ldi r19,hi8(21)
 1642 07a6 AC01      		movw r20,r24
 1643 07a8 429F      		mul r20,r18
 1644 07aa C001      		movw r24,r0
 1645 07ac 439F      		mul r20,r19
 1646 07ae 900D      		add r25,r0
 1647 07b0 529F      		mul r21,r18
 1648 07b2 900D      		add r25,r0
 1649 07b4 1124      		clr r1
 1650               	.LVL134:
 1651 07b6 E80F      		add r30,r24
 1652 07b8 F91F      		adc r31,r25
 1653 07ba DF01      		movw r26,r30
 1654 07bc 9896      		adiw r26,40
 1655 07be 60A5      		ldd r22,Z+40
 1656 07c0 1196      		adiw r26,1
 1657 07c2 7C91      		ld r23,X
 1658 07c4 1197      		sbiw r26,1
 1659               	.LM218:
 1660 07c6 1296      		adiw r26,2
 1661 07c8 8C91      		ld r24,X
 1662 07ca 1297      		sbiw r26,2
 1663 07cc 1396      		adiw r26,3
 1664 07ce 9C91      		ld r25,X
 1665               	.LVL135:
 1666               	/* epilogue start */
 1667 07d0 0895      		ret
 1668               	.LFE37:
 1670               	.global	Timebase_DownCounter_SS_Set_EndValueSec
 1672               	Timebase_DownCounter_SS_Set_EndValueSec:
 1673               	.LFB38:
 1674               	.LM219:
 1675               	.LVL136:
 1676               	/* prologue: function */
 1677               	/* frame size = 0 */
 1678               	.LM220:
 1679 07d2 E091 0000 		lds r30,Timebase
 1680 07d6 F091 0000 		lds r31,(Timebase)+1
 1681 07da 90E0      		ldi r25,lo8(0)
 1682               	.LVL137:
 1683 07dc 25E1      		ldi r18,lo8(21)
 1684 07de 30E0      		ldi r19,hi8(21)
 1685 07e0 DC01      		movw r26,r24
 1686 07e2 A29F      		mul r26,r18
 1687 07e4 C001      		movw r24,r0
 1688 07e6 A39F      		mul r26,r19
 1689 07e8 900D      		add r25,r0
 1690 07ea B29F      		mul r27,r18
 1691 07ec 900D      		add r25,r0
 1692 07ee 1124      		clr r1
 1693               	.LVL138:
 1694 07f0 E80F      		add r30,r24
 1695 07f2 F91F      		adc r31,r25
 1696 07f4 44A3      		std Z+36,r20
 1697 07f6 55A3      		std Z+37,r21
 1698 07f8 66A3      		std Z+38,r22
 1699 07fa 77A3      		std Z+39,r23
 1700               	/* epilogue start */
 1701               	.LM221:
 1702 07fc 0895      		ret
 1703               	.LFE38:
 1705               	.global	Timebase_DownCounter_SS_Set_EndValueSubSec
 1707               	Timebase_DownCounter_SS_Set_EndValueSubSec:
 1708               	.LFB39:
 1709               	.LM222:
 1710               	.LVL139:
 1711               	/* prologue: function */
 1712               	/* frame size = 0 */
 1713               	.LM223:
 1714 07fe E091 0000 		lds r30,Timebase
 1715 0802 F091 0000 		lds r31,(Timebase)+1
 1716 0806 90E0      		ldi r25,lo8(0)
 1717               	.LVL140:
 1718 0808 25E1      		ldi r18,lo8(21)
 1719 080a 30E0      		ldi r19,hi8(21)
 1720 080c DC01      		movw r26,r24
 1721 080e A29F      		mul r26,r18
 1722 0810 C001      		movw r24,r0
 1723 0812 A39F      		mul r26,r19
 1724 0814 900D      		add r25,r0
 1725 0816 B29F      		mul r27,r18
 1726 0818 900D      		add r25,r0
 1727 081a 1124      		clr r1
 1728               	.LVL141:
 1729 081c E80F      		add r30,r24
 1730 081e F91F      		adc r31,r25
 1731 0820 40A7      		std Z+40,r20
 1732 0822 51A7      		std Z+41,r21
 1733 0824 62A7      		std Z+42,r22
 1734 0826 73A7      		std Z+43,r23
 1735               	/* epilogue start */
 1736               	.LM224:
 1737 0828 0895      		ret
 1738               	.LFE39:
 1740               	.global	Timebase_DownCounter_SS_Get_PeriodValue
 1742               	Timebase_DownCounter_SS_Get_PeriodValue:
 1743               	.LFB40:
 1744               	.LM225:
 1745               	.LVL142:
 1746               	/* prologue: function */
 1747               	/* frame size = 0 */
 1748               	.LM226:
 1749 082a E091 0000 		lds r30,Timebase
 1750 082e F091 0000 		lds r31,(Timebase)+1
 1751 0832 90E0      		ldi r25,lo8(0)
 1752               	.LVL143:
 1753 0834 25E1      		ldi r18,lo8(21)
 1754 0836 30E0      		ldi r19,hi8(21)
 1755 0838 AC01      		movw r20,r24
 1756 083a 429F      		mul r20,r18
 1757 083c C001      		movw r24,r0
 1758 083e 439F      		mul r20,r19
 1759 0840 900D      		add r25,r0
 1760 0842 529F      		mul r21,r18
 1761 0844 900D      		add r25,r0
 1762 0846 1124      		clr r1
 1763               	.LVL144:
 1764 0848 E80F      		add r30,r24
 1765 084a F91F      		adc r31,r25
 1766 084c DF01      		movw r26,r30
 1767 084e D096      		adiw r26,48
 1768 0850 60A9      		ldd r22,Z+48
 1769 0852 1196      		adiw r26,1
 1770 0854 7C91      		ld r23,X
 1771 0856 1197      		sbiw r26,1
 1772               	.LM227:
 1773 0858 1296      		adiw r26,2
 1774 085a 8C91      		ld r24,X
 1775 085c 1297      		sbiw r26,2
 1776 085e 1396      		adiw r26,3
 1777 0860 9C91      		ld r25,X
 1778               	.LVL145:
 1779               	/* epilogue start */
 1780 0862 0895      		ret
 1781               	.LFE40:
 1783               	.global	Timebase_DownCounter_SS_Set_PeriodValue
 1785               	Timebase_DownCounter_SS_Set_PeriodValue:
 1786               	.LFB41:
 1787               	.LM228:
 1788               	.LVL146:
 1789               	/* prologue: function */
 1790               	/* frame size = 0 */
 1791 0864 E091 0000 		lds r30,Timebase
 1792 0868 F091 0000 		lds r31,(Timebase)+1
 1793 086c 282F      		mov r18,r24
 1794 086e 30E0      		ldi r19,lo8(0)
 1795               	.LVL147:
 1796               	.LM229:
 1797 0870 77FF      		sbrs r23,7
 1798 0872 00C0      		rjmp .L125
 1799               	.LVL148:
 1800               	.LM230:
 1801 0874 85E1      		ldi r24,lo8(21)
 1802 0876 90E0      		ldi r25,hi8(21)
 1803 0878 AC01      		movw r20,r24
 1804               	.LVL149:
 1805 087a 249F      		mul r18,r20
 1806 087c C001      		movw r24,r0
 1807 087e 259F      		mul r18,r21
 1808 0880 900D      		add r25,r0
 1809 0882 349F      		mul r19,r20
 1810 0884 900D      		add r25,r0
 1811 0886 1124      		clr r1
 1812 0888 E80F      		add r30,r24
 1813 088a F91F      		adc r31,r25
 1814 088c 10AA      		std Z+48,__zero_reg__
 1815 088e 11AA      		std Z+49,__zero_reg__
 1816 0890 12AA      		std Z+50,__zero_reg__
 1817 0892 13AA      		std Z+51,__zero_reg__
 1818 0894 0895      		ret
 1819               	.LVL150:
 1820               	.L125:
 1821               	.LM231:
 1822 0896 85E1      		ldi r24,lo8(21)
 1823 0898 90E0      		ldi r25,hi8(21)
 1824 089a DC01      		movw r26,r24
 1825 089c 2A9F      		mul r18,r26
 1826 089e C001      		movw r24,r0
 1827 08a0 2B9F      		mul r18,r27
 1828 08a2 900D      		add r25,r0
 1829 08a4 3A9F      		mul r19,r26
 1830 08a6 900D      		add r25,r0
 1831 08a8 1124      		clr r1
 1832 08aa E80F      		add r30,r24
 1833 08ac F91F      		adc r31,r25
 1834 08ae 40AB      		std Z+48,r20
 1835 08b0 51AB      		std Z+49,r21
 1836 08b2 62AB      		std Z+50,r22
 1837 08b4 73AB      		std Z+51,r23
 1838 08b6 0895      		ret
 1839               	.LFE41:
 1841               	.global	Timebase_DownCounter_SS_Get_Period_Flag
 1843               	Timebase_DownCounter_SS_Get_Period_Flag:
 1844               	.LFB42:
 1845               	.LM232:
 1846               	.LVL151:
 1847               	/* prologue: function */
 1848               	/* frame size = 0 */
 1849               	.LM233:
 1850 08b8 E091 0000 		lds r30,Timebase
 1851 08bc F091 0000 		lds r31,(Timebase)+1
 1852 08c0 90E0      		ldi r25,lo8(0)
 1853               	.LVL152:
 1854 08c2 25E1      		ldi r18,lo8(21)
 1855 08c4 30E0      		ldi r19,hi8(21)
 1856 08c6 AC01      		movw r20,r24
 1857 08c8 429F      		mul r20,r18
 1858 08ca C001      		movw r24,r0
 1859 08cc 439F      		mul r20,r19
 1860 08ce 900D      		add r25,r0
 1861 08d0 529F      		mul r21,r18
 1862 08d2 900D      		add r25,r0
 1863 08d4 1124      		clr r1
 1864               	.LVL153:
 1865 08d6 E80F      		add r30,r24
 1866 08d8 F91F      		adc r31,r25
 1867 08da 83A1      		ldd r24,Z+35
 1868               	.LM234:
 1869 08dc 8170      		andi r24,lo8(1)
 1870               	/* epilogue start */
 1871 08de 0895      		ret
 1872               	.LFE42:
 1874               	.global	Timebase_DownCounter_SS_Set_Period_Flag
 1876               	Timebase_DownCounter_SS_Set_Period_Flag:
 1877               	.LFB43:
 1878               	.LM235:
 1879               	.LVL154:
 1880               	/* prologue: function */
 1881               	/* frame size = 0 */
 1882               	.LM236:
 1883 08e0 E091 0000 		lds r30,Timebase
 1884 08e4 F091 0000 		lds r31,(Timebase)+1
 1885 08e8 90E0      		ldi r25,lo8(0)
 1886               	.LVL155:
 1887 08ea 25E1      		ldi r18,lo8(21)
 1888 08ec 30E0      		ldi r19,hi8(21)
 1889 08ee AC01      		movw r20,r24
 1890 08f0 429F      		mul r20,r18
 1891 08f2 C001      		movw r24,r0
 1892 08f4 439F      		mul r20,r19
 1893 08f6 900D      		add r25,r0
 1894 08f8 529F      		mul r21,r18
 1895 08fa 900D      		add r25,r0
 1896 08fc 1124      		clr r1
 1897               	.LVL156:
 1898 08fe E80F      		add r30,r24
 1899 0900 F91F      		adc r31,r25
 1900 0902 83A1      		ldd r24,Z+35
 1901 0904 8160      		ori r24,lo8(1)
 1902 0906 83A3      		std Z+35,r24
 1903               	/* epilogue start */
 1904               	.LM237:
 1905 0908 0895      		ret
 1906               	.LFE43:
 1908               	.global	Timebase_DownCounter_SS_Clear_Period_Flag
 1910               	Timebase_DownCounter_SS_Clear_Period_Flag:
 1911               	.LFB44:
 1912               	.LM238:
 1913               	.LVL157:
 1914               	/* prologue: function */
 1915               	/* frame size = 0 */
 1916               	.LM239:
 1917 090a E091 0000 		lds r30,Timebase
 1918 090e F091 0000 		lds r31,(Timebase)+1
 1919 0912 90E0      		ldi r25,lo8(0)
 1920               	.LVL158:
 1921 0914 25E1      		ldi r18,lo8(21)
 1922 0916 30E0      		ldi r19,hi8(21)
 1923 0918 AC01      		movw r20,r24
 1924 091a 429F      		mul r20,r18
 1925 091c C001      		movw r24,r0
 1926 091e 439F      		mul r20,r19
 1927 0920 900D      		add r25,r0
 1928 0922 529F      		mul r21,r18
 1929 0924 900D      		add r25,r0
 1930 0926 1124      		clr r1
 1931               	.LVL159:
 1932 0928 E80F      		add r30,r24
 1933 092a F91F      		adc r31,r25
 1934 092c 83A1      		ldd r24,Z+35
 1935 092e 8E7F      		andi r24,lo8(-2)
 1936 0930 83A3      		std Z+35,r24
 1937               	/* epilogue start */
 1938               	.LM240:
 1939 0932 0895      		ret
 1940               	.LFE44:
 1942               	.global	Timebase_DownCounter_SS_Get_ReloadValue
 1944               	Timebase_DownCounter_SS_Get_ReloadValue:
 1945               	.LFB45:
 1946               	.LM241:
 1947               	.LVL160:
 1948               	/* prologue: function */
 1949               	/* frame size = 0 */
 1950               	.LM242:
 1951 0934 E091 0000 		lds r30,Timebase
 1952 0938 F091 0000 		lds r31,(Timebase)+1
 1953 093c 90E0      		ldi r25,lo8(0)
 1954               	.LVL161:
 1955 093e 25E1      		ldi r18,lo8(21)
 1956 0940 30E0      		ldi r19,hi8(21)
 1957 0942 AC01      		movw r20,r24
 1958 0944 429F      		mul r20,r18
 1959 0946 C001      		movw r24,r0
 1960 0948 439F      		mul r20,r19
 1961 094a 900D      		add r25,r0
 1962 094c 529F      		mul r21,r18
 1963 094e 900D      		add r25,r0
 1964 0950 1124      		clr r1
 1965               	.LVL162:
 1966 0952 E80F      		add r30,r24
 1967 0954 F91F      		adc r31,r25
 1968 0956 DF01      		movw r26,r30
 1969 0958 D496      		adiw r26,52
 1970 095a 64A9      		ldd r22,Z+52
 1971 095c 1196      		adiw r26,1
 1972 095e 7C91      		ld r23,X
 1973 0960 1197      		sbiw r26,1
 1974               	.LM243:
 1975 0962 1296      		adiw r26,2
 1976 0964 8C91      		ld r24,X
 1977 0966 1297      		sbiw r26,2
 1978 0968 1396      		adiw r26,3
 1979 096a 9C91      		ld r25,X
 1980               	.LVL163:
 1981               	/* epilogue start */
 1982 096c 0895      		ret
 1983               	.LFE45:
 1985               	.global	Timebase_DownCounter_SS_Set_ReloadValue
 1987               	Timebase_DownCounter_SS_Set_ReloadValue:
 1988               	.LFB46:
 1989               	.LM244:
 1990               	.LVL164:
 1991               	/* prologue: function */
 1992               	/* frame size = 0 */
 1993               	.LM245:
 1994 096e E091 0000 		lds r30,Timebase
 1995 0972 F091 0000 		lds r31,(Timebase)+1
 1996 0976 90E0      		ldi r25,lo8(0)
 1997               	.LVL165:
 1998 0978 25E1      		ldi r18,lo8(21)
 1999 097a 30E0      		ldi r19,hi8(21)
 2000 097c DC01      		movw r26,r24
 2001 097e A29F      		mul r26,r18
 2002 0980 C001      		movw r24,r0
 2003 0982 A39F      		mul r26,r19
 2004 0984 900D      		add r25,r0
 2005 0986 B29F      		mul r27,r18
 2006 0988 900D      		add r25,r0
 2007 098a 1124      		clr r1
 2008               	.LVL166:
 2009 098c E80F      		add r30,r24
 2010 098e F91F      		adc r31,r25
 2011 0990 44AB      		std Z+52,r20
 2012 0992 55AB      		std Z+53,r21
 2013 0994 66AB      		std Z+54,r22
 2014 0996 77AB      		std Z+55,r23
 2015               	/* epilogue start */
 2016               	.LM246:
 2017 0998 0895      		ret
 2018               	.LFE46:
 2020               	.global	Timebase_DownCounter_SS_Reset
 2022               	Timebase_DownCounter_SS_Reset:
 2023               	.LFB47:
 2024               	.LM247:
 2025               	.LVL167:
 2026               	/* prologue: function */
 2027               	/* frame size = 0 */
 2028               	.LBB280:
 2029               	.LBB281:
 2030               	.LM248:
 2031 099a E091 0000 		lds r30,Timebase
 2032 099e F091 0000 		lds r31,(Timebase)+1
 2033 09a2 90E0      		ldi r25,lo8(0)
 2034 09a4 25E1      		ldi r18,lo8(21)
 2035 09a6 30E0      		ldi r19,hi8(21)
 2036 09a8 AC01      		movw r20,r24
 2037               	.LVL168:
 2038 09aa 429F      		mul r20,r18
 2039 09ac C001      		movw r24,r0
 2040 09ae 439F      		mul r20,r19
 2041 09b0 900D      		add r25,r0
 2042 09b2 529F      		mul r21,r18
 2043 09b4 900D      		add r25,r0
 2044 09b6 1124      		clr r1
 2045 09b8 E80F      		add r30,r24
 2046 09ba F91F      		adc r31,r25
 2047 09bc 10A6      		std Z+40,__zero_reg__
 2048 09be 11A6      		std Z+41,__zero_reg__
 2049 09c0 12A6      		std Z+42,__zero_reg__
 2050 09c2 13A6      		std Z+43,__zero_reg__
 2051               	.LBE281:
 2052               	.LBE280:
 2053               	.LBB282:
 2054               	.LBB283:
 2055               	.LM249:
 2056 09c4 14A2      		std Z+36,__zero_reg__
 2057 09c6 15A2      		std Z+37,__zero_reg__
 2058 09c8 16A2      		std Z+38,__zero_reg__
 2059 09ca 17A2      		std Z+39,__zero_reg__
 2060               	.LBE283:
 2061               	.LBE282:
 2062               	.LBB284:
 2063               	.LBB285:
 2064               	.LM250:
 2065 09cc 14A6      		std Z+44,__zero_reg__
 2066 09ce 15A6      		std Z+45,__zero_reg__
 2067 09d0 16A6      		std Z+46,__zero_reg__
 2068 09d2 17A6      		std Z+47,__zero_reg__
 2069               	.LBE285:
 2070               	.LBE284:
 2071               	.LBB286:
 2072               	.LBB287:
 2073               	.LM251:
 2074 09d4 83A1      		ldd r24,Z+35
 2075               	.LBE287:
 2076               	.LBE286:
 2077               	.LBB288:
 2078               	.LBB289:
 2079               	.LM252:
 2080 09d6 807E      		andi r24,lo8(-32)
 2081 09d8 83A3      		std Z+35,r24
 2082               	.LBE289:
 2083               	.LBE288:
 2084               	.LBB290:
 2085               	.LBB291:
 2086               	.LM253:
 2087 09da 14AA      		std Z+52,__zero_reg__
 2088 09dc 15AA      		std Z+53,__zero_reg__
 2089 09de 16AA      		std Z+54,__zero_reg__
 2090 09e0 17AA      		std Z+55,__zero_reg__
 2091               	/* epilogue start */
 2092               	.LBE291:
 2093               	.LBE290:
 2094               	.LM254:
 2095 09e2 0895      		ret
 2096               	.LFE47:
 2098               	.global	Timebase_DownCounter_SS_Clear_All_Flags
 2100               	Timebase_DownCounter_SS_Clear_All_Flags:
 2101               	.LFB48:
 2102               	.LM255:
 2103               	.LVL169:
 2104               	/* prologue: function */
 2105               	/* frame size = 0 */
 2106               	.LBB292:
 2107               	.LBB293:
 2108               	.LBB294:
 2109               	.LBB295:
 2110               	.LM256:
 2111 09e4 E091 0000 		lds r30,Timebase
 2112 09e8 F091 0000 		lds r31,(Timebase)+1
 2113 09ec 90E0      		ldi r25,lo8(0)
 2114 09ee 25E1      		ldi r18,lo8(21)
 2115 09f0 30E0      		ldi r19,hi8(21)
 2116 09f2 AC01      		movw r20,r24
 2117               	.LVL170:
 2118 09f4 429F      		mul r20,r18
 2119 09f6 C001      		movw r24,r0
 2120 09f8 439F      		mul r20,r19
 2121 09fa 900D      		add r25,r0
 2122 09fc 529F      		mul r21,r18
 2123 09fe 900D      		add r25,r0
 2124 0a00 1124      		clr r1
 2125 0a02 E80F      		add r30,r24
 2126 0a04 F91F      		adc r31,r25
 2127 0a06 10A6      		std Z+40,__zero_reg__
 2128 0a08 11A6      		std Z+41,__zero_reg__
 2129 0a0a 12A6      		std Z+42,__zero_reg__
 2130 0a0c 13A6      		std Z+43,__zero_reg__
 2131               	.LBE295:
 2132               	.LBE294:
 2133               	.LBB296:
 2134               	.LBB297:
 2135               	.LM257:
 2136 0a0e 14A2      		std Z+36,__zero_reg__
 2137 0a10 15A2      		std Z+37,__zero_reg__
 2138 0a12 16A2      		std Z+38,__zero_reg__
 2139 0a14 17A2      		std Z+39,__zero_reg__
 2140               	.LBE297:
 2141               	.LBE296:
 2142               	.LBB298:
 2143               	.LBB299:
 2144               	.LM258:
 2145 0a16 14A6      		std Z+44,__zero_reg__
 2146 0a18 15A6      		std Z+45,__zero_reg__
 2147 0a1a 16A6      		std Z+46,__zero_reg__
 2148 0a1c 17A6      		std Z+47,__zero_reg__
 2149               	.LBE299:
 2150               	.LBE298:
 2151               	.LBB300:
 2152               	.LBB301:
 2153               	.LM259:
 2154 0a1e 83A1      		ldd r24,Z+35
 2155               	.LBE301:
 2156               	.LBE300:
 2157               	.LBB302:
 2158               	.LBB303:
 2159               	.LM260:
 2160 0a20 807E      		andi r24,lo8(-32)
 2161 0a22 83A3      		std Z+35,r24
 2162               	.LBE303:
 2163               	.LBE302:
 2164               	.LBB304:
 2165               	.LBB305:
 2166               	.LM261:
 2167 0a24 14AA      		std Z+52,__zero_reg__
 2168 0a26 15AA      		std Z+53,__zero_reg__
 2169 0a28 16AA      		std Z+54,__zero_reg__
 2170 0a2a 17AA      		std Z+55,__zero_reg__
 2171               	/* epilogue start */
 2172               	.LBE305:
 2173               	.LBE304:
 2174               	.LBE293:
 2175               	.LBE292:
 2176               	.LM262:
 2177 0a2c 0895      		ret
 2178               	.LFE48:
 2180               	.global	Timebase_DownCounter_SS_Start
 2182               	Timebase_DownCounter_SS_Start:
 2183               	.LFB49:
 2184               	.LM263:
 2185               	.LVL171:
 2186               	/* prologue: function */
 2187               	/* frame size = 0 */
 2188               	.LBB306:
 2189               	.LBB307:
 2190               	.LM264:
 2191 0a2e E091 0000 		lds r30,Timebase
 2192 0a32 F091 0000 		lds r31,(Timebase)+1
 2193 0a36 90E0      		ldi r25,lo8(0)
 2194               	.LBE307:
 2195               	.LBE306:
 2196               	.LM265:
 2197 0a38 25E1      		ldi r18,lo8(21)
 2198 0a3a 30E0      		ldi r19,hi8(21)
 2199 0a3c AC01      		movw r20,r24
 2200               	.LVL172:
 2201 0a3e 429F      		mul r20,r18
 2202 0a40 C001      		movw r24,r0
 2203 0a42 439F      		mul r20,r19
 2204 0a44 900D      		add r25,r0
 2205 0a46 529F      		mul r21,r18
 2206 0a48 900D      		add r25,r0
 2207 0a4a 1124      		clr r1
 2208 0a4c E80F      		add r30,r24
 2209 0a4e F91F      		adc r31,r25
 2210 0a50 93A1      		ldd r25,Z+35
 2211 0a52 892F      		mov r24,r25
 2212 0a54 8695      		lsr r24
 2213 0a56 8F70      		andi r24,lo8(15)
 2214 0a58 8130      		cpi r24,lo8(1)
 2215 0a5a 01F0      		breq .L144
 2216               	.LBB308:
 2217               	.LBB309:
 2218               	.LM266:
 2219 0a5c 917E      		andi r25,lo8(-31)
 2220 0a5e 9260      		ori r25,lo8(2)
 2221 0a60 93A3      		std Z+35,r25
 2222               	.L144:
 2223 0a62 0895      		ret
 2224               	.LBE309:
 2225               	.LBE308:
 2226               	.LFE49:
 2228               	.global	Timebase_DownCounter_SS_Stop
 2230               	Timebase_DownCounter_SS_Stop:
 2231               	.LFB50:
 2232               	.LM267:
 2233               	.LVL173:
 2234               	/* prologue: function */
 2235               	/* frame size = 0 */
 2236               	.LBB310:
 2237               	.LBB311:
 2238               	.LM268:
 2239 0a64 E091 0000 		lds r30,Timebase
 2240 0a68 F091 0000 		lds r31,(Timebase)+1
 2241 0a6c 90E0      		ldi r25,lo8(0)
 2242               	.LBE311:
 2243               	.LBE310:
 2244               	.LM269:
 2245 0a6e 25E1      		ldi r18,lo8(21)
 2246 0a70 30E0      		ldi r19,hi8(21)
 2247 0a72 AC01      		movw r20,r24
 2248               	.LVL174:
 2249 0a74 429F      		mul r20,r18
 2250 0a76 C001      		movw r24,r0
 2251 0a78 439F      		mul r20,r19
 2252 0a7a 900D      		add r25,r0
 2253 0a7c 529F      		mul r21,r18
 2254 0a7e 900D      		add r25,r0
 2255 0a80 1124      		clr r1
 2256 0a82 E80F      		add r30,r24
 2257 0a84 F91F      		adc r31,r25
 2258 0a86 93A1      		ldd r25,Z+35
 2259 0a88 892F      		mov r24,r25
 2260 0a8a 8695      		lsr r24
 2261 0a8c 8F70      		andi r24,lo8(15)
 2262 0a8e 8230      		cpi r24,lo8(2)
 2263 0a90 01F0      		breq .L147
 2264               	.LBB312:
 2265               	.LBB313:
 2266               	.LM270:
 2267 0a92 917E      		andi r25,lo8(-31)
 2268 0a94 9460      		ori r25,lo8(4)
 2269 0a96 93A3      		std Z+35,r25
 2270               	.L147:
 2271 0a98 0895      		ret
 2272               	.LBE313:
 2273               	.LBE312:
 2274               	.LFE50:
 2276               	.global	Timebase_DownCounter_SS_Set_Securely
 2278               	Timebase_DownCounter_SS_Set_Securely:
 2279               	.LFB51:
 2280               	.LM271:
 2281               	.LVL175:
 2282 0a9a 2F92      		push r2
 2283 0a9c 3F92      		push r3
 2284 0a9e 4F92      		push r4
 2285 0aa0 5F92      		push r5
 2286 0aa2 6F92      		push r6
 2287 0aa4 7F92      		push r7
 2288 0aa6 8F92      		push r8
 2289 0aa8 9F92      		push r9
 2290 0aaa AF92      		push r10
 2291 0aac BF92      		push r11
 2292 0aae CF92      		push r12
 2293 0ab0 DF92      		push r13
 2294 0ab2 EF92      		push r14
 2295 0ab4 FF92      		push r15
 2296 0ab6 0F93      		push r16
 2297 0ab8 1F93      		push r17
 2298 0aba DF93      		push r29
 2299 0abc CF93      		push r28
 2300 0abe CDB7      		in r28,__SP_L__
 2301 0ac0 DEB7      		in r29,__SP_H__
 2302 0ac2 2897      		sbiw r28,8
 2303 0ac4 0FB6      		in __tmp_reg__,__SREG__
 2304 0ac6 F894      		cli
 2305 0ac8 DEBF      		out __SP_H__,r29
 2306 0aca 0FBE      		out __SREG__,__tmp_reg__
 2307 0acc CDBF      		out __SP_L__,r28
 2308               	/* prologue: function */
 2309               	/* frame size = 8 */
 2310 0ace 1A01      		movw r2,r20
 2311 0ad0 2B01      		movw r4,r22
 2312               	.LBB314:
 2313               	.LBB315:
 2314               	.LM272:
 2315 0ad2 2091 0000 		lds r18,Timebase
 2316 0ad6 3091 0000 		lds r19,(Timebase)+1
 2317 0ada 3887      		std Y+8,r19
 2318 0adc 2F83      		std Y+7,r18
 2319 0ade A82F      		mov r26,r24
 2320 0ae0 B0E0      		ldi r27,lo8(0)
 2321 0ae2 BA83      		std Y+2,r27
 2322 0ae4 A983      		std Y+1,r26
 2323               	.LBE315:
 2324               	.LBE314:
 2325               	.LM273:
 2326 0ae6 85E1      		ldi r24,lo8(21)
 2327 0ae8 90E0      		ldi r25,hi8(21)
 2328               	.LVL176:
 2329 0aea A89F      		mul r26,r24
 2330 0aec F001      		movw r30,r0
 2331 0aee A99F      		mul r26,r25
 2332 0af0 F00D      		add r31,r0
 2333 0af2 B89F      		mul r27,r24
 2334 0af4 F00D      		add r31,r0
 2335 0af6 1124      		clr r1
 2336 0af8 E20F      		add r30,r18
 2337 0afa F31F      		adc r31,r19
 2338 0afc 83A1      		ldd r24,Z+35
 2339 0afe 8695      		lsr r24
 2340 0b00 8F70      		andi r24,lo8(15)
 2341 0b02 01F0      		breq .+2
 2342 0b04 00C0      		rjmp .L151
 2343               	.LVL177:
 2344               	.LBB316:
 2345               	.LBB317:
 2346               	.LM274:
 2347 0b06 44A7      		std Z+44,r20
 2348 0b08 55A7      		std Z+45,r21
 2349 0b0a 66A7      		std Z+46,r22
 2350 0b0c 77A7      		std Z+47,r23
 2351               	.LBE317:
 2352               	.LBE316:
 2353               	.LBB318:
 2354               	.LBB319:
 2355               	.LM275:
 2356 0b0e F901      		movw r30,r18
 2357 0b10 C084      		ldd r12,Z+8
 2358 0b12 D184      		ldd r13,Z+9
 2359               	.LBE319:
 2360               	.LBE318:
 2361               	.LBB320:
 2362               	.LBB321:
 2363               	.LM276:
 2364 0b14 D901      		movw r26,r18
 2365 0b16 1A96      		adiw r26,10
 2366 0b18 8D91      		ld r24,X+
 2367 0b1a 9D91      		ld r25,X+
 2368 0b1c 0D90      		ld __tmp_reg__,X+
 2369 0b1e BC91      		ld r27,X
 2370 0b20 A02D      		mov r26,__tmp_reg__
 2371 0b22 8B83      		std Y+3,r24
 2372 0b24 9C83      		std Y+4,r25
 2373 0b26 AD83      		std Y+5,r26
 2374 0b28 BE83      		std Y+6,r27
 2375               	.LVL178:
 2376               	.LBE321:
 2377               	.LBE320:
 2378               	.LM277:
 2379 0b2a 2081      		ld r18,Z
 2380 0b2c 3181      		ldd r19,Z+1
 2381 0b2e 40E0      		ldi r20,lo8(0)
 2382 0b30 50E0      		ldi r21,hi8(0)
 2383 0b32 C201      		movw r24,r4
 2384 0b34 B101      		movw r22,r2
 2385 0b36 0E94 0000 		call __divmodsi4
 2386 0b3a 7B01      		movw r14,r22
 2387 0b3c 8C01      		movw r16,r24
 2388               	.LM278:
 2389 0b3e EF81      		ldd r30,Y+7
 2390 0b40 F885      		ldd r31,Y+8
 2391 0b42 2081      		ld r18,Z
 2392 0b44 3181      		ldd r19,Z+1
 2393 0b46 40E0      		ldi r20,lo8(0)
 2394 0b48 50E0      		ldi r21,hi8(0)
 2395 0b4a C201      		movw r24,r4
 2396 0b4c B101      		movw r22,r2
 2397 0b4e 0E94 0000 		call __divmodsi4
 2398 0b52 C901      		movw r24,r18
 2399 0b54 DA01      		movw r26,r20
 2400 0b56 3C01      		movw r6,r24
 2401 0b58 4D01      		movw r8,r26
 2402               	.LVL179:
 2403               	.LM279:
 2404 0b5a 5601      		movw r10,r12
 2405               	.LVL180:
 2406 0b5c CC24      		clr r12
 2407 0b5e DD24      		clr r13
 2408               	.LVL181:
 2409 0b60 AE0C      		add r10,r14
 2410 0b62 BF1C      		adc r11,r15
 2411 0b64 C01E      		adc r12,r16
 2412 0b66 D11E      		adc r13,r17
 2413               	.LVL182:
 2414               	.LM280:
 2415 0b68 AF81      		ldd r26,Y+7
 2416 0b6a B885      		ldd r27,Y+8
 2417 0b6c 8D91      		ld r24,X+
 2418 0b6e 9C91      		ld r25,X
 2419               	.LVL183:
 2420 0b70 A0E0      		ldi r26,lo8(0)
 2421 0b72 B0E0      		ldi r27,hi8(0)
 2422 0b74 A816      		cp r10,r24
 2423 0b76 B906      		cpc r11,r25
 2424 0b78 CA06      		cpc r12,r26
 2425 0b7a DB06      		cpc r13,r27
 2426 0b7c 04F0      		brlt .L150
 2427               	.LM281:
 2428 0b7e 0894      		sec
 2429 0b80 611C      		adc r6,__zero_reg__
 2430 0b82 711C      		adc r7,__zero_reg__
 2431 0b84 811C      		adc r8,__zero_reg__
 2432 0b86 911C      		adc r9,__zero_reg__
 2433               	.LM282:
 2434 0b88 EF81      		ldd r30,Y+7
 2435 0b8a F885      		ldd r31,Y+8
 2436 0b8c 2081      		ld r18,Z
 2437 0b8e 3181      		ldd r19,Z+1
 2438 0b90 40E0      		ldi r20,lo8(0)
 2439 0b92 50E0      		ldi r21,hi8(0)
 2440 0b94 C601      		movw r24,r12
 2441 0b96 B501      		movw r22,r10
 2442 0b98 0E94 0000 		call __divmodsi4
 2443 0b9c AC01      		movw r20,r24
 2444 0b9e CB01      		movw r24,r22
 2445 0ba0 DA01      		movw r26,r20
 2446 0ba2 5C01      		movw r10,r24
 2447 0ba4 6D01      		movw r12,r26
 2448               	.L150:
 2449               	.LBB322:
 2450               	.LBB323:
 2451               	.LM283:
 2452 0ba6 85E1      		ldi r24,lo8(21)
 2453 0ba8 90E0      		ldi r25,hi8(21)
 2454 0baa 2981      		ldd r18,Y+1
 2455 0bac 3A81      		ldd r19,Y+2
 2456 0bae 289F      		mul r18,r24
 2457 0bb0 A001      		movw r20,r0
 2458 0bb2 299F      		mul r18,r25
 2459 0bb4 500D      		add r21,r0
 2460 0bb6 389F      		mul r19,r24
 2461 0bb8 500D      		add r21,r0
 2462 0bba 1124      		clr r1
 2463 0bbc 8F81      		ldd r24,Y+7
 2464 0bbe 9885      		ldd r25,Y+8
 2465 0bc0 480F      		add r20,r24
 2466 0bc2 591F      		adc r21,r25
 2467 0bc4 8B81      		ldd r24,Y+3
 2468 0bc6 9C81      		ldd r25,Y+4
 2469 0bc8 AD81      		ldd r26,Y+5
 2470 0bca BE81      		ldd r27,Y+6
 2471 0bcc 860D      		add r24,r6
 2472 0bce 971D      		adc r25,r7
 2473 0bd0 A81D      		adc r26,r8
 2474 0bd2 B91D      		adc r27,r9
 2475 0bd4 FA01      		movw r30,r20
 2476 0bd6 84A3      		std Z+36,r24
 2477 0bd8 95A3      		std Z+37,r25
 2478 0bda A6A3      		std Z+38,r26
 2479 0bdc B7A3      		std Z+39,r27
 2480               	.LBE323:
 2481               	.LBE322:
 2482               	.LBB324:
 2483               	.LBB325:
 2484               	.LM284:
 2485 0bde DA01      		movw r26,r20
 2486 0be0 9896      		adiw r26,40
 2487 0be2 AD92      		st X+,r10
 2488 0be4 BD92      		st X+,r11
 2489 0be6 CD92      		st X+,r12
 2490 0be8 DC92      		st X,r13
 2491 0bea 9B97      		sbiw r26,40+3
 2492               	.LBE325:
 2493               	.LBE324:
 2494               	.LBB326:
 2495               	.LBB327:
 2496               	.LM285:
 2497 0bec 24AA      		std Z+52,r2
 2498 0bee 35AA      		std Z+53,r3
 2499 0bf0 46AA      		std Z+54,r4
 2500 0bf2 57AA      		std Z+55,r5
 2501               	.LBE327:
 2502               	.LBE326:
 2503               	.LBB328:
 2504               	.LBB329:
 2505               	.LM286:
 2506 0bf4 93A1      		ldd r25,Z+35
 2507 0bf6 892F      		mov r24,r25
 2508 0bf8 8695      		lsr r24
 2509 0bfa 8F70      		andi r24,lo8(15)
 2510 0bfc 8130      		cpi r24,lo8(1)
 2511 0bfe 01F0      		breq .L151
 2512               	.LBB330:
 2513               	.LBB331:
 2514               	.LM287:
 2515 0c00 917E      		andi r25,lo8(-31)
 2516 0c02 9260      		ori r25,lo8(2)
 2517 0c04 93A3      		std Z+35,r25
 2518               	.LVL184:
 2519               	.L151:
 2520               	/* epilogue start */
 2521               	.LBE331:
 2522               	.LBE330:
 2523               	.LBE329:
 2524               	.LBE328:
 2525               	.LM288:
 2526 0c06 2896      		adiw r28,8
 2527 0c08 0FB6      		in __tmp_reg__,__SREG__
 2528 0c0a F894      		cli
 2529 0c0c DEBF      		out __SP_H__,r29
 2530 0c0e 0FBE      		out __SREG__,__tmp_reg__
 2531 0c10 CDBF      		out __SP_L__,r28
 2532 0c12 CF91      		pop r28
 2533 0c14 DF91      		pop r29
 2534 0c16 1F91      		pop r17
 2535 0c18 0F91      		pop r16
 2536 0c1a FF90      		pop r15
 2537 0c1c EF90      		pop r14
 2538 0c1e DF90      		pop r13
 2539 0c20 CF90      		pop r12
 2540               	.LVL185:
 2541 0c22 BF90      		pop r11
 2542 0c24 AF90      		pop r10
 2543               	.LVL186:
 2544 0c26 9F90      		pop r9
 2545 0c28 8F90      		pop r8
 2546 0c2a 7F90      		pop r7
 2547 0c2c 6F90      		pop r6
 2548               	.LVL187:
 2549 0c2e 5F90      		pop r5
 2550 0c30 4F90      		pop r4
 2551 0c32 3F90      		pop r3
 2552 0c34 2F90      		pop r2
 2553               	.LVL188:
 2554 0c36 0895      		ret
 2555               	.LFE51:
 2557               	.global	Timebase_DownCounter_SS_Set_Forcefully
 2559               	Timebase_DownCounter_SS_Set_Forcefully:
 2560               	.LFB52:
 2561               	.LM289:
 2562               	.LVL189:
 2563 0c38 CF92      		push r12
 2564 0c3a DF92      		push r13
 2565 0c3c EF92      		push r14
 2566 0c3e FF92      		push r15
 2567 0c40 0F93      		push r16
 2568 0c42 1F93      		push r17
 2569               	/* prologue: function */
 2570               	/* frame size = 0 */
 2571 0c44 7A01      		movw r14,r20
 2572 0c46 8B01      		movw r16,r22
 2573               	.LBB332:
 2574               	.LBB333:
 2575               	.LBB334:
 2576               	.LBB335:
 2577               	.LM290:
 2578 0c48 E091 0000 		lds r30,Timebase
 2579 0c4c F091 0000 		lds r31,(Timebase)+1
 2580 0c50 482F      		mov r20,r24
 2581               	.LVL190:
 2582 0c52 50E0      		ldi r21,lo8(0)
 2583 0c54 25E1      		ldi r18,lo8(21)
 2584 0c56 30E0      		ldi r19,hi8(21)
 2585 0c58 429F      		mul r20,r18
 2586 0c5a 6001      		movw r12,r0
 2587 0c5c 439F      		mul r20,r19
 2588 0c5e D00C      		add r13,r0
 2589 0c60 529F      		mul r21,r18
 2590 0c62 D00C      		add r13,r0
 2591 0c64 1124      		clr r1
 2592 0c66 EC0D      		add r30,r12
 2593 0c68 FD1D      		adc r31,r13
 2594 0c6a 10A6      		std Z+40,__zero_reg__
 2595 0c6c 11A6      		std Z+41,__zero_reg__
 2596 0c6e 12A6      		std Z+42,__zero_reg__
 2597 0c70 13A6      		std Z+43,__zero_reg__
 2598               	.LBE335:
 2599               	.LBE334:
 2600               	.LBB336:
 2601               	.LBB337:
 2602               	.LM291:
 2603 0c72 14A2      		std Z+36,__zero_reg__
 2604 0c74 15A2      		std Z+37,__zero_reg__
 2605 0c76 16A2      		std Z+38,__zero_reg__
 2606 0c78 17A2      		std Z+39,__zero_reg__
 2607               	.LBE337:
 2608               	.LBE336:
 2609               	.LBB338:
 2610               	.LBB339:
 2611               	.LM292:
 2612 0c7a 14A6      		std Z+44,__zero_reg__
 2613 0c7c 15A6      		std Z+45,__zero_reg__
 2614 0c7e 16A6      		std Z+46,__zero_reg__
 2615 0c80 17A6      		std Z+47,__zero_reg__
 2616               	.LBE339:
 2617               	.LBE338:
 2618               	.LBB340:
 2619               	.LBB341:
 2620               	.LM293:
 2621 0c82 93A1      		ldd r25,Z+35
 2622               	.LBE341:
 2623               	.LBE340:
 2624               	.LBB342:
 2625               	.LBB343:
 2626               	.LM294:
 2627 0c84 907E      		andi r25,lo8(-32)
 2628 0c86 93A3      		std Z+35,r25
 2629               	.LBE343:
 2630               	.LBE342:
 2631               	.LBB344:
 2632               	.LBB345:
 2633               	.LM295:
 2634 0c88 14AA      		std Z+52,__zero_reg__
 2635 0c8a 15AA      		std Z+53,__zero_reg__
 2636 0c8c 16AA      		std Z+54,__zero_reg__
 2637 0c8e 17AA      		std Z+55,__zero_reg__
 2638               	.LBE345:
 2639               	.LBE344:
 2640               	.LBE333:
 2641               	.LBE332:
 2642               	.LM296:
 2643 0c90 B801      		movw r22,r16
 2644 0c92 A701      		movw r20,r14
 2645 0c94 0E94 0000 		call Timebase_DownCounter_SS_Set_Securely
 2646               	.LVL191:
 2647               	.LBB346:
 2648               	.LBB347:
 2649               	.LM297:
 2650 0c98 E091 0000 		lds r30,Timebase
 2651 0c9c F091 0000 		lds r31,(Timebase)+1
 2652 0ca0 EC0D      		add r30,r12
 2653 0ca2 FD1D      		adc r31,r13
 2654 0ca4 E4AA      		std Z+52,r14
 2655 0ca6 F5AA      		std Z+53,r15
 2656 0ca8 06AB      		std Z+54,r16
 2657 0caa 17AB      		std Z+55,r17
 2658               	/* epilogue start */
 2659               	.LBE347:
 2660               	.LBE346:
 2661               	.LM298:
 2662 0cac 1F91      		pop r17
 2663 0cae 0F91      		pop r16
 2664 0cb0 FF90      		pop r15
 2665 0cb2 EF90      		pop r14
 2666               	.LVL192:
 2667 0cb4 DF90      		pop r13
 2668 0cb6 CF90      		pop r12
 2669 0cb8 0895      		ret
 2670               	.LFE52:
 2672               	.global	Timebase_DownCounter_SS_Update
 2674               	Timebase_DownCounter_SS_Update:
 2675               	.LFB53:
 2676               	.LM299:
 2677               	.LVL193:
 2678 0cba 2F92      		push r2
 2679 0cbc 3F92      		push r3
 2680 0cbe 4F92      		push r4
 2681 0cc0 5F92      		push r5
 2682 0cc2 6F92      		push r6
 2683 0cc4 7F92      		push r7
 2684 0cc6 8F92      		push r8
 2685 0cc8 9F92      		push r9
 2686 0cca AF92      		push r10
 2687 0ccc BF92      		push r11
 2688 0cce CF92      		push r12
 2689 0cd0 DF92      		push r13
 2690 0cd2 EF92      		push r14
 2691 0cd4 FF92      		push r15
 2692 0cd6 0F93      		push r16
 2693 0cd8 1F93      		push r17
 2694 0cda CF93      		push r28
 2695 0cdc DF93      		push r29
 2696               	/* prologue: function */
 2697               	/* frame size = 0 */
 2698               	.LBB348:
 2699               	.LBB349:
 2700               	.LM300:
 2701 0cde E091 0000 		lds r30,Timebase
 2702 0ce2 F091 0000 		lds r31,(Timebase)+1
 2703 0ce6 90E0      		ldi r25,lo8(0)
 2704 0ce8 25E1      		ldi r18,lo8(21)
 2705 0cea 30E0      		ldi r19,hi8(21)
 2706 0cec 829F      		mul r24,r18
 2707 0cee E001      		movw r28,r0
 2708 0cf0 839F      		mul r24,r19
 2709 0cf2 D00D      		add r29,r0
 2710 0cf4 929F      		mul r25,r18
 2711 0cf6 D00D      		add r29,r0
 2712 0cf8 1124      		clr r1
 2713               	.LVL194:
 2714 0cfa CE0F      		add r28,r30
 2715 0cfc DF1F      		adc r29,r31
 2716 0cfe 8BA1      		ldd r24,Y+35
 2717 0d00 8695      		lsr r24
 2718 0d02 8F70      		andi r24,lo8(15)
 2719               	.LBE349:
 2720               	.LBE348:
 2721               	.LM301:
 2722 0d04 8130      		cpi r24,lo8(1)
 2723 0d06 01F0      		breq .+2
 2724 0d08 00C0      		rjmp .L155
 2725               	.LBB350:
 2726               	.LBB351:
 2727               	.LM302:
 2728 0d0a E084      		ldd r14,Z+8
 2729 0d0c F184      		ldd r15,Z+9
 2730               	.LBE351:
 2731               	.LBE350:
 2732               	.LM303:
 2733 0d0e 00E0      		ldi r16,lo8(0)
 2734 0d10 10E0      		ldi r17,hi8(0)
 2735               	.LVL195:
 2736               	.LBB352:
 2737               	.LBB353:
 2738               	.LM304:
 2739 0d12 8285      		ldd r24,Z+10
 2740 0d14 9385      		ldd r25,Z+11
 2741 0d16 A485      		ldd r26,Z+12
 2742 0d18 B585      		ldd r27,Z+13
 2743               	.LVL196:
 2744               	.LBE353:
 2745               	.LBE352:
 2746               	.LM305:
 2747 0d1a 2CA1      		ldd r18,Y+36
 2748 0d1c 3DA1      		ldd r19,Y+37
 2749 0d1e 4EA1      		ldd r20,Y+38
 2750 0d20 5FA1      		ldd r21,Y+39
 2751 0d22 281B      		sub r18,r24
 2752 0d24 390B      		sbc r19,r25
 2753 0d26 4A0B      		sbc r20,r26
 2754 0d28 5B0B      		sbc r21,r27
 2755               	.LM306:
 2756 0d2a 6081      		ld r22,Z
 2757 0d2c 7181      		ldd r23,Z+1
 2758               	.LM307:
 2759 0d2e 80E0      		ldi r24,lo8(0)
 2760 0d30 90E0      		ldi r25,hi8(0)
 2761               	.LVL197:
 2762 0d32 0E94 0000 		call __mulsi3
 2763 0d36 6E19      		sub r22,r14
 2764 0d38 7F09      		sbc r23,r15
 2765 0d3a 800B      		sbc r24,r16
 2766 0d3c 910B      		sbc r25,r17
 2767               	.LVL198:
 2768               	.LM308:
 2769 0d3e 28A5      		ldd r18,Y+40
 2770 0d40 39A5      		ldd r19,Y+41
 2771 0d42 4AA5      		ldd r20,Y+42
 2772 0d44 5BA5      		ldd r21,Y+43
 2773 0d46 620F      		add r22,r18
 2774 0d48 731F      		adc r23,r19
 2775 0d4a 841F      		adc r24,r20
 2776 0d4c 951F      		adc r25,r21
 2777               	.LBB354:
 2778               	.LBB355:
 2779               	.LM309:
 2780 0d4e 6CA7      		std Y+44,r22
 2781 0d50 7DA7      		std Y+45,r23
 2782 0d52 8EA7      		std Y+46,r24
 2783 0d54 9FA7      		std Y+47,r25
 2784               	.LBE355:
 2785               	.LBE354:
 2786               	.LM310:
 2787 0d56 1616      		cp __zero_reg__,r22
 2788 0d58 1706      		cpc __zero_reg__,r23
 2789 0d5a 1806      		cpc __zero_reg__,r24
 2790 0d5c 1906      		cpc __zero_reg__,r25
 2791 0d5e 04F4      		brge .+2
 2792 0d60 00C0      		rjmp .L157
 2793               	.LBB356:
 2794               	.LBB357:
 2795               	.LBB358:
 2796               	.LM311:
 2797 0d62 8CA9      		ldd r24,Y+52
 2798 0d64 9DA9      		ldd r25,Y+53
 2799 0d66 AEA9      		ldd r26,Y+54
 2800 0d68 BFA9      		ldd r27,Y+55
 2801               	.LVL199:
 2802               	.LBE358:
 2803               	.LBE357:
 2804               	.LBB359:
 2805               	.LBB360:
 2806               	.LBB361:
 2807               	.LBB362:
 2808               	.LM312:
 2809 0d6a 18A6      		std Y+40,__zero_reg__
 2810 0d6c 19A6      		std Y+41,__zero_reg__
 2811 0d6e 1AA6      		std Y+42,__zero_reg__
 2812 0d70 1BA6      		std Y+43,__zero_reg__
 2813               	.LBE362:
 2814               	.LBE361:
 2815               	.LBB363:
 2816               	.LBB364:
 2817               	.LM313:
 2818 0d72 1CA2      		std Y+36,__zero_reg__
 2819 0d74 1DA2      		std Y+37,__zero_reg__
 2820 0d76 1EA2      		std Y+38,__zero_reg__
 2821 0d78 1FA2      		std Y+39,__zero_reg__
 2822               	.LBE364:
 2823               	.LBE363:
 2824               	.LBB365:
 2825               	.LBB366:
 2826               	.LM314:
 2827 0d7a 1CA6      		std Y+44,__zero_reg__
 2828 0d7c 1DA6      		std Y+45,__zero_reg__
 2829 0d7e 1EA6      		std Y+46,__zero_reg__
 2830 0d80 1FA6      		std Y+47,__zero_reg__
 2831               	.LBE366:
 2832               	.LBE365:
 2833               	.LBB367:
 2834               	.LBB368:
 2835               	.LM315:
 2836 0d82 2BA1      		ldd r18,Y+35
 2837 0d84 2E7F      		andi r18,lo8(-2)
 2838 0d86 2BA3      		std Y+35,r18
 2839               	.LBE368:
 2840               	.LBE367:
 2841               	.LBE360:
 2842               	.LBE359:
 2843               	.LBB369:
 2844               	.LBB370:
 2845               	.LM316:
 2846 0d88 8CAB      		std Y+52,r24
 2847 0d8a 9DAB      		std Y+53,r25
 2848 0d8c AEAB      		std Y+54,r26
 2849 0d8e BFAB      		std Y+55,r27
 2850               	.LBE370:
 2851               	.LBE369:
 2852               	.LBB371:
 2853               	.LBB372:
 2854               	.LM317:
 2855 0d90 8BA1      		ldd r24,Y+35
 2856               	.LVL200:
 2857 0d92 817E      		andi r24,lo8(-31)
 2858 0d94 8860      		ori r24,lo8(8)
 2859 0d96 8BA3      		std Y+35,r24
 2860 0d98 00C0      		rjmp .L157
 2861               	.LVL201:
 2862               	.L155:
 2863               	.LBE372:
 2864               	.LBE371:
 2865               	.LBE356:
 2866               	.LM318:
 2867 0d9a 8230      		cpi r24,lo8(2)
 2868 0d9c 01F4      		brne .L157
 2869               	.LBB373:
 2870               	.LBB374:
 2871               	.LM319:
 2872 0d9e 6084      		ldd r6,Z+8
 2873 0da0 7184      		ldd r7,Z+9
 2874               	.LBE374:
 2875               	.LBE373:
 2876               	.LBB375:
 2877               	.LBB376:
 2878               	.LM320:
 2879 0da2 E284      		ldd r14,Z+10
 2880 0da4 F384      		ldd r15,Z+11
 2881 0da6 0485      		ldd r16,Z+12
 2882 0da8 1585      		ldd r17,Z+13
 2883               	.LVL202:
 2884               	.LBE376:
 2885               	.LBE375:
 2886               	.LBB377:
 2887               	.LBB378:
 2888               	.LM321:
 2889 0daa 2CA4      		ldd r2,Y+44
 2890 0dac 3DA4      		ldd r3,Y+45
 2891 0dae 4EA4      		ldd r4,Y+46
 2892 0db0 5FA4      		ldd r5,Y+47
 2893               	.LVL203:
 2894               	.LBE378:
 2895               	.LBE377:
 2896               	.LM322:
 2897 0db2 2081      		ld r18,Z
 2898 0db4 3181      		ldd r19,Z+1
 2899               	.LM323:
 2900 0db6 A080      		ld r10,Z
 2901 0db8 B180      		ldd r11,Z+1
 2902               	.LBB379:
 2903               	.LBB380:
 2904               	.LM324:
 2905 0dba 40E0      		ldi r20,lo8(0)
 2906 0dbc 50E0      		ldi r21,hi8(0)
 2907 0dbe C201      		movw r24,r4
 2908 0dc0 B101      		movw r22,r2
 2909 0dc2 0E94 0000 		call __divmodsi4
 2910 0dc6 E20E      		add r14,r18
 2911 0dc8 F31E      		adc r15,r19
 2912 0dca 041F      		adc r16,r20
 2913 0dcc 151F      		adc r17,r21
 2914 0dce ECA2      		std Y+36,r14
 2915 0dd0 FDA2      		std Y+37,r15
 2916 0dd2 0EA3      		std Y+38,r16
 2917 0dd4 1FA3      		std Y+39,r17
 2918               	.LBE380:
 2919               	.LBE379:
 2920               	.LBB381:
 2921               	.LBB382:
 2922               	.LM325:
 2923 0dd6 CC24      		clr r12
 2924 0dd8 DD24      		clr r13
 2925 0dda C201      		movw r24,r4
 2926 0ddc B101      		movw r22,r2
 2927 0dde A601      		movw r20,r12
 2928 0de0 9501      		movw r18,r10
 2929 0de2 0E94 0000 		call __divmodsi4
 2930 0de6 8824      		clr r8
 2931 0de8 9924      		clr r9
 2932 0dea 660E      		add r6,r22
 2933 0dec 771E      		adc r7,r23
 2934 0dee 881E      		adc r8,r24
 2935 0df0 991E      		adc r9,r25
 2936 0df2 68A6      		std Y+40,r6
 2937 0df4 79A6      		std Y+41,r7
 2938 0df6 8AA6      		std Y+42,r8
 2939 0df8 9BA6      		std Y+43,r9
 2940               	.LVL204:
 2941               	.L157:
 2942               	/* epilogue start */
 2943               	.LBE382:
 2944               	.LBE381:
 2945               	.LM326:
 2946 0dfa DF91      		pop r29
 2947 0dfc CF91      		pop r28
 2948 0dfe 1F91      		pop r17
 2949 0e00 0F91      		pop r16
 2950               	.LVL205:
 2951 0e02 FF90      		pop r15
 2952 0e04 EF90      		pop r14
 2953               	.LVL206:
 2954 0e06 DF90      		pop r13
 2955 0e08 CF90      		pop r12
 2956 0e0a BF90      		pop r11
 2957 0e0c AF90      		pop r10
 2958 0e0e 9F90      		pop r9
 2959 0e10 8F90      		pop r8
 2960 0e12 7F90      		pop r7
 2961 0e14 6F90      		pop r6
 2962 0e16 5F90      		pop r5
 2963 0e18 4F90      		pop r4
 2964 0e1a 3F90      		pop r3
 2965 0e1c 2F90      		pop r2
 2966               	.LVL207:
 2967 0e1e 0895      		ret
 2968               	.LFE53:
 2970               	.global	Timebase_DownCounter_SS_Expired
 2972               	Timebase_DownCounter_SS_Expired:
 2973               	.LFB54:
 2974               	.LM327:
 2975               	.LVL208:
 2976               	/* prologue: function */
 2977               	/* frame size = 0 */
 2978               	.LM328:
 2979 0e20 40E0      		ldi r20,lo8(0)
 2980 0e22 E091 0000 		lds r30,Timebase
 2981 0e26 F091 0000 		lds r31,(Timebase)+1
 2982 0e2a 90E0      		ldi r25,lo8(0)
 2983               	.LVL209:
 2984 0e2c 25E1      		ldi r18,lo8(21)
 2985 0e2e 30E0      		ldi r19,hi8(21)
 2986 0e30 BC01      		movw r22,r24
 2987 0e32 629F      		mul r22,r18
 2988 0e34 C001      		movw r24,r0
 2989 0e36 639F      		mul r22,r19
 2990 0e38 900D      		add r25,r0
 2991 0e3a 729F      		mul r23,r18
 2992 0e3c 900D      		add r25,r0
 2993 0e3e 1124      		clr r1
 2994               	.LVL210:
 2995 0e40 E80F      		add r30,r24
 2996 0e42 F91F      		adc r31,r25
 2997 0e44 83A1      		ldd r24,Z+35
 2998 0e46 8695      		lsr r24
 2999 0e48 8F70      		andi r24,lo8(15)
 3000 0e4a 8430      		cpi r24,lo8(4)
 3001 0e4c 01F4      		brne .L159
 3002 0e4e 41E0      		ldi r20,lo8(1)
 3003               	.L159:
 3004               	.LM329:
 3005 0e50 842F      		mov r24,r20
 3006               	/* epilogue start */
 3007 0e52 0895      		ret
 3008               	.LFE54:
 3010               	.global	Timebase_DownCounter_SS_Expired_Event
 3012               	Timebase_DownCounter_SS_Expired_Event:
 3013               	.LFB55:
 3014               	.LM330:
 3015               	.LVL211:
 3016               	/* prologue: function */
 3017               	/* frame size = 0 */
 3018               	.LBB383:
 3019               	.LBB384:
 3020               	.LM331:
 3021 0e54 E091 0000 		lds r30,Timebase
 3022 0e58 F091 0000 		lds r31,(Timebase)+1
 3023 0e5c 90E0      		ldi r25,lo8(0)
 3024               	.LBE384:
 3025               	.LBE383:
 3026               	.LM332:
 3027 0e5e 25E1      		ldi r18,lo8(21)
 3028 0e60 30E0      		ldi r19,hi8(21)
 3029 0e62 AC01      		movw r20,r24
 3030               	.LVL212:
 3031 0e64 429F      		mul r20,r18
 3032 0e66 C001      		movw r24,r0
 3033 0e68 439F      		mul r20,r19
 3034 0e6a 900D      		add r25,r0
 3035 0e6c 529F      		mul r21,r18
 3036 0e6e 900D      		add r25,r0
 3037 0e70 1124      		clr r1
 3038 0e72 E80F      		add r30,r24
 3039 0e74 F91F      		adc r31,r25
 3040 0e76 83A1      		ldd r24,Z+35
 3041 0e78 8695      		lsr r24
 3042 0e7a 8F70      		andi r24,lo8(15)
 3043 0e7c 8430      		cpi r24,lo8(4)
 3044 0e7e 01F0      		breq .L162
 3045 0e80 80E0      		ldi r24,lo8(0)
 3046 0e82 0895      		ret
 3047               	.L162:
 3048               	.LBB385:
 3049               	.LBB386:
 3050               	.LBB387:
 3051               	.LBB388:
 3052               	.LBB389:
 3053               	.LBB390:
 3054               	.LM333:
 3055 0e84 10A6      		std Z+40,__zero_reg__
 3056 0e86 11A6      		std Z+41,__zero_reg__
 3057 0e88 12A6      		std Z+42,__zero_reg__
 3058 0e8a 13A6      		std Z+43,__zero_reg__
 3059               	.LBE390:
 3060               	.LBE389:
 3061               	.LBB391:
 3062               	.LBB392:
 3063               	.LM334:
 3064 0e8c 14A2      		std Z+36,__zero_reg__
 3065 0e8e 15A2      		std Z+37,__zero_reg__
 3066 0e90 16A2      		std Z+38,__zero_reg__
 3067 0e92 17A2      		std Z+39,__zero_reg__
 3068               	.LBE392:
 3069               	.LBE391:
 3070               	.LBB393:
 3071               	.LBB394:
 3072               	.LM335:
 3073 0e94 14A6      		std Z+44,__zero_reg__
 3074 0e96 15A6      		std Z+45,__zero_reg__
 3075 0e98 16A6      		std Z+46,__zero_reg__
 3076 0e9a 17A6      		std Z+47,__zero_reg__
 3077               	.LBE394:
 3078               	.LBE393:
 3079               	.LBB395:
 3080               	.LBB396:
 3081               	.LM336:
 3082 0e9c 83A1      		ldd r24,Z+35
 3083               	.LBE396:
 3084               	.LBE395:
 3085               	.LBB397:
 3086               	.LBB398:
 3087               	.LM337:
 3088 0e9e 807E      		andi r24,lo8(-32)
 3089 0ea0 83A3      		std Z+35,r24
 3090               	.LBE398:
 3091               	.LBE397:
 3092               	.LBB399:
 3093               	.LBB400:
 3094               	.LM338:
 3095 0ea2 14AA      		std Z+52,__zero_reg__
 3096 0ea4 15AA      		std Z+53,__zero_reg__
 3097 0ea6 16AA      		std Z+54,__zero_reg__
 3098 0ea8 17AA      		std Z+55,__zero_reg__
 3099 0eaa 81E0      		ldi r24,lo8(1)
 3100               	.LBE400:
 3101               	.LBE399:
 3102               	.LBE388:
 3103               	.LBE387:
 3104               	.LBE386:
 3105               	.LBE385:
 3106               	.LM339:
 3107 0eac 0895      		ret
 3108               	.LFE55:
 3110               	.global	Timebase_DownCounter_SS_Oneshot_Expired_Event
 3112               	Timebase_DownCounter_SS_Oneshot_Expired_Event:
 3113               	.LFB56:
 3114               	.LM340:
 3115               	.LVL213:
 3116               	/* prologue: function */
 3117               	/* frame size = 0 */
 3118               	.LM341:
 3119 0eae 0E94 0000 		call Timebase_DownCounter_SS_Expired_Event
 3120               	.LVL214:
 3121               	/* epilogue start */
 3122               	.LM342:
 3123 0eb2 0895      		ret
 3124               	.LFE56:
 3126               	.global	Timebase_DownCounter_SS_Continuous_Expired_Event
 3128               	Timebase_DownCounter_SS_Continuous_Expired_Event:
 3129               	.LFB57:
 3130               	.LM343:
 3131               	.LVL215:
 3132               	/* prologue: function */
 3133               	/* frame size = 0 */
 3134 0eb4 A82F      		mov r26,r24
 3135               	.LBB401:
 3136               	.LBB402:
 3137               	.LM344:
 3138 0eb6 E091 0000 		lds r30,Timebase
 3139 0eba F091 0000 		lds r31,(Timebase)+1
 3140 0ebe 282F      		mov r18,r24
 3141 0ec0 30E0      		ldi r19,lo8(0)
 3142               	.LBE402:
 3143               	.LBE401:
 3144               	.LM345:
 3145 0ec2 85E1      		ldi r24,lo8(21)
 3146 0ec4 90E0      		ldi r25,hi8(21)
 3147               	.LVL216:
 3148 0ec6 AC01      		movw r20,r24
 3149 0ec8 249F      		mul r18,r20
 3150 0eca C001      		movw r24,r0
 3151 0ecc 259F      		mul r18,r21
 3152 0ece 900D      		add r25,r0
 3153 0ed0 349F      		mul r19,r20
 3154 0ed2 900D      		add r25,r0
 3155 0ed4 1124      		clr r1
 3156 0ed6 E80F      		add r30,r24
 3157 0ed8 F91F      		adc r31,r25
 3158 0eda 83A1      		ldd r24,Z+35
 3159 0edc 8695      		lsr r24
 3160 0ede 8F70      		andi r24,lo8(15)
 3161 0ee0 8430      		cpi r24,lo8(4)
 3162 0ee2 01F0      		breq .L168
 3163 0ee4 80E0      		ldi r24,lo8(0)
 3164 0ee6 0895      		ret
 3165               	.L168:
 3166               	.LBB403:
 3167               	.LBB404:
 3168               	.LBB405:
 3169               	.LM346:
 3170 0ee8 44A9      		ldd r20,Z+52
 3171 0eea 55A9      		ldd r21,Z+53
 3172 0eec 66A9      		ldd r22,Z+54
 3173 0eee 77A9      		ldd r23,Z+55
 3174               	.LVL217:
 3175               	.LBE405:
 3176               	.LBE404:
 3177               	.LBB406:
 3178               	.LBB407:
 3179               	.LBB408:
 3180               	.LBB409:
 3181               	.LBB410:
 3182               	.LBB411:
 3183               	.LM347:
 3184 0ef0 10A6      		std Z+40,__zero_reg__
 3185 0ef2 11A6      		std Z+41,__zero_reg__
 3186 0ef4 12A6      		std Z+42,__zero_reg__
 3187 0ef6 13A6      		std Z+43,__zero_reg__
 3188               	.LBE411:
 3189               	.LBE410:
 3190               	.LBB412:
 3191               	.LBB413:
 3192               	.LM348:
 3193 0ef8 14A2      		std Z+36,__zero_reg__
 3194 0efa 15A2      		std Z+37,__zero_reg__
 3195 0efc 16A2      		std Z+38,__zero_reg__
 3196 0efe 17A2      		std Z+39,__zero_reg__
 3197               	.LBE413:
 3198               	.LBE412:
 3199               	.LBB414:
 3200               	.LBB415:
 3201               	.LM349:
 3202 0f00 14A6      		std Z+44,__zero_reg__
 3203 0f02 15A6      		std Z+45,__zero_reg__
 3204 0f04 16A6      		std Z+46,__zero_reg__
 3205 0f06 17A6      		std Z+47,__zero_reg__
 3206               	.LBE415:
 3207               	.LBE414:
 3208               	.LBB416:
 3209               	.LBB417:
 3210               	.LM350:
 3211 0f08 83A1      		ldd r24,Z+35
 3212               	.LBE417:
 3213               	.LBE416:
 3214               	.LBB418:
 3215               	.LBB419:
 3216               	.LM351:
 3217 0f0a 807E      		andi r24,lo8(-32)
 3218 0f0c 83A3      		std Z+35,r24
 3219               	.LBE419:
 3220               	.LBE418:
 3221               	.LBB420:
 3222               	.LBB421:
 3223               	.LM352:
 3224 0f0e 14AA      		std Z+52,__zero_reg__
 3225 0f10 15AA      		std Z+53,__zero_reg__
 3226 0f12 16AA      		std Z+54,__zero_reg__
 3227 0f14 17AA      		std Z+55,__zero_reg__
 3228               	.LBE421:
 3229               	.LBE420:
 3230               	.LBE409:
 3231               	.LBE408:
 3232               	.LBE407:
 3233               	.LBE406:
 3234               	.LM353:
 3235 0f16 8A2F      		mov r24,r26
 3236 0f18 0E94 0000 		call Timebase_DownCounter_SS_Set_Securely
 3237               	.LVL218:
 3238 0f1c 81E0      		ldi r24,lo8(1)
 3239               	.LBE403:
 3240               	.LM354:
 3241 0f1e 0895      		ret
 3242               	.LFE57:
 3244               	.global	Timebase_DownCounter_SS_Set_Period_Value_Securely
 3246               	Timebase_DownCounter_SS_Set_Period_Value_Securely:
 3247               	.LFB58:
 3248               	.LM355:
 3249               	.LVL219:
 3250 0f20 CF93      		push r28
 3251 0f22 DF93      		push r29
 3252               	/* prologue: function */
 3253               	/* frame size = 0 */
 3254               	.LBB422:
 3255               	.LBB423:
 3256               	.LM356:
 3257 0f24 C091 0000 		lds r28,Timebase
 3258 0f28 D091 0000 		lds r29,(Timebase)+1
 3259 0f2c 282F      		mov r18,r24
 3260 0f2e 30E0      		ldi r19,lo8(0)
 3261               	.LBE423:
 3262               	.LBE422:
 3263               	.LM357:
 3264 0f30 85E1      		ldi r24,lo8(21)
 3265 0f32 90E0      		ldi r25,hi8(21)
 3266               	.LVL220:
 3267 0f34 289F      		mul r18,r24
 3268 0f36 F001      		movw r30,r0
 3269 0f38 299F      		mul r18,r25
 3270 0f3a F00D      		add r31,r0
 3271 0f3c 389F      		mul r19,r24
 3272 0f3e F00D      		add r31,r0
 3273 0f40 1124      		clr r1
 3274 0f42 EC0F      		add r30,r28
 3275 0f44 FD1F      		adc r31,r29
 3276 0f46 83A1      		ldd r24,Z+35
 3277 0f48 80FD      		sbrc r24,0
 3278 0f4a 00C0      		rjmp .L175
 3279               	.LM358:
 3280 0f4c 84A5      		ldd r24,Z+44
 3281 0f4e 95A5      		ldd r25,Z+45
 3282 0f50 A6A5      		ldd r26,Z+46
 3283 0f52 B7A5      		ldd r27,Z+47
 3284 0f54 841B      		sub r24,r20
 3285 0f56 950B      		sbc r25,r21
 3286 0f58 A60B      		sbc r26,r22
 3287 0f5a B70B      		sbc r27,r23
 3288               	.LBB424:
 3289               	.LBB425:
 3290               	.LM359:
 3291 0f5c B7FF      		sbrs r27,7
 3292 0f5e 00C0      		rjmp .L173
 3293               	.LM360:
 3294 0f60 10AA      		std Z+48,__zero_reg__
 3295 0f62 11AA      		std Z+49,__zero_reg__
 3296 0f64 12AA      		std Z+50,__zero_reg__
 3297 0f66 13AA      		std Z+51,__zero_reg__
 3298 0f68 00C0      		rjmp .L174
 3299               	.L173:
 3300               	.LM361:
 3301 0f6a 80AB      		std Z+48,r24
 3302 0f6c 91AB      		std Z+49,r25
 3303 0f6e A2AB      		std Z+50,r26
 3304 0f70 B3AB      		std Z+51,r27
 3305               	.L174:
 3306               	.LBE425:
 3307               	.LBE424:
 3308               	.LBB426:
 3309               	.LBB427:
 3310               	.LM362:
 3311 0f72 85E1      		ldi r24,lo8(21)
 3312 0f74 90E0      		ldi r25,hi8(21)
 3313 0f76 289F      		mul r18,r24
 3314 0f78 F001      		movw r30,r0
 3315 0f7a 299F      		mul r18,r25
 3316 0f7c F00D      		add r31,r0
 3317 0f7e 389F      		mul r19,r24
 3318 0f80 F00D      		add r31,r0
 3319 0f82 1124      		clr r1
 3320 0f84 EC0F      		add r30,r28
 3321 0f86 FD1F      		adc r31,r29
 3322 0f88 83A1      		ldd r24,Z+35
 3323 0f8a 8160      		ori r24,lo8(1)
 3324 0f8c 83A3      		std Z+35,r24
 3325               	.L175:
 3326               	/* epilogue start */
 3327               	.LBE427:
 3328               	.LBE426:
 3329               	.LM363:
 3330 0f8e DF91      		pop r29
 3331 0f90 CF91      		pop r28
 3332 0f92 0895      		ret
 3333               	.LFE58:
 3335               	.global	Timebase_DownCounter_SS_Get_Remaining_Period_Value
 3337               	Timebase_DownCounter_SS_Get_Remaining_Period_Value:
 3338               	.LFB59:
 3339               	.LM364:
 3340               	.LVL221:
 3341               	/* prologue: function */
 3342               	/* frame size = 0 */
 3343               	.LBB428:
 3344               	.LBB429:
 3345               	.LM365:
 3346 0f94 E091 0000 		lds r30,Timebase
 3347 0f98 F091 0000 		lds r31,(Timebase)+1
 3348 0f9c 90E0      		ldi r25,lo8(0)
 3349               	.LBE429:
 3350               	.LBE428:
 3351               	.LM366:
 3352 0f9e 25E1      		ldi r18,lo8(21)
 3353 0fa0 30E0      		ldi r19,hi8(21)
 3354 0fa2 AC01      		movw r20,r24
 3355               	.LVL222:
 3356 0fa4 429F      		mul r20,r18
 3357 0fa6 C001      		movw r24,r0
 3358 0fa8 439F      		mul r20,r19
 3359 0faa 900D      		add r25,r0
 3360 0fac 529F      		mul r21,r18
 3361 0fae 900D      		add r25,r0
 3362 0fb0 1124      		clr r1
 3363 0fb2 E80F      		add r30,r24
 3364 0fb4 F91F      		adc r31,r25
 3365 0fb6 24A5      		ldd r18,Z+44
 3366 0fb8 35A5      		ldd r19,Z+45
 3367 0fba 46A5      		ldd r20,Z+46
 3368 0fbc 57A5      		ldd r21,Z+47
 3369               	.LVL223:
 3370 0fbe 80A9      		ldd r24,Z+48
 3371 0fc0 91A9      		ldd r25,Z+49
 3372 0fc2 A2A9      		ldd r26,Z+50
 3373 0fc4 B3A9      		ldd r27,Z+51
 3374 0fc6 281B      		sub r18,r24
 3375 0fc8 390B      		sbc r19,r25
 3376 0fca 4A0B      		sbc r20,r26
 3377 0fcc 5B0B      		sbc r21,r27
 3378 0fce 57FF      		sbrs r21,7
 3379 0fd0 00C0      		rjmp .L177
 3380 0fd2 20E0      		ldi r18,lo8(0)
 3381 0fd4 30E0      		ldi r19,hi8(0)
 3382 0fd6 40E0      		ldi r20,hlo8(0)
 3383 0fd8 50E0      		ldi r21,hhi8(0)
 3384               	.L177:
 3385               	.LM367:
 3386 0fda B901      		movw r22,r18
 3387               	.LVL224:
 3388 0fdc CA01      		movw r24,r20
 3389               	/* epilogue start */
 3390 0fde 0895      		ret
 3391               	.LFE59:
 3393               	.global	Timebase_DownCounter_SS_Period_Value_Expired
 3395               	Timebase_DownCounter_SS_Period_Value_Expired:
 3396               	.LFB60:
 3397               	.LM368:
 3398               	.LVL225:
 3399 0fe0 CF93      		push r28
 3400 0fe2 DF93      		push r29
 3401               	/* prologue: function */
 3402               	/* frame size = 0 */
 3403               	.LBB430:
 3404               	.LBB431:
 3405               	.LBB432:
 3406               	.LBB433:
 3407               	.LM369:
 3408 0fe4 C091 0000 		lds r28,Timebase
 3409 0fe8 D091 0000 		lds r29,(Timebase)+1
 3410 0fec 682F      		mov r22,r24
 3411 0fee 70E0      		ldi r23,lo8(0)
 3412               	.LBE433:
 3413               	.LBE432:
 3414               	.LM370:
 3415 0ff0 85E1      		ldi r24,lo8(21)
 3416 0ff2 90E0      		ldi r25,hi8(21)
 3417               	.LVL226:
 3418 0ff4 689F      		mul r22,r24
 3419 0ff6 F001      		movw r30,r0
 3420 0ff8 699F      		mul r22,r25
 3421 0ffa F00D      		add r31,r0
 3422 0ffc 789F      		mul r23,r24
 3423 0ffe F00D      		add r31,r0
 3424 1000 1124      		clr r1
 3425 1002 EC0F      		add r30,r28
 3426 1004 FD1F      		adc r31,r29
 3427 1006 24A5      		ldd r18,Z+44
 3428 1008 35A5      		ldd r19,Z+45
 3429 100a 46A5      		ldd r20,Z+46
 3430 100c 57A5      		ldd r21,Z+47
 3431               	.LVL227:
 3432 100e 80A9      		ldd r24,Z+48
 3433 1010 91A9      		ldd r25,Z+49
 3434 1012 A2A9      		ldd r26,Z+50
 3435 1014 B3A9      		ldd r27,Z+51
 3436 1016 281B      		sub r18,r24
 3437 1018 390B      		sbc r19,r25
 3438 101a 4A0B      		sbc r20,r26
 3439 101c 5B0B      		sbc r21,r27
 3440               	.LM371:
 3441 101e 57FD      		sbrc r21,7
 3442 1020 00C0      		rjmp .L180
 3443               	.LBE431:
 3444               	.LBE430:
 3445               	.LM372:
 3446 1022 2115      		cp r18,__zero_reg__
 3447 1024 3105      		cpc r19,__zero_reg__
 3448 1026 4105      		cpc r20,__zero_reg__
 3449 1028 5105      		cpc r21,__zero_reg__
 3450 102a 01F0      		breq .L180
 3451 102c 20E0      		ldi r18,lo8(0)
 3452               	.LVL228:
 3453 102e 00C0      		rjmp .L181
 3454               	.LVL229:
 3455               	.L180:
 3456 1030 20E0      		ldi r18,lo8(0)
 3457               	.LVL230:
 3458 1032 85E1      		ldi r24,lo8(21)
 3459 1034 90E0      		ldi r25,hi8(21)
 3460 1036 AC01      		movw r20,r24
 3461 1038 649F      		mul r22,r20
 3462 103a C001      		movw r24,r0
 3463 103c 659F      		mul r22,r21
 3464 103e 900D      		add r25,r0
 3465 1040 749F      		mul r23,r20
 3466 1042 900D      		add r25,r0
 3467 1044 1124      		clr r1
 3468 1046 C80F      		add r28,r24
 3469 1048 D91F      		adc r29,r25
 3470 104a 8BA1      		ldd r24,Y+35
 3471 104c 80FF      		sbrs r24,0
 3472 104e 21E0      		ldi r18,lo8(1)
 3473               	.L182:
 3474 1050 81E0      		ldi r24,lo8(1)
 3475 1052 2827      		eor r18,r24
 3476               	.L181:
 3477               	.LM373:
 3478 1054 822F      		mov r24,r18
 3479               	/* epilogue start */
 3480 1056 DF91      		pop r29
 3481 1058 CF91      		pop r28
 3482 105a 0895      		ret
 3483               	.LFE60:
 3485               	.global	Timebase_DownCounter_SS_Period_Value_Expired_Event
 3487               	Timebase_DownCounter_SS_Period_Value_Expired_Event:
 3488               	.LFB61:
 3489               	.LM374:
 3490               	.LVL231:
 3491 105c 1F93      		push r17
 3492               	/* prologue: function */
 3493               	/* frame size = 0 */
 3494 105e 182F      		mov r17,r24
 3495               	.LM375:
 3496 1060 0E94 0000 		call Timebase_DownCounter_SS_Period_Value_Expired
 3497               	.LVL232:
 3498 1064 8130      		cpi r24,lo8(1)
 3499 1066 01F0      		breq .L185
 3500 1068 80E0      		ldi r24,lo8(0)
 3501 106a 00C0      		rjmp .L186
 3502               	.L185:
 3503               	.LBB434:
 3504               	.LBB435:
 3505               	.LM376:
 3506 106c E091 0000 		lds r30,Timebase
 3507 1070 F091 0000 		lds r31,(Timebase)+1
 3508 1074 212F      		mov r18,r17
 3509 1076 30E0      		ldi r19,lo8(0)
 3510               	.LVL233:
 3511 1078 85E1      		ldi r24,lo8(21)
 3512 107a 90E0      		ldi r25,hi8(21)
 3513 107c AC01      		movw r20,r24
 3514 107e 249F      		mul r18,r20
 3515 1080 C001      		movw r24,r0
 3516 1082 259F      		mul r18,r21
 3517 1084 900D      		add r25,r0
 3518 1086 349F      		mul r19,r20
 3519 1088 900D      		add r25,r0
 3520 108a 1124      		clr r1
 3521 108c E80F      		add r30,r24
 3522 108e F91F      		adc r31,r25
 3523 1090 83A1      		ldd r24,Z+35
 3524 1092 8E7F      		andi r24,lo8(-2)
 3525 1094 83A3      		std Z+35,r24
 3526 1096 81E0      		ldi r24,lo8(1)
 3527               	.L186:
 3528               	/* epilogue start */
 3529               	.LBE435:
 3530               	.LBE434:
 3531               	.LM377:
 3532 1098 1F91      		pop r17
 3533               	.LVL234:
 3534 109a 0895      		ret
 3535               	.LFE61:
 3537               	.global	Timebase_DownCounter_SS_Update_All
 3539               	Timebase_DownCounter_SS_Update_All:
 3540               	.LFB62:
 3541               	.LM378:
 3542               	/* prologue: function */
 3543               	/* frame size = 0 */
 3544               	.LBB436:
 3545               	.LM379:
 3546 109c 80E0      		ldi r24,lo8(0)
 3547 109e 0E94 0000 		call Timebase_DownCounter_SS_Update
 3548               	/* epilogue start */
 3549               	.LBE436:
 3550               	.LM380:
 3551 10a2 0895      		ret
 3552               	.LFE62:
 3554               	.global	Timebase_DownCounter_SS_Reset_All
 3556               	Timebase_DownCounter_SS_Reset_All:
 3557               	.LFB63:
 3558               	.LM381:
 3559               	/* prologue: function */
 3560               	/* frame size = 0 */
 3561               	.LBB437:
 3562               	.LBB438:
 3563               	.LBB439:
 3564               	.LBB440:
 3565               	.LBB441:
 3566               	.LM382:
 3567 10a4 E091 0000 		lds r30,Timebase
 3568 10a8 F091 0000 		lds r31,(Timebase)+1
 3569 10ac 10A6      		std Z+40,__zero_reg__
 3570 10ae 11A6      		std Z+41,__zero_reg__
 3571 10b0 12A6      		std Z+42,__zero_reg__
 3572 10b2 13A6      		std Z+43,__zero_reg__
 3573               	.LBE441:
 3574               	.LBE440:
 3575               	.LBB442:
 3576               	.LBB443:
 3577               	.LM383:
 3578 10b4 14A2      		std Z+36,__zero_reg__
 3579 10b6 15A2      		std Z+37,__zero_reg__
 3580 10b8 16A2      		std Z+38,__zero_reg__
 3581 10ba 17A2      		std Z+39,__zero_reg__
 3582               	.LBE443:
 3583               	.LBE442:
 3584               	.LBB444:
 3585               	.LBB445:
 3586               	.LM384:
 3587 10bc 14A6      		std Z+44,__zero_reg__
 3588 10be 15A6      		std Z+45,__zero_reg__
 3589 10c0 16A6      		std Z+46,__zero_reg__
 3590 10c2 17A6      		std Z+47,__zero_reg__
 3591               	.LBE445:
 3592               	.LBE444:
 3593               	.LBB446:
 3594               	.LBB447:
 3595               	.LM385:
 3596 10c4 83A1      		ldd r24,Z+35
 3597               	.LBE447:
 3598               	.LBE446:
 3599               	.LBB448:
 3600               	.LBB449:
 3601               	.LM386:
 3602 10c6 807E      		andi r24,lo8(-32)
 3603 10c8 83A3      		std Z+35,r24
 3604               	.LBE449:
 3605               	.LBE448:
 3606               	.LBB450:
 3607               	.LBB451:
 3608               	.LM387:
 3609 10ca 14AA      		std Z+52,__zero_reg__
 3610 10cc 15AA      		std Z+53,__zero_reg__
 3611 10ce 16AA      		std Z+54,__zero_reg__
 3612 10d0 17AA      		std Z+55,__zero_reg__
 3613               	/* epilogue start */
 3614               	.LBE451:
 3615               	.LBE450:
 3616               	.LBE439:
 3617               	.LBE438:
 3618               	.LBE437:
 3619               	.LM388:
 3620 10d2 0895      		ret
 3621               	.LFE63:
 3623               	.global	Timebase_Get_Update_Req_Sts
 3625               	Timebase_Get_Update_Req_Sts:
 3626               	.LFB64:
 3627               	.LM389:
 3628               	/* prologue: function */
 3629               	/* frame size = 0 */
 3630               	.LM390:
 3631 10d4 E091 0000 		lds r30,Timebase
 3632 10d8 F091 0000 		lds r31,(Timebase)+1
 3633 10dc 82A1      		ldd r24,Z+34
 3634               	/* epilogue start */
 3635               	.LM391:
 3636 10de 0895      		ret
 3637               	.LFE64:
 3639               	.global	Timebase_Reset
 3641               	Timebase_Reset:
 3642               	.LFB65:
 3643               	.LM392:
 3644               	/* prologue: function */
 3645               	/* frame size = 0 */
 3646               	.LM393:
 3647 10e0 0E94 0000 		call Timebase_DownCounter_SS_Reset_All
 3648               	/* epilogue start */
 3649               	.LM394:
 3650 10e4 0895      		ret
 3651               	.LFE65:
 3653               	.global	Timebase_LP_Reset
 3655               	Timebase_LP_Reset:
 3656               	.LFB66:
 3657               	.LM395:
 3658               	/* prologue: function */
 3659               	/* frame size = 0 */
 3660               	/* epilogue start */
 3661               	.LM396:
 3662 10e6 0895      		ret
 3663               	.LFE66:
 3665               	.global	Timebase_Init
 3667               	Timebase_Init:
 3668               	.LFB67:
 3669               	.LM397:
 3670               	.LVL235:
 3671 10e8 0F93      		push r16
 3672 10ea 1F93      		push r17
 3673               	/* prologue: function */
 3674               	/* frame size = 0 */
 3675 10ec 8C01      		movw r16,r24
 3676               	.LM398:
 3677 10ee 0E94 0000 		call Timebase_Struct_Init
 3678               	.LVL236:
 3679               	.LM399:
 3680 10f2 C801      		movw r24,r16
 3681 10f4 0E94 0000 		call Timebase_Timer_Enable
 3682               	.LBB452:
 3683               	.LBB453:
 3684               	.LM400:
 3685 10f8 0E94 0000 		call Timebase_DownCounter_SS_Reset_All
 3686               	/* epilogue start */
 3687               	.LBE453:
 3688               	.LBE452:
 3689               	.LM401:
 3690 10fc 1F91      		pop r17
 3691 10fe 0F91      		pop r16
 3692               	.LVL237:
 3693 1100 0895      		ret
 3694               	.LFE67:
 3696               	.global	Timebase_Main_Loop_Executables
 3698               	Timebase_Main_Loop_Executables:
 3699               	.LFB68:
 3700               	.LM402:
 3701               	/* prologue: function */
 3702               	/* frame size = 0 */
 3703               	.LM403:
 3704 1102 E091 0000 		lds r30,Timebase
 3705 1106 F091 0000 		lds r31,(Timebase)+1
 3706 110a 82A1      		ldd r24,Z+34
 3707 110c 83FF      		sbrs r24,3
 3708 110e 00C0      		rjmp .L201
 3709               	.LM404:
 3710 1110 0E94 0000 		call Timebase_Timer_Sync_With_Shadow_Variables
 3711               	.LM405:
 3712 1114 0E94 0000 		call Timebase_DownCounter_SS_Update_All
 3713               	.LM406:
 3714 1118 E091 0000 		lds r30,Timebase
 3715 111c F091 0000 		lds r31,(Timebase)+1
 3716 1120 82A1      		ldd r24,Z+34
 3717 1122 877F      		andi r24,lo8(-9)
 3718 1124 82A3      		std Z+34,r24
 3719               	.L201:
 3720               	.LM407:
 3721 1126 E091 0000 		lds r30,Timebase
 3722 112a F091 0000 		lds r31,(Timebase)+1
 3723 112e 108E      		std Z+24,__zero_reg__
 3724               	/* epilogue start */
 3725               	.LM408:
 3726 1130 0895      		ret
 3727               	.LFE68:
 3729               	.global	Timebase_ISR_Executables
 3731               	Timebase_ISR_Executables:
 3732               	.LFB69:
 3733               	.LM409:
 3734               	/* prologue: function */
 3735               	/* frame size = 0 */
 3736               	.LM410:
 3737 1132 E091 0000 		lds r30,Timebase
 3738 1136 F091 0000 		lds r31,(Timebase)+1
 3739 113a 8685      		ldd r24,Z+14
 3740 113c 9785      		ldd r25,Z+15
 3741 113e 0196      		adiw r24,1
 3742 1140 9787      		std Z+15,r25
 3743 1142 8687      		std Z+14,r24
 3744               	.LM411:
 3745 1144 8089      		ldd r24,Z+16
 3746 1146 9189      		ldd r25,Z+17
 3747 1148 A289      		ldd r26,Z+18
 3748 114a B389      		ldd r27,Z+19
 3749 114c 0196      		adiw r24,1
 3750 114e A11D      		adc r26,__zero_reg__
 3751 1150 B11D      		adc r27,__zero_reg__
 3752 1152 808B      		std Z+16,r24
 3753 1154 918B      		std Z+17,r25
 3754 1156 A28B      		std Z+18,r26
 3755 1158 B38B      		std Z+19,r27
 3756               	.LM412:
 3757 115a 82A1      		ldd r24,Z+34
 3758 115c 8860      		ori r24,lo8(8)
 3759 115e 82A3      		std Z+34,r24
 3760               	.LM413:
 3761 1160 2685      		ldd r18,Z+14
 3762 1162 3785      		ldd r19,Z+15
 3763 1164 8081      		ld r24,Z
 3764 1166 9181      		ldd r25,Z+1
 3765 1168 2817      		cp r18,r24
 3766 116a 3907      		cpc r19,r25
 3767 116c 00F0      		brlo .L205
 3768               	.LM414:
 3769 116e 1786      		std Z+15,__zero_reg__
 3770 1170 1686      		std Z+14,__zero_reg__
 3771               	.LM415:
 3772 1172 8489      		ldd r24,Z+20
 3773 1174 9589      		ldd r25,Z+21
 3774 1176 A689      		ldd r26,Z+22
 3775 1178 B789      		ldd r27,Z+23
 3776 117a 0196      		adiw r24,1
 3777 117c A11D      		adc r26,__zero_reg__
 3778 117e B11D      		adc r27,__zero_reg__
 3779 1180 848B      		std Z+20,r24
 3780 1182 958B      		std Z+21,r25
 3781 1184 A68B      		std Z+22,r26
 3782 1186 B78B      		std Z+23,r27
 3783               	.L205:
 3784 1188 0895      		ret
 3785               	.LFE69:
 3787               	.global	__vector_16
 3789               	__vector_16:
 3790               	.LFB11:
 3791               	.LM416:
 3792 118a 1F92      		push __zero_reg__
 3793 118c 0F92      		push r0
 3794 118e 0FB6      		in r0,__SREG__
 3795 1190 0F92      		push r0
 3796 1192 1124      		clr __zero_reg__
 3797 1194 2F93      		push r18
 3798 1196 3F93      		push r19
 3799 1198 4F93      		push r20
 3800 119a 5F93      		push r21
 3801 119c 6F93      		push r22
 3802 119e 7F93      		push r23
 3803 11a0 8F93      		push r24
 3804 11a2 9F93      		push r25
 3805 11a4 AF93      		push r26
 3806 11a6 BF93      		push r27
 3807 11a8 EF93      		push r30
 3808 11aa FF93      		push r31
 3809               	/* prologue: Signal */
 3810               	/* frame size = 0 */
 3811               	.LM417:
 3812 11ac E091 0000 		lds r30,Timebase
 3813 11b0 F091 0000 		lds r31,(Timebase)+1
 3814 11b4 8281      		ldd r24,Z+2
 3815 11b6 9381      		ldd r25,Z+3
 3816 11b8 86BD      		out 70-32,r24
 3817               	.LM418:
 3818 11ba 0E94 0000 		call Timebase_ISR_Executables
 3819               	/* epilogue start */
 3820               	.LM419:
 3821 11be FF91      		pop r31
 3822 11c0 EF91      		pop r30
 3823 11c2 BF91      		pop r27
 3824 11c4 AF91      		pop r26
 3825 11c6 9F91      		pop r25
 3826 11c8 8F91      		pop r24
 3827 11ca 7F91      		pop r23
 3828 11cc 6F91      		pop r22
 3829 11ce 5F91      		pop r21
 3830 11d0 4F91      		pop r20
 3831 11d2 3F91      		pop r19
 3832 11d4 2F91      		pop r18
 3833 11d6 0F90      		pop r0
 3834 11d8 0FBE      		out __SREG__,r0
 3835 11da 0F90      		pop r0
 3836 11dc 1F90      		pop __zero_reg__
 3837 11de 1895      		reti
 3838               	.LFE11:
 3840               	.global	Timebase_LP_ISR_Executables
 3842               	Timebase_LP_ISR_Executables:
 3843               	.LFB70:
 3844               	.LM420:
 3845               	/* prologue: function */
 3846               	/* frame size = 0 */
 3847               	/* epilogue start */
 3848               	.LM421:
 3849 11e0 0895      		ret
 3850               	.LFE70:
 3852               		.data
 3855               	C.1.1781:
 3856 0000 0100      		.word	1
 3857 0002 0800      		.word	8
 3858 0004 4000      		.word	64
 3859 0006 0001      		.word	256
 3860 0008 0004      		.word	1024
 3861               		.comm Timebase_type,56,1
 3862               		.comm Timebase,2,1
 4399               	.Letext0:
DEFINED SYMBOLS
                            *ABS*:00000000 timebase.c
C:\Users\WALTON\AppData\Local\Temp/cczSjnI1.s:2      *ABS*:0000003f __SREG__
C:\Users\WALTON\AppData\Local\Temp/cczSjnI1.s:3      *ABS*:0000003e __SP_H__
C:\Users\WALTON\AppData\Local\Temp/cczSjnI1.s:4      *ABS*:0000003d __SP_L__
C:\Users\WALTON\AppData\Local\Temp/cczSjnI1.s:5      *ABS*:00000034 __CCP__
C:\Users\WALTON\AppData\Local\Temp/cczSjnI1.s:6      *ABS*:00000000 __tmp_reg__
C:\Users\WALTON\AppData\Local\Temp/cczSjnI1.s:7      *ABS*:00000001 __zero_reg__
C:\Users\WALTON\AppData\Local\Temp/cczSjnI1.s:18     .text:00000000 Timebase_Struct_Init
                            *COM*:00000038 Timebase_type
                            *COM*:00000002 Timebase
C:\Users\WALTON\AppData\Local\Temp/cczSjnI1.s:114    .text:000000f2 Timebase_Timer_Enable
C:\Users\WALTON\AppData\Local\Temp/cczSjnI1.s:3855   .data:00000000 C.1.1781
C:\Users\WALTON\AppData\Local\Temp/cczSjnI1.s:332    .text:00000214 Timebase_Timer_Disable
C:\Users\WALTON\AppData\Local\Temp/cczSjnI1.s:359    .text:00000228 Timebase_Atomic_Operation_Start
C:\Users\WALTON\AppData\Local\Temp/cczSjnI1.s:377    .text:0000022c Timebase_Atomic_Operation_End
C:\Users\WALTON\AppData\Local\Temp/cczSjnI1.s:395    .text:00000230 Timebase_Timer_Get_SubSecondsShadow
C:\Users\WALTON\AppData\Local\Temp/cczSjnI1.s:413    .text:00000240 Timebase_Timer_Get_SubSecondsUpTime
C:\Users\WALTON\AppData\Local\Temp/cczSjnI1.s:434    .text:00000256 Timebase_Timer_Get_SecondsShadow
C:\Users\WALTON\AppData\Local\Temp/cczSjnI1.s:455    .text:0000026c Timebase_Timer_Get_SubSeconds
C:\Users\WALTON\AppData\Local\Temp/cczSjnI1.s:473    .text:0000027c Timebase_Timer_Get_Seconds
C:\Users\WALTON\AppData\Local\Temp/cczSjnI1.s:494    .text:00000292 Timebase_Timer_Set_SubSeconds
C:\Users\WALTON\AppData\Local\Temp/cczSjnI1.s:512    .text:000002a0 Timebase_Timer_Set_SubSecondsShadow
C:\Users\WALTON\AppData\Local\Temp/cczSjnI1.s:530    .text:000002ae Timebase_Timer_Set_SubSecondsUpTime
C:\Users\WALTON\AppData\Local\Temp/cczSjnI1.s:550    .text:000002c0 Timebase_Timer_Set_Seconds
C:\Users\WALTON\AppData\Local\Temp/cczSjnI1.s:570    .text:000002d2 Timebase_Timer_Get_SubSecondsShadow_Securely
C:\Users\WALTON\AppData\Local\Temp/cczSjnI1.s:599    .text:000002ec Timebase_Timer_Get_SubSecondsUpTime_Securely
C:\Users\WALTON\AppData\Local\Temp/cczSjnI1.s:636    .text:00000314 Timebase_Timer_Get_SecondsShadow_Securely
C:\Users\WALTON\AppData\Local\Temp/cczSjnI1.s:673    .text:0000033c Timebase_Timer_Sync_With_Shadow_Variables
C:\Users\WALTON\AppData\Local\Temp/cczSjnI1.s:742    .text:00000384 Timebase_Timer_Delay_SubSeconds
C:\Users\WALTON\AppData\Local\Temp/cczSjnI1.s:934    .text:00000472 Timebase_Timer_Await_SubSeconds
C:\Users\WALTON\AppData\Local\Temp/cczSjnI1.s:1088   .text:00000530 Timebase_Timer_Delay_Seconds
C:\Users\WALTON\AppData\Local\Temp/cczSjnI1.s:1186   .text:000005a2 Timebase_Window_Timer_Reset
C:\Users\WALTON\AppData\Local\Temp/cczSjnI1.s:1212   .text:000005be Timebase_Window_Timer_Start
C:\Users\WALTON\AppData\Local\Temp/cczSjnI1.s:1280   .text:000005f6 Timebase_Window_Timer_Get_Interval
C:\Users\WALTON\AppData\Local\Temp/cczSjnI1.s:1396   .text:00000674 Timebase_Window_Timer_Get_Interval_Reset
C:\Users\WALTON\AppData\Local\Temp/cczSjnI1.s:1436   .text:0000069e Timebase_DownCounter_SS_Get_Status
C:\Users\WALTON\AppData\Local\Temp/cczSjnI1.s:1470   .text:000006c8 Timebase_DownCounter_SS_Set_Status
C:\Users\WALTON\AppData\Local\Temp/cczSjnI1.s:1508   .text:000006f8 Timebase_DownCounter_SS_Get_Value
C:\Users\WALTON\AppData\Local\Temp/cczSjnI1.s:1551   .text:00000732 Timebase_DownCounter_SS_Set_Value
C:\Users\WALTON\AppData\Local\Temp/cczSjnI1.s:1586   .text:0000075e Timebase_DownCounter_SS_Get_EndValueSec
C:\Users\WALTON\AppData\Local\Temp/cczSjnI1.s:1629   .text:00000798 Timebase_DownCounter_SS_Get_EndValueSubSec
C:\Users\WALTON\AppData\Local\Temp/cczSjnI1.s:1672   .text:000007d2 Timebase_DownCounter_SS_Set_EndValueSec
C:\Users\WALTON\AppData\Local\Temp/cczSjnI1.s:1707   .text:000007fe Timebase_DownCounter_SS_Set_EndValueSubSec
C:\Users\WALTON\AppData\Local\Temp/cczSjnI1.s:1742   .text:0000082a Timebase_DownCounter_SS_Get_PeriodValue
C:\Users\WALTON\AppData\Local\Temp/cczSjnI1.s:1785   .text:00000864 Timebase_DownCounter_SS_Set_PeriodValue
C:\Users\WALTON\AppData\Local\Temp/cczSjnI1.s:1843   .text:000008b8 Timebase_DownCounter_SS_Get_Period_Flag
C:\Users\WALTON\AppData\Local\Temp/cczSjnI1.s:1876   .text:000008e0 Timebase_DownCounter_SS_Set_Period_Flag
C:\Users\WALTON\AppData\Local\Temp/cczSjnI1.s:1910   .text:0000090a Timebase_DownCounter_SS_Clear_Period_Flag
C:\Users\WALTON\AppData\Local\Temp/cczSjnI1.s:1944   .text:00000934 Timebase_DownCounter_SS_Get_ReloadValue
C:\Users\WALTON\AppData\Local\Temp/cczSjnI1.s:1987   .text:0000096e Timebase_DownCounter_SS_Set_ReloadValue
C:\Users\WALTON\AppData\Local\Temp/cczSjnI1.s:2022   .text:0000099a Timebase_DownCounter_SS_Reset
C:\Users\WALTON\AppData\Local\Temp/cczSjnI1.s:2100   .text:000009e4 Timebase_DownCounter_SS_Clear_All_Flags
C:\Users\WALTON\AppData\Local\Temp/cczSjnI1.s:2182   .text:00000a2e Timebase_DownCounter_SS_Start
C:\Users\WALTON\AppData\Local\Temp/cczSjnI1.s:2230   .text:00000a64 Timebase_DownCounter_SS_Stop
C:\Users\WALTON\AppData\Local\Temp/cczSjnI1.s:2278   .text:00000a9a Timebase_DownCounter_SS_Set_Securely
C:\Users\WALTON\AppData\Local\Temp/cczSjnI1.s:2559   .text:00000c38 Timebase_DownCounter_SS_Set_Forcefully
C:\Users\WALTON\AppData\Local\Temp/cczSjnI1.s:2674   .text:00000cba Timebase_DownCounter_SS_Update
C:\Users\WALTON\AppData\Local\Temp/cczSjnI1.s:2972   .text:00000e20 Timebase_DownCounter_SS_Expired
C:\Users\WALTON\AppData\Local\Temp/cczSjnI1.s:3012   .text:00000e54 Timebase_DownCounter_SS_Expired_Event
C:\Users\WALTON\AppData\Local\Temp/cczSjnI1.s:3112   .text:00000eae Timebase_DownCounter_SS_Oneshot_Expired_Event
C:\Users\WALTON\AppData\Local\Temp/cczSjnI1.s:3128   .text:00000eb4 Timebase_DownCounter_SS_Continuous_Expired_Event
C:\Users\WALTON\AppData\Local\Temp/cczSjnI1.s:3246   .text:00000f20 Timebase_DownCounter_SS_Set_Period_Value_Securely
C:\Users\WALTON\AppData\Local\Temp/cczSjnI1.s:3337   .text:00000f94 Timebase_DownCounter_SS_Get_Remaining_Period_Value
C:\Users\WALTON\AppData\Local\Temp/cczSjnI1.s:3395   .text:00000fe0 Timebase_DownCounter_SS_Period_Value_Expired
C:\Users\WALTON\AppData\Local\Temp/cczSjnI1.s:3487   .text:0000105c Timebase_DownCounter_SS_Period_Value_Expired_Event
C:\Users\WALTON\AppData\Local\Temp/cczSjnI1.s:3539   .text:0000109c Timebase_DownCounter_SS_Update_All
C:\Users\WALTON\AppData\Local\Temp/cczSjnI1.s:3556   .text:000010a4 Timebase_DownCounter_SS_Reset_All
C:\Users\WALTON\AppData\Local\Temp/cczSjnI1.s:3625   .text:000010d4 Timebase_Get_Update_Req_Sts
C:\Users\WALTON\AppData\Local\Temp/cczSjnI1.s:3641   .text:000010e0 Timebase_Reset
C:\Users\WALTON\AppData\Local\Temp/cczSjnI1.s:3655   .text:000010e6 Timebase_LP_Reset
C:\Users\WALTON\AppData\Local\Temp/cczSjnI1.s:3667   .text:000010e8 Timebase_Init
C:\Users\WALTON\AppData\Local\Temp/cczSjnI1.s:3698   .text:00001102 Timebase_Main_Loop_Executables
C:\Users\WALTON\AppData\Local\Temp/cczSjnI1.s:3731   .text:00001132 Timebase_ISR_Executables
C:\Users\WALTON\AppData\Local\Temp/cczSjnI1.s:3789   .text:0000118a __vector_16
C:\Users\WALTON\AppData\Local\Temp/cczSjnI1.s:3842   .text:000011e0 Timebase_LP_ISR_Executables

UNDEFINED SYMBOLS
__divmodsi4
__mulsi3
__do_copy_data
__do_clear_bss
