   1               		.file	"timebase.c"
   2               	__SREG__ = 0x3f
   3               	__SP_H__ = 0x3e
   4               	__SP_L__ = 0x3d
   5               	__CCP__  = 0x34
   6               	__tmp_reg__ = 0
   7               	__zero_reg__ = 1
  15               	.Ltext0:
  16               	.global	Timebase_Struct_Init
  18               	Timebase_Struct_Init:
  19               	.LFB6:
  20               	.LM1:
  21               	/* prologue: function */
  22               	/* frame size = 0 */
  23               	.LM2:
  24 0000 80E0      		ldi r24,lo8(Timebase_type)
  25 0002 90E0      		ldi r25,hi8(Timebase_type)
  26 0004 9093 0000 		sts (Timebase)+1,r25
  27 0008 8093 0000 		sts Timebase,r24
  28               	.LM3:
  29 000c 1092 0000 		sts Timebase_type,__zero_reg__
  30               	.LM4:
  31 0010 8091 0000 		lds r24,Timebase_type
  32 0014 8460      		ori r24,lo8(4)
  33 0016 8093 0000 		sts Timebase_type,r24
  34               	.LM5:
  35 001a 8091 0000 		lds r24,Timebase_type
  36 001e 8770      		andi r24,lo8(7)
  37 0020 8093 0000 		sts Timebase_type,r24
  38               	.LM6:
  39 0024 81E0      		ldi r24,lo8(1)
  40 0026 90E0      		ldi r25,hi8(1)
  41 0028 9093 0000 		sts (Timebase_type+1)+1,r25
  42 002c 8093 0000 		sts Timebase_type+1,r24
  43               	.LM7:
  44 0030 1092 0000 		sts Timebase_type+3,__zero_reg__
  45               	.LM8:
  46 0034 1092 0000 		sts (Timebase_type+14)+1,__zero_reg__
  47 0038 1092 0000 		sts Timebase_type+14,__zero_reg__
  48               	.LM9:
  49 003c 1092 0000 		sts Timebase_type+16,__zero_reg__
  50 0040 1092 0000 		sts (Timebase_type+16)+1,__zero_reg__
  51 0044 1092 0000 		sts (Timebase_type+16)+2,__zero_reg__
  52 0048 1092 0000 		sts (Timebase_type+16)+3,__zero_reg__
  53               	.LM10:
  54 004c 1092 0000 		sts (Timebase_type+8)+1,__zero_reg__
  55 0050 1092 0000 		sts Timebase_type+8,__zero_reg__
  56               	.LM11:
  57 0054 1092 0000 		sts Timebase_type+10,__zero_reg__
  58 0058 1092 0000 		sts (Timebase_type+10)+1,__zero_reg__
  59 005c 1092 0000 		sts (Timebase_type+10)+2,__zero_reg__
  60 0060 1092 0000 		sts (Timebase_type+10)+3,__zero_reg__
  61               	.LM12:
  62 0064 1092 0000 		sts Timebase_type+4,__zero_reg__
  63 0068 1092 0000 		sts (Timebase_type+4)+1,__zero_reg__
  64 006c 1092 0000 		sts (Timebase_type+4)+2,__zero_reg__
  65 0070 1092 0000 		sts (Timebase_type+4)+3,__zero_reg__
  66               	.LM13:
  67 0074 1092 0000 		sts Timebase_type+20,__zero_reg__
  68 0078 1092 0000 		sts (Timebase_type+20)+1,__zero_reg__
  69 007c 1092 0000 		sts (Timebase_type+20)+2,__zero_reg__
  70 0080 1092 0000 		sts (Timebase_type+20)+3,__zero_reg__
  71               	.LM14:
  72 0084 1092 0000 		sts Timebase_type+24,__zero_reg__
  73 0088 1092 0000 		sts (Timebase_type+24)+1,__zero_reg__
  74 008c 1092 0000 		sts (Timebase_type+24)+2,__zero_reg__
  75 0090 1092 0000 		sts (Timebase_type+24)+3,__zero_reg__
  76               	.LM15:
  77 0094 1092 0000 		sts Timebase_type+28,__zero_reg__
  78               	.LM16:
  79 0098 1092 0000 		sts Timebase_type+29,__zero_reg__
  80               	.LM17:
  81 009c 1092 0000 		sts Timebase_type+30,__zero_reg__
  82               	.LBB534:
  83               	.LM18:
  84 00a0 1092 0000 		sts Timebase_type+56,__zero_reg__
  85               	.LM19:
  86 00a4 1092 0000 		sts Timebase_type+57,__zero_reg__
  87 00a8 1092 0000 		sts (Timebase_type+57)+1,__zero_reg__
  88 00ac 1092 0000 		sts (Timebase_type+57)+2,__zero_reg__
  89 00b0 1092 0000 		sts (Timebase_type+57)+3,__zero_reg__
  90               	.LM20:
  91 00b4 1092 0000 		sts Timebase_type+61,__zero_reg__
  92 00b8 1092 0000 		sts (Timebase_type+61)+1,__zero_reg__
  93 00bc 1092 0000 		sts (Timebase_type+61)+2,__zero_reg__
  94 00c0 1092 0000 		sts (Timebase_type+61)+3,__zero_reg__
  95               	.LM21:
  96 00c4 1092 0000 		sts Timebase_type+65,__zero_reg__
  97 00c8 1092 0000 		sts (Timebase_type+65)+1,__zero_reg__
  98 00cc 1092 0000 		sts (Timebase_type+65)+2,__zero_reg__
  99 00d0 1092 0000 		sts (Timebase_type+65)+3,__zero_reg__
 100               	.LM22:
 101 00d4 1092 0000 		sts Timebase_type+69,__zero_reg__
 102 00d8 1092 0000 		sts (Timebase_type+69)+1,__zero_reg__
 103 00dc 1092 0000 		sts (Timebase_type+69)+2,__zero_reg__
 104 00e0 1092 0000 		sts (Timebase_type+69)+3,__zero_reg__
 105               	.LM23:
 106 00e4 1092 0000 		sts Timebase_type+73,__zero_reg__
 107 00e8 1092 0000 		sts (Timebase_type+73)+1,__zero_reg__
 108 00ec 1092 0000 		sts (Timebase_type+73)+2,__zero_reg__
 109 00f0 1092 0000 		sts (Timebase_type+73)+3,__zero_reg__
 110               	.LBE534:
 111               	.LBB535:
 112               	.LM24:
 113 00f4 1092 0000 		sts Timebase_type+31,__zero_reg__
 114               	.LM25:
 115 00f8 1092 0000 		sts Timebase_type+32,__zero_reg__
 116 00fc 1092 0000 		sts (Timebase_type+32)+1,__zero_reg__
 117 0100 1092 0000 		sts (Timebase_type+32)+2,__zero_reg__
 118 0104 1092 0000 		sts (Timebase_type+32)+3,__zero_reg__
 119               	.LM26:
 120 0108 1092 0000 		sts Timebase_type+36,__zero_reg__
 121 010c 1092 0000 		sts (Timebase_type+36)+1,__zero_reg__
 122 0110 1092 0000 		sts (Timebase_type+36)+2,__zero_reg__
 123 0114 1092 0000 		sts (Timebase_type+36)+3,__zero_reg__
 124               	.LM27:
 125 0118 1092 0000 		sts Timebase_type+40,__zero_reg__
 126 011c 1092 0000 		sts (Timebase_type+40)+1,__zero_reg__
 127 0120 1092 0000 		sts (Timebase_type+40)+2,__zero_reg__
 128 0124 1092 0000 		sts (Timebase_type+40)+3,__zero_reg__
 129               	.LM28:
 130 0128 1092 0000 		sts Timebase_type+44,__zero_reg__
 131 012c 1092 0000 		sts (Timebase_type+44)+1,__zero_reg__
 132 0130 1092 0000 		sts (Timebase_type+44)+2,__zero_reg__
 133 0134 1092 0000 		sts (Timebase_type+44)+3,__zero_reg__
 134               	.LM29:
 135 0138 1092 0000 		sts Timebase_type+48,__zero_reg__
 136 013c 1092 0000 		sts (Timebase_type+48)+1,__zero_reg__
 137 0140 1092 0000 		sts (Timebase_type+48)+2,__zero_reg__
 138 0144 1092 0000 		sts (Timebase_type+48)+3,__zero_reg__
 139               	.LM30:
 140 0148 1092 0000 		sts Timebase_type+52,__zero_reg__
 141 014c 1092 0000 		sts (Timebase_type+52)+1,__zero_reg__
 142 0150 1092 0000 		sts (Timebase_type+52)+2,__zero_reg__
 143 0154 1092 0000 		sts (Timebase_type+52)+3,__zero_reg__
 144               	.LBE535:
 145               	.LBB536:
 146               	.LM31:
 147 0158 1092 0000 		sts Timebase_type+94,__zero_reg__
 148               	.LM32:
 149 015c 1092 0000 		sts Timebase_type+95,__zero_reg__
 150 0160 1092 0000 		sts (Timebase_type+95)+1,__zero_reg__
 151 0164 1092 0000 		sts (Timebase_type+95)+2,__zero_reg__
 152 0168 1092 0000 		sts (Timebase_type+95)+3,__zero_reg__
 153               	.LM33:
 154 016c 1092 0000 		sts Timebase_type+99,__zero_reg__
 155 0170 1092 0000 		sts (Timebase_type+99)+1,__zero_reg__
 156 0174 1092 0000 		sts (Timebase_type+99)+2,__zero_reg__
 157 0178 1092 0000 		sts (Timebase_type+99)+3,__zero_reg__
 158               	.LM34:
 159 017c 1092 0000 		sts Timebase_type+103,__zero_reg__
 160 0180 1092 0000 		sts (Timebase_type+103)+1,__zero_reg__
 161 0184 1092 0000 		sts (Timebase_type+103)+2,__zero_reg__
 162 0188 1092 0000 		sts (Timebase_type+103)+3,__zero_reg__
 163               	.LBE536:
 164               	.LBB537:
 165               	.LM35:
 166 018c 1092 0000 		sts Timebase_type+77,__zero_reg__
 167               	.LM36:
 168 0190 1092 0000 		sts Timebase_type+78,__zero_reg__
 169 0194 1092 0000 		sts (Timebase_type+78)+1,__zero_reg__
 170 0198 1092 0000 		sts (Timebase_type+78)+2,__zero_reg__
 171 019c 1092 0000 		sts (Timebase_type+78)+3,__zero_reg__
 172               	.LM37:
 173 01a0 1092 0000 		sts Timebase_type+82,__zero_reg__
 174 01a4 1092 0000 		sts (Timebase_type+82)+1,__zero_reg__
 175 01a8 1092 0000 		sts (Timebase_type+82)+2,__zero_reg__
 176 01ac 1092 0000 		sts (Timebase_type+82)+3,__zero_reg__
 177               	.LM38:
 178 01b0 1092 0000 		sts Timebase_type+86,__zero_reg__
 179 01b4 1092 0000 		sts (Timebase_type+86)+1,__zero_reg__
 180 01b8 1092 0000 		sts (Timebase_type+86)+2,__zero_reg__
 181 01bc 1092 0000 		sts (Timebase_type+86)+3,__zero_reg__
 182               	.LM39:
 183 01c0 1092 0000 		sts Timebase_type+90,__zero_reg__
 184 01c4 1092 0000 		sts (Timebase_type+90)+1,__zero_reg__
 185 01c8 1092 0000 		sts (Timebase_type+90)+2,__zero_reg__
 186 01cc 1092 0000 		sts (Timebase_type+90)+3,__zero_reg__
 187               	/* epilogue start */
 188               	.LBE537:
 189               	.LM40:
 190 01d0 0895      		ret
 191               	.LFE6:
 193               	.global	Timebase_Timer_Config
 195               	Timebase_Timer_Config:
 196               	.LFB7:
 197               	.LM41:
 198               	.LVL0:
 199 01d2 7F92      		push r7
 200 01d4 8F92      		push r8
 201 01d6 9F92      		push r9
 202 01d8 AF92      		push r10
 203 01da BF92      		push r11
 204 01dc CF92      		push r12
 205 01de DF92      		push r13
 206 01e0 EF92      		push r14
 207 01e2 FF92      		push r15
 208 01e4 0F93      		push r16
 209 01e6 1F93      		push r17
 210 01e8 DF93      		push r29
 211 01ea CF93      		push r28
 212 01ec CDB7      		in r28,__SP_L__
 213 01ee DEB7      		in r29,__SP_H__
 214 01f0 2A97      		sbiw r28,10
 215 01f2 0FB6      		in __tmp_reg__,__SREG__
 216 01f4 F894      		cli
 217 01f6 DEBF      		out __SP_H__,r29
 218 01f8 0FBE      		out __SREG__,__tmp_reg__
 219 01fa CDBF      		out __SP_L__,r28
 220               	/* prologue: function */
 221               	/* frame size = 10 */
 222 01fc 8C01      		movw r16,r24
 223               	.LM42:
 224 01fe C090 0000 		lds r12,Timebase
 225 0202 D090 0000 		lds r13,(Timebase)+1
 226 0206 F601      		movw r30,r12
 227 0208 8081      		ld r24,Z
 228               	.LVL1:
 229 020a 80FF      		sbrs r24,0
 230 020c 00C0      		rjmp .L4
 231               	.LBB538:
 232               	.LM43:
 233 020e 0130      		cpi r16,1
 234 0210 1105      		cpc r17,__zero_reg__
 235 0212 01F4      		brne .L5
 236 0214 96E0      		ldi r25,lo8(6)
 237               	.LVL2:
 238 0216 00C0      		rjmp .L6
 239               	.LVL3:
 240               	.L5:
 241               	.LM44:
 242 0218 0230      		cpi r16,2
 243 021a 1105      		cpc r17,__zero_reg__
 244 021c 01F4      		brne .L7
 245 021e 95E0      		ldi r25,lo8(5)
 246               	.LVL4:
 247 0220 00C0      		rjmp .L6
 248               	.LVL5:
 249               	.L7:
 250               	.LM45:
 251 0222 0430      		cpi r16,4
 252 0224 1105      		cpc r17,__zero_reg__
 253 0226 01F4      		brne .L8
 254 0228 94E0      		ldi r25,lo8(4)
 255               	.LVL6:
 256 022a 00C0      		rjmp .L6
 257               	.LVL7:
 258               	.L8:
 259               	.LM46:
 260 022c 0830      		cpi r16,8
 261 022e 1105      		cpc r17,__zero_reg__
 262 0230 01F4      		brne .L9
 263 0232 93E0      		ldi r25,lo8(3)
 264               	.LVL8:
 265 0234 00C0      		rjmp .L6
 266               	.LVL9:
 267               	.L9:
 268               	.LM47:
 269 0236 0031      		cpi r16,16
 270 0238 1105      		cpc r17,__zero_reg__
 271 023a 01F4      		brne .L10
 272 023c 92E0      		ldi r25,lo8(2)
 273               	.LVL10:
 274 023e 00C0      		rjmp .L6
 275               	.LVL11:
 276               	.L10:
 277 0240 90E0      		ldi r25,lo8(0)
 278               	.LVL12:
 279 0242 0032      		cpi r16,32
 280 0244 1105      		cpc r17,__zero_reg__
 281 0246 01F4      		brne .L6
 282 0248 91E0      		ldi r25,lo8(1)
 283               	.L6:
 284               	.LM48:
 285               	/* #APP */
 286               	 ;  271 "timebase.c" 1
 287 024a F894      		cli
 288               	 ;  0 "" 2
 289               	.LM49:
 290               	/* #NOAPP */
 291 024c 84B7      		in r24,84-32
 292 024e 877F      		andi r24,lo8(-9)
 293 0250 84BF      		out 84-32,r24
 294               	.LM50:
 295 0252 8091 6000 		lds r24,96
 296 0256 8068      		ori r24,lo8(-128)
 297 0258 8093 6000 		sts 96,r24
 298               	.LM51:
 299 025c 8091 6000 		lds r24,96
 300 0260 8861      		ori r24,lo8(24)
 301 0262 8093 6000 		sts 96,r24
 302               	.LM52:
 303 0266 9064      		ori r25,lo8(64)
 304 0268 9093 6000 		sts 96,r25
 305               	.LM53:
 306               	/* #APP */
 307               	 ;  276 "timebase.c" 1
 308 026c 7894      		sei
 309               	 ;  0 "" 2
 310               	/* #NOAPP */
 311 026e 00C0      		rjmp .L12
 312               	.LVL13:
 313               	.L4:
 314               	.LBE538:
 315               	.LM54:
 316 0270 81FD      		sbrc r24,1
 317 0272 00C0      		rjmp .L12
 318               	.LM55:
 319 0274 82FF      		sbrs r24,2
 320 0276 00C0      		rjmp .L12
 321               	.LBB539:
 322               	.LM56:
 323 0278 DE01      		movw r26,r28
 324 027a 1196      		adiw r26,1
 325 027c E0E0      		ldi r30,lo8(C.2.1700)
 326 027e F0E0      		ldi r31,hi8(C.2.1700)
 327 0280 8AE0      		ldi r24,lo8(10)
 328               	.L13:
 329 0282 0190      		ld r0,Z+
 330 0284 0D92      		st X+,r0
 331 0286 8150      		subi r24,lo8(-(-1))
 332 0288 01F4      		brne .L13
 333               	.LM57:
 334 028a 9801      		movw r18,r16
 335 028c 40E0      		ldi r20,lo8(0)
 336 028e 50E0      		ldi r21,hi8(0)
 337               	.LVL14:
 338 0290 60E0      		ldi r22,lo8(12000000)
 339 0292 7BE1      		ldi r23,hi8(12000000)
 340 0294 87EB      		ldi r24,hlo8(12000000)
 341 0296 90E0      		ldi r25,hhi8(12000000)
 342 0298 0E94 0000 		call __divmodsi4
 343 029c 722E      		mov r7,r18
 344 029e 832E      		mov r8,r19
 345 02a0 942E      		mov r9,r20
 346               	.LVL15:
 347 02a2 E52E      		mov r14,r21
 348 02a4 5E01      		movw r10,r28
 349 02a6 0894      		sec
 350 02a8 A11C      		adc r10,__zero_reg__
 351 02aa B11C      		adc r11,__zero_reg__
 352 02ac C901      		movw r24,r18
 353 02ae DA01      		movw r26,r20
 354 02b0 9C01      		movw r18,r24
 355 02b2 AD01      		movw r20,r26
 356               	.LVL16:
 357 02b4 FF24      		clr r15
 358               	.LVL17:
 359 02b6 00C0      		rjmp .L14
 360               	.LVL18:
 361               	.L16:
 362               	.LM58:
 363 02b8 F501      		movw r30,r10
 364 02ba 2191      		ld r18,Z+
 365 02bc 3191      		ld r19,Z+
 366               	.LVL19:
 367 02be 5F01      		movw r10,r30
 368 02c0 40E0      		ldi r20,lo8(0)
 369 02c2 50E0      		ldi r21,hi8(0)
 370 02c4 672D      		mov r22,r7
 371 02c6 782D      		mov r23,r8
 372 02c8 892D      		mov r24,r9
 373               	.LVL20:
 374 02ca 9E2D      		mov r25,r14
 375 02cc 0E94 0000 		call __divmodsi4
 376 02d0 C901      		movw r24,r18
 377 02d2 DA01      		movw r26,r20
 378 02d4 9C01      		movw r18,r24
 379 02d6 AD01      		movw r20,r26
 380               	.LVL21:
 381               	.LM59:
 382 02d8 F394      		inc r15
 383               	.LM60:
 384 02da F5E0      		ldi r31,lo8(5)
 385 02dc FF16      		cp r15,r31
 386 02de 01F0      		breq .L15
 387               	.LVL22:
 388               	.L14:
 389               	.LM61:
 390 02e0 2F3F      		cpi r18,lo8(255)
 391 02e2 3105      		cpc r19,__zero_reg__
 392 02e4 4105      		cpc r20,__zero_reg__
 393 02e6 5105      		cpc r21,__zero_reg__
 394 02e8 01F0      		breq .+2
 395 02ea 04F4      		brge .L16
 396               	.L15:
 397               	.LM62:
 398 02ec 8F2D      		mov r24,r15
 399 02ee 8150      		subi r24,lo8(-(-1))
 400               	.LVL23:
 401               	.LM63:
 402 02f0 14BC      		out 68-32,__zero_reg__
 403               	.LM64:
 404 02f2 15BC      		out 69-32,__zero_reg__
 405               	.LM65:
 406 02f4 1092 6E00 		sts 110,__zero_reg__
 407               	.LM66:
 408 02f8 15BA      		out 53-32,__zero_reg__
 409               	.LM67:
 410 02fa 17BC      		out 71-32,__zero_reg__
 411               	.LM68:
 412 02fc 18BC      		out 72-32,__zero_reg__
 413               	.LM69:
 414 02fe 16BC      		out 70-32,__zero_reg__
 415               	.LM70:
 416 0300 17BC      		out 71-32,__zero_reg__
 417               	.LM71:
 418 0302 8823      		tst r24
 419 0304 01F4      		brne .L17
 420               	.LM72:
 421 0306 81E0      		ldi r24,lo8(1)
 422               	.LVL24:
 423 0308 00C0      		rjmp .L24
 424               	.LVL25:
 425               	.L17:
 426               	.LM73:
 427 030a 8130      		cpi r24,lo8(1)
 428 030c 01F4      		brne .L19
 429               	.LM74:
 430 030e 82E0      		ldi r24,lo8(2)
 431               	.LVL26:
 432 0310 00C0      		rjmp .L24
 433               	.LVL27:
 434               	.L19:
 435               	.LM75:
 436 0312 8230      		cpi r24,lo8(2)
 437 0314 01F4      		brne .L20
 438               	.LM76:
 439 0316 83E0      		ldi r24,lo8(3)
 440               	.LVL28:
 441 0318 00C0      		rjmp .L24
 442               	.LVL29:
 443               	.L20:
 444               	.LM77:
 445 031a 8330      		cpi r24,lo8(3)
 446 031c 01F4      		brne .L21
 447               	.LM78:
 448 031e 84E0      		ldi r24,lo8(4)
 449               	.LVL30:
 450 0320 00C0      		rjmp .L24
 451               	.LVL31:
 452               	.L21:
 453               	.LM79:
 454 0322 8430      		cpi r24,lo8(4)
 455 0324 01F4      		brne .L18
 456               	.LM80:
 457 0326 85E0      		ldi r24,lo8(5)
 458               	.LVL32:
 459               	.L24:
 460 0328 85BD      		out 69-32,r24
 461               	.LVL33:
 462               	.L18:
 463               	.LM81:
 464 032a 822F      		mov r24,r18
 465               	.LVL34:
 466 032c 8095      		com r24
 467 032e F601      		movw r30,r12
 468 0330 8383      		std Z+3,r24
 469               	.LM82:
 470 0332 8381      		ldd r24,Z+3
 471 0334 86BD      		out 70-32,r24
 472               	.LM83:
 473 0336 81E0      		ldi r24,lo8(1)
 474 0338 8093 6E00 		sts 110,r24
 475               	.LM84:
 476               	/* #APP */
 477               	 ;  324 "timebase.c" 1
 478 033c 7894      		sei
 479               	 ;  0 "" 2
 480               	.LVL35:
 481               	/* #NOAPP */
 482               	.L12:
 483               	.LBE539:
 484               	.LM85:
 485 033e F601      		movw r30,r12
 486 0340 1283      		std Z+2,r17
 487 0342 0183      		std Z+1,r16
 488               	/* epilogue start */
 489               	.LM86:
 490 0344 2A96      		adiw r28,10
 491 0346 0FB6      		in __tmp_reg__,__SREG__
 492 0348 F894      		cli
 493 034a DEBF      		out __SP_H__,r29
 494 034c 0FBE      		out __SREG__,__tmp_reg__
 495 034e CDBF      		out __SP_L__,r28
 496 0350 CF91      		pop r28
 497 0352 DF91      		pop r29
 498 0354 1F91      		pop r17
 499 0356 0F91      		pop r16
 500               	.LVL36:
 501 0358 FF90      		pop r15
 502 035a EF90      		pop r14
 503 035c DF90      		pop r13
 504 035e CF90      		pop r12
 505 0360 BF90      		pop r11
 506 0362 AF90      		pop r10
 507 0364 9F90      		pop r9
 508 0366 8F90      		pop r8
 509 0368 7F90      		pop r7
 510 036a 0895      		ret
 511               	.LFE7:
 513               	.global	Timebase_Atomic_Operation_Start
 515               	Timebase_Atomic_Operation_Start:
 516               	.LFB8:
 517               	.LM87:
 518               	/* prologue: function */
 519               	/* frame size = 0 */
 520               	.LM88:
 521               	/* #APP */
 522               	 ;  344 "timebase.c" 1
 523 036c F894      		cli
 524               	 ;  0 "" 2
 525               	/* epilogue start */
 526               	.LM89:
 527               	/* #NOAPP */
 528 036e 0895      		ret
 529               	.LFE8:
 531               	.global	Timebase_Atomic_Operation_End
 533               	Timebase_Atomic_Operation_End:
 534               	.LFB9:
 535               	.LM90:
 536               	/* prologue: function */
 537               	/* frame size = 0 */
 538               	.LM91:
 539               	/* #APP */
 540               	 ;  348 "timebase.c" 1
 541 0370 7894      		sei
 542               	 ;  0 "" 2
 543               	/* epilogue start */
 544               	.LM92:
 545               	/* #NOAPP */
 546 0372 0895      		ret
 547               	.LFE9:
 549               	.global	Timebase_Token_Executing
 551               	Timebase_Token_Executing:
 552               	.LFB10:
 553               	.LM93:
 554               	/* prologue: function */
 555               	/* frame size = 0 */
 556               	.LM94:
 557 0374 E091 0000 		lds r30,Timebase
 558 0378 F091 0000 		lds r31,(Timebase)+1
 559 037c 868D      		ldd r24,Z+30
 560               	/* epilogue start */
 561               	.LM95:
 562 037e 0895      		ret
 563               	.LFE10:
 565               	.global	Timebase_Token_Add
 567               	Timebase_Token_Add:
 568               	.LFB11:
 569               	.LM96:
 570               	/* prologue: function */
 571               	/* frame size = 0 */
 572               	.LBB540:
 573               	.LBB541:
 574               	.LM97:
 575 0380 E091 0000 		lds r30,Timebase
 576 0384 F091 0000 		lds r31,(Timebase)+1
 577 0388 868D      		ldd r24,Z+30
 578               	.LBE541:
 579               	.LBE540:
 580               	.LM98:
 581 038a 8F33      		cpi r24,lo8(63)
 582 038c 00F4      		brsh .L33
 583               	.LM99:
 584 038e 868D      		ldd r24,Z+30
 585 0390 8F5F      		subi r24,lo8(-(1))
 586 0392 868F      		std Z+30,r24
 587               	.L33:
 588 0394 0895      		ret
 589               	.LFE11:
 591               	.global	Timebase_Token_Remove
 593               	Timebase_Token_Remove:
 594               	.LFB12:
 595               	.LM100:
 596               	/* prologue: function */
 597               	/* frame size = 0 */
 598               	.LBB542:
 599               	.LBB543:
 600               	.LM101:
 601 0396 E091 0000 		lds r30,Timebase
 602 039a F091 0000 		lds r31,(Timebase)+1
 603 039e 868D      		ldd r24,Z+30
 604               	.LBE543:
 605               	.LBE542:
 606               	.LM102:
 607 03a0 8823      		tst r24
 608 03a2 01F0      		breq .L36
 609               	.LM103:
 610 03a4 868D      		ldd r24,Z+30
 611 03a6 8150      		subi r24,lo8(-(-1))
 612 03a8 868F      		std Z+30,r24
 613               	.L36:
 614 03aa 0895      		ret
 615               	.LFE12:
 617               	.global	Timebase_Token_Remove_All
 619               	Timebase_Token_Remove_All:
 620               	.LFB13:
 621               	.LM104:
 622               	/* prologue: function */
 623               	/* frame size = 0 */
 624               	.LM105:
 625 03ac E091 0000 		lds r30,Timebase
 626 03b0 F091 0000 		lds r31,(Timebase)+1
 627 03b4 168E      		std Z+30,__zero_reg__
 628               	/* epilogue start */
 629               	.LM106:
 630 03b6 0895      		ret
 631               	.LFE13:
 633               	.global	Timebase_Timer_Get_SubSecondsShadow
 635               	Timebase_Timer_Get_SubSecondsShadow:
 636               	.LFB14:
 637               	.LM107:
 638               	/* prologue: function */
 639               	/* frame size = 0 */
 640               	.LM108:
 641 03b8 E091 0000 		lds r30,Timebase
 642 03bc F091 0000 		lds r31,(Timebase)+1
 643 03c0 2685      		ldd r18,Z+14
 644 03c2 3785      		ldd r19,Z+15
 645               	.LM109:
 646 03c4 C901      		movw r24,r18
 647               	/* epilogue start */
 648 03c6 0895      		ret
 649               	.LFE14:
 651               	.global	Timebase_Timer_Get_SecondsShadow
 653               	Timebase_Timer_Get_SecondsShadow:
 654               	.LFB15:
 655               	.LM110:
 656               	/* prologue: function */
 657               	/* frame size = 0 */
 658               	.LM111:
 659 03c8 E091 0000 		lds r30,Timebase
 660 03cc F091 0000 		lds r31,(Timebase)+1
 661 03d0 2089      		ldd r18,Z+16
 662 03d2 3189      		ldd r19,Z+17
 663 03d4 4289      		ldd r20,Z+18
 664 03d6 5389      		ldd r21,Z+19
 665               	.LM112:
 666 03d8 B901      		movw r22,r18
 667 03da CA01      		movw r24,r20
 668               	/* epilogue start */
 669 03dc 0895      		ret
 670               	.LFE15:
 672               	.global	Timebase_Timer_Get_SubSeconds
 674               	Timebase_Timer_Get_SubSeconds:
 675               	.LFB16:
 676               	.LM113:
 677               	/* prologue: function */
 678               	/* frame size = 0 */
 679               	.LM114:
 680 03de E091 0000 		lds r30,Timebase
 681 03e2 F091 0000 		lds r31,(Timebase)+1
 682 03e6 2085      		ldd r18,Z+8
 683 03e8 3185      		ldd r19,Z+9
 684               	.LM115:
 685 03ea C901      		movw r24,r18
 686               	/* epilogue start */
 687 03ec 0895      		ret
 688               	.LFE16:
 690               	.global	Timebase_Timer_Get_Seconds
 692               	Timebase_Timer_Get_Seconds:
 693               	.LFB17:
 694               	.LM116:
 695               	/* prologue: function */
 696               	/* frame size = 0 */
 697               	.LM117:
 698 03ee E091 0000 		lds r30,Timebase
 699 03f2 F091 0000 		lds r31,(Timebase)+1
 700 03f6 2285      		ldd r18,Z+10
 701 03f8 3385      		ldd r19,Z+11
 702 03fa 4485      		ldd r20,Z+12
 703 03fc 5585      		ldd r21,Z+13
 704               	.LM118:
 705 03fe B901      		movw r22,r18
 706 0400 CA01      		movw r24,r20
 707               	/* epilogue start */
 708 0402 0895      		ret
 709               	.LFE17:
 711               	.global	Timebase_Timer_Set_SubSeconds
 713               	Timebase_Timer_Set_SubSeconds:
 714               	.LFB18:
 715               	.LM119:
 716               	.LVL37:
 717               	/* prologue: function */
 718               	/* frame size = 0 */
 719               	.LM120:
 720 0404 E091 0000 		lds r30,Timebase
 721 0408 F091 0000 		lds r31,(Timebase)+1
 722 040c 9187      		std Z+9,r25
 723 040e 8087      		std Z+8,r24
 724               	/* epilogue start */
 725               	.LM121:
 726 0410 0895      		ret
 727               	.LFE18:
 729               	.global	Timebase_Timer_Set_Seconds
 731               	Timebase_Timer_Set_Seconds:
 732               	.LFB19:
 733               	.LM122:
 734               	.LVL38:
 735               	/* prologue: function */
 736               	/* frame size = 0 */
 737               	.LM123:
 738 0412 E091 0000 		lds r30,Timebase
 739 0416 F091 0000 		lds r31,(Timebase)+1
 740 041a 6287      		std Z+10,r22
 741 041c 7387      		std Z+11,r23
 742 041e 8487      		std Z+12,r24
 743 0420 9587      		std Z+13,r25
 744               	/* epilogue start */
 745               	.LM124:
 746 0422 0895      		ret
 747               	.LFE19:
 749               	.global	Timebase_Timer_Delay_SubSeconds
 751               	Timebase_Timer_Delay_SubSeconds:
 752               	.LFB20:
 753               	.LM125:
 754               	.LVL39:
 755 0424 6F92      		push r6
 756 0426 7F92      		push r7
 757 0428 8F92      		push r8
 758 042a 9F92      		push r9
 759 042c AF92      		push r10
 760 042e BF92      		push r11
 761 0430 CF92      		push r12
 762 0432 DF92      		push r13
 763 0434 EF92      		push r14
 764 0436 FF92      		push r15
 765 0438 0F93      		push r16
 766 043a 1F93      		push r17
 767 043c CF93      		push r28
 768 043e DF93      		push r29
 769               	/* prologue: function */
 770               	/* frame size = 0 */
 771 0440 5C01      		movw r10,r24
 772               	.LBB544:
 773               	.LBB545:
 774               	.LM126:
 775 0442 C091 0000 		lds r28,Timebase
 776 0446 D091 0000 		lds r29,(Timebase)+1
 777 044a E884      		ldd r14,Y+8
 778 044c F984      		ldd r15,Y+9
 779               	.LBE545:
 780               	.LBE544:
 781               	.LBB546:
 782               	.LBB547:
 783               	.LM127:
 784 044e 2A85      		ldd r18,Y+10
 785 0450 3B85      		ldd r19,Y+11
 786 0452 4C85      		ldd r20,Y+12
 787 0454 5D85      		ldd r21,Y+13
 788               	.LVL40:
 789               	.LBE547:
 790               	.LBE546:
 791               	.LM128:
 792 0456 6981      		ldd r22,Y+1
 793 0458 7A81      		ldd r23,Y+2
 794 045a 80E0      		ldi r24,lo8(0)
 795 045c 90E0      		ldi r25,hi8(0)
 796               	.LVL41:
 797 045e 0E94 0000 		call __mulsi3
 798               	.LVL42:
 799 0462 3B01      		movw r6,r22
 800 0464 4C01      		movw r8,r24
 801               	.LVL43:
 802               	.LM129:
 803 0466 00E0      		ldi r16,lo8(0)
 804 0468 10E0      		ldi r17,hi8(0)
 805 046a 6E0C      		add r6,r14
 806 046c 7F1C      		adc r7,r15
 807 046e 801E      		adc r8,r16
 808 0470 911E      		adc r9,r17
 809               	.LM130:
 810 0472 CC24      		clr r12
 811 0474 DD24      		clr r13
 812               	.LVL44:
 813 0476 6A0C      		add r6,r10
 814 0478 7B1C      		adc r7,r11
 815 047a 8C1C      		adc r8,r12
 816 047c 9D1C      		adc r9,r13
 817 047e 60E0      		ldi r22,lo8(0)
 818 0480 70E0      		ldi r23,hi8(0)
 819 0482 80E0      		ldi r24,hlo8(0)
 820 0484 90E0      		ldi r25,hhi8(0)
 821               	.LVL45:
 822 0486 00C0      		rjmp .L52
 823               	.L53:
 824               	.LBB548:
 825               	.LBB549:
 826               	.LM131:
 827 0488 E884      		ldd r14,Y+8
 828 048a F984      		ldd r15,Y+9
 829               	.LBE549:
 830               	.LBE548:
 831               	.LBB550:
 832               	.LBB551:
 833               	.LM132:
 834 048c 2A85      		ldd r18,Y+10
 835 048e 3B85      		ldd r19,Y+11
 836 0490 4C85      		ldd r20,Y+12
 837 0492 5D85      		ldd r21,Y+13
 838               	.LVL46:
 839               	.LBE551:
 840               	.LBE550:
 841               	.LM133:
 842 0494 6981      		ldd r22,Y+1
 843 0496 7A81      		ldd r23,Y+2
 844               	.LVL47:
 845 0498 80E0      		ldi r24,lo8(0)
 846 049a 90E0      		ldi r25,hi8(0)
 847 049c 0E94 0000 		call __mulsi3
 848               	.LVL48:
 849               	.LM134:
 850 04a0 00E0      		ldi r16,lo8(0)
 851 04a2 10E0      		ldi r17,hi8(0)
 852 04a4 6E0D      		add r22,r14
 853 04a6 7F1D      		adc r23,r15
 854 04a8 801F      		adc r24,r16
 855 04aa 911F      		adc r25,r17
 856               	.LVL49:
 857               	.L52:
 858               	.LM135:
 859 04ac 6615      		cp r22,r6
 860 04ae 7705      		cpc r23,r7
 861 04b0 8805      		cpc r24,r8
 862 04b2 9905      		cpc r25,r9
 863 04b4 04F0      		brlt .L53
 864               	/* epilogue start */
 865               	.LM136:
 866 04b6 DF91      		pop r29
 867 04b8 CF91      		pop r28
 868 04ba 1F91      		pop r17
 869 04bc 0F91      		pop r16
 870 04be FF90      		pop r15
 871 04c0 EF90      		pop r14
 872 04c2 DF90      		pop r13
 873 04c4 CF90      		pop r12
 874               	.LVL50:
 875 04c6 BF90      		pop r11
 876 04c8 AF90      		pop r10
 877               	.LVL51:
 878 04ca 9F90      		pop r9
 879 04cc 8F90      		pop r8
 880 04ce 7F90      		pop r7
 881 04d0 6F90      		pop r6
 882               	.LVL52:
 883 04d2 0895      		ret
 884               	.LFE20:
 886               	.global	Timebase_Timer_Await_SubSeconds
 888               	Timebase_Timer_Await_SubSeconds:
 889               	.LFB21:
 890               	.LM137:
 891               	.LVL53:
 892               	/* prologue: function */
 893               	/* frame size = 0 */
 894 04d4 BC01      		movw r22,r24
 895               	.LBB552:
 896               	.LBB553:
 897               	.LM138:
 898 04d6 E091 0000 		lds r30,Timebase
 899 04da F091 0000 		lds r31,(Timebase)+1
 900               	.LVL54:
 901               	.L56:
 902 04de 8085      		ldd r24,Z+8
 903 04e0 9185      		ldd r25,Z+9
 904               	.LBE553:
 905               	.LBE552:
 906               	.LM139:
 907 04e2 2481      		ldd r18,Z+4
 908 04e4 3581      		ldd r19,Z+5
 909 04e6 4681      		ldd r20,Z+6
 910 04e8 5781      		ldd r21,Z+7
 911 04ea A0E0      		ldi r26,lo8(0)
 912 04ec B0E0      		ldi r27,hi8(0)
 913 04ee 8217      		cp r24,r18
 914 04f0 9307      		cpc r25,r19
 915 04f2 A407      		cpc r26,r20
 916 04f4 B507      		cpc r27,r21
 917 04f6 01F4      		brne .L56
 918               	.LBB554:
 919               	.LBB555:
 920               	.LM140:
 921 04f8 8085      		ldd r24,Z+8
 922 04fa 9185      		ldd r25,Z+9
 923               	.LBE555:
 924               	.LBE554:
 925               	.LM141:
 926 04fc 860F      		add r24,r22
 927 04fe 971F      		adc r25,r23
 928 0500 A0E0      		ldi r26,lo8(0)
 929 0502 B0E0      		ldi r27,hi8(0)
 930 0504 8483      		std Z+4,r24
 931 0506 9583      		std Z+5,r25
 932 0508 A683      		std Z+6,r26
 933 050a B783      		std Z+7,r27
 934               	.LM142:
 935 050c 2481      		ldd r18,Z+4
 936 050e 3581      		ldd r19,Z+5
 937 0510 4681      		ldd r20,Z+6
 938 0512 5781      		ldd r21,Z+7
 939 0514 8181      		ldd r24,Z+1
 940 0516 9281      		ldd r25,Z+2
 941 0518 A0E0      		ldi r26,lo8(0)
 942 051a B0E0      		ldi r27,hi8(0)
 943 051c 2817      		cp r18,r24
 944 051e 3907      		cpc r19,r25
 945 0520 4A07      		cpc r20,r26
 946 0522 5B07      		cpc r21,r27
 947 0524 04F0      		brlt .L58
 948               	.LM143:
 949 0526 2481      		ldd r18,Z+4
 950 0528 3581      		ldd r19,Z+5
 951 052a 4681      		ldd r20,Z+6
 952 052c 5781      		ldd r21,Z+7
 953 052e 8181      		ldd r24,Z+1
 954 0530 9281      		ldd r25,Z+2
 955 0532 A0E0      		ldi r26,lo8(0)
 956 0534 B0E0      		ldi r27,hi8(0)
 957 0536 281B      		sub r18,r24
 958 0538 390B      		sbc r19,r25
 959 053a 4A0B      		sbc r20,r26
 960 053c 5B0B      		sbc r21,r27
 961 053e 2483      		std Z+4,r18
 962 0540 3583      		std Z+5,r19
 963 0542 4683      		std Z+6,r20
 964 0544 5783      		std Z+7,r21
 965               	.L58:
 966 0546 0895      		ret
 967               	.LFE21:
 969               	.global	Timebase_Timer_Delay_Seconds
 971               	Timebase_Timer_Delay_Seconds:
 972               	.LFB22:
 973               	.LM144:
 974               	.LVL55:
 975               	/* prologue: function */
 976               	/* frame size = 0 */
 977               	.LBB556:
 978               	.LBB557:
 979               	.LM145:
 980 0548 E091 0000 		lds r30,Timebase
 981 054c F091 0000 		lds r31,(Timebase)+1
 982 0550 2285      		ldd r18,Z+10
 983 0552 3385      		ldd r19,Z+11
 984 0554 4485      		ldd r20,Z+12
 985 0556 5585      		ldd r21,Z+13
 986               	.LVL56:
 987               	.LBE557:
 988               	.LBE556:
 989               	.LM146:
 990 0558 A0E0      		ldi r26,lo8(0)
 991 055a B0E0      		ldi r27,hi8(0)
 992               	.LVL57:
 993 055c 820F      		add r24,r18
 994 055e 931F      		adc r25,r19
 995 0560 A41F      		adc r26,r20
 996 0562 B51F      		adc r27,r21
 997               	.LVL58:
 998 0564 20E0      		ldi r18,lo8(0)
 999 0566 30E0      		ldi r19,hi8(0)
 1000 0568 40E0      		ldi r20,hlo8(0)
 1001 056a 50E0      		ldi r21,hhi8(0)
 1002               	.LVL59:
 1003 056c 00C0      		rjmp .L61
 1004               	.L62:
 1005               	.LBB558:
 1006               	.LBB559:
 1007               	.LM147:
 1008 056e 2285      		ldd r18,Z+10
 1009 0570 3385      		ldd r19,Z+11
 1010 0572 4485      		ldd r20,Z+12
 1011 0574 5585      		ldd r21,Z+13
 1012               	.L61:
 1013               	.LBE559:
 1014               	.LBE558:
 1015               	.LM148:
 1016 0576 2817      		cp r18,r24
 1017 0578 3907      		cpc r19,r25
 1018 057a 4A07      		cpc r20,r26
 1019 057c 5B07      		cpc r21,r27
 1020 057e 04F0      		brlt .L62
 1021               	/* epilogue start */
 1022               	.LM149:
 1023 0580 0895      		ret
 1024               	.LFE22:
 1026               	.global	Timebase_Window_Timer_Reset
 1028               	Timebase_Window_Timer_Reset:
 1029               	.LFB23:
 1030               	.LM150:
 1031               	/* prologue: function */
 1032               	/* frame size = 0 */
 1033               	.LM151:
 1034 0582 E091 0000 		lds r30,Timebase
 1035 0586 F091 0000 		lds r31,(Timebase)+1
 1036 058a 148A      		std Z+20,__zero_reg__
 1037 058c 158A      		std Z+21,__zero_reg__
 1038 058e 168A      		std Z+22,__zero_reg__
 1039 0590 178A      		std Z+23,__zero_reg__
 1040               	.LM152:
 1041 0592 108E      		std Z+24,__zero_reg__
 1042 0594 118E      		std Z+25,__zero_reg__
 1043 0596 128E      		std Z+26,__zero_reg__
 1044 0598 138E      		std Z+27,__zero_reg__
 1045               	.LM153:
 1046 059a 148E      		std Z+28,__zero_reg__
 1047               	/* epilogue start */
 1048               	.LM154:
 1049 059c 0895      		ret
 1050               	.LFE23:
 1052               	.global	Timebase_Window_Timer_Start
 1054               	Timebase_Window_Timer_Start:
 1055               	.LFB24:
 1056               	.LM155:
 1057               	/* prologue: function */
 1058               	/* frame size = 0 */
 1059               	.LM156:
 1060 059e E091 0000 		lds r30,Timebase
 1061 05a2 F091 0000 		lds r31,(Timebase)+1
 1062 05a6 848D      		ldd r24,Z+28
 1063 05a8 8823      		tst r24
 1064 05aa 01F4      		brne .L68
 1065               	.LBB560:
 1066               	.LBB561:
 1067               	.LM157:
 1068 05ac 8285      		ldd r24,Z+10
 1069 05ae 9385      		ldd r25,Z+11
 1070 05b0 A485      		ldd r26,Z+12
 1071 05b2 B585      		ldd r27,Z+13
 1072               	.LBE561:
 1073               	.LBE560:
 1074               	.LM158:
 1075 05b4 848B      		std Z+20,r24
 1076 05b6 958B      		std Z+21,r25
 1077 05b8 A68B      		std Z+22,r26
 1078 05ba B78B      		std Z+23,r27
 1079               	.LBB562:
 1080               	.LBB563:
 1081               	.LM159:
 1082 05bc 8085      		ldd r24,Z+8
 1083 05be 9185      		ldd r25,Z+9
 1084               	.LBE563:
 1085               	.LBE562:
 1086               	.LM160:
 1087 05c0 A0E0      		ldi r26,lo8(0)
 1088 05c2 B0E0      		ldi r27,hi8(0)
 1089 05c4 808F      		std Z+24,r24
 1090 05c6 918F      		std Z+25,r25
 1091 05c8 A28F      		std Z+26,r26
 1092 05ca B38F      		std Z+27,r27
 1093               	.LM161:
 1094 05cc 81E0      		ldi r24,lo8(1)
 1095 05ce 848F      		std Z+28,r24
 1096               	.L68:
 1097 05d0 0895      		ret
 1098               	.LFE24:
 1100               	.global	Timebase_Window_Timer_Get_Interval
 1102               	Timebase_Window_Timer_Get_Interval:
 1103               	.LFB25:
 1104               	.LM162:
 1105 05d2 EF92      		push r14
 1106 05d4 FF92      		push r15
 1107 05d6 0F93      		push r16
 1108 05d8 1F93      		push r17
 1109 05da CF93      		push r28
 1110 05dc DF93      		push r29
 1111               	/* prologue: function */
 1112               	/* frame size = 0 */
 1113               	.LM163:
 1114 05de C091 0000 		lds r28,Timebase
 1115 05e2 D091 0000 		lds r29,(Timebase)+1
 1116 05e6 8C8D      		ldd r24,Y+28
 1117 05e8 8130      		cpi r24,lo8(1)
 1118 05ea 01F0      		breq .L70
 1119 05ec EE24      		clr r14
 1120 05ee FF24      		clr r15
 1121 05f0 8701      		movw r16,r14
 1122               	.LVL60:
 1123 05f2 00C0      		rjmp .L71
 1124               	.LVL61:
 1125               	.L70:
 1126               	.LBB564:
 1127               	.LBB565:
 1128               	.LM164:
 1129 05f4 2A85      		ldd r18,Y+10
 1130 05f6 3B85      		ldd r19,Y+11
 1131 05f8 4C85      		ldd r20,Y+12
 1132 05fa 5D85      		ldd r21,Y+13
 1133               	.LVL62:
 1134               	.LBE565:
 1135               	.LBE564:
 1136               	.LBB566:
 1137               	.LBB567:
 1138               	.LM165:
 1139 05fc 8885      		ldd r24,Y+8
 1140 05fe 9985      		ldd r25,Y+9
 1141               	.LBE567:
 1142               	.LBE566:
 1143               	.LM166:
 1144 0600 7C01      		movw r14,r24
 1145               	.LVL63:
 1146 0602 00E0      		ldi r16,lo8(0)
 1147 0604 10E0      		ldi r17,hi8(0)
 1148               	.LVL64:
 1149               	.LM167:
 1150 0606 8C89      		ldd r24,Y+20
 1151 0608 9D89      		ldd r25,Y+21
 1152 060a AE89      		ldd r26,Y+22
 1153 060c BF89      		ldd r27,Y+23
 1154 060e 281B      		sub r18,r24
 1155 0610 390B      		sbc r19,r25
 1156 0612 4A0B      		sbc r20,r26
 1157 0614 5B0B      		sbc r21,r27
 1158               	.LVL65:
 1159               	.LM168:
 1160 0616 6981      		ldd r22,Y+1
 1161 0618 7A81      		ldd r23,Y+2
 1162 061a 80E0      		ldi r24,lo8(0)
 1163 061c 90E0      		ldi r25,hi8(0)
 1164 061e 0E94 0000 		call __mulsi3
 1165               	.LVL66:
 1166               	.LM169:
 1167 0622 288D      		ldd r18,Y+24
 1168 0624 398D      		ldd r19,Y+25
 1169 0626 4A8D      		ldd r20,Y+26
 1170 0628 5B8D      		ldd r21,Y+27
 1171 062a E21A      		sub r14,r18
 1172 062c F30A      		sbc r15,r19
 1173 062e 040B      		sbc r16,r20
 1174 0630 150B      		sbc r17,r21
 1175               	.LVL67:
 1176 0632 E60E      		add r14,r22
 1177 0634 F71E      		adc r15,r23
 1178 0636 081F      		adc r16,r24
 1179 0638 191F      		adc r17,r25
 1180               	.L71:
 1181               	.LM170:
 1182 063a B701      		movw r22,r14
 1183               	.LVL68:
 1184 063c C801      		movw r24,r16
 1185               	.LVL69:
 1186               	/* epilogue start */
 1187 063e DF91      		pop r29
 1188 0640 CF91      		pop r28
 1189 0642 1F91      		pop r17
 1190 0644 0F91      		pop r16
 1191 0646 FF90      		pop r15
 1192 0648 EF90      		pop r14
 1193 064a 0895      		ret
 1194               	.LFE25:
 1196               	.global	Timebase_Window_Timer_Get_Interval_Reset
 1198               	Timebase_Window_Timer_Get_Interval_Reset:
 1199               	.LFB26:
 1200               	.LM171:
 1201               	/* prologue: function */
 1202               	/* frame size = 0 */
 1203               	.LM172:
 1204 064c 0E94 0000 		call Timebase_Window_Timer_Get_Interval
 1205 0650 282F      		mov r18,r24
 1206               	.LVL70:
 1207               	.LM173:
 1208 0652 E091 0000 		lds r30,Timebase
 1209 0656 F091 0000 		lds r31,(Timebase)+1
 1210 065a 848D      		ldd r24,Z+28
 1211 065c 8130      		cpi r24,lo8(1)
 1212 065e 01F4      		brne .L74
 1213               	.LBB568:
 1214               	.LBB569:
 1215               	.LM174:
 1216 0660 148A      		std Z+20,__zero_reg__
 1217 0662 158A      		std Z+21,__zero_reg__
 1218 0664 168A      		std Z+22,__zero_reg__
 1219 0666 178A      		std Z+23,__zero_reg__
 1220               	.LM175:
 1221 0668 108E      		std Z+24,__zero_reg__
 1222 066a 118E      		std Z+25,__zero_reg__
 1223 066c 128E      		std Z+26,__zero_reg__
 1224 066e 138E      		std Z+27,__zero_reg__
 1225               	.LM176:
 1226 0670 148E      		std Z+28,__zero_reg__
 1227               	.L74:
 1228               	.LBE569:
 1229               	.LBE568:
 1230               	.LM177:
 1231 0672 822F      		mov r24,r18
 1232               	/* epilogue start */
 1233 0674 0895      		ret
 1234               	.LFE26:
 1236               	.global	Timebase_UpCounter_SS_Get_Status
 1238               	Timebase_UpCounter_SS_Get_Status:
 1239               	.LFB27:
 1240               	.LM178:
 1241               	.LVL71:
 1242               	/* prologue: function */
 1243               	/* frame size = 0 */
 1244               	.LM179:
 1245 0676 E091 0000 		lds r30,Timebase
 1246 067a F091 0000 		lds r31,(Timebase)+1
 1247 067e 90E0      		ldi r25,lo8(0)
 1248               	.LVL72:
 1249 0680 29E1      		ldi r18,lo8(25)
 1250 0682 30E0      		ldi r19,hi8(25)
 1251 0684 AC01      		movw r20,r24
 1252 0686 429F      		mul r20,r18
 1253 0688 C001      		movw r24,r0
 1254 068a 439F      		mul r20,r19
 1255 068c 900D      		add r25,r0
 1256 068e 529F      		mul r21,r18
 1257 0690 900D      		add r25,r0
 1258 0692 1124      		clr r1
 1259               	.LVL73:
 1260 0694 E80F      		add r30,r24
 1261 0696 F91F      		adc r31,r25
 1262 0698 878D      		ldd r24,Z+31
 1263 069a 8695      		lsr r24
 1264               	.LM180:
 1265 069c 8F70      		andi r24,lo8(15)
 1266               	/* epilogue start */
 1267 069e 0895      		ret
 1268               	.LFE27:
 1270               	.global	Timebase_UpCounter_SS_Set_Status
 1272               	Timebase_UpCounter_SS_Set_Status:
 1273               	.LFB28:
 1274               	.LM181:
 1275               	.LVL74:
 1276               	/* prologue: function */
 1277               	/* frame size = 0 */
 1278               	.LM182:
 1279 06a0 E091 0000 		lds r30,Timebase
 1280 06a4 F091 0000 		lds r31,(Timebase)+1
 1281 06a8 90E0      		ldi r25,lo8(0)
 1282               	.LVL75:
 1283 06aa 29E1      		ldi r18,lo8(25)
 1284 06ac 30E0      		ldi r19,hi8(25)
 1285 06ae AC01      		movw r20,r24
 1286 06b0 429F      		mul r20,r18
 1287 06b2 C001      		movw r24,r0
 1288 06b4 439F      		mul r20,r19
 1289 06b6 900D      		add r25,r0
 1290 06b8 529F      		mul r21,r18
 1291 06ba 900D      		add r25,r0
 1292 06bc 1124      		clr r1
 1293               	.LVL76:
 1294 06be E80F      		add r30,r24
 1295 06c0 F91F      		adc r31,r25
 1296 06c2 6F70      		andi r22,lo8(15)
 1297               	.LVL77:
 1298 06c4 660F      		lsl r22
 1299 06c6 878D      		ldd r24,Z+31
 1300 06c8 817E      		andi r24,lo8(-31)
 1301 06ca 862B      		or r24,r22
 1302 06cc 878F      		std Z+31,r24
 1303               	/* epilogue start */
 1304               	.LM183:
 1305 06ce 0895      		ret
 1306               	.LFE28:
 1308               	.global	Timebase_UpCounter_SS_Get_Value
 1310               	Timebase_UpCounter_SS_Get_Value:
 1311               	.LFB29:
 1312               	.LM184:
 1313               	.LVL78:
 1314               	/* prologue: function */
 1315               	/* frame size = 0 */
 1316               	.LM185:
 1317 06d0 E091 0000 		lds r30,Timebase
 1318 06d4 F091 0000 		lds r31,(Timebase)+1
 1319 06d8 90E0      		ldi r25,lo8(0)
 1320               	.LVL79:
 1321 06da 29E1      		ldi r18,lo8(25)
 1322 06dc 30E0      		ldi r19,hi8(25)
 1323 06de AC01      		movw r20,r24
 1324 06e0 429F      		mul r20,r18
 1325 06e2 C001      		movw r24,r0
 1326 06e4 439F      		mul r20,r19
 1327 06e6 900D      		add r25,r0
 1328 06e8 529F      		mul r21,r18
 1329 06ea 900D      		add r25,r0
 1330 06ec 1124      		clr r1
 1331               	.LVL80:
 1332 06ee E80F      		add r30,r24
 1333 06f0 F91F      		adc r31,r25
 1334 06f2 DF01      		movw r26,r30
 1335 06f4 D096      		adiw r26,48
 1336 06f6 60A9      		ldd r22,Z+48
 1337 06f8 1196      		adiw r26,1
 1338 06fa 7C91      		ld r23,X
 1339 06fc 1197      		sbiw r26,1
 1340               	.LM186:
 1341 06fe 1296      		adiw r26,2
 1342 0700 8C91      		ld r24,X
 1343 0702 1297      		sbiw r26,2
 1344 0704 1396      		adiw r26,3
 1345 0706 9C91      		ld r25,X
 1346               	.LVL81:
 1347               	/* epilogue start */
 1348 0708 0895      		ret
 1349               	.LFE29:
 1351               	.global	Timebase_UpCounter_SS_Set_Value
 1353               	Timebase_UpCounter_SS_Set_Value:
 1354               	.LFB30:
 1355               	.LM187:
 1356               	.LVL82:
 1357               	/* prologue: function */
 1358               	/* frame size = 0 */
 1359               	.LM188:
 1360 070a E091 0000 		lds r30,Timebase
 1361 070e F091 0000 		lds r31,(Timebase)+1
 1362 0712 90E0      		ldi r25,lo8(0)
 1363               	.LVL83:
 1364 0714 29E1      		ldi r18,lo8(25)
 1365 0716 30E0      		ldi r19,hi8(25)
 1366 0718 DC01      		movw r26,r24
 1367 071a A29F      		mul r26,r18
 1368 071c C001      		movw r24,r0
 1369 071e A39F      		mul r26,r19
 1370 0720 900D      		add r25,r0
 1371 0722 B29F      		mul r27,r18
 1372 0724 900D      		add r25,r0
 1373 0726 1124      		clr r1
 1374               	.LVL84:
 1375 0728 E80F      		add r30,r24
 1376 072a F91F      		adc r31,r25
 1377 072c 40AB      		std Z+48,r20
 1378 072e 51AB      		std Z+49,r21
 1379 0730 62AB      		std Z+50,r22
 1380 0732 73AB      		std Z+51,r23
 1381               	/* epilogue start */
 1382               	.LM189:
 1383 0734 0895      		ret
 1384               	.LFE30:
 1386               	.global	Timebase_UpCounter_SS_Get_EndValueSec
 1388               	Timebase_UpCounter_SS_Get_EndValueSec:
 1389               	.LFB31:
 1390               	.LM190:
 1391               	.LVL85:
 1392               	/* prologue: function */
 1393               	/* frame size = 0 */
 1394               	.LM191:
 1395 0736 E091 0000 		lds r30,Timebase
 1396 073a F091 0000 		lds r31,(Timebase)+1
 1397 073e 90E0      		ldi r25,lo8(0)
 1398               	.LVL86:
 1399 0740 29E1      		ldi r18,lo8(25)
 1400 0742 30E0      		ldi r19,hi8(25)
 1401 0744 AC01      		movw r20,r24
 1402 0746 429F      		mul r20,r18
 1403 0748 C001      		movw r24,r0
 1404 074a 439F      		mul r20,r19
 1405 074c 900D      		add r25,r0
 1406 074e 529F      		mul r21,r18
 1407 0750 900D      		add r25,r0
 1408 0752 1124      		clr r1
 1409               	.LVL87:
 1410 0754 E80F      		add r30,r24
 1411 0756 F91F      		adc r31,r25
 1412 0758 DF01      		movw r26,r30
 1413 075a 9096      		adiw r26,32
 1414 075c 60A1      		ldd r22,Z+32
 1415 075e 1196      		adiw r26,1
 1416 0760 7C91      		ld r23,X
 1417 0762 1197      		sbiw r26,1
 1418               	.LM192:
 1419 0764 1296      		adiw r26,2
 1420 0766 8C91      		ld r24,X
 1421 0768 1297      		sbiw r26,2
 1422 076a 1396      		adiw r26,3
 1423 076c 9C91      		ld r25,X
 1424               	.LVL88:
 1425               	/* epilogue start */
 1426 076e 0895      		ret
 1427               	.LFE31:
 1429               	.global	Timebase_UpCounter_SS_Get_EndValueSubSec
 1431               	Timebase_UpCounter_SS_Get_EndValueSubSec:
 1432               	.LFB32:
 1433               	.LM193:
 1434               	.LVL89:
 1435               	/* prologue: function */
 1436               	/* frame size = 0 */
 1437               	.LM194:
 1438 0770 E091 0000 		lds r30,Timebase
 1439 0774 F091 0000 		lds r31,(Timebase)+1
 1440 0778 90E0      		ldi r25,lo8(0)
 1441               	.LVL90:
 1442 077a 29E1      		ldi r18,lo8(25)
 1443 077c 30E0      		ldi r19,hi8(25)
 1444 077e AC01      		movw r20,r24
 1445 0780 429F      		mul r20,r18
 1446 0782 C001      		movw r24,r0
 1447 0784 439F      		mul r20,r19
 1448 0786 900D      		add r25,r0
 1449 0788 529F      		mul r21,r18
 1450 078a 900D      		add r25,r0
 1451 078c 1124      		clr r1
 1452               	.LVL91:
 1453 078e E80F      		add r30,r24
 1454 0790 F91F      		adc r31,r25
 1455 0792 DF01      		movw r26,r30
 1456 0794 9496      		adiw r26,36
 1457 0796 64A1      		ldd r22,Z+36
 1458 0798 1196      		adiw r26,1
 1459 079a 7C91      		ld r23,X
 1460 079c 1197      		sbiw r26,1
 1461               	.LM195:
 1462 079e 1296      		adiw r26,2
 1463 07a0 8C91      		ld r24,X
 1464 07a2 1297      		sbiw r26,2
 1465 07a4 1396      		adiw r26,3
 1466 07a6 9C91      		ld r25,X
 1467               	.LVL92:
 1468               	/* epilogue start */
 1469 07a8 0895      		ret
 1470               	.LFE32:
 1472               	.global	Timebase_UpCounter_SS_Set_EndValueSec
 1474               	Timebase_UpCounter_SS_Set_EndValueSec:
 1475               	.LFB33:
 1476               	.LM196:
 1477               	.LVL93:
 1478               	/* prologue: function */
 1479               	/* frame size = 0 */
 1480               	.LM197:
 1481 07aa E091 0000 		lds r30,Timebase
 1482 07ae F091 0000 		lds r31,(Timebase)+1
 1483 07b2 90E0      		ldi r25,lo8(0)
 1484               	.LVL94:
 1485 07b4 29E1      		ldi r18,lo8(25)
 1486 07b6 30E0      		ldi r19,hi8(25)
 1487 07b8 DC01      		movw r26,r24
 1488 07ba A29F      		mul r26,r18
 1489 07bc C001      		movw r24,r0
 1490 07be A39F      		mul r26,r19
 1491 07c0 900D      		add r25,r0
 1492 07c2 B29F      		mul r27,r18
 1493 07c4 900D      		add r25,r0
 1494 07c6 1124      		clr r1
 1495               	.LVL95:
 1496 07c8 E80F      		add r30,r24
 1497 07ca F91F      		adc r31,r25
 1498 07cc 40A3      		std Z+32,r20
 1499 07ce 51A3      		std Z+33,r21
 1500 07d0 62A3      		std Z+34,r22
 1501 07d2 73A3      		std Z+35,r23
 1502               	/* epilogue start */
 1503               	.LM198:
 1504 07d4 0895      		ret
 1505               	.LFE33:
 1507               	.global	Timebase_UpCounter_SS_Set_EndValueSubSec
 1509               	Timebase_UpCounter_SS_Set_EndValueSubSec:
 1510               	.LFB34:
 1511               	.LM199:
 1512               	.LVL96:
 1513               	/* prologue: function */
 1514               	/* frame size = 0 */
 1515               	.LM200:
 1516 07d6 E091 0000 		lds r30,Timebase
 1517 07da F091 0000 		lds r31,(Timebase)+1
 1518 07de 90E0      		ldi r25,lo8(0)
 1519               	.LVL97:
 1520 07e0 29E1      		ldi r18,lo8(25)
 1521 07e2 30E0      		ldi r19,hi8(25)
 1522 07e4 DC01      		movw r26,r24
 1523 07e6 A29F      		mul r26,r18
 1524 07e8 C001      		movw r24,r0
 1525 07ea A39F      		mul r26,r19
 1526 07ec 900D      		add r25,r0
 1527 07ee B29F      		mul r27,r18
 1528 07f0 900D      		add r25,r0
 1529 07f2 1124      		clr r1
 1530               	.LVL98:
 1531 07f4 E80F      		add r30,r24
 1532 07f6 F91F      		adc r31,r25
 1533 07f8 44A3      		std Z+36,r20
 1534 07fa 55A3      		std Z+37,r21
 1535 07fc 66A3      		std Z+38,r22
 1536 07fe 77A3      		std Z+39,r23
 1537               	/* epilogue start */
 1538               	.LM201:
 1539 0800 0895      		ret
 1540               	.LFE34:
 1542               	.global	Timebase_UpCounter_SS_Get_TargetValue
 1544               	Timebase_UpCounter_SS_Get_TargetValue:
 1545               	.LFB35:
 1546               	.LM202:
 1547               	.LVL99:
 1548               	/* prologue: function */
 1549               	/* frame size = 0 */
 1550               	.LM203:
 1551 0802 E091 0000 		lds r30,Timebase
 1552 0806 F091 0000 		lds r31,(Timebase)+1
 1553 080a 90E0      		ldi r25,lo8(0)
 1554               	.LVL100:
 1555 080c 29E1      		ldi r18,lo8(25)
 1556 080e 30E0      		ldi r19,hi8(25)
 1557 0810 AC01      		movw r20,r24
 1558 0812 429F      		mul r20,r18
 1559 0814 C001      		movw r24,r0
 1560 0816 439F      		mul r20,r19
 1561 0818 900D      		add r25,r0
 1562 081a 529F      		mul r21,r18
 1563 081c 900D      		add r25,r0
 1564 081e 1124      		clr r1
 1565               	.LVL101:
 1566 0820 E80F      		add r30,r24
 1567 0822 F91F      		adc r31,r25
 1568 0824 DF01      		movw r26,r30
 1569 0826 9896      		adiw r26,40
 1570 0828 60A5      		ldd r22,Z+40
 1571 082a 1196      		adiw r26,1
 1572 082c 7C91      		ld r23,X
 1573 082e 1197      		sbiw r26,1
 1574               	.LM204:
 1575 0830 1296      		adiw r26,2
 1576 0832 8C91      		ld r24,X
 1577 0834 1297      		sbiw r26,2
 1578 0836 1396      		adiw r26,3
 1579 0838 9C91      		ld r25,X
 1580               	.LVL102:
 1581               	/* epilogue start */
 1582 083a 0895      		ret
 1583               	.LFE35:
 1585               	.global	Timebase_UpCounter_SS_Set_TargetValue
 1587               	Timebase_UpCounter_SS_Set_TargetValue:
 1588               	.LFB36:
 1589               	.LM205:
 1590               	.LVL103:
 1591               	/* prologue: function */
 1592               	/* frame size = 0 */
 1593               	.LM206:
 1594 083c E091 0000 		lds r30,Timebase
 1595 0840 F091 0000 		lds r31,(Timebase)+1
 1596 0844 90E0      		ldi r25,lo8(0)
 1597               	.LVL104:
 1598 0846 29E1      		ldi r18,lo8(25)
 1599 0848 30E0      		ldi r19,hi8(25)
 1600 084a DC01      		movw r26,r24
 1601 084c A29F      		mul r26,r18
 1602 084e C001      		movw r24,r0
 1603 0850 A39F      		mul r26,r19
 1604 0852 900D      		add r25,r0
 1605 0854 B29F      		mul r27,r18
 1606 0856 900D      		add r25,r0
 1607 0858 1124      		clr r1
 1608               	.LVL105:
 1609 085a E80F      		add r30,r24
 1610 085c F91F      		adc r31,r25
 1611 085e 40A7      		std Z+40,r20
 1612 0860 51A7      		std Z+41,r21
 1613 0862 62A7      		std Z+42,r22
 1614 0864 73A7      		std Z+43,r23
 1615               	/* epilogue start */
 1616               	.LM207:
 1617 0866 0895      		ret
 1618               	.LFE36:
 1620               	.global	Timebase_UpCounter_SS_Get_TemporaryValue
 1622               	Timebase_UpCounter_SS_Get_TemporaryValue:
 1623               	.LFB37:
 1624               	.LM208:
 1625               	.LVL106:
 1626               	/* prologue: function */
 1627               	/* frame size = 0 */
 1628               	.LM209:
 1629 0868 E091 0000 		lds r30,Timebase
 1630 086c F091 0000 		lds r31,(Timebase)+1
 1631 0870 90E0      		ldi r25,lo8(0)
 1632               	.LVL107:
 1633 0872 29E1      		ldi r18,lo8(25)
 1634 0874 30E0      		ldi r19,hi8(25)
 1635 0876 AC01      		movw r20,r24
 1636 0878 429F      		mul r20,r18
 1637 087a C001      		movw r24,r0
 1638 087c 439F      		mul r20,r19
 1639 087e 900D      		add r25,r0
 1640 0880 529F      		mul r21,r18
 1641 0882 900D      		add r25,r0
 1642 0884 1124      		clr r1
 1643               	.LVL108:
 1644 0886 E80F      		add r30,r24
 1645 0888 F91F      		adc r31,r25
 1646 088a DF01      		movw r26,r30
 1647 088c 9C96      		adiw r26,44
 1648 088e 64A5      		ldd r22,Z+44
 1649 0890 1196      		adiw r26,1
 1650 0892 7C91      		ld r23,X
 1651 0894 1197      		sbiw r26,1
 1652               	.LM210:
 1653 0896 1296      		adiw r26,2
 1654 0898 8C91      		ld r24,X
 1655 089a 1297      		sbiw r26,2
 1656 089c 1396      		adiw r26,3
 1657 089e 9C91      		ld r25,X
 1658               	.LVL109:
 1659               	/* epilogue start */
 1660 08a0 0895      		ret
 1661               	.LFE37:
 1663               	.global	Timebase_UpCounter_SS_Set_TemporaryValue
 1665               	Timebase_UpCounter_SS_Set_TemporaryValue:
 1666               	.LFB38:
 1667               	.LM211:
 1668               	.LVL110:
 1669               	/* prologue: function */
 1670               	/* frame size = 0 */
 1671               	.LM212:
 1672 08a2 E091 0000 		lds r30,Timebase
 1673 08a6 F091 0000 		lds r31,(Timebase)+1
 1674 08aa 90E0      		ldi r25,lo8(0)
 1675               	.LVL111:
 1676 08ac 29E1      		ldi r18,lo8(25)
 1677 08ae 30E0      		ldi r19,hi8(25)
 1678 08b0 DC01      		movw r26,r24
 1679 08b2 A29F      		mul r26,r18
 1680 08b4 C001      		movw r24,r0
 1681 08b6 A39F      		mul r26,r19
 1682 08b8 900D      		add r25,r0
 1683 08ba B29F      		mul r27,r18
 1684 08bc 900D      		add r25,r0
 1685 08be 1124      		clr r1
 1686               	.LVL112:
 1687 08c0 E80F      		add r30,r24
 1688 08c2 F91F      		adc r31,r25
 1689 08c4 44A7      		std Z+44,r20
 1690 08c6 55A7      		std Z+45,r21
 1691 08c8 66A7      		std Z+46,r22
 1692 08ca 77A7      		std Z+47,r23
 1693               	/* epilogue start */
 1694               	.LM213:
 1695 08cc 0895      		ret
 1696               	.LFE38:
 1698               	.global	Timebase_UpCounter_SS_Get_PeriodValue
 1700               	Timebase_UpCounter_SS_Get_PeriodValue:
 1701               	.LFB39:
 1702               	.LM214:
 1703               	.LVL113:
 1704               	/* prologue: function */
 1705               	/* frame size = 0 */
 1706               	.LM215:
 1707 08ce E091 0000 		lds r30,Timebase
 1708 08d2 F091 0000 		lds r31,(Timebase)+1
 1709 08d6 90E0      		ldi r25,lo8(0)
 1710               	.LVL114:
 1711 08d8 29E1      		ldi r18,lo8(25)
 1712 08da 30E0      		ldi r19,hi8(25)
 1713 08dc AC01      		movw r20,r24
 1714 08de 429F      		mul r20,r18
 1715 08e0 C001      		movw r24,r0
 1716 08e2 439F      		mul r20,r19
 1717 08e4 900D      		add r25,r0
 1718 08e6 529F      		mul r21,r18
 1719 08e8 900D      		add r25,r0
 1720 08ea 1124      		clr r1
 1721               	.LVL115:
 1722 08ec E80F      		add r30,r24
 1723 08ee F91F      		adc r31,r25
 1724 08f0 DF01      		movw r26,r30
 1725 08f2 D496      		adiw r26,52
 1726 08f4 64A9      		ldd r22,Z+52
 1727 08f6 1196      		adiw r26,1
 1728 08f8 7C91      		ld r23,X
 1729 08fa 1197      		sbiw r26,1
 1730               	.LM216:
 1731 08fc 1296      		adiw r26,2
 1732 08fe 8C91      		ld r24,X
 1733 0900 1297      		sbiw r26,2
 1734 0902 1396      		adiw r26,3
 1735 0904 9C91      		ld r25,X
 1736               	.LVL116:
 1737               	/* epilogue start */
 1738 0906 0895      		ret
 1739               	.LFE39:
 1741               	.global	Timebase_UpCounter_SS_Set_PeriodValue
 1743               	Timebase_UpCounter_SS_Set_PeriodValue:
 1744               	.LFB40:
 1745               	.LM217:
 1746               	.LVL117:
 1747               	/* prologue: function */
 1748               	/* frame size = 0 */
 1749               	.LM218:
 1750 0908 E091 0000 		lds r30,Timebase
 1751 090c F091 0000 		lds r31,(Timebase)+1
 1752 0910 90E0      		ldi r25,lo8(0)
 1753               	.LVL118:
 1754 0912 29E1      		ldi r18,lo8(25)
 1755 0914 30E0      		ldi r19,hi8(25)
 1756 0916 DC01      		movw r26,r24
 1757 0918 A29F      		mul r26,r18
 1758 091a C001      		movw r24,r0
 1759 091c A39F      		mul r26,r19
 1760 091e 900D      		add r25,r0
 1761 0920 B29F      		mul r27,r18
 1762 0922 900D      		add r25,r0
 1763 0924 1124      		clr r1
 1764               	.LVL119:
 1765 0926 E80F      		add r30,r24
 1766 0928 F91F      		adc r31,r25
 1767 092a 44AB      		std Z+52,r20
 1768 092c 55AB      		std Z+53,r21
 1769 092e 66AB      		std Z+54,r22
 1770 0930 77AB      		std Z+55,r23
 1771               	/* epilogue start */
 1772               	.LM219:
 1773 0932 0895      		ret
 1774               	.LFE40:
 1776               	.global	Timebase_UpCounter_SS_Get_Period_Flag
 1778               	Timebase_UpCounter_SS_Get_Period_Flag:
 1779               	.LFB41:
 1780               	.LM220:
 1781               	.LVL120:
 1782               	/* prologue: function */
 1783               	/* frame size = 0 */
 1784               	.LM221:
 1785 0934 E091 0000 		lds r30,Timebase
 1786 0938 F091 0000 		lds r31,(Timebase)+1
 1787 093c 90E0      		ldi r25,lo8(0)
 1788               	.LVL121:
 1789 093e 29E1      		ldi r18,lo8(25)
 1790 0940 30E0      		ldi r19,hi8(25)
 1791 0942 AC01      		movw r20,r24
 1792 0944 429F      		mul r20,r18
 1793 0946 C001      		movw r24,r0
 1794 0948 439F      		mul r20,r19
 1795 094a 900D      		add r25,r0
 1796 094c 529F      		mul r21,r18
 1797 094e 900D      		add r25,r0
 1798 0950 1124      		clr r1
 1799               	.LVL122:
 1800 0952 E80F      		add r30,r24
 1801 0954 F91F      		adc r31,r25
 1802 0956 878D      		ldd r24,Z+31
 1803               	.LM222:
 1804 0958 8170      		andi r24,lo8(1)
 1805               	/* epilogue start */
 1806 095a 0895      		ret
 1807               	.LFE41:
 1809               	.global	Timebase_UpCounter_SS_Set_Period_Flag
 1811               	Timebase_UpCounter_SS_Set_Period_Flag:
 1812               	.LFB42:
 1813               	.LM223:
 1814               	.LVL123:
 1815               	/* prologue: function */
 1816               	/* frame size = 0 */
 1817               	.LM224:
 1818 095c E091 0000 		lds r30,Timebase
 1819 0960 F091 0000 		lds r31,(Timebase)+1
 1820 0964 90E0      		ldi r25,lo8(0)
 1821               	.LVL124:
 1822 0966 29E1      		ldi r18,lo8(25)
 1823 0968 30E0      		ldi r19,hi8(25)
 1824 096a AC01      		movw r20,r24
 1825 096c 429F      		mul r20,r18
 1826 096e C001      		movw r24,r0
 1827 0970 439F      		mul r20,r19
 1828 0972 900D      		add r25,r0
 1829 0974 529F      		mul r21,r18
 1830 0976 900D      		add r25,r0
 1831 0978 1124      		clr r1
 1832               	.LVL125:
 1833 097a E80F      		add r30,r24
 1834 097c F91F      		adc r31,r25
 1835 097e 878D      		ldd r24,Z+31
 1836 0980 8160      		ori r24,lo8(1)
 1837 0982 878F      		std Z+31,r24
 1838               	/* epilogue start */
 1839               	.LM225:
 1840 0984 0895      		ret
 1841               	.LFE42:
 1843               	.global	Timebase_UpCounter_SS_Clear_Period_Flag
 1845               	Timebase_UpCounter_SS_Clear_Period_Flag:
 1846               	.LFB43:
 1847               	.LM226:
 1848               	.LVL126:
 1849               	/* prologue: function */
 1850               	/* frame size = 0 */
 1851               	.LM227:
 1852 0986 E091 0000 		lds r30,Timebase
 1853 098a F091 0000 		lds r31,(Timebase)+1
 1854 098e 90E0      		ldi r25,lo8(0)
 1855               	.LVL127:
 1856 0990 29E1      		ldi r18,lo8(25)
 1857 0992 30E0      		ldi r19,hi8(25)
 1858 0994 AC01      		movw r20,r24
 1859 0996 429F      		mul r20,r18
 1860 0998 C001      		movw r24,r0
 1861 099a 439F      		mul r20,r19
 1862 099c 900D      		add r25,r0
 1863 099e 529F      		mul r21,r18
 1864 09a0 900D      		add r25,r0
 1865 09a2 1124      		clr r1
 1866               	.LVL128:
 1867 09a4 E80F      		add r30,r24
 1868 09a6 F91F      		adc r31,r25
 1869 09a8 878D      		ldd r24,Z+31
 1870 09aa 8E7F      		andi r24,lo8(-2)
 1871 09ac 878F      		std Z+31,r24
 1872               	/* epilogue start */
 1873               	.LM228:
 1874 09ae 0895      		ret
 1875               	.LFE43:
 1877               	.global	Timebase_UpCounter_SS_Reset
 1879               	Timebase_UpCounter_SS_Reset:
 1880               	.LFB44:
 1881               	.LM229:
 1882               	.LVL129:
 1883               	/* prologue: function */
 1884               	/* frame size = 0 */
 1885               	.LBB570:
 1886               	.LBB571:
 1887               	.LM230:
 1888 09b0 E091 0000 		lds r30,Timebase
 1889 09b4 F091 0000 		lds r31,(Timebase)+1
 1890 09b8 90E0      		ldi r25,lo8(0)
 1891 09ba 29E1      		ldi r18,lo8(25)
 1892 09bc 30E0      		ldi r19,hi8(25)
 1893 09be AC01      		movw r20,r24
 1894               	.LVL130:
 1895 09c0 429F      		mul r20,r18
 1896 09c2 C001      		movw r24,r0
 1897 09c4 439F      		mul r20,r19
 1898 09c6 900D      		add r25,r0
 1899 09c8 529F      		mul r21,r18
 1900 09ca 900D      		add r25,r0
 1901 09cc 1124      		clr r1
 1902 09ce E80F      		add r30,r24
 1903 09d0 F91F      		adc r31,r25
 1904 09d2 878D      		ldd r24,Z+31
 1905               	.LBE571:
 1906               	.LBE570:
 1907               	.LBB572:
 1908               	.LBB573:
 1909               	.LM231:
 1910 09d4 10AA      		std Z+48,__zero_reg__
 1911 09d6 11AA      		std Z+49,__zero_reg__
 1912 09d8 12AA      		std Z+50,__zero_reg__
 1913 09da 13AA      		std Z+51,__zero_reg__
 1914               	.LBE573:
 1915               	.LBE572:
 1916               	.LBB574:
 1917               	.LBB575:
 1918               	.LM232:
 1919 09dc 10A2      		std Z+32,__zero_reg__
 1920 09de 11A2      		std Z+33,__zero_reg__
 1921 09e0 12A2      		std Z+34,__zero_reg__
 1922 09e2 13A2      		std Z+35,__zero_reg__
 1923               	.LBE575:
 1924               	.LBE574:
 1925               	.LBB576:
 1926               	.LBB577:
 1927               	.LM233:
 1928 09e4 14A2      		std Z+36,__zero_reg__
 1929 09e6 15A2      		std Z+37,__zero_reg__
 1930 09e8 16A2      		std Z+38,__zero_reg__
 1931 09ea 17A2      		std Z+39,__zero_reg__
 1932               	.LBE577:
 1933               	.LBE576:
 1934               	.LBB578:
 1935               	.LBB579:
 1936               	.LM234:
 1937 09ec 10A6      		std Z+40,__zero_reg__
 1938 09ee 11A6      		std Z+41,__zero_reg__
 1939 09f0 12A6      		std Z+42,__zero_reg__
 1940 09f2 13A6      		std Z+43,__zero_reg__
 1941               	.LBE579:
 1942               	.LBE578:
 1943               	.LBB580:
 1944               	.LBB581:
 1945               	.LM235:
 1946 09f4 14A6      		std Z+44,__zero_reg__
 1947 09f6 15A6      		std Z+45,__zero_reg__
 1948 09f8 16A6      		std Z+46,__zero_reg__
 1949 09fa 17A6      		std Z+47,__zero_reg__
 1950               	.LBE581:
 1951               	.LBE580:
 1952               	.LBB582:
 1953               	.LBB583:
 1954               	.LM236:
 1955 09fc 14AA      		std Z+52,__zero_reg__
 1956 09fe 15AA      		std Z+53,__zero_reg__
 1957 0a00 16AA      		std Z+54,__zero_reg__
 1958 0a02 17AA      		std Z+55,__zero_reg__
 1959               	.LBE583:
 1960               	.LBE582:
 1961               	.LBB584:
 1962               	.LBB585:
 1963               	.LM237:
 1964 0a04 807E      		andi r24,lo8(-32)
 1965 0a06 878F      		std Z+31,r24
 1966               	/* epilogue start */
 1967               	.LBE585:
 1968               	.LBE584:
 1969               	.LM238:
 1970 0a08 0895      		ret
 1971               	.LFE44:
 1973               	.global	Timebase_UpCounter_SS_Clear_All_Flags
 1975               	Timebase_UpCounter_SS_Clear_All_Flags:
 1976               	.LFB45:
 1977               	.LM239:
 1978               	.LVL131:
 1979               	/* prologue: function */
 1980               	/* frame size = 0 */
 1981               	.LM240:
 1982 0a0a 0E94 0000 		call Timebase_UpCounter_SS_Reset
 1983               	.LVL132:
 1984               	/* epilogue start */
 1985               	.LM241:
 1986 0a0e 0895      		ret
 1987               	.LFE45:
 1989               	.global	Timebase_UpCounter_SS_Start
 1991               	Timebase_UpCounter_SS_Start:
 1992               	.LFB46:
 1993               	.LM242:
 1994               	.LVL133:
 1995               	/* prologue: function */
 1996               	/* frame size = 0 */
 1997               	.LBB586:
 1998               	.LBB587:
 1999               	.LM243:
 2000 0a10 E091 0000 		lds r30,Timebase
 2001 0a14 F091 0000 		lds r31,(Timebase)+1
 2002 0a18 90E0      		ldi r25,lo8(0)
 2003               	.LBE587:
 2004               	.LBE586:
 2005               	.LM244:
 2006 0a1a 29E1      		ldi r18,lo8(25)
 2007 0a1c 30E0      		ldi r19,hi8(25)
 2008 0a1e AC01      		movw r20,r24
 2009               	.LVL134:
 2010 0a20 429F      		mul r20,r18
 2011 0a22 C001      		movw r24,r0
 2012 0a24 439F      		mul r20,r19
 2013 0a26 900D      		add r25,r0
 2014 0a28 529F      		mul r21,r18
 2015 0a2a 900D      		add r25,r0
 2016 0a2c 1124      		clr r1
 2017 0a2e E80F      		add r30,r24
 2018 0a30 F91F      		adc r31,r25
 2019 0a32 978D      		ldd r25,Z+31
 2020 0a34 892F      		mov r24,r25
 2021 0a36 8695      		lsr r24
 2022 0a38 8F70      		andi r24,lo8(15)
 2023 0a3a 8130      		cpi r24,lo8(1)
 2024 0a3c 01F0      		breq .L116
 2025               	.LBB588:
 2026               	.LBB589:
 2027               	.LM245:
 2028 0a3e 917E      		andi r25,lo8(-31)
 2029 0a40 9260      		ori r25,lo8(2)
 2030 0a42 978F      		std Z+31,r25
 2031               	.L116:
 2032 0a44 0895      		ret
 2033               	.LBE589:
 2034               	.LBE588:
 2035               	.LFE46:
 2037               	.global	Timebase_UpCounter_SS_Stop
 2039               	Timebase_UpCounter_SS_Stop:
 2040               	.LFB47:
 2041               	.LM246:
 2042               	.LVL135:
 2043               	/* prologue: function */
 2044               	/* frame size = 0 */
 2045               	.LBB590:
 2046               	.LBB591:
 2047               	.LM247:
 2048 0a46 E091 0000 		lds r30,Timebase
 2049 0a4a F091 0000 		lds r31,(Timebase)+1
 2050 0a4e 90E0      		ldi r25,lo8(0)
 2051               	.LBE591:
 2052               	.LBE590:
 2053               	.LM248:
 2054 0a50 29E1      		ldi r18,lo8(25)
 2055 0a52 30E0      		ldi r19,hi8(25)
 2056 0a54 AC01      		movw r20,r24
 2057               	.LVL136:
 2058 0a56 429F      		mul r20,r18
 2059 0a58 C001      		movw r24,r0
 2060 0a5a 439F      		mul r20,r19
 2061 0a5c 900D      		add r25,r0
 2062 0a5e 529F      		mul r21,r18
 2063 0a60 900D      		add r25,r0
 2064 0a62 1124      		clr r1
 2065 0a64 E80F      		add r30,r24
 2066 0a66 F91F      		adc r31,r25
 2067 0a68 978D      		ldd r25,Z+31
 2068 0a6a 892F      		mov r24,r25
 2069 0a6c 8695      		lsr r24
 2070 0a6e 8F70      		andi r24,lo8(15)
 2071 0a70 8230      		cpi r24,lo8(2)
 2072 0a72 01F0      		breq .L119
 2073               	.LBB592:
 2074               	.LBB593:
 2075               	.LM249:
 2076 0a74 917E      		andi r25,lo8(-31)
 2077 0a76 9460      		ori r25,lo8(4)
 2078 0a78 978F      		std Z+31,r25
 2079               	.L119:
 2080 0a7a 0895      		ret
 2081               	.LBE593:
 2082               	.LBE592:
 2083               	.LFE47:
 2085               	.global	Timebase_UpCounter_SS_Set_Securely
 2087               	Timebase_UpCounter_SS_Set_Securely:
 2088               	.LFB48:
 2089               	.LM250:
 2090               	.LVL137:
 2091 0a7c 2F92      		push r2
 2092 0a7e 3F92      		push r3
 2093 0a80 4F92      		push r4
 2094 0a82 5F92      		push r5
 2095 0a84 6F92      		push r6
 2096 0a86 7F92      		push r7
 2097 0a88 8F92      		push r8
 2098 0a8a 9F92      		push r9
 2099 0a8c AF92      		push r10
 2100 0a8e BF92      		push r11
 2101 0a90 CF92      		push r12
 2102 0a92 DF92      		push r13
 2103 0a94 EF92      		push r14
 2104 0a96 FF92      		push r15
 2105 0a98 0F93      		push r16
 2106 0a9a 1F93      		push r17
 2107 0a9c DF93      		push r29
 2108 0a9e CF93      		push r28
 2109 0aa0 00D0      		rcall .
 2110 0aa2 00D0      		rcall .
 2111 0aa4 CDB7      		in r28,__SP_L__
 2112 0aa6 DEB7      		in r29,__SP_H__
 2113               	/* prologue: function */
 2114               	/* frame size = 4 */
 2115 0aa8 4A01      		movw r8,r20
 2116 0aaa 5B01      		movw r10,r22
 2117               	.LBB594:
 2118               	.LBB595:
 2119               	.LM251:
 2120 0aac 2091 0000 		lds r18,Timebase
 2121 0ab0 3091 0000 		lds r19,(Timebase)+1
 2122 0ab4 3C83      		std Y+4,r19
 2123 0ab6 2B83      		std Y+3,r18
 2124 0ab8 A82F      		mov r26,r24
 2125 0aba B0E0      		ldi r27,lo8(0)
 2126 0abc BA83      		std Y+2,r27
 2127 0abe A983      		std Y+1,r26
 2128               	.LBE595:
 2129               	.LBE594:
 2130               	.LM252:
 2131 0ac0 89E1      		ldi r24,lo8(25)
 2132 0ac2 90E0      		ldi r25,hi8(25)
 2133               	.LVL138:
 2134 0ac4 A89F      		mul r26,r24
 2135 0ac6 F001      		movw r30,r0
 2136 0ac8 A99F      		mul r26,r25
 2137 0aca F00D      		add r31,r0
 2138 0acc B89F      		mul r27,r24
 2139 0ace F00D      		add r31,r0
 2140 0ad0 1124      		clr r1
 2141 0ad2 E20F      		add r30,r18
 2142 0ad4 F31F      		adc r31,r19
 2143 0ad6 878D      		ldd r24,Z+31
 2144 0ad8 8695      		lsr r24
 2145 0ada 8F70      		andi r24,lo8(15)
 2146 0adc 01F0      		breq .+2
 2147 0ade 00C0      		rjmp .L123
 2148               	.LVL139:
 2149               	.LBB596:
 2150               	.LBB597:
 2151               	.LBB598:
 2152               	.LM253:
 2153 0ae0 10AA      		std Z+48,__zero_reg__
 2154 0ae2 11AA      		std Z+49,__zero_reg__
 2155 0ae4 12AA      		std Z+50,__zero_reg__
 2156 0ae6 13AA      		std Z+51,__zero_reg__
 2157               	.LBE598:
 2158               	.LBE597:
 2159               	.LBB599:
 2160               	.LBB600:
 2161               	.LM254:
 2162 0ae8 14A6      		std Z+44,__zero_reg__
 2163 0aea 15A6      		std Z+45,__zero_reg__
 2164 0aec 16A6      		std Z+46,__zero_reg__
 2165 0aee 17A6      		std Z+47,__zero_reg__
 2166               	.LBE600:
 2167               	.LBE599:
 2168               	.LBB601:
 2169               	.LBB602:
 2170               	.LM255:
 2171 0af0 F901      		movw r30,r18
 2172 0af2 8285      		ldd r24,Z+10
 2173 0af4 9385      		ldd r25,Z+11
 2174 0af6 A485      		ldd r26,Z+12
 2175 0af8 B585      		ldd r27,Z+13
 2176               	.LVL140:
 2177               	.LBE602:
 2178               	.LBE601:
 2179               	.LBB603:
 2180               	.LBB604:
 2181               	.LM256:
 2182 0afa C084      		ldd r12,Z+8
 2183 0afc D184      		ldd r13,Z+9
 2184               	.LBE604:
 2185               	.LBE603:
 2186               	.LBB605:
 2187               	.LBB606:
 2188               	.LM257:
 2189 0afe 2284      		ldd r2,Z+10
 2190 0b00 3384      		ldd r3,Z+11
 2191 0b02 4484      		ldd r4,Z+12
 2192 0b04 5584      		ldd r5,Z+13
 2193               	.LVL141:
 2194               	.LBE606:
 2195               	.LBE605:
 2196               	.LM258:
 2197 0b06 2181      		ldd r18,Z+1
 2198 0b08 3281      		ldd r19,Z+2
 2199 0b0a 40E0      		ldi r20,lo8(0)
 2200 0b0c 50E0      		ldi r21,hi8(0)
 2201 0b0e C501      		movw r24,r10
 2202 0b10 B401      		movw r22,r8
 2203 0b12 0E94 0000 		call __divmodsi4
 2204 0b16 7B01      		movw r14,r22
 2205 0b18 8C01      		movw r16,r24
 2206               	.LVL142:
 2207               	.LM259:
 2208 0b1a AB81      		ldd r26,Y+3
 2209 0b1c BC81      		ldd r27,Y+4
 2210 0b1e 1196      		adiw r26,1
 2211 0b20 2D91      		ld r18,X+
 2212 0b22 3C91      		ld r19,X
 2213 0b24 1297      		sbiw r26,1+1
 2214 0b26 40E0      		ldi r20,lo8(0)
 2215 0b28 50E0      		ldi r21,hi8(0)
 2216 0b2a C501      		movw r24,r10
 2217 0b2c B401      		movw r22,r8
 2218 0b2e 0E94 0000 		call __divmodsi4
 2219 0b32 C901      		movw r24,r18
 2220 0b34 DA01      		movw r26,r20
 2221 0b36 3C01      		movw r6,r24
 2222 0b38 4D01      		movw r8,r26
 2223               	.LVL143:
 2224               	.LM260:
 2225 0b3a 5601      		movw r10,r12
 2226               	.LVL144:
 2227 0b3c CC24      		clr r12
 2228 0b3e DD24      		clr r13
 2229               	.LVL145:
 2230 0b40 AE0C      		add r10,r14
 2231 0b42 BF1C      		adc r11,r15
 2232 0b44 C01E      		adc r12,r16
 2233 0b46 D11E      		adc r13,r17
 2234               	.LVL146:
 2235               	.LM261:
 2236 0b48 EB81      		ldd r30,Y+3
 2237 0b4a FC81      		ldd r31,Y+4
 2238 0b4c 8181      		ldd r24,Z+1
 2239 0b4e 9281      		ldd r25,Z+2
 2240               	.LVL147:
 2241 0b50 A0E0      		ldi r26,lo8(0)
 2242 0b52 B0E0      		ldi r27,hi8(0)
 2243 0b54 A816      		cp r10,r24
 2244 0b56 B906      		cpc r11,r25
 2245 0b58 CA06      		cpc r12,r26
 2246 0b5a DB06      		cpc r13,r27
 2247 0b5c 04F0      		brlt .L122
 2248               	.LM262:
 2249 0b5e 0894      		sec
 2250 0b60 611C      		adc r6,__zero_reg__
 2251 0b62 711C      		adc r7,__zero_reg__
 2252 0b64 811C      		adc r8,__zero_reg__
 2253 0b66 911C      		adc r9,__zero_reg__
 2254               	.LM263:
 2255 0b68 2181      		ldd r18,Z+1
 2256 0b6a 3281      		ldd r19,Z+2
 2257 0b6c 40E0      		ldi r20,lo8(0)
 2258 0b6e 50E0      		ldi r21,hi8(0)
 2259 0b70 C601      		movw r24,r12
 2260 0b72 B501      		movw r22,r10
 2261 0b74 0E94 0000 		call __divmodsi4
 2262 0b78 AC01      		movw r20,r24
 2263 0b7a CB01      		movw r24,r22
 2264 0b7c DA01      		movw r26,r20
 2265 0b7e 5C01      		movw r10,r24
 2266 0b80 6D01      		movw r12,r26
 2267               	.L122:
 2268               	.LBB607:
 2269               	.LBB608:
 2270               	.LM264:
 2271 0b82 89E1      		ldi r24,lo8(25)
 2272 0b84 90E0      		ldi r25,hi8(25)
 2273 0b86 2981      		ldd r18,Y+1
 2274 0b88 3A81      		ldd r19,Y+2
 2275 0b8a 289F      		mul r18,r24
 2276 0b8c F001      		movw r30,r0
 2277 0b8e 299F      		mul r18,r25
 2278 0b90 F00D      		add r31,r0
 2279 0b92 389F      		mul r19,r24
 2280 0b94 F00D      		add r31,r0
 2281 0b96 1124      		clr r1
 2282 0b98 8B81      		ldd r24,Y+3
 2283 0b9a 9C81      		ldd r25,Y+4
 2284 0b9c E80F      		add r30,r24
 2285 0b9e F91F      		adc r31,r25
 2286 0ba0 260C      		add r2,r6
 2287 0ba2 371C      		adc r3,r7
 2288 0ba4 481C      		adc r4,r8
 2289 0ba6 591C      		adc r5,r9
 2290 0ba8 20A2      		std Z+32,r2
 2291 0baa 31A2      		std Z+33,r3
 2292 0bac 42A2      		std Z+34,r4
 2293 0bae 53A2      		std Z+35,r5
 2294               	.LBE608:
 2295               	.LBE607:
 2296               	.LBB609:
 2297               	.LBB610:
 2298               	.LM265:
 2299 0bb0 A4A2      		std Z+36,r10
 2300 0bb2 B5A2      		std Z+37,r11
 2301 0bb4 C6A2      		std Z+38,r12
 2302 0bb6 D7A2      		std Z+39,r13
 2303               	.LBE610:
 2304               	.LBE609:
 2305               	.LBB611:
 2306               	.LBB612:
 2307               	.LM266:
 2308 0bb8 978D      		ldd r25,Z+31
 2309 0bba 892F      		mov r24,r25
 2310 0bbc 8695      		lsr r24
 2311 0bbe 8F70      		andi r24,lo8(15)
 2312 0bc0 8130      		cpi r24,lo8(1)
 2313 0bc2 01F0      		breq .L123
 2314               	.LBB613:
 2315               	.LBB614:
 2316               	.LM267:
 2317 0bc4 917E      		andi r25,lo8(-31)
 2318 0bc6 9260      		ori r25,lo8(2)
 2319 0bc8 978F      		std Z+31,r25
 2320               	.LVL148:
 2321               	.L123:
 2322               	/* epilogue start */
 2323               	.LBE614:
 2324               	.LBE613:
 2325               	.LBE612:
 2326               	.LBE611:
 2327               	.LBE596:
 2328               	.LM268:
 2329 0bca 0F90      		pop __tmp_reg__
 2330 0bcc 0F90      		pop __tmp_reg__
 2331 0bce 0F90      		pop __tmp_reg__
 2332 0bd0 0F90      		pop __tmp_reg__
 2333 0bd2 CF91      		pop r28
 2334 0bd4 DF91      		pop r29
 2335 0bd6 1F91      		pop r17
 2336 0bd8 0F91      		pop r16
 2337 0bda FF90      		pop r15
 2338 0bdc EF90      		pop r14
 2339 0bde DF90      		pop r13
 2340 0be0 CF90      		pop r12
 2341               	.LVL149:
 2342 0be2 BF90      		pop r11
 2343 0be4 AF90      		pop r10
 2344               	.LVL150:
 2345 0be6 9F90      		pop r9
 2346 0be8 8F90      		pop r8
 2347               	.LVL151:
 2348 0bea 7F90      		pop r7
 2349 0bec 6F90      		pop r6
 2350               	.LVL152:
 2351 0bee 5F90      		pop r5
 2352 0bf0 4F90      		pop r4
 2353 0bf2 3F90      		pop r3
 2354 0bf4 2F90      		pop r2
 2355               	.LVL153:
 2356 0bf6 0895      		ret
 2357               	.LFE48:
 2359               	.global	Timebase_UpCounter_SS_Set_Forcefully
 2361               	Timebase_UpCounter_SS_Set_Forcefully:
 2362               	.LFB49:
 2363               	.LM269:
 2364               	.LVL154:
 2365 0bf8 DF92      		push r13
 2366 0bfa EF92      		push r14
 2367 0bfc FF92      		push r15
 2368 0bfe 0F93      		push r16
 2369 0c00 1F93      		push r17
 2370               	/* prologue: function */
 2371               	/* frame size = 0 */
 2372 0c02 D82E      		mov r13,r24
 2373 0c04 7A01      		movw r14,r20
 2374 0c06 8B01      		movw r16,r22
 2375               	.LM270:
 2376 0c08 0E94 0000 		call Timebase_UpCounter_SS_Reset
 2377               	.LVL155:
 2378               	.LM271:
 2379 0c0c 8D2D      		mov r24,r13
 2380 0c0e B801      		movw r22,r16
 2381 0c10 A701      		movw r20,r14
 2382 0c12 0E94 0000 		call Timebase_UpCounter_SS_Set_Securely
 2383               	/* epilogue start */
 2384               	.LM272:
 2385 0c16 1F91      		pop r17
 2386 0c18 0F91      		pop r16
 2387 0c1a FF90      		pop r15
 2388 0c1c EF90      		pop r14
 2389               	.LVL156:
 2390 0c1e DF90      		pop r13
 2391               	.LVL157:
 2392 0c20 0895      		ret
 2393               	.LFE49:
 2395               	.global	Timebase_UpCounter_SS_Update
 2397               	Timebase_UpCounter_SS_Update:
 2398               	.LFB50:
 2399               	.LM273:
 2400               	.LVL158:
 2401 0c22 EF92      		push r14
 2402 0c24 FF92      		push r15
 2403 0c26 0F93      		push r16
 2404 0c28 1F93      		push r17
 2405               	/* prologue: function */
 2406               	/* frame size = 0 */
 2407               	.LBB615:
 2408               	.LBB616:
 2409               	.LM274:
 2410 0c2a A091 0000 		lds r26,Timebase
 2411 0c2e B091 0000 		lds r27,(Timebase)+1
 2412 0c32 90E0      		ldi r25,lo8(0)
 2413 0c34 29E1      		ldi r18,lo8(25)
 2414 0c36 30E0      		ldi r19,hi8(25)
 2415 0c38 829F      		mul r24,r18
 2416 0c3a F001      		movw r30,r0
 2417 0c3c 839F      		mul r24,r19
 2418 0c3e F00D      		add r31,r0
 2419 0c40 929F      		mul r25,r18
 2420 0c42 F00D      		add r31,r0
 2421 0c44 1124      		clr r1
 2422               	.LVL159:
 2423 0c46 EA0F      		add r30,r26
 2424 0c48 FB1F      		adc r31,r27
 2425 0c4a 878D      		ldd r24,Z+31
 2426 0c4c 8695      		lsr r24
 2427 0c4e 8F70      		andi r24,lo8(15)
 2428               	.LBE616:
 2429               	.LBE615:
 2430               	.LM275:
 2431 0c50 8130      		cpi r24,lo8(1)
 2432 0c52 01F4      		brne .L127
 2433               	.LBB617:
 2434               	.LBB618:
 2435               	.LM276:
 2436 0c54 1A96      		adiw r26,10
 2437 0c56 8D91      		ld r24,X+
 2438 0c58 9D91      		ld r25,X+
 2439 0c5a 0D90      		ld __tmp_reg__,X+
 2440 0c5c BC91      		ld r27,X
 2441 0c5e A02D      		mov r26,__tmp_reg__
 2442               	.LVL160:
 2443               	.LBE618:
 2444               	.LBE617:
 2445               	.LBB619:
 2446               	.LBB620:
 2447               	.LM277:
 2448 0c60 E0A4      		ldd r14,Z+40
 2449 0c62 F1A4      		ldd r15,Z+41
 2450 0c64 02A5      		ldd r16,Z+42
 2451 0c66 13A5      		ldd r17,Z+43
 2452 0c68 24A5      		ldd r18,Z+44
 2453 0c6a 35A5      		ldd r19,Z+45
 2454 0c6c 46A5      		ldd r20,Z+46
 2455 0c6e 57A5      		ldd r21,Z+47
 2456 0c70 D801      		movw r26,r16
 2457 0c72 C701      		movw r24,r14
 2458               	.LVL161:
 2459 0c74 821B      		sub r24,r18
 2460 0c76 930B      		sbc r25,r19
 2461 0c78 A40B      		sbc r26,r20
 2462 0c7a B50B      		sbc r27,r21
 2463 0c7c 80AB      		std Z+48,r24
 2464 0c7e 91AB      		std Z+49,r25
 2465 0c80 A2AB      		std Z+50,r26
 2466 0c82 B3AB      		std Z+51,r27
 2467               	.LBE620:
 2468               	.LBE619:
 2469               	.LM278:
 2470 0c84 1216      		cp __zero_reg__,r18
 2471 0c86 1306      		cpc __zero_reg__,r19
 2472 0c88 1406      		cpc __zero_reg__,r20
 2473 0c8a 1506      		cpc __zero_reg__,r21
 2474 0c8c 04F0      		brlt .L129
 2475               	.LBB621:
 2476               	.LBB622:
 2477               	.LM279:
 2478 0c8e 14A6      		std Z+44,__zero_reg__
 2479 0c90 15A6      		std Z+45,__zero_reg__
 2480 0c92 16A6      		std Z+46,__zero_reg__
 2481 0c94 17A6      		std Z+47,__zero_reg__
 2482               	.LBE622:
 2483               	.LBE621:
 2484               	.LBB623:
 2485               	.LBB624:
 2486               	.LM280:
 2487 0c96 E0AA      		std Z+48,r14
 2488 0c98 F1AA      		std Z+49,r15
 2489 0c9a 02AB      		std Z+50,r16
 2490 0c9c 13AB      		std Z+51,r17
 2491               	.LBE624:
 2492               	.LBE623:
 2493               	.LBB625:
 2494               	.LBB626:
 2495               	.LM281:
 2496 0c9e 878D      		ldd r24,Z+31
 2497 0ca0 817E      		andi r24,lo8(-31)
 2498 0ca2 8860      		ori r24,lo8(8)
 2499 0ca4 878F      		std Z+31,r24
 2500 0ca6 00C0      		rjmp .L129
 2501               	.L127:
 2502               	.LBE626:
 2503               	.LBE625:
 2504               	.LM282:
 2505 0ca8 8230      		cpi r24,lo8(2)
 2506 0caa 01F4      		brne .L129
 2507               	.LBB627:
 2508               	.LBB628:
 2509               	.LM283:
 2510 0cac 1A96      		adiw r26,10
 2511 0cae 8D91      		ld r24,X+
 2512 0cb0 9D91      		ld r25,X+
 2513 0cb2 0D90      		ld __tmp_reg__,X+
 2514 0cb4 BC91      		ld r27,X
 2515 0cb6 A02D      		mov r26,__tmp_reg__
 2516               	.LVL162:
 2517               	.LBE628:
 2518               	.LBE627:
 2519               	.LBB629:
 2520               	.LBB630:
 2521               	.LM284:
 2522 0cb8 80A5      		ldd r24,Z+40
 2523 0cba 91A5      		ldd r25,Z+41
 2524 0cbc A2A5      		ldd r26,Z+42
 2525 0cbe B3A5      		ldd r27,Z+43
 2526               	.LVL163:
 2527 0cc0 24A5      		ldd r18,Z+44
 2528 0cc2 35A5      		ldd r19,Z+45
 2529 0cc4 46A5      		ldd r20,Z+46
 2530 0cc6 57A5      		ldd r21,Z+47
 2531 0cc8 821B      		sub r24,r18
 2532 0cca 930B      		sbc r25,r19
 2533 0ccc A40B      		sbc r26,r20
 2534 0cce B50B      		sbc r27,r21
 2535 0cd0 80AB      		std Z+48,r24
 2536 0cd2 91AB      		std Z+49,r25
 2537 0cd4 A2AB      		std Z+50,r26
 2538 0cd6 B3AB      		std Z+51,r27
 2539               	.L129:
 2540               	/* epilogue start */
 2541               	.LBE630:
 2542               	.LBE629:
 2543               	.LM285:
 2544 0cd8 1F91      		pop r17
 2545 0cda 0F91      		pop r16
 2546 0cdc FF90      		pop r15
 2547 0cde EF90      		pop r14
 2548 0ce0 0895      		ret
 2549               	.LFE50:
 2551               	.global	Timebase_UpCounter_SS_Expired
 2553               	Timebase_UpCounter_SS_Expired:
 2554               	.LFB51:
 2555               	.LM286:
 2556               	.LVL164:
 2557               	/* prologue: function */
 2558               	/* frame size = 0 */
 2559               	.LM287:
 2560 0ce2 40E0      		ldi r20,lo8(0)
 2561 0ce4 E091 0000 		lds r30,Timebase
 2562 0ce8 F091 0000 		lds r31,(Timebase)+1
 2563 0cec 90E0      		ldi r25,lo8(0)
 2564               	.LVL165:
 2565 0cee 29E1      		ldi r18,lo8(25)
 2566 0cf0 30E0      		ldi r19,hi8(25)
 2567 0cf2 BC01      		movw r22,r24
 2568 0cf4 629F      		mul r22,r18
 2569 0cf6 C001      		movw r24,r0
 2570 0cf8 639F      		mul r22,r19
 2571 0cfa 900D      		add r25,r0
 2572 0cfc 729F      		mul r23,r18
 2573 0cfe 900D      		add r25,r0
 2574 0d00 1124      		clr r1
 2575               	.LVL166:
 2576 0d02 E80F      		add r30,r24
 2577 0d04 F91F      		adc r31,r25
 2578 0d06 878D      		ldd r24,Z+31
 2579 0d08 8695      		lsr r24
 2580 0d0a 8F70      		andi r24,lo8(15)
 2581 0d0c 8430      		cpi r24,lo8(4)
 2582 0d0e 01F4      		brne .L131
 2583 0d10 41E0      		ldi r20,lo8(1)
 2584               	.L131:
 2585               	.LM288:
 2586 0d12 842F      		mov r24,r20
 2587               	/* epilogue start */
 2588 0d14 0895      		ret
 2589               	.LFE51:
 2591               	.global	Timebase_UpCounter_SS_Expired_Event
 2593               	Timebase_UpCounter_SS_Expired_Event:
 2594               	.LFB52:
 2595               	.LM289:
 2596               	.LVL167:
 2597               	/* prologue: function */
 2598               	/* frame size = 0 */
 2599 0d16 482F      		mov r20,r24
 2600               	.LM290:
 2601 0d18 E091 0000 		lds r30,Timebase
 2602 0d1c F091 0000 		lds r31,(Timebase)+1
 2603 0d20 282F      		mov r18,r24
 2604 0d22 30E0      		ldi r19,lo8(0)
 2605               	.LVL168:
 2606 0d24 89E1      		ldi r24,lo8(25)
 2607 0d26 90E0      		ldi r25,hi8(25)
 2608               	.LVL169:
 2609 0d28 BC01      		movw r22,r24
 2610 0d2a 269F      		mul r18,r22
 2611 0d2c C001      		movw r24,r0
 2612 0d2e 279F      		mul r18,r23
 2613 0d30 900D      		add r25,r0
 2614 0d32 369F      		mul r19,r22
 2615 0d34 900D      		add r25,r0
 2616 0d36 1124      		clr r1
 2617 0d38 E80F      		add r30,r24
 2618 0d3a F91F      		adc r31,r25
 2619 0d3c 878D      		ldd r24,Z+31
 2620 0d3e 8695      		lsr r24
 2621 0d40 8F70      		andi r24,lo8(15)
 2622 0d42 8430      		cpi r24,lo8(4)
 2623 0d44 01F0      		breq .L134
 2624 0d46 80E0      		ldi r24,lo8(0)
 2625 0d48 0895      		ret
 2626               	.L134:
 2627               	.LBB631:
 2628               	.LBB632:
 2629               	.LM291:
 2630 0d4a 842F      		mov r24,r20
 2631 0d4c 0E94 0000 		call Timebase_UpCounter_SS_Reset
 2632               	.LVL170:
 2633 0d50 81E0      		ldi r24,lo8(1)
 2634               	.LBE632:
 2635               	.LBE631:
 2636               	.LM292:
 2637 0d52 0895      		ret
 2638               	.LFE52:
 2640               	.global	Timebase_UpCounter_SS_Set_Period_Value_Securely
 2642               	Timebase_UpCounter_SS_Set_Period_Value_Securely:
 2643               	.LFB53:
 2644               	.LM293:
 2645               	.LVL171:
 2646               	/* prologue: function */
 2647               	/* frame size = 0 */
 2648               	.LBB633:
 2649               	.LBB634:
 2650               	.LM294:
 2651 0d54 E091 0000 		lds r30,Timebase
 2652 0d58 F091 0000 		lds r31,(Timebase)+1
 2653 0d5c 90E0      		ldi r25,lo8(0)
 2654               	.LBE634:
 2655               	.LBE633:
 2656               	.LM295:
 2657 0d5e 29E1      		ldi r18,lo8(25)
 2658 0d60 30E0      		ldi r19,hi8(25)
 2659 0d62 DC01      		movw r26,r24
 2660               	.LVL172:
 2661 0d64 A29F      		mul r26,r18
 2662 0d66 C001      		movw r24,r0
 2663 0d68 A39F      		mul r26,r19
 2664 0d6a 900D      		add r25,r0
 2665 0d6c B29F      		mul r27,r18
 2666 0d6e 900D      		add r25,r0
 2667 0d70 1124      		clr r1
 2668 0d72 E80F      		add r30,r24
 2669 0d74 F91F      		adc r31,r25
 2670 0d76 878D      		ldd r24,Z+31
 2671 0d78 80FD      		sbrc r24,0
 2672 0d7a 00C0      		rjmp .L139
 2673               	.LBB635:
 2674               	.LBB636:
 2675               	.LM296:
 2676 0d7c 80A9      		ldd r24,Z+48
 2677 0d7e 91A9      		ldd r25,Z+49
 2678 0d80 A2A9      		ldd r26,Z+50
 2679 0d82 B3A9      		ldd r27,Z+51
 2680 0d84 840F      		add r24,r20
 2681 0d86 951F      		adc r25,r21
 2682 0d88 A61F      		adc r26,r22
 2683 0d8a B71F      		adc r27,r23
 2684 0d8c 84AB      		std Z+52,r24
 2685 0d8e 95AB      		std Z+53,r25
 2686 0d90 A6AB      		std Z+54,r26
 2687 0d92 B7AB      		std Z+55,r27
 2688               	.LBE636:
 2689               	.LBE635:
 2690               	.LBB637:
 2691               	.LBB638:
 2692               	.LM297:
 2693 0d94 878D      		ldd r24,Z+31
 2694 0d96 8160      		ori r24,lo8(1)
 2695 0d98 878F      		std Z+31,r24
 2696               	.L139:
 2697 0d9a 0895      		ret
 2698               	.LBE638:
 2699               	.LBE637:
 2700               	.LFE53:
 2702               	.global	Timebase_UpCounter_SS_Get_Remaining_Period_Value
 2704               	Timebase_UpCounter_SS_Get_Remaining_Period_Value:
 2705               	.LFB54:
 2706               	.LM298:
 2707               	.LVL173:
 2708               	/* prologue: function */
 2709               	/* frame size = 0 */
 2710               	.LBB639:
 2711               	.LBB640:
 2712               	.LM299:
 2713 0d9c E091 0000 		lds r30,Timebase
 2714 0da0 F091 0000 		lds r31,(Timebase)+1
 2715 0da4 90E0      		ldi r25,lo8(0)
 2716               	.LBE640:
 2717               	.LBE639:
 2718               	.LM300:
 2719 0da6 29E1      		ldi r18,lo8(25)
 2720 0da8 30E0      		ldi r19,hi8(25)
 2721 0daa AC01      		movw r20,r24
 2722               	.LVL174:
 2723 0dac 429F      		mul r20,r18
 2724 0dae C001      		movw r24,r0
 2725 0db0 439F      		mul r20,r19
 2726 0db2 900D      		add r25,r0
 2727 0db4 529F      		mul r21,r18
 2728 0db6 900D      		add r25,r0
 2729 0db8 1124      		clr r1
 2730 0dba E80F      		add r30,r24
 2731 0dbc F91F      		adc r31,r25
 2732 0dbe 24A9      		ldd r18,Z+52
 2733 0dc0 35A9      		ldd r19,Z+53
 2734 0dc2 46A9      		ldd r20,Z+54
 2735 0dc4 57A9      		ldd r21,Z+55
 2736               	.LVL175:
 2737 0dc6 80A9      		ldd r24,Z+48
 2738 0dc8 91A9      		ldd r25,Z+49
 2739 0dca A2A9      		ldd r26,Z+50
 2740 0dcc B3A9      		ldd r27,Z+51
 2741 0dce 281B      		sub r18,r24
 2742 0dd0 390B      		sbc r19,r25
 2743 0dd2 4A0B      		sbc r20,r26
 2744 0dd4 5B0B      		sbc r21,r27
 2745 0dd6 57FF      		sbrs r21,7
 2746 0dd8 00C0      		rjmp .L141
 2747 0dda 20E0      		ldi r18,lo8(0)
 2748 0ddc 30E0      		ldi r19,hi8(0)
 2749 0dde 40E0      		ldi r20,hlo8(0)
 2750 0de0 50E0      		ldi r21,hhi8(0)
 2751               	.L141:
 2752               	.LM301:
 2753 0de2 B901      		movw r22,r18
 2754               	.LVL176:
 2755 0de4 CA01      		movw r24,r20
 2756               	/* epilogue start */
 2757 0de6 0895      		ret
 2758               	.LFE54:
 2760               	.global	Timebase_UpCounter_SS_Period_Value_Expired
 2762               	Timebase_UpCounter_SS_Period_Value_Expired:
 2763               	.LFB55:
 2764               	.LM302:
 2765               	.LVL177:
 2766 0de8 CF93      		push r28
 2767 0dea DF93      		push r29
 2768               	/* prologue: function */
 2769               	/* frame size = 0 */
 2770               	.LBB641:
 2771               	.LBB642:
 2772               	.LBB643:
 2773               	.LBB644:
 2774               	.LM303:
 2775 0dec C091 0000 		lds r28,Timebase
 2776 0df0 D091 0000 		lds r29,(Timebase)+1
 2777 0df4 682F      		mov r22,r24
 2778 0df6 70E0      		ldi r23,lo8(0)
 2779               	.LBE644:
 2780               	.LBE643:
 2781               	.LM304:
 2782 0df8 89E1      		ldi r24,lo8(25)
 2783 0dfa 90E0      		ldi r25,hi8(25)
 2784               	.LVL178:
 2785 0dfc 689F      		mul r22,r24
 2786 0dfe F001      		movw r30,r0
 2787 0e00 699F      		mul r22,r25
 2788 0e02 F00D      		add r31,r0
 2789 0e04 789F      		mul r23,r24
 2790 0e06 F00D      		add r31,r0
 2791 0e08 1124      		clr r1
 2792 0e0a EC0F      		add r30,r28
 2793 0e0c FD1F      		adc r31,r29
 2794 0e0e 24A9      		ldd r18,Z+52
 2795 0e10 35A9      		ldd r19,Z+53
 2796 0e12 46A9      		ldd r20,Z+54
 2797 0e14 57A9      		ldd r21,Z+55
 2798               	.LVL179:
 2799 0e16 80A9      		ldd r24,Z+48
 2800 0e18 91A9      		ldd r25,Z+49
 2801 0e1a A2A9      		ldd r26,Z+50
 2802 0e1c B3A9      		ldd r27,Z+51
 2803 0e1e 281B      		sub r18,r24
 2804 0e20 390B      		sbc r19,r25
 2805 0e22 4A0B      		sbc r20,r26
 2806 0e24 5B0B      		sbc r21,r27
 2807               	.LM305:
 2808 0e26 57FD      		sbrc r21,7
 2809 0e28 00C0      		rjmp .L144
 2810               	.LBE642:
 2811               	.LBE641:
 2812               	.LM306:
 2813 0e2a 2115      		cp r18,__zero_reg__
 2814 0e2c 3105      		cpc r19,__zero_reg__
 2815 0e2e 4105      		cpc r20,__zero_reg__
 2816 0e30 5105      		cpc r21,__zero_reg__
 2817 0e32 01F0      		breq .L144
 2818 0e34 20E0      		ldi r18,lo8(0)
 2819               	.LVL180:
 2820 0e36 00C0      		rjmp .L145
 2821               	.LVL181:
 2822               	.L144:
 2823 0e38 20E0      		ldi r18,lo8(0)
 2824               	.LVL182:
 2825 0e3a 89E1      		ldi r24,lo8(25)
 2826 0e3c 90E0      		ldi r25,hi8(25)
 2827 0e3e AC01      		movw r20,r24
 2828 0e40 649F      		mul r22,r20
 2829 0e42 C001      		movw r24,r0
 2830 0e44 659F      		mul r22,r21
 2831 0e46 900D      		add r25,r0
 2832 0e48 749F      		mul r23,r20
 2833 0e4a 900D      		add r25,r0
 2834 0e4c 1124      		clr r1
 2835 0e4e C80F      		add r28,r24
 2836 0e50 D91F      		adc r29,r25
 2837 0e52 8F8D      		ldd r24,Y+31
 2838 0e54 80FF      		sbrs r24,0
 2839 0e56 21E0      		ldi r18,lo8(1)
 2840               	.L146:
 2841 0e58 81E0      		ldi r24,lo8(1)
 2842 0e5a 2827      		eor r18,r24
 2843               	.L145:
 2844               	.LM307:
 2845 0e5c 822F      		mov r24,r18
 2846               	/* epilogue start */
 2847 0e5e DF91      		pop r29
 2848 0e60 CF91      		pop r28
 2849 0e62 0895      		ret
 2850               	.LFE55:
 2852               	.global	Timebase_UpCounter_SS_Period_Value_Expired_Event
 2854               	Timebase_UpCounter_SS_Period_Value_Expired_Event:
 2855               	.LFB56:
 2856               	.LM308:
 2857               	.LVL183:
 2858 0e64 1F93      		push r17
 2859               	/* prologue: function */
 2860               	/* frame size = 0 */
 2861 0e66 182F      		mov r17,r24
 2862               	.LM309:
 2863 0e68 0E94 0000 		call Timebase_UpCounter_SS_Period_Value_Expired
 2864               	.LVL184:
 2865 0e6c 8130      		cpi r24,lo8(1)
 2866 0e6e 01F0      		breq .L149
 2867 0e70 80E0      		ldi r24,lo8(0)
 2868 0e72 00C0      		rjmp .L150
 2869               	.L149:
 2870               	.LBB645:
 2871               	.LBB646:
 2872               	.LM310:
 2873 0e74 E091 0000 		lds r30,Timebase
 2874 0e78 F091 0000 		lds r31,(Timebase)+1
 2875 0e7c 212F      		mov r18,r17
 2876 0e7e 30E0      		ldi r19,lo8(0)
 2877               	.LVL185:
 2878 0e80 89E1      		ldi r24,lo8(25)
 2879 0e82 90E0      		ldi r25,hi8(25)
 2880 0e84 AC01      		movw r20,r24
 2881 0e86 249F      		mul r18,r20
 2882 0e88 C001      		movw r24,r0
 2883 0e8a 259F      		mul r18,r21
 2884 0e8c 900D      		add r25,r0
 2885 0e8e 349F      		mul r19,r20
 2886 0e90 900D      		add r25,r0
 2887 0e92 1124      		clr r1
 2888 0e94 E80F      		add r30,r24
 2889 0e96 F91F      		adc r31,r25
 2890 0e98 878D      		ldd r24,Z+31
 2891 0e9a 8E7F      		andi r24,lo8(-2)
 2892 0e9c 878F      		std Z+31,r24
 2893 0e9e 81E0      		ldi r24,lo8(1)
 2894               	.L150:
 2895               	/* epilogue start */
 2896               	.LBE646:
 2897               	.LBE645:
 2898               	.LM311:
 2899 0ea0 1F91      		pop r17
 2900               	.LVL186:
 2901 0ea2 0895      		ret
 2902               	.LFE56:
 2904               	.global	Timebase_UpCounter_SS_Update_All
 2906               	Timebase_UpCounter_SS_Update_All:
 2907               	.LFB57:
 2908               	.LM312:
 2909               	/* prologue: function */
 2910               	/* frame size = 0 */
 2911               	.LBB647:
 2912               	.LM313:
 2913 0ea4 80E0      		ldi r24,lo8(0)
 2914 0ea6 0E94 0000 		call Timebase_UpCounter_SS_Update
 2915               	/* epilogue start */
 2916               	.LBE647:
 2917               	.LM314:
 2918 0eaa 0895      		ret
 2919               	.LFE57:
 2921               	.global	Timebase_UpCounter_SS_Reset_All
 2923               	Timebase_UpCounter_SS_Reset_All:
 2924               	.LFB58:
 2925               	.LM315:
 2926               	/* prologue: function */
 2927               	/* frame size = 0 */
 2928               	.LBB648:
 2929               	.LM316:
 2930 0eac 80E0      		ldi r24,lo8(0)
 2931 0eae 0E94 0000 		call Timebase_UpCounter_SS_Reset
 2932               	/* epilogue start */
 2933               	.LBE648:
 2934               	.LM317:
 2935 0eb2 0895      		ret
 2936               	.LFE58:
 2938               	.global	Timebase_UpCounter_Get_Status
 2940               	Timebase_UpCounter_Get_Status:
 2941               	.LFB59:
 2942               	.LM318:
 2943               	.LVL187:
 2944               	/* prologue: function */
 2945               	/* frame size = 0 */
 2946               	.LM319:
 2947 0eb4 E091 0000 		lds r30,Timebase
 2948 0eb8 F091 0000 		lds r31,(Timebase)+1
 2949 0ebc 90E0      		ldi r25,lo8(0)
 2950               	.LVL188:
 2951 0ebe 25E1      		ldi r18,lo8(21)
 2952 0ec0 30E0      		ldi r19,hi8(21)
 2953 0ec2 AC01      		movw r20,r24
 2954 0ec4 429F      		mul r20,r18
 2955 0ec6 C001      		movw r24,r0
 2956 0ec8 439F      		mul r20,r19
 2957 0eca 900D      		add r25,r0
 2958 0ecc 529F      		mul r21,r18
 2959 0ece 900D      		add r25,r0
 2960 0ed0 1124      		clr r1
 2961               	.LVL189:
 2962 0ed2 E80F      		add r30,r24
 2963 0ed4 F91F      		adc r31,r25
 2964 0ed6 80AD      		ldd r24,Z+56
 2965 0ed8 8695      		lsr r24
 2966               	.LM320:
 2967 0eda 8F70      		andi r24,lo8(15)
 2968               	/* epilogue start */
 2969 0edc 0895      		ret
 2970               	.LFE59:
 2972               	.global	Timebase_UpCounter_Set_Status
 2974               	Timebase_UpCounter_Set_Status:
 2975               	.LFB60:
 2976               	.LM321:
 2977               	.LVL190:
 2978               	/* prologue: function */
 2979               	/* frame size = 0 */
 2980               	.LM322:
 2981 0ede E091 0000 		lds r30,Timebase
 2982 0ee2 F091 0000 		lds r31,(Timebase)+1
 2983 0ee6 90E0      		ldi r25,lo8(0)
 2984               	.LVL191:
 2985 0ee8 25E1      		ldi r18,lo8(21)
 2986 0eea 30E0      		ldi r19,hi8(21)
 2987 0eec AC01      		movw r20,r24
 2988 0eee 429F      		mul r20,r18
 2989 0ef0 C001      		movw r24,r0
 2990 0ef2 439F      		mul r20,r19
 2991 0ef4 900D      		add r25,r0
 2992 0ef6 529F      		mul r21,r18
 2993 0ef8 900D      		add r25,r0
 2994 0efa 1124      		clr r1
 2995               	.LVL192:
 2996 0efc E80F      		add r30,r24
 2997 0efe F91F      		adc r31,r25
 2998 0f00 6F70      		andi r22,lo8(15)
 2999               	.LVL193:
 3000 0f02 660F      		lsl r22
 3001 0f04 80AD      		ldd r24,Z+56
 3002 0f06 817E      		andi r24,lo8(-31)
 3003 0f08 862B      		or r24,r22
 3004 0f0a 80AF      		std Z+56,r24
 3005               	/* epilogue start */
 3006               	.LM323:
 3007 0f0c 0895      		ret
 3008               	.LFE60:
 3010               	.global	Timebase_UpCounter_Get_Value
 3012               	Timebase_UpCounter_Get_Value:
 3013               	.LFB61:
 3014               	.LM324:
 3015               	.LVL194:
 3016               	/* prologue: function */
 3017               	/* frame size = 0 */
 3018               	.LM325:
 3019 0f0e E091 0000 		lds r30,Timebase
 3020 0f12 F091 0000 		lds r31,(Timebase)+1
 3021 0f16 90E0      		ldi r25,lo8(0)
 3022               	.LVL195:
 3023 0f18 25E1      		ldi r18,lo8(21)
 3024 0f1a 30E0      		ldi r19,hi8(21)
 3025 0f1c AC01      		movw r20,r24
 3026 0f1e 429F      		mul r20,r18
 3027 0f20 C001      		movw r24,r0
 3028 0f22 439F      		mul r20,r19
 3029 0f24 900D      		add r25,r0
 3030 0f26 529F      		mul r21,r18
 3031 0f28 900D      		add r25,r0
 3032 0f2a 1124      		clr r1
 3033               	.LVL196:
 3034 0f2c E80F      		add r30,r24
 3035 0f2e F91F      		adc r31,r25
 3036 0f30 EB5B      		subi r30,lo8(-(69))
 3037 0f32 FF4F      		sbci r31,hi8(-(69))
 3038 0f34 6081      		ld r22,Z
 3039 0f36 7181      		ldd r23,Z+1
 3040               	.LM326:
 3041 0f38 8281      		ldd r24,Z+2
 3042 0f3a 9381      		ldd r25,Z+3
 3043               	.LVL197:
 3044               	/* epilogue start */
 3045 0f3c 0895      		ret
 3046               	.LFE61:
 3048               	.global	Timebase_UpCounter_Set_Value
 3050               	Timebase_UpCounter_Set_Value:
 3051               	.LFB62:
 3052               	.LM327:
 3053               	.LVL198:
 3054               	/* prologue: function */
 3055               	/* frame size = 0 */
 3056               	.LM328:
 3057 0f3e E091 0000 		lds r30,Timebase
 3058 0f42 F091 0000 		lds r31,(Timebase)+1
 3059 0f46 90E0      		ldi r25,lo8(0)
 3060               	.LVL199:
 3061 0f48 25E1      		ldi r18,lo8(21)
 3062 0f4a 30E0      		ldi r19,hi8(21)
 3063 0f4c DC01      		movw r26,r24
 3064 0f4e A29F      		mul r26,r18
 3065 0f50 C001      		movw r24,r0
 3066 0f52 A39F      		mul r26,r19
 3067 0f54 900D      		add r25,r0
 3068 0f56 B29F      		mul r27,r18
 3069 0f58 900D      		add r25,r0
 3070 0f5a 1124      		clr r1
 3071               	.LVL200:
 3072 0f5c E80F      		add r30,r24
 3073 0f5e F91F      		adc r31,r25
 3074 0f60 EB5B      		subi r30,lo8(-(69))
 3075 0f62 FF4F      		sbci r31,hi8(-(69))
 3076 0f64 4083      		st Z,r20
 3077 0f66 5183      		std Z+1,r21
 3078 0f68 6283      		std Z+2,r22
 3079 0f6a 7383      		std Z+3,r23
 3080               	/* epilogue start */
 3081               	.LM329:
 3082 0f6c 0895      		ret
 3083               	.LFE62:
 3085               	.global	Timebase_UpCounter_Get_EndValue
 3087               	Timebase_UpCounter_Get_EndValue:
 3088               	.LFB63:
 3089               	.LM330:
 3090               	.LVL201:
 3091               	/* prologue: function */
 3092               	/* frame size = 0 */
 3093               	.LM331:
 3094 0f6e E091 0000 		lds r30,Timebase
 3095 0f72 F091 0000 		lds r31,(Timebase)+1
 3096 0f76 90E0      		ldi r25,lo8(0)
 3097               	.LVL202:
 3098 0f78 25E1      		ldi r18,lo8(21)
 3099 0f7a 30E0      		ldi r19,hi8(21)
 3100 0f7c AC01      		movw r20,r24
 3101 0f7e 429F      		mul r20,r18
 3102 0f80 C001      		movw r24,r0
 3103 0f82 439F      		mul r20,r19
 3104 0f84 900D      		add r25,r0
 3105 0f86 529F      		mul r21,r18
 3106 0f88 900D      		add r25,r0
 3107 0f8a 1124      		clr r1
 3108               	.LVL203:
 3109 0f8c E80F      		add r30,r24
 3110 0f8e F91F      		adc r31,r25
 3111 0f90 DF01      		movw r26,r30
 3112 0f92 D996      		adiw r26,57
 3113 0f94 61AD      		ldd r22,Z+57
 3114 0f96 1196      		adiw r26,1
 3115 0f98 7C91      		ld r23,X
 3116 0f9a 1197      		sbiw r26,1
 3117               	.LM332:
 3118 0f9c 1296      		adiw r26,2
 3119 0f9e 8C91      		ld r24,X
 3120 0fa0 1297      		sbiw r26,2
 3121 0fa2 1396      		adiw r26,3
 3122 0fa4 9C91      		ld r25,X
 3123               	.LVL204:
 3124               	/* epilogue start */
 3125 0fa6 0895      		ret
 3126               	.LFE63:
 3128               	.global	Timebase_UpCounter_Set_EndValue
 3130               	Timebase_UpCounter_Set_EndValue:
 3131               	.LFB64:
 3132               	.LM333:
 3133               	.LVL205:
 3134               	/* prologue: function */
 3135               	/* frame size = 0 */
 3136               	.LM334:
 3137 0fa8 E091 0000 		lds r30,Timebase
 3138 0fac F091 0000 		lds r31,(Timebase)+1
 3139 0fb0 90E0      		ldi r25,lo8(0)
 3140               	.LVL206:
 3141 0fb2 25E1      		ldi r18,lo8(21)
 3142 0fb4 30E0      		ldi r19,hi8(21)
 3143 0fb6 DC01      		movw r26,r24
 3144 0fb8 A29F      		mul r26,r18
 3145 0fba C001      		movw r24,r0
 3146 0fbc A39F      		mul r26,r19
 3147 0fbe 900D      		add r25,r0
 3148 0fc0 B29F      		mul r27,r18
 3149 0fc2 900D      		add r25,r0
 3150 0fc4 1124      		clr r1
 3151               	.LVL207:
 3152 0fc6 E80F      		add r30,r24
 3153 0fc8 F91F      		adc r31,r25
 3154 0fca 41AF      		std Z+57,r20
 3155 0fcc 52AF      		std Z+58,r21
 3156 0fce 63AF      		std Z+59,r22
 3157 0fd0 74AF      		std Z+60,r23
 3158               	/* epilogue start */
 3159               	.LM335:
 3160 0fd2 0895      		ret
 3161               	.LFE64:
 3163               	.global	Timebase_UpCounter_Get_TargetValue
 3165               	Timebase_UpCounter_Get_TargetValue:
 3166               	.LFB65:
 3167               	.LM336:
 3168               	.LVL208:
 3169               	/* prologue: function */
 3170               	/* frame size = 0 */
 3171               	.LM337:
 3172 0fd4 E091 0000 		lds r30,Timebase
 3173 0fd8 F091 0000 		lds r31,(Timebase)+1
 3174 0fdc 90E0      		ldi r25,lo8(0)
 3175               	.LVL209:
 3176 0fde 25E1      		ldi r18,lo8(21)
 3177 0fe0 30E0      		ldi r19,hi8(21)
 3178 0fe2 AC01      		movw r20,r24
 3179 0fe4 429F      		mul r20,r18
 3180 0fe6 C001      		movw r24,r0
 3181 0fe8 439F      		mul r20,r19
 3182 0fea 900D      		add r25,r0
 3183 0fec 529F      		mul r21,r18
 3184 0fee 900D      		add r25,r0
 3185 0ff0 1124      		clr r1
 3186               	.LVL210:
 3187 0ff2 E80F      		add r30,r24
 3188 0ff4 F91F      		adc r31,r25
 3189 0ff6 FD96      		adiw r30,61
 3190 0ff8 6081      		ld r22,Z
 3191 0ffa 7181      		ldd r23,Z+1
 3192               	.LM338:
 3193 0ffc 8281      		ldd r24,Z+2
 3194 0ffe 9381      		ldd r25,Z+3
 3195               	.LVL211:
 3196               	/* epilogue start */
 3197 1000 0895      		ret
 3198               	.LFE65:
 3200               	.global	Timebase_UpCounter_Set_TargetValue
 3202               	Timebase_UpCounter_Set_TargetValue:
 3203               	.LFB66:
 3204               	.LM339:
 3205               	.LVL212:
 3206               	/* prologue: function */
 3207               	/* frame size = 0 */
 3208               	.LM340:
 3209 1002 E091 0000 		lds r30,Timebase
 3210 1006 F091 0000 		lds r31,(Timebase)+1
 3211 100a 90E0      		ldi r25,lo8(0)
 3212               	.LVL213:
 3213 100c 25E1      		ldi r18,lo8(21)
 3214 100e 30E0      		ldi r19,hi8(21)
 3215 1010 DC01      		movw r26,r24
 3216 1012 A29F      		mul r26,r18
 3217 1014 C001      		movw r24,r0
 3218 1016 A39F      		mul r26,r19
 3219 1018 900D      		add r25,r0
 3220 101a B29F      		mul r27,r18
 3221 101c 900D      		add r25,r0
 3222 101e 1124      		clr r1
 3223               	.LVL214:
 3224 1020 E80F      		add r30,r24
 3225 1022 F91F      		adc r31,r25
 3226 1024 FD96      		adiw r30,61
 3227 1026 4083      		st Z,r20
 3228 1028 5183      		std Z+1,r21
 3229 102a 6283      		std Z+2,r22
 3230 102c 7383      		std Z+3,r23
 3231               	/* epilogue start */
 3232               	.LM341:
 3233 102e 0895      		ret
 3234               	.LFE66:
 3236               	.global	Timebase_UpCounter_Get_TemporaryValue
 3238               	Timebase_UpCounter_Get_TemporaryValue:
 3239               	.LFB67:
 3240               	.LM342:
 3241               	.LVL215:
 3242               	/* prologue: function */
 3243               	/* frame size = 0 */
 3244               	.LM343:
 3245 1030 E091 0000 		lds r30,Timebase
 3246 1034 F091 0000 		lds r31,(Timebase)+1
 3247 1038 90E0      		ldi r25,lo8(0)
 3248               	.LVL216:
 3249 103a 25E1      		ldi r18,lo8(21)
 3250 103c 30E0      		ldi r19,hi8(21)
 3251 103e AC01      		movw r20,r24
 3252 1040 429F      		mul r20,r18
 3253 1042 C001      		movw r24,r0
 3254 1044 439F      		mul r20,r19
 3255 1046 900D      		add r25,r0
 3256 1048 529F      		mul r21,r18
 3257 104a 900D      		add r25,r0
 3258 104c 1124      		clr r1
 3259               	.LVL217:
 3260 104e E80F      		add r30,r24
 3261 1050 F91F      		adc r31,r25
 3262 1052 EF5B      		subi r30,lo8(-(65))
 3263 1054 FF4F      		sbci r31,hi8(-(65))
 3264 1056 6081      		ld r22,Z
 3265 1058 7181      		ldd r23,Z+1
 3266               	.LM344:
 3267 105a 8281      		ldd r24,Z+2
 3268 105c 9381      		ldd r25,Z+3
 3269               	.LVL218:
 3270               	/* epilogue start */
 3271 105e 0895      		ret
 3272               	.LFE67:
 3274               	.global	Timebase_UpCounter_Set_TemporaryValue
 3276               	Timebase_UpCounter_Set_TemporaryValue:
 3277               	.LFB68:
 3278               	.LM345:
 3279               	.LVL219:
 3280               	/* prologue: function */
 3281               	/* frame size = 0 */
 3282               	.LM346:
 3283 1060 E091 0000 		lds r30,Timebase
 3284 1064 F091 0000 		lds r31,(Timebase)+1
 3285 1068 90E0      		ldi r25,lo8(0)
 3286               	.LVL220:
 3287 106a 25E1      		ldi r18,lo8(21)
 3288 106c 30E0      		ldi r19,hi8(21)
 3289 106e DC01      		movw r26,r24
 3290 1070 A29F      		mul r26,r18
 3291 1072 C001      		movw r24,r0
 3292 1074 A39F      		mul r26,r19
 3293 1076 900D      		add r25,r0
 3294 1078 B29F      		mul r27,r18
 3295 107a 900D      		add r25,r0
 3296 107c 1124      		clr r1
 3297               	.LVL221:
 3298 107e E80F      		add r30,r24
 3299 1080 F91F      		adc r31,r25
 3300 1082 EF5B      		subi r30,lo8(-(65))
 3301 1084 FF4F      		sbci r31,hi8(-(65))
 3302 1086 4083      		st Z,r20
 3303 1088 5183      		std Z+1,r21
 3304 108a 6283      		std Z+2,r22
 3305 108c 7383      		std Z+3,r23
 3306               	/* epilogue start */
 3307               	.LM347:
 3308 108e 0895      		ret
 3309               	.LFE68:
 3311               	.global	Timebase_UpCounter_Get_PeriodValue
 3313               	Timebase_UpCounter_Get_PeriodValue:
 3314               	.LFB69:
 3315               	.LM348:
 3316               	.LVL222:
 3317               	/* prologue: function */
 3318               	/* frame size = 0 */
 3319               	.LM349:
 3320 1090 E091 0000 		lds r30,Timebase
 3321 1094 F091 0000 		lds r31,(Timebase)+1
 3322 1098 90E0      		ldi r25,lo8(0)
 3323               	.LVL223:
 3324 109a 25E1      		ldi r18,lo8(21)
 3325 109c 30E0      		ldi r19,hi8(21)
 3326 109e AC01      		movw r20,r24
 3327 10a0 429F      		mul r20,r18
 3328 10a2 C001      		movw r24,r0
 3329 10a4 439F      		mul r20,r19
 3330 10a6 900D      		add r25,r0
 3331 10a8 529F      		mul r21,r18
 3332 10aa 900D      		add r25,r0
 3333 10ac 1124      		clr r1
 3334               	.LVL224:
 3335 10ae E80F      		add r30,r24
 3336 10b0 F91F      		adc r31,r25
 3337 10b2 E75B      		subi r30,lo8(-(73))
 3338 10b4 FF4F      		sbci r31,hi8(-(73))
 3339 10b6 6081      		ld r22,Z
 3340 10b8 7181      		ldd r23,Z+1
 3341               	.LM350:
 3342 10ba 8281      		ldd r24,Z+2
 3343 10bc 9381      		ldd r25,Z+3
 3344               	.LVL225:
 3345               	/* epilogue start */
 3346 10be 0895      		ret
 3347               	.LFE69:
 3349               	.global	Timebase_UpCounter_Set_PeriodValue
 3351               	Timebase_UpCounter_Set_PeriodValue:
 3352               	.LFB70:
 3353               	.LM351:
 3354               	.LVL226:
 3355               	/* prologue: function */
 3356               	/* frame size = 0 */
 3357               	.LM352:
 3358 10c0 E091 0000 		lds r30,Timebase
 3359 10c4 F091 0000 		lds r31,(Timebase)+1
 3360 10c8 90E0      		ldi r25,lo8(0)
 3361               	.LVL227:
 3362 10ca 25E1      		ldi r18,lo8(21)
 3363 10cc 30E0      		ldi r19,hi8(21)
 3364 10ce DC01      		movw r26,r24
 3365 10d0 A29F      		mul r26,r18
 3366 10d2 C001      		movw r24,r0
 3367 10d4 A39F      		mul r26,r19
 3368 10d6 900D      		add r25,r0
 3369 10d8 B29F      		mul r27,r18
 3370 10da 900D      		add r25,r0
 3371 10dc 1124      		clr r1
 3372               	.LVL228:
 3373 10de E80F      		add r30,r24
 3374 10e0 F91F      		adc r31,r25
 3375 10e2 E75B      		subi r30,lo8(-(73))
 3376 10e4 FF4F      		sbci r31,hi8(-(73))
 3377 10e6 4083      		st Z,r20
 3378 10e8 5183      		std Z+1,r21
 3379 10ea 6283      		std Z+2,r22
 3380 10ec 7383      		std Z+3,r23
 3381               	/* epilogue start */
 3382               	.LM353:
 3383 10ee 0895      		ret
 3384               	.LFE70:
 3386               	.global	Timebase_UpCounter_Get_Period_Flag
 3388               	Timebase_UpCounter_Get_Period_Flag:
 3389               	.LFB71:
 3390               	.LM354:
 3391               	.LVL229:
 3392               	/* prologue: function */
 3393               	/* frame size = 0 */
 3394               	.LM355:
 3395 10f0 E091 0000 		lds r30,Timebase
 3396 10f4 F091 0000 		lds r31,(Timebase)+1
 3397 10f8 90E0      		ldi r25,lo8(0)
 3398               	.LVL230:
 3399 10fa 25E1      		ldi r18,lo8(21)
 3400 10fc 30E0      		ldi r19,hi8(21)
 3401 10fe AC01      		movw r20,r24
 3402 1100 429F      		mul r20,r18
 3403 1102 C001      		movw r24,r0
 3404 1104 439F      		mul r20,r19
 3405 1106 900D      		add r25,r0
 3406 1108 529F      		mul r21,r18
 3407 110a 900D      		add r25,r0
 3408 110c 1124      		clr r1
 3409               	.LVL231:
 3410 110e E80F      		add r30,r24
 3411 1110 F91F      		adc r31,r25
 3412 1112 80AD      		ldd r24,Z+56
 3413               	.LM356:
 3414 1114 8170      		andi r24,lo8(1)
 3415               	/* epilogue start */
 3416 1116 0895      		ret
 3417               	.LFE71:
 3419               	.global	Timebase_UpCounter_Set_Period_Flag
 3421               	Timebase_UpCounter_Set_Period_Flag:
 3422               	.LFB72:
 3423               	.LM357:
 3424               	.LVL232:
 3425               	/* prologue: function */
 3426               	/* frame size = 0 */
 3427               	.LM358:
 3428 1118 E091 0000 		lds r30,Timebase
 3429 111c F091 0000 		lds r31,(Timebase)+1
 3430 1120 90E0      		ldi r25,lo8(0)
 3431               	.LVL233:
 3432 1122 25E1      		ldi r18,lo8(21)
 3433 1124 30E0      		ldi r19,hi8(21)
 3434 1126 AC01      		movw r20,r24
 3435 1128 429F      		mul r20,r18
 3436 112a C001      		movw r24,r0
 3437 112c 439F      		mul r20,r19
 3438 112e 900D      		add r25,r0
 3439 1130 529F      		mul r21,r18
 3440 1132 900D      		add r25,r0
 3441 1134 1124      		clr r1
 3442               	.LVL234:
 3443 1136 E80F      		add r30,r24
 3444 1138 F91F      		adc r31,r25
 3445 113a 80AD      		ldd r24,Z+56
 3446 113c 8160      		ori r24,lo8(1)
 3447 113e 80AF      		std Z+56,r24
 3448               	/* epilogue start */
 3449               	.LM359:
 3450 1140 0895      		ret
 3451               	.LFE72:
 3453               	.global	Timebase_UpCounter_Clear_Period_Flag
 3455               	Timebase_UpCounter_Clear_Period_Flag:
 3456               	.LFB73:
 3457               	.LM360:
 3458               	.LVL235:
 3459               	/* prologue: function */
 3460               	/* frame size = 0 */
 3461               	.LM361:
 3462 1142 E091 0000 		lds r30,Timebase
 3463 1146 F091 0000 		lds r31,(Timebase)+1
 3464 114a 90E0      		ldi r25,lo8(0)
 3465               	.LVL236:
 3466 114c 25E1      		ldi r18,lo8(21)
 3467 114e 30E0      		ldi r19,hi8(21)
 3468 1150 AC01      		movw r20,r24
 3469 1152 429F      		mul r20,r18
 3470 1154 C001      		movw r24,r0
 3471 1156 439F      		mul r20,r19
 3472 1158 900D      		add r25,r0
 3473 115a 529F      		mul r21,r18
 3474 115c 900D      		add r25,r0
 3475 115e 1124      		clr r1
 3476               	.LVL237:
 3477 1160 E80F      		add r30,r24
 3478 1162 F91F      		adc r31,r25
 3479 1164 80AD      		ldd r24,Z+56
 3480 1166 8E7F      		andi r24,lo8(-2)
 3481 1168 80AF      		std Z+56,r24
 3482               	/* epilogue start */
 3483               	.LM362:
 3484 116a 0895      		ret
 3485               	.LFE73:
 3487               	.global	Timebase_UpCounter_Reset
 3489               	Timebase_UpCounter_Reset:
 3490               	.LFB74:
 3491               	.LM363:
 3492               	.LVL238:
 3493               	/* prologue: function */
 3494               	/* frame size = 0 */
 3495               	.LBB649:
 3496               	.LBB650:
 3497               	.LM364:
 3498 116c E091 0000 		lds r30,Timebase
 3499 1170 F091 0000 		lds r31,(Timebase)+1
 3500 1174 90E0      		ldi r25,lo8(0)
 3501 1176 25E1      		ldi r18,lo8(21)
 3502 1178 30E0      		ldi r19,hi8(21)
 3503 117a AC01      		movw r20,r24
 3504               	.LVL239:
 3505 117c 429F      		mul r20,r18
 3506 117e C001      		movw r24,r0
 3507 1180 439F      		mul r20,r19
 3508 1182 900D      		add r25,r0
 3509 1184 529F      		mul r21,r18
 3510 1186 900D      		add r25,r0
 3511 1188 1124      		clr r1
 3512 118a E80F      		add r30,r24
 3513 118c F91F      		adc r31,r25
 3514 118e 80AD      		ldd r24,Z+56
 3515               	.LBE650:
 3516               	.LBE649:
 3517               	.LBB651:
 3518               	.LBB652:
 3519               	.LM365:
 3520 1190 EB5B      		subi r30,lo8(-(69))
 3521 1192 FF4F      		sbci r31,hi8(-(69))
 3522 1194 1082      		st Z,__zero_reg__
 3523 1196 1182      		std Z+1,__zero_reg__
 3524 1198 1282      		std Z+2,__zero_reg__
 3525 119a 1382      		std Z+3,__zero_reg__
 3526 119c E554      		subi r30,lo8(-(-69))
 3527 119e F040      		sbci r31,hi8(-(-69))
 3528               	.LBE652:
 3529               	.LBE651:
 3530               	.LBB653:
 3531               	.LBB654:
 3532               	.LM366:
 3533 11a0 11AE      		std Z+57,__zero_reg__
 3534 11a2 12AE      		std Z+58,__zero_reg__
 3535 11a4 13AE      		std Z+59,__zero_reg__
 3536 11a6 14AE      		std Z+60,__zero_reg__
 3537               	.LBE654:
 3538               	.LBE653:
 3539               	.LBB655:
 3540               	.LBB656:
 3541               	.LM367:
 3542 11a8 FD96      		adiw r30,61
 3543 11aa 1192      		st Z+,__zero_reg__
 3544 11ac 1192      		st Z+,__zero_reg__
 3545 11ae 1192      		st Z+,__zero_reg__
 3546 11b0 1192      		st Z+,__zero_reg__
 3547               	.LBE656:
 3548               	.LBE655:
 3549               	.LBB657:
 3550               	.LBB658:
 3551               	.LM368:
 3552 11b2 1082      		st Z,__zero_reg__
 3553 11b4 1182      		std Z+1,__zero_reg__
 3554 11b6 1282      		std Z+2,__zero_reg__
 3555 11b8 1382      		std Z+3,__zero_reg__
 3556               	.LBE658:
 3557               	.LBE657:
 3558               	.LBB659:
 3559               	.LBB660:
 3560               	.LM369:
 3561 11ba 3896      		adiw r30,8
 3562 11bc 1082      		st Z,__zero_reg__
 3563 11be 1182      		std Z+1,__zero_reg__
 3564 11c0 1282      		std Z+2,__zero_reg__
 3565 11c2 1382      		std Z+3,__zero_reg__
 3566 11c4 E954      		subi r30,lo8(-(-73))
 3567 11c6 F040      		sbci r31,hi8(-(-73))
 3568               	.LBE660:
 3569               	.LBE659:
 3570               	.LBB661:
 3571               	.LBB662:
 3572               	.LM370:
 3573 11c8 807E      		andi r24,lo8(-32)
 3574 11ca 80AF      		std Z+56,r24
 3575               	/* epilogue start */
 3576               	.LBE662:
 3577               	.LBE661:
 3578               	.LM371:
 3579 11cc 0895      		ret
 3580               	.LFE74:
 3582               	.global	Timebase_UpCounter_Clear_All_Flags
 3584               	Timebase_UpCounter_Clear_All_Flags:
 3585               	.LFB75:
 3586               	.LM372:
 3587               	.LVL240:
 3588               	/* prologue: function */
 3589               	/* frame size = 0 */
 3590               	.LM373:
 3591 11ce 0E94 0000 		call Timebase_UpCounter_Reset
 3592               	.LVL241:
 3593               	/* epilogue start */
 3594               	.LM374:
 3595 11d2 0895      		ret
 3596               	.LFE75:
 3598               	.global	Timebase_UpCounter_Start
 3600               	Timebase_UpCounter_Start:
 3601               	.LFB76:
 3602               	.LM375:
 3603               	.LVL242:
 3604               	/* prologue: function */
 3605               	/* frame size = 0 */
 3606               	.LBB663:
 3607               	.LBB664:
 3608               	.LM376:
 3609 11d4 E091 0000 		lds r30,Timebase
 3610 11d8 F091 0000 		lds r31,(Timebase)+1
 3611 11dc 90E0      		ldi r25,lo8(0)
 3612               	.LBE664:
 3613               	.LBE663:
 3614               	.LM377:
 3615 11de 25E1      		ldi r18,lo8(21)
 3616 11e0 30E0      		ldi r19,hi8(21)
 3617 11e2 AC01      		movw r20,r24
 3618               	.LVL243:
 3619 11e4 429F      		mul r20,r18
 3620 11e6 C001      		movw r24,r0
 3621 11e8 439F      		mul r20,r19
 3622 11ea 900D      		add r25,r0
 3623 11ec 529F      		mul r21,r18
 3624 11ee 900D      		add r25,r0
 3625 11f0 1124      		clr r1
 3626 11f2 E80F      		add r30,r24
 3627 11f4 F91F      		adc r31,r25
 3628 11f6 90AD      		ldd r25,Z+56
 3629 11f8 892F      		mov r24,r25
 3630 11fa 8695      		lsr r24
 3631 11fc 8F70      		andi r24,lo8(15)
 3632 11fe 8130      		cpi r24,lo8(1)
 3633 1200 01F0      		breq .L192
 3634               	.LBB665:
 3635               	.LBB666:
 3636               	.LM378:
 3637 1202 917E      		andi r25,lo8(-31)
 3638 1204 9260      		ori r25,lo8(2)
 3639 1206 90AF      		std Z+56,r25
 3640               	.L192:
 3641 1208 0895      		ret
 3642               	.LBE666:
 3643               	.LBE665:
 3644               	.LFE76:
 3646               	.global	Timebase_UpCounter_Stop
 3648               	Timebase_UpCounter_Stop:
 3649               	.LFB77:
 3650               	.LM379:
 3651               	.LVL244:
 3652               	/* prologue: function */
 3653               	/* frame size = 0 */
 3654               	.LBB667:
 3655               	.LBB668:
 3656               	.LM380:
 3657 120a E091 0000 		lds r30,Timebase
 3658 120e F091 0000 		lds r31,(Timebase)+1
 3659 1212 90E0      		ldi r25,lo8(0)
 3660               	.LBE668:
 3661               	.LBE667:
 3662               	.LM381:
 3663 1214 25E1      		ldi r18,lo8(21)
 3664 1216 30E0      		ldi r19,hi8(21)
 3665 1218 AC01      		movw r20,r24
 3666               	.LVL245:
 3667 121a 429F      		mul r20,r18
 3668 121c C001      		movw r24,r0
 3669 121e 439F      		mul r20,r19
 3670 1220 900D      		add r25,r0
 3671 1222 529F      		mul r21,r18
 3672 1224 900D      		add r25,r0
 3673 1226 1124      		clr r1
 3674 1228 E80F      		add r30,r24
 3675 122a F91F      		adc r31,r25
 3676 122c 90AD      		ldd r25,Z+56
 3677 122e 892F      		mov r24,r25
 3678 1230 8695      		lsr r24
 3679 1232 8F70      		andi r24,lo8(15)
 3680 1234 8230      		cpi r24,lo8(2)
 3681 1236 01F0      		breq .L195
 3682               	.LBB669:
 3683               	.LBB670:
 3684               	.LM382:
 3685 1238 917E      		andi r25,lo8(-31)
 3686 123a 9460      		ori r25,lo8(4)
 3687 123c 90AF      		std Z+56,r25
 3688               	.L195:
 3689 123e 0895      		ret
 3690               	.LBE670:
 3691               	.LBE669:
 3692               	.LFE77:
 3694               	.global	Timebase_UpCounter_Set_Securely
 3696               	Timebase_UpCounter_Set_Securely:
 3697               	.LFB78:
 3698               	.LM383:
 3699               	.LVL246:
 3700               	/* prologue: function */
 3701               	/* frame size = 0 */
 3702               	.LBB671:
 3703               	.LBB672:
 3704               	.LM384:
 3705 1240 A091 0000 		lds r26,Timebase
 3706 1244 B091 0000 		lds r27,(Timebase)+1
 3707 1248 90E0      		ldi r25,lo8(0)
 3708               	.LBE672:
 3709               	.LBE671:
 3710               	.LM385:
 3711 124a 25E1      		ldi r18,lo8(21)
 3712 124c 30E0      		ldi r19,hi8(21)
 3713 124e 829F      		mul r24,r18
 3714 1250 F001      		movw r30,r0
 3715 1252 839F      		mul r24,r19
 3716 1254 F00D      		add r31,r0
 3717 1256 929F      		mul r25,r18
 3718 1258 F00D      		add r31,r0
 3719 125a 1124      		clr r1
 3720               	.LVL247:
 3721 125c EA0F      		add r30,r26
 3722 125e FB1F      		adc r31,r27
 3723 1260 80AD      		ldd r24,Z+56
 3724 1262 8695      		lsr r24
 3725 1264 8F70      		andi r24,lo8(15)
 3726 1266 01F4      		brne .L198
 3727               	.LBB673:
 3728               	.LBB674:
 3729               	.LM386:
 3730 1268 EB5B      		subi r30,lo8(-(69))
 3731 126a FF4F      		sbci r31,hi8(-(69))
 3732 126c 1082      		st Z,__zero_reg__
 3733 126e 1182      		std Z+1,__zero_reg__
 3734 1270 1282      		std Z+2,__zero_reg__
 3735 1272 1382      		std Z+3,__zero_reg__
 3736               	.LBE674:
 3737               	.LBE673:
 3738               	.LBB675:
 3739               	.LBB676:
 3740               	.LM387:
 3741 1274 1292      		st -Z,__zero_reg__
 3742 1276 1292      		st -Z,__zero_reg__
 3743 1278 1292      		st -Z,__zero_reg__
 3744 127a 1292      		st -Z,__zero_reg__
 3745               	.LBE676:
 3746               	.LBE675:
 3747               	.LBB677:
 3748               	.LBB678:
 3749               	.LM388:
 3750 127c 7293      		st -Z,r23
 3751 127e 6293      		st -Z,r22
 3752 1280 5293      		st -Z,r21
 3753 1282 4293      		st -Z,r20
 3754 1284 FD97      		sbiw r30,61
 3755               	.LBE678:
 3756               	.LBE677:
 3757               	.LBB679:
 3758               	.LBB680:
 3759               	.LM389:
 3760 1286 1A96      		adiw r26,10
 3761 1288 8D91      		ld r24,X+
 3762 128a 9D91      		ld r25,X+
 3763 128c 0D90      		ld __tmp_reg__,X+
 3764 128e BC91      		ld r27,X
 3765 1290 A02D      		mov r26,__tmp_reg__
 3766               	.LVL248:
 3767               	.LBE680:
 3768               	.LBE679:
 3769               	.LBB681:
 3770               	.LBB682:
 3771               	.LM390:
 3772 1292 840F      		add r24,r20
 3773 1294 951F      		adc r25,r21
 3774 1296 A61F      		adc r26,r22
 3775 1298 B71F      		adc r27,r23
 3776 129a 81AF      		std Z+57,r24
 3777 129c 92AF      		std Z+58,r25
 3778 129e A3AF      		std Z+59,r26
 3779 12a0 B4AF      		std Z+60,r27
 3780               	.LBE682:
 3781               	.LBE681:
 3782               	.LBB683:
 3783               	.LBB684:
 3784               	.LM391:
 3785 12a2 90AD      		ldd r25,Z+56
 3786 12a4 892F      		mov r24,r25
 3787               	.LVL249:
 3788 12a6 8695      		lsr r24
 3789 12a8 8F70      		andi r24,lo8(15)
 3790 12aa 8130      		cpi r24,lo8(1)
 3791 12ac 01F0      		breq .L198
 3792               	.LBB685:
 3793               	.LBB686:
 3794               	.LM392:
 3795 12ae 917E      		andi r25,lo8(-31)
 3796 12b0 9260      		ori r25,lo8(2)
 3797 12b2 90AF      		std Z+56,r25
 3798               	.L198:
 3799 12b4 0895      		ret
 3800               	.LBE686:
 3801               	.LBE685:
 3802               	.LBE684:
 3803               	.LBE683:
 3804               	.LFE78:
 3806               	.global	Timebase_UpCounter_Set_Forcefully
 3808               	Timebase_UpCounter_Set_Forcefully:
 3809               	.LFB79:
 3810               	.LM393:
 3811               	.LVL250:
 3812 12b6 DF92      		push r13
 3813 12b8 EF92      		push r14
 3814 12ba FF92      		push r15
 3815 12bc 0F93      		push r16
 3816 12be 1F93      		push r17
 3817               	/* prologue: function */
 3818               	/* frame size = 0 */
 3819 12c0 D82E      		mov r13,r24
 3820 12c2 7A01      		movw r14,r20
 3821 12c4 8B01      		movw r16,r22
 3822               	.LM394:
 3823 12c6 0E94 0000 		call Timebase_UpCounter_Reset
 3824               	.LVL251:
 3825               	.LM395:
 3826 12ca 8D2D      		mov r24,r13
 3827 12cc B801      		movw r22,r16
 3828 12ce A701      		movw r20,r14
 3829 12d0 0E94 0000 		call Timebase_UpCounter_Set_Securely
 3830               	/* epilogue start */
 3831               	.LM396:
 3832 12d4 1F91      		pop r17
 3833 12d6 0F91      		pop r16
 3834 12d8 FF90      		pop r15
 3835 12da EF90      		pop r14
 3836               	.LVL252:
 3837 12dc DF90      		pop r13
 3838               	.LVL253:
 3839 12de 0895      		ret
 3840               	.LFE79:
 3842               	.global	Timebase_UpCounter_Update
 3844               	Timebase_UpCounter_Update:
 3845               	.LFB80:
 3846               	.LM397:
 3847               	.LVL254:
 3848 12e0 EF92      		push r14
 3849 12e2 FF92      		push r15
 3850 12e4 0F93      		push r16
 3851 12e6 1F93      		push r17
 3852 12e8 CF93      		push r28
 3853 12ea DF93      		push r29
 3854               	/* prologue: function */
 3855               	/* frame size = 0 */
 3856               	.LBB687:
 3857               	.LBB688:
 3858               	.LM398:
 3859 12ec A091 0000 		lds r26,Timebase
 3860 12f0 B091 0000 		lds r27,(Timebase)+1
 3861 12f4 90E0      		ldi r25,lo8(0)
 3862 12f6 25E1      		ldi r18,lo8(21)
 3863 12f8 30E0      		ldi r19,hi8(21)
 3864 12fa 829F      		mul r24,r18
 3865 12fc F001      		movw r30,r0
 3866 12fe 839F      		mul r24,r19
 3867 1300 F00D      		add r31,r0
 3868 1302 929F      		mul r25,r18
 3869 1304 F00D      		add r31,r0
 3870 1306 1124      		clr r1
 3871               	.LVL255:
 3872 1308 EA0F      		add r30,r26
 3873 130a FB1F      		adc r31,r27
 3874 130c 80AD      		ldd r24,Z+56
 3875 130e 8695      		lsr r24
 3876 1310 8F70      		andi r24,lo8(15)
 3877               	.LBE688:
 3878               	.LBE687:
 3879               	.LM399:
 3880 1312 8130      		cpi r24,lo8(1)
 3881 1314 01F0      		breq .+2
 3882 1316 00C0      		rjmp .L202
 3883               	.LBB689:
 3884               	.LBB690:
 3885               	.LM400:
 3886 1318 1A96      		adiw r26,10
 3887 131a 8D91      		ld r24,X+
 3888 131c 9D91      		ld r25,X+
 3889 131e 0D90      		ld __tmp_reg__,X+
 3890 1320 BC91      		ld r27,X
 3891 1322 A02D      		mov r26,__tmp_reg__
 3892               	.LVL256:
 3893               	.LBE690:
 3894               	.LBE689:
 3895               	.LM401:
 3896 1324 21AD      		ldd r18,Z+57
 3897 1326 32AD      		ldd r19,Z+58
 3898 1328 43AD      		ldd r20,Z+59
 3899 132a 54AD      		ldd r21,Z+60
 3900 132c 281B      		sub r18,r24
 3901 132e 390B      		sbc r19,r25
 3902 1330 4A0B      		sbc r20,r26
 3903 1332 5B0B      		sbc r21,r27
 3904               	.LBB691:
 3905               	.LBB692:
 3906               	.LM402:
 3907 1334 BF01      		movw r22,r30
 3908 1336 6F5B      		subi r22,lo8(-(65))
 3909 1338 7F4F      		sbci r23,hi8(-(65))
 3910 133a DB01      		movw r26,r22
 3911 133c 2D93      		st X+,r18
 3912 133e 3D93      		st X+,r19
 3913 1340 4D93      		st X+,r20
 3914 1342 5C93      		st X,r21
 3915 1344 1397      		sbiw r26,3
 3916               	.LBE692:
 3917               	.LBE691:
 3918               	.LBB693:
 3919               	.LBB694:
 3920               	.LM403:
 3921 1346 EF01      		movw r28,r30
 3922 1348 CB5B      		subi r28,lo8(-(69))
 3923 134a DF4F      		sbci r29,hi8(-(69))
 3924 134c FD96      		adiw r30,61
 3925 134e E080      		ld r14,Z
 3926 1350 F180      		ldd r15,Z+1
 3927 1352 0281      		ldd r16,Z+2
 3928 1354 1381      		ldd r17,Z+3
 3929 1356 FD97      		sbiw r30,61
 3930 1358 D801      		movw r26,r16
 3931 135a C701      		movw r24,r14
 3932               	.LVL257:
 3933 135c 821B      		sub r24,r18
 3934 135e 930B      		sbc r25,r19
 3935 1360 A40B      		sbc r26,r20
 3936 1362 B50B      		sbc r27,r21
 3937 1364 8883      		st Y,r24
 3938 1366 9983      		std Y+1,r25
 3939 1368 AA83      		std Y+2,r26
 3940 136a BB83      		std Y+3,r27
 3941               	.LBE694:
 3942               	.LBE693:
 3943               	.LM404:
 3944 136c 1216      		cp __zero_reg__,r18
 3945 136e 1306      		cpc __zero_reg__,r19
 3946 1370 1406      		cpc __zero_reg__,r20
 3947 1372 1506      		cpc __zero_reg__,r21
 3948 1374 04F0      		brlt .L204
 3949               	.LBB695:
 3950               	.LBB696:
 3951               	.LM405:
 3952 1376 11AE      		std Z+57,__zero_reg__
 3953 1378 12AE      		std Z+58,__zero_reg__
 3954 137a 13AE      		std Z+59,__zero_reg__
 3955 137c 14AE      		std Z+60,__zero_reg__
 3956               	.LBE696:
 3957               	.LBE695:
 3958               	.LBB697:
 3959               	.LBB698:
 3960               	.LM406:
 3961 137e DB01      		movw r26,r22
 3962 1380 1D92      		st X+,__zero_reg__
 3963 1382 1D92      		st X+,__zero_reg__
 3964 1384 1D92      		st X+,__zero_reg__
 3965 1386 1C92      		st X,__zero_reg__
 3966 1388 1397      		sbiw r26,3
 3967               	.LBE698:
 3968               	.LBE697:
 3969               	.LBB699:
 3970               	.LBB700:
 3971               	.LM407:
 3972 138a E882      		st Y,r14
 3973 138c F982      		std Y+1,r15
 3974 138e 0A83      		std Y+2,r16
 3975 1390 1B83      		std Y+3,r17
 3976               	.LBE700:
 3977               	.LBE699:
 3978               	.LBB701:
 3979               	.LBB702:
 3980               	.LM408:
 3981 1392 80AD      		ldd r24,Z+56
 3982 1394 817E      		andi r24,lo8(-31)
 3983 1396 8860      		ori r24,lo8(8)
 3984 1398 80AF      		std Z+56,r24
 3985 139a 00C0      		rjmp .L204
 3986               	.L202:
 3987               	.LBE702:
 3988               	.LBE701:
 3989               	.LM409:
 3990 139c 8230      		cpi r24,lo8(2)
 3991 139e 01F4      		brne .L204
 3992               	.LBB703:
 3993               	.LBB704:
 3994               	.LM410:
 3995 13a0 1A96      		adiw r26,10
 3996 13a2 8D91      		ld r24,X+
 3997 13a4 9D91      		ld r25,X+
 3998 13a6 0D90      		ld __tmp_reg__,X+
 3999 13a8 BC91      		ld r27,X
 4000 13aa A02D      		mov r26,__tmp_reg__
 4001               	.LVL258:
 4002               	.LBE704:
 4003               	.LBE703:
 4004               	.LBB705:
 4005               	.LBB706:
 4006               	.LM411:
 4007 13ac EF5B      		subi r30,lo8(-(65))
 4008 13ae FF4F      		sbci r31,hi8(-(65))
 4009 13b0 2081      		ld r18,Z
 4010 13b2 3181      		ldd r19,Z+1
 4011 13b4 4281      		ldd r20,Z+2
 4012 13b6 5381      		ldd r21,Z+3
 4013 13b8 E154      		subi r30,lo8(-(-65))
 4014 13ba F040      		sbci r31,hi8(-(-65))
 4015 13bc 820F      		add r24,r18
 4016 13be 931F      		adc r25,r19
 4017 13c0 A41F      		adc r26,r20
 4018 13c2 B51F      		adc r27,r21
 4019 13c4 81AF      		std Z+57,r24
 4020 13c6 92AF      		std Z+58,r25
 4021 13c8 A3AF      		std Z+59,r26
 4022 13ca B4AF      		std Z+60,r27
 4023               	.LBE706:
 4024               	.LBE705:
 4025               	.LBB707:
 4026               	.LBB708:
 4027               	.LM412:
 4028 13cc FD96      		adiw r30,61
 4029 13ce 8081      		ld r24,Z
 4030 13d0 9181      		ldd r25,Z+1
 4031 13d2 A281      		ldd r26,Z+2
 4032 13d4 B381      		ldd r27,Z+3
 4033               	.LVL259:
 4034 13d6 821B      		sub r24,r18
 4035 13d8 930B      		sbc r25,r19
 4036 13da A40B      		sbc r26,r20
 4037 13dc B50B      		sbc r27,r21
 4038 13de 3896      		adiw r30,8
 4039 13e0 8083      		st Z,r24
 4040 13e2 9183      		std Z+1,r25
 4041 13e4 A283      		std Z+2,r26
 4042 13e6 B383      		std Z+3,r27
 4043               	.L204:
 4044               	/* epilogue start */
 4045               	.LBE708:
 4046               	.LBE707:
 4047               	.LM413:
 4048 13e8 DF91      		pop r29
 4049 13ea CF91      		pop r28
 4050 13ec 1F91      		pop r17
 4051 13ee 0F91      		pop r16
 4052 13f0 FF90      		pop r15
 4053 13f2 EF90      		pop r14
 4054 13f4 0895      		ret
 4055               	.LFE80:
 4057               	.global	Timebase_UpCounter_Expired
 4059               	Timebase_UpCounter_Expired:
 4060               	.LFB81:
 4061               	.LM414:
 4062               	.LVL260:
 4063               	/* prologue: function */
 4064               	/* frame size = 0 */
 4065               	.LM415:
 4066 13f6 40E0      		ldi r20,lo8(0)
 4067 13f8 E091 0000 		lds r30,Timebase
 4068 13fc F091 0000 		lds r31,(Timebase)+1
 4069 1400 90E0      		ldi r25,lo8(0)
 4070               	.LVL261:
 4071 1402 25E1      		ldi r18,lo8(21)
 4072 1404 30E0      		ldi r19,hi8(21)
 4073 1406 BC01      		movw r22,r24
 4074 1408 629F      		mul r22,r18
 4075 140a C001      		movw r24,r0
 4076 140c 639F      		mul r22,r19
 4077 140e 900D      		add r25,r0
 4078 1410 729F      		mul r23,r18
 4079 1412 900D      		add r25,r0
 4080 1414 1124      		clr r1
 4081               	.LVL262:
 4082 1416 E80F      		add r30,r24
 4083 1418 F91F      		adc r31,r25
 4084 141a 80AD      		ldd r24,Z+56
 4085 141c 8695      		lsr r24
 4086 141e 8F70      		andi r24,lo8(15)
 4087 1420 8430      		cpi r24,lo8(4)
 4088 1422 01F4      		brne .L206
 4089 1424 41E0      		ldi r20,lo8(1)
 4090               	.L206:
 4091               	.LM416:
 4092 1426 842F      		mov r24,r20
 4093               	/* epilogue start */
 4094 1428 0895      		ret
 4095               	.LFE81:
 4097               	.global	Timebase_UpCounter_Expired_Event
 4099               	Timebase_UpCounter_Expired_Event:
 4100               	.LFB82:
 4101               	.LM417:
 4102               	.LVL263:
 4103               	/* prologue: function */
 4104               	/* frame size = 0 */
 4105 142a 482F      		mov r20,r24
 4106               	.LM418:
 4107 142c E091 0000 		lds r30,Timebase
 4108 1430 F091 0000 		lds r31,(Timebase)+1
 4109 1434 282F      		mov r18,r24
 4110 1436 30E0      		ldi r19,lo8(0)
 4111               	.LVL264:
 4112 1438 85E1      		ldi r24,lo8(21)
 4113 143a 90E0      		ldi r25,hi8(21)
 4114               	.LVL265:
 4115 143c BC01      		movw r22,r24
 4116 143e 269F      		mul r18,r22
 4117 1440 C001      		movw r24,r0
 4118 1442 279F      		mul r18,r23
 4119 1444 900D      		add r25,r0
 4120 1446 369F      		mul r19,r22
 4121 1448 900D      		add r25,r0
 4122 144a 1124      		clr r1
 4123 144c E80F      		add r30,r24
 4124 144e F91F      		adc r31,r25
 4125 1450 80AD      		ldd r24,Z+56
 4126 1452 8695      		lsr r24
 4127 1454 8F70      		andi r24,lo8(15)
 4128 1456 8430      		cpi r24,lo8(4)
 4129 1458 01F0      		breq .L209
 4130 145a 80E0      		ldi r24,lo8(0)
 4131 145c 0895      		ret
 4132               	.L209:
 4133               	.LBB709:
 4134               	.LBB710:
 4135               	.LM419:
 4136 145e 842F      		mov r24,r20
 4137 1460 0E94 0000 		call Timebase_UpCounter_Reset
 4138               	.LVL266:
 4139 1464 81E0      		ldi r24,lo8(1)
 4140               	.LBE710:
 4141               	.LBE709:
 4142               	.LM420:
 4143 1466 0895      		ret
 4144               	.LFE82:
 4146               	.global	Timebase_UpCounter_Set_Period_Value_Securely
 4148               	Timebase_UpCounter_Set_Period_Value_Securely:
 4149               	.LFB83:
 4150               	.LM421:
 4151               	.LVL267:
 4152 1468 CF93      		push r28
 4153 146a DF93      		push r29
 4154               	/* prologue: function */
 4155               	/* frame size = 0 */
 4156               	.LBB711:
 4157               	.LBB712:
 4158               	.LM422:
 4159 146c C091 0000 		lds r28,Timebase
 4160 1470 D091 0000 		lds r29,(Timebase)+1
 4161 1474 90E0      		ldi r25,lo8(0)
 4162               	.LBE712:
 4163               	.LBE711:
 4164               	.LM423:
 4165 1476 25E1      		ldi r18,lo8(21)
 4166 1478 30E0      		ldi r19,hi8(21)
 4167 147a FC01      		movw r30,r24
 4168               	.LVL268:
 4169 147c E29F      		mul r30,r18
 4170 147e C001      		movw r24,r0
 4171 1480 E39F      		mul r30,r19
 4172 1482 900D      		add r25,r0
 4173 1484 F29F      		mul r31,r18
 4174 1486 900D      		add r25,r0
 4175 1488 1124      		clr r1
 4176 148a C80F      		add r28,r24
 4177 148c D91F      		adc r29,r25
 4178 148e 88AD      		ldd r24,Y+56
 4179 1490 80FD      		sbrc r24,0
 4180 1492 00C0      		rjmp .L214
 4181               	.LBB713:
 4182               	.LBB714:
 4183               	.LM424:
 4184 1494 FE01      		movw r30,r28
 4185 1496 E75B      		subi r30,lo8(-(73))
 4186 1498 FF4F      		sbci r31,hi8(-(73))
 4187 149a CB5B      		subi r28,lo8(-(69))
 4188 149c DF4F      		sbci r29,hi8(-(69))
 4189 149e 8881      		ld r24,Y
 4190 14a0 9981      		ldd r25,Y+1
 4191 14a2 AA81      		ldd r26,Y+2
 4192 14a4 BB81      		ldd r27,Y+3
 4193 14a6 C554      		subi r28,lo8(-(-69))
 4194 14a8 D040      		sbci r29,hi8(-(-69))
 4195 14aa 840F      		add r24,r20
 4196 14ac 951F      		adc r25,r21
 4197 14ae A61F      		adc r26,r22
 4198 14b0 B71F      		adc r27,r23
 4199 14b2 8083      		st Z,r24
 4200 14b4 9183      		std Z+1,r25
 4201 14b6 A283      		std Z+2,r26
 4202 14b8 B383      		std Z+3,r27
 4203               	.LBE714:
 4204               	.LBE713:
 4205               	.LBB715:
 4206               	.LBB716:
 4207               	.LM425:
 4208 14ba 88AD      		ldd r24,Y+56
 4209 14bc 8160      		ori r24,lo8(1)
 4210 14be 88AF      		std Y+56,r24
 4211               	.L214:
 4212               	/* epilogue start */
 4213               	.LBE716:
 4214               	.LBE715:
 4215               	.LM426:
 4216 14c0 DF91      		pop r29
 4217 14c2 CF91      		pop r28
 4218 14c4 0895      		ret
 4219               	.LFE83:
 4221               	.global	Timebase_UpCounter_Get_Remaining_Period_Value
 4223               	Timebase_UpCounter_Get_Remaining_Period_Value:
 4224               	.LFB84:
 4225               	.LM427:
 4226               	.LVL269:
 4227               	/* prologue: function */
 4228               	/* frame size = 0 */
 4229               	.LBB717:
 4230               	.LBB718:
 4231               	.LM428:
 4232 14c6 E091 0000 		lds r30,Timebase
 4233 14ca F091 0000 		lds r31,(Timebase)+1
 4234 14ce 90E0      		ldi r25,lo8(0)
 4235               	.LBE718:
 4236               	.LBE717:
 4237               	.LM429:
 4238 14d0 25E1      		ldi r18,lo8(21)
 4239 14d2 30E0      		ldi r19,hi8(21)
 4240 14d4 AC01      		movw r20,r24
 4241               	.LVL270:
 4242 14d6 429F      		mul r20,r18
 4243 14d8 C001      		movw r24,r0
 4244 14da 439F      		mul r20,r19
 4245 14dc 900D      		add r25,r0
 4246 14de 529F      		mul r21,r18
 4247 14e0 900D      		add r25,r0
 4248 14e2 1124      		clr r1
 4249 14e4 E80F      		add r30,r24
 4250 14e6 F91F      		adc r31,r25
 4251 14e8 DF01      		movw r26,r30
 4252 14ea AB5B      		subi r26,lo8(-(69))
 4253 14ec BF4F      		sbci r27,hi8(-(69))
 4254 14ee E75B      		subi r30,lo8(-(73))
 4255 14f0 FF4F      		sbci r31,hi8(-(73))
 4256 14f2 2081      		ld r18,Z
 4257 14f4 3181      		ldd r19,Z+1
 4258 14f6 4281      		ldd r20,Z+2
 4259 14f8 5381      		ldd r21,Z+3
 4260               	.LVL271:
 4261 14fa 8D91      		ld r24,X+
 4262 14fc 9D91      		ld r25,X+
 4263 14fe 0D90      		ld __tmp_reg__,X+
 4264 1500 BC91      		ld r27,X
 4265 1502 A02D      		mov r26,__tmp_reg__
 4266 1504 281B      		sub r18,r24
 4267 1506 390B      		sbc r19,r25
 4268 1508 4A0B      		sbc r20,r26
 4269 150a 5B0B      		sbc r21,r27
 4270 150c 57FF      		sbrs r21,7
 4271 150e 00C0      		rjmp .L216
 4272 1510 20E0      		ldi r18,lo8(0)
 4273 1512 30E0      		ldi r19,hi8(0)
 4274 1514 40E0      		ldi r20,hlo8(0)
 4275 1516 50E0      		ldi r21,hhi8(0)
 4276               	.L216:
 4277               	.LM430:
 4278 1518 B901      		movw r22,r18
 4279               	.LVL272:
 4280 151a CA01      		movw r24,r20
 4281               	/* epilogue start */
 4282 151c 0895      		ret
 4283               	.LFE84:
 4285               	.global	Timebase_UpCounter_Period_Value_Expired
 4287               	Timebase_UpCounter_Period_Value_Expired:
 4288               	.LFB85:
 4289               	.LM431:
 4290               	.LVL273:
 4291 151e CF93      		push r28
 4292 1520 DF93      		push r29
 4293               	/* prologue: function */
 4294               	/* frame size = 0 */
 4295               	.LBB719:
 4296               	.LBB720:
 4297               	.LBB721:
 4298               	.LBB722:
 4299               	.LM432:
 4300 1522 C091 0000 		lds r28,Timebase
 4301 1526 D091 0000 		lds r29,(Timebase)+1
 4302 152a 682F      		mov r22,r24
 4303 152c 70E0      		ldi r23,lo8(0)
 4304               	.LBE722:
 4305               	.LBE721:
 4306               	.LM433:
 4307 152e 85E1      		ldi r24,lo8(21)
 4308 1530 90E0      		ldi r25,hi8(21)
 4309               	.LVL274:
 4310 1532 689F      		mul r22,r24
 4311 1534 F001      		movw r30,r0
 4312 1536 699F      		mul r22,r25
 4313 1538 F00D      		add r31,r0
 4314 153a 789F      		mul r23,r24
 4315 153c F00D      		add r31,r0
 4316 153e 1124      		clr r1
 4317 1540 EC0F      		add r30,r28
 4318 1542 FD1F      		adc r31,r29
 4319 1544 DF01      		movw r26,r30
 4320 1546 AB5B      		subi r26,lo8(-(69))
 4321 1548 BF4F      		sbci r27,hi8(-(69))
 4322 154a E75B      		subi r30,lo8(-(73))
 4323 154c FF4F      		sbci r31,hi8(-(73))
 4324 154e 2081      		ld r18,Z
 4325 1550 3181      		ldd r19,Z+1
 4326 1552 4281      		ldd r20,Z+2
 4327 1554 5381      		ldd r21,Z+3
 4328               	.LVL275:
 4329 1556 8D91      		ld r24,X+
 4330 1558 9D91      		ld r25,X+
 4331 155a 0D90      		ld __tmp_reg__,X+
 4332 155c BC91      		ld r27,X
 4333 155e A02D      		mov r26,__tmp_reg__
 4334 1560 281B      		sub r18,r24
 4335 1562 390B      		sbc r19,r25
 4336 1564 4A0B      		sbc r20,r26
 4337 1566 5B0B      		sbc r21,r27
 4338               	.LM434:
 4339 1568 57FD      		sbrc r21,7
 4340 156a 00C0      		rjmp .L219
 4341               	.LBE720:
 4342               	.LBE719:
 4343               	.LM435:
 4344 156c 2115      		cp r18,__zero_reg__
 4345 156e 3105      		cpc r19,__zero_reg__
 4346 1570 4105      		cpc r20,__zero_reg__
 4347 1572 5105      		cpc r21,__zero_reg__
 4348 1574 01F0      		breq .L219
 4349 1576 20E0      		ldi r18,lo8(0)
 4350               	.LVL276:
 4351 1578 00C0      		rjmp .L220
 4352               	.LVL277:
 4353               	.L219:
 4354 157a 20E0      		ldi r18,lo8(0)
 4355               	.LVL278:
 4356 157c 85E1      		ldi r24,lo8(21)
 4357 157e 90E0      		ldi r25,hi8(21)
 4358 1580 AC01      		movw r20,r24
 4359 1582 649F      		mul r22,r20
 4360 1584 C001      		movw r24,r0
 4361 1586 659F      		mul r22,r21
 4362 1588 900D      		add r25,r0
 4363 158a 749F      		mul r23,r20
 4364 158c 900D      		add r25,r0
 4365 158e 1124      		clr r1
 4366 1590 C80F      		add r28,r24
 4367 1592 D91F      		adc r29,r25
 4368 1594 88AD      		ldd r24,Y+56
 4369 1596 80FF      		sbrs r24,0
 4370 1598 21E0      		ldi r18,lo8(1)
 4371               	.L221:
 4372 159a 81E0      		ldi r24,lo8(1)
 4373 159c 2827      		eor r18,r24
 4374               	.L220:
 4375               	.LM436:
 4376 159e 822F      		mov r24,r18
 4377               	/* epilogue start */
 4378 15a0 DF91      		pop r29
 4379 15a2 CF91      		pop r28
 4380 15a4 0895      		ret
 4381               	.LFE85:
 4383               	.global	Timebase_UpCounter_Period_Value_Expired_Event
 4385               	Timebase_UpCounter_Period_Value_Expired_Event:
 4386               	.LFB86:
 4387               	.LM437:
 4388               	.LVL279:
 4389 15a6 1F93      		push r17
 4390               	/* prologue: function */
 4391               	/* frame size = 0 */
 4392 15a8 182F      		mov r17,r24
 4393               	.LM438:
 4394 15aa 0E94 0000 		call Timebase_UpCounter_Period_Value_Expired
 4395               	.LVL280:
 4396 15ae 8130      		cpi r24,lo8(1)
 4397 15b0 01F0      		breq .L224
 4398 15b2 80E0      		ldi r24,lo8(0)
 4399 15b4 00C0      		rjmp .L225
 4400               	.L224:
 4401               	.LBB723:
 4402               	.LBB724:
 4403               	.LM439:
 4404 15b6 E091 0000 		lds r30,Timebase
 4405 15ba F091 0000 		lds r31,(Timebase)+1
 4406 15be 212F      		mov r18,r17
 4407 15c0 30E0      		ldi r19,lo8(0)
 4408               	.LVL281:
 4409 15c2 85E1      		ldi r24,lo8(21)
 4410 15c4 90E0      		ldi r25,hi8(21)
 4411 15c6 AC01      		movw r20,r24
 4412 15c8 249F      		mul r18,r20
 4413 15ca C001      		movw r24,r0
 4414 15cc 259F      		mul r18,r21
 4415 15ce 900D      		add r25,r0
 4416 15d0 349F      		mul r19,r20
 4417 15d2 900D      		add r25,r0
 4418 15d4 1124      		clr r1
 4419 15d6 E80F      		add r30,r24
 4420 15d8 F91F      		adc r31,r25
 4421 15da 80AD      		ldd r24,Z+56
 4422 15dc 8E7F      		andi r24,lo8(-2)
 4423 15de 80AF      		std Z+56,r24
 4424 15e0 81E0      		ldi r24,lo8(1)
 4425               	.L225:
 4426               	/* epilogue start */
 4427               	.LBE724:
 4428               	.LBE723:
 4429               	.LM440:
 4430 15e2 1F91      		pop r17
 4431               	.LVL282:
 4432 15e4 0895      		ret
 4433               	.LFE86:
 4435               	.global	Timebase_UpCounter_Update_All
 4437               	Timebase_UpCounter_Update_All:
 4438               	.LFB87:
 4439               	.LM441:
 4440               	/* prologue: function */
 4441               	/* frame size = 0 */
 4442               	.LBB725:
 4443               	.LM442:
 4444 15e6 80E0      		ldi r24,lo8(0)
 4445 15e8 0E94 0000 		call Timebase_UpCounter_Update
 4446               	/* epilogue start */
 4447               	.LBE725:
 4448               	.LM443:
 4449 15ec 0895      		ret
 4450               	.LFE87:
 4452               	.global	Timebase_UpCounter_Reset_All
 4454               	Timebase_UpCounter_Reset_All:
 4455               	.LFB88:
 4456               	.LM444:
 4457               	/* prologue: function */
 4458               	/* frame size = 0 */
 4459               	.LBB726:
 4460               	.LM445:
 4461 15ee 80E0      		ldi r24,lo8(0)
 4462 15f0 0E94 0000 		call Timebase_UpCounter_Reset
 4463               	/* epilogue start */
 4464               	.LBE726:
 4465               	.LM446:
 4466 15f4 0895      		ret
 4467               	.LFE88:
 4469               	.global	Timebase_DownCounter_SS_Get_Status
 4471               	Timebase_DownCounter_SS_Get_Status:
 4472               	.LFB89:
 4473               	.LM447:
 4474               	.LVL283:
 4475               	/* prologue: function */
 4476               	/* frame size = 0 */
 4477               	.LM448:
 4478 15f6 E091 0000 		lds r30,Timebase
 4479 15fa F091 0000 		lds r31,(Timebase)+1
 4480 15fe 90E0      		ldi r25,lo8(0)
 4481               	.LVL284:
 4482 1600 9C01      		movw r18,r24
 4483 1602 44E0      		ldi r20,4
 4484 1604 220F      	1:	lsl r18
 4485 1606 331F      		rol r19
 4486 1608 4A95      		dec r20
 4487 160a 01F4      		brne 1b
 4488 160c 280F      		add r18,r24
 4489 160e 391F      		adc r19,r25
 4490 1610 E20F      		add r30,r18
 4491 1612 F31F      		adc r31,r19
 4492 1614 E35B      		subi r30,lo8(-(77))
 4493 1616 FF4F      		sbci r31,hi8(-(77))
 4494 1618 8081      		ld r24,Z
 4495               	.LVL285:
 4496 161a 8695      		lsr r24
 4497               	.LM449:
 4498 161c 8F70      		andi r24,lo8(15)
 4499               	/* epilogue start */
 4500 161e 0895      		ret
 4501               	.LFE89:
 4503               	.global	Timebase_DownCounter_SS_Set_Status
 4505               	Timebase_DownCounter_SS_Set_Status:
 4506               	.LFB90:
 4507               	.LM450:
 4508               	.LVL286:
 4509               	/* prologue: function */
 4510               	/* frame size = 0 */
 4511               	.LM451:
 4512 1620 E091 0000 		lds r30,Timebase
 4513 1624 F091 0000 		lds r31,(Timebase)+1
 4514 1628 90E0      		ldi r25,lo8(0)
 4515               	.LVL287:
 4516 162a 9C01      		movw r18,r24
 4517 162c 54E0      		ldi r21,4
 4518 162e 220F      	1:	lsl r18
 4519 1630 331F      		rol r19
 4520 1632 5A95      		dec r21
 4521 1634 01F4      		brne 1b
 4522 1636 280F      		add r18,r24
 4523 1638 391F      		adc r19,r25
 4524 163a E20F      		add r30,r18
 4525 163c F31F      		adc r31,r19
 4526 163e E35B      		subi r30,lo8(-(77))
 4527 1640 FF4F      		sbci r31,hi8(-(77))
 4528 1642 6F70      		andi r22,lo8(15)
 4529               	.LVL288:
 4530 1644 660F      		lsl r22
 4531 1646 8081      		ld r24,Z
 4532               	.LVL289:
 4533 1648 817E      		andi r24,lo8(-31)
 4534 164a 862B      		or r24,r22
 4535 164c 8083      		st Z,r24
 4536               	/* epilogue start */
 4537               	.LM452:
 4538 164e 0895      		ret
 4539               	.LFE90:
 4541               	.global	Timebase_DownCounter_SS_Get_Value
 4543               	Timebase_DownCounter_SS_Get_Value:
 4544               	.LFB91:
 4545               	.LM453:
 4546               	.LVL290:
 4547               	/* prologue: function */
 4548               	/* frame size = 0 */
 4549               	.LM454:
 4550 1650 E091 0000 		lds r30,Timebase
 4551 1654 F091 0000 		lds r31,(Timebase)+1
 4552 1658 90E0      		ldi r25,lo8(0)
 4553               	.LVL291:
 4554 165a 9C01      		movw r18,r24
 4555 165c 64E0      		ldi r22,4
 4556 165e 220F      	1:	lsl r18
 4557 1660 331F      		rol r19
 4558 1662 6A95      		dec r22
 4559 1664 01F4      		brne 1b
 4560 1666 280F      		add r18,r24
 4561 1668 391F      		adc r19,r25
 4562 166a E20F      		add r30,r18
 4563 166c F31F      		adc r31,r19
 4564 166e EA5A      		subi r30,lo8(-(86))
 4565 1670 FF4F      		sbci r31,hi8(-(86))
 4566 1672 6081      		ld r22,Z
 4567 1674 7181      		ldd r23,Z+1
 4568               	.LM455:
 4569 1676 8281      		ldd r24,Z+2
 4570               	.LVL292:
 4571 1678 9381      		ldd r25,Z+3
 4572               	.LVL293:
 4573               	/* epilogue start */
 4574 167a 0895      		ret
 4575               	.LFE91:
 4577               	.global	Timebase_DownCounter_SS_Set_Value
 4579               	Timebase_DownCounter_SS_Set_Value:
 4580               	.LFB92:
 4581               	.LM456:
 4582               	.LVL294:
 4583               	/* prologue: function */
 4584               	/* frame size = 0 */
 4585               	.LM457:
 4586 167c E091 0000 		lds r30,Timebase
 4587 1680 F091 0000 		lds r31,(Timebase)+1
 4588 1684 90E0      		ldi r25,lo8(0)
 4589               	.LVL295:
 4590 1686 9C01      		movw r18,r24
 4591 1688 A4E0      		ldi r26,4
 4592 168a 220F      	1:	lsl r18
 4593 168c 331F      		rol r19
 4594 168e AA95      		dec r26
 4595 1690 01F4      		brne 1b
 4596 1692 280F      		add r18,r24
 4597 1694 391F      		adc r19,r25
 4598 1696 E20F      		add r30,r18
 4599 1698 F31F      		adc r31,r19
 4600 169a EA5A      		subi r30,lo8(-(86))
 4601 169c FF4F      		sbci r31,hi8(-(86))
 4602 169e 4083      		st Z,r20
 4603 16a0 5183      		std Z+1,r21
 4604 16a2 6283      		std Z+2,r22
 4605 16a4 7383      		std Z+3,r23
 4606               	/* epilogue start */
 4607               	.LM458:
 4608 16a6 0895      		ret
 4609               	.LFE92:
 4611               	.global	Timebase_DownCounter_SS_Get_EndValueSec
 4613               	Timebase_DownCounter_SS_Get_EndValueSec:
 4614               	.LFB93:
 4615               	.LM459:
 4616               	.LVL296:
 4617               	/* prologue: function */
 4618               	/* frame size = 0 */
 4619               	.LM460:
 4620 16a8 E091 0000 		lds r30,Timebase
 4621 16ac F091 0000 		lds r31,(Timebase)+1
 4622 16b0 90E0      		ldi r25,lo8(0)
 4623               	.LVL297:
 4624 16b2 9C01      		movw r18,r24
 4625 16b4 B4E0      		ldi r27,4
 4626 16b6 220F      	1:	lsl r18
 4627 16b8 331F      		rol r19
 4628 16ba BA95      		dec r27
 4629 16bc 01F4      		brne 1b
 4630 16be 280F      		add r18,r24
 4631 16c0 391F      		adc r19,r25
 4632 16c2 E20F      		add r30,r18
 4633 16c4 F31F      		adc r31,r19
 4634 16c6 E25B      		subi r30,lo8(-(78))
 4635 16c8 FF4F      		sbci r31,hi8(-(78))
 4636 16ca 6081      		ld r22,Z
 4637 16cc 7181      		ldd r23,Z+1
 4638               	.LM461:
 4639 16ce 8281      		ldd r24,Z+2
 4640               	.LVL298:
 4641 16d0 9381      		ldd r25,Z+3
 4642               	.LVL299:
 4643               	/* epilogue start */
 4644 16d2 0895      		ret
 4645               	.LFE93:
 4647               	.global	Timebase_DownCounter_SS_Get_EndValueSubSec
 4649               	Timebase_DownCounter_SS_Get_EndValueSubSec:
 4650               	.LFB94:
 4651               	.LM462:
 4652               	.LVL300:
 4653               	/* prologue: function */
 4654               	/* frame size = 0 */
 4655               	.LM463:
 4656 16d4 E091 0000 		lds r30,Timebase
 4657 16d8 F091 0000 		lds r31,(Timebase)+1
 4658 16dc 90E0      		ldi r25,lo8(0)
 4659               	.LVL301:
 4660 16de 9C01      		movw r18,r24
 4661 16e0 44E0      		ldi r20,4
 4662 16e2 220F      	1:	lsl r18
 4663 16e4 331F      		rol r19
 4664 16e6 4A95      		dec r20
 4665 16e8 01F4      		brne 1b
 4666 16ea 280F      		add r18,r24
 4667 16ec 391F      		adc r19,r25
 4668 16ee E20F      		add r30,r18
 4669 16f0 F31F      		adc r31,r19
 4670 16f2 EE5A      		subi r30,lo8(-(82))
 4671 16f4 FF4F      		sbci r31,hi8(-(82))
 4672 16f6 6081      		ld r22,Z
 4673 16f8 7181      		ldd r23,Z+1
 4674               	.LM464:
 4675 16fa 8281      		ldd r24,Z+2
 4676               	.LVL302:
 4677 16fc 9381      		ldd r25,Z+3
 4678               	.LVL303:
 4679               	/* epilogue start */
 4680 16fe 0895      		ret
 4681               	.LFE94:
 4683               	.global	Timebase_DownCounter_SS_Set_EndValueSec
 4685               	Timebase_DownCounter_SS_Set_EndValueSec:
 4686               	.LFB95:
 4687               	.LM465:
 4688               	.LVL304:
 4689               	/* prologue: function */
 4690               	/* frame size = 0 */
 4691               	.LM466:
 4692 1700 E091 0000 		lds r30,Timebase
 4693 1704 F091 0000 		lds r31,(Timebase)+1
 4694 1708 90E0      		ldi r25,lo8(0)
 4695               	.LVL305:
 4696 170a 9C01      		movw r18,r24
 4697 170c A4E0      		ldi r26,4
 4698 170e 220F      	1:	lsl r18
 4699 1710 331F      		rol r19
 4700 1712 AA95      		dec r26
 4701 1714 01F4      		brne 1b
 4702 1716 280F      		add r18,r24
 4703 1718 391F      		adc r19,r25
 4704 171a E20F      		add r30,r18
 4705 171c F31F      		adc r31,r19
 4706 171e E25B      		subi r30,lo8(-(78))
 4707 1720 FF4F      		sbci r31,hi8(-(78))
 4708 1722 4083      		st Z,r20
 4709 1724 5183      		std Z+1,r21
 4710 1726 6283      		std Z+2,r22
 4711 1728 7383      		std Z+3,r23
 4712               	/* epilogue start */
 4713               	.LM467:
 4714 172a 0895      		ret
 4715               	.LFE95:
 4717               	.global	Timebase_DownCounter_SS_Set_EndValueSubSec
 4719               	Timebase_DownCounter_SS_Set_EndValueSubSec:
 4720               	.LFB96:
 4721               	.LM468:
 4722               	.LVL306:
 4723               	/* prologue: function */
 4724               	/* frame size = 0 */
 4725               	.LM469:
 4726 172c E091 0000 		lds r30,Timebase
 4727 1730 F091 0000 		lds r31,(Timebase)+1
 4728 1734 90E0      		ldi r25,lo8(0)
 4729               	.LVL307:
 4730 1736 9C01      		movw r18,r24
 4731 1738 B4E0      		ldi r27,4
 4732 173a 220F      	1:	lsl r18
 4733 173c 331F      		rol r19
 4734 173e BA95      		dec r27
 4735 1740 01F4      		brne 1b
 4736 1742 280F      		add r18,r24
 4737 1744 391F      		adc r19,r25
 4738 1746 E20F      		add r30,r18
 4739 1748 F31F      		adc r31,r19
 4740 174a EE5A      		subi r30,lo8(-(82))
 4741 174c FF4F      		sbci r31,hi8(-(82))
 4742 174e 4083      		st Z,r20
 4743 1750 5183      		std Z+1,r21
 4744 1752 6283      		std Z+2,r22
 4745 1754 7383      		std Z+3,r23
 4746               	/* epilogue start */
 4747               	.LM470:
 4748 1756 0895      		ret
 4749               	.LFE96:
 4751               	.global	Timebase_DownCounter_SS_Get_PeriodValue
 4753               	Timebase_DownCounter_SS_Get_PeriodValue:
 4754               	.LFB97:
 4755               	.LM471:
 4756               	.LVL308:
 4757               	/* prologue: function */
 4758               	/* frame size = 0 */
 4759               	.LM472:
 4760 1758 E091 0000 		lds r30,Timebase
 4761 175c F091 0000 		lds r31,(Timebase)+1
 4762 1760 90E0      		ldi r25,lo8(0)
 4763               	.LVL309:
 4764 1762 9C01      		movw r18,r24
 4765 1764 44E0      		ldi r20,4
 4766 1766 220F      	1:	lsl r18
 4767 1768 331F      		rol r19
 4768 176a 4A95      		dec r20
 4769 176c 01F4      		brne 1b
 4770 176e 280F      		add r18,r24
 4771 1770 391F      		adc r19,r25
 4772 1772 E20F      		add r30,r18
 4773 1774 F31F      		adc r31,r19
 4774 1776 E65A      		subi r30,lo8(-(90))
 4775 1778 FF4F      		sbci r31,hi8(-(90))
 4776 177a 6081      		ld r22,Z
 4777 177c 7181      		ldd r23,Z+1
 4778               	.LM473:
 4779 177e 8281      		ldd r24,Z+2
 4780               	.LVL310:
 4781 1780 9381      		ldd r25,Z+3
 4782               	.LVL311:
 4783               	/* epilogue start */
 4784 1782 0895      		ret
 4785               	.LFE97:
 4787               	.global	Timebase_DownCounter_SS_Set_PeriodValue
 4789               	Timebase_DownCounter_SS_Set_PeriodValue:
 4790               	.LFB98:
 4791               	.LM474:
 4792               	.LVL312:
 4793               	/* prologue: function */
 4794               	/* frame size = 0 */
 4795 1784 E091 0000 		lds r30,Timebase
 4796 1788 F091 0000 		lds r31,(Timebase)+1
 4797 178c 282F      		mov r18,r24
 4798 178e 30E0      		ldi r19,lo8(0)
 4799               	.LVL313:
 4800               	.LM475:
 4801 1790 77FF      		sbrs r23,7
 4802 1792 00C0      		rjmp .L250
 4803               	.LVL314:
 4804               	.LM476:
 4805 1794 C901      		movw r24,r18
 4806 1796 B4E0      		ldi r27,4
 4807 1798 880F      	1:	lsl r24
 4808 179a 991F      		rol r25
 4809 179c BA95      		dec r27
 4810 179e 01F4      		brne 1b
 4811 17a0 820F      		add r24,r18
 4812 17a2 931F      		adc r25,r19
 4813 17a4 E80F      		add r30,r24
 4814 17a6 F91F      		adc r31,r25
 4815 17a8 E65A      		subi r30,lo8(-(90))
 4816 17aa FF4F      		sbci r31,hi8(-(90))
 4817 17ac 1082      		st Z,__zero_reg__
 4818 17ae 1182      		std Z+1,__zero_reg__
 4819 17b0 1282      		std Z+2,__zero_reg__
 4820 17b2 1382      		std Z+3,__zero_reg__
 4821 17b4 0895      		ret
 4822               	.LVL315:
 4823               	.L250:
 4824               	.LM477:
 4825 17b6 C901      		movw r24,r18
 4826 17b8 A4E0      		ldi r26,4
 4827 17ba 880F      	1:	lsl r24
 4828 17bc 991F      		rol r25
 4829 17be AA95      		dec r26
 4830 17c0 01F4      		brne 1b
 4831 17c2 820F      		add r24,r18
 4832 17c4 931F      		adc r25,r19
 4833 17c6 E80F      		add r30,r24
 4834 17c8 F91F      		adc r31,r25
 4835 17ca E65A      		subi r30,lo8(-(90))
 4836 17cc FF4F      		sbci r31,hi8(-(90))
 4837 17ce 4083      		st Z,r20
 4838 17d0 5183      		std Z+1,r21
 4839 17d2 6283      		std Z+2,r22
 4840 17d4 7383      		std Z+3,r23
 4841 17d6 0895      		ret
 4842               	.LFE98:
 4844               	.global	Timebase_DownCounter_SS_Get_Period_Flag
 4846               	Timebase_DownCounter_SS_Get_Period_Flag:
 4847               	.LFB99:
 4848               	.LM478:
 4849               	.LVL316:
 4850               	/* prologue: function */
 4851               	/* frame size = 0 */
 4852               	.LM479:
 4853 17d8 E091 0000 		lds r30,Timebase
 4854 17dc F091 0000 		lds r31,(Timebase)+1
 4855 17e0 90E0      		ldi r25,lo8(0)
 4856               	.LVL317:
 4857 17e2 9C01      		movw r18,r24
 4858 17e4 44E0      		ldi r20,4
 4859 17e6 220F      	1:	lsl r18
 4860 17e8 331F      		rol r19
 4861 17ea 4A95      		dec r20
 4862 17ec 01F4      		brne 1b
 4863 17ee 280F      		add r18,r24
 4864 17f0 391F      		adc r19,r25
 4865 17f2 E20F      		add r30,r18
 4866 17f4 F31F      		adc r31,r19
 4867 17f6 E35B      		subi r30,lo8(-(77))
 4868 17f8 FF4F      		sbci r31,hi8(-(77))
 4869 17fa 8081      		ld r24,Z
 4870               	.LVL318:
 4871               	.LM480:
 4872 17fc 8170      		andi r24,lo8(1)
 4873               	/* epilogue start */
 4874 17fe 0895      		ret
 4875               	.LFE99:
 4877               	.global	Timebase_DownCounter_SS_Set_Period_Flag
 4879               	Timebase_DownCounter_SS_Set_Period_Flag:
 4880               	.LFB100:
 4881               	.LM481:
 4882               	.LVL319:
 4883               	/* prologue: function */
 4884               	/* frame size = 0 */
 4885               	.LM482:
 4886 1800 E091 0000 		lds r30,Timebase
 4887 1804 F091 0000 		lds r31,(Timebase)+1
 4888 1808 90E0      		ldi r25,lo8(0)
 4889               	.LVL320:
 4890 180a 9C01      		movw r18,r24
 4891 180c 54E0      		ldi r21,4
 4892 180e 220F      	1:	lsl r18
 4893 1810 331F      		rol r19
 4894 1812 5A95      		dec r21
 4895 1814 01F4      		brne 1b
 4896 1816 280F      		add r18,r24
 4897 1818 391F      		adc r19,r25
 4898 181a E20F      		add r30,r18
 4899 181c F31F      		adc r31,r19
 4900 181e E35B      		subi r30,lo8(-(77))
 4901 1820 FF4F      		sbci r31,hi8(-(77))
 4902 1822 8081      		ld r24,Z
 4903               	.LVL321:
 4904 1824 8160      		ori r24,lo8(1)
 4905 1826 8083      		st Z,r24
 4906               	/* epilogue start */
 4907               	.LM483:
 4908 1828 0895      		ret
 4909               	.LFE100:
 4911               	.global	Timebase_DownCounter_SS_Clear_Period_Flag
 4913               	Timebase_DownCounter_SS_Clear_Period_Flag:
 4914               	.LFB101:
 4915               	.LM484:
 4916               	.LVL322:
 4917               	/* prologue: function */
 4918               	/* frame size = 0 */
 4919               	.LM485:
 4920 182a E091 0000 		lds r30,Timebase
 4921 182e F091 0000 		lds r31,(Timebase)+1
 4922 1832 90E0      		ldi r25,lo8(0)
 4923               	.LVL323:
 4924 1834 9C01      		movw r18,r24
 4925 1836 64E0      		ldi r22,4
 4926 1838 220F      	1:	lsl r18
 4927 183a 331F      		rol r19
 4928 183c 6A95      		dec r22
 4929 183e 01F4      		brne 1b
 4930 1840 280F      		add r18,r24
 4931 1842 391F      		adc r19,r25
 4932 1844 E20F      		add r30,r18
 4933 1846 F31F      		adc r31,r19
 4934 1848 E35B      		subi r30,lo8(-(77))
 4935 184a FF4F      		sbci r31,hi8(-(77))
 4936 184c 8081      		ld r24,Z
 4937               	.LVL324:
 4938 184e 8E7F      		andi r24,lo8(-2)
 4939 1850 8083      		st Z,r24
 4940               	/* epilogue start */
 4941               	.LM486:
 4942 1852 0895      		ret
 4943               	.LFE101:
 4945               	.global	Timebase_DownCounter_SS_Reset
 4947               	Timebase_DownCounter_SS_Reset:
 4948               	.LFB102:
 4949               	.LM487:
 4950               	.LVL325:
 4951               	/* prologue: function */
 4952               	/* frame size = 0 */
 4953               	.LBB727:
 4954               	.LBB728:
 4955               	.LM488:
 4956 1854 E091 0000 		lds r30,Timebase
 4957 1858 F091 0000 		lds r31,(Timebase)+1
 4958 185c 90E0      		ldi r25,lo8(0)
 4959 185e 9C01      		movw r18,r24
 4960               	.LVL326:
 4961 1860 74E0      		ldi r23,4
 4962 1862 220F      	1:	lsl r18
 4963 1864 331F      		rol r19
 4964 1866 7A95      		dec r23
 4965 1868 01F4      		brne 1b
 4966 186a 280F      		add r18,r24
 4967 186c 391F      		adc r19,r25
 4968 186e E20F      		add r30,r18
 4969 1870 F31F      		adc r31,r19
 4970 1872 EE5A      		subi r30,lo8(-(82))
 4971 1874 FF4F      		sbci r31,hi8(-(82))
 4972 1876 1082      		st Z,__zero_reg__
 4973 1878 1182      		std Z+1,__zero_reg__
 4974 187a 1282      		std Z+2,__zero_reg__
 4975 187c 1382      		std Z+3,__zero_reg__
 4976               	.LBE728:
 4977               	.LBE727:
 4978               	.LBB729:
 4979               	.LBB730:
 4980               	.LM489:
 4981 187e 1292      		st -Z,__zero_reg__
 4982 1880 1292      		st -Z,__zero_reg__
 4983 1882 1292      		st -Z,__zero_reg__
 4984 1884 1292      		st -Z,__zero_reg__
 4985               	.LBE730:
 4986               	.LBE729:
 4987               	.LBB731:
 4988               	.LBB732:
 4989               	.LM490:
 4990 1886 3896      		adiw r30,8
 4991 1888 1082      		st Z,__zero_reg__
 4992 188a 1182      		std Z+1,__zero_reg__
 4993 188c 1282      		std Z+2,__zero_reg__
 4994 188e 1382      		std Z+3,__zero_reg__
 4995               	.LBE732:
 4996               	.LBE731:
 4997               	.LBB733:
 4998               	.LBB734:
 4999               	.LM491:
 5000 1890 3997      		sbiw r30,9
 5001 1892 8081      		ld r24,Z
 5002               	.LBE734:
 5003               	.LBE733:
 5004               	.LBB735:
 5005               	.LBB736:
 5006               	.LM492:
 5007 1894 807E      		andi r24,lo8(-32)
 5008 1896 8083      		st Z,r24
 5009               	/* epilogue start */
 5010               	.LBE736:
 5011               	.LBE735:
 5012               	.LM493:
 5013 1898 0895      		ret
 5014               	.LFE102:
 5016               	.global	Timebase_DownCounter_SS_Clear_All_Flags
 5018               	Timebase_DownCounter_SS_Clear_All_Flags:
 5019               	.LFB103:
 5020               	.LM494:
 5021               	.LVL327:
 5022               	/* prologue: function */
 5023               	/* frame size = 0 */
 5024               	.LBB737:
 5025               	.LBB738:
 5026               	.LBB739:
 5027               	.LBB740:
 5028               	.LM495:
 5029 189a E091 0000 		lds r30,Timebase
 5030 189e F091 0000 		lds r31,(Timebase)+1
 5031 18a2 90E0      		ldi r25,lo8(0)
 5032 18a4 9C01      		movw r18,r24
 5033               	.LVL328:
 5034 18a6 A4E0      		ldi r26,4
 5035 18a8 220F      	1:	lsl r18
 5036 18aa 331F      		rol r19
 5037 18ac AA95      		dec r26
 5038 18ae 01F4      		brne 1b
 5039 18b0 280F      		add r18,r24
 5040 18b2 391F      		adc r19,r25
 5041 18b4 E20F      		add r30,r18
 5042 18b6 F31F      		adc r31,r19
 5043 18b8 EE5A      		subi r30,lo8(-(82))
 5044 18ba FF4F      		sbci r31,hi8(-(82))
 5045 18bc 1082      		st Z,__zero_reg__
 5046 18be 1182      		std Z+1,__zero_reg__
 5047 18c0 1282      		std Z+2,__zero_reg__
 5048 18c2 1382      		std Z+3,__zero_reg__
 5049               	.LBE740:
 5050               	.LBE739:
 5051               	.LBB741:
 5052               	.LBB742:
 5053               	.LM496:
 5054 18c4 1292      		st -Z,__zero_reg__
 5055 18c6 1292      		st -Z,__zero_reg__
 5056 18c8 1292      		st -Z,__zero_reg__
 5057 18ca 1292      		st -Z,__zero_reg__
 5058               	.LBE742:
 5059               	.LBE741:
 5060               	.LBB743:
 5061               	.LBB744:
 5062               	.LM497:
 5063 18cc 3896      		adiw r30,8
 5064 18ce 1082      		st Z,__zero_reg__
 5065 18d0 1182      		std Z+1,__zero_reg__
 5066 18d2 1282      		std Z+2,__zero_reg__
 5067 18d4 1382      		std Z+3,__zero_reg__
 5068               	.LBE744:
 5069               	.LBE743:
 5070               	.LBB745:
 5071               	.LBB746:
 5072               	.LM498:
 5073 18d6 3997      		sbiw r30,9
 5074 18d8 8081      		ld r24,Z
 5075               	.LBE746:
 5076               	.LBE745:
 5077               	.LBB747:
 5078               	.LBB748:
 5079               	.LM499:
 5080 18da 807E      		andi r24,lo8(-32)
 5081 18dc 8083      		st Z,r24
 5082               	/* epilogue start */
 5083               	.LBE748:
 5084               	.LBE747:
 5085               	.LBE738:
 5086               	.LBE737:
 5087               	.LM500:
 5088 18de 0895      		ret
 5089               	.LFE103:
 5091               	.global	Timebase_DownCounter_SS_Start
 5093               	Timebase_DownCounter_SS_Start:
 5094               	.LFB104:
 5095               	.LM501:
 5096               	.LVL329:
 5097               	/* prologue: function */
 5098               	/* frame size = 0 */
 5099               	.LBB749:
 5100               	.LBB750:
 5101               	.LM502:
 5102 18e0 E091 0000 		lds r30,Timebase
 5103 18e4 F091 0000 		lds r31,(Timebase)+1
 5104 18e8 90E0      		ldi r25,lo8(0)
 5105               	.LBE750:
 5106               	.LBE749:
 5107               	.LM503:
 5108 18ea 9C01      		movw r18,r24
 5109               	.LVL330:
 5110 18ec B4E0      		ldi r27,4
 5111 18ee 220F      	1:	lsl r18
 5112 18f0 331F      		rol r19
 5113 18f2 BA95      		dec r27
 5114 18f4 01F4      		brne 1b
 5115 18f6 280F      		add r18,r24
 5116 18f8 391F      		adc r19,r25
 5117 18fa E20F      		add r30,r18
 5118 18fc F31F      		adc r31,r19
 5119 18fe E35B      		subi r30,lo8(-(77))
 5120 1900 FF4F      		sbci r31,hi8(-(77))
 5121 1902 9081      		ld r25,Z
 5122 1904 892F      		mov r24,r25
 5123 1906 8695      		lsr r24
 5124 1908 8F70      		andi r24,lo8(15)
 5125 190a 8130      		cpi r24,lo8(1)
 5126 190c 01F0      		breq .L265
 5127               	.LBB751:
 5128               	.LBB752:
 5129               	.LM504:
 5130 190e 917E      		andi r25,lo8(-31)
 5131 1910 9260      		ori r25,lo8(2)
 5132 1912 9083      		st Z,r25
 5133               	.L265:
 5134 1914 0895      		ret
 5135               	.LBE752:
 5136               	.LBE751:
 5137               	.LFE104:
 5139               	.global	Timebase_DownCounter_SS_Stop
 5141               	Timebase_DownCounter_SS_Stop:
 5142               	.LFB105:
 5143               	.LM505:
 5144               	.LVL331:
 5145               	/* prologue: function */
 5146               	/* frame size = 0 */
 5147               	.LBB753:
 5148               	.LBB754:
 5149               	.LM506:
 5150 1916 E091 0000 		lds r30,Timebase
 5151 191a F091 0000 		lds r31,(Timebase)+1
 5152 191e 90E0      		ldi r25,lo8(0)
 5153               	.LBE754:
 5154               	.LBE753:
 5155               	.LM507:
 5156 1920 9C01      		movw r18,r24
 5157               	.LVL332:
 5158 1922 44E0      		ldi r20,4
 5159 1924 220F      	1:	lsl r18
 5160 1926 331F      		rol r19
 5161 1928 4A95      		dec r20
 5162 192a 01F4      		brne 1b
 5163 192c 280F      		add r18,r24
 5164 192e 391F      		adc r19,r25
 5165 1930 E20F      		add r30,r18
 5166 1932 F31F      		adc r31,r19
 5167 1934 E35B      		subi r30,lo8(-(77))
 5168 1936 FF4F      		sbci r31,hi8(-(77))
 5169 1938 9081      		ld r25,Z
 5170 193a 892F      		mov r24,r25
 5171 193c 8695      		lsr r24
 5172 193e 8F70      		andi r24,lo8(15)
 5173 1940 8230      		cpi r24,lo8(2)
 5174 1942 01F0      		breq .L268
 5175               	.LBB755:
 5176               	.LBB756:
 5177               	.LM508:
 5178 1944 917E      		andi r25,lo8(-31)
 5179 1946 9460      		ori r25,lo8(4)
 5180 1948 9083      		st Z,r25
 5181               	.L268:
 5182 194a 0895      		ret
 5183               	.LBE756:
 5184               	.LBE755:
 5185               	.LFE105:
 5187               	.global	Timebase_DownCounter_SS_Set_Securely
 5189               	Timebase_DownCounter_SS_Set_Securely:
 5190               	.LFB106:
 5191               	.LM509:
 5192               	.LVL333:
 5193 194c 2F92      		push r2
 5194 194e 3F92      		push r3
 5195 1950 4F92      		push r4
 5196 1952 5F92      		push r5
 5197 1954 6F92      		push r6
 5198 1956 7F92      		push r7
 5199 1958 8F92      		push r8
 5200 195a 9F92      		push r9
 5201 195c AF92      		push r10
 5202 195e BF92      		push r11
 5203 1960 CF92      		push r12
 5204 1962 DF92      		push r13
 5205 1964 EF92      		push r14
 5206 1966 FF92      		push r15
 5207 1968 0F93      		push r16
 5208 196a 1F93      		push r17
 5209 196c DF93      		push r29
 5210 196e CF93      		push r28
 5211 1970 00D0      		rcall .
 5212 1972 00D0      		rcall .
 5213 1974 CDB7      		in r28,__SP_L__
 5214 1976 DEB7      		in r29,__SP_H__
 5215               	/* prologue: function */
 5216               	/* frame size = 4 */
 5217 1978 4A01      		movw r8,r20
 5218 197a 5B01      		movw r10,r22
 5219               	.LBB757:
 5220               	.LBB758:
 5221               	.LM510:
 5222 197c 2091 0000 		lds r18,Timebase
 5223 1980 3091 0000 		lds r19,(Timebase)+1
 5224 1984 3C83      		std Y+4,r19
 5225 1986 2B83      		std Y+3,r18
 5226 1988 A82F      		mov r26,r24
 5227 198a B0E0      		ldi r27,lo8(0)
 5228 198c BA83      		std Y+2,r27
 5229 198e A983      		std Y+1,r26
 5230               	.LBE758:
 5231               	.LBE757:
 5232               	.LM511:
 5233 1990 FD01      		movw r30,r26
 5234 1992 64E0      		ldi r22,4
 5235 1994 EE0F      	1:	lsl r30
 5236 1996 FF1F      		rol r31
 5237 1998 6A95      		dec r22
 5238 199a 01F4      		brne 1b
 5239 199c EA0F      		add r30,r26
 5240 199e FB1F      		adc r31,r27
 5241 19a0 E20F      		add r30,r18
 5242 19a2 F31F      		adc r31,r19
 5243 19a4 E35B      		subi r30,lo8(-(77))
 5244 19a6 FF4F      		sbci r31,hi8(-(77))
 5245 19a8 8081      		ld r24,Z
 5246               	.LVL334:
 5247 19aa ED54      		subi r30,lo8(-(-77))
 5248 19ac F040      		sbci r31,hi8(-(-77))
 5249 19ae 8695      		lsr r24
 5250 19b0 8F70      		andi r24,lo8(15)
 5251 19b2 01F0      		breq .+2
 5252 19b4 00C0      		rjmp .L272
 5253               	.LVL335:
 5254               	.LBB759:
 5255               	.LBB760:
 5256               	.LBB761:
 5257               	.LM512:
 5258 19b6 EA5A      		subi r30,lo8(-(86))
 5259 19b8 FF4F      		sbci r31,hi8(-(86))
 5260 19ba 8082      		st Z,r8
 5261 19bc 9182      		std Z+1,r9
 5262 19be A282      		std Z+2,r10
 5263 19c0 B382      		std Z+3,r11
 5264               	.LBE761:
 5265               	.LBE760:
 5266               	.LBB762:
 5267               	.LBB763:
 5268               	.LM513:
 5269 19c2 F901      		movw r30,r18
 5270 19c4 C084      		ldd r12,Z+8
 5271 19c6 D184      		ldd r13,Z+9
 5272               	.LBE763:
 5273               	.LBE762:
 5274               	.LBB764:
 5275               	.LBB765:
 5276               	.LM514:
 5277 19c8 2284      		ldd r2,Z+10
 5278 19ca 3384      		ldd r3,Z+11
 5279 19cc 4484      		ldd r4,Z+12
 5280 19ce 5584      		ldd r5,Z+13
 5281               	.LVL336:
 5282               	.LBE765:
 5283               	.LBE764:
 5284               	.LM515:
 5285 19d0 2181      		ldd r18,Z+1
 5286 19d2 3281      		ldd r19,Z+2
 5287 19d4 40E0      		ldi r20,lo8(0)
 5288 19d6 50E0      		ldi r21,hi8(0)
 5289 19d8 C501      		movw r24,r10
 5290 19da B401      		movw r22,r8
 5291 19dc 0E94 0000 		call __divmodsi4
 5292 19e0 7B01      		movw r14,r22
 5293 19e2 8C01      		movw r16,r24
 5294               	.LM516:
 5295 19e4 AB81      		ldd r26,Y+3
 5296 19e6 BC81      		ldd r27,Y+4
 5297 19e8 1196      		adiw r26,1
 5298 19ea 2D91      		ld r18,X+
 5299 19ec 3C91      		ld r19,X
 5300 19ee 1297      		sbiw r26,1+1
 5301 19f0 40E0      		ldi r20,lo8(0)
 5302 19f2 50E0      		ldi r21,hi8(0)
 5303 19f4 C501      		movw r24,r10
 5304 19f6 B401      		movw r22,r8
 5305 19f8 0E94 0000 		call __divmodsi4
 5306 19fc C901      		movw r24,r18
 5307 19fe DA01      		movw r26,r20
 5308 1a00 3C01      		movw r6,r24
 5309 1a02 4D01      		movw r8,r26
 5310               	.LVL337:
 5311               	.LM517:
 5312 1a04 5601      		movw r10,r12
 5313               	.LVL338:
 5314 1a06 CC24      		clr r12
 5315 1a08 DD24      		clr r13
 5316               	.LVL339:
 5317 1a0a AE0C      		add r10,r14
 5318 1a0c BF1C      		adc r11,r15
 5319 1a0e C01E      		adc r12,r16
 5320 1a10 D11E      		adc r13,r17
 5321               	.LVL340:
 5322               	.LM518:
 5323 1a12 EB81      		ldd r30,Y+3
 5324 1a14 FC81      		ldd r31,Y+4
 5325 1a16 8181      		ldd r24,Z+1
 5326 1a18 9281      		ldd r25,Z+2
 5327               	.LVL341:
 5328 1a1a A0E0      		ldi r26,lo8(0)
 5329 1a1c B0E0      		ldi r27,hi8(0)
 5330 1a1e A816      		cp r10,r24
 5331 1a20 B906      		cpc r11,r25
 5332 1a22 CA06      		cpc r12,r26
 5333 1a24 DB06      		cpc r13,r27
 5334 1a26 04F0      		brlt .L271
 5335               	.LM519:
 5336 1a28 0894      		sec
 5337 1a2a 611C      		adc r6,__zero_reg__
 5338 1a2c 711C      		adc r7,__zero_reg__
 5339 1a2e 811C      		adc r8,__zero_reg__
 5340 1a30 911C      		adc r9,__zero_reg__
 5341               	.LM520:
 5342 1a32 2181      		ldd r18,Z+1
 5343 1a34 3281      		ldd r19,Z+2
 5344 1a36 40E0      		ldi r20,lo8(0)
 5345 1a38 50E0      		ldi r21,hi8(0)
 5346 1a3a C601      		movw r24,r12
 5347 1a3c B501      		movw r22,r10
 5348 1a3e 0E94 0000 		call __divmodsi4
 5349 1a42 AC01      		movw r20,r24
 5350 1a44 CB01      		movw r24,r22
 5351 1a46 DA01      		movw r26,r20
 5352 1a48 5C01      		movw r10,r24
 5353 1a4a 6D01      		movw r12,r26
 5354               	.L271:
 5355               	.LBB766:
 5356               	.LBB767:
 5357               	.LM521:
 5358 1a4c E981      		ldd r30,Y+1
 5359 1a4e FA81      		ldd r31,Y+2
 5360 1a50 54E0      		ldi r21,4
 5361 1a52 EE0F      	1:	lsl r30
 5362 1a54 FF1F      		rol r31
 5363 1a56 5A95      		dec r21
 5364 1a58 01F4      		brne 1b
 5365 1a5a 2981      		ldd r18,Y+1
 5366 1a5c 3A81      		ldd r19,Y+2
 5367 1a5e E20F      		add r30,r18
 5368 1a60 F31F      		adc r31,r19
 5369 1a62 8B81      		ldd r24,Y+3
 5370 1a64 9C81      		ldd r25,Y+4
 5371 1a66 E80F      		add r30,r24
 5372 1a68 F91F      		adc r31,r25
 5373 1a6a E25B      		subi r30,lo8(-(78))
 5374 1a6c FF4F      		sbci r31,hi8(-(78))
 5375 1a6e 260C      		add r2,r6
 5376 1a70 371C      		adc r3,r7
 5377 1a72 481C      		adc r4,r8
 5378 1a74 591C      		adc r5,r9
 5379 1a76 2192      		st Z+,r2
 5380 1a78 3192      		st Z+,r3
 5381 1a7a 4192      		st Z+,r4
 5382 1a7c 5192      		st Z+,r5
 5383               	.LBE767:
 5384               	.LBE766:
 5385               	.LBB768:
 5386               	.LBB769:
 5387               	.LM522:
 5388 1a7e A082      		st Z,r10
 5389 1a80 B182      		std Z+1,r11
 5390 1a82 C282      		std Z+2,r12
 5391 1a84 D382      		std Z+3,r13
 5392               	.LBE769:
 5393               	.LBE768:
 5394               	.LBB770:
 5395               	.LBB771:
 5396               	.LM523:
 5397 1a86 3597      		sbiw r30,5
 5398 1a88 9081      		ld r25,Z
 5399 1a8a 892F      		mov r24,r25
 5400 1a8c 8695      		lsr r24
 5401 1a8e 8F70      		andi r24,lo8(15)
 5402 1a90 8130      		cpi r24,lo8(1)
 5403 1a92 01F0      		breq .L272
 5404               	.LBB772:
 5405               	.LBB773:
 5406               	.LM524:
 5407 1a94 917E      		andi r25,lo8(-31)
 5408 1a96 9260      		ori r25,lo8(2)
 5409 1a98 9083      		st Z,r25
 5410               	.LVL342:
 5411               	.L272:
 5412               	/* epilogue start */
 5413               	.LBE773:
 5414               	.LBE772:
 5415               	.LBE771:
 5416               	.LBE770:
 5417               	.LBE759:
 5418               	.LM525:
 5419 1a9a 0F90      		pop __tmp_reg__
 5420 1a9c 0F90      		pop __tmp_reg__
 5421 1a9e 0F90      		pop __tmp_reg__
 5422 1aa0 0F90      		pop __tmp_reg__
 5423 1aa2 CF91      		pop r28
 5424 1aa4 DF91      		pop r29
 5425 1aa6 1F91      		pop r17
 5426 1aa8 0F91      		pop r16
 5427 1aaa FF90      		pop r15
 5428 1aac EF90      		pop r14
 5429 1aae DF90      		pop r13
 5430 1ab0 CF90      		pop r12
 5431               	.LVL343:
 5432 1ab2 BF90      		pop r11
 5433 1ab4 AF90      		pop r10
 5434               	.LVL344:
 5435 1ab6 9F90      		pop r9
 5436 1ab8 8F90      		pop r8
 5437               	.LVL345:
 5438 1aba 7F90      		pop r7
 5439 1abc 6F90      		pop r6
 5440               	.LVL346:
 5441 1abe 5F90      		pop r5
 5442 1ac0 4F90      		pop r4
 5443 1ac2 3F90      		pop r3
 5444 1ac4 2F90      		pop r2
 5445               	.LVL347:
 5446 1ac6 0895      		ret
 5447               	.LFE106:
 5449               	.global	Timebase_DownCounter_SS_Set_Forcefully
 5451               	Timebase_DownCounter_SS_Set_Forcefully:
 5452               	.LFB107:
 5453               	.LM526:
 5454               	.LVL348:
 5455               	/* prologue: function */
 5456               	/* frame size = 0 */
 5457               	.LBB774:
 5458               	.LBB775:
 5459               	.LBB776:
 5460               	.LBB777:
 5461               	.LM527:
 5462 1ac8 E091 0000 		lds r30,Timebase
 5463 1acc F091 0000 		lds r31,(Timebase)+1
 5464 1ad0 A82F      		mov r26,r24
 5465 1ad2 B0E0      		ldi r27,lo8(0)
 5466 1ad4 9D01      		movw r18,r26
 5467 1ad6 94E0      		ldi r25,4
 5468 1ad8 220F      	1:	lsl r18
 5469 1ada 331F      		rol r19
 5470 1adc 9A95      		dec r25
 5471 1ade 01F4      		brne 1b
 5472 1ae0 2A0F      		add r18,r26
 5473 1ae2 3B1F      		adc r19,r27
 5474 1ae4 E20F      		add r30,r18
 5475 1ae6 F31F      		adc r31,r19
 5476 1ae8 EE5A      		subi r30,lo8(-(82))
 5477 1aea FF4F      		sbci r31,hi8(-(82))
 5478 1aec 1082      		st Z,__zero_reg__
 5479 1aee 1182      		std Z+1,__zero_reg__
 5480 1af0 1282      		std Z+2,__zero_reg__
 5481 1af2 1382      		std Z+3,__zero_reg__
 5482               	.LBE777:
 5483               	.LBE776:
 5484               	.LBB778:
 5485               	.LBB779:
 5486               	.LM528:
 5487 1af4 1292      		st -Z,__zero_reg__
 5488 1af6 1292      		st -Z,__zero_reg__
 5489 1af8 1292      		st -Z,__zero_reg__
 5490 1afa 1292      		st -Z,__zero_reg__
 5491               	.LBE779:
 5492               	.LBE778:
 5493               	.LBB780:
 5494               	.LBB781:
 5495               	.LM529:
 5496 1afc 3896      		adiw r30,8
 5497 1afe 1082      		st Z,__zero_reg__
 5498 1b00 1182      		std Z+1,__zero_reg__
 5499 1b02 1282      		std Z+2,__zero_reg__
 5500 1b04 1382      		std Z+3,__zero_reg__
 5501               	.LBE781:
 5502               	.LBE780:
 5503               	.LBB782:
 5504               	.LBB783:
 5505               	.LM530:
 5506 1b06 3997      		sbiw r30,9
 5507 1b08 9081      		ld r25,Z
 5508               	.LBE783:
 5509               	.LBE782:
 5510               	.LBB784:
 5511               	.LBB785:
 5512               	.LM531:
 5513 1b0a 907E      		andi r25,lo8(-32)
 5514 1b0c 9083      		st Z,r25
 5515               	.LBE785:
 5516               	.LBE784:
 5517               	.LBE775:
 5518               	.LBE774:
 5519               	.LM532:
 5520 1b0e 0E94 0000 		call Timebase_DownCounter_SS_Set_Securely
 5521               	.LVL349:
 5522               	/* epilogue start */
 5523               	.LM533:
 5524 1b12 0895      		ret
 5525               	.LFE107:
 5527               	.global	Timebase_DownCounter_SS_Update
 5529               	Timebase_DownCounter_SS_Update:
 5530               	.LFB108:
 5531               	.LM534:
 5532               	.LVL350:
 5533 1b14 2F92      		push r2
 5534 1b16 3F92      		push r3
 5535 1b18 4F92      		push r4
 5536 1b1a 5F92      		push r5
 5537 1b1c 6F92      		push r6
 5538 1b1e 7F92      		push r7
 5539 1b20 8F92      		push r8
 5540 1b22 9F92      		push r9
 5541 1b24 AF92      		push r10
 5542 1b26 BF92      		push r11
 5543 1b28 CF92      		push r12
 5544 1b2a DF92      		push r13
 5545 1b2c EF92      		push r14
 5546 1b2e FF92      		push r15
 5547 1b30 0F93      		push r16
 5548 1b32 1F93      		push r17
 5549 1b34 CF93      		push r28
 5550 1b36 DF93      		push r29
 5551               	/* prologue: function */
 5552               	/* frame size = 0 */
 5553               	.LBB786:
 5554               	.LBB787:
 5555               	.LM535:
 5556 1b38 C090 0000 		lds r12,Timebase
 5557 1b3c D090 0000 		lds r13,(Timebase)+1
 5558 1b40 082F      		mov r16,r24
 5559 1b42 10E0      		ldi r17,lo8(0)
 5560 1b44 E801      		movw r28,r16
 5561 1b46 34E0      		ldi r19,4
 5562 1b48 CC0F      	1:	lsl r28
 5563 1b4a DD1F      		rol r29
 5564 1b4c 3A95      		dec r19
 5565 1b4e 01F4      		brne 1b
 5566 1b50 C00F      		add r28,r16
 5567 1b52 D11F      		adc r29,r17
 5568 1b54 CC0D      		add r28,r12
 5569 1b56 DD1D      		adc r29,r13
 5570 1b58 C35B      		subi r28,lo8(-(77))
 5571 1b5a DF4F      		sbci r29,hi8(-(77))
 5572 1b5c 8881      		ld r24,Y
 5573               	.LVL351:
 5574 1b5e CD54      		subi r28,lo8(-(-77))
 5575 1b60 D040      		sbci r29,hi8(-(-77))
 5576 1b62 8695      		lsr r24
 5577 1b64 8F70      		andi r24,lo8(15)
 5578               	.LBE787:
 5579               	.LBE786:
 5580               	.LM536:
 5581 1b66 8130      		cpi r24,lo8(1)
 5582 1b68 01F0      		breq .+2
 5583 1b6a 00C0      		rjmp .L276
 5584               	.LBB788:
 5585               	.LBB789:
 5586               	.LBB790:
 5587               	.LM537:
 5588 1b6c F601      		movw r30,r12
 5589 1b6e 8085      		ldd r24,Z+8
 5590 1b70 9185      		ldd r25,Z+9
 5591               	.LBE790:
 5592               	.LBE789:
 5593               	.LM538:
 5594 1b72 4C01      		movw r8,r24
 5595               	.LVL352:
 5596 1b74 AA24      		clr r10
 5597 1b76 BB24      		clr r11
 5598               	.LVL353:
 5599               	.LBB791:
 5600               	.LBB792:
 5601               	.LM539:
 5602 1b78 8285      		ldd r24,Z+10
 5603 1b7a 9385      		ldd r25,Z+11
 5604 1b7c A485      		ldd r26,Z+12
 5605 1b7e B585      		ldd r27,Z+13
 5606               	.LVL354:
 5607               	.LBE792:
 5608               	.LBE791:
 5609               	.LM540:
 5610 1b80 C25B      		subi r28,lo8(-(78))
 5611 1b82 DF4F      		sbci r29,hi8(-(78))
 5612 1b84 2880      		ld r2,Y
 5613 1b86 3980      		ldd r3,Y+1
 5614 1b88 4A80      		ldd r4,Y+2
 5615 1b8a 5B80      		ldd r5,Y+3
 5616               	.LVL355:
 5617 1b8c 281A      		sub r2,r24
 5618 1b8e 390A      		sbc r3,r25
 5619 1b90 4A0A      		sbc r4,r26
 5620 1b92 5B0A      		sbc r5,r27
 5621 1b94 57FE      		sbrs r5,7
 5622 1b96 00C0      		rjmp .L277
 5623 1b98 2224      		clr r2
 5624 1b9a 3324      		clr r3
 5625 1b9c 2101      		movw r4,r2
 5626               	.L277:
 5627               	.LM541:
 5628 1b9e F601      		movw r30,r12
 5629 1ba0 2181      		ldd r18,Z+1
 5630 1ba2 3281      		ldd r19,Z+2
 5631 1ba4 40E0      		ldi r20,lo8(0)
 5632 1ba6 50E0      		ldi r21,hi8(0)
 5633 1ba8 C201      		movw r24,r4
 5634 1baa B101      		movw r22,r2
 5635 1bac 0E94 0000 		call __mulsi3
 5636               	.LM542:
 5637 1bb0 F801      		movw r30,r16
 5638 1bb2 24E0      		ldi r18,4
 5639 1bb4 EE0F      	1:	lsl r30
 5640 1bb6 FF1F      		rol r31
 5641 1bb8 2A95      		dec r18
 5642 1bba 01F4      		brne 1b
 5643 1bbc E00F      		add r30,r16
 5644 1bbe F11F      		adc r31,r17
 5645 1bc0 EC0D      		add r30,r12
 5646 1bc2 FD1D      		adc r31,r13
 5647 1bc4 EF01      		movw r28,r30
 5648 1bc6 CE5A      		subi r28,lo8(-(82))
 5649 1bc8 DF4F      		sbci r29,hi8(-(82))
 5650 1bca 2881      		ld r18,Y
 5651 1bcc 3981      		ldd r19,Y+1
 5652 1bce 4A81      		ldd r20,Y+2
 5653 1bd0 5B81      		ldd r21,Y+3
 5654               	.LVL356:
 5655 1bd2 2819      		sub r18,r8
 5656 1bd4 3909      		sbc r19,r9
 5657 1bd6 4A09      		sbc r20,r10
 5658 1bd8 5B09      		sbc r21,r11
 5659 1bda 260F      		add r18,r22
 5660 1bdc 371F      		adc r19,r23
 5661 1bde 481F      		adc r20,r24
 5662 1be0 591F      		adc r21,r25
 5663               	.LBB793:
 5664               	.LBB794:
 5665               	.LM543:
 5666 1be2 DF01      		movw r26,r30
 5667 1be4 AA5A      		subi r26,lo8(-(86))
 5668 1be6 BF4F      		sbci r27,hi8(-(86))
 5669 1be8 2D93      		st X+,r18
 5670 1bea 3D93      		st X+,r19
 5671 1bec 4D93      		st X+,r20
 5672 1bee 5C93      		st X,r21
 5673 1bf0 1397      		sbiw r26,3
 5674               	.LBE794:
 5675               	.LBE793:
 5676               	.LM544:
 5677 1bf2 1216      		cp __zero_reg__,r18
 5678 1bf4 1306      		cpc __zero_reg__,r19
 5679 1bf6 1406      		cpc __zero_reg__,r20
 5680 1bf8 1506      		cpc __zero_reg__,r21
 5681 1bfa 04F4      		brge .+2
 5682 1bfc 00C0      		rjmp .L279
 5683               	.LBB795:
 5684               	.LBB796:
 5685               	.LBB797:
 5686               	.LBB798:
 5687               	.LM545:
 5688 1bfe 1882      		st Y,__zero_reg__
 5689 1c00 1982      		std Y+1,__zero_reg__
 5690 1c02 1A82      		std Y+2,__zero_reg__
 5691 1c04 1B82      		std Y+3,__zero_reg__
 5692               	.LBE798:
 5693               	.LBE797:
 5694               	.LBB799:
 5695               	.LBB800:
 5696               	.LM546:
 5697 1c06 E25B      		subi r30,lo8(-(78))
 5698 1c08 FF4F      		sbci r31,hi8(-(78))
 5699 1c0a 1082      		st Z,__zero_reg__
 5700 1c0c 1182      		std Z+1,__zero_reg__
 5701 1c0e 1282      		std Z+2,__zero_reg__
 5702 1c10 1382      		std Z+3,__zero_reg__
 5703               	.LBE800:
 5704               	.LBE799:
 5705               	.LBB801:
 5706               	.LBB802:
 5707               	.LM547:
 5708 1c12 1D92      		st X+,__zero_reg__
 5709 1c14 1D92      		st X+,__zero_reg__
 5710 1c16 1D92      		st X+,__zero_reg__
 5711 1c18 1C92      		st X,__zero_reg__
 5712 1c1a 1397      		sbiw r26,3
 5713               	.LBE802:
 5714               	.LBE801:
 5715               	.LBB803:
 5716               	.LBB804:
 5717               	.LM548:
 5718 1c1c 8291      		ld r24,-Z
 5719               	.LBE804:
 5720               	.LBE803:
 5721               	.LBE796:
 5722               	.LBE795:
 5723               	.LBB805:
 5724               	.LBB806:
 5725               	.LM549:
 5726 1c1e 807E      		andi r24,lo8(-32)
 5727 1c20 8860      		ori r24,lo8(8)
 5728 1c22 8083      		st Z,r24
 5729 1c24 00C0      		rjmp .L279
 5730               	.LVL357:
 5731               	.L276:
 5732               	.LBE806:
 5733               	.LBE805:
 5734               	.LBE788:
 5735               	.LM550:
 5736 1c26 8230      		cpi r24,lo8(2)
 5737 1c28 01F4      		brne .L279
 5738               	.LBB807:
 5739               	.LBB808:
 5740               	.LBB809:
 5741               	.LM551:
 5742 1c2a F601      		movw r30,r12
 5743 1c2c 6084      		ldd r6,Z+8
 5744 1c2e 7184      		ldd r7,Z+9
 5745               	.LBE809:
 5746               	.LBE808:
 5747               	.LBB810:
 5748               	.LBB811:
 5749               	.LM552:
 5750 1c30 E284      		ldd r14,Z+10
 5751 1c32 F384      		ldd r15,Z+11
 5752 1c34 0485      		ldd r16,Z+12
 5753 1c36 1585      		ldd r17,Z+13
 5754               	.LVL358:
 5755               	.LBE811:
 5756               	.LBE810:
 5757               	.LBB812:
 5758               	.LBB813:
 5759               	.LM553:
 5760 1c38 CA5A      		subi r28,lo8(-(86))
 5761 1c3a DF4F      		sbci r29,hi8(-(86))
 5762 1c3c 2880      		ld r2,Y
 5763 1c3e 3980      		ldd r3,Y+1
 5764 1c40 4A80      		ldd r4,Y+2
 5765 1c42 5B80      		ldd r5,Y+3
 5766               	.LVL359:
 5767               	.LBE813:
 5768               	.LBE812:
 5769               	.LM554:
 5770 1c44 2181      		ldd r18,Z+1
 5771 1c46 3281      		ldd r19,Z+2
 5772               	.LM555:
 5773 1c48 A180      		ldd r10,Z+1
 5774 1c4a B280      		ldd r11,Z+2
 5775               	.LBB814:
 5776               	.LBB815:
 5777               	.LM556:
 5778 1c4c 2897      		sbiw r28,8
 5779 1c4e 40E0      		ldi r20,lo8(0)
 5780 1c50 50E0      		ldi r21,hi8(0)
 5781 1c52 C201      		movw r24,r4
 5782 1c54 B101      		movw r22,r2
 5783 1c56 0E94 0000 		call __divmodsi4
 5784 1c5a E20E      		add r14,r18
 5785 1c5c F31E      		adc r15,r19
 5786 1c5e 041F      		adc r16,r20
 5787 1c60 151F      		adc r17,r21
 5788 1c62 E992      		st Y+,r14
 5789 1c64 F992      		st Y+,r15
 5790 1c66 0993      		st Y+,r16
 5791 1c68 1993      		st Y+,r17
 5792               	.LBE815:
 5793               	.LBE814:
 5794               	.LBB816:
 5795               	.LBB817:
 5796               	.LM557:
 5797 1c6a CC24      		clr r12
 5798 1c6c DD24      		clr r13
 5799 1c6e C201      		movw r24,r4
 5800 1c70 B101      		movw r22,r2
 5801 1c72 A601      		movw r20,r12
 5802 1c74 9501      		movw r18,r10
 5803 1c76 0E94 0000 		call __divmodsi4
 5804 1c7a 8824      		clr r8
 5805 1c7c 9924      		clr r9
 5806 1c7e 660E      		add r6,r22
 5807 1c80 771E      		adc r7,r23
 5808 1c82 881E      		adc r8,r24
 5809 1c84 991E      		adc r9,r25
 5810 1c86 6882      		st Y,r6
 5811 1c88 7982      		std Y+1,r7
 5812 1c8a 8A82      		std Y+2,r8
 5813 1c8c 9B82      		std Y+3,r9
 5814               	.LVL360:
 5815               	.L279:
 5816               	/* epilogue start */
 5817               	.LBE817:
 5818               	.LBE816:
 5819               	.LBE807:
 5820               	.LM558:
 5821 1c8e DF91      		pop r29
 5822 1c90 CF91      		pop r28
 5823 1c92 1F91      		pop r17
 5824 1c94 0F91      		pop r16
 5825 1c96 FF90      		pop r15
 5826 1c98 EF90      		pop r14
 5827               	.LVL361:
 5828 1c9a DF90      		pop r13
 5829 1c9c CF90      		pop r12
 5830 1c9e BF90      		pop r11
 5831 1ca0 AF90      		pop r10
 5832               	.LVL362:
 5833 1ca2 9F90      		pop r9
 5834 1ca4 8F90      		pop r8
 5835               	.LVL363:
 5836 1ca6 7F90      		pop r7
 5837 1ca8 6F90      		pop r6
 5838 1caa 5F90      		pop r5
 5839 1cac 4F90      		pop r4
 5840 1cae 3F90      		pop r3
 5841 1cb0 2F90      		pop r2
 5842               	.LVL364:
 5843 1cb2 0895      		ret
 5844               	.LFE108:
 5846               	.global	Timebase_DownCounter_SS_Expired
 5848               	Timebase_DownCounter_SS_Expired:
 5849               	.LFB109:
 5850               	.LM559:
 5851               	.LVL365:
 5852               	/* prologue: function */
 5853               	/* frame size = 0 */
 5854               	.LM560:
 5855 1cb4 40E0      		ldi r20,lo8(0)
 5856 1cb6 E091 0000 		lds r30,Timebase
 5857 1cba F091 0000 		lds r31,(Timebase)+1
 5858 1cbe 90E0      		ldi r25,lo8(0)
 5859               	.LVL366:
 5860 1cc0 9C01      		movw r18,r24
 5861 1cc2 54E0      		ldi r21,4
 5862 1cc4 220F      	1:	lsl r18
 5863 1cc6 331F      		rol r19
 5864 1cc8 5A95      		dec r21
 5865 1cca 01F4      		brne 1b
 5866 1ccc 280F      		add r18,r24
 5867 1cce 391F      		adc r19,r25
 5868 1cd0 E20F      		add r30,r18
 5869 1cd2 F31F      		adc r31,r19
 5870 1cd4 E35B      		subi r30,lo8(-(77))
 5871 1cd6 FF4F      		sbci r31,hi8(-(77))
 5872 1cd8 8081      		ld r24,Z
 5873               	.LVL367:
 5874 1cda 8695      		lsr r24
 5875 1cdc 8F70      		andi r24,lo8(15)
 5876 1cde 8430      		cpi r24,lo8(4)
 5877 1ce0 01F4      		brne .L281
 5878 1ce2 41E0      		ldi r20,lo8(1)
 5879               	.L281:
 5880               	.LM561:
 5881 1ce4 842F      		mov r24,r20
 5882               	/* epilogue start */
 5883 1ce6 0895      		ret
 5884               	.LFE109:
 5886               	.global	Timebase_DownCounter_SS_Expired_Event
 5888               	Timebase_DownCounter_SS_Expired_Event:
 5889               	.LFB110:
 5890               	.LM562:
 5891               	.LVL368:
 5892               	/* prologue: function */
 5893               	/* frame size = 0 */
 5894               	.LBB818:
 5895               	.LBB819:
 5896               	.LM563:
 5897 1ce8 E091 0000 		lds r30,Timebase
 5898 1cec F091 0000 		lds r31,(Timebase)+1
 5899 1cf0 90E0      		ldi r25,lo8(0)
 5900               	.LBE819:
 5901               	.LBE818:
 5902               	.LM564:
 5903 1cf2 9C01      		movw r18,r24
 5904               	.LVL369:
 5905 1cf4 64E0      		ldi r22,4
 5906 1cf6 220F      	1:	lsl r18
 5907 1cf8 331F      		rol r19
 5908 1cfa 6A95      		dec r22
 5909 1cfc 01F4      		brne 1b
 5910 1cfe 280F      		add r18,r24
 5911 1d00 391F      		adc r19,r25
 5912 1d02 E20F      		add r30,r18
 5913 1d04 F31F      		adc r31,r19
 5914 1d06 DF01      		movw r26,r30
 5915 1d08 A35B      		subi r26,lo8(-(77))
 5916 1d0a BF4F      		sbci r27,hi8(-(77))
 5917 1d0c 8C91      		ld r24,X
 5918 1d0e 8695      		lsr r24
 5919 1d10 8F70      		andi r24,lo8(15)
 5920 1d12 8430      		cpi r24,lo8(4)
 5921 1d14 01F0      		breq .L284
 5922 1d16 80E0      		ldi r24,lo8(0)
 5923 1d18 0895      		ret
 5924               	.L284:
 5925               	.LBB820:
 5926               	.LBB821:
 5927               	.LBB822:
 5928               	.LBB823:
 5929               	.LBB824:
 5930               	.LBB825:
 5931               	.LM565:
 5932 1d1a EE5A      		subi r30,lo8(-(82))
 5933 1d1c FF4F      		sbci r31,hi8(-(82))
 5934 1d1e 1082      		st Z,__zero_reg__
 5935 1d20 1182      		std Z+1,__zero_reg__
 5936 1d22 1282      		std Z+2,__zero_reg__
 5937 1d24 1382      		std Z+3,__zero_reg__
 5938               	.LBE825:
 5939               	.LBE824:
 5940               	.LBB826:
 5941               	.LBB827:
 5942               	.LM566:
 5943 1d26 1292      		st -Z,__zero_reg__
 5944 1d28 1292      		st -Z,__zero_reg__
 5945 1d2a 1292      		st -Z,__zero_reg__
 5946 1d2c 1292      		st -Z,__zero_reg__
 5947               	.LBE827:
 5948               	.LBE826:
 5949               	.LBB828:
 5950               	.LBB829:
 5951               	.LM567:
 5952 1d2e 3896      		adiw r30,8
 5953 1d30 1082      		st Z,__zero_reg__
 5954 1d32 1182      		std Z+1,__zero_reg__
 5955 1d34 1282      		std Z+2,__zero_reg__
 5956 1d36 1382      		std Z+3,__zero_reg__
 5957               	.LBE829:
 5958               	.LBE828:
 5959               	.LBB830:
 5960               	.LBB831:
 5961               	.LM568:
 5962 1d38 8C91      		ld r24,X
 5963               	.LBE831:
 5964               	.LBE830:
 5965               	.LBB832:
 5966               	.LBB833:
 5967               	.LM569:
 5968 1d3a 807E      		andi r24,lo8(-32)
 5969 1d3c 8C93      		st X,r24
 5970 1d3e 81E0      		ldi r24,lo8(1)
 5971               	.LBE833:
 5972               	.LBE832:
 5973               	.LBE823:
 5974               	.LBE822:
 5975               	.LBE821:
 5976               	.LBE820:
 5977               	.LM570:
 5978 1d40 0895      		ret
 5979               	.LFE110:
 5981               	.global	Timebase_DownCounter_SS_Set_Period_Value_Securely
 5983               	Timebase_DownCounter_SS_Set_Period_Value_Securely:
 5984               	.LFB111:
 5985               	.LM571:
 5986               	.LVL370:
 5987 1d42 CF93      		push r28
 5988 1d44 DF93      		push r29
 5989               	/* prologue: function */
 5990               	/* frame size = 0 */
 5991               	.LBB834:
 5992               	.LBB835:
 5993               	.LM572:
 5994 1d46 C091 0000 		lds r28,Timebase
 5995 1d4a D091 0000 		lds r29,(Timebase)+1
 5996 1d4e 282F      		mov r18,r24
 5997 1d50 30E0      		ldi r19,lo8(0)
 5998               	.LBE835:
 5999               	.LBE834:
 6000               	.LM573:
 6001 1d52 F901      		movw r30,r18
 6002 1d54 A4E0      		ldi r26,4
 6003 1d56 EE0F      	1:	lsl r30
 6004 1d58 FF1F      		rol r31
 6005 1d5a AA95      		dec r26
 6006 1d5c 01F4      		brne 1b
 6007 1d5e E20F      		add r30,r18
 6008 1d60 F31F      		adc r31,r19
 6009 1d62 EC0F      		add r30,r28
 6010 1d64 FD1F      		adc r31,r29
 6011 1d66 E35B      		subi r30,lo8(-(77))
 6012 1d68 FF4F      		sbci r31,hi8(-(77))
 6013 1d6a 8081      		ld r24,Z
 6014               	.LVL371:
 6015 1d6c ED54      		subi r30,lo8(-(-77))
 6016 1d6e F040      		sbci r31,hi8(-(-77))
 6017 1d70 80FD      		sbrc r24,0
 6018 1d72 00C0      		rjmp .L291
 6019               	.LM574:
 6020 1d74 EA5A      		subi r30,lo8(-(86))
 6021 1d76 FF4F      		sbci r31,hi8(-(86))
 6022 1d78 8191      		ld r24,Z+
 6023 1d7a 9191      		ld r25,Z+
 6024 1d7c A191      		ld r26,Z+
 6025 1d7e B191      		ld r27,Z+
 6026 1d80 841B      		sub r24,r20
 6027 1d82 950B      		sbc r25,r21
 6028 1d84 A60B      		sbc r26,r22
 6029 1d86 B70B      		sbc r27,r23
 6030               	.LBB836:
 6031               	.LBB837:
 6032               	.LM575:
 6033 1d88 B7FF      		sbrs r27,7
 6034 1d8a 00C0      		rjmp .L289
 6035               	.LM576:
 6036 1d8c 1082      		st Z,__zero_reg__
 6037 1d8e 1182      		std Z+1,__zero_reg__
 6038 1d90 1282      		std Z+2,__zero_reg__
 6039 1d92 1382      		std Z+3,__zero_reg__
 6040 1d94 00C0      		rjmp .L290
 6041               	.L289:
 6042               	.LM577:
 6043 1d96 8083      		st Z,r24
 6044 1d98 9183      		std Z+1,r25
 6045 1d9a A283      		std Z+2,r26
 6046 1d9c B383      		std Z+3,r27
 6047               	.L290:
 6048               	.LBE837:
 6049               	.LBE836:
 6050               	.LBB838:
 6051               	.LBB839:
 6052               	.LM578:
 6053 1d9e F901      		movw r30,r18
 6054 1da0 74E0      		ldi r23,4
 6055 1da2 EE0F      	1:	lsl r30
 6056 1da4 FF1F      		rol r31
 6057 1da6 7A95      		dec r23
 6058 1da8 01F4      		brne 1b
 6059 1daa E20F      		add r30,r18
 6060 1dac F31F      		adc r31,r19
 6061 1dae EC0F      		add r30,r28
 6062 1db0 FD1F      		adc r31,r29
 6063 1db2 E35B      		subi r30,lo8(-(77))
 6064 1db4 FF4F      		sbci r31,hi8(-(77))
 6065 1db6 8081      		ld r24,Z
 6066 1db8 8160      		ori r24,lo8(1)
 6067 1dba 8083      		st Z,r24
 6068               	.L291:
 6069               	/* epilogue start */
 6070               	.LBE839:
 6071               	.LBE838:
 6072               	.LM579:
 6073 1dbc DF91      		pop r29
 6074 1dbe CF91      		pop r28
 6075 1dc0 0895      		ret
 6076               	.LFE111:
 6078               	.global	Timebase_DownCounter_SS_Get_Remaining_Period_Value
 6080               	Timebase_DownCounter_SS_Get_Remaining_Period_Value:
 6081               	.LFB112:
 6082               	.LM580:
 6083               	.LVL372:
 6084               	/* prologue: function */
 6085               	/* frame size = 0 */
 6086               	.LBB840:
 6087               	.LBB841:
 6088               	.LM581:
 6089 1dc2 E091 0000 		lds r30,Timebase
 6090 1dc6 F091 0000 		lds r31,(Timebase)+1
 6091 1dca 90E0      		ldi r25,lo8(0)
 6092               	.LBE841:
 6093               	.LBE840:
 6094               	.LM582:
 6095 1dcc 9C01      		movw r18,r24
 6096               	.LVL373:
 6097 1dce B4E0      		ldi r27,4
 6098 1dd0 220F      	1:	lsl r18
 6099 1dd2 331F      		rol r19
 6100 1dd4 BA95      		dec r27
 6101 1dd6 01F4      		brne 1b
 6102 1dd8 280F      		add r18,r24
 6103 1dda 391F      		adc r19,r25
 6104 1ddc E20F      		add r30,r18
 6105 1dde F31F      		adc r31,r19
 6106 1de0 DF01      		movw r26,r30
 6107 1de2 A65A      		subi r26,lo8(-(90))
 6108 1de4 BF4F      		sbci r27,hi8(-(90))
 6109 1de6 EA5A      		subi r30,lo8(-(86))
 6110 1de8 FF4F      		sbci r31,hi8(-(86))
 6111 1dea 2081      		ld r18,Z
 6112 1dec 3181      		ldd r19,Z+1
 6113 1dee 4281      		ldd r20,Z+2
 6114 1df0 5381      		ldd r21,Z+3
 6115               	.LVL374:
 6116 1df2 8D91      		ld r24,X+
 6117 1df4 9D91      		ld r25,X+
 6118 1df6 0D90      		ld __tmp_reg__,X+
 6119 1df8 BC91      		ld r27,X
 6120 1dfa A02D      		mov r26,__tmp_reg__
 6121 1dfc 281B      		sub r18,r24
 6122 1dfe 390B      		sbc r19,r25
 6123 1e00 4A0B      		sbc r20,r26
 6124 1e02 5B0B      		sbc r21,r27
 6125 1e04 57FF      		sbrs r21,7
 6126 1e06 00C0      		rjmp .L293
 6127 1e08 20E0      		ldi r18,lo8(0)
 6128 1e0a 30E0      		ldi r19,hi8(0)
 6129 1e0c 40E0      		ldi r20,hlo8(0)
 6130 1e0e 50E0      		ldi r21,hhi8(0)
 6131               	.L293:
 6132               	.LM583:
 6133 1e10 B901      		movw r22,r18
 6134               	.LVL375:
 6135 1e12 CA01      		movw r24,r20
 6136               	/* epilogue start */
 6137 1e14 0895      		ret
 6138               	.LFE112:
 6140               	.global	Timebase_DownCounter_SS_Period_Value_Expired
 6142               	Timebase_DownCounter_SS_Period_Value_Expired:
 6143               	.LFB113:
 6144               	.LM584:
 6145               	.LVL376:
 6146 1e16 CF93      		push r28
 6147 1e18 DF93      		push r29
 6148               	/* prologue: function */
 6149               	/* frame size = 0 */
 6150               	.LBB842:
 6151               	.LBB843:
 6152               	.LBB844:
 6153               	.LBB845:
 6154               	.LM585:
 6155 1e1a C091 0000 		lds r28,Timebase
 6156 1e1e D091 0000 		lds r29,(Timebase)+1
 6157 1e22 682F      		mov r22,r24
 6158 1e24 70E0      		ldi r23,lo8(0)
 6159               	.LBE845:
 6160               	.LBE844:
 6161               	.LM586:
 6162 1e26 FB01      		movw r30,r22
 6163 1e28 44E0      		ldi r20,4
 6164 1e2a EE0F      	1:	lsl r30
 6165 1e2c FF1F      		rol r31
 6166 1e2e 4A95      		dec r20
 6167 1e30 01F4      		brne 1b
 6168 1e32 E60F      		add r30,r22
 6169 1e34 F71F      		adc r31,r23
 6170 1e36 EC0F      		add r30,r28
 6171 1e38 FD1F      		adc r31,r29
 6172 1e3a DF01      		movw r26,r30
 6173 1e3c A65A      		subi r26,lo8(-(90))
 6174 1e3e BF4F      		sbci r27,hi8(-(90))
 6175 1e40 EA5A      		subi r30,lo8(-(86))
 6176 1e42 FF4F      		sbci r31,hi8(-(86))
 6177 1e44 2081      		ld r18,Z
 6178 1e46 3181      		ldd r19,Z+1
 6179 1e48 4281      		ldd r20,Z+2
 6180 1e4a 5381      		ldd r21,Z+3
 6181               	.LVL377:
 6182 1e4c 8D91      		ld r24,X+
 6183 1e4e 9D91      		ld r25,X+
 6184 1e50 0D90      		ld __tmp_reg__,X+
 6185 1e52 BC91      		ld r27,X
 6186 1e54 A02D      		mov r26,__tmp_reg__
 6187               	.LVL378:
 6188 1e56 281B      		sub r18,r24
 6189 1e58 390B      		sbc r19,r25
 6190 1e5a 4A0B      		sbc r20,r26
 6191 1e5c 5B0B      		sbc r21,r27
 6192               	.LM587:
 6193 1e5e 57FD      		sbrc r21,7
 6194 1e60 00C0      		rjmp .L296
 6195               	.LBE843:
 6196               	.LBE842:
 6197               	.LM588:
 6198 1e62 2115      		cp r18,__zero_reg__
 6199 1e64 3105      		cpc r19,__zero_reg__
 6200 1e66 4105      		cpc r20,__zero_reg__
 6201 1e68 5105      		cpc r21,__zero_reg__
 6202 1e6a 01F0      		breq .L296
 6203 1e6c 20E0      		ldi r18,lo8(0)
 6204               	.LVL379:
 6205 1e6e 00C0      		rjmp .L297
 6206               	.LVL380:
 6207               	.L296:
 6208 1e70 20E0      		ldi r18,lo8(0)
 6209               	.LVL381:
 6210 1e72 CB01      		movw r24,r22
 6211 1e74 34E0      		ldi r19,4
 6212 1e76 880F      	1:	lsl r24
 6213 1e78 991F      		rol r25
 6214 1e7a 3A95      		dec r19
 6215 1e7c 01F4      		brne 1b
 6216 1e7e 860F      		add r24,r22
 6217 1e80 971F      		adc r25,r23
 6218 1e82 C80F      		add r28,r24
 6219 1e84 D91F      		adc r29,r25
 6220 1e86 C35B      		subi r28,lo8(-(77))
 6221 1e88 DF4F      		sbci r29,hi8(-(77))
 6222 1e8a 8881      		ld r24,Y
 6223 1e8c 80FF      		sbrs r24,0
 6224 1e8e 21E0      		ldi r18,lo8(1)
 6225               	.L298:
 6226 1e90 81E0      		ldi r24,lo8(1)
 6227 1e92 2827      		eor r18,r24
 6228               	.L297:
 6229               	.LM589:
 6230 1e94 822F      		mov r24,r18
 6231               	/* epilogue start */
 6232 1e96 DF91      		pop r29
 6233 1e98 CF91      		pop r28
 6234 1e9a 0895      		ret
 6235               	.LFE113:
 6237               	.global	Timebase_DownCounter_SS_Period_Value_Expired_Event
 6239               	Timebase_DownCounter_SS_Period_Value_Expired_Event:
 6240               	.LFB114:
 6241               	.LM590:
 6242               	.LVL382:
 6243 1e9c 1F93      		push r17
 6244               	/* prologue: function */
 6245               	/* frame size = 0 */
 6246 1e9e 182F      		mov r17,r24
 6247               	.LM591:
 6248 1ea0 0E94 0000 		call Timebase_DownCounter_SS_Period_Value_Expired
 6249               	.LVL383:
 6250 1ea4 8130      		cpi r24,lo8(1)
 6251 1ea6 01F0      		breq .L301
 6252 1ea8 80E0      		ldi r24,lo8(0)
 6253 1eaa 00C0      		rjmp .L302
 6254               	.L301:
 6255               	.LBB846:
 6256               	.LBB847:
 6257               	.LM592:
 6258 1eac E091 0000 		lds r30,Timebase
 6259 1eb0 F091 0000 		lds r31,(Timebase)+1
 6260 1eb4 212F      		mov r18,r17
 6261 1eb6 30E0      		ldi r19,lo8(0)
 6262               	.LVL384:
 6263 1eb8 C901      		movw r24,r18
 6264 1eba 54E0      		ldi r21,4
 6265 1ebc 880F      	1:	lsl r24
 6266 1ebe 991F      		rol r25
 6267 1ec0 5A95      		dec r21
 6268 1ec2 01F4      		brne 1b
 6269 1ec4 820F      		add r24,r18
 6270 1ec6 931F      		adc r25,r19
 6271 1ec8 E80F      		add r30,r24
 6272 1eca F91F      		adc r31,r25
 6273 1ecc E35B      		subi r30,lo8(-(77))
 6274 1ece FF4F      		sbci r31,hi8(-(77))
 6275 1ed0 8081      		ld r24,Z
 6276 1ed2 8E7F      		andi r24,lo8(-2)
 6277 1ed4 8083      		st Z,r24
 6278 1ed6 81E0      		ldi r24,lo8(1)
 6279               	.L302:
 6280               	/* epilogue start */
 6281               	.LBE847:
 6282               	.LBE846:
 6283               	.LM593:
 6284 1ed8 1F91      		pop r17
 6285               	.LVL385:
 6286 1eda 0895      		ret
 6287               	.LFE114:
 6289               	.global	Timebase_DownCounter_SS_Update_All
 6291               	Timebase_DownCounter_SS_Update_All:
 6292               	.LFB115:
 6293               	.LM594:
 6294               	/* prologue: function */
 6295               	/* frame size = 0 */
 6296               	.LBB848:
 6297               	.LM595:
 6298 1edc 80E0      		ldi r24,lo8(0)
 6299 1ede 0E94 0000 		call Timebase_DownCounter_SS_Update
 6300               	/* epilogue start */
 6301               	.LBE848:
 6302               	.LM596:
 6303 1ee2 0895      		ret
 6304               	.LFE115:
 6306               	.global	Timebase_DownCounter_SS_Reset_All
 6308               	Timebase_DownCounter_SS_Reset_All:
 6309               	.LFB116:
 6310               	.LM597:
 6311               	/* prologue: function */
 6312               	/* frame size = 0 */
 6313               	.LBB849:
 6314               	.LBB850:
 6315               	.LBB851:
 6316               	.LBB852:
 6317               	.LBB853:
 6318               	.LM598:
 6319 1ee4 E091 0000 		lds r30,Timebase
 6320 1ee8 F091 0000 		lds r31,(Timebase)+1
 6321 1eec EE5A      		subi r30,lo8(-(82))
 6322 1eee FF4F      		sbci r31,hi8(-(82))
 6323 1ef0 1082      		st Z,__zero_reg__
 6324 1ef2 1182      		std Z+1,__zero_reg__
 6325 1ef4 1282      		std Z+2,__zero_reg__
 6326 1ef6 1382      		std Z+3,__zero_reg__
 6327               	.LBE853:
 6328               	.LBE852:
 6329               	.LBB854:
 6330               	.LBB855:
 6331               	.LM599:
 6332 1ef8 1292      		st -Z,__zero_reg__
 6333 1efa 1292      		st -Z,__zero_reg__
 6334 1efc 1292      		st -Z,__zero_reg__
 6335 1efe 1292      		st -Z,__zero_reg__
 6336               	.LBE855:
 6337               	.LBE854:
 6338               	.LBB856:
 6339               	.LBB857:
 6340               	.LM600:
 6341 1f00 3896      		adiw r30,8
 6342 1f02 1082      		st Z,__zero_reg__
 6343 1f04 1182      		std Z+1,__zero_reg__
 6344 1f06 1282      		std Z+2,__zero_reg__
 6345 1f08 1382      		std Z+3,__zero_reg__
 6346               	.LBE857:
 6347               	.LBE856:
 6348               	.LBB858:
 6349               	.LBB859:
 6350               	.LM601:
 6351 1f0a 3997      		sbiw r30,9
 6352 1f0c 8081      		ld r24,Z
 6353               	.LBE859:
 6354               	.LBE858:
 6355               	.LBB860:
 6356               	.LBB861:
 6357               	.LM602:
 6358 1f0e 807E      		andi r24,lo8(-32)
 6359 1f10 8083      		st Z,r24
 6360               	/* epilogue start */
 6361               	.LBE861:
 6362               	.LBE860:
 6363               	.LBE851:
 6364               	.LBE850:
 6365               	.LBE849:
 6366               	.LM603:
 6367 1f12 0895      		ret
 6368               	.LFE116:
 6370               	.global	Timebase_DownCounter_Get_Status
 6372               	Timebase_DownCounter_Get_Status:
 6373               	.LFB117:
 6374               	.LM604:
 6375               	.LVL386:
 6376               	/* prologue: function */
 6377               	/* frame size = 0 */
 6378               	.LM605:
 6379 1f14 E091 0000 		lds r30,Timebase
 6380 1f18 F091 0000 		lds r31,(Timebase)+1
 6381 1f1c 90E0      		ldi r25,lo8(0)
 6382               	.LVL387:
 6383 1f1e 2DE0      		ldi r18,lo8(13)
 6384 1f20 30E0      		ldi r19,hi8(13)
 6385 1f22 AC01      		movw r20,r24
 6386 1f24 429F      		mul r20,r18
 6387 1f26 C001      		movw r24,r0
 6388 1f28 439F      		mul r20,r19
 6389 1f2a 900D      		add r25,r0
 6390 1f2c 529F      		mul r21,r18
 6391 1f2e 900D      		add r25,r0
 6392 1f30 1124      		clr r1
 6393               	.LVL388:
 6394 1f32 E80F      		add r30,r24
 6395 1f34 F91F      		adc r31,r25
 6396 1f36 E25A      		subi r30,lo8(-(94))
 6397 1f38 FF4F      		sbci r31,hi8(-(94))
 6398 1f3a 8081      		ld r24,Z
 6399 1f3c 8695      		lsr r24
 6400               	.LM606:
 6401 1f3e 8F70      		andi r24,lo8(15)
 6402               	/* epilogue start */
 6403 1f40 0895      		ret
 6404               	.LFE117:
 6406               	.global	Timebase_DownCounter_Set_Status
 6408               	Timebase_DownCounter_Set_Status:
 6409               	.LFB118:
 6410               	.LM607:
 6411               	.LVL389:
 6412               	/* prologue: function */
 6413               	/* frame size = 0 */
 6414               	.LM608:
 6415 1f42 E091 0000 		lds r30,Timebase
 6416 1f46 F091 0000 		lds r31,(Timebase)+1
 6417 1f4a 90E0      		ldi r25,lo8(0)
 6418               	.LVL390:
 6419 1f4c 2DE0      		ldi r18,lo8(13)
 6420 1f4e 30E0      		ldi r19,hi8(13)
 6421 1f50 AC01      		movw r20,r24
 6422 1f52 429F      		mul r20,r18
 6423 1f54 C001      		movw r24,r0
 6424 1f56 439F      		mul r20,r19
 6425 1f58 900D      		add r25,r0
 6426 1f5a 529F      		mul r21,r18
 6427 1f5c 900D      		add r25,r0
 6428 1f5e 1124      		clr r1
 6429               	.LVL391:
 6430 1f60 E80F      		add r30,r24
 6431 1f62 F91F      		adc r31,r25
 6432 1f64 E25A      		subi r30,lo8(-(94))
 6433 1f66 FF4F      		sbci r31,hi8(-(94))
 6434 1f68 6F70      		andi r22,lo8(15)
 6435               	.LVL392:
 6436 1f6a 660F      		lsl r22
 6437 1f6c 8081      		ld r24,Z
 6438 1f6e 817E      		andi r24,lo8(-31)
 6439 1f70 862B      		or r24,r22
 6440 1f72 8083      		st Z,r24
 6441               	/* epilogue start */
 6442               	.LM609:
 6443 1f74 0895      		ret
 6444               	.LFE118:
 6446               	.global	Timebase_DownCounter_Get_Value
 6448               	Timebase_DownCounter_Get_Value:
 6449               	.LFB119:
 6450               	.LM610:
 6451               	.LVL393:
 6452               	/* prologue: function */
 6453               	/* frame size = 0 */
 6454               	.LM611:
 6455 1f76 E091 0000 		lds r30,Timebase
 6456 1f7a F091 0000 		lds r31,(Timebase)+1
 6457 1f7e 90E0      		ldi r25,lo8(0)
 6458               	.LVL394:
 6459 1f80 2DE0      		ldi r18,lo8(13)
 6460 1f82 30E0      		ldi r19,hi8(13)
 6461 1f84 AC01      		movw r20,r24
 6462 1f86 429F      		mul r20,r18
 6463 1f88 C001      		movw r24,r0
 6464 1f8a 439F      		mul r20,r19
 6465 1f8c 900D      		add r25,r0
 6466 1f8e 529F      		mul r21,r18
 6467 1f90 900D      		add r25,r0
 6468 1f92 1124      		clr r1
 6469               	.LVL395:
 6470 1f94 E80F      		add r30,r24
 6471 1f96 F91F      		adc r31,r25
 6472 1f98 ED59      		subi r30,lo8(-(99))
 6473 1f9a FF4F      		sbci r31,hi8(-(99))
 6474 1f9c 6081      		ld r22,Z
 6475 1f9e 7181      		ldd r23,Z+1
 6476               	.LM612:
 6477 1fa0 8281      		ldd r24,Z+2
 6478 1fa2 9381      		ldd r25,Z+3
 6479               	.LVL396:
 6480               	/* epilogue start */
 6481 1fa4 0895      		ret
 6482               	.LFE119:
 6484               	.global	Timebase_DownCounter_Set_Value
 6486               	Timebase_DownCounter_Set_Value:
 6487               	.LFB120:
 6488               	.LM613:
 6489               	.LVL397:
 6490               	/* prologue: function */
 6491               	/* frame size = 0 */
 6492               	.LM614:
 6493 1fa6 E091 0000 		lds r30,Timebase
 6494 1faa F091 0000 		lds r31,(Timebase)+1
 6495 1fae 90E0      		ldi r25,lo8(0)
 6496               	.LVL398:
 6497 1fb0 2DE0      		ldi r18,lo8(13)
 6498 1fb2 30E0      		ldi r19,hi8(13)
 6499 1fb4 DC01      		movw r26,r24
 6500 1fb6 A29F      		mul r26,r18
 6501 1fb8 C001      		movw r24,r0
 6502 1fba A39F      		mul r26,r19
 6503 1fbc 900D      		add r25,r0
 6504 1fbe B29F      		mul r27,r18
 6505 1fc0 900D      		add r25,r0
 6506 1fc2 1124      		clr r1
 6507               	.LVL399:
 6508 1fc4 E80F      		add r30,r24
 6509 1fc6 F91F      		adc r31,r25
 6510 1fc8 ED59      		subi r30,lo8(-(99))
 6511 1fca FF4F      		sbci r31,hi8(-(99))
 6512 1fcc 4083      		st Z,r20
 6513 1fce 5183      		std Z+1,r21
 6514 1fd0 6283      		std Z+2,r22
 6515 1fd2 7383      		std Z+3,r23
 6516               	/* epilogue start */
 6517               	.LM615:
 6518 1fd4 0895      		ret
 6519               	.LFE120:
 6521               	.global	Timebase_DownCounter_Get_EndValue
 6523               	Timebase_DownCounter_Get_EndValue:
 6524               	.LFB121:
 6525               	.LM616:
 6526               	.LVL400:
 6527               	/* prologue: function */
 6528               	/* frame size = 0 */
 6529               	.LM617:
 6530 1fd6 E091 0000 		lds r30,Timebase
 6531 1fda F091 0000 		lds r31,(Timebase)+1
 6532 1fde 90E0      		ldi r25,lo8(0)
 6533               	.LVL401:
 6534 1fe0 2DE0      		ldi r18,lo8(13)
 6535 1fe2 30E0      		ldi r19,hi8(13)
 6536 1fe4 AC01      		movw r20,r24
 6537 1fe6 429F      		mul r20,r18
 6538 1fe8 C001      		movw r24,r0
 6539 1fea 439F      		mul r20,r19
 6540 1fec 900D      		add r25,r0
 6541 1fee 529F      		mul r21,r18
 6542 1ff0 900D      		add r25,r0
 6543 1ff2 1124      		clr r1
 6544               	.LVL402:
 6545 1ff4 E80F      		add r30,r24
 6546 1ff6 F91F      		adc r31,r25
 6547 1ff8 E15A      		subi r30,lo8(-(95))
 6548 1ffa FF4F      		sbci r31,hi8(-(95))
 6549 1ffc 6081      		ld r22,Z
 6550 1ffe 7181      		ldd r23,Z+1
 6551               	.LM618:
 6552 2000 8281      		ldd r24,Z+2
 6553 2002 9381      		ldd r25,Z+3
 6554               	.LVL403:
 6555               	/* epilogue start */
 6556 2004 0895      		ret
 6557               	.LFE121:
 6559               	.global	Timebase_DownCounter_Set_EndValue
 6561               	Timebase_DownCounter_Set_EndValue:
 6562               	.LFB122:
 6563               	.LM619:
 6564               	.LVL404:
 6565               	/* prologue: function */
 6566               	/* frame size = 0 */
 6567               	.LM620:
 6568 2006 E091 0000 		lds r30,Timebase
 6569 200a F091 0000 		lds r31,(Timebase)+1
 6570 200e 90E0      		ldi r25,lo8(0)
 6571               	.LVL405:
 6572 2010 2DE0      		ldi r18,lo8(13)
 6573 2012 30E0      		ldi r19,hi8(13)
 6574 2014 DC01      		movw r26,r24
 6575 2016 A29F      		mul r26,r18
 6576 2018 C001      		movw r24,r0
 6577 201a A39F      		mul r26,r19
 6578 201c 900D      		add r25,r0
 6579 201e B29F      		mul r27,r18
 6580 2020 900D      		add r25,r0
 6581 2022 1124      		clr r1
 6582               	.LVL406:
 6583 2024 E80F      		add r30,r24
 6584 2026 F91F      		adc r31,r25
 6585 2028 E15A      		subi r30,lo8(-(95))
 6586 202a FF4F      		sbci r31,hi8(-(95))
 6587 202c 4083      		st Z,r20
 6588 202e 5183      		std Z+1,r21
 6589 2030 6283      		std Z+2,r22
 6590 2032 7383      		std Z+3,r23
 6591               	/* epilogue start */
 6592               	.LM621:
 6593 2034 0895      		ret
 6594               	.LFE122:
 6596               	.global	Timebase_DownCounter_Get_PeriodValue
 6598               	Timebase_DownCounter_Get_PeriodValue:
 6599               	.LFB123:
 6600               	.LM622:
 6601               	.LVL407:
 6602               	/* prologue: function */
 6603               	/* frame size = 0 */
 6604               	.LM623:
 6605 2036 E091 0000 		lds r30,Timebase
 6606 203a F091 0000 		lds r31,(Timebase)+1
 6607 203e 90E0      		ldi r25,lo8(0)
 6608               	.LVL408:
 6609 2040 2DE0      		ldi r18,lo8(13)
 6610 2042 30E0      		ldi r19,hi8(13)
 6611 2044 AC01      		movw r20,r24
 6612 2046 429F      		mul r20,r18
 6613 2048 C001      		movw r24,r0
 6614 204a 439F      		mul r20,r19
 6615 204c 900D      		add r25,r0
 6616 204e 529F      		mul r21,r18
 6617 2050 900D      		add r25,r0
 6618 2052 1124      		clr r1
 6619               	.LVL409:
 6620 2054 E80F      		add r30,r24
 6621 2056 F91F      		adc r31,r25
 6622 2058 E959      		subi r30,lo8(-(103))
 6623 205a FF4F      		sbci r31,hi8(-(103))
 6624 205c 6081      		ld r22,Z
 6625 205e 7181      		ldd r23,Z+1
 6626               	.LM624:
 6627 2060 8281      		ldd r24,Z+2
 6628 2062 9381      		ldd r25,Z+3
 6629               	.LVL410:
 6630               	/* epilogue start */
 6631 2064 0895      		ret
 6632               	.LFE123:
 6634               	.global	Timebase_DownCounter_Set_PeriodValue
 6636               	Timebase_DownCounter_Set_PeriodValue:
 6637               	.LFB124:
 6638               	.LM625:
 6639               	.LVL411:
 6640               	/* prologue: function */
 6641               	/* frame size = 0 */
 6642 2066 E091 0000 		lds r30,Timebase
 6643 206a F091 0000 		lds r31,(Timebase)+1
 6644 206e 282F      		mov r18,r24
 6645 2070 30E0      		ldi r19,lo8(0)
 6646               	.LVL412:
 6647               	.LM626:
 6648 2072 77FF      		sbrs r23,7
 6649 2074 00C0      		rjmp .L323
 6650               	.LVL413:
 6651               	.LM627:
 6652 2076 8DE0      		ldi r24,lo8(13)
 6653 2078 90E0      		ldi r25,hi8(13)
 6654 207a AC01      		movw r20,r24
 6655               	.LVL414:
 6656 207c 249F      		mul r18,r20
 6657 207e C001      		movw r24,r0
 6658 2080 259F      		mul r18,r21
 6659 2082 900D      		add r25,r0
 6660 2084 349F      		mul r19,r20
 6661 2086 900D      		add r25,r0
 6662 2088 1124      		clr r1
 6663 208a E80F      		add r30,r24
 6664 208c F91F      		adc r31,r25
 6665 208e E959      		subi r30,lo8(-(103))
 6666 2090 FF4F      		sbci r31,hi8(-(103))
 6667 2092 1082      		st Z,__zero_reg__
 6668 2094 1182      		std Z+1,__zero_reg__
 6669 2096 1282      		std Z+2,__zero_reg__
 6670 2098 1382      		std Z+3,__zero_reg__
 6671 209a 0895      		ret
 6672               	.LVL415:
 6673               	.L323:
 6674               	.LM628:
 6675 209c 8DE0      		ldi r24,lo8(13)
 6676 209e 90E0      		ldi r25,hi8(13)
 6677 20a0 DC01      		movw r26,r24
 6678 20a2 2A9F      		mul r18,r26
 6679 20a4 C001      		movw r24,r0
 6680 20a6 2B9F      		mul r18,r27
 6681 20a8 900D      		add r25,r0
 6682 20aa 3A9F      		mul r19,r26
 6683 20ac 900D      		add r25,r0
 6684 20ae 1124      		clr r1
 6685 20b0 E80F      		add r30,r24
 6686 20b2 F91F      		adc r31,r25
 6687 20b4 E959      		subi r30,lo8(-(103))
 6688 20b6 FF4F      		sbci r31,hi8(-(103))
 6689 20b8 4083      		st Z,r20
 6690 20ba 5183      		std Z+1,r21
 6691 20bc 6283      		std Z+2,r22
 6692 20be 7383      		std Z+3,r23
 6693 20c0 0895      		ret
 6694               	.LFE124:
 6696               	.global	Timebase_DownCounter_Get_Period_Flag
 6698               	Timebase_DownCounter_Get_Period_Flag:
 6699               	.LFB125:
 6700               	.LM629:
 6701               	.LVL416:
 6702               	/* prologue: function */
 6703               	/* frame size = 0 */
 6704               	.LM630:
 6705 20c2 E091 0000 		lds r30,Timebase
 6706 20c6 F091 0000 		lds r31,(Timebase)+1
 6707 20ca 90E0      		ldi r25,lo8(0)
 6708               	.LVL417:
 6709 20cc 2DE0      		ldi r18,lo8(13)
 6710 20ce 30E0      		ldi r19,hi8(13)
 6711 20d0 AC01      		movw r20,r24
 6712 20d2 429F      		mul r20,r18
 6713 20d4 C001      		movw r24,r0
 6714 20d6 439F      		mul r20,r19
 6715 20d8 900D      		add r25,r0
 6716 20da 529F      		mul r21,r18
 6717 20dc 900D      		add r25,r0
 6718 20de 1124      		clr r1
 6719               	.LVL418:
 6720 20e0 E80F      		add r30,r24
 6721 20e2 F91F      		adc r31,r25
 6722 20e4 E25A      		subi r30,lo8(-(94))
 6723 20e6 FF4F      		sbci r31,hi8(-(94))
 6724 20e8 8081      		ld r24,Z
 6725               	.LM631:
 6726 20ea 8170      		andi r24,lo8(1)
 6727               	/* epilogue start */
 6728 20ec 0895      		ret
 6729               	.LFE125:
 6731               	.global	Timebase_DownCounter_Set_Period_Flag
 6733               	Timebase_DownCounter_Set_Period_Flag:
 6734               	.LFB126:
 6735               	.LM632:
 6736               	.LVL419:
 6737               	/* prologue: function */
 6738               	/* frame size = 0 */
 6739               	.LM633:
 6740 20ee E091 0000 		lds r30,Timebase
 6741 20f2 F091 0000 		lds r31,(Timebase)+1
 6742 20f6 90E0      		ldi r25,lo8(0)
 6743               	.LVL420:
 6744 20f8 2DE0      		ldi r18,lo8(13)
 6745 20fa 30E0      		ldi r19,hi8(13)
 6746 20fc AC01      		movw r20,r24
 6747 20fe 429F      		mul r20,r18
 6748 2100 C001      		movw r24,r0
 6749 2102 439F      		mul r20,r19
 6750 2104 900D      		add r25,r0
 6751 2106 529F      		mul r21,r18
 6752 2108 900D      		add r25,r0
 6753 210a 1124      		clr r1
 6754               	.LVL421:
 6755 210c E80F      		add r30,r24
 6756 210e F91F      		adc r31,r25
 6757 2110 E25A      		subi r30,lo8(-(94))
 6758 2112 FF4F      		sbci r31,hi8(-(94))
 6759 2114 8081      		ld r24,Z
 6760 2116 8160      		ori r24,lo8(1)
 6761 2118 8083      		st Z,r24
 6762               	/* epilogue start */
 6763               	.LM634:
 6764 211a 0895      		ret
 6765               	.LFE126:
 6767               	.global	Timebase_DownCounter_Clear_Period_Flag
 6769               	Timebase_DownCounter_Clear_Period_Flag:
 6770               	.LFB127:
 6771               	.LM635:
 6772               	.LVL422:
 6773               	/* prologue: function */
 6774               	/* frame size = 0 */
 6775               	.LM636:
 6776 211c E091 0000 		lds r30,Timebase
 6777 2120 F091 0000 		lds r31,(Timebase)+1
 6778 2124 90E0      		ldi r25,lo8(0)
 6779               	.LVL423:
 6780 2126 2DE0      		ldi r18,lo8(13)
 6781 2128 30E0      		ldi r19,hi8(13)
 6782 212a AC01      		movw r20,r24
 6783 212c 429F      		mul r20,r18
 6784 212e C001      		movw r24,r0
 6785 2130 439F      		mul r20,r19
 6786 2132 900D      		add r25,r0
 6787 2134 529F      		mul r21,r18
 6788 2136 900D      		add r25,r0
 6789 2138 1124      		clr r1
 6790               	.LVL424:
 6791 213a E80F      		add r30,r24
 6792 213c F91F      		adc r31,r25
 6793 213e E25A      		subi r30,lo8(-(94))
 6794 2140 FF4F      		sbci r31,hi8(-(94))
 6795 2142 8081      		ld r24,Z
 6796 2144 8E7F      		andi r24,lo8(-2)
 6797 2146 8083      		st Z,r24
 6798               	/* epilogue start */
 6799               	.LM637:
 6800 2148 0895      		ret
 6801               	.LFE127:
 6803               	.global	Timebase_DownCounter_Reset
 6805               	Timebase_DownCounter_Reset:
 6806               	.LFB128:
 6807               	.LM638:
 6808               	.LVL425:
 6809               	/* prologue: function */
 6810               	/* frame size = 0 */
 6811               	.LBB862:
 6812               	.LBB863:
 6813               	.LM639:
 6814 214a E091 0000 		lds r30,Timebase
 6815 214e F091 0000 		lds r31,(Timebase)+1
 6816 2152 90E0      		ldi r25,lo8(0)
 6817 2154 2DE0      		ldi r18,lo8(13)
 6818 2156 30E0      		ldi r19,hi8(13)
 6819 2158 AC01      		movw r20,r24
 6820               	.LVL426:
 6821 215a 429F      		mul r20,r18
 6822 215c C001      		movw r24,r0
 6823 215e 439F      		mul r20,r19
 6824 2160 900D      		add r25,r0
 6825 2162 529F      		mul r21,r18
 6826 2164 900D      		add r25,r0
 6827 2166 1124      		clr r1
 6828 2168 E80F      		add r30,r24
 6829 216a F91F      		adc r31,r25
 6830 216c E15A      		subi r30,lo8(-(95))
 6831 216e FF4F      		sbci r31,hi8(-(95))
 6832 2170 1192      		st Z+,__zero_reg__
 6833 2172 1192      		st Z+,__zero_reg__
 6834 2174 1192      		st Z+,__zero_reg__
 6835 2176 1192      		st Z+,__zero_reg__
 6836               	.LBE863:
 6837               	.LBE862:
 6838               	.LBB864:
 6839               	.LBB865:
 6840               	.LM640:
 6841 2178 1082      		st Z,__zero_reg__
 6842 217a 1182      		std Z+1,__zero_reg__
 6843 217c 1282      		std Z+2,__zero_reg__
 6844 217e 1382      		std Z+3,__zero_reg__
 6845               	.LBE865:
 6846               	.LBE864:
 6847               	.LBB866:
 6848               	.LBB867:
 6849               	.LM641:
 6850 2180 3597      		sbiw r30,5
 6851 2182 8081      		ld r24,Z
 6852               	.LBE867:
 6853               	.LBE866:
 6854               	.LBB868:
 6855               	.LBB869:
 6856               	.LM642:
 6857 2184 807E      		andi r24,lo8(-32)
 6858 2186 8083      		st Z,r24
 6859               	/* epilogue start */
 6860               	.LBE869:
 6861               	.LBE868:
 6862               	.LM643:
 6863 2188 0895      		ret
 6864               	.LFE128:
 6866               	.global	Timebase_DownCounter_Clear_All_Flags
 6868               	Timebase_DownCounter_Clear_All_Flags:
 6869               	.LFB129:
 6870               	.LM644:
 6871               	.LVL427:
 6872               	/* prologue: function */
 6873               	/* frame size = 0 */
 6874               	.LBB870:
 6875               	.LBB871:
 6876               	.LBB872:
 6877               	.LBB873:
 6878               	.LM645:
 6879 218a E091 0000 		lds r30,Timebase
 6880 218e F091 0000 		lds r31,(Timebase)+1
 6881 2192 90E0      		ldi r25,lo8(0)
 6882 2194 2DE0      		ldi r18,lo8(13)
 6883 2196 30E0      		ldi r19,hi8(13)
 6884 2198 AC01      		movw r20,r24
 6885               	.LVL428:
 6886 219a 429F      		mul r20,r18
 6887 219c C001      		movw r24,r0
 6888 219e 439F      		mul r20,r19
 6889 21a0 900D      		add r25,r0
 6890 21a2 529F      		mul r21,r18
 6891 21a4 900D      		add r25,r0
 6892 21a6 1124      		clr r1
 6893 21a8 E80F      		add r30,r24
 6894 21aa F91F      		adc r31,r25
 6895 21ac E15A      		subi r30,lo8(-(95))
 6896 21ae FF4F      		sbci r31,hi8(-(95))
 6897 21b0 1192      		st Z+,__zero_reg__
 6898 21b2 1192      		st Z+,__zero_reg__
 6899 21b4 1192      		st Z+,__zero_reg__
 6900 21b6 1192      		st Z+,__zero_reg__
 6901               	.LBE873:
 6902               	.LBE872:
 6903               	.LBB874:
 6904               	.LBB875:
 6905               	.LM646:
 6906 21b8 1082      		st Z,__zero_reg__
 6907 21ba 1182      		std Z+1,__zero_reg__
 6908 21bc 1282      		std Z+2,__zero_reg__
 6909 21be 1382      		std Z+3,__zero_reg__
 6910               	.LBE875:
 6911               	.LBE874:
 6912               	.LBB876:
 6913               	.LBB877:
 6914               	.LM647:
 6915 21c0 3597      		sbiw r30,5
 6916 21c2 8081      		ld r24,Z
 6917               	.LBE877:
 6918               	.LBE876:
 6919               	.LBB878:
 6920               	.LBB879:
 6921               	.LM648:
 6922 21c4 807E      		andi r24,lo8(-32)
 6923 21c6 8083      		st Z,r24
 6924               	/* epilogue start */
 6925               	.LBE879:
 6926               	.LBE878:
 6927               	.LBE871:
 6928               	.LBE870:
 6929               	.LM649:
 6930 21c8 0895      		ret
 6931               	.LFE129:
 6933               	.global	Timebase_DownCounter_Start
 6935               	Timebase_DownCounter_Start:
 6936               	.LFB130:
 6937               	.LM650:
 6938               	.LVL429:
 6939               	/* prologue: function */
 6940               	/* frame size = 0 */
 6941               	.LBB880:
 6942               	.LBB881:
 6943               	.LM651:
 6944 21ca E091 0000 		lds r30,Timebase
 6945 21ce F091 0000 		lds r31,(Timebase)+1
 6946 21d2 90E0      		ldi r25,lo8(0)
 6947               	.LBE881:
 6948               	.LBE880:
 6949               	.LM652:
 6950 21d4 2DE0      		ldi r18,lo8(13)
 6951 21d6 30E0      		ldi r19,hi8(13)
 6952 21d8 AC01      		movw r20,r24
 6953               	.LVL430:
 6954 21da 429F      		mul r20,r18
 6955 21dc C001      		movw r24,r0
 6956 21de 439F      		mul r20,r19
 6957 21e0 900D      		add r25,r0
 6958 21e2 529F      		mul r21,r18
 6959 21e4 900D      		add r25,r0
 6960 21e6 1124      		clr r1
 6961 21e8 E80F      		add r30,r24
 6962 21ea F91F      		adc r31,r25
 6963 21ec E25A      		subi r30,lo8(-(94))
 6964 21ee FF4F      		sbci r31,hi8(-(94))
 6965 21f0 9081      		ld r25,Z
 6966 21f2 892F      		mov r24,r25
 6967 21f4 8695      		lsr r24
 6968 21f6 8F70      		andi r24,lo8(15)
 6969 21f8 8130      		cpi r24,lo8(1)
 6970 21fa 01F0      		breq .L338
 6971               	.LBB882:
 6972               	.LBB883:
 6973               	.LM653:
 6974 21fc 917E      		andi r25,lo8(-31)
 6975 21fe 9260      		ori r25,lo8(2)
 6976 2200 9083      		st Z,r25
 6977               	.L338:
 6978 2202 0895      		ret
 6979               	.LBE883:
 6980               	.LBE882:
 6981               	.LFE130:
 6983               	.global	Timebase_DownCounter_Stop
 6985               	Timebase_DownCounter_Stop:
 6986               	.LFB131:
 6987               	.LM654:
 6988               	.LVL431:
 6989               	/* prologue: function */
 6990               	/* frame size = 0 */
 6991               	.LBB884:
 6992               	.LBB885:
 6993               	.LM655:
 6994 2204 E091 0000 		lds r30,Timebase
 6995 2208 F091 0000 		lds r31,(Timebase)+1
 6996 220c 90E0      		ldi r25,lo8(0)
 6997               	.LBE885:
 6998               	.LBE884:
 6999               	.LM656:
 7000 220e 2DE0      		ldi r18,lo8(13)
 7001 2210 30E0      		ldi r19,hi8(13)
 7002 2212 AC01      		movw r20,r24
 7003               	.LVL432:
 7004 2214 429F      		mul r20,r18
 7005 2216 C001      		movw r24,r0
 7006 2218 439F      		mul r20,r19
 7007 221a 900D      		add r25,r0
 7008 221c 529F      		mul r21,r18
 7009 221e 900D      		add r25,r0
 7010 2220 1124      		clr r1
 7011 2222 E80F      		add r30,r24
 7012 2224 F91F      		adc r31,r25
 7013 2226 E25A      		subi r30,lo8(-(94))
 7014 2228 FF4F      		sbci r31,hi8(-(94))
 7015 222a 9081      		ld r25,Z
 7016 222c 892F      		mov r24,r25
 7017 222e 8695      		lsr r24
 7018 2230 8F70      		andi r24,lo8(15)
 7019 2232 8230      		cpi r24,lo8(2)
 7020 2234 01F0      		breq .L341
 7021               	.LBB886:
 7022               	.LBB887:
 7023               	.LM657:
 7024 2236 917E      		andi r25,lo8(-31)
 7025 2238 9460      		ori r25,lo8(4)
 7026 223a 9083      		st Z,r25
 7027               	.L341:
 7028 223c 0895      		ret
 7029               	.LBE887:
 7030               	.LBE886:
 7031               	.LFE131:
 7033               	.global	Timebase_DownCounter_Set_Securely
 7035               	Timebase_DownCounter_Set_Securely:
 7036               	.LFB132:
 7037               	.LM658:
 7038               	.LVL433:
 7039 223e CF93      		push r28
 7040 2240 DF93      		push r29
 7041               	/* prologue: function */
 7042               	/* frame size = 0 */
 7043               	.LBB888:
 7044               	.LBB889:
 7045               	.LM659:
 7046 2242 A091 0000 		lds r26,Timebase
 7047 2246 B091 0000 		lds r27,(Timebase)+1
 7048 224a 90E0      		ldi r25,lo8(0)
 7049               	.LBE889:
 7050               	.LBE888:
 7051               	.LM660:
 7052 224c 2DE0      		ldi r18,lo8(13)
 7053 224e 30E0      		ldi r19,hi8(13)
 7054 2250 829F      		mul r24,r18
 7055 2252 F001      		movw r30,r0
 7056 2254 839F      		mul r24,r19
 7057 2256 F00D      		add r31,r0
 7058 2258 929F      		mul r25,r18
 7059 225a F00D      		add r31,r0
 7060 225c 1124      		clr r1
 7061               	.LVL434:
 7062 225e EA0F      		add r30,r26
 7063 2260 FB1F      		adc r31,r27
 7064 2262 EF01      		movw r28,r30
 7065 2264 C25A      		subi r28,lo8(-(94))
 7066 2266 DF4F      		sbci r29,hi8(-(94))
 7067 2268 8881      		ld r24,Y
 7068 226a 8695      		lsr r24
 7069 226c 8F70      		andi r24,lo8(15)
 7070 226e 01F4      		brne .L344
 7071               	.LBB890:
 7072               	.LBB891:
 7073               	.LM661:
 7074 2270 ED59      		subi r30,lo8(-(99))
 7075 2272 FF4F      		sbci r31,hi8(-(99))
 7076 2274 4083      		st Z,r20
 7077 2276 5183      		std Z+1,r21
 7078 2278 6283      		std Z+2,r22
 7079 227a 7383      		std Z+3,r23
 7080               	.LBE891:
 7081               	.LBE890:
 7082               	.LBB892:
 7083               	.LBB893:
 7084               	.LM662:
 7085 227c 1A96      		adiw r26,10
 7086 227e 8D91      		ld r24,X+
 7087 2280 9D91      		ld r25,X+
 7088 2282 0D90      		ld __tmp_reg__,X+
 7089 2284 BC91      		ld r27,X
 7090 2286 A02D      		mov r26,__tmp_reg__
 7091               	.LBE893:
 7092               	.LBE892:
 7093               	.LBB894:
 7094               	.LBB895:
 7095               	.LM663:
 7096 2288 840F      		add r24,r20
 7097 228a 951F      		adc r25,r21
 7098 228c A61F      		adc r26,r22
 7099 228e B71F      		adc r27,r23
 7100 2290 B293      		st -Z,r27
 7101 2292 A293      		st -Z,r26
 7102 2294 9293      		st -Z,r25
 7103 2296 8293      		st -Z,r24
 7104               	.LBE895:
 7105               	.LBE894:
 7106               	.LBB896:
 7107               	.LBB897:
 7108               	.LM664:
 7109 2298 9881      		ld r25,Y
 7110 229a 892F      		mov r24,r25
 7111 229c 8695      		lsr r24
 7112 229e 8F70      		andi r24,lo8(15)
 7113 22a0 8130      		cpi r24,lo8(1)
 7114 22a2 01F0      		breq .L344
 7115               	.LBB898:
 7116               	.LBB899:
 7117               	.LM665:
 7118 22a4 917E      		andi r25,lo8(-31)
 7119 22a6 9260      		ori r25,lo8(2)
 7120 22a8 9883      		st Y,r25
 7121               	.L344:
 7122               	/* epilogue start */
 7123               	.LBE899:
 7124               	.LBE898:
 7125               	.LBE897:
 7126               	.LBE896:
 7127               	.LM666:
 7128 22aa DF91      		pop r29
 7129 22ac CF91      		pop r28
 7130 22ae 0895      		ret
 7131               	.LFE132:
 7133               	.global	Timebase_DownCounter_Set_Forcefully
 7135               	Timebase_DownCounter_Set_Forcefully:
 7136               	.LFB133:
 7137               	.LM667:
 7138               	.LVL435:
 7139 22b0 CF93      		push r28
 7140 22b2 DF93      		push r29
 7141               	/* prologue: function */
 7142               	/* frame size = 0 */
 7143               	.LBB900:
 7144               	.LBB901:
 7145               	.LBB902:
 7146               	.LBB903:
 7147               	.LM668:
 7148 22b4 E091 0000 		lds r30,Timebase
 7149 22b8 F091 0000 		lds r31,(Timebase)+1
 7150 22bc A82F      		mov r26,r24
 7151 22be B0E0      		ldi r27,lo8(0)
 7152 22c0 2DE0      		ldi r18,lo8(13)
 7153 22c2 30E0      		ldi r19,hi8(13)
 7154 22c4 E901      		movw r28,r18
 7155 22c6 AC9F      		mul r26,r28
 7156 22c8 9001      		movw r18,r0
 7157 22ca AD9F      		mul r26,r29
 7158 22cc 300D      		add r19,r0
 7159 22ce BC9F      		mul r27,r28
 7160 22d0 300D      		add r19,r0
 7161 22d2 1124      		clr r1
 7162 22d4 E20F      		add r30,r18
 7163 22d6 F31F      		adc r31,r19
 7164 22d8 E15A      		subi r30,lo8(-(95))
 7165 22da FF4F      		sbci r31,hi8(-(95))
 7166 22dc 1192      		st Z+,__zero_reg__
 7167 22de 1192      		st Z+,__zero_reg__
 7168 22e0 1192      		st Z+,__zero_reg__
 7169 22e2 1192      		st Z+,__zero_reg__
 7170               	.LBE903:
 7171               	.LBE902:
 7172               	.LBB904:
 7173               	.LBB905:
 7174               	.LM669:
 7175 22e4 1082      		st Z,__zero_reg__
 7176 22e6 1182      		std Z+1,__zero_reg__
 7177 22e8 1282      		std Z+2,__zero_reg__
 7178 22ea 1382      		std Z+3,__zero_reg__
 7179               	.LBE905:
 7180               	.LBE904:
 7181               	.LBB906:
 7182               	.LBB907:
 7183               	.LM670:
 7184 22ec 3597      		sbiw r30,5
 7185 22ee 9081      		ld r25,Z
 7186               	.LBE907:
 7187               	.LBE906:
 7188               	.LBB908:
 7189               	.LBB909:
 7190               	.LM671:
 7191 22f0 907E      		andi r25,lo8(-32)
 7192 22f2 9083      		st Z,r25
 7193               	.LBE909:
 7194               	.LBE908:
 7195               	.LBE901:
 7196               	.LBE900:
 7197               	.LM672:
 7198 22f4 0E94 0000 		call Timebase_DownCounter_Set_Securely
 7199               	.LVL436:
 7200               	/* epilogue start */
 7201               	.LM673:
 7202 22f8 DF91      		pop r29
 7203 22fa CF91      		pop r28
 7204 22fc 0895      		ret
 7205               	.LFE133:
 7207               	.global	Timebase_DownCounter_Update
 7209               	Timebase_DownCounter_Update:
 7210               	.LFB134:
 7211               	.LM674:
 7212               	.LVL437:
 7213 22fe 0F93      		push r16
 7214 2300 1F93      		push r17
 7215 2302 CF93      		push r28
 7216 2304 DF93      		push r29
 7217               	/* prologue: function */
 7218               	/* frame size = 0 */
 7219               	.LBB910:
 7220               	.LBB911:
 7221               	.LM675:
 7222 2306 A091 0000 		lds r26,Timebase
 7223 230a B091 0000 		lds r27,(Timebase)+1
 7224 230e 90E0      		ldi r25,lo8(0)
 7225 2310 2DE0      		ldi r18,lo8(13)
 7226 2312 30E0      		ldi r19,hi8(13)
 7227 2314 829F      		mul r24,r18
 7228 2316 F001      		movw r30,r0
 7229 2318 839F      		mul r24,r19
 7230 231a F00D      		add r31,r0
 7231 231c 929F      		mul r25,r18
 7232 231e F00D      		add r31,r0
 7233 2320 1124      		clr r1
 7234               	.LVL438:
 7235 2322 EA0F      		add r30,r26
 7236 2324 FB1F      		adc r31,r27
 7237 2326 8F01      		movw r16,r30
 7238 2328 025A      		subi r16,lo8(-(94))
 7239 232a 1F4F      		sbci r17,hi8(-(94))
 7240 232c E801      		movw r28,r16
 7241 232e 8881      		ld r24,Y
 7242 2330 8695      		lsr r24
 7243 2332 8F70      		andi r24,lo8(15)
 7244               	.LBE911:
 7245               	.LBE910:
 7246               	.LM676:
 7247 2334 8130      		cpi r24,lo8(1)
 7248 2336 01F4      		brne .L348
 7249               	.LBB912:
 7250               	.LBB913:
 7251               	.LM677:
 7252 2338 1A96      		adiw r26,10
 7253 233a 2D91      		ld r18,X+
 7254 233c 3D91      		ld r19,X+
 7255 233e 4D91      		ld r20,X+
 7256 2340 5C91      		ld r21,X
 7257 2342 1D97      		sbiw r26,10+3
 7258               	.LBE913:
 7259               	.LBE912:
 7260               	.LM678:
 7261 2344 BF01      		movw r22,r30
 7262 2346 615A      		subi r22,lo8(-(95))
 7263 2348 7F4F      		sbci r23,hi8(-(95))
 7264 234a EB01      		movw r28,r22
 7265 234c 8881      		ld r24,Y
 7266 234e 9981      		ldd r25,Y+1
 7267 2350 AA81      		ldd r26,Y+2
 7268 2352 BB81      		ldd r27,Y+3
 7269 2354 821B      		sub r24,r18
 7270 2356 930B      		sbc r25,r19
 7271 2358 A40B      		sbc r26,r20
 7272 235a B50B      		sbc r27,r21
 7273               	.LBB914:
 7274               	.LBB915:
 7275               	.LM679:
 7276 235c ED59      		subi r30,lo8(-(99))
 7277 235e FF4F      		sbci r31,hi8(-(99))
 7278 2360 8083      		st Z,r24
 7279 2362 9183      		std Z+1,r25
 7280 2364 A283      		std Z+2,r26
 7281 2366 B383      		std Z+3,r27
 7282               	.LBE915:
 7283               	.LBE914:
 7284               	.LM680:
 7285 2368 1816      		cp __zero_reg__,r24
 7286 236a 1906      		cpc __zero_reg__,r25
 7287 236c 1A06      		cpc __zero_reg__,r26
 7288 236e 1B06      		cpc __zero_reg__,r27
 7289 2370 04F0      		brlt .L350
 7290               	.LBB916:
 7291               	.LBB917:
 7292               	.LBB918:
 7293               	.LBB919:
 7294               	.LM681:
 7295 2372 DB01      		movw r26,r22
 7296 2374 1D92      		st X+,__zero_reg__
 7297 2376 1D92      		st X+,__zero_reg__
 7298 2378 1D92      		st X+,__zero_reg__
 7299 237a 1C92      		st X,__zero_reg__
 7300 237c 1397      		sbiw r26,3
 7301               	.LBE919:
 7302               	.LBE918:
 7303               	.LBB920:
 7304               	.LBB921:
 7305               	.LM682:
 7306 237e 1082      		st Z,__zero_reg__
 7307 2380 1182      		std Z+1,__zero_reg__
 7308 2382 1282      		std Z+2,__zero_reg__
 7309 2384 1382      		std Z+3,__zero_reg__
 7310               	.LBE921:
 7311               	.LBE920:
 7312               	.LBB922:
 7313               	.LBB923:
 7314               	.LM683:
 7315 2386 E801      		movw r28,r16
 7316 2388 8881      		ld r24,Y
 7317               	.LBE923:
 7318               	.LBE922:
 7319               	.LBE917:
 7320               	.LBE916:
 7321               	.LBB924:
 7322               	.LBB925:
 7323               	.LM684:
 7324 238a 807E      		andi r24,lo8(-32)
 7325 238c 8860      		ori r24,lo8(8)
 7326 238e 8883      		st Y,r24
 7327 2390 00C0      		rjmp .L350
 7328               	.L348:
 7329               	.LBE925:
 7330               	.LBE924:
 7331               	.LM685:
 7332 2392 8230      		cpi r24,lo8(2)
 7333 2394 01F4      		brne .L350
 7334               	.LBB926:
 7335               	.LBB927:
 7336               	.LM686:
 7337 2396 1A96      		adiw r26,10
 7338 2398 8D91      		ld r24,X+
 7339 239a 9D91      		ld r25,X+
 7340 239c 0D90      		ld __tmp_reg__,X+
 7341 239e BC91      		ld r27,X
 7342 23a0 A02D      		mov r26,__tmp_reg__
 7343               	.LBE927:
 7344               	.LBE926:
 7345               	.LBB928:
 7346               	.LBB929:
 7347               	.LM687:
 7348 23a2 ED59      		subi r30,lo8(-(99))
 7349 23a4 FF4F      		sbci r31,hi8(-(99))
 7350 23a6 2081      		ld r18,Z
 7351 23a8 3181      		ldd r19,Z+1
 7352 23aa 4281      		ldd r20,Z+2
 7353 23ac 5381      		ldd r21,Z+3
 7354 23ae 820F      		add r24,r18
 7355 23b0 931F      		adc r25,r19
 7356 23b2 A41F      		adc r26,r20
 7357 23b4 B51F      		adc r27,r21
 7358 23b6 B293      		st -Z,r27
 7359 23b8 A293      		st -Z,r26
 7360 23ba 9293      		st -Z,r25
 7361 23bc 8293      		st -Z,r24
 7362               	.L350:
 7363               	/* epilogue start */
 7364               	.LBE929:
 7365               	.LBE928:
 7366               	.LM688:
 7367 23be DF91      		pop r29
 7368 23c0 CF91      		pop r28
 7369 23c2 1F91      		pop r17
 7370 23c4 0F91      		pop r16
 7371 23c6 0895      		ret
 7372               	.LFE134:
 7374               	.global	Timebase_DownCounter_Expired
 7376               	Timebase_DownCounter_Expired:
 7377               	.LFB135:
 7378               	.LM689:
 7379               	.LVL439:
 7380               	/* prologue: function */
 7381               	/* frame size = 0 */
 7382               	.LM690:
 7383 23c8 40E0      		ldi r20,lo8(0)
 7384 23ca E091 0000 		lds r30,Timebase
 7385 23ce F091 0000 		lds r31,(Timebase)+1
 7386 23d2 90E0      		ldi r25,lo8(0)
 7387               	.LVL440:
 7388 23d4 2DE0      		ldi r18,lo8(13)
 7389 23d6 30E0      		ldi r19,hi8(13)
 7390 23d8 BC01      		movw r22,r24
 7391 23da 629F      		mul r22,r18
 7392 23dc C001      		movw r24,r0
 7393 23de 639F      		mul r22,r19
 7394 23e0 900D      		add r25,r0
 7395 23e2 729F      		mul r23,r18
 7396 23e4 900D      		add r25,r0
 7397 23e6 1124      		clr r1
 7398               	.LVL441:
 7399 23e8 E80F      		add r30,r24
 7400 23ea F91F      		adc r31,r25
 7401 23ec E25A      		subi r30,lo8(-(94))
 7402 23ee FF4F      		sbci r31,hi8(-(94))
 7403 23f0 8081      		ld r24,Z
 7404 23f2 8695      		lsr r24
 7405 23f4 8F70      		andi r24,lo8(15)
 7406 23f6 8430      		cpi r24,lo8(4)
 7407 23f8 01F4      		brne .L352
 7408 23fa 41E0      		ldi r20,lo8(1)
 7409               	.L352:
 7410               	.LM691:
 7411 23fc 842F      		mov r24,r20
 7412               	/* epilogue start */
 7413 23fe 0895      		ret
 7414               	.LFE135:
 7416               	.global	Timebase_DownCounter_Expired_Event
 7418               	Timebase_DownCounter_Expired_Event:
 7419               	.LFB136:
 7420               	.LM692:
 7421               	.LVL442:
 7422               	/* prologue: function */
 7423               	/* frame size = 0 */
 7424               	.LBB930:
 7425               	.LBB931:
 7426               	.LM693:
 7427 2400 E091 0000 		lds r30,Timebase
 7428 2404 F091 0000 		lds r31,(Timebase)+1
 7429 2408 90E0      		ldi r25,lo8(0)
 7430               	.LBE931:
 7431               	.LBE930:
 7432               	.LM694:
 7433 240a 2DE0      		ldi r18,lo8(13)
 7434 240c 30E0      		ldi r19,hi8(13)
 7435 240e AC01      		movw r20,r24
 7436               	.LVL443:
 7437 2410 429F      		mul r20,r18
 7438 2412 C001      		movw r24,r0
 7439 2414 439F      		mul r20,r19
 7440 2416 900D      		add r25,r0
 7441 2418 529F      		mul r21,r18
 7442 241a 900D      		add r25,r0
 7443 241c 1124      		clr r1
 7444 241e E80F      		add r30,r24
 7445 2420 F91F      		adc r31,r25
 7446 2422 DF01      		movw r26,r30
 7447 2424 A25A      		subi r26,lo8(-(94))
 7448 2426 BF4F      		sbci r27,hi8(-(94))
 7449 2428 8C91      		ld r24,X
 7450 242a 8695      		lsr r24
 7451 242c 8F70      		andi r24,lo8(15)
 7452 242e 8430      		cpi r24,lo8(4)
 7453 2430 01F0      		breq .L355
 7454 2432 80E0      		ldi r24,lo8(0)
 7455 2434 0895      		ret
 7456               	.L355:
 7457               	.LBB932:
 7458               	.LBB933:
 7459               	.LBB934:
 7460               	.LBB935:
 7461               	.LBB936:
 7462               	.LBB937:
 7463               	.LM695:
 7464 2436 E15A      		subi r30,lo8(-(95))
 7465 2438 FF4F      		sbci r31,hi8(-(95))
 7466 243a 1192      		st Z+,__zero_reg__
 7467 243c 1192      		st Z+,__zero_reg__
 7468 243e 1192      		st Z+,__zero_reg__
 7469 2440 1192      		st Z+,__zero_reg__
 7470               	.LBE937:
 7471               	.LBE936:
 7472               	.LBB938:
 7473               	.LBB939:
 7474               	.LM696:
 7475 2442 1082      		st Z,__zero_reg__
 7476 2444 1182      		std Z+1,__zero_reg__
 7477 2446 1282      		std Z+2,__zero_reg__
 7478 2448 1382      		std Z+3,__zero_reg__
 7479               	.LBE939:
 7480               	.LBE938:
 7481               	.LBB940:
 7482               	.LBB941:
 7483               	.LM697:
 7484 244a 8C91      		ld r24,X
 7485               	.LBE941:
 7486               	.LBE940:
 7487               	.LBB942:
 7488               	.LBB943:
 7489               	.LM698:
 7490 244c 807E      		andi r24,lo8(-32)
 7491 244e 8C93      		st X,r24
 7492 2450 81E0      		ldi r24,lo8(1)
 7493               	.LBE943:
 7494               	.LBE942:
 7495               	.LBE935:
 7496               	.LBE934:
 7497               	.LBE933:
 7498               	.LBE932:
 7499               	.LM699:
 7500 2452 0895      		ret
 7501               	.LFE136:
 7503               	.global	Timebase_DownCounter_Set_Period_Value_Securely
 7505               	Timebase_DownCounter_Set_Period_Value_Securely:
 7506               	.LFB137:
 7507               	.LM700:
 7508               	.LVL444:
 7509 2454 CF93      		push r28
 7510 2456 DF93      		push r29
 7511               	/* prologue: function */
 7512               	/* frame size = 0 */
 7513               	.LBB944:
 7514               	.LBB945:
 7515               	.LM701:
 7516 2458 C091 0000 		lds r28,Timebase
 7517 245c D091 0000 		lds r29,(Timebase)+1
 7518 2460 282F      		mov r18,r24
 7519 2462 30E0      		ldi r19,lo8(0)
 7520               	.LBE945:
 7521               	.LBE944:
 7522               	.LM702:
 7523 2464 8DE0      		ldi r24,lo8(13)
 7524 2466 90E0      		ldi r25,hi8(13)
 7525               	.LVL445:
 7526 2468 289F      		mul r18,r24
 7527 246a F001      		movw r30,r0
 7528 246c 299F      		mul r18,r25
 7529 246e F00D      		add r31,r0
 7530 2470 389F      		mul r19,r24
 7531 2472 F00D      		add r31,r0
 7532 2474 1124      		clr r1
 7533 2476 EC0F      		add r30,r28
 7534 2478 FD1F      		adc r31,r29
 7535 247a E25A      		subi r30,lo8(-(94))
 7536 247c FF4F      		sbci r31,hi8(-(94))
 7537 247e 8081      		ld r24,Z
 7538 2480 EE55      		subi r30,lo8(-(-94))
 7539 2482 F040      		sbci r31,hi8(-(-94))
 7540 2484 80FD      		sbrc r24,0
 7541 2486 00C0      		rjmp .L362
 7542               	.LM703:
 7543 2488 ED59      		subi r30,lo8(-(99))
 7544 248a FF4F      		sbci r31,hi8(-(99))
 7545 248c 8191      		ld r24,Z+
 7546 248e 9191      		ld r25,Z+
 7547 2490 A191      		ld r26,Z+
 7548 2492 B191      		ld r27,Z+
 7549 2494 841B      		sub r24,r20
 7550 2496 950B      		sbc r25,r21
 7551 2498 A60B      		sbc r26,r22
 7552 249a B70B      		sbc r27,r23
 7553               	.LBB946:
 7554               	.LBB947:
 7555               	.LM704:
 7556 249c B7FF      		sbrs r27,7
 7557 249e 00C0      		rjmp .L360
 7558               	.LM705:
 7559 24a0 1082      		st Z,__zero_reg__
 7560 24a2 1182      		std Z+1,__zero_reg__
 7561 24a4 1282      		std Z+2,__zero_reg__
 7562 24a6 1382      		std Z+3,__zero_reg__
 7563 24a8 00C0      		rjmp .L361
 7564               	.L360:
 7565               	.LM706:
 7566 24aa 8083      		st Z,r24
 7567 24ac 9183      		std Z+1,r25
 7568 24ae A283      		std Z+2,r26
 7569 24b0 B383      		std Z+3,r27
 7570               	.L361:
 7571               	.LBE947:
 7572               	.LBE946:
 7573               	.LBB948:
 7574               	.LBB949:
 7575               	.LM707:
 7576 24b2 8DE0      		ldi r24,lo8(13)
 7577 24b4 90E0      		ldi r25,hi8(13)
 7578 24b6 289F      		mul r18,r24
 7579 24b8 F001      		movw r30,r0
 7580 24ba 299F      		mul r18,r25
 7581 24bc F00D      		add r31,r0
 7582 24be 389F      		mul r19,r24
 7583 24c0 F00D      		add r31,r0
 7584 24c2 1124      		clr r1
 7585 24c4 EC0F      		add r30,r28
 7586 24c6 FD1F      		adc r31,r29
 7587 24c8 E25A      		subi r30,lo8(-(94))
 7588 24ca FF4F      		sbci r31,hi8(-(94))
 7589 24cc 8081      		ld r24,Z
 7590 24ce 8160      		ori r24,lo8(1)
 7591 24d0 8083      		st Z,r24
 7592               	.L362:
 7593               	/* epilogue start */
 7594               	.LBE949:
 7595               	.LBE948:
 7596               	.LM708:
 7597 24d2 DF91      		pop r29
 7598 24d4 CF91      		pop r28
 7599 24d6 0895      		ret
 7600               	.LFE137:
 7602               	.global	Timebase_DownCounter_Get_Remaining_Period_Value
 7604               	Timebase_DownCounter_Get_Remaining_Period_Value:
 7605               	.LFB138:
 7606               	.LM709:
 7607               	.LVL446:
 7608               	/* prologue: function */
 7609               	/* frame size = 0 */
 7610               	.LBB950:
 7611               	.LBB951:
 7612               	.LM710:
 7613 24d8 E091 0000 		lds r30,Timebase
 7614 24dc F091 0000 		lds r31,(Timebase)+1
 7615 24e0 90E0      		ldi r25,lo8(0)
 7616               	.LBE951:
 7617               	.LBE950:
 7618               	.LM711:
 7619 24e2 2DE0      		ldi r18,lo8(13)
 7620 24e4 30E0      		ldi r19,hi8(13)
 7621 24e6 AC01      		movw r20,r24
 7622               	.LVL447:
 7623 24e8 429F      		mul r20,r18
 7624 24ea C001      		movw r24,r0
 7625 24ec 439F      		mul r20,r19
 7626 24ee 900D      		add r25,r0
 7627 24f0 529F      		mul r21,r18
 7628 24f2 900D      		add r25,r0
 7629 24f4 1124      		clr r1
 7630 24f6 E80F      		add r30,r24
 7631 24f8 F91F      		adc r31,r25
 7632 24fa DF01      		movw r26,r30
 7633 24fc A959      		subi r26,lo8(-(103))
 7634 24fe BF4F      		sbci r27,hi8(-(103))
 7635 2500 ED59      		subi r30,lo8(-(99))
 7636 2502 FF4F      		sbci r31,hi8(-(99))
 7637 2504 2081      		ld r18,Z
 7638 2506 3181      		ldd r19,Z+1
 7639 2508 4281      		ldd r20,Z+2
 7640 250a 5381      		ldd r21,Z+3
 7641               	.LVL448:
 7642 250c 8D91      		ld r24,X+
 7643 250e 9D91      		ld r25,X+
 7644 2510 0D90      		ld __tmp_reg__,X+
 7645 2512 BC91      		ld r27,X
 7646 2514 A02D      		mov r26,__tmp_reg__
 7647 2516 281B      		sub r18,r24
 7648 2518 390B      		sbc r19,r25
 7649 251a 4A0B      		sbc r20,r26
 7650 251c 5B0B      		sbc r21,r27
 7651 251e 57FF      		sbrs r21,7
 7652 2520 00C0      		rjmp .L364
 7653 2522 20E0      		ldi r18,lo8(0)
 7654 2524 30E0      		ldi r19,hi8(0)
 7655 2526 40E0      		ldi r20,hlo8(0)
 7656 2528 50E0      		ldi r21,hhi8(0)
 7657               	.L364:
 7658               	.LM712:
 7659 252a B901      		movw r22,r18
 7660               	.LVL449:
 7661 252c CA01      		movw r24,r20
 7662               	/* epilogue start */
 7663 252e 0895      		ret
 7664               	.LFE138:
 7666               	.global	Timebase_DownCounter_Period_Value_Expired
 7668               	Timebase_DownCounter_Period_Value_Expired:
 7669               	.LFB139:
 7670               	.LM713:
 7671               	.LVL450:
 7672 2530 CF93      		push r28
 7673 2532 DF93      		push r29
 7674               	/* prologue: function */
 7675               	/* frame size = 0 */
 7676               	.LBB952:
 7677               	.LBB953:
 7678               	.LBB954:
 7679               	.LBB955:
 7680               	.LM714:
 7681 2534 C091 0000 		lds r28,Timebase
 7682 2538 D091 0000 		lds r29,(Timebase)+1
 7683 253c 682F      		mov r22,r24
 7684 253e 70E0      		ldi r23,lo8(0)
 7685               	.LBE955:
 7686               	.LBE954:
 7687               	.LM715:
 7688 2540 8DE0      		ldi r24,lo8(13)
 7689 2542 90E0      		ldi r25,hi8(13)
 7690               	.LVL451:
 7691 2544 689F      		mul r22,r24
 7692 2546 F001      		movw r30,r0
 7693 2548 699F      		mul r22,r25
 7694 254a F00D      		add r31,r0
 7695 254c 789F      		mul r23,r24
 7696 254e F00D      		add r31,r0
 7697 2550 1124      		clr r1
 7698 2552 EC0F      		add r30,r28
 7699 2554 FD1F      		adc r31,r29
 7700 2556 DF01      		movw r26,r30
 7701 2558 A959      		subi r26,lo8(-(103))
 7702 255a BF4F      		sbci r27,hi8(-(103))
 7703 255c ED59      		subi r30,lo8(-(99))
 7704 255e FF4F      		sbci r31,hi8(-(99))
 7705 2560 2081      		ld r18,Z
 7706 2562 3181      		ldd r19,Z+1
 7707 2564 4281      		ldd r20,Z+2
 7708 2566 5381      		ldd r21,Z+3
 7709               	.LVL452:
 7710 2568 8D91      		ld r24,X+
 7711 256a 9D91      		ld r25,X+
 7712 256c 0D90      		ld __tmp_reg__,X+
 7713 256e BC91      		ld r27,X
 7714 2570 A02D      		mov r26,__tmp_reg__
 7715 2572 281B      		sub r18,r24
 7716 2574 390B      		sbc r19,r25
 7717 2576 4A0B      		sbc r20,r26
 7718 2578 5B0B      		sbc r21,r27
 7719               	.LM716:
 7720 257a 57FD      		sbrc r21,7
 7721 257c 00C0      		rjmp .L367
 7722               	.LBE953:
 7723               	.LBE952:
 7724               	.LM717:
 7725 257e 2115      		cp r18,__zero_reg__
 7726 2580 3105      		cpc r19,__zero_reg__
 7727 2582 4105      		cpc r20,__zero_reg__
 7728 2584 5105      		cpc r21,__zero_reg__
 7729 2586 01F0      		breq .L367
 7730 2588 20E0      		ldi r18,lo8(0)
 7731               	.LVL453:
 7732 258a 00C0      		rjmp .L368
 7733               	.LVL454:
 7734               	.L367:
 7735 258c 20E0      		ldi r18,lo8(0)
 7736               	.LVL455:
 7737 258e 8DE0      		ldi r24,lo8(13)
 7738 2590 90E0      		ldi r25,hi8(13)
 7739 2592 AC01      		movw r20,r24
 7740 2594 649F      		mul r22,r20
 7741 2596 C001      		movw r24,r0
 7742 2598 659F      		mul r22,r21
 7743 259a 900D      		add r25,r0
 7744 259c 749F      		mul r23,r20
 7745 259e 900D      		add r25,r0
 7746 25a0 1124      		clr r1
 7747 25a2 C80F      		add r28,r24
 7748 25a4 D91F      		adc r29,r25
 7749 25a6 C25A      		subi r28,lo8(-(94))
 7750 25a8 DF4F      		sbci r29,hi8(-(94))
 7751 25aa 8881      		ld r24,Y
 7752 25ac 80FF      		sbrs r24,0
 7753 25ae 21E0      		ldi r18,lo8(1)
 7754               	.L369:
 7755 25b0 81E0      		ldi r24,lo8(1)
 7756 25b2 2827      		eor r18,r24
 7757               	.L368:
 7758               	.LM718:
 7759 25b4 822F      		mov r24,r18
 7760               	/* epilogue start */
 7761 25b6 DF91      		pop r29
 7762 25b8 CF91      		pop r28
 7763 25ba 0895      		ret
 7764               	.LFE139:
 7766               	.global	Timebase_DownCounter_Period_Value_Expired_Event
 7768               	Timebase_DownCounter_Period_Value_Expired_Event:
 7769               	.LFB140:
 7770               	.LM719:
 7771               	.LVL456:
 7772 25bc 1F93      		push r17
 7773               	/* prologue: function */
 7774               	/* frame size = 0 */
 7775 25be 182F      		mov r17,r24
 7776               	.LM720:
 7777 25c0 0E94 0000 		call Timebase_DownCounter_Period_Value_Expired
 7778               	.LVL457:
 7779 25c4 8130      		cpi r24,lo8(1)
 7780 25c6 01F0      		breq .L372
 7781 25c8 80E0      		ldi r24,lo8(0)
 7782 25ca 00C0      		rjmp .L373
 7783               	.L372:
 7784               	.LBB956:
 7785               	.LBB957:
 7786               	.LM721:
 7787 25cc E091 0000 		lds r30,Timebase
 7788 25d0 F091 0000 		lds r31,(Timebase)+1
 7789 25d4 212F      		mov r18,r17
 7790 25d6 30E0      		ldi r19,lo8(0)
 7791               	.LVL458:
 7792 25d8 8DE0      		ldi r24,lo8(13)
 7793 25da 90E0      		ldi r25,hi8(13)
 7794 25dc AC01      		movw r20,r24
 7795 25de 249F      		mul r18,r20
 7796 25e0 C001      		movw r24,r0
 7797 25e2 259F      		mul r18,r21
 7798 25e4 900D      		add r25,r0
 7799 25e6 349F      		mul r19,r20
 7800 25e8 900D      		add r25,r0
 7801 25ea 1124      		clr r1
 7802 25ec E80F      		add r30,r24
 7803 25ee F91F      		adc r31,r25
 7804 25f0 E25A      		subi r30,lo8(-(94))
 7805 25f2 FF4F      		sbci r31,hi8(-(94))
 7806 25f4 8081      		ld r24,Z
 7807 25f6 8E7F      		andi r24,lo8(-2)
 7808 25f8 8083      		st Z,r24
 7809 25fa 81E0      		ldi r24,lo8(1)
 7810               	.L373:
 7811               	/* epilogue start */
 7812               	.LBE957:
 7813               	.LBE956:
 7814               	.LM722:
 7815 25fc 1F91      		pop r17
 7816               	.LVL459:
 7817 25fe 0895      		ret
 7818               	.LFE140:
 7820               	.global	Timebase_DownCounter_Update_All
 7822               	Timebase_DownCounter_Update_All:
 7823               	.LFB141:
 7824               	.LM723:
 7825               	/* prologue: function */
 7826               	/* frame size = 0 */
 7827               	.LBB958:
 7828               	.LM724:
 7829 2600 80E0      		ldi r24,lo8(0)
 7830 2602 0E94 0000 		call Timebase_DownCounter_Update
 7831               	/* epilogue start */
 7832               	.LBE958:
 7833               	.LM725:
 7834 2606 0895      		ret
 7835               	.LFE141:
 7837               	.global	Timebase_DownCounter_Reset_All
 7839               	Timebase_DownCounter_Reset_All:
 7840               	.LFB142:
 7841               	.LM726:
 7842               	/* prologue: function */
 7843               	/* frame size = 0 */
 7844               	.LBB959:
 7845               	.LBB960:
 7846               	.LBB961:
 7847               	.LBB962:
 7848               	.LBB963:
 7849               	.LM727:
 7850 2608 E091 0000 		lds r30,Timebase
 7851 260c F091 0000 		lds r31,(Timebase)+1
 7852 2610 E15A      		subi r30,lo8(-(95))
 7853 2612 FF4F      		sbci r31,hi8(-(95))
 7854 2614 1192      		st Z+,__zero_reg__
 7855 2616 1192      		st Z+,__zero_reg__
 7856 2618 1192      		st Z+,__zero_reg__
 7857 261a 1192      		st Z+,__zero_reg__
 7858               	.LBE963:
 7859               	.LBE962:
 7860               	.LBB964:
 7861               	.LBB965:
 7862               	.LM728:
 7863 261c 1082      		st Z,__zero_reg__
 7864 261e 1182      		std Z+1,__zero_reg__
 7865 2620 1282      		std Z+2,__zero_reg__
 7866 2622 1382      		std Z+3,__zero_reg__
 7867               	.LBE965:
 7868               	.LBE964:
 7869               	.LBB966:
 7870               	.LBB967:
 7871               	.LM729:
 7872 2624 3597      		sbiw r30,5
 7873 2626 8081      		ld r24,Z
 7874               	.LBE967:
 7875               	.LBE966:
 7876               	.LBB968:
 7877               	.LBB969:
 7878               	.LM730:
 7879 2628 807E      		andi r24,lo8(-32)
 7880 262a 8083      		st Z,r24
 7881               	/* epilogue start */
 7882               	.LBE969:
 7883               	.LBE968:
 7884               	.LBE961:
 7885               	.LBE960:
 7886               	.LBE959:
 7887               	.LM731:
 7888 262c 0895      		ret
 7889               	.LFE142:
 7891               	.global	Timebase_Reset
 7893               	Timebase_Reset:
 7894               	.LFB143:
 7895               	.LM732:
 7896               	/* prologue: function */
 7897               	/* frame size = 0 */
 7898               	.LM733:
 7899 262e 0E94 0000 		call Timebase_UpCounter_Reset_All
 7900               	.LM734:
 7901 2632 0E94 0000 		call Timebase_DownCounter_SS_Reset_All
 7902               	.LM735:
 7903 2636 0E94 0000 		call Timebase_DownCounter_Reset_All
 7904               	/* epilogue start */
 7905               	.LM736:
 7906 263a 0895      		ret
 7907               	.LFE143:
 7909               	.global	Timebase_Init
 7911               	Timebase_Init:
 7912               	.LFB144:
 7913               	.LM737:
 7914               	.LVL460:
 7915 263c 0F93      		push r16
 7916 263e 1F93      		push r17
 7917               	/* prologue: function */
 7918               	/* frame size = 0 */
 7919 2640 8C01      		movw r16,r24
 7920               	.LM738:
 7921 2642 0E94 0000 		call Timebase_Struct_Init
 7922               	.LVL461:
 7923               	.LM739:
 7924 2646 C801      		movw r24,r16
 7925 2648 0E94 0000 		call Timebase_Timer_Config
 7926               	.LM740:
 7927 264c 0E94 0000 		call Timebase_Reset
 7928               	/* epilogue start */
 7929               	.LM741:
 7930 2650 1F91      		pop r17
 7931 2652 0F91      		pop r16
 7932               	.LVL462:
 7933 2654 0895      		ret
 7934               	.LFE144:
 7936               	.global	Timebase_Main_Loop_Executables
 7938               	Timebase_Main_Loop_Executables:
 7939               	.LFB145:
 7940               	.LM742:
 7941               	/* prologue: function */
 7942               	/* frame size = 0 */
 7943               	.LBB970:
 7944               	.LBB971:
 7945               	.LM743:
 7946               	/* #APP */
 7947               	 ;  344 "timebase.c" 1
 7948 2656 F894      		cli
 7949               	 ;  0 "" 2
 7950               	/* #NOAPP */
 7951               	.LBE971:
 7952               	.LBE970:
 7953               	.LM744:
 7954 2658 E091 0000 		lds r30,Timebase
 7955 265c F091 0000 		lds r31,(Timebase)+1
 7956 2660 8685      		ldd r24,Z+14
 7957 2662 9785      		ldd r25,Z+15
 7958 2664 9187      		std Z+9,r25
 7959 2666 8087      		std Z+8,r24
 7960               	.LM745:
 7961 2668 8089      		ldd r24,Z+16
 7962 266a 9189      		ldd r25,Z+17
 7963 266c A289      		ldd r26,Z+18
 7964 266e B389      		ldd r27,Z+19
 7965 2670 8287      		std Z+10,r24
 7966 2672 9387      		std Z+11,r25
 7967 2674 A487      		std Z+12,r26
 7968 2676 B587      		std Z+13,r27
 7969               	.LBB972:
 7970               	.LBB973:
 7971               	.LM746:
 7972               	/* #APP */
 7973               	 ;  348 "timebase.c" 1
 7974 2678 7894      		sei
 7975               	 ;  0 "" 2
 7976               	/* #NOAPP */
 7977               	.LBE973:
 7978               	.LBE972:
 7979               	.LM747:
 7980 267a 858D      		ldd r24,Z+29
 7981 267c 82FF      		sbrs r24,2
 7982 267e 00C0      		rjmp .L384
 7983               	.LM748:
 7984 2680 858D      		ldd r24,Z+29
 7985 2682 8B7F      		andi r24,lo8(-5)
 7986 2684 858F      		std Z+29,r24
 7987               	.L384:
 7988               	.LM749:
 7989 2686 858D      		ldd r24,Z+29
 7990 2688 80FF      		sbrs r24,0
 7991 268a 00C0      		rjmp .L385
 7992               	.LM750:
 7993 268c 0E94 0000 		call Timebase_UpCounter_Update_All
 7994               	.LM751:
 7995 2690 E091 0000 		lds r30,Timebase
 7996 2694 F091 0000 		lds r31,(Timebase)+1
 7997 2698 858D      		ldd r24,Z+29
 7998 269a 8E7F      		andi r24,lo8(-2)
 7999 269c 858F      		std Z+29,r24
 8000               	.L385:
 8001               	.LM752:
 8002 269e E091 0000 		lds r30,Timebase
 8003 26a2 F091 0000 		lds r31,(Timebase)+1
 8004 26a6 858D      		ldd r24,Z+29
 8005 26a8 83FF      		sbrs r24,3
 8006 26aa 00C0      		rjmp .L386
 8007               	.LM753:
 8008 26ac 0E94 0000 		call Timebase_DownCounter_SS_Update_All
 8009               	.LM754:
 8010 26b0 E091 0000 		lds r30,Timebase
 8011 26b4 F091 0000 		lds r31,(Timebase)+1
 8012 26b8 858D      		ldd r24,Z+29
 8013 26ba 877F      		andi r24,lo8(-9)
 8014 26bc 858F      		std Z+29,r24
 8015               	.L386:
 8016               	.LM755:
 8017 26be E091 0000 		lds r30,Timebase
 8018 26c2 F091 0000 		lds r31,(Timebase)+1
 8019 26c6 858D      		ldd r24,Z+29
 8020 26c8 81FF      		sbrs r24,1
 8021 26ca 00C0      		rjmp .L388
 8022               	.LM756:
 8023 26cc 0E94 0000 		call Timebase_DownCounter_Update_All
 8024               	.LM757:
 8025 26d0 E091 0000 		lds r30,Timebase
 8026 26d4 F091 0000 		lds r31,(Timebase)+1
 8027 26d8 858D      		ldd r24,Z+29
 8028 26da 8D7F      		andi r24,lo8(-3)
 8029 26dc 858F      		std Z+29,r24
 8030               	.L388:
 8031 26de 0895      		ret
 8032               	.LFE145:
 8034               	.global	Timebase_ISR_Executables
 8036               	Timebase_ISR_Executables:
 8037               	.LFB146:
 8038               	.LM758:
 8039               	/* prologue: function */
 8040               	/* frame size = 0 */
 8041               	.LM759:
 8042 26e0 E091 0000 		lds r30,Timebase
 8043 26e4 F091 0000 		lds r31,(Timebase)+1
 8044 26e8 8685      		ldd r24,Z+14
 8045 26ea 9785      		ldd r25,Z+15
 8046 26ec 0196      		adiw r24,1
 8047 26ee 9787      		std Z+15,r25
 8048 26f0 8687      		std Z+14,r24
 8049               	.LM760:
 8050 26f2 858D      		ldd r24,Z+29
 8051 26f4 8460      		ori r24,lo8(4)
 8052 26f6 858F      		std Z+29,r24
 8053               	.LM761:
 8054 26f8 858D      		ldd r24,Z+29
 8055 26fa 8860      		ori r24,lo8(8)
 8056 26fc 858F      		std Z+29,r24
 8057               	.LM762:
 8058 26fe 8685      		ldd r24,Z+14
 8059 2700 9785      		ldd r25,Z+15
 8060 2702 6181      		ldd r22,Z+1
 8061 2704 7281      		ldd r23,Z+2
 8062 2706 0E94 0000 		call __udivmodhi4
 8063 270a 892B      		or r24,r25
 8064 270c 01F4      		brne .L391
 8065               	.LM763:
 8066 270e 8089      		ldd r24,Z+16
 8067 2710 9189      		ldd r25,Z+17
 8068 2712 A289      		ldd r26,Z+18
 8069 2714 B389      		ldd r27,Z+19
 8070 2716 0196      		adiw r24,1
 8071 2718 A11D      		adc r26,__zero_reg__
 8072 271a B11D      		adc r27,__zero_reg__
 8073 271c 808B      		std Z+16,r24
 8074 271e 918B      		std Z+17,r25
 8075 2720 A28B      		std Z+18,r26
 8076 2722 B38B      		std Z+19,r27
 8077               	.LM764:
 8078 2724 1786      		std Z+15,__zero_reg__
 8079 2726 1686      		std Z+14,__zero_reg__
 8080               	.LM765:
 8081 2728 858D      		ldd r24,Z+29
 8082 272a 8160      		ori r24,lo8(1)
 8083 272c 858F      		std Z+29,r24
 8084               	.LM766:
 8085 272e 858D      		ldd r24,Z+29
 8086 2730 8260      		ori r24,lo8(2)
 8087 2732 858F      		std Z+29,r24
 8088               	.L391:
 8089 2734 0895      		ret
 8090               	.LFE146:
 8092               	.global	__vector_16
 8094               	__vector_16:
 8095               	.LFB147:
 8096               	.LM767:
 8097 2736 1F92      		push __zero_reg__
 8098 2738 0F92      		push r0
 8099 273a 0FB6      		in r0,__SREG__
 8100 273c 0F92      		push r0
 8101 273e 1124      		clr __zero_reg__
 8102 2740 2F93      		push r18
 8103 2742 3F93      		push r19
 8104 2744 4F93      		push r20
 8105 2746 5F93      		push r21
 8106 2748 6F93      		push r22
 8107 274a 7F93      		push r23
 8108 274c 8F93      		push r24
 8109 274e 9F93      		push r25
 8110 2750 AF93      		push r26
 8111 2752 BF93      		push r27
 8112 2754 EF93      		push r30
 8113 2756 FF93      		push r31
 8114               	/* prologue: Signal */
 8115               	/* frame size = 0 */
 8116               	.LM768:
 8117 2758 E091 0000 		lds r30,Timebase
 8118 275c F091 0000 		lds r31,(Timebase)+1
 8119 2760 8381      		ldd r24,Z+3
 8120 2762 86BD      		out 70-32,r24
 8121               	.LM769:
 8122 2764 0E94 0000 		call Timebase_ISR_Executables
 8123               	/* epilogue start */
 8124               	.LM770:
 8125 2768 FF91      		pop r31
 8126 276a EF91      		pop r30
 8127 276c BF91      		pop r27
 8128 276e AF91      		pop r26
 8129 2770 9F91      		pop r25
 8130 2772 8F91      		pop r24
 8131 2774 7F91      		pop r23
 8132 2776 6F91      		pop r22
 8133 2778 5F91      		pop r21
 8134 277a 4F91      		pop r20
 8135 277c 3F91      		pop r19
 8136 277e 2F91      		pop r18
 8137 2780 0F90      		pop r0
 8138 2782 0FBE      		out __SREG__,r0
 8139 2784 0F90      		pop r0
 8140 2786 1F90      		pop __zero_reg__
 8141 2788 1895      		reti
 8142               	.LFE147:
 8144               		.data
 8147               	C.2.1700:
 8148 0000 0100      		.word	1
 8149 0002 0800      		.word	8
 8150 0004 4000      		.word	64
 8151 0006 0001      		.word	256
 8152 0008 0004      		.word	1024
 8153               		.comm Timebase_type,107,1
 8154               		.comm Timebase,2,1
 9307               	.Letext0:
DEFINED SYMBOLS
                            *ABS*:00000000 timebase.c
C:\Users\FARIDU~1\AppData\Local\Temp/cc3abiOj.s:2      *ABS*:0000003f __SREG__
C:\Users\FARIDU~1\AppData\Local\Temp/cc3abiOj.s:3      *ABS*:0000003e __SP_H__
C:\Users\FARIDU~1\AppData\Local\Temp/cc3abiOj.s:4      *ABS*:0000003d __SP_L__
C:\Users\FARIDU~1\AppData\Local\Temp/cc3abiOj.s:5      *ABS*:00000034 __CCP__
C:\Users\FARIDU~1\AppData\Local\Temp/cc3abiOj.s:6      *ABS*:00000000 __tmp_reg__
C:\Users\FARIDU~1\AppData\Local\Temp/cc3abiOj.s:7      *ABS*:00000001 __zero_reg__
C:\Users\FARIDU~1\AppData\Local\Temp/cc3abiOj.s:18     .text:00000000 Timebase_Struct_Init
                            *COM*:0000006b Timebase_type
                            *COM*:00000002 Timebase
C:\Users\FARIDU~1\AppData\Local\Temp/cc3abiOj.s:195    .text:000001d2 Timebase_Timer_Config
C:\Users\FARIDU~1\AppData\Local\Temp/cc3abiOj.s:8147   .data:00000000 C.2.1700
C:\Users\FARIDU~1\AppData\Local\Temp/cc3abiOj.s:515    .text:0000036c Timebase_Atomic_Operation_Start
C:\Users\FARIDU~1\AppData\Local\Temp/cc3abiOj.s:533    .text:00000370 Timebase_Atomic_Operation_End
C:\Users\FARIDU~1\AppData\Local\Temp/cc3abiOj.s:551    .text:00000374 Timebase_Token_Executing
C:\Users\FARIDU~1\AppData\Local\Temp/cc3abiOj.s:567    .text:00000380 Timebase_Token_Add
C:\Users\FARIDU~1\AppData\Local\Temp/cc3abiOj.s:593    .text:00000396 Timebase_Token_Remove
C:\Users\FARIDU~1\AppData\Local\Temp/cc3abiOj.s:619    .text:000003ac Timebase_Token_Remove_All
C:\Users\FARIDU~1\AppData\Local\Temp/cc3abiOj.s:635    .text:000003b8 Timebase_Timer_Get_SubSecondsShadow
C:\Users\FARIDU~1\AppData\Local\Temp/cc3abiOj.s:653    .text:000003c8 Timebase_Timer_Get_SecondsShadow
C:\Users\FARIDU~1\AppData\Local\Temp/cc3abiOj.s:674    .text:000003de Timebase_Timer_Get_SubSeconds
C:\Users\FARIDU~1\AppData\Local\Temp/cc3abiOj.s:692    .text:000003ee Timebase_Timer_Get_Seconds
C:\Users\FARIDU~1\AppData\Local\Temp/cc3abiOj.s:713    .text:00000404 Timebase_Timer_Set_SubSeconds
C:\Users\FARIDU~1\AppData\Local\Temp/cc3abiOj.s:731    .text:00000412 Timebase_Timer_Set_Seconds
C:\Users\FARIDU~1\AppData\Local\Temp/cc3abiOj.s:751    .text:00000424 Timebase_Timer_Delay_SubSeconds
C:\Users\FARIDU~1\AppData\Local\Temp/cc3abiOj.s:888    .text:000004d4 Timebase_Timer_Await_SubSeconds
C:\Users\FARIDU~1\AppData\Local\Temp/cc3abiOj.s:971    .text:00000548 Timebase_Timer_Delay_Seconds
C:\Users\FARIDU~1\AppData\Local\Temp/cc3abiOj.s:1028   .text:00000582 Timebase_Window_Timer_Reset
C:\Users\FARIDU~1\AppData\Local\Temp/cc3abiOj.s:1054   .text:0000059e Timebase_Window_Timer_Start
C:\Users\FARIDU~1\AppData\Local\Temp/cc3abiOj.s:1102   .text:000005d2 Timebase_Window_Timer_Get_Interval
C:\Users\FARIDU~1\AppData\Local\Temp/cc3abiOj.s:1198   .text:0000064c Timebase_Window_Timer_Get_Interval_Reset
C:\Users\FARIDU~1\AppData\Local\Temp/cc3abiOj.s:1238   .text:00000676 Timebase_UpCounter_SS_Get_Status
C:\Users\FARIDU~1\AppData\Local\Temp/cc3abiOj.s:1272   .text:000006a0 Timebase_UpCounter_SS_Set_Status
C:\Users\FARIDU~1\AppData\Local\Temp/cc3abiOj.s:1310   .text:000006d0 Timebase_UpCounter_SS_Get_Value
C:\Users\FARIDU~1\AppData\Local\Temp/cc3abiOj.s:1353   .text:0000070a Timebase_UpCounter_SS_Set_Value
C:\Users\FARIDU~1\AppData\Local\Temp/cc3abiOj.s:1388   .text:00000736 Timebase_UpCounter_SS_Get_EndValueSec
C:\Users\FARIDU~1\AppData\Local\Temp/cc3abiOj.s:1431   .text:00000770 Timebase_UpCounter_SS_Get_EndValueSubSec
C:\Users\FARIDU~1\AppData\Local\Temp/cc3abiOj.s:1474   .text:000007aa Timebase_UpCounter_SS_Set_EndValueSec
C:\Users\FARIDU~1\AppData\Local\Temp/cc3abiOj.s:1509   .text:000007d6 Timebase_UpCounter_SS_Set_EndValueSubSec
C:\Users\FARIDU~1\AppData\Local\Temp/cc3abiOj.s:1544   .text:00000802 Timebase_UpCounter_SS_Get_TargetValue
C:\Users\FARIDU~1\AppData\Local\Temp/cc3abiOj.s:1587   .text:0000083c Timebase_UpCounter_SS_Set_TargetValue
C:\Users\FARIDU~1\AppData\Local\Temp/cc3abiOj.s:1622   .text:00000868 Timebase_UpCounter_SS_Get_TemporaryValue
C:\Users\FARIDU~1\AppData\Local\Temp/cc3abiOj.s:1665   .text:000008a2 Timebase_UpCounter_SS_Set_TemporaryValue
C:\Users\FARIDU~1\AppData\Local\Temp/cc3abiOj.s:1700   .text:000008ce Timebase_UpCounter_SS_Get_PeriodValue
C:\Users\FARIDU~1\AppData\Local\Temp/cc3abiOj.s:1743   .text:00000908 Timebase_UpCounter_SS_Set_PeriodValue
C:\Users\FARIDU~1\AppData\Local\Temp/cc3abiOj.s:1778   .text:00000934 Timebase_UpCounter_SS_Get_Period_Flag
C:\Users\FARIDU~1\AppData\Local\Temp/cc3abiOj.s:1811   .text:0000095c Timebase_UpCounter_SS_Set_Period_Flag
C:\Users\FARIDU~1\AppData\Local\Temp/cc3abiOj.s:1845   .text:00000986 Timebase_UpCounter_SS_Clear_Period_Flag
C:\Users\FARIDU~1\AppData\Local\Temp/cc3abiOj.s:1879   .text:000009b0 Timebase_UpCounter_SS_Reset
C:\Users\FARIDU~1\AppData\Local\Temp/cc3abiOj.s:1975   .text:00000a0a Timebase_UpCounter_SS_Clear_All_Flags
C:\Users\FARIDU~1\AppData\Local\Temp/cc3abiOj.s:1991   .text:00000a10 Timebase_UpCounter_SS_Start
C:\Users\FARIDU~1\AppData\Local\Temp/cc3abiOj.s:2039   .text:00000a46 Timebase_UpCounter_SS_Stop
C:\Users\FARIDU~1\AppData\Local\Temp/cc3abiOj.s:2087   .text:00000a7c Timebase_UpCounter_SS_Set_Securely
C:\Users\FARIDU~1\AppData\Local\Temp/cc3abiOj.s:2361   .text:00000bf8 Timebase_UpCounter_SS_Set_Forcefully
C:\Users\FARIDU~1\AppData\Local\Temp/cc3abiOj.s:2397   .text:00000c22 Timebase_UpCounter_SS_Update
C:\Users\FARIDU~1\AppData\Local\Temp/cc3abiOj.s:2553   .text:00000ce2 Timebase_UpCounter_SS_Expired
C:\Users\FARIDU~1\AppData\Local\Temp/cc3abiOj.s:2593   .text:00000d16 Timebase_UpCounter_SS_Expired_Event
C:\Users\FARIDU~1\AppData\Local\Temp/cc3abiOj.s:2642   .text:00000d54 Timebase_UpCounter_SS_Set_Period_Value_Securely
C:\Users\FARIDU~1\AppData\Local\Temp/cc3abiOj.s:2704   .text:00000d9c Timebase_UpCounter_SS_Get_Remaining_Period_Value
C:\Users\FARIDU~1\AppData\Local\Temp/cc3abiOj.s:2762   .text:00000de8 Timebase_UpCounter_SS_Period_Value_Expired
C:\Users\FARIDU~1\AppData\Local\Temp/cc3abiOj.s:2854   .text:00000e64 Timebase_UpCounter_SS_Period_Value_Expired_Event
C:\Users\FARIDU~1\AppData\Local\Temp/cc3abiOj.s:2906   .text:00000ea4 Timebase_UpCounter_SS_Update_All
C:\Users\FARIDU~1\AppData\Local\Temp/cc3abiOj.s:2923   .text:00000eac Timebase_UpCounter_SS_Reset_All
C:\Users\FARIDU~1\AppData\Local\Temp/cc3abiOj.s:2940   .text:00000eb4 Timebase_UpCounter_Get_Status
C:\Users\FARIDU~1\AppData\Local\Temp/cc3abiOj.s:2974   .text:00000ede Timebase_UpCounter_Set_Status
C:\Users\FARIDU~1\AppData\Local\Temp/cc3abiOj.s:3012   .text:00000f0e Timebase_UpCounter_Get_Value
C:\Users\FARIDU~1\AppData\Local\Temp/cc3abiOj.s:3050   .text:00000f3e Timebase_UpCounter_Set_Value
C:\Users\FARIDU~1\AppData\Local\Temp/cc3abiOj.s:3087   .text:00000f6e Timebase_UpCounter_Get_EndValue
C:\Users\FARIDU~1\AppData\Local\Temp/cc3abiOj.s:3130   .text:00000fa8 Timebase_UpCounter_Set_EndValue
C:\Users\FARIDU~1\AppData\Local\Temp/cc3abiOj.s:3165   .text:00000fd4 Timebase_UpCounter_Get_TargetValue
C:\Users\FARIDU~1\AppData\Local\Temp/cc3abiOj.s:3202   .text:00001002 Timebase_UpCounter_Set_TargetValue
C:\Users\FARIDU~1\AppData\Local\Temp/cc3abiOj.s:3238   .text:00001030 Timebase_UpCounter_Get_TemporaryValue
C:\Users\FARIDU~1\AppData\Local\Temp/cc3abiOj.s:3276   .text:00001060 Timebase_UpCounter_Set_TemporaryValue
C:\Users\FARIDU~1\AppData\Local\Temp/cc3abiOj.s:3313   .text:00001090 Timebase_UpCounter_Get_PeriodValue
C:\Users\FARIDU~1\AppData\Local\Temp/cc3abiOj.s:3351   .text:000010c0 Timebase_UpCounter_Set_PeriodValue
C:\Users\FARIDU~1\AppData\Local\Temp/cc3abiOj.s:3388   .text:000010f0 Timebase_UpCounter_Get_Period_Flag
C:\Users\FARIDU~1\AppData\Local\Temp/cc3abiOj.s:3421   .text:00001118 Timebase_UpCounter_Set_Period_Flag
C:\Users\FARIDU~1\AppData\Local\Temp/cc3abiOj.s:3455   .text:00001142 Timebase_UpCounter_Clear_Period_Flag
C:\Users\FARIDU~1\AppData\Local\Temp/cc3abiOj.s:3489   .text:0000116c Timebase_UpCounter_Reset
C:\Users\FARIDU~1\AppData\Local\Temp/cc3abiOj.s:3584   .text:000011ce Timebase_UpCounter_Clear_All_Flags
C:\Users\FARIDU~1\AppData\Local\Temp/cc3abiOj.s:3600   .text:000011d4 Timebase_UpCounter_Start
C:\Users\FARIDU~1\AppData\Local\Temp/cc3abiOj.s:3648   .text:0000120a Timebase_UpCounter_Stop
C:\Users\FARIDU~1\AppData\Local\Temp/cc3abiOj.s:3696   .text:00001240 Timebase_UpCounter_Set_Securely
C:\Users\FARIDU~1\AppData\Local\Temp/cc3abiOj.s:3808   .text:000012b6 Timebase_UpCounter_Set_Forcefully
C:\Users\FARIDU~1\AppData\Local\Temp/cc3abiOj.s:3844   .text:000012e0 Timebase_UpCounter_Update
C:\Users\FARIDU~1\AppData\Local\Temp/cc3abiOj.s:4059   .text:000013f6 Timebase_UpCounter_Expired
C:\Users\FARIDU~1\AppData\Local\Temp/cc3abiOj.s:4099   .text:0000142a Timebase_UpCounter_Expired_Event
C:\Users\FARIDU~1\AppData\Local\Temp/cc3abiOj.s:4148   .text:00001468 Timebase_UpCounter_Set_Period_Value_Securely
C:\Users\FARIDU~1\AppData\Local\Temp/cc3abiOj.s:4223   .text:000014c6 Timebase_UpCounter_Get_Remaining_Period_Value
C:\Users\FARIDU~1\AppData\Local\Temp/cc3abiOj.s:4287   .text:0000151e Timebase_UpCounter_Period_Value_Expired
C:\Users\FARIDU~1\AppData\Local\Temp/cc3abiOj.s:4385   .text:000015a6 Timebase_UpCounter_Period_Value_Expired_Event
C:\Users\FARIDU~1\AppData\Local\Temp/cc3abiOj.s:4437   .text:000015e6 Timebase_UpCounter_Update_All
C:\Users\FARIDU~1\AppData\Local\Temp/cc3abiOj.s:4454   .text:000015ee Timebase_UpCounter_Reset_All
C:\Users\FARIDU~1\AppData\Local\Temp/cc3abiOj.s:4471   .text:000015f6 Timebase_DownCounter_SS_Get_Status
C:\Users\FARIDU~1\AppData\Local\Temp/cc3abiOj.s:4505   .text:00001620 Timebase_DownCounter_SS_Set_Status
C:\Users\FARIDU~1\AppData\Local\Temp/cc3abiOj.s:4543   .text:00001650 Timebase_DownCounter_SS_Get_Value
C:\Users\FARIDU~1\AppData\Local\Temp/cc3abiOj.s:4579   .text:0000167c Timebase_DownCounter_SS_Set_Value
C:\Users\FARIDU~1\AppData\Local\Temp/cc3abiOj.s:4613   .text:000016a8 Timebase_DownCounter_SS_Get_EndValueSec
C:\Users\FARIDU~1\AppData\Local\Temp/cc3abiOj.s:4649   .text:000016d4 Timebase_DownCounter_SS_Get_EndValueSubSec
C:\Users\FARIDU~1\AppData\Local\Temp/cc3abiOj.s:4685   .text:00001700 Timebase_DownCounter_SS_Set_EndValueSec
C:\Users\FARIDU~1\AppData\Local\Temp/cc3abiOj.s:4719   .text:0000172c Timebase_DownCounter_SS_Set_EndValueSubSec
C:\Users\FARIDU~1\AppData\Local\Temp/cc3abiOj.s:4753   .text:00001758 Timebase_DownCounter_SS_Get_PeriodValue
C:\Users\FARIDU~1\AppData\Local\Temp/cc3abiOj.s:4789   .text:00001784 Timebase_DownCounter_SS_Set_PeriodValue
C:\Users\FARIDU~1\AppData\Local\Temp/cc3abiOj.s:4846   .text:000017d8 Timebase_DownCounter_SS_Get_Period_Flag
C:\Users\FARIDU~1\AppData\Local\Temp/cc3abiOj.s:4879   .text:00001800 Timebase_DownCounter_SS_Set_Period_Flag
C:\Users\FARIDU~1\AppData\Local\Temp/cc3abiOj.s:4913   .text:0000182a Timebase_DownCounter_SS_Clear_Period_Flag
C:\Users\FARIDU~1\AppData\Local\Temp/cc3abiOj.s:4947   .text:00001854 Timebase_DownCounter_SS_Reset
C:\Users\FARIDU~1\AppData\Local\Temp/cc3abiOj.s:5018   .text:0000189a Timebase_DownCounter_SS_Clear_All_Flags
C:\Users\FARIDU~1\AppData\Local\Temp/cc3abiOj.s:5093   .text:000018e0 Timebase_DownCounter_SS_Start
C:\Users\FARIDU~1\AppData\Local\Temp/cc3abiOj.s:5141   .text:00001916 Timebase_DownCounter_SS_Stop
C:\Users\FARIDU~1\AppData\Local\Temp/cc3abiOj.s:5189   .text:0000194c Timebase_DownCounter_SS_Set_Securely
C:\Users\FARIDU~1\AppData\Local\Temp/cc3abiOj.s:5451   .text:00001ac8 Timebase_DownCounter_SS_Set_Forcefully
C:\Users\FARIDU~1\AppData\Local\Temp/cc3abiOj.s:5529   .text:00001b14 Timebase_DownCounter_SS_Update
C:\Users\FARIDU~1\AppData\Local\Temp/cc3abiOj.s:5848   .text:00001cb4 Timebase_DownCounter_SS_Expired
C:\Users\FARIDU~1\AppData\Local\Temp/cc3abiOj.s:5888   .text:00001ce8 Timebase_DownCounter_SS_Expired_Event
C:\Users\FARIDU~1\AppData\Local\Temp/cc3abiOj.s:5983   .text:00001d42 Timebase_DownCounter_SS_Set_Period_Value_Securely
C:\Users\FARIDU~1\AppData\Local\Temp/cc3abiOj.s:6080   .text:00001dc2 Timebase_DownCounter_SS_Get_Remaining_Period_Value
C:\Users\FARIDU~1\AppData\Local\Temp/cc3abiOj.s:6142   .text:00001e16 Timebase_DownCounter_SS_Period_Value_Expired
C:\Users\FARIDU~1\AppData\Local\Temp/cc3abiOj.s:6239   .text:00001e9c Timebase_DownCounter_SS_Period_Value_Expired_Event
C:\Users\FARIDU~1\AppData\Local\Temp/cc3abiOj.s:6291   .text:00001edc Timebase_DownCounter_SS_Update_All
C:\Users\FARIDU~1\AppData\Local\Temp/cc3abiOj.s:6308   .text:00001ee4 Timebase_DownCounter_SS_Reset_All
C:\Users\FARIDU~1\AppData\Local\Temp/cc3abiOj.s:6372   .text:00001f14 Timebase_DownCounter_Get_Status
C:\Users\FARIDU~1\AppData\Local\Temp/cc3abiOj.s:6408   .text:00001f42 Timebase_DownCounter_Set_Status
C:\Users\FARIDU~1\AppData\Local\Temp/cc3abiOj.s:6448   .text:00001f76 Timebase_DownCounter_Get_Value
C:\Users\FARIDU~1\AppData\Local\Temp/cc3abiOj.s:6486   .text:00001fa6 Timebase_DownCounter_Set_Value
C:\Users\FARIDU~1\AppData\Local\Temp/cc3abiOj.s:6523   .text:00001fd6 Timebase_DownCounter_Get_EndValue
C:\Users\FARIDU~1\AppData\Local\Temp/cc3abiOj.s:6561   .text:00002006 Timebase_DownCounter_Set_EndValue
C:\Users\FARIDU~1\AppData\Local\Temp/cc3abiOj.s:6598   .text:00002036 Timebase_DownCounter_Get_PeriodValue
C:\Users\FARIDU~1\AppData\Local\Temp/cc3abiOj.s:6636   .text:00002066 Timebase_DownCounter_Set_PeriodValue
C:\Users\FARIDU~1\AppData\Local\Temp/cc3abiOj.s:6698   .text:000020c2 Timebase_DownCounter_Get_Period_Flag
C:\Users\FARIDU~1\AppData\Local\Temp/cc3abiOj.s:6733   .text:000020ee Timebase_DownCounter_Set_Period_Flag
C:\Users\FARIDU~1\AppData\Local\Temp/cc3abiOj.s:6769   .text:0000211c Timebase_DownCounter_Clear_Period_Flag
C:\Users\FARIDU~1\AppData\Local\Temp/cc3abiOj.s:6805   .text:0000214a Timebase_DownCounter_Reset
C:\Users\FARIDU~1\AppData\Local\Temp/cc3abiOj.s:6868   .text:0000218a Timebase_DownCounter_Clear_All_Flags
C:\Users\FARIDU~1\AppData\Local\Temp/cc3abiOj.s:6935   .text:000021ca Timebase_DownCounter_Start
C:\Users\FARIDU~1\AppData\Local\Temp/cc3abiOj.s:6985   .text:00002204 Timebase_DownCounter_Stop
C:\Users\FARIDU~1\AppData\Local\Temp/cc3abiOj.s:7035   .text:0000223e Timebase_DownCounter_Set_Securely
C:\Users\FARIDU~1\AppData\Local\Temp/cc3abiOj.s:7135   .text:000022b0 Timebase_DownCounter_Set_Forcefully
C:\Users\FARIDU~1\AppData\Local\Temp/cc3abiOj.s:7209   .text:000022fe Timebase_DownCounter_Update
C:\Users\FARIDU~1\AppData\Local\Temp/cc3abiOj.s:7376   .text:000023c8 Timebase_DownCounter_Expired
C:\Users\FARIDU~1\AppData\Local\Temp/cc3abiOj.s:7418   .text:00002400 Timebase_DownCounter_Expired_Event
C:\Users\FARIDU~1\AppData\Local\Temp/cc3abiOj.s:7505   .text:00002454 Timebase_DownCounter_Set_Period_Value_Securely
C:\Users\FARIDU~1\AppData\Local\Temp/cc3abiOj.s:7604   .text:000024d8 Timebase_DownCounter_Get_Remaining_Period_Value
C:\Users\FARIDU~1\AppData\Local\Temp/cc3abiOj.s:7668   .text:00002530 Timebase_DownCounter_Period_Value_Expired
C:\Users\FARIDU~1\AppData\Local\Temp/cc3abiOj.s:7768   .text:000025bc Timebase_DownCounter_Period_Value_Expired_Event
C:\Users\FARIDU~1\AppData\Local\Temp/cc3abiOj.s:7822   .text:00002600 Timebase_DownCounter_Update_All
C:\Users\FARIDU~1\AppData\Local\Temp/cc3abiOj.s:7839   .text:00002608 Timebase_DownCounter_Reset_All
C:\Users\FARIDU~1\AppData\Local\Temp/cc3abiOj.s:7893   .text:0000262e Timebase_Reset
C:\Users\FARIDU~1\AppData\Local\Temp/cc3abiOj.s:7911   .text:0000263c Timebase_Init
C:\Users\FARIDU~1\AppData\Local\Temp/cc3abiOj.s:7938   .text:00002656 Timebase_Main_Loop_Executables
C:\Users\FARIDU~1\AppData\Local\Temp/cc3abiOj.s:8036   .text:000026e0 Timebase_ISR_Executables
C:\Users\FARIDU~1\AppData\Local\Temp/cc3abiOj.s:8094   .text:00002736 __vector_16

UNDEFINED SYMBOLS
__divmodsi4
__mulsi3
__udivmodhi4
__do_copy_data
__do_clear_bss
