   1               		.file	"timebase.c"
   2               	__SREG__ = 0x3f
   3               	__SP_H__ = 0x3e
   4               	__SP_L__ = 0x3d
   5               	__CCP__  = 0x34
   6               	__tmp_reg__ = 0
   7               	__zero_reg__ = 1
  15               	.Ltext0:
  16               	.global	Timebase_Struct_Init
  18               	Timebase_Struct_Init:
  19               	.LFB6:
  20               	.LM1:
  21               	/* prologue: function */
  22               	/* frame size = 0 */
  23               	.LM2:
  24 0000 80E0      		ldi r24,lo8(Timebase_type)
  25 0002 90E0      		ldi r25,hi8(Timebase_type)
  26 0004 9093 0000 		sts (Timebase)+1,r25
  27 0008 8093 0000 		sts Timebase,r24
  28               	.LM3:
  29 000c 1092 0000 		sts Timebase_type,__zero_reg__
  30               	.LM4:
  31 0010 8091 0000 		lds r24,Timebase_type
  32 0014 8460      		ori r24,lo8(4)
  33 0016 8093 0000 		sts Timebase_type,r24
  34               	.LM5:
  35 001a 8091 0000 		lds r24,Timebase_type
  36 001e 8770      		andi r24,lo8(7)
  37 0020 8093 0000 		sts Timebase_type,r24
  38               	.LM6:
  39 0024 81E0      		ldi r24,lo8(1)
  40 0026 90E0      		ldi r25,hi8(1)
  41 0028 9093 0000 		sts (Timebase_type+1)+1,r25
  42 002c 8093 0000 		sts Timebase_type+1,r24
  43               	.LM7:
  44 0030 1092 0000 		sts Timebase_type+3,__zero_reg__
  45               	.LM8:
  46 0034 1092 0000 		sts (Timebase_type+14)+1,__zero_reg__
  47 0038 1092 0000 		sts Timebase_type+14,__zero_reg__
  48               	.LM9:
  49 003c 1092 0000 		sts Timebase_type+16,__zero_reg__
  50 0040 1092 0000 		sts (Timebase_type+16)+1,__zero_reg__
  51 0044 1092 0000 		sts (Timebase_type+16)+2,__zero_reg__
  52 0048 1092 0000 		sts (Timebase_type+16)+3,__zero_reg__
  53               	.LM10:
  54 004c 1092 0000 		sts (Timebase_type+8)+1,__zero_reg__
  55 0050 1092 0000 		sts Timebase_type+8,__zero_reg__
  56               	.LM11:
  57 0054 1092 0000 		sts Timebase_type+10,__zero_reg__
  58 0058 1092 0000 		sts (Timebase_type+10)+1,__zero_reg__
  59 005c 1092 0000 		sts (Timebase_type+10)+2,__zero_reg__
  60 0060 1092 0000 		sts (Timebase_type+10)+3,__zero_reg__
  61               	.LM12:
  62 0064 1092 0000 		sts Timebase_type+20,__zero_reg__
  63               	.LM13:
  64 0068 1092 0000 		sts Timebase_type+4,__zero_reg__
  65 006c 1092 0000 		sts (Timebase_type+4)+1,__zero_reg__
  66 0070 1092 0000 		sts (Timebase_type+4)+2,__zero_reg__
  67 0074 1092 0000 		sts (Timebase_type+4)+3,__zero_reg__
  68               	.LM14:
  69 0078 1092 0000 		sts Timebase_type+21,__zero_reg__
  70 007c 1092 0000 		sts (Timebase_type+21)+1,__zero_reg__
  71 0080 1092 0000 		sts (Timebase_type+21)+2,__zero_reg__
  72 0084 1092 0000 		sts (Timebase_type+21)+3,__zero_reg__
  73               	.LM15:
  74 0088 1092 0000 		sts Timebase_type+25,__zero_reg__
  75 008c 1092 0000 		sts (Timebase_type+25)+1,__zero_reg__
  76 0090 1092 0000 		sts (Timebase_type+25)+2,__zero_reg__
  77 0094 1092 0000 		sts (Timebase_type+25)+3,__zero_reg__
  78               	.LM16:
  79 0098 1092 0000 		sts Timebase_type+29,__zero_reg__
  80               	.LM17:
  81 009c 1092 0000 		sts Timebase_type+30,__zero_reg__
  82               	.LM18:
  83 00a0 1092 0000 		sts Timebase_type+31,__zero_reg__
  84               	.LBB583:
  85               	.LM19:
  86 00a4 1092 0000 		sts Timebase_type+57,__zero_reg__
  87               	.LM20:
  88 00a8 1092 0000 		sts Timebase_type+58,__zero_reg__
  89 00ac 1092 0000 		sts (Timebase_type+58)+1,__zero_reg__
  90 00b0 1092 0000 		sts (Timebase_type+58)+2,__zero_reg__
  91 00b4 1092 0000 		sts (Timebase_type+58)+3,__zero_reg__
  92               	.LM21:
  93 00b8 1092 0000 		sts Timebase_type+62,__zero_reg__
  94 00bc 1092 0000 		sts (Timebase_type+62)+1,__zero_reg__
  95 00c0 1092 0000 		sts (Timebase_type+62)+2,__zero_reg__
  96 00c4 1092 0000 		sts (Timebase_type+62)+3,__zero_reg__
  97               	.LM22:
  98 00c8 1092 0000 		sts Timebase_type+66,__zero_reg__
  99 00cc 1092 0000 		sts (Timebase_type+66)+1,__zero_reg__
 100 00d0 1092 0000 		sts (Timebase_type+66)+2,__zero_reg__
 101 00d4 1092 0000 		sts (Timebase_type+66)+3,__zero_reg__
 102               	.LM23:
 103 00d8 1092 0000 		sts Timebase_type+70,__zero_reg__
 104 00dc 1092 0000 		sts (Timebase_type+70)+1,__zero_reg__
 105 00e0 1092 0000 		sts (Timebase_type+70)+2,__zero_reg__
 106 00e4 1092 0000 		sts (Timebase_type+70)+3,__zero_reg__
 107               	.LM24:
 108 00e8 1092 0000 		sts Timebase_type+74,__zero_reg__
 109 00ec 1092 0000 		sts (Timebase_type+74)+1,__zero_reg__
 110 00f0 1092 0000 		sts (Timebase_type+74)+2,__zero_reg__
 111 00f4 1092 0000 		sts (Timebase_type+74)+3,__zero_reg__
 112               	.LBE583:
 113               	.LBB584:
 114               	.LM25:
 115 00f8 1092 0000 		sts Timebase_type+32,__zero_reg__
 116               	.LM26:
 117 00fc 1092 0000 		sts Timebase_type+33,__zero_reg__
 118 0100 1092 0000 		sts (Timebase_type+33)+1,__zero_reg__
 119 0104 1092 0000 		sts (Timebase_type+33)+2,__zero_reg__
 120 0108 1092 0000 		sts (Timebase_type+33)+3,__zero_reg__
 121               	.LM27:
 122 010c 1092 0000 		sts Timebase_type+37,__zero_reg__
 123 0110 1092 0000 		sts (Timebase_type+37)+1,__zero_reg__
 124 0114 1092 0000 		sts (Timebase_type+37)+2,__zero_reg__
 125 0118 1092 0000 		sts (Timebase_type+37)+3,__zero_reg__
 126               	.LM28:
 127 011c 1092 0000 		sts Timebase_type+41,__zero_reg__
 128 0120 1092 0000 		sts (Timebase_type+41)+1,__zero_reg__
 129 0124 1092 0000 		sts (Timebase_type+41)+2,__zero_reg__
 130 0128 1092 0000 		sts (Timebase_type+41)+3,__zero_reg__
 131               	.LM29:
 132 012c 1092 0000 		sts Timebase_type+45,__zero_reg__
 133 0130 1092 0000 		sts (Timebase_type+45)+1,__zero_reg__
 134 0134 1092 0000 		sts (Timebase_type+45)+2,__zero_reg__
 135 0138 1092 0000 		sts (Timebase_type+45)+3,__zero_reg__
 136               	.LM30:
 137 013c 1092 0000 		sts Timebase_type+49,__zero_reg__
 138 0140 1092 0000 		sts (Timebase_type+49)+1,__zero_reg__
 139 0144 1092 0000 		sts (Timebase_type+49)+2,__zero_reg__
 140 0148 1092 0000 		sts (Timebase_type+49)+3,__zero_reg__
 141               	.LM31:
 142 014c 1092 0000 		sts Timebase_type+53,__zero_reg__
 143 0150 1092 0000 		sts (Timebase_type+53)+1,__zero_reg__
 144 0154 1092 0000 		sts (Timebase_type+53)+2,__zero_reg__
 145 0158 1092 0000 		sts (Timebase_type+53)+3,__zero_reg__
 146               	.LBE584:
 147               	.LBB585:
 148               	.LM32:
 149 015c 1092 0000 		sts Timebase_type+95,__zero_reg__
 150               	.LM33:
 151 0160 1092 0000 		sts Timebase_type+96,__zero_reg__
 152 0164 1092 0000 		sts (Timebase_type+96)+1,__zero_reg__
 153 0168 1092 0000 		sts (Timebase_type+96)+2,__zero_reg__
 154 016c 1092 0000 		sts (Timebase_type+96)+3,__zero_reg__
 155               	.LM34:
 156 0170 1092 0000 		sts Timebase_type+100,__zero_reg__
 157 0174 1092 0000 		sts (Timebase_type+100)+1,__zero_reg__
 158 0178 1092 0000 		sts (Timebase_type+100)+2,__zero_reg__
 159 017c 1092 0000 		sts (Timebase_type+100)+3,__zero_reg__
 160               	.LM35:
 161 0180 1092 0000 		sts Timebase_type+104,__zero_reg__
 162 0184 1092 0000 		sts (Timebase_type+104)+1,__zero_reg__
 163 0188 1092 0000 		sts (Timebase_type+104)+2,__zero_reg__
 164 018c 1092 0000 		sts (Timebase_type+104)+3,__zero_reg__
 165               	.LBE585:
 166               	.LBB586:
 167               	.LM36:
 168 0190 1092 0000 		sts Timebase_type+78,__zero_reg__
 169               	.LM37:
 170 0194 1092 0000 		sts Timebase_type+79,__zero_reg__
 171 0198 1092 0000 		sts (Timebase_type+79)+1,__zero_reg__
 172 019c 1092 0000 		sts (Timebase_type+79)+2,__zero_reg__
 173 01a0 1092 0000 		sts (Timebase_type+79)+3,__zero_reg__
 174               	.LM38:
 175 01a4 1092 0000 		sts Timebase_type+83,__zero_reg__
 176 01a8 1092 0000 		sts (Timebase_type+83)+1,__zero_reg__
 177 01ac 1092 0000 		sts (Timebase_type+83)+2,__zero_reg__
 178 01b0 1092 0000 		sts (Timebase_type+83)+3,__zero_reg__
 179               	.LM39:
 180 01b4 1092 0000 		sts Timebase_type+87,__zero_reg__
 181 01b8 1092 0000 		sts (Timebase_type+87)+1,__zero_reg__
 182 01bc 1092 0000 		sts (Timebase_type+87)+2,__zero_reg__
 183 01c0 1092 0000 		sts (Timebase_type+87)+3,__zero_reg__
 184               	.LM40:
 185 01c4 1092 0000 		sts Timebase_type+91,__zero_reg__
 186 01c8 1092 0000 		sts (Timebase_type+91)+1,__zero_reg__
 187 01cc 1092 0000 		sts (Timebase_type+91)+2,__zero_reg__
 188 01d0 1092 0000 		sts (Timebase_type+91)+3,__zero_reg__
 189               	/* epilogue start */
 190               	.LBE586:
 191               	.LM41:
 192 01d4 0895      		ret
 193               	.LFE6:
 195               	.global	Timebase_Timer_Config
 197               	Timebase_Timer_Config:
 198               	.LFB7:
 199               	.LM42:
 200               	.LVL0:
 201 01d6 7F92      		push r7
 202 01d8 8F92      		push r8
 203 01da 9F92      		push r9
 204 01dc AF92      		push r10
 205 01de BF92      		push r11
 206 01e0 CF92      		push r12
 207 01e2 DF92      		push r13
 208 01e4 EF92      		push r14
 209 01e6 FF92      		push r15
 210 01e8 0F93      		push r16
 211 01ea 1F93      		push r17
 212 01ec DF93      		push r29
 213 01ee CF93      		push r28
 214 01f0 CDB7      		in r28,__SP_L__
 215 01f2 DEB7      		in r29,__SP_H__
 216 01f4 2A97      		sbiw r28,10
 217 01f6 0FB6      		in __tmp_reg__,__SREG__
 218 01f8 F894      		cli
 219 01fa DEBF      		out __SP_H__,r29
 220 01fc 0FBE      		out __SREG__,__tmp_reg__
 221 01fe CDBF      		out __SP_L__,r28
 222               	/* prologue: function */
 223               	/* frame size = 10 */
 224 0200 8C01      		movw r16,r24
 225               	.LM43:
 226 0202 C090 0000 		lds r12,Timebase
 227 0206 D090 0000 		lds r13,(Timebase)+1
 228 020a F601      		movw r30,r12
 229 020c 8081      		ld r24,Z
 230               	.LVL1:
 231 020e 80FF      		sbrs r24,0
 232 0210 00C0      		rjmp .L4
 233               	.LBB587:
 234               	.LM44:
 235 0212 0130      		cpi r16,1
 236 0214 1105      		cpc r17,__zero_reg__
 237 0216 01F4      		brne .L5
 238 0218 96E0      		ldi r25,lo8(6)
 239               	.LVL2:
 240 021a 00C0      		rjmp .L6
 241               	.LVL3:
 242               	.L5:
 243               	.LM45:
 244 021c 0230      		cpi r16,2
 245 021e 1105      		cpc r17,__zero_reg__
 246 0220 01F4      		brne .L7
 247 0222 95E0      		ldi r25,lo8(5)
 248               	.LVL4:
 249 0224 00C0      		rjmp .L6
 250               	.LVL5:
 251               	.L7:
 252               	.LM46:
 253 0226 0430      		cpi r16,4
 254 0228 1105      		cpc r17,__zero_reg__
 255 022a 01F4      		brne .L8
 256 022c 94E0      		ldi r25,lo8(4)
 257               	.LVL6:
 258 022e 00C0      		rjmp .L6
 259               	.LVL7:
 260               	.L8:
 261               	.LM47:
 262 0230 0830      		cpi r16,8
 263 0232 1105      		cpc r17,__zero_reg__
 264 0234 01F4      		brne .L9
 265 0236 93E0      		ldi r25,lo8(3)
 266               	.LVL8:
 267 0238 00C0      		rjmp .L6
 268               	.LVL9:
 269               	.L9:
 270               	.LM48:
 271 023a 0031      		cpi r16,16
 272 023c 1105      		cpc r17,__zero_reg__
 273 023e 01F4      		brne .L10
 274 0240 92E0      		ldi r25,lo8(2)
 275               	.LVL10:
 276 0242 00C0      		rjmp .L6
 277               	.LVL11:
 278               	.L10:
 279 0244 90E0      		ldi r25,lo8(0)
 280               	.LVL12:
 281 0246 0032      		cpi r16,32
 282 0248 1105      		cpc r17,__zero_reg__
 283 024a 01F4      		brne .L6
 284 024c 91E0      		ldi r25,lo8(1)
 285               	.L6:
 286               	.LM49:
 287               	/* #APP */
 288               	 ;  273 "timebase.c" 1
 289 024e F894      		cli
 290               	 ;  0 "" 2
 291               	.LM50:
 292               	/* #NOAPP */
 293 0250 84B7      		in r24,84-32
 294 0252 877F      		andi r24,lo8(-9)
 295 0254 84BF      		out 84-32,r24
 296               	.LM51:
 297 0256 8091 6000 		lds r24,96
 298 025a 8068      		ori r24,lo8(-128)
 299 025c 8093 6000 		sts 96,r24
 300               	.LM52:
 301 0260 8091 6000 		lds r24,96
 302 0264 8861      		ori r24,lo8(24)
 303 0266 8093 6000 		sts 96,r24
 304               	.LM53:
 305 026a 9064      		ori r25,lo8(64)
 306 026c 9093 6000 		sts 96,r25
 307               	.LM54:
 308               	/* #APP */
 309               	 ;  278 "timebase.c" 1
 310 0270 7894      		sei
 311               	 ;  0 "" 2
 312               	/* #NOAPP */
 313 0272 00C0      		rjmp .L12
 314               	.LVL13:
 315               	.L4:
 316               	.LBE587:
 317               	.LM55:
 318 0274 81FD      		sbrc r24,1
 319 0276 00C0      		rjmp .L12
 320               	.LM56:
 321 0278 82FF      		sbrs r24,2
 322 027a 00C0      		rjmp .L12
 323               	.LBB588:
 324               	.LM57:
 325 027c DE01      		movw r26,r28
 326 027e 1196      		adiw r26,1
 327 0280 E0E0      		ldi r30,lo8(C.2.1708)
 328 0282 F0E0      		ldi r31,hi8(C.2.1708)
 329 0284 8AE0      		ldi r24,lo8(10)
 330               	.L13:
 331 0286 0190      		ld r0,Z+
 332 0288 0D92      		st X+,r0
 333 028a 8150      		subi r24,lo8(-(-1))
 334 028c 01F4      		brne .L13
 335               	.LM58:
 336 028e 9801      		movw r18,r16
 337 0290 40E0      		ldi r20,lo8(0)
 338 0292 50E0      		ldi r21,hi8(0)
 339               	.LVL14:
 340 0294 60E0      		ldi r22,lo8(12000000)
 341 0296 7BE1      		ldi r23,hi8(12000000)
 342 0298 87EB      		ldi r24,hlo8(12000000)
 343 029a 90E0      		ldi r25,hhi8(12000000)
 344 029c 0E94 0000 		call __divmodsi4
 345 02a0 722E      		mov r7,r18
 346 02a2 832E      		mov r8,r19
 347 02a4 942E      		mov r9,r20
 348               	.LVL15:
 349 02a6 E52E      		mov r14,r21
 350 02a8 5E01      		movw r10,r28
 351 02aa 0894      		sec
 352 02ac A11C      		adc r10,__zero_reg__
 353 02ae B11C      		adc r11,__zero_reg__
 354 02b0 C901      		movw r24,r18
 355 02b2 DA01      		movw r26,r20
 356 02b4 9C01      		movw r18,r24
 357 02b6 AD01      		movw r20,r26
 358               	.LVL16:
 359 02b8 FF24      		clr r15
 360               	.LVL17:
 361 02ba 00C0      		rjmp .L14
 362               	.LVL18:
 363               	.L16:
 364               	.LM59:
 365 02bc F501      		movw r30,r10
 366 02be 2191      		ld r18,Z+
 367 02c0 3191      		ld r19,Z+
 368               	.LVL19:
 369 02c2 5F01      		movw r10,r30
 370 02c4 40E0      		ldi r20,lo8(0)
 371 02c6 50E0      		ldi r21,hi8(0)
 372 02c8 672D      		mov r22,r7
 373 02ca 782D      		mov r23,r8
 374 02cc 892D      		mov r24,r9
 375               	.LVL20:
 376 02ce 9E2D      		mov r25,r14
 377 02d0 0E94 0000 		call __divmodsi4
 378 02d4 C901      		movw r24,r18
 379 02d6 DA01      		movw r26,r20
 380 02d8 9C01      		movw r18,r24
 381 02da AD01      		movw r20,r26
 382               	.LVL21:
 383               	.LM60:
 384 02dc F394      		inc r15
 385               	.LM61:
 386 02de F5E0      		ldi r31,lo8(5)
 387 02e0 FF16      		cp r15,r31
 388 02e2 01F0      		breq .L15
 389               	.LVL22:
 390               	.L14:
 391               	.LM62:
 392 02e4 2F3F      		cpi r18,lo8(255)
 393 02e6 3105      		cpc r19,__zero_reg__
 394 02e8 4105      		cpc r20,__zero_reg__
 395 02ea 5105      		cpc r21,__zero_reg__
 396 02ec 01F0      		breq .+2
 397 02ee 04F4      		brge .L16
 398               	.L15:
 399               	.LM63:
 400 02f0 8F2D      		mov r24,r15
 401 02f2 8150      		subi r24,lo8(-(-1))
 402               	.LVL23:
 403               	.LM64:
 404 02f4 14BC      		out 68-32,__zero_reg__
 405               	.LM65:
 406 02f6 15BC      		out 69-32,__zero_reg__
 407               	.LM66:
 408 02f8 1092 6E00 		sts 110,__zero_reg__
 409               	.LM67:
 410 02fc 15BA      		out 53-32,__zero_reg__
 411               	.LM68:
 412 02fe 17BC      		out 71-32,__zero_reg__
 413               	.LM69:
 414 0300 18BC      		out 72-32,__zero_reg__
 415               	.LM70:
 416 0302 16BC      		out 70-32,__zero_reg__
 417               	.LM71:
 418 0304 17BC      		out 71-32,__zero_reg__
 419               	.LM72:
 420 0306 8823      		tst r24
 421 0308 01F4      		brne .L17
 422               	.LM73:
 423 030a 81E0      		ldi r24,lo8(1)
 424               	.LVL24:
 425 030c 00C0      		rjmp .L24
 426               	.LVL25:
 427               	.L17:
 428               	.LM74:
 429 030e 8130      		cpi r24,lo8(1)
 430 0310 01F4      		brne .L19
 431               	.LM75:
 432 0312 82E0      		ldi r24,lo8(2)
 433               	.LVL26:
 434 0314 00C0      		rjmp .L24
 435               	.LVL27:
 436               	.L19:
 437               	.LM76:
 438 0316 8230      		cpi r24,lo8(2)
 439 0318 01F4      		brne .L20
 440               	.LM77:
 441 031a 83E0      		ldi r24,lo8(3)
 442               	.LVL28:
 443 031c 00C0      		rjmp .L24
 444               	.LVL29:
 445               	.L20:
 446               	.LM78:
 447 031e 8330      		cpi r24,lo8(3)
 448 0320 01F4      		brne .L21
 449               	.LM79:
 450 0322 84E0      		ldi r24,lo8(4)
 451               	.LVL30:
 452 0324 00C0      		rjmp .L24
 453               	.LVL31:
 454               	.L21:
 455               	.LM80:
 456 0326 8430      		cpi r24,lo8(4)
 457 0328 01F4      		brne .L18
 458               	.LM81:
 459 032a 85E0      		ldi r24,lo8(5)
 460               	.LVL32:
 461               	.L24:
 462 032c 85BD      		out 69-32,r24
 463               	.LVL33:
 464               	.L18:
 465               	.LM82:
 466 032e 822F      		mov r24,r18
 467               	.LVL34:
 468 0330 8095      		com r24
 469 0332 F601      		movw r30,r12
 470 0334 8383      		std Z+3,r24
 471               	.LM83:
 472 0336 8381      		ldd r24,Z+3
 473 0338 86BD      		out 70-32,r24
 474               	.LM84:
 475 033a 81E0      		ldi r24,lo8(1)
 476 033c 8093 6E00 		sts 110,r24
 477               	.LM85:
 478               	/* #APP */
 479               	 ;  326 "timebase.c" 1
 480 0340 7894      		sei
 481               	 ;  0 "" 2
 482               	.LVL35:
 483               	/* #NOAPP */
 484               	.L12:
 485               	.LBE588:
 486               	.LM86:
 487 0342 F601      		movw r30,r12
 488 0344 1283      		std Z+2,r17
 489 0346 0183      		std Z+1,r16
 490               	/* epilogue start */
 491               	.LM87:
 492 0348 2A96      		adiw r28,10
 493 034a 0FB6      		in __tmp_reg__,__SREG__
 494 034c F894      		cli
 495 034e DEBF      		out __SP_H__,r29
 496 0350 0FBE      		out __SREG__,__tmp_reg__
 497 0352 CDBF      		out __SP_L__,r28
 498 0354 CF91      		pop r28
 499 0356 DF91      		pop r29
 500 0358 1F91      		pop r17
 501 035a 0F91      		pop r16
 502               	.LVL36:
 503 035c FF90      		pop r15
 504 035e EF90      		pop r14
 505 0360 DF90      		pop r13
 506 0362 CF90      		pop r12
 507 0364 BF90      		pop r11
 508 0366 AF90      		pop r10
 509 0368 9F90      		pop r9
 510 036a 8F90      		pop r8
 511 036c 7F90      		pop r7
 512 036e 0895      		ret
 513               	.LFE7:
 515               	.global	Timebase_Atomic_Operation_Start
 517               	Timebase_Atomic_Operation_Start:
 518               	.LFB8:
 519               	.LM88:
 520               	/* prologue: function */
 521               	/* frame size = 0 */
 522               	.LM89:
 523               	/* #APP */
 524               	 ;  346 "timebase.c" 1
 525 0370 F894      		cli
 526               	 ;  0 "" 2
 527               	/* epilogue start */
 528               	.LM90:
 529               	/* #NOAPP */
 530 0372 0895      		ret
 531               	.LFE8:
 533               	.global	Timebase_Atomic_Operation_End
 535               	Timebase_Atomic_Operation_End:
 536               	.LFB9:
 537               	.LM91:
 538               	/* prologue: function */
 539               	/* frame size = 0 */
 540               	.LM92:
 541               	/* #APP */
 542               	 ;  350 "timebase.c" 1
 543 0374 7894      		sei
 544               	 ;  0 "" 2
 545               	/* epilogue start */
 546               	.LM93:
 547               	/* #NOAPP */
 548 0376 0895      		ret
 549               	.LFE9:
 551               	.global	Timebase_Token_Executing
 553               	Timebase_Token_Executing:
 554               	.LFB10:
 555               	.LM94:
 556               	/* prologue: function */
 557               	/* frame size = 0 */
 558               	.LM95:
 559 0378 E091 0000 		lds r30,Timebase
 560 037c F091 0000 		lds r31,(Timebase)+1
 561 0380 878D      		ldd r24,Z+31
 562               	/* epilogue start */
 563               	.LM96:
 564 0382 0895      		ret
 565               	.LFE10:
 567               	.global	Timebase_Token_Add
 569               	Timebase_Token_Add:
 570               	.LFB11:
 571               	.LM97:
 572               	/* prologue: function */
 573               	/* frame size = 0 */
 574               	.LBB589:
 575               	.LBB590:
 576               	.LM98:
 577 0384 E091 0000 		lds r30,Timebase
 578 0388 F091 0000 		lds r31,(Timebase)+1
 579 038c 878D      		ldd r24,Z+31
 580               	.LBE590:
 581               	.LBE589:
 582               	.LM99:
 583 038e 8F33      		cpi r24,lo8(63)
 584 0390 00F4      		brsh .L33
 585               	.LM100:
 586 0392 878D      		ldd r24,Z+31
 587 0394 8F5F      		subi r24,lo8(-(1))
 588 0396 878F      		std Z+31,r24
 589               	.L33:
 590 0398 0895      		ret
 591               	.LFE11:
 593               	.global	Timebase_Token_Remove
 595               	Timebase_Token_Remove:
 596               	.LFB12:
 597               	.LM101:
 598               	/* prologue: function */
 599               	/* frame size = 0 */
 600               	.LBB591:
 601               	.LBB592:
 602               	.LM102:
 603 039a E091 0000 		lds r30,Timebase
 604 039e F091 0000 		lds r31,(Timebase)+1
 605 03a2 878D      		ldd r24,Z+31
 606               	.LBE592:
 607               	.LBE591:
 608               	.LM103:
 609 03a4 8823      		tst r24
 610 03a6 01F0      		breq .L36
 611               	.LM104:
 612 03a8 878D      		ldd r24,Z+31
 613 03aa 8150      		subi r24,lo8(-(-1))
 614 03ac 878F      		std Z+31,r24
 615               	.L36:
 616 03ae 0895      		ret
 617               	.LFE12:
 619               	.global	Timebase_Token_Remove_All
 621               	Timebase_Token_Remove_All:
 622               	.LFB13:
 623               	.LM105:
 624               	/* prologue: function */
 625               	/* frame size = 0 */
 626               	.LM106:
 627 03b0 E091 0000 		lds r30,Timebase
 628 03b4 F091 0000 		lds r31,(Timebase)+1
 629 03b8 178E      		std Z+31,__zero_reg__
 630               	/* epilogue start */
 631               	.LM107:
 632 03ba 0895      		ret
 633               	.LFE13:
 635               	.global	Timebase_Timer_Get_SubSecondsShadow
 637               	Timebase_Timer_Get_SubSecondsShadow:
 638               	.LFB14:
 639               	.LM108:
 640               	/* prologue: function */
 641               	/* frame size = 0 */
 642               	.LM109:
 643 03bc E091 0000 		lds r30,Timebase
 644 03c0 F091 0000 		lds r31,(Timebase)+1
 645 03c4 2685      		ldd r18,Z+14
 646 03c6 3785      		ldd r19,Z+15
 647               	.LM110:
 648 03c8 C901      		movw r24,r18
 649               	/* epilogue start */
 650 03ca 0895      		ret
 651               	.LFE14:
 653               	.global	Timebase_Timer_Get_SecondsShadow
 655               	Timebase_Timer_Get_SecondsShadow:
 656               	.LFB15:
 657               	.LM111:
 658               	/* prologue: function */
 659               	/* frame size = 0 */
 660               	.LM112:
 661 03cc E091 0000 		lds r30,Timebase
 662 03d0 F091 0000 		lds r31,(Timebase)+1
 663 03d4 2089      		ldd r18,Z+16
 664 03d6 3189      		ldd r19,Z+17
 665 03d8 4289      		ldd r20,Z+18
 666 03da 5389      		ldd r21,Z+19
 667               	.LM113:
 668 03dc B901      		movw r22,r18
 669 03de CA01      		movw r24,r20
 670               	/* epilogue start */
 671 03e0 0895      		ret
 672               	.LFE15:
 674               	.global	Timebase_Timer_Get_SubSeconds
 676               	Timebase_Timer_Get_SubSeconds:
 677               	.LFB16:
 678               	.LM114:
 679               	/* prologue: function */
 680               	/* frame size = 0 */
 681               	.LM115:
 682 03e2 E091 0000 		lds r30,Timebase
 683 03e6 F091 0000 		lds r31,(Timebase)+1
 684 03ea 2085      		ldd r18,Z+8
 685 03ec 3185      		ldd r19,Z+9
 686               	.LM116:
 687 03ee C901      		movw r24,r18
 688               	/* epilogue start */
 689 03f0 0895      		ret
 690               	.LFE16:
 692               	.global	Timebase_Timer_Get_Seconds
 694               	Timebase_Timer_Get_Seconds:
 695               	.LFB17:
 696               	.LM117:
 697               	/* prologue: function */
 698               	/* frame size = 0 */
 699               	.LM118:
 700 03f2 E091 0000 		lds r30,Timebase
 701 03f6 F091 0000 		lds r31,(Timebase)+1
 702 03fa 2285      		ldd r18,Z+10
 703 03fc 3385      		ldd r19,Z+11
 704 03fe 4485      		ldd r20,Z+12
 705 0400 5585      		ldd r21,Z+13
 706               	.LM119:
 707 0402 B901      		movw r22,r18
 708 0404 CA01      		movw r24,r20
 709               	/* epilogue start */
 710 0406 0895      		ret
 711               	.LFE17:
 713               	.global	Timebase_Timer_Set_SubSeconds
 715               	Timebase_Timer_Set_SubSeconds:
 716               	.LFB18:
 717               	.LM120:
 718               	.LVL37:
 719               	/* prologue: function */
 720               	/* frame size = 0 */
 721               	.LM121:
 722 0408 E091 0000 		lds r30,Timebase
 723 040c F091 0000 		lds r31,(Timebase)+1
 724 0410 9187      		std Z+9,r25
 725 0412 8087      		std Z+8,r24
 726               	/* epilogue start */
 727               	.LM122:
 728 0414 0895      		ret
 729               	.LFE18:
 731               	.global	Timebase_Timer_Set_Seconds
 733               	Timebase_Timer_Set_Seconds:
 734               	.LFB19:
 735               	.LM123:
 736               	.LVL38:
 737               	/* prologue: function */
 738               	/* frame size = 0 */
 739               	.LM124:
 740 0416 E091 0000 		lds r30,Timebase
 741 041a F091 0000 		lds r31,(Timebase)+1
 742 041e 6287      		std Z+10,r22
 743 0420 7387      		std Z+11,r23
 744 0422 8487      		std Z+12,r24
 745 0424 9587      		std Z+13,r25
 746               	/* epilogue start */
 747               	.LM125:
 748 0426 0895      		ret
 749               	.LFE19:
 751               	.global	Timebase_Timer_Sync_With_Shadow_Variables
 753               	Timebase_Timer_Sync_With_Shadow_Variables:
 754               	.LFB20:
 755               	.LM126:
 756               	/* prologue: function */
 757               	/* frame size = 0 */
 758               	.LM127:
 759 0428 E091 0000 		lds r30,Timebase
 760 042c F091 0000 		lds r31,(Timebase)+1
 761 0430 8489      		ldd r24,Z+20
 762 0432 8823      		tst r24
 763 0434 01F4      		brne .L53
 764               	.LBB593:
 765               	.LBB594:
 766               	.LM128:
 767               	/* #APP */
 768               	 ;  346 "timebase.c" 1
 769 0436 F894      		cli
 770               	 ;  0 "" 2
 771               	/* #NOAPP */
 772               	.LBE594:
 773               	.LBE593:
 774               	.LM129:
 775 0438 8685      		ldd r24,Z+14
 776 043a 9785      		ldd r25,Z+15
 777 043c 9187      		std Z+9,r25
 778 043e 8087      		std Z+8,r24
 779               	.LM130:
 780 0440 8089      		ldd r24,Z+16
 781 0442 9189      		ldd r25,Z+17
 782 0444 A289      		ldd r26,Z+18
 783 0446 B389      		ldd r27,Z+19
 784 0448 8287      		std Z+10,r24
 785 044a 9387      		std Z+11,r25
 786 044c A487      		std Z+12,r26
 787 044e B587      		std Z+13,r27
 788               	.LBB595:
 789               	.LBB596:
 790               	.LM131:
 791               	/* #APP */
 792               	 ;  350 "timebase.c" 1
 793 0450 7894      		sei
 794               	 ;  0 "" 2
 795               	/* #NOAPP */
 796               	.LBE596:
 797               	.LBE595:
 798               	.LM132:
 799 0452 81E0      		ldi r24,lo8(1)
 800 0454 848B      		std Z+20,r24
 801               	.L53:
 802 0456 0895      		ret
 803               	.LFE20:
 805               	.global	Timebase_Timer_Delay_SubSeconds
 807               	Timebase_Timer_Delay_SubSeconds:
 808               	.LFB21:
 809               	.LM133:
 810               	.LVL39:
 811 0458 6F92      		push r6
 812 045a 7F92      		push r7
 813 045c 8F92      		push r8
 814 045e 9F92      		push r9
 815 0460 AF92      		push r10
 816 0462 BF92      		push r11
 817 0464 CF92      		push r12
 818 0466 DF92      		push r13
 819 0468 EF92      		push r14
 820 046a FF92      		push r15
 821 046c 0F93      		push r16
 822 046e 1F93      		push r17
 823 0470 CF93      		push r28
 824 0472 DF93      		push r29
 825               	/* prologue: function */
 826               	/* frame size = 0 */
 827 0474 5C01      		movw r10,r24
 828               	.LBB597:
 829               	.LBB598:
 830               	.LM134:
 831               	/* #APP */
 832               	 ;  346 "timebase.c" 1
 833 0476 F894      		cli
 834               	 ;  0 "" 2
 835               	/* #NOAPP */
 836               	.LBE598:
 837               	.LBE597:
 838               	.LBB599:
 839               	.LBB600:
 840               	.LM135:
 841 0478 C091 0000 		lds r28,Timebase
 842 047c D091 0000 		lds r29,(Timebase)+1
 843 0480 EE84      		ldd r14,Y+14
 844 0482 FF84      		ldd r15,Y+15
 845               	.LBE600:
 846               	.LBE599:
 847               	.LBB601:
 848               	.LBB602:
 849               	.LM136:
 850 0484 2889      		ldd r18,Y+16
 851 0486 3989      		ldd r19,Y+17
 852 0488 4A89      		ldd r20,Y+18
 853 048a 5B89      		ldd r21,Y+19
 854               	.LVL40:
 855               	.LBE602:
 856               	.LBE601:
 857               	.LBB603:
 858               	.LBB604:
 859               	.LM137:
 860               	/* #APP */
 861               	 ;  350 "timebase.c" 1
 862 048c 7894      		sei
 863               	 ;  0 "" 2
 864               	/* #NOAPP */
 865               	.LBE604:
 866               	.LBE603:
 867               	.LM138:
 868 048e 6981      		ldd r22,Y+1
 869 0490 7A81      		ldd r23,Y+2
 870 0492 80E0      		ldi r24,lo8(0)
 871 0494 90E0      		ldi r25,hi8(0)
 872               	.LVL41:
 873 0496 0E94 0000 		call __mulsi3
 874               	.LVL42:
 875 049a 3B01      		movw r6,r22
 876 049c 4C01      		movw r8,r24
 877               	.LVL43:
 878               	.LM139:
 879 049e 00E0      		ldi r16,lo8(0)
 880 04a0 10E0      		ldi r17,hi8(0)
 881 04a2 6E0C      		add r6,r14
 882 04a4 7F1C      		adc r7,r15
 883 04a6 801E      		adc r8,r16
 884 04a8 911E      		adc r9,r17
 885               	.LM140:
 886 04aa CC24      		clr r12
 887 04ac DD24      		clr r13
 888               	.LVL44:
 889 04ae 6A0C      		add r6,r10
 890 04b0 7B1C      		adc r7,r11
 891 04b2 8C1C      		adc r8,r12
 892 04b4 9D1C      		adc r9,r13
 893 04b6 60E0      		ldi r22,lo8(0)
 894 04b8 70E0      		ldi r23,hi8(0)
 895 04ba 80E0      		ldi r24,hlo8(0)
 896 04bc 90E0      		ldi r25,hhi8(0)
 897               	.LVL45:
 898 04be 00C0      		rjmp .L55
 899               	.L56:
 900               	.LBB605:
 901               	.LBB606:
 902               	.LM141:
 903               	/* #APP */
 904               	 ;  346 "timebase.c" 1
 905 04c0 F894      		cli
 906               	 ;  0 "" 2
 907               	/* #NOAPP */
 908               	.LBE606:
 909               	.LBE605:
 910               	.LBB607:
 911               	.LBB608:
 912               	.LM142:
 913 04c2 EE84      		ldd r14,Y+14
 914 04c4 FF84      		ldd r15,Y+15
 915               	.LBE608:
 916               	.LBE607:
 917               	.LBB609:
 918               	.LBB610:
 919               	.LM143:
 920 04c6 2889      		ldd r18,Y+16
 921 04c8 3989      		ldd r19,Y+17
 922 04ca 4A89      		ldd r20,Y+18
 923 04cc 5B89      		ldd r21,Y+19
 924               	.LVL46:
 925               	.LBE610:
 926               	.LBE609:
 927               	.LBB611:
 928               	.LBB612:
 929               	.LM144:
 930               	/* #APP */
 931               	 ;  350 "timebase.c" 1
 932 04ce 7894      		sei
 933               	 ;  0 "" 2
 934               	/* #NOAPP */
 935               	.LBE612:
 936               	.LBE611:
 937               	.LM145:
 938 04d0 6981      		ldd r22,Y+1
 939 04d2 7A81      		ldd r23,Y+2
 940               	.LVL47:
 941 04d4 80E0      		ldi r24,lo8(0)
 942 04d6 90E0      		ldi r25,hi8(0)
 943 04d8 0E94 0000 		call __mulsi3
 944               	.LVL48:
 945               	.LM146:
 946 04dc 00E0      		ldi r16,lo8(0)
 947 04de 10E0      		ldi r17,hi8(0)
 948 04e0 6E0D      		add r22,r14
 949 04e2 7F1D      		adc r23,r15
 950 04e4 801F      		adc r24,r16
 951 04e6 911F      		adc r25,r17
 952               	.LVL49:
 953               	.L55:
 954               	.LM147:
 955 04e8 6615      		cp r22,r6
 956 04ea 7705      		cpc r23,r7
 957 04ec 8805      		cpc r24,r8
 958 04ee 9905      		cpc r25,r9
 959 04f0 04F0      		brlt .L56
 960               	/* epilogue start */
 961               	.LM148:
 962 04f2 DF91      		pop r29
 963 04f4 CF91      		pop r28
 964 04f6 1F91      		pop r17
 965 04f8 0F91      		pop r16
 966 04fa FF90      		pop r15
 967 04fc EF90      		pop r14
 968 04fe DF90      		pop r13
 969 0500 CF90      		pop r12
 970               	.LVL50:
 971 0502 BF90      		pop r11
 972 0504 AF90      		pop r10
 973               	.LVL51:
 974 0506 9F90      		pop r9
 975 0508 8F90      		pop r8
 976 050a 7F90      		pop r7
 977 050c 6F90      		pop r6
 978               	.LVL52:
 979 050e 0895      		ret
 980               	.LFE21:
 982               	.global	Timebase_Timer_Await_SubSeconds
 984               	Timebase_Timer_Await_SubSeconds:
 985               	.LFB22:
 986               	.LM149:
 987               	.LVL53:
 988               	/* prologue: function */
 989               	/* frame size = 0 */
 990 0510 BC01      		movw r22,r24
 991               	.LBB613:
 992               	.LBB614:
 993               	.LM150:
 994               	/* #APP */
 995               	 ;  346 "timebase.c" 1
 996 0512 F894      		cli
 997               	 ;  0 "" 2
 998               	/* #NOAPP */
 999               	.LBE614:
 1000               	.LBE613:
 1001               	.LBB615:
 1002               	.LBB616:
 1003               	.LM151:
 1004 0514 E091 0000 		lds r30,Timebase
 1005 0518 F091 0000 		lds r31,(Timebase)+1
 1006 051c 00C0      		rjmp .L63
 1007               	.LVL54:
 1008               	.L60:
 1009               	.LBE616:
 1010               	.LBE615:
 1011               	.LBB617:
 1012               	.LBB618:
 1013               	.LM152:
 1014               	/* #APP */
 1015               	 ;  346 "timebase.c" 1
 1016 051e F894      		cli
 1017               	 ;  0 "" 2
 1018               	.LVL55:
 1019               	/* #NOAPP */
 1020               	.L63:
 1021               	.LBE618:
 1022               	.LBE617:
 1023               	.LBB619:
 1024               	.LBB620:
 1025               	.LM153:
 1026 0520 8685      		ldd r24,Z+14
 1027 0522 9785      		ldd r25,Z+15
 1028               	.LBE620:
 1029               	.LBE619:
 1030               	.LBB621:
 1031               	.LBB622:
 1032               	.LM154:
 1033               	/* #APP */
 1034               	 ;  350 "timebase.c" 1
 1035 0524 7894      		sei
 1036               	 ;  0 "" 2
 1037               	/* #NOAPP */
 1038               	.LBE622:
 1039               	.LBE621:
 1040               	.LM155:
 1041 0526 2481      		ldd r18,Z+4
 1042 0528 3581      		ldd r19,Z+5
 1043 052a 4681      		ldd r20,Z+6
 1044 052c 5781      		ldd r21,Z+7
 1045 052e A0E0      		ldi r26,lo8(0)
 1046 0530 B0E0      		ldi r27,hi8(0)
 1047 0532 8217      		cp r24,r18
 1048 0534 9307      		cpc r25,r19
 1049 0536 A407      		cpc r26,r20
 1050 0538 B507      		cpc r27,r21
 1051 053a 01F4      		brne .L60
 1052               	.LBB623:
 1053               	.LBB624:
 1054               	.LM156:
 1055               	/* #APP */
 1056               	 ;  346 "timebase.c" 1
 1057 053c F894      		cli
 1058               	 ;  0 "" 2
 1059               	/* #NOAPP */
 1060               	.LBE624:
 1061               	.LBE623:
 1062               	.LBB625:
 1063               	.LBB626:
 1064               	.LM157:
 1065 053e 8685      		ldd r24,Z+14
 1066 0540 9785      		ldd r25,Z+15
 1067               	.LVL56:
 1068               	.LBE626:
 1069               	.LBE625:
 1070               	.LBB627:
 1071               	.LBB628:
 1072               	.LM158:
 1073               	/* #APP */
 1074               	 ;  350 "timebase.c" 1
 1075 0542 7894      		sei
 1076               	 ;  0 "" 2
 1077               	/* #NOAPP */
 1078               	.LBE628:
 1079               	.LBE627:
 1080               	.LM159:
 1081 0544 A0E0      		ldi r26,lo8(0)
 1082 0546 B0E0      		ldi r27,hi8(0)
 1083               	.LVL57:
 1084 0548 8483      		std Z+4,r24
 1085 054a 9583      		std Z+5,r25
 1086 054c A683      		std Z+6,r26
 1087 054e B783      		std Z+7,r27
 1088               	.LVL58:
 1089               	.LM160:
 1090 0550 2481      		ldd r18,Z+4
 1091 0552 3581      		ldd r19,Z+5
 1092 0554 4681      		ldd r20,Z+6
 1093 0556 5781      		ldd r21,Z+7
 1094 0558 CB01      		movw r24,r22
 1095 055a A0E0      		ldi r26,lo8(0)
 1096 055c B0E0      		ldi r27,hi8(0)
 1097               	.LVL59:
 1098 055e 820F      		add r24,r18
 1099 0560 931F      		adc r25,r19
 1100 0562 A41F      		adc r26,r20
 1101 0564 B51F      		adc r27,r21
 1102               	.LVL60:
 1103 0566 8483      		std Z+4,r24
 1104 0568 9583      		std Z+5,r25
 1105 056a A683      		std Z+6,r26
 1106 056c B783      		std Z+7,r27
 1107               	.LM161:
 1108 056e 2481      		ldd r18,Z+4
 1109 0570 3581      		ldd r19,Z+5
 1110 0572 4681      		ldd r20,Z+6
 1111 0574 5781      		ldd r21,Z+7
 1112 0576 8181      		ldd r24,Z+1
 1113 0578 9281      		ldd r25,Z+2
 1114               	.LVL61:
 1115 057a A0E0      		ldi r26,lo8(0)
 1116 057c B0E0      		ldi r27,hi8(0)
 1117               	.LVL62:
 1118 057e 2817      		cp r18,r24
 1119 0580 3907      		cpc r19,r25
 1120 0582 4A07      		cpc r20,r26
 1121 0584 5B07      		cpc r21,r27
 1122 0586 04F0      		brlt .L62
 1123               	.LM162:
 1124 0588 2481      		ldd r18,Z+4
 1125 058a 3581      		ldd r19,Z+5
 1126 058c 4681      		ldd r20,Z+6
 1127 058e 5781      		ldd r21,Z+7
 1128 0590 8181      		ldd r24,Z+1
 1129 0592 9281      		ldd r25,Z+2
 1130 0594 A0E0      		ldi r26,lo8(0)
 1131 0596 B0E0      		ldi r27,hi8(0)
 1132 0598 281B      		sub r18,r24
 1133 059a 390B      		sbc r19,r25
 1134 059c 4A0B      		sbc r20,r26
 1135 059e 5B0B      		sbc r21,r27
 1136 05a0 2483      		std Z+4,r18
 1137 05a2 3583      		std Z+5,r19
 1138 05a4 4683      		std Z+6,r20
 1139 05a6 5783      		std Z+7,r21
 1140               	.L62:
 1141 05a8 0895      		ret
 1142               	.LFE22:
 1144               	.global	Timebase_Timer_Delay_Seconds
 1146               	Timebase_Timer_Delay_Seconds:
 1147               	.LFB23:
 1148               	.LM163:
 1149               	.LVL63:
 1150               	/* prologue: function */
 1151               	/* frame size = 0 */
 1152               	.LBB629:
 1153               	.LBB630:
 1154               	.LM164:
 1155               	/* #APP */
 1156               	 ;  346 "timebase.c" 1
 1157 05aa F894      		cli
 1158               	 ;  0 "" 2
 1159               	/* #NOAPP */
 1160               	.LBE630:
 1161               	.LBE629:
 1162               	.LBB631:
 1163               	.LBB632:
 1164               	.LM165:
 1165 05ac E091 0000 		lds r30,Timebase
 1166 05b0 F091 0000 		lds r31,(Timebase)+1
 1167 05b4 2089      		ldd r18,Z+16
 1168 05b6 3189      		ldd r19,Z+17
 1169 05b8 4289      		ldd r20,Z+18
 1170 05ba 5389      		ldd r21,Z+19
 1171               	.LVL64:
 1172               	.LBE632:
 1173               	.LBE631:
 1174               	.LBB633:
 1175               	.LBB634:
 1176               	.LM166:
 1177               	/* #APP */
 1178               	 ;  350 "timebase.c" 1
 1179 05bc 7894      		sei
 1180               	 ;  0 "" 2
 1181               	/* #NOAPP */
 1182               	.LBE634:
 1183               	.LBE633:
 1184               	.LM167:
 1185 05be A0E0      		ldi r26,lo8(0)
 1186 05c0 B0E0      		ldi r27,hi8(0)
 1187               	.LVL65:
 1188 05c2 820F      		add r24,r18
 1189 05c4 931F      		adc r25,r19
 1190 05c6 A41F      		adc r26,r20
 1191 05c8 B51F      		adc r27,r21
 1192               	.LVL66:
 1193 05ca 20E0      		ldi r18,lo8(0)
 1194 05cc 30E0      		ldi r19,hi8(0)
 1195 05ce 40E0      		ldi r20,hlo8(0)
 1196 05d0 50E0      		ldi r21,hhi8(0)
 1197               	.LVL67:
 1198 05d2 00C0      		rjmp .L65
 1199               	.L66:
 1200               	.LBB635:
 1201               	.LBB636:
 1202               	.LM168:
 1203               	/* #APP */
 1204               	 ;  346 "timebase.c" 1
 1205 05d4 F894      		cli
 1206               	 ;  0 "" 2
 1207               	/* #NOAPP */
 1208               	.LBE636:
 1209               	.LBE635:
 1210               	.LBB637:
 1211               	.LBB638:
 1212               	.LM169:
 1213 05d6 2089      		ldd r18,Z+16
 1214 05d8 3189      		ldd r19,Z+17
 1215 05da 4289      		ldd r20,Z+18
 1216 05dc 5389      		ldd r21,Z+19
 1217               	.LBE638:
 1218               	.LBE637:
 1219               	.LBB639:
 1220               	.LBB640:
 1221               	.LM170:
 1222               	/* #APP */
 1223               	 ;  350 "timebase.c" 1
 1224 05de 7894      		sei
 1225               	 ;  0 "" 2
 1226               	/* #NOAPP */
 1227               	.L65:
 1228               	.LBE640:
 1229               	.LBE639:
 1230               	.LM171:
 1231 05e0 2817      		cp r18,r24
 1232 05e2 3907      		cpc r19,r25
 1233 05e4 4A07      		cpc r20,r26
 1234 05e6 5B07      		cpc r21,r27
 1235 05e8 04F0      		brlt .L66
 1236               	/* epilogue start */
 1237               	.LM172:
 1238 05ea 0895      		ret
 1239               	.LFE23:
 1241               	.global	Timebase_Window_Timer_Reset
 1243               	Timebase_Window_Timer_Reset:
 1244               	.LFB24:
 1245               	.LM173:
 1246               	/* prologue: function */
 1247               	/* frame size = 0 */
 1248               	.LM174:
 1249 05ec E091 0000 		lds r30,Timebase
 1250 05f0 F091 0000 		lds r31,(Timebase)+1
 1251 05f4 158A      		std Z+21,__zero_reg__
 1252 05f6 168A      		std Z+22,__zero_reg__
 1253 05f8 178A      		std Z+23,__zero_reg__
 1254 05fa 108E      		std Z+24,__zero_reg__
 1255               	.LM175:
 1256 05fc 118E      		std Z+25,__zero_reg__
 1257 05fe 128E      		std Z+26,__zero_reg__
 1258 0600 138E      		std Z+27,__zero_reg__
 1259 0602 148E      		std Z+28,__zero_reg__
 1260               	.LM176:
 1261 0604 158E      		std Z+29,__zero_reg__
 1262               	/* epilogue start */
 1263               	.LM177:
 1264 0606 0895      		ret
 1265               	.LFE24:
 1267               	.global	Timebase_Window_Timer_Start
 1269               	Timebase_Window_Timer_Start:
 1270               	.LFB25:
 1271               	.LM178:
 1272               	/* prologue: function */
 1273               	/* frame size = 0 */
 1274               	.LM179:
 1275 0608 E091 0000 		lds r30,Timebase
 1276 060c F091 0000 		lds r31,(Timebase)+1
 1277 0610 858D      		ldd r24,Z+29
 1278 0612 8823      		tst r24
 1279 0614 01F4      		brne .L72
 1280               	.LBB641:
 1281               	.LBB642:
 1282               	.LM180:
 1283               	/* #APP */
 1284               	 ;  346 "timebase.c" 1
 1285 0616 F894      		cli
 1286               	 ;  0 "" 2
 1287               	/* #NOAPP */
 1288               	.LBE642:
 1289               	.LBE641:
 1290               	.LBB643:
 1291               	.LBB644:
 1292               	.LM181:
 1293 0618 8089      		ldd r24,Z+16
 1294 061a 9189      		ldd r25,Z+17
 1295 061c A289      		ldd r26,Z+18
 1296 061e B389      		ldd r27,Z+19
 1297               	.LBE644:
 1298               	.LBE643:
 1299               	.LM182:
 1300 0620 858B      		std Z+21,r24
 1301 0622 968B      		std Z+22,r25
 1302 0624 A78B      		std Z+23,r26
 1303 0626 B08F      		std Z+24,r27
 1304               	.LBB645:
 1305               	.LBB646:
 1306               	.LM183:
 1307 0628 8685      		ldd r24,Z+14
 1308 062a 9785      		ldd r25,Z+15
 1309               	.LBE646:
 1310               	.LBE645:
 1311               	.LM184:
 1312 062c A0E0      		ldi r26,lo8(0)
 1313 062e B0E0      		ldi r27,hi8(0)
 1314 0630 818F      		std Z+25,r24
 1315 0632 928F      		std Z+26,r25
 1316 0634 A38F      		std Z+27,r26
 1317 0636 B48F      		std Z+28,r27
 1318               	.LBB647:
 1319               	.LBB648:
 1320               	.LM185:
 1321               	/* #APP */
 1322               	 ;  350 "timebase.c" 1
 1323 0638 7894      		sei
 1324               	 ;  0 "" 2
 1325               	/* #NOAPP */
 1326               	.LBE648:
 1327               	.LBE647:
 1328               	.LM186:
 1329 063a 81E0      		ldi r24,lo8(1)
 1330 063c 858F      		std Z+29,r24
 1331               	.L72:
 1332 063e 0895      		ret
 1333               	.LFE25:
 1335               	.global	Timebase_Window_Timer_Get_Interval
 1337               	Timebase_Window_Timer_Get_Interval:
 1338               	.LFB26:
 1339               	.LM187:
 1340 0640 EF92      		push r14
 1341 0642 FF92      		push r15
 1342 0644 0F93      		push r16
 1343 0646 1F93      		push r17
 1344 0648 CF93      		push r28
 1345 064a DF93      		push r29
 1346               	/* prologue: function */
 1347               	/* frame size = 0 */
 1348               	.LM188:
 1349 064c C091 0000 		lds r28,Timebase
 1350 0650 D091 0000 		lds r29,(Timebase)+1
 1351 0654 8D8D      		ldd r24,Y+29
 1352 0656 8130      		cpi r24,lo8(1)
 1353 0658 01F0      		breq .L74
 1354 065a EE24      		clr r14
 1355 065c FF24      		clr r15
 1356 065e 8701      		movw r16,r14
 1357               	.LVL68:
 1358 0660 00C0      		rjmp .L75
 1359               	.LVL69:
 1360               	.L74:
 1361               	.LBB649:
 1362               	.LBB650:
 1363               	.LM189:
 1364               	/* #APP */
 1365               	 ;  346 "timebase.c" 1
 1366 0662 F894      		cli
 1367               	 ;  0 "" 2
 1368               	/* #NOAPP */
 1369               	.LBE650:
 1370               	.LBE649:
 1371               	.LBB651:
 1372               	.LBB652:
 1373               	.LM190:
 1374 0664 2889      		ldd r18,Y+16
 1375 0666 3989      		ldd r19,Y+17
 1376 0668 4A89      		ldd r20,Y+18
 1377 066a 5B89      		ldd r21,Y+19
 1378               	.LVL70:
 1379               	.LBE652:
 1380               	.LBE651:
 1381               	.LBB653:
 1382               	.LBB654:
 1383               	.LM191:
 1384 066c 8E85      		ldd r24,Y+14
 1385 066e 9F85      		ldd r25,Y+15
 1386               	.LBE654:
 1387               	.LBE653:
 1388               	.LM192:
 1389 0670 7C01      		movw r14,r24
 1390               	.LVL71:
 1391 0672 00E0      		ldi r16,lo8(0)
 1392 0674 10E0      		ldi r17,hi8(0)
 1393               	.LVL72:
 1394               	.LBB655:
 1395               	.LBB656:
 1396               	.LM193:
 1397               	/* #APP */
 1398               	 ;  350 "timebase.c" 1
 1399 0676 7894      		sei
 1400               	 ;  0 "" 2
 1401               	/* #NOAPP */
 1402               	.LBE656:
 1403               	.LBE655:
 1404               	.LM194:
 1405 0678 8D89      		ldd r24,Y+21
 1406 067a 9E89      		ldd r25,Y+22
 1407 067c AF89      		ldd r26,Y+23
 1408 067e B88D      		ldd r27,Y+24
 1409 0680 281B      		sub r18,r24
 1410 0682 390B      		sbc r19,r25
 1411 0684 4A0B      		sbc r20,r26
 1412 0686 5B0B      		sbc r21,r27
 1413               	.LVL73:
 1414               	.LM195:
 1415 0688 6981      		ldd r22,Y+1
 1416 068a 7A81      		ldd r23,Y+2
 1417 068c 80E0      		ldi r24,lo8(0)
 1418 068e 90E0      		ldi r25,hi8(0)
 1419 0690 0E94 0000 		call __mulsi3
 1420               	.LVL74:
 1421               	.LM196:
 1422 0694 298D      		ldd r18,Y+25
 1423 0696 3A8D      		ldd r19,Y+26
 1424 0698 4B8D      		ldd r20,Y+27
 1425 069a 5C8D      		ldd r21,Y+28
 1426 069c E21A      		sub r14,r18
 1427 069e F30A      		sbc r15,r19
 1428 06a0 040B      		sbc r16,r20
 1429 06a2 150B      		sbc r17,r21
 1430               	.LVL75:
 1431 06a4 E60E      		add r14,r22
 1432 06a6 F71E      		adc r15,r23
 1433 06a8 081F      		adc r16,r24
 1434 06aa 191F      		adc r17,r25
 1435               	.L75:
 1436               	.LM197:
 1437 06ac B701      		movw r22,r14
 1438               	.LVL76:
 1439 06ae C801      		movw r24,r16
 1440               	.LVL77:
 1441               	/* epilogue start */
 1442 06b0 DF91      		pop r29
 1443 06b2 CF91      		pop r28
 1444 06b4 1F91      		pop r17
 1445 06b6 0F91      		pop r16
 1446 06b8 FF90      		pop r15
 1447 06ba EF90      		pop r14
 1448 06bc 0895      		ret
 1449               	.LFE26:
 1451               	.global	Timebase_Window_Timer_Get_Interval_Reset
 1453               	Timebase_Window_Timer_Get_Interval_Reset:
 1454               	.LFB27:
 1455               	.LM198:
 1456               	/* prologue: function */
 1457               	/* frame size = 0 */
 1458               	.LM199:
 1459 06be 0E94 0000 		call Timebase_Window_Timer_Get_Interval
 1460 06c2 282F      		mov r18,r24
 1461               	.LVL78:
 1462               	.LM200:
 1463 06c4 E091 0000 		lds r30,Timebase
 1464 06c8 F091 0000 		lds r31,(Timebase)+1
 1465 06cc 858D      		ldd r24,Z+29
 1466 06ce 8130      		cpi r24,lo8(1)
 1467 06d0 01F4      		brne .L78
 1468               	.LBB657:
 1469               	.LBB658:
 1470               	.LM201:
 1471 06d2 158A      		std Z+21,__zero_reg__
 1472 06d4 168A      		std Z+22,__zero_reg__
 1473 06d6 178A      		std Z+23,__zero_reg__
 1474 06d8 108E      		std Z+24,__zero_reg__
 1475               	.LM202:
 1476 06da 118E      		std Z+25,__zero_reg__
 1477 06dc 128E      		std Z+26,__zero_reg__
 1478 06de 138E      		std Z+27,__zero_reg__
 1479 06e0 148E      		std Z+28,__zero_reg__
 1480               	.LM203:
 1481 06e2 158E      		std Z+29,__zero_reg__
 1482               	.L78:
 1483               	.LBE658:
 1484               	.LBE657:
 1485               	.LM204:
 1486 06e4 822F      		mov r24,r18
 1487               	/* epilogue start */
 1488 06e6 0895      		ret
 1489               	.LFE27:
 1491               	.global	Timebase_UpCounter_SS_Get_Status
 1493               	Timebase_UpCounter_SS_Get_Status:
 1494               	.LFB28:
 1495               	.LM205:
 1496               	.LVL79:
 1497               	/* prologue: function */
 1498               	/* frame size = 0 */
 1499               	.LM206:
 1500 06e8 E091 0000 		lds r30,Timebase
 1501 06ec F091 0000 		lds r31,(Timebase)+1
 1502 06f0 90E0      		ldi r25,lo8(0)
 1503               	.LVL80:
 1504 06f2 29E1      		ldi r18,lo8(25)
 1505 06f4 30E0      		ldi r19,hi8(25)
 1506 06f6 AC01      		movw r20,r24
 1507 06f8 429F      		mul r20,r18
 1508 06fa C001      		movw r24,r0
 1509 06fc 439F      		mul r20,r19
 1510 06fe 900D      		add r25,r0
 1511 0700 529F      		mul r21,r18
 1512 0702 900D      		add r25,r0
 1513 0704 1124      		clr r1
 1514               	.LVL81:
 1515 0706 E80F      		add r30,r24
 1516 0708 F91F      		adc r31,r25
 1517 070a 80A1      		ldd r24,Z+32
 1518 070c 8695      		lsr r24
 1519               	.LM207:
 1520 070e 8F70      		andi r24,lo8(15)
 1521               	/* epilogue start */
 1522 0710 0895      		ret
 1523               	.LFE28:
 1525               	.global	Timebase_UpCounter_SS_Set_Status
 1527               	Timebase_UpCounter_SS_Set_Status:
 1528               	.LFB29:
 1529               	.LM208:
 1530               	.LVL82:
 1531               	/* prologue: function */
 1532               	/* frame size = 0 */
 1533               	.LM209:
 1534 0712 E091 0000 		lds r30,Timebase
 1535 0716 F091 0000 		lds r31,(Timebase)+1
 1536 071a 90E0      		ldi r25,lo8(0)
 1537               	.LVL83:
 1538 071c 29E1      		ldi r18,lo8(25)
 1539 071e 30E0      		ldi r19,hi8(25)
 1540 0720 AC01      		movw r20,r24
 1541 0722 429F      		mul r20,r18
 1542 0724 C001      		movw r24,r0
 1543 0726 439F      		mul r20,r19
 1544 0728 900D      		add r25,r0
 1545 072a 529F      		mul r21,r18
 1546 072c 900D      		add r25,r0
 1547 072e 1124      		clr r1
 1548               	.LVL84:
 1549 0730 E80F      		add r30,r24
 1550 0732 F91F      		adc r31,r25
 1551 0734 6F70      		andi r22,lo8(15)
 1552               	.LVL85:
 1553 0736 660F      		lsl r22
 1554 0738 80A1      		ldd r24,Z+32
 1555 073a 817E      		andi r24,lo8(-31)
 1556 073c 862B      		or r24,r22
 1557 073e 80A3      		std Z+32,r24
 1558               	/* epilogue start */
 1559               	.LM210:
 1560 0740 0895      		ret
 1561               	.LFE29:
 1563               	.global	Timebase_UpCounter_SS_Get_Value
 1565               	Timebase_UpCounter_SS_Get_Value:
 1566               	.LFB30:
 1567               	.LM211:
 1568               	.LVL86:
 1569               	/* prologue: function */
 1570               	/* frame size = 0 */
 1571               	.LM212:
 1572 0742 E091 0000 		lds r30,Timebase
 1573 0746 F091 0000 		lds r31,(Timebase)+1
 1574 074a 90E0      		ldi r25,lo8(0)
 1575               	.LVL87:
 1576 074c 29E1      		ldi r18,lo8(25)
 1577 074e 30E0      		ldi r19,hi8(25)
 1578 0750 AC01      		movw r20,r24
 1579 0752 429F      		mul r20,r18
 1580 0754 C001      		movw r24,r0
 1581 0756 439F      		mul r20,r19
 1582 0758 900D      		add r25,r0
 1583 075a 529F      		mul r21,r18
 1584 075c 900D      		add r25,r0
 1585 075e 1124      		clr r1
 1586               	.LVL88:
 1587 0760 E80F      		add r30,r24
 1588 0762 F91F      		adc r31,r25
 1589 0764 DF01      		movw r26,r30
 1590 0766 D196      		adiw r26,49
 1591 0768 61A9      		ldd r22,Z+49
 1592 076a 1196      		adiw r26,1
 1593 076c 7C91      		ld r23,X
 1594 076e 1197      		sbiw r26,1
 1595               	.LM213:
 1596 0770 1296      		adiw r26,2
 1597 0772 8C91      		ld r24,X
 1598 0774 1297      		sbiw r26,2
 1599 0776 1396      		adiw r26,3
 1600 0778 9C91      		ld r25,X
 1601               	.LVL89:
 1602               	/* epilogue start */
 1603 077a 0895      		ret
 1604               	.LFE30:
 1606               	.global	Timebase_UpCounter_SS_Set_Value
 1608               	Timebase_UpCounter_SS_Set_Value:
 1609               	.LFB31:
 1610               	.LM214:
 1611               	.LVL90:
 1612 077c CF93      		push r28
 1613 077e DF93      		push r29
 1614               	/* prologue: function */
 1615               	/* frame size = 0 */
 1616               	.LM215:
 1617 0780 C091 0000 		lds r28,Timebase
 1618 0784 D091 0000 		lds r29,(Timebase)+1
 1619 0788 90E0      		ldi r25,lo8(0)
 1620               	.LVL91:
 1621 078a 29E1      		ldi r18,lo8(25)
 1622 078c 30E0      		ldi r19,hi8(25)
 1623 078e FC01      		movw r30,r24
 1624 0790 E29F      		mul r30,r18
 1625 0792 C001      		movw r24,r0
 1626 0794 E39F      		mul r30,r19
 1627 0796 900D      		add r25,r0
 1628 0798 F29F      		mul r31,r18
 1629 079a 900D      		add r25,r0
 1630 079c 1124      		clr r1
 1631               	.LVL92:
 1632 079e C80F      		add r28,r24
 1633 07a0 D91F      		adc r29,r25
 1634 07a2 CA01      		movw r24,r20
 1635               	.LVL93:
 1636 07a4 DB01      		movw r26,r22
 1637 07a6 B7FF      		sbrs r27,7
 1638 07a8 00C0      		rjmp .L87
 1639               	.LVL94:
 1640 07aa 80E0      		ldi r24,lo8(0)
 1641 07ac 90E0      		ldi r25,hi8(0)
 1642 07ae A0E0      		ldi r26,hlo8(0)
 1643 07b0 B0E0      		ldi r27,hhi8(0)
 1644               	.L87:
 1645 07b2 89AB      		std Y+49,r24
 1646 07b4 9AAB      		std Y+50,r25
 1647 07b6 ABAB      		std Y+51,r26
 1648 07b8 BCAB      		std Y+52,r27
 1649               	/* epilogue start */
 1650               	.LM216:
 1651 07ba DF91      		pop r29
 1652 07bc CF91      		pop r28
 1653 07be 0895      		ret
 1654               	.LFE31:
 1656               	.global	Timebase_UpCounter_SS_Get_EndValueSec
 1658               	Timebase_UpCounter_SS_Get_EndValueSec:
 1659               	.LFB32:
 1660               	.LM217:
 1661               	.LVL95:
 1662               	/* prologue: function */
 1663               	/* frame size = 0 */
 1664               	.LM218:
 1665 07c0 E091 0000 		lds r30,Timebase
 1666 07c4 F091 0000 		lds r31,(Timebase)+1
 1667 07c8 90E0      		ldi r25,lo8(0)
 1668               	.LVL96:
 1669 07ca 29E1      		ldi r18,lo8(25)
 1670 07cc 30E0      		ldi r19,hi8(25)
 1671 07ce AC01      		movw r20,r24
 1672 07d0 429F      		mul r20,r18
 1673 07d2 C001      		movw r24,r0
 1674 07d4 439F      		mul r20,r19
 1675 07d6 900D      		add r25,r0
 1676 07d8 529F      		mul r21,r18
 1677 07da 900D      		add r25,r0
 1678 07dc 1124      		clr r1
 1679               	.LVL97:
 1680 07de E80F      		add r30,r24
 1681 07e0 F91F      		adc r31,r25
 1682 07e2 DF01      		movw r26,r30
 1683 07e4 9196      		adiw r26,33
 1684 07e6 61A1      		ldd r22,Z+33
 1685 07e8 1196      		adiw r26,1
 1686 07ea 7C91      		ld r23,X
 1687 07ec 1197      		sbiw r26,1
 1688               	.LM219:
 1689 07ee 1296      		adiw r26,2
 1690 07f0 8C91      		ld r24,X
 1691 07f2 1297      		sbiw r26,2
 1692 07f4 1396      		adiw r26,3
 1693 07f6 9C91      		ld r25,X
 1694               	.LVL98:
 1695               	/* epilogue start */
 1696 07f8 0895      		ret
 1697               	.LFE32:
 1699               	.global	Timebase_UpCounter_SS_Get_EndValueSubSec
 1701               	Timebase_UpCounter_SS_Get_EndValueSubSec:
 1702               	.LFB33:
 1703               	.LM220:
 1704               	.LVL99:
 1705               	/* prologue: function */
 1706               	/* frame size = 0 */
 1707               	.LM221:
 1708 07fa E091 0000 		lds r30,Timebase
 1709 07fe F091 0000 		lds r31,(Timebase)+1
 1710 0802 90E0      		ldi r25,lo8(0)
 1711               	.LVL100:
 1712 0804 29E1      		ldi r18,lo8(25)
 1713 0806 30E0      		ldi r19,hi8(25)
 1714 0808 AC01      		movw r20,r24
 1715 080a 429F      		mul r20,r18
 1716 080c C001      		movw r24,r0
 1717 080e 439F      		mul r20,r19
 1718 0810 900D      		add r25,r0
 1719 0812 529F      		mul r21,r18
 1720 0814 900D      		add r25,r0
 1721 0816 1124      		clr r1
 1722               	.LVL101:
 1723 0818 E80F      		add r30,r24
 1724 081a F91F      		adc r31,r25
 1725 081c DF01      		movw r26,r30
 1726 081e 9596      		adiw r26,37
 1727 0820 65A1      		ldd r22,Z+37
 1728 0822 1196      		adiw r26,1
 1729 0824 7C91      		ld r23,X
 1730 0826 1197      		sbiw r26,1
 1731               	.LM222:
 1732 0828 1296      		adiw r26,2
 1733 082a 8C91      		ld r24,X
 1734 082c 1297      		sbiw r26,2
 1735 082e 1396      		adiw r26,3
 1736 0830 9C91      		ld r25,X
 1737               	.LVL102:
 1738               	/* epilogue start */
 1739 0832 0895      		ret
 1740               	.LFE33:
 1742               	.global	Timebase_UpCounter_SS_Set_EndValueSec
 1744               	Timebase_UpCounter_SS_Set_EndValueSec:
 1745               	.LFB34:
 1746               	.LM223:
 1747               	.LVL103:
 1748               	/* prologue: function */
 1749               	/* frame size = 0 */
 1750               	.LM224:
 1751 0834 E091 0000 		lds r30,Timebase
 1752 0838 F091 0000 		lds r31,(Timebase)+1
 1753 083c 90E0      		ldi r25,lo8(0)
 1754               	.LVL104:
 1755 083e 29E1      		ldi r18,lo8(25)
 1756 0840 30E0      		ldi r19,hi8(25)
 1757 0842 DC01      		movw r26,r24
 1758 0844 A29F      		mul r26,r18
 1759 0846 C001      		movw r24,r0
 1760 0848 A39F      		mul r26,r19
 1761 084a 900D      		add r25,r0
 1762 084c B29F      		mul r27,r18
 1763 084e 900D      		add r25,r0
 1764 0850 1124      		clr r1
 1765               	.LVL105:
 1766 0852 E80F      		add r30,r24
 1767 0854 F91F      		adc r31,r25
 1768 0856 41A3      		std Z+33,r20
 1769 0858 52A3      		std Z+34,r21
 1770 085a 63A3      		std Z+35,r22
 1771 085c 74A3      		std Z+36,r23
 1772               	/* epilogue start */
 1773               	.LM225:
 1774 085e 0895      		ret
 1775               	.LFE34:
 1777               	.global	Timebase_UpCounter_SS_Set_EndValueSubSec
 1779               	Timebase_UpCounter_SS_Set_EndValueSubSec:
 1780               	.LFB35:
 1781               	.LM226:
 1782               	.LVL106:
 1783               	/* prologue: function */
 1784               	/* frame size = 0 */
 1785               	.LM227:
 1786 0860 E091 0000 		lds r30,Timebase
 1787 0864 F091 0000 		lds r31,(Timebase)+1
 1788 0868 90E0      		ldi r25,lo8(0)
 1789               	.LVL107:
 1790 086a 29E1      		ldi r18,lo8(25)
 1791 086c 30E0      		ldi r19,hi8(25)
 1792 086e DC01      		movw r26,r24
 1793 0870 A29F      		mul r26,r18
 1794 0872 C001      		movw r24,r0
 1795 0874 A39F      		mul r26,r19
 1796 0876 900D      		add r25,r0
 1797 0878 B29F      		mul r27,r18
 1798 087a 900D      		add r25,r0
 1799 087c 1124      		clr r1
 1800               	.LVL108:
 1801 087e E80F      		add r30,r24
 1802 0880 F91F      		adc r31,r25
 1803 0882 45A3      		std Z+37,r20
 1804 0884 56A3      		std Z+38,r21
 1805 0886 67A3      		std Z+39,r22
 1806 0888 70A7      		std Z+40,r23
 1807               	/* epilogue start */
 1808               	.LM228:
 1809 088a 0895      		ret
 1810               	.LFE35:
 1812               	.global	Timebase_UpCounter_SS_Get_TargetValue
 1814               	Timebase_UpCounter_SS_Get_TargetValue:
 1815               	.LFB36:
 1816               	.LM229:
 1817               	.LVL109:
 1818               	/* prologue: function */
 1819               	/* frame size = 0 */
 1820               	.LM230:
 1821 088c E091 0000 		lds r30,Timebase
 1822 0890 F091 0000 		lds r31,(Timebase)+1
 1823 0894 90E0      		ldi r25,lo8(0)
 1824               	.LVL110:
 1825 0896 29E1      		ldi r18,lo8(25)
 1826 0898 30E0      		ldi r19,hi8(25)
 1827 089a AC01      		movw r20,r24
 1828 089c 429F      		mul r20,r18
 1829 089e C001      		movw r24,r0
 1830 08a0 439F      		mul r20,r19
 1831 08a2 900D      		add r25,r0
 1832 08a4 529F      		mul r21,r18
 1833 08a6 900D      		add r25,r0
 1834 08a8 1124      		clr r1
 1835               	.LVL111:
 1836 08aa E80F      		add r30,r24
 1837 08ac F91F      		adc r31,r25
 1838 08ae DF01      		movw r26,r30
 1839 08b0 9996      		adiw r26,41
 1840 08b2 61A5      		ldd r22,Z+41
 1841 08b4 1196      		adiw r26,1
 1842 08b6 7C91      		ld r23,X
 1843 08b8 1197      		sbiw r26,1
 1844               	.LM231:
 1845 08ba 1296      		adiw r26,2
 1846 08bc 8C91      		ld r24,X
 1847 08be 1297      		sbiw r26,2
 1848 08c0 1396      		adiw r26,3
 1849 08c2 9C91      		ld r25,X
 1850               	.LVL112:
 1851               	/* epilogue start */
 1852 08c4 0895      		ret
 1853               	.LFE36:
 1855               	.global	Timebase_UpCounter_SS_Set_TargetValue
 1857               	Timebase_UpCounter_SS_Set_TargetValue:
 1858               	.LFB37:
 1859               	.LM232:
 1860               	.LVL113:
 1861               	/* prologue: function */
 1862               	/* frame size = 0 */
 1863               	.LM233:
 1864 08c6 E091 0000 		lds r30,Timebase
 1865 08ca F091 0000 		lds r31,(Timebase)+1
 1866 08ce 90E0      		ldi r25,lo8(0)
 1867               	.LVL114:
 1868 08d0 29E1      		ldi r18,lo8(25)
 1869 08d2 30E0      		ldi r19,hi8(25)
 1870 08d4 DC01      		movw r26,r24
 1871 08d6 A29F      		mul r26,r18
 1872 08d8 C001      		movw r24,r0
 1873 08da A39F      		mul r26,r19
 1874 08dc 900D      		add r25,r0
 1875 08de B29F      		mul r27,r18
 1876 08e0 900D      		add r25,r0
 1877 08e2 1124      		clr r1
 1878               	.LVL115:
 1879 08e4 E80F      		add r30,r24
 1880 08e6 F91F      		adc r31,r25
 1881 08e8 41A7      		std Z+41,r20
 1882 08ea 52A7      		std Z+42,r21
 1883 08ec 63A7      		std Z+43,r22
 1884 08ee 74A7      		std Z+44,r23
 1885               	/* epilogue start */
 1886               	.LM234:
 1887 08f0 0895      		ret
 1888               	.LFE37:
 1890               	.global	Timebase_UpCounter_SS_Get_TemporaryValue
 1892               	Timebase_UpCounter_SS_Get_TemporaryValue:
 1893               	.LFB38:
 1894               	.LM235:
 1895               	.LVL116:
 1896               	/* prologue: function */
 1897               	/* frame size = 0 */
 1898               	.LM236:
 1899 08f2 E091 0000 		lds r30,Timebase
 1900 08f6 F091 0000 		lds r31,(Timebase)+1
 1901 08fa 90E0      		ldi r25,lo8(0)
 1902               	.LVL117:
 1903 08fc 29E1      		ldi r18,lo8(25)
 1904 08fe 30E0      		ldi r19,hi8(25)
 1905 0900 AC01      		movw r20,r24
 1906 0902 429F      		mul r20,r18
 1907 0904 C001      		movw r24,r0
 1908 0906 439F      		mul r20,r19
 1909 0908 900D      		add r25,r0
 1910 090a 529F      		mul r21,r18
 1911 090c 900D      		add r25,r0
 1912 090e 1124      		clr r1
 1913               	.LVL118:
 1914 0910 E80F      		add r30,r24
 1915 0912 F91F      		adc r31,r25
 1916 0914 DF01      		movw r26,r30
 1917 0916 9D96      		adiw r26,45
 1918 0918 65A5      		ldd r22,Z+45
 1919 091a 1196      		adiw r26,1
 1920 091c 7C91      		ld r23,X
 1921 091e 1197      		sbiw r26,1
 1922               	.LM237:
 1923 0920 1296      		adiw r26,2
 1924 0922 8C91      		ld r24,X
 1925 0924 1297      		sbiw r26,2
 1926 0926 1396      		adiw r26,3
 1927 0928 9C91      		ld r25,X
 1928               	.LVL119:
 1929               	/* epilogue start */
 1930 092a 0895      		ret
 1931               	.LFE38:
 1933               	.global	Timebase_UpCounter_SS_Set_TemporaryValue
 1935               	Timebase_UpCounter_SS_Set_TemporaryValue:
 1936               	.LFB39:
 1937               	.LM238:
 1938               	.LVL120:
 1939 092c CF93      		push r28
 1940 092e DF93      		push r29
 1941               	/* prologue: function */
 1942               	/* frame size = 0 */
 1943               	.LM239:
 1944 0930 C091 0000 		lds r28,Timebase
 1945 0934 D091 0000 		lds r29,(Timebase)+1
 1946 0938 90E0      		ldi r25,lo8(0)
 1947               	.LVL121:
 1948 093a 29E1      		ldi r18,lo8(25)
 1949 093c 30E0      		ldi r19,hi8(25)
 1950 093e FC01      		movw r30,r24
 1951 0940 E29F      		mul r30,r18
 1952 0942 C001      		movw r24,r0
 1953 0944 E39F      		mul r30,r19
 1954 0946 900D      		add r25,r0
 1955 0948 F29F      		mul r31,r18
 1956 094a 900D      		add r25,r0
 1957 094c 1124      		clr r1
 1958               	.LVL122:
 1959 094e C80F      		add r28,r24
 1960 0950 D91F      		adc r29,r25
 1961 0952 CA01      		movw r24,r20
 1962               	.LVL123:
 1963 0954 DB01      		movw r26,r22
 1964 0956 B7FF      		sbrs r27,7
 1965 0958 00C0      		rjmp .L104
 1966               	.LVL124:
 1967 095a 80E0      		ldi r24,lo8(0)
 1968 095c 90E0      		ldi r25,hi8(0)
 1969 095e A0E0      		ldi r26,hlo8(0)
 1970 0960 B0E0      		ldi r27,hhi8(0)
 1971               	.L104:
 1972 0962 8DA7      		std Y+45,r24
 1973 0964 9EA7      		std Y+46,r25
 1974 0966 AFA7      		std Y+47,r26
 1975 0968 B8AB      		std Y+48,r27
 1976               	/* epilogue start */
 1977               	.LM240:
 1978 096a DF91      		pop r29
 1979 096c CF91      		pop r28
 1980 096e 0895      		ret
 1981               	.LFE39:
 1983               	.global	Timebase_UpCounter_SS_Get_PeriodValue
 1985               	Timebase_UpCounter_SS_Get_PeriodValue:
 1986               	.LFB40:
 1987               	.LM241:
 1988               	.LVL125:
 1989               	/* prologue: function */
 1990               	/* frame size = 0 */
 1991               	.LM242:
 1992 0970 E091 0000 		lds r30,Timebase
 1993 0974 F091 0000 		lds r31,(Timebase)+1
 1994 0978 90E0      		ldi r25,lo8(0)
 1995               	.LVL126:
 1996 097a 29E1      		ldi r18,lo8(25)
 1997 097c 30E0      		ldi r19,hi8(25)
 1998 097e AC01      		movw r20,r24
 1999 0980 429F      		mul r20,r18
 2000 0982 C001      		movw r24,r0
 2001 0984 439F      		mul r20,r19
 2002 0986 900D      		add r25,r0
 2003 0988 529F      		mul r21,r18
 2004 098a 900D      		add r25,r0
 2005 098c 1124      		clr r1
 2006               	.LVL127:
 2007 098e E80F      		add r30,r24
 2008 0990 F91F      		adc r31,r25
 2009 0992 DF01      		movw r26,r30
 2010 0994 D596      		adiw r26,53
 2011 0996 65A9      		ldd r22,Z+53
 2012 0998 1196      		adiw r26,1
 2013 099a 7C91      		ld r23,X
 2014 099c 1197      		sbiw r26,1
 2015               	.LM243:
 2016 099e 1296      		adiw r26,2
 2017 09a0 8C91      		ld r24,X
 2018 09a2 1297      		sbiw r26,2
 2019 09a4 1396      		adiw r26,3
 2020 09a6 9C91      		ld r25,X
 2021               	.LVL128:
 2022               	/* epilogue start */
 2023 09a8 0895      		ret
 2024               	.LFE40:
 2026               	.global	Timebase_UpCounter_SS_Set_PeriodValue
 2028               	Timebase_UpCounter_SS_Set_PeriodValue:
 2029               	.LFB41:
 2030               	.LM244:
 2031               	.LVL129:
 2032               	/* prologue: function */
 2033               	/* frame size = 0 */
 2034               	.LM245:
 2035 09aa E091 0000 		lds r30,Timebase
 2036 09ae F091 0000 		lds r31,(Timebase)+1
 2037 09b2 90E0      		ldi r25,lo8(0)
 2038               	.LVL130:
 2039 09b4 29E1      		ldi r18,lo8(25)
 2040 09b6 30E0      		ldi r19,hi8(25)
 2041 09b8 DC01      		movw r26,r24
 2042 09ba A29F      		mul r26,r18
 2043 09bc C001      		movw r24,r0
 2044 09be A39F      		mul r26,r19
 2045 09c0 900D      		add r25,r0
 2046 09c2 B29F      		mul r27,r18
 2047 09c4 900D      		add r25,r0
 2048 09c6 1124      		clr r1
 2049               	.LVL131:
 2050 09c8 E80F      		add r30,r24
 2051 09ca F91F      		adc r31,r25
 2052 09cc 45AB      		std Z+53,r20
 2053 09ce 56AB      		std Z+54,r21
 2054 09d0 67AB      		std Z+55,r22
 2055 09d2 70AF      		std Z+56,r23
 2056               	/* epilogue start */
 2057               	.LM246:
 2058 09d4 0895      		ret
 2059               	.LFE41:
 2061               	.global	Timebase_UpCounter_SS_Get_Period_Flag
 2063               	Timebase_UpCounter_SS_Get_Period_Flag:
 2064               	.LFB42:
 2065               	.LM247:
 2066               	.LVL132:
 2067               	/* prologue: function */
 2068               	/* frame size = 0 */
 2069               	.LM248:
 2070 09d6 E091 0000 		lds r30,Timebase
 2071 09da F091 0000 		lds r31,(Timebase)+1
 2072 09de 90E0      		ldi r25,lo8(0)
 2073               	.LVL133:
 2074 09e0 29E1      		ldi r18,lo8(25)
 2075 09e2 30E0      		ldi r19,hi8(25)
 2076 09e4 AC01      		movw r20,r24
 2077 09e6 429F      		mul r20,r18
 2078 09e8 C001      		movw r24,r0
 2079 09ea 439F      		mul r20,r19
 2080 09ec 900D      		add r25,r0
 2081 09ee 529F      		mul r21,r18
 2082 09f0 900D      		add r25,r0
 2083 09f2 1124      		clr r1
 2084               	.LVL134:
 2085 09f4 E80F      		add r30,r24
 2086 09f6 F91F      		adc r31,r25
 2087 09f8 80A1      		ldd r24,Z+32
 2088               	.LM249:
 2089 09fa 8170      		andi r24,lo8(1)
 2090               	/* epilogue start */
 2091 09fc 0895      		ret
 2092               	.LFE42:
 2094               	.global	Timebase_UpCounter_SS_Set_Period_Flag
 2096               	Timebase_UpCounter_SS_Set_Period_Flag:
 2097               	.LFB43:
 2098               	.LM250:
 2099               	.LVL135:
 2100               	/* prologue: function */
 2101               	/* frame size = 0 */
 2102               	.LM251:
 2103 09fe E091 0000 		lds r30,Timebase
 2104 0a02 F091 0000 		lds r31,(Timebase)+1
 2105 0a06 90E0      		ldi r25,lo8(0)
 2106               	.LVL136:
 2107 0a08 29E1      		ldi r18,lo8(25)
 2108 0a0a 30E0      		ldi r19,hi8(25)
 2109 0a0c AC01      		movw r20,r24
 2110 0a0e 429F      		mul r20,r18
 2111 0a10 C001      		movw r24,r0
 2112 0a12 439F      		mul r20,r19
 2113 0a14 900D      		add r25,r0
 2114 0a16 529F      		mul r21,r18
 2115 0a18 900D      		add r25,r0
 2116 0a1a 1124      		clr r1
 2117               	.LVL137:
 2118 0a1c E80F      		add r30,r24
 2119 0a1e F91F      		adc r31,r25
 2120 0a20 80A1      		ldd r24,Z+32
 2121 0a22 8160      		ori r24,lo8(1)
 2122 0a24 80A3      		std Z+32,r24
 2123               	/* epilogue start */
 2124               	.LM252:
 2125 0a26 0895      		ret
 2126               	.LFE43:
 2128               	.global	Timebase_UpCounter_SS_Clear_Period_Flag
 2130               	Timebase_UpCounter_SS_Clear_Period_Flag:
 2131               	.LFB44:
 2132               	.LM253:
 2133               	.LVL138:
 2134               	/* prologue: function */
 2135               	/* frame size = 0 */
 2136               	.LM254:
 2137 0a28 E091 0000 		lds r30,Timebase
 2138 0a2c F091 0000 		lds r31,(Timebase)+1
 2139 0a30 90E0      		ldi r25,lo8(0)
 2140               	.LVL139:
 2141 0a32 29E1      		ldi r18,lo8(25)
 2142 0a34 30E0      		ldi r19,hi8(25)
 2143 0a36 AC01      		movw r20,r24
 2144 0a38 429F      		mul r20,r18
 2145 0a3a C001      		movw r24,r0
 2146 0a3c 439F      		mul r20,r19
 2147 0a3e 900D      		add r25,r0
 2148 0a40 529F      		mul r21,r18
 2149 0a42 900D      		add r25,r0
 2150 0a44 1124      		clr r1
 2151               	.LVL140:
 2152 0a46 E80F      		add r30,r24
 2153 0a48 F91F      		adc r31,r25
 2154 0a4a 80A1      		ldd r24,Z+32
 2155 0a4c 8E7F      		andi r24,lo8(-2)
 2156 0a4e 80A3      		std Z+32,r24
 2157               	/* epilogue start */
 2158               	.LM255:
 2159 0a50 0895      		ret
 2160               	.LFE44:
 2162               	.global	Timebase_UpCounter_SS_Reset
 2164               	Timebase_UpCounter_SS_Reset:
 2165               	.LFB45:
 2166               	.LM256:
 2167               	.LVL141:
 2168               	/* prologue: function */
 2169               	/* frame size = 0 */
 2170               	.LBB659:
 2171               	.LBB660:
 2172               	.LM257:
 2173 0a52 E091 0000 		lds r30,Timebase
 2174 0a56 F091 0000 		lds r31,(Timebase)+1
 2175 0a5a 90E0      		ldi r25,lo8(0)
 2176 0a5c 29E1      		ldi r18,lo8(25)
 2177 0a5e 30E0      		ldi r19,hi8(25)
 2178 0a60 AC01      		movw r20,r24
 2179               	.LVL142:
 2180 0a62 429F      		mul r20,r18
 2181 0a64 C001      		movw r24,r0
 2182 0a66 439F      		mul r20,r19
 2183 0a68 900D      		add r25,r0
 2184 0a6a 529F      		mul r21,r18
 2185 0a6c 900D      		add r25,r0
 2186 0a6e 1124      		clr r1
 2187 0a70 E80F      		add r30,r24
 2188 0a72 F91F      		adc r31,r25
 2189 0a74 80A1      		ldd r24,Z+32
 2190               	.LBE660:
 2191               	.LBE659:
 2192               	.LBB661:
 2193               	.LBB662:
 2194               	.LM258:
 2195 0a76 11AA      		std Z+49,__zero_reg__
 2196 0a78 12AA      		std Z+50,__zero_reg__
 2197 0a7a 13AA      		std Z+51,__zero_reg__
 2198 0a7c 14AA      		std Z+52,__zero_reg__
 2199               	.LBE662:
 2200               	.LBE661:
 2201               	.LBB663:
 2202               	.LBB664:
 2203               	.LM259:
 2204 0a7e 11A2      		std Z+33,__zero_reg__
 2205 0a80 12A2      		std Z+34,__zero_reg__
 2206 0a82 13A2      		std Z+35,__zero_reg__
 2207 0a84 14A2      		std Z+36,__zero_reg__
 2208               	.LBE664:
 2209               	.LBE663:
 2210               	.LBB665:
 2211               	.LBB666:
 2212               	.LM260:
 2213 0a86 15A2      		std Z+37,__zero_reg__
 2214 0a88 16A2      		std Z+38,__zero_reg__
 2215 0a8a 17A2      		std Z+39,__zero_reg__
 2216 0a8c 10A6      		std Z+40,__zero_reg__
 2217               	.LBE666:
 2218               	.LBE665:
 2219               	.LBB667:
 2220               	.LBB668:
 2221               	.LM261:
 2222 0a8e 11A6      		std Z+41,__zero_reg__
 2223 0a90 12A6      		std Z+42,__zero_reg__
 2224 0a92 13A6      		std Z+43,__zero_reg__
 2225 0a94 14A6      		std Z+44,__zero_reg__
 2226               	.LBE668:
 2227               	.LBE667:
 2228               	.LBB669:
 2229               	.LBB670:
 2230               	.LM262:
 2231 0a96 15A6      		std Z+45,__zero_reg__
 2232 0a98 16A6      		std Z+46,__zero_reg__
 2233 0a9a 17A6      		std Z+47,__zero_reg__
 2234 0a9c 10AA      		std Z+48,__zero_reg__
 2235               	.LBE670:
 2236               	.LBE669:
 2237               	.LBB671:
 2238               	.LBB672:
 2239               	.LM263:
 2240 0a9e 15AA      		std Z+53,__zero_reg__
 2241 0aa0 16AA      		std Z+54,__zero_reg__
 2242 0aa2 17AA      		std Z+55,__zero_reg__
 2243 0aa4 10AE      		std Z+56,__zero_reg__
 2244               	.LBE672:
 2245               	.LBE671:
 2246               	.LBB673:
 2247               	.LBB674:
 2248               	.LM264:
 2249 0aa6 807E      		andi r24,lo8(-32)
 2250 0aa8 80A3      		std Z+32,r24
 2251               	/* epilogue start */
 2252               	.LBE674:
 2253               	.LBE673:
 2254               	.LM265:
 2255 0aaa 0895      		ret
 2256               	.LFE45:
 2258               	.global	Timebase_UpCounter_SS_Clear_All_Flags
 2260               	Timebase_UpCounter_SS_Clear_All_Flags:
 2261               	.LFB46:
 2262               	.LM266:
 2263               	.LVL143:
 2264               	/* prologue: function */
 2265               	/* frame size = 0 */
 2266               	.LM267:
 2267 0aac 0E94 0000 		call Timebase_UpCounter_SS_Reset
 2268               	.LVL144:
 2269               	/* epilogue start */
 2270               	.LM268:
 2271 0ab0 0895      		ret
 2272               	.LFE46:
 2274               	.global	Timebase_UpCounter_SS_Start
 2276               	Timebase_UpCounter_SS_Start:
 2277               	.LFB47:
 2278               	.LM269:
 2279               	.LVL145:
 2280               	/* prologue: function */
 2281               	/* frame size = 0 */
 2282               	.LBB675:
 2283               	.LBB676:
 2284               	.LM270:
 2285 0ab2 E091 0000 		lds r30,Timebase
 2286 0ab6 F091 0000 		lds r31,(Timebase)+1
 2287 0aba 90E0      		ldi r25,lo8(0)
 2288               	.LBE676:
 2289               	.LBE675:
 2290               	.LM271:
 2291 0abc 29E1      		ldi r18,lo8(25)
 2292 0abe 30E0      		ldi r19,hi8(25)
 2293 0ac0 AC01      		movw r20,r24
 2294               	.LVL146:
 2295 0ac2 429F      		mul r20,r18
 2296 0ac4 C001      		movw r24,r0
 2297 0ac6 439F      		mul r20,r19
 2298 0ac8 900D      		add r25,r0
 2299 0aca 529F      		mul r21,r18
 2300 0acc 900D      		add r25,r0
 2301 0ace 1124      		clr r1
 2302 0ad0 E80F      		add r30,r24
 2303 0ad2 F91F      		adc r31,r25
 2304 0ad4 90A1      		ldd r25,Z+32
 2305 0ad6 892F      		mov r24,r25
 2306 0ad8 8695      		lsr r24
 2307 0ada 8F70      		andi r24,lo8(15)
 2308 0adc 8130      		cpi r24,lo8(1)
 2309 0ade 01F0      		breq .L122
 2310               	.LBB677:
 2311               	.LBB678:
 2312               	.LM272:
 2313 0ae0 917E      		andi r25,lo8(-31)
 2314 0ae2 9260      		ori r25,lo8(2)
 2315 0ae4 90A3      		std Z+32,r25
 2316               	.L122:
 2317 0ae6 0895      		ret
 2318               	.LBE678:
 2319               	.LBE677:
 2320               	.LFE47:
 2322               	.global	Timebase_UpCounter_SS_Stop
 2324               	Timebase_UpCounter_SS_Stop:
 2325               	.LFB48:
 2326               	.LM273:
 2327               	.LVL147:
 2328               	/* prologue: function */
 2329               	/* frame size = 0 */
 2330               	.LBB679:
 2331               	.LBB680:
 2332               	.LM274:
 2333 0ae8 E091 0000 		lds r30,Timebase
 2334 0aec F091 0000 		lds r31,(Timebase)+1
 2335 0af0 90E0      		ldi r25,lo8(0)
 2336               	.LBE680:
 2337               	.LBE679:
 2338               	.LM275:
 2339 0af2 29E1      		ldi r18,lo8(25)
 2340 0af4 30E0      		ldi r19,hi8(25)
 2341 0af6 AC01      		movw r20,r24
 2342               	.LVL148:
 2343 0af8 429F      		mul r20,r18
 2344 0afa C001      		movw r24,r0
 2345 0afc 439F      		mul r20,r19
 2346 0afe 900D      		add r25,r0
 2347 0b00 529F      		mul r21,r18
 2348 0b02 900D      		add r25,r0
 2349 0b04 1124      		clr r1
 2350 0b06 E80F      		add r30,r24
 2351 0b08 F91F      		adc r31,r25
 2352 0b0a 90A1      		ldd r25,Z+32
 2353 0b0c 892F      		mov r24,r25
 2354 0b0e 8695      		lsr r24
 2355 0b10 8F70      		andi r24,lo8(15)
 2356 0b12 8230      		cpi r24,lo8(2)
 2357 0b14 01F0      		breq .L125
 2358               	.LBB681:
 2359               	.LBB682:
 2360               	.LM276:
 2361 0b16 917E      		andi r25,lo8(-31)
 2362 0b18 9460      		ori r25,lo8(4)
 2363 0b1a 90A3      		std Z+32,r25
 2364               	.L125:
 2365 0b1c 0895      		ret
 2366               	.LBE682:
 2367               	.LBE681:
 2368               	.LFE48:
 2370               	.global	Timebase_UpCounter_SS_Set_Securely
 2372               	Timebase_UpCounter_SS_Set_Securely:
 2373               	.LFB49:
 2374               	.LM277:
 2375               	.LVL149:
 2376 0b1e 2F92      		push r2
 2377 0b20 3F92      		push r3
 2378 0b22 4F92      		push r4
 2379 0b24 5F92      		push r5
 2380 0b26 6F92      		push r6
 2381 0b28 7F92      		push r7
 2382 0b2a 8F92      		push r8
 2383 0b2c 9F92      		push r9
 2384 0b2e AF92      		push r10
 2385 0b30 BF92      		push r11
 2386 0b32 CF92      		push r12
 2387 0b34 DF92      		push r13
 2388 0b36 EF92      		push r14
 2389 0b38 FF92      		push r15
 2390 0b3a 0F93      		push r16
 2391 0b3c 1F93      		push r17
 2392 0b3e DF93      		push r29
 2393 0b40 CF93      		push r28
 2394 0b42 00D0      		rcall .
 2395 0b44 00D0      		rcall .
 2396 0b46 CDB7      		in r28,__SP_L__
 2397 0b48 DEB7      		in r29,__SP_H__
 2398               	/* prologue: function */
 2399               	/* frame size = 4 */
 2400 0b4a 4A01      		movw r8,r20
 2401 0b4c 5B01      		movw r10,r22
 2402               	.LBB683:
 2403               	.LBB684:
 2404               	.LM278:
 2405 0b4e 2091 0000 		lds r18,Timebase
 2406 0b52 3091 0000 		lds r19,(Timebase)+1
 2407 0b56 3C83      		std Y+4,r19
 2408 0b58 2B83      		std Y+3,r18
 2409 0b5a A82F      		mov r26,r24
 2410 0b5c B0E0      		ldi r27,lo8(0)
 2411 0b5e BA83      		std Y+2,r27
 2412 0b60 A983      		std Y+1,r26
 2413               	.LBE684:
 2414               	.LBE683:
 2415               	.LM279:
 2416 0b62 89E1      		ldi r24,lo8(25)
 2417 0b64 90E0      		ldi r25,hi8(25)
 2418               	.LVL150:
 2419 0b66 A89F      		mul r26,r24
 2420 0b68 F001      		movw r30,r0
 2421 0b6a A99F      		mul r26,r25
 2422 0b6c F00D      		add r31,r0
 2423 0b6e B89F      		mul r27,r24
 2424 0b70 F00D      		add r31,r0
 2425 0b72 1124      		clr r1
 2426 0b74 E20F      		add r30,r18
 2427 0b76 F31F      		adc r31,r19
 2428 0b78 80A1      		ldd r24,Z+32
 2429 0b7a 8695      		lsr r24
 2430 0b7c 8F70      		andi r24,lo8(15)
 2431 0b7e 01F0      		breq .+2
 2432 0b80 00C0      		rjmp .L129
 2433               	.LVL151:
 2434               	.LBB685:
 2435               	.LBB686:
 2436               	.LBB687:
 2437               	.LM280:
 2438 0b82 11AA      		std Z+49,__zero_reg__
 2439 0b84 12AA      		std Z+50,__zero_reg__
 2440 0b86 13AA      		std Z+51,__zero_reg__
 2441 0b88 14AA      		std Z+52,__zero_reg__
 2442               	.LBE687:
 2443               	.LBE686:
 2444               	.LBB688:
 2445               	.LBB689:
 2446               	.LM281:
 2447 0b8a 15A6      		std Z+45,__zero_reg__
 2448 0b8c 16A6      		std Z+46,__zero_reg__
 2449 0b8e 17A6      		std Z+47,__zero_reg__
 2450 0b90 10AA      		std Z+48,__zero_reg__
 2451               	.LBE689:
 2452               	.LBE688:
 2453               	.LBB690:
 2454               	.LBB691:
 2455               	.LM282:
 2456 0b92 41A7      		std Z+41,r20
 2457 0b94 52A7      		std Z+42,r21
 2458 0b96 63A7      		std Z+43,r22
 2459 0b98 74A7      		std Z+44,r23
 2460               	.LBE691:
 2461               	.LBE690:
 2462               	.LBB692:
 2463               	.LBB693:
 2464               	.LM283:
 2465 0b9a F901      		movw r30,r18
 2466 0b9c C084      		ldd r12,Z+8
 2467 0b9e D184      		ldd r13,Z+9
 2468               	.LBE693:
 2469               	.LBE692:
 2470               	.LBB694:
 2471               	.LBB695:
 2472               	.LM284:
 2473 0ba0 2284      		ldd r2,Z+10
 2474 0ba2 3384      		ldd r3,Z+11
 2475 0ba4 4484      		ldd r4,Z+12
 2476 0ba6 5584      		ldd r5,Z+13
 2477               	.LVL152:
 2478               	.LBE695:
 2479               	.LBE694:
 2480               	.LM285:
 2481 0ba8 2181      		ldd r18,Z+1
 2482 0baa 3281      		ldd r19,Z+2
 2483 0bac 40E0      		ldi r20,lo8(0)
 2484 0bae 50E0      		ldi r21,hi8(0)
 2485 0bb0 C501      		movw r24,r10
 2486 0bb2 B401      		movw r22,r8
 2487 0bb4 0E94 0000 		call __divmodsi4
 2488 0bb8 7B01      		movw r14,r22
 2489 0bba 8C01      		movw r16,r24
 2490               	.LM286:
 2491 0bbc AB81      		ldd r26,Y+3
 2492 0bbe BC81      		ldd r27,Y+4
 2493 0bc0 1196      		adiw r26,1
 2494 0bc2 2D91      		ld r18,X+
 2495 0bc4 3C91      		ld r19,X
 2496 0bc6 1297      		sbiw r26,1+1
 2497 0bc8 40E0      		ldi r20,lo8(0)
 2498 0bca 50E0      		ldi r21,hi8(0)
 2499 0bcc C501      		movw r24,r10
 2500 0bce B401      		movw r22,r8
 2501 0bd0 0E94 0000 		call __divmodsi4
 2502 0bd4 C901      		movw r24,r18
 2503 0bd6 DA01      		movw r26,r20
 2504 0bd8 3C01      		movw r6,r24
 2505 0bda 4D01      		movw r8,r26
 2506               	.LVL153:
 2507               	.LM287:
 2508 0bdc 5601      		movw r10,r12
 2509               	.LVL154:
 2510 0bde CC24      		clr r12
 2511 0be0 DD24      		clr r13
 2512               	.LVL155:
 2513 0be2 AE0C      		add r10,r14
 2514 0be4 BF1C      		adc r11,r15
 2515 0be6 C01E      		adc r12,r16
 2516 0be8 D11E      		adc r13,r17
 2517               	.LVL156:
 2518               	.LM288:
 2519 0bea EB81      		ldd r30,Y+3
 2520 0bec FC81      		ldd r31,Y+4
 2521 0bee 8181      		ldd r24,Z+1
 2522 0bf0 9281      		ldd r25,Z+2
 2523               	.LVL157:
 2524 0bf2 A0E0      		ldi r26,lo8(0)
 2525 0bf4 B0E0      		ldi r27,hi8(0)
 2526 0bf6 A816      		cp r10,r24
 2527 0bf8 B906      		cpc r11,r25
 2528 0bfa CA06      		cpc r12,r26
 2529 0bfc DB06      		cpc r13,r27
 2530 0bfe 04F0      		brlt .L128
 2531               	.LM289:
 2532 0c00 0894      		sec
 2533 0c02 611C      		adc r6,__zero_reg__
 2534 0c04 711C      		adc r7,__zero_reg__
 2535 0c06 811C      		adc r8,__zero_reg__
 2536 0c08 911C      		adc r9,__zero_reg__
 2537               	.LM290:
 2538 0c0a 2181      		ldd r18,Z+1
 2539 0c0c 3281      		ldd r19,Z+2
 2540 0c0e 40E0      		ldi r20,lo8(0)
 2541 0c10 50E0      		ldi r21,hi8(0)
 2542 0c12 C601      		movw r24,r12
 2543 0c14 B501      		movw r22,r10
 2544 0c16 0E94 0000 		call __divmodsi4
 2545 0c1a AC01      		movw r20,r24
 2546 0c1c CB01      		movw r24,r22
 2547 0c1e DA01      		movw r26,r20
 2548 0c20 5C01      		movw r10,r24
 2549 0c22 6D01      		movw r12,r26
 2550               	.L128:
 2551               	.LBB696:
 2552               	.LBB697:
 2553               	.LM291:
 2554 0c24 89E1      		ldi r24,lo8(25)
 2555 0c26 90E0      		ldi r25,hi8(25)
 2556 0c28 2981      		ldd r18,Y+1
 2557 0c2a 3A81      		ldd r19,Y+2
 2558 0c2c 289F      		mul r18,r24
 2559 0c2e F001      		movw r30,r0
 2560 0c30 299F      		mul r18,r25
 2561 0c32 F00D      		add r31,r0
 2562 0c34 389F      		mul r19,r24
 2563 0c36 F00D      		add r31,r0
 2564 0c38 1124      		clr r1
 2565 0c3a 8B81      		ldd r24,Y+3
 2566 0c3c 9C81      		ldd r25,Y+4
 2567 0c3e E80F      		add r30,r24
 2568 0c40 F91F      		adc r31,r25
 2569 0c42 260C      		add r2,r6
 2570 0c44 371C      		adc r3,r7
 2571 0c46 481C      		adc r4,r8
 2572 0c48 591C      		adc r5,r9
 2573 0c4a 21A2      		std Z+33,r2
 2574 0c4c 32A2      		std Z+34,r3
 2575 0c4e 43A2      		std Z+35,r4
 2576 0c50 54A2      		std Z+36,r5
 2577               	.LBE697:
 2578               	.LBE696:
 2579               	.LBB698:
 2580               	.LBB699:
 2581               	.LM292:
 2582 0c52 A5A2      		std Z+37,r10
 2583 0c54 B6A2      		std Z+38,r11
 2584 0c56 C7A2      		std Z+39,r12
 2585 0c58 D0A6      		std Z+40,r13
 2586               	.LBE699:
 2587               	.LBE698:
 2588               	.LBB700:
 2589               	.LBB701:
 2590               	.LM293:
 2591 0c5a 90A1      		ldd r25,Z+32
 2592 0c5c 892F      		mov r24,r25
 2593 0c5e 8695      		lsr r24
 2594 0c60 8F70      		andi r24,lo8(15)
 2595 0c62 8130      		cpi r24,lo8(1)
 2596 0c64 01F0      		breq .L129
 2597               	.LBB702:
 2598               	.LBB703:
 2599               	.LM294:
 2600 0c66 917E      		andi r25,lo8(-31)
 2601 0c68 9260      		ori r25,lo8(2)
 2602 0c6a 90A3      		std Z+32,r25
 2603               	.LVL158:
 2604               	.L129:
 2605               	/* epilogue start */
 2606               	.LBE703:
 2607               	.LBE702:
 2608               	.LBE701:
 2609               	.LBE700:
 2610               	.LBE685:
 2611               	.LM295:
 2612 0c6c 0F90      		pop __tmp_reg__
 2613 0c6e 0F90      		pop __tmp_reg__
 2614 0c70 0F90      		pop __tmp_reg__
 2615 0c72 0F90      		pop __tmp_reg__
 2616 0c74 CF91      		pop r28
 2617 0c76 DF91      		pop r29
 2618 0c78 1F91      		pop r17
 2619 0c7a 0F91      		pop r16
 2620 0c7c FF90      		pop r15
 2621 0c7e EF90      		pop r14
 2622 0c80 DF90      		pop r13
 2623 0c82 CF90      		pop r12
 2624               	.LVL159:
 2625 0c84 BF90      		pop r11
 2626 0c86 AF90      		pop r10
 2627               	.LVL160:
 2628 0c88 9F90      		pop r9
 2629 0c8a 8F90      		pop r8
 2630               	.LVL161:
 2631 0c8c 7F90      		pop r7
 2632 0c8e 6F90      		pop r6
 2633               	.LVL162:
 2634 0c90 5F90      		pop r5
 2635 0c92 4F90      		pop r4
 2636 0c94 3F90      		pop r3
 2637 0c96 2F90      		pop r2
 2638               	.LVL163:
 2639 0c98 0895      		ret
 2640               	.LFE49:
 2642               	.global	Timebase_UpCounter_SS_Set_Forcefully
 2644               	Timebase_UpCounter_SS_Set_Forcefully:
 2645               	.LFB50:
 2646               	.LM296:
 2647               	.LVL164:
 2648 0c9a DF92      		push r13
 2649 0c9c EF92      		push r14
 2650 0c9e FF92      		push r15
 2651 0ca0 0F93      		push r16
 2652 0ca2 1F93      		push r17
 2653               	/* prologue: function */
 2654               	/* frame size = 0 */
 2655 0ca4 D82E      		mov r13,r24
 2656 0ca6 7A01      		movw r14,r20
 2657 0ca8 8B01      		movw r16,r22
 2658               	.LM297:
 2659 0caa 0E94 0000 		call Timebase_UpCounter_SS_Reset
 2660               	.LVL165:
 2661               	.LM298:
 2662 0cae 8D2D      		mov r24,r13
 2663 0cb0 B801      		movw r22,r16
 2664 0cb2 A701      		movw r20,r14
 2665 0cb4 0E94 0000 		call Timebase_UpCounter_SS_Set_Securely
 2666               	/* epilogue start */
 2667               	.LM299:
 2668 0cb8 1F91      		pop r17
 2669 0cba 0F91      		pop r16
 2670 0cbc FF90      		pop r15
 2671 0cbe EF90      		pop r14
 2672               	.LVL166:
 2673 0cc0 DF90      		pop r13
 2674               	.LVL167:
 2675 0cc2 0895      		ret
 2676               	.LFE50:
 2678               	.global	Timebase_UpCounter_SS_Update
 2680               	Timebase_UpCounter_SS_Update:
 2681               	.LFB51:
 2682               	.LM300:
 2683               	.LVL168:
 2684 0cc4 2F92      		push r2
 2685 0cc6 3F92      		push r3
 2686 0cc8 4F92      		push r4
 2687 0cca 5F92      		push r5
 2688 0ccc 6F92      		push r6
 2689 0cce 7F92      		push r7
 2690 0cd0 8F92      		push r8
 2691 0cd2 9F92      		push r9
 2692 0cd4 AF92      		push r10
 2693 0cd6 BF92      		push r11
 2694 0cd8 CF92      		push r12
 2695 0cda DF92      		push r13
 2696 0cdc EF92      		push r14
 2697 0cde FF92      		push r15
 2698 0ce0 0F93      		push r16
 2699 0ce2 1F93      		push r17
 2700 0ce4 DF93      		push r29
 2701 0ce6 CF93      		push r28
 2702 0ce8 00D0      		rcall .
 2703 0cea 00D0      		rcall .
 2704 0cec 00D0      		rcall .
 2705 0cee CDB7      		in r28,__SP_L__
 2706 0cf0 DEB7      		in r29,__SP_H__
 2707               	/* prologue: function */
 2708               	/* frame size = 6 */
 2709               	.LBB704:
 2710               	.LBB705:
 2711               	.LM301:
 2712 0cf2 2090 0000 		lds r2,Timebase
 2713 0cf6 3090 0000 		lds r3,(Timebase)+1
 2714 0cfa 282F      		mov r18,r24
 2715 0cfc 30E0      		ldi r19,lo8(0)
 2716 0cfe 3E83      		std Y+6,r19
 2717 0d00 2D83      		std Y+5,r18
 2718 0d02 89E1      		ldi r24,lo8(25)
 2719 0d04 90E0      		ldi r25,hi8(25)
 2720               	.LVL169:
 2721 0d06 289F      		mul r18,r24
 2722 0d08 B001      		movw r22,r0
 2723 0d0a 299F      		mul r18,r25
 2724 0d0c 700D      		add r23,r0
 2725 0d0e 389F      		mul r19,r24
 2726 0d10 700D      		add r23,r0
 2727 0d12 1124      		clr r1
 2728 0d14 620D      		add r22,r2
 2729 0d16 731D      		adc r23,r3
 2730 0d18 DB01      		movw r26,r22
 2731 0d1a 9096      		adiw r26,32
 2732 0d1c 8C91      		ld r24,X
 2733 0d1e 9097      		sbiw r26,32
 2734 0d20 8695      		lsr r24
 2735 0d22 8F70      		andi r24,lo8(15)
 2736               	.LBE705:
 2737               	.LBE704:
 2738               	.LM302:
 2739 0d24 8130      		cpi r24,lo8(1)
 2740 0d26 01F0      		breq .+2
 2741 0d28 00C0      		rjmp .L133
 2742               	.LBB706:
 2743               	.LBB707:
 2744               	.LM303:
 2745 0d2a F101      		movw r30,r2
 2746 0d2c 2285      		ldd r18,Z+10
 2747 0d2e 3385      		ldd r19,Z+11
 2748 0d30 4485      		ldd r20,Z+12
 2749 0d32 5585      		ldd r21,Z+13
 2750               	.LVL170:
 2751               	.LBE707:
 2752               	.LBE706:
 2753               	.LBB708:
 2754               	.LBB709:
 2755               	.LM304:
 2756 0d34 8085      		ldd r24,Z+8
 2757 0d36 9185      		ldd r25,Z+9
 2758               	.LBE709:
 2759               	.LBE708:
 2760               	.LM305:
 2761 0d38 2C01      		movw r4,r24
 2762               	.LVL171:
 2763 0d3a 6624      		clr r6
 2764 0d3c 7724      		clr r7
 2765               	.LVL172:
 2766               	.LM306:
 2767 0d3e 9196      		adiw r26,33
 2768 0d40 8D90      		ld r8,X+
 2769 0d42 9D90      		ld r9,X+
 2770 0d44 AD90      		ld r10,X+
 2771 0d46 BC90      		ld r11,X
 2772 0d48 9497      		sbiw r26,33+3
 2773               	.LVL173:
 2774 0d4a 821A      		sub r8,r18
 2775 0d4c 930A      		sbc r9,r19
 2776 0d4e A40A      		sbc r10,r20
 2777 0d50 B50A      		sbc r11,r21
 2778 0d52 B7FE      		sbrs r11,7
 2779 0d54 00C0      		rjmp .L134
 2780 0d56 8824      		clr r8
 2781 0d58 9924      		clr r9
 2782 0d5a 5401      		movw r10,r8
 2783               	.L134:
 2784               	.LM307:
 2785 0d5c D101      		movw r26,r2
 2786 0d5e 1196      		adiw r26,1
 2787 0d60 2D91      		ld r18,X+
 2788 0d62 3C91      		ld r19,X
 2789 0d64 1297      		sbiw r26,1+1
 2790               	.LM308:
 2791 0d66 89E1      		ldi r24,lo8(25)
 2792 0d68 90E0      		ldi r25,hi8(25)
 2793 0d6a 4D81      		ldd r20,Y+5
 2794 0d6c 5E81      		ldd r21,Y+6
 2795 0d6e 489F      		mul r20,r24
 2796 0d70 F001      		movw r30,r0
 2797 0d72 499F      		mul r20,r25
 2798 0d74 F00D      		add r31,r0
 2799 0d76 589F      		mul r21,r24
 2800 0d78 F00D      		add r31,r0
 2801 0d7a 1124      		clr r1
 2802 0d7c E20D      		add r30,r2
 2803 0d7e F31D      		adc r31,r3
 2804 0d80 E5A0      		ldd r14,Z+37
 2805 0d82 F6A0      		ldd r15,Z+38
 2806 0d84 07A1      		ldd r16,Z+39
 2807 0d86 10A5      		ldd r17,Z+40
 2808               	.LVL174:
 2809 0d88 E418      		sub r14,r4
 2810 0d8a F508      		sbc r15,r5
 2811 0d8c 0609      		sbc r16,r6
 2812 0d8e 1709      		sbc r17,r7
 2813 0d90 17FF      		sbrs r17,7
 2814 0d92 00C0      		rjmp .L135
 2815 0d94 EE24      		clr r14
 2816 0d96 FF24      		clr r15
 2817 0d98 8701      		movw r16,r14
 2818               	.L135:
 2819               	.LM309:
 2820 0d9a 40E0      		ldi r20,lo8(0)
 2821 0d9c 50E0      		ldi r21,hi8(0)
 2822 0d9e C501      		movw r24,r10
 2823 0da0 B401      		movw r22,r8
 2824 0da2 0E94 0000 		call __mulsi3
 2825 0da6 6E0D      		add r22,r14
 2826 0da8 7F1D      		adc r23,r15
 2827 0daa 801F      		adc r24,r16
 2828 0dac 911F      		adc r25,r17
 2829               	.LVL175:
 2830               	.LBB710:
 2831               	.LBB711:
 2832               	.LM310:
 2833 0dae 29E1      		ldi r18,lo8(25)
 2834 0db0 30E0      		ldi r19,hi8(25)
 2835 0db2 AD81      		ldd r26,Y+5
 2836 0db4 BE81      		ldd r27,Y+6
 2837 0db6 A29F      		mul r26,r18
 2838 0db8 F001      		movw r30,r0
 2839 0dba A39F      		mul r26,r19
 2840 0dbc F00D      		add r31,r0
 2841 0dbe B29F      		mul r27,r18
 2842 0dc0 F00D      		add r31,r0
 2843 0dc2 1124      		clr r1
 2844 0dc4 E20D      		add r30,r2
 2845 0dc6 F31D      		adc r31,r3
 2846 0dc8 65A7      		std Z+45,r22
 2847 0dca 76A7      		std Z+46,r23
 2848 0dcc 87A7      		std Z+47,r24
 2849 0dce 90AB      		std Z+48,r25
 2850               	.LBE711:
 2851               	.LBE710:
 2852               	.LM311:
 2853 0dd0 21A5      		ldd r18,Z+41
 2854 0dd2 32A5      		ldd r19,Z+42
 2855 0dd4 43A5      		ldd r20,Z+43
 2856 0dd6 54A5      		ldd r21,Z+44
 2857               	.LVL176:
 2858               	.LBB712:
 2859               	.LBB713:
 2860               	.LM312:
 2861 0dd8 261B      		sub r18,r22
 2862 0dda 370B      		sbc r19,r23
 2863 0ddc 480B      		sbc r20,r24
 2864 0dde 590B      		sbc r21,r25
 2865 0de0 57FF      		sbrs r21,7
 2866 0de2 00C0      		rjmp .L136
 2867 0de4 20E0      		ldi r18,lo8(0)
 2868 0de6 30E0      		ldi r19,hi8(0)
 2869 0de8 40E0      		ldi r20,hlo8(0)
 2870 0dea 50E0      		ldi r21,hhi8(0)
 2871               	.L136:
 2872 0dec 21AB      		std Z+49,r18
 2873 0dee 32AB      		std Z+50,r19
 2874 0df0 43AB      		std Z+51,r20
 2875 0df2 54AB      		std Z+52,r21
 2876               	.LBE713:
 2877               	.LBE712:
 2878               	.LM313:
 2879 0df4 89E1      		ldi r24,lo8(25)
 2880 0df6 90E0      		ldi r25,hi8(25)
 2881 0df8 ED81      		ldd r30,Y+5
 2882 0dfa FE81      		ldd r31,Y+6
 2883 0dfc E89F      		mul r30,r24
 2884 0dfe B001      		movw r22,r0
 2885 0e00 E99F      		mul r30,r25
 2886 0e02 700D      		add r23,r0
 2887 0e04 F89F      		mul r31,r24
 2888 0e06 700D      		add r23,r0
 2889 0e08 1124      		clr r1
 2890               	.LVL177:
 2891 0e0a 620D      		add r22,r2
 2892 0e0c 731D      		adc r23,r3
 2893 0e0e FB01      		movw r30,r22
 2894 0e10 85A5      		ldd r24,Z+45
 2895 0e12 96A5      		ldd r25,Z+46
 2896 0e14 A7A5      		ldd r26,Z+47
 2897 0e16 B0A9      		ldd r27,Z+48
 2898 0e18 1816      		cp __zero_reg__,r24
 2899 0e1a 1906      		cpc __zero_reg__,r25
 2900 0e1c 1A06      		cpc __zero_reg__,r26
 2901 0e1e 1B06      		cpc __zero_reg__,r27
 2902 0e20 04F4      		brge .+2
 2903 0e22 00C0      		rjmp .L141
 2904               	.LBB714:
 2905               	.LBB715:
 2906               	.LM314:
 2907 0e24 DB01      		movw r26,r22
 2908 0e26 9196      		adiw r26,33
 2909 0e28 1D92      		st X+,__zero_reg__
 2910 0e2a 1D92      		st X+,__zero_reg__
 2911 0e2c 1D92      		st X+,__zero_reg__
 2912 0e2e 1C92      		st X,__zero_reg__
 2913 0e30 9497      		sbiw r26,33+3
 2914               	.LBE715:
 2915               	.LBE714:
 2916               	.LBB716:
 2917               	.LBB717:
 2918               	.LM315:
 2919 0e32 15A2      		std Z+37,__zero_reg__
 2920 0e34 16A2      		std Z+38,__zero_reg__
 2921 0e36 17A2      		std Z+39,__zero_reg__
 2922 0e38 10A6      		std Z+40,__zero_reg__
 2923               	.LBE717:
 2924               	.LBE716:
 2925               	.LBB718:
 2926               	.LBB719:
 2927               	.LM316:
 2928 0e3a 9D96      		adiw r26,45
 2929 0e3c 1D92      		st X+,__zero_reg__
 2930 0e3e 1D92      		st X+,__zero_reg__
 2931 0e40 1D92      		st X+,__zero_reg__
 2932 0e42 1C92      		st X,__zero_reg__
 2933 0e44 D097      		sbiw r26,45+3
 2934               	.LBE719:
 2935               	.LBE718:
 2936               	.LBB720:
 2937               	.LBB721:
 2938               	.LM317:
 2939 0e46 B996      		adiw r30,41
 2940               	.LBE721:
 2941               	.LBE720:
 2942               	.LBB722:
 2943               	.LBB723:
 2944               	.LM318:
 2945 0e48 9996      		adiw r26,41
 2946 0e4a 2C91      		ld r18,X
 2947               	.LVL178:
 2948 0e4c 3181      		ldd r19,Z+1
 2949               	.LVL179:
 2950 0e4e 4281      		ldd r20,Z+2
 2951               	.LVL180:
 2952 0e50 5381      		ldd r21,Z+3
 2953               	.LVL181:
 2954 0e52 C901      		movw r24,r18
 2955               	.LVL182:
 2956 0e54 DA01      		movw r26,r20
 2957               	.LVL183:
 2958 0e56 B7FF      		sbrs r27,7
 2959 0e58 00C0      		rjmp .L138
 2960               	.LVL184:
 2961 0e5a 80E0      		ldi r24,lo8(0)
 2962 0e5c 90E0      		ldi r25,hi8(0)
 2963 0e5e A0E0      		ldi r26,hlo8(0)
 2964 0e60 B0E0      		ldi r27,hhi8(0)
 2965               	.L138:
 2966 0e62 FB01      		movw r30,r22
 2967 0e64 81AB      		std Z+49,r24
 2968 0e66 92AB      		std Z+50,r25
 2969 0e68 A3AB      		std Z+51,r26
 2970 0e6a B4AB      		std Z+52,r27
 2971               	.LBE723:
 2972               	.LBE722:
 2973               	.LBB724:
 2974               	.LBB725:
 2975               	.LM319:
 2976 0e6c 89E1      		ldi r24,lo8(25)
 2977 0e6e 90E0      		ldi r25,hi8(25)
 2978               	.LVL185:
 2979 0e70 2D81      		ldd r18,Y+5
 2980 0e72 3E81      		ldd r19,Y+6
 2981 0e74 289F      		mul r18,r24
 2982 0e76 F001      		movw r30,r0
 2983 0e78 299F      		mul r18,r25
 2984 0e7a F00D      		add r31,r0
 2985 0e7c 389F      		mul r19,r24
 2986 0e7e F00D      		add r31,r0
 2987 0e80 1124      		clr r1
 2988 0e82 E20D      		add r30,r2
 2989 0e84 F31D      		adc r31,r3
 2990 0e86 80A1      		ldd r24,Z+32
 2991 0e88 817E      		andi r24,lo8(-31)
 2992 0e8a 8860      		ori r24,lo8(8)
 2993 0e8c 80A3      		std Z+32,r24
 2994 0e8e 00C0      		rjmp .L141
 2995               	.LVL186:
 2996               	.L133:
 2997               	.LBE725:
 2998               	.LBE724:
 2999               	.LM320:
 3000 0e90 8230      		cpi r24,lo8(2)
 3001 0e92 01F0      		breq .+2
 3002 0e94 00C0      		rjmp .L141
 3003               	.LBB726:
 3004               	.LBB727:
 3005               	.LBB728:
 3006               	.LM321:
 3007 0e96 D101      		movw r26,r2
 3008 0e98 1A96      		adiw r26,10
 3009 0e9a 8D91      		ld r24,X+
 3010 0e9c 9D91      		ld r25,X+
 3011 0e9e 0D90      		ld __tmp_reg__,X+
 3012 0ea0 BC91      		ld r27,X
 3013 0ea2 A02D      		mov r26,__tmp_reg__
 3014 0ea4 8983      		std Y+1,r24
 3015 0ea6 9A83      		std Y+2,r25
 3016 0ea8 AB83      		std Y+3,r26
 3017 0eaa BC83      		std Y+4,r27
 3018               	.LVL187:
 3019               	.LBE728:
 3020               	.LBE727:
 3021               	.LBB729:
 3022               	.LBB730:
 3023               	.LM322:
 3024 0eac F101      		movw r30,r2
 3025 0eae 8084      		ldd r8,Z+8
 3026 0eb0 9184      		ldd r9,Z+9
 3027               	.LBE730:
 3028               	.LBE729:
 3029               	.LBB731:
 3030               	.LBB732:
 3031               	.LM323:
 3032 0eb2 DB01      		movw r26,r22
 3033 0eb4 9D96      		adiw r26,45
 3034 0eb6 AD90      		ld r10,X+
 3035 0eb8 BD90      		ld r11,X+
 3036 0eba CD90      		ld r12,X+
 3037 0ebc DC90      		ld r13,X
 3038 0ebe D097      		sbiw r26,45+3
 3039               	.LVL188:
 3040               	.LBE732:
 3041               	.LBE731:
 3042               	.LM324:
 3043 0ec0 2181      		ldd r18,Z+1
 3044 0ec2 3281      		ldd r19,Z+2
 3045 0ec4 40E0      		ldi r20,lo8(0)
 3046 0ec6 50E0      		ldi r21,hi8(0)
 3047 0ec8 C601      		movw r24,r12
 3048 0eca B501      		movw r22,r10
 3049 0ecc 0E94 0000 		call __divmodsi4
 3050 0ed0 7B01      		movw r14,r22
 3051 0ed2 8C01      		movw r16,r24
 3052               	.LM325:
 3053 0ed4 F101      		movw r30,r2
 3054 0ed6 2181      		ldd r18,Z+1
 3055 0ed8 3281      		ldd r19,Z+2
 3056 0eda 40E0      		ldi r20,lo8(0)
 3057 0edc 50E0      		ldi r21,hi8(0)
 3058 0ede C601      		movw r24,r12
 3059 0ee0 B501      		movw r22,r10
 3060 0ee2 0E94 0000 		call __divmodsi4
 3061 0ee6 C901      		movw r24,r18
 3062 0ee8 DA01      		movw r26,r20
 3063 0eea 2C01      		movw r4,r24
 3064 0eec 3D01      		movw r6,r26
 3065               	.LVL189:
 3066               	.LM326:
 3067 0eee AA24      		clr r10
 3068 0ef0 BB24      		clr r11
 3069               	.LVL190:
 3070 0ef2 8E0C      		add r8,r14
 3071 0ef4 9F1C      		adc r9,r15
 3072 0ef6 A01E      		adc r10,r16
 3073 0ef8 B11E      		adc r11,r17
 3074               	.LVL191:
 3075               	.LM327:
 3076 0efa D101      		movw r26,r2
 3077 0efc 1196      		adiw r26,1
 3078 0efe 8D91      		ld r24,X+
 3079 0f00 9C91      		ld r25,X
 3080 0f02 1297      		sbiw r26,1+1
 3081               	.LVL192:
 3082 0f04 A0E0      		ldi r26,lo8(0)
 3083 0f06 B0E0      		ldi r27,hi8(0)
 3084 0f08 8816      		cp r8,r24
 3085 0f0a 9906      		cpc r9,r25
 3086 0f0c AA06      		cpc r10,r26
 3087 0f0e BB06      		cpc r11,r27
 3088 0f10 04F0      		brlt .L139
 3089               	.LM328:
 3090 0f12 0894      		sec
 3091 0f14 411C      		adc r4,__zero_reg__
 3092 0f16 511C      		adc r5,__zero_reg__
 3093 0f18 611C      		adc r6,__zero_reg__
 3094 0f1a 711C      		adc r7,__zero_reg__
 3095               	.LM329:
 3096 0f1c F101      		movw r30,r2
 3097 0f1e 2181      		ldd r18,Z+1
 3098 0f20 3281      		ldd r19,Z+2
 3099 0f22 40E0      		ldi r20,lo8(0)
 3100 0f24 50E0      		ldi r21,hi8(0)
 3101 0f26 C501      		movw r24,r10
 3102 0f28 B401      		movw r22,r8
 3103 0f2a 0E94 0000 		call __divmodsi4
 3104 0f2e AC01      		movw r20,r24
 3105 0f30 CB01      		movw r24,r22
 3106 0f32 DA01      		movw r26,r20
 3107 0f34 4C01      		movw r8,r24
 3108 0f36 5D01      		movw r10,r26
 3109               	.L139:
 3110               	.LBB733:
 3111               	.LBB734:
 3112               	.LM330:
 3113 0f38 89E1      		ldi r24,lo8(25)
 3114 0f3a 90E0      		ldi r25,hi8(25)
 3115 0f3c 2D81      		ldd r18,Y+5
 3116 0f3e 3E81      		ldd r19,Y+6
 3117 0f40 289F      		mul r18,r24
 3118 0f42 8001      		movw r16,r0
 3119 0f44 299F      		mul r18,r25
 3120 0f46 100D      		add r17,r0
 3121 0f48 389F      		mul r19,r24
 3122 0f4a 100D      		add r17,r0
 3123 0f4c 1124      		clr r1
 3124 0f4e 020D      		add r16,r2
 3125 0f50 131D      		adc r17,r3
 3126 0f52 8981      		ldd r24,Y+1
 3127 0f54 9A81      		ldd r25,Y+2
 3128 0f56 AB81      		ldd r26,Y+3
 3129 0f58 BC81      		ldd r27,Y+4
 3130 0f5a 840D      		add r24,r4
 3131 0f5c 951D      		adc r25,r5
 3132 0f5e A61D      		adc r26,r6
 3133 0f60 B71D      		adc r27,r7
 3134 0f62 F801      		movw r30,r16
 3135 0f64 81A3      		std Z+33,r24
 3136 0f66 92A3      		std Z+34,r25
 3137 0f68 A3A3      		std Z+35,r26
 3138 0f6a B4A3      		std Z+36,r27
 3139               	.LBE734:
 3140               	.LBE733:
 3141               	.LBB735:
 3142               	.LBB736:
 3143               	.LM331:
 3144 0f6c D801      		movw r26,r16
 3145 0f6e 9596      		adiw r26,37
 3146 0f70 8D92      		st X+,r8
 3147 0f72 9D92      		st X+,r9
 3148 0f74 AD92      		st X+,r10
 3149 0f76 BC92      		st X,r11
 3150 0f78 9897      		sbiw r26,37+3
 3151               	.LBE736:
 3152               	.LBE735:
 3153               	.LM332:
 3154 0f7a 9996      		adiw r26,41
 3155 0f7c 2D91      		ld r18,X+
 3156 0f7e 3D91      		ld r19,X+
 3157 0f80 4D91      		ld r20,X+
 3158 0f82 5C91      		ld r21,X
 3159 0f84 9C97      		sbiw r26,41+3
 3160               	.LVL193:
 3161 0f86 9D96      		adiw r26,45
 3162 0f88 8D91      		ld r24,X+
 3163 0f8a 9D91      		ld r25,X+
 3164 0f8c 0D90      		ld __tmp_reg__,X+
 3165 0f8e BC91      		ld r27,X
 3166 0f90 A02D      		mov r26,__tmp_reg__
 3167               	.LBB737:
 3168               	.LBB738:
 3169               	.LM333:
 3170 0f92 281B      		sub r18,r24
 3171 0f94 390B      		sbc r19,r25
 3172 0f96 4A0B      		sbc r20,r26
 3173 0f98 5B0B      		sbc r21,r27
 3174 0f9a 57FF      		sbrs r21,7
 3175 0f9c 00C0      		rjmp .L140
 3176 0f9e 20E0      		ldi r18,lo8(0)
 3177 0fa0 30E0      		ldi r19,hi8(0)
 3178 0fa2 40E0      		ldi r20,hlo8(0)
 3179 0fa4 50E0      		ldi r21,hhi8(0)
 3180               	.L140:
 3181 0fa6 F801      		movw r30,r16
 3182 0fa8 21AB      		std Z+49,r18
 3183 0faa 32AB      		std Z+50,r19
 3184 0fac 43AB      		std Z+51,r20
 3185 0fae 54AB      		std Z+52,r21
 3186               	.LVL194:
 3187               	.L141:
 3188               	/* epilogue start */
 3189               	.LBE738:
 3190               	.LBE737:
 3191               	.LBE726:
 3192               	.LM334:
 3193 0fb0 2696      		adiw r28,6
 3194 0fb2 0FB6      		in __tmp_reg__,__SREG__
 3195 0fb4 F894      		cli
 3196 0fb6 DEBF      		out __SP_H__,r29
 3197 0fb8 0FBE      		out __SREG__,__tmp_reg__
 3198 0fba CDBF      		out __SP_L__,r28
 3199 0fbc CF91      		pop r28
 3200 0fbe DF91      		pop r29
 3201 0fc0 1F91      		pop r17
 3202 0fc2 0F91      		pop r16
 3203 0fc4 FF90      		pop r15
 3204 0fc6 EF90      		pop r14
 3205 0fc8 DF90      		pop r13
 3206 0fca CF90      		pop r12
 3207 0fcc BF90      		pop r11
 3208 0fce AF90      		pop r10
 3209               	.LVL195:
 3210 0fd0 9F90      		pop r9
 3211 0fd2 8F90      		pop r8
 3212               	.LVL196:
 3213 0fd4 7F90      		pop r7
 3214 0fd6 6F90      		pop r6
 3215               	.LVL197:
 3216 0fd8 5F90      		pop r5
 3217 0fda 4F90      		pop r4
 3218               	.LVL198:
 3219 0fdc 3F90      		pop r3
 3220 0fde 2F90      		pop r2
 3221 0fe0 0895      		ret
 3222               	.LFE51:
 3224               	.global	Timebase_UpCounter_SS_Expired
 3226               	Timebase_UpCounter_SS_Expired:
 3227               	.LFB52:
 3228               	.LM335:
 3229               	.LVL199:
 3230               	/* prologue: function */
 3231               	/* frame size = 0 */
 3232               	.LM336:
 3233 0fe2 40E0      		ldi r20,lo8(0)
 3234 0fe4 E091 0000 		lds r30,Timebase
 3235 0fe8 F091 0000 		lds r31,(Timebase)+1
 3236 0fec 90E0      		ldi r25,lo8(0)
 3237               	.LVL200:
 3238 0fee 29E1      		ldi r18,lo8(25)
 3239 0ff0 30E0      		ldi r19,hi8(25)
 3240 0ff2 BC01      		movw r22,r24
 3241 0ff4 629F      		mul r22,r18
 3242 0ff6 C001      		movw r24,r0
 3243 0ff8 639F      		mul r22,r19
 3244 0ffa 900D      		add r25,r0
 3245 0ffc 729F      		mul r23,r18
 3246 0ffe 900D      		add r25,r0
 3247 1000 1124      		clr r1
 3248               	.LVL201:
 3249 1002 E80F      		add r30,r24
 3250 1004 F91F      		adc r31,r25
 3251 1006 80A1      		ldd r24,Z+32
 3252 1008 8695      		lsr r24
 3253 100a 8F70      		andi r24,lo8(15)
 3254 100c 8430      		cpi r24,lo8(4)
 3255 100e 01F4      		brne .L143
 3256 1010 41E0      		ldi r20,lo8(1)
 3257               	.L143:
 3258               	.LM337:
 3259 1012 842F      		mov r24,r20
 3260               	/* epilogue start */
 3261 1014 0895      		ret
 3262               	.LFE52:
 3264               	.global	Timebase_UpCounter_SS_Expired_Event
 3266               	Timebase_UpCounter_SS_Expired_Event:
 3267               	.LFB53:
 3268               	.LM338:
 3269               	.LVL202:
 3270               	/* prologue: function */
 3271               	/* frame size = 0 */
 3272 1016 482F      		mov r20,r24
 3273               	.LM339:
 3274 1018 E091 0000 		lds r30,Timebase
 3275 101c F091 0000 		lds r31,(Timebase)+1
 3276 1020 282F      		mov r18,r24
 3277 1022 30E0      		ldi r19,lo8(0)
 3278               	.LVL203:
 3279 1024 89E1      		ldi r24,lo8(25)
 3280 1026 90E0      		ldi r25,hi8(25)
 3281               	.LVL204:
 3282 1028 BC01      		movw r22,r24
 3283 102a 269F      		mul r18,r22
 3284 102c C001      		movw r24,r0
 3285 102e 279F      		mul r18,r23
 3286 1030 900D      		add r25,r0
 3287 1032 369F      		mul r19,r22
 3288 1034 900D      		add r25,r0
 3289 1036 1124      		clr r1
 3290 1038 E80F      		add r30,r24
 3291 103a F91F      		adc r31,r25
 3292 103c 80A1      		ldd r24,Z+32
 3293 103e 8695      		lsr r24
 3294 1040 8F70      		andi r24,lo8(15)
 3295 1042 8430      		cpi r24,lo8(4)
 3296 1044 01F0      		breq .L146
 3297 1046 80E0      		ldi r24,lo8(0)
 3298 1048 0895      		ret
 3299               	.L146:
 3300               	.LBB739:
 3301               	.LBB740:
 3302               	.LM340:
 3303 104a 842F      		mov r24,r20
 3304 104c 0E94 0000 		call Timebase_UpCounter_SS_Reset
 3305               	.LVL205:
 3306 1050 81E0      		ldi r24,lo8(1)
 3307               	.LBE740:
 3308               	.LBE739:
 3309               	.LM341:
 3310 1052 0895      		ret
 3311               	.LFE53:
 3313               	.global	Timebase_UpCounter_SS_Set_Period_Value_Securely
 3315               	Timebase_UpCounter_SS_Set_Period_Value_Securely:
 3316               	.LFB54:
 3317               	.LM342:
 3318               	.LVL206:
 3319               	/* prologue: function */
 3320               	/* frame size = 0 */
 3321               	.LBB741:
 3322               	.LBB742:
 3323               	.LM343:
 3324 1054 E091 0000 		lds r30,Timebase
 3325 1058 F091 0000 		lds r31,(Timebase)+1
 3326 105c 90E0      		ldi r25,lo8(0)
 3327               	.LBE742:
 3328               	.LBE741:
 3329               	.LM344:
 3330 105e 29E1      		ldi r18,lo8(25)
 3331 1060 30E0      		ldi r19,hi8(25)
 3332 1062 DC01      		movw r26,r24
 3333               	.LVL207:
 3334 1064 A29F      		mul r26,r18
 3335 1066 C001      		movw r24,r0
 3336 1068 A39F      		mul r26,r19
 3337 106a 900D      		add r25,r0
 3338 106c B29F      		mul r27,r18
 3339 106e 900D      		add r25,r0
 3340 1070 1124      		clr r1
 3341 1072 E80F      		add r30,r24
 3342 1074 F91F      		adc r31,r25
 3343 1076 80A1      		ldd r24,Z+32
 3344 1078 80FD      		sbrc r24,0
 3345 107a 00C0      		rjmp .L151
 3346               	.LBB743:
 3347               	.LBB744:
 3348               	.LM345:
 3349 107c 81A9      		ldd r24,Z+49
 3350 107e 92A9      		ldd r25,Z+50
 3351 1080 A3A9      		ldd r26,Z+51
 3352 1082 B4A9      		ldd r27,Z+52
 3353 1084 840F      		add r24,r20
 3354 1086 951F      		adc r25,r21
 3355 1088 A61F      		adc r26,r22
 3356 108a B71F      		adc r27,r23
 3357 108c 85AB      		std Z+53,r24
 3358 108e 96AB      		std Z+54,r25
 3359 1090 A7AB      		std Z+55,r26
 3360 1092 B0AF      		std Z+56,r27
 3361               	.LBE744:
 3362               	.LBE743:
 3363               	.LBB745:
 3364               	.LBB746:
 3365               	.LM346:
 3366 1094 80A1      		ldd r24,Z+32
 3367 1096 8160      		ori r24,lo8(1)
 3368 1098 80A3      		std Z+32,r24
 3369               	.L151:
 3370 109a 0895      		ret
 3371               	.LBE746:
 3372               	.LBE745:
 3373               	.LFE54:
 3375               	.global	Timebase_UpCounter_SS_Get_Remaining_Period_Value
 3377               	Timebase_UpCounter_SS_Get_Remaining_Period_Value:
 3378               	.LFB55:
 3379               	.LM347:
 3380               	.LVL208:
 3381               	/* prologue: function */
 3382               	/* frame size = 0 */
 3383               	.LBB747:
 3384               	.LBB748:
 3385               	.LM348:
 3386 109c E091 0000 		lds r30,Timebase
 3387 10a0 F091 0000 		lds r31,(Timebase)+1
 3388 10a4 90E0      		ldi r25,lo8(0)
 3389 10a6 29E1      		ldi r18,lo8(25)
 3390 10a8 30E0      		ldi r19,hi8(25)
 3391 10aa AC01      		movw r20,r24
 3392               	.LVL209:
 3393 10ac 429F      		mul r20,r18
 3394 10ae C001      		movw r24,r0
 3395 10b0 439F      		mul r20,r19
 3396 10b2 900D      		add r25,r0
 3397 10b4 529F      		mul r21,r18
 3398 10b6 900D      		add r25,r0
 3399 10b8 1124      		clr r1
 3400 10ba E80F      		add r30,r24
 3401 10bc F91F      		adc r31,r25
 3402 10be 25A9      		ldd r18,Z+53
 3403 10c0 36A9      		ldd r19,Z+54
 3404 10c2 47A9      		ldd r20,Z+55
 3405 10c4 50AD      		ldd r21,Z+56
 3406               	.LVL210:
 3407               	.LBE748:
 3408               	.LBE747:
 3409               	.LM349:
 3410 10c6 81A9      		ldd r24,Z+49
 3411 10c8 92A9      		ldd r25,Z+50
 3412 10ca A3A9      		ldd r26,Z+51
 3413 10cc B4A9      		ldd r27,Z+52
 3414 10ce 281B      		sub r18,r24
 3415 10d0 390B      		sbc r19,r25
 3416 10d2 4A0B      		sbc r20,r26
 3417 10d4 5B0B      		sbc r21,r27
 3418 10d6 57FF      		sbrs r21,7
 3419 10d8 00C0      		rjmp .L153
 3420 10da 20E0      		ldi r18,lo8(0)
 3421 10dc 30E0      		ldi r19,hi8(0)
 3422 10de 40E0      		ldi r20,hlo8(0)
 3423 10e0 50E0      		ldi r21,hhi8(0)
 3424               	.L153:
 3425               	.LM350:
 3426 10e2 B901      		movw r22,r18
 3427               	.LVL211:
 3428 10e4 CA01      		movw r24,r20
 3429               	/* epilogue start */
 3430 10e6 0895      		ret
 3431               	.LFE55:
 3433               	.global	Timebase_UpCounter_SS_Period_Value_Expired
 3435               	Timebase_UpCounter_SS_Period_Value_Expired:
 3436               	.LFB56:
 3437               	.LM351:
 3438               	.LVL212:
 3439 10e8 CF93      		push r28
 3440 10ea DF93      		push r29
 3441               	/* prologue: function */
 3442               	/* frame size = 0 */
 3443               	.LBB749:
 3444               	.LBB750:
 3445               	.LBB751:
 3446               	.LBB752:
 3447               	.LM352:
 3448 10ec C091 0000 		lds r28,Timebase
 3449 10f0 D091 0000 		lds r29,(Timebase)+1
 3450 10f4 682F      		mov r22,r24
 3451 10f6 70E0      		ldi r23,lo8(0)
 3452 10f8 89E1      		ldi r24,lo8(25)
 3453 10fa 90E0      		ldi r25,hi8(25)
 3454               	.LVL213:
 3455 10fc 689F      		mul r22,r24
 3456 10fe F001      		movw r30,r0
 3457 1100 699F      		mul r22,r25
 3458 1102 F00D      		add r31,r0
 3459 1104 789F      		mul r23,r24
 3460 1106 F00D      		add r31,r0
 3461 1108 1124      		clr r1
 3462 110a EC0F      		add r30,r28
 3463 110c FD1F      		adc r31,r29
 3464 110e 25A9      		ldd r18,Z+53
 3465 1110 36A9      		ldd r19,Z+54
 3466 1112 47A9      		ldd r20,Z+55
 3467 1114 50AD      		ldd r21,Z+56
 3468               	.LVL214:
 3469               	.LBE752:
 3470               	.LBE751:
 3471               	.LM353:
 3472 1116 81A9      		ldd r24,Z+49
 3473 1118 92A9      		ldd r25,Z+50
 3474 111a A3A9      		ldd r26,Z+51
 3475 111c B4A9      		ldd r27,Z+52
 3476 111e 281B      		sub r18,r24
 3477 1120 390B      		sbc r19,r25
 3478 1122 4A0B      		sbc r20,r26
 3479 1124 5B0B      		sbc r21,r27
 3480               	.LM354:
 3481 1126 57FD      		sbrc r21,7
 3482 1128 00C0      		rjmp .L156
 3483               	.LBE750:
 3484               	.LBE749:
 3485               	.LM355:
 3486 112a 2115      		cp r18,__zero_reg__
 3487 112c 3105      		cpc r19,__zero_reg__
 3488 112e 4105      		cpc r20,__zero_reg__
 3489 1130 5105      		cpc r21,__zero_reg__
 3490 1132 01F0      		breq .L156
 3491 1134 20E0      		ldi r18,lo8(0)
 3492               	.LVL215:
 3493 1136 00C0      		rjmp .L157
 3494               	.LVL216:
 3495               	.L156:
 3496 1138 20E0      		ldi r18,lo8(0)
 3497               	.LVL217:
 3498 113a 89E1      		ldi r24,lo8(25)
 3499 113c 90E0      		ldi r25,hi8(25)
 3500 113e AC01      		movw r20,r24
 3501 1140 649F      		mul r22,r20
 3502 1142 C001      		movw r24,r0
 3503 1144 659F      		mul r22,r21
 3504 1146 900D      		add r25,r0
 3505 1148 749F      		mul r23,r20
 3506 114a 900D      		add r25,r0
 3507 114c 1124      		clr r1
 3508 114e C80F      		add r28,r24
 3509 1150 D91F      		adc r29,r25
 3510 1152 88A1      		ldd r24,Y+32
 3511 1154 80FF      		sbrs r24,0
 3512 1156 21E0      		ldi r18,lo8(1)
 3513               	.L158:
 3514 1158 81E0      		ldi r24,lo8(1)
 3515 115a 2827      		eor r18,r24
 3516               	.L157:
 3517               	.LM356:
 3518 115c 822F      		mov r24,r18
 3519               	/* epilogue start */
 3520 115e DF91      		pop r29
 3521 1160 CF91      		pop r28
 3522 1162 0895      		ret
 3523               	.LFE56:
 3525               	.global	Timebase_UpCounter_SS_Period_Value_Expired_Event
 3527               	Timebase_UpCounter_SS_Period_Value_Expired_Event:
 3528               	.LFB57:
 3529               	.LM357:
 3530               	.LVL218:
 3531 1164 1F93      		push r17
 3532               	/* prologue: function */
 3533               	/* frame size = 0 */
 3534 1166 182F      		mov r17,r24
 3535               	.LM358:
 3536 1168 0E94 0000 		call Timebase_UpCounter_SS_Period_Value_Expired
 3537               	.LVL219:
 3538 116c 8130      		cpi r24,lo8(1)
 3539 116e 01F0      		breq .L161
 3540 1170 80E0      		ldi r24,lo8(0)
 3541 1172 00C0      		rjmp .L162
 3542               	.L161:
 3543               	.LBB753:
 3544               	.LBB754:
 3545               	.LM359:
 3546 1174 E091 0000 		lds r30,Timebase
 3547 1178 F091 0000 		lds r31,(Timebase)+1
 3548 117c 212F      		mov r18,r17
 3549 117e 30E0      		ldi r19,lo8(0)
 3550               	.LVL220:
 3551 1180 89E1      		ldi r24,lo8(25)
 3552 1182 90E0      		ldi r25,hi8(25)
 3553 1184 AC01      		movw r20,r24
 3554 1186 249F      		mul r18,r20
 3555 1188 C001      		movw r24,r0
 3556 118a 259F      		mul r18,r21
 3557 118c 900D      		add r25,r0
 3558 118e 349F      		mul r19,r20
 3559 1190 900D      		add r25,r0
 3560 1192 1124      		clr r1
 3561 1194 E80F      		add r30,r24
 3562 1196 F91F      		adc r31,r25
 3563 1198 80A1      		ldd r24,Z+32
 3564 119a 8E7F      		andi r24,lo8(-2)
 3565 119c 80A3      		std Z+32,r24
 3566 119e 81E0      		ldi r24,lo8(1)
 3567               	.L162:
 3568               	/* epilogue start */
 3569               	.LBE754:
 3570               	.LBE753:
 3571               	.LM360:
 3572 11a0 1F91      		pop r17
 3573               	.LVL221:
 3574 11a2 0895      		ret
 3575               	.LFE57:
 3577               	.global	Timebase_UpCounter_SS_Update_All
 3579               	Timebase_UpCounter_SS_Update_All:
 3580               	.LFB58:
 3581               	.LM361:
 3582               	/* prologue: function */
 3583               	/* frame size = 0 */
 3584               	.LBB755:
 3585               	.LM362:
 3586 11a4 80E0      		ldi r24,lo8(0)
 3587 11a6 0E94 0000 		call Timebase_UpCounter_SS_Update
 3588               	/* epilogue start */
 3589               	.LBE755:
 3590               	.LM363:
 3591 11aa 0895      		ret
 3592               	.LFE58:
 3594               	.global	Timebase_UpCounter_SS_Reset_All
 3596               	Timebase_UpCounter_SS_Reset_All:
 3597               	.LFB59:
 3598               	.LM364:
 3599               	/* prologue: function */
 3600               	/* frame size = 0 */
 3601               	.LBB756:
 3602               	.LM365:
 3603 11ac 80E0      		ldi r24,lo8(0)
 3604 11ae 0E94 0000 		call Timebase_UpCounter_SS_Reset
 3605               	/* epilogue start */
 3606               	.LBE756:
 3607               	.LM366:
 3608 11b2 0895      		ret
 3609               	.LFE59:
 3611               	.global	Timebase_UpCounter_Get_Status
 3613               	Timebase_UpCounter_Get_Status:
 3614               	.LFB60:
 3615               	.LM367:
 3616               	.LVL222:
 3617               	/* prologue: function */
 3618               	/* frame size = 0 */
 3619               	.LM368:
 3620 11b4 E091 0000 		lds r30,Timebase
 3621 11b8 F091 0000 		lds r31,(Timebase)+1
 3622 11bc 90E0      		ldi r25,lo8(0)
 3623               	.LVL223:
 3624 11be 25E1      		ldi r18,lo8(21)
 3625 11c0 30E0      		ldi r19,hi8(21)
 3626 11c2 AC01      		movw r20,r24
 3627 11c4 429F      		mul r20,r18
 3628 11c6 C001      		movw r24,r0
 3629 11c8 439F      		mul r20,r19
 3630 11ca 900D      		add r25,r0
 3631 11cc 529F      		mul r21,r18
 3632 11ce 900D      		add r25,r0
 3633 11d0 1124      		clr r1
 3634               	.LVL224:
 3635 11d2 E80F      		add r30,r24
 3636 11d4 F91F      		adc r31,r25
 3637 11d6 81AD      		ldd r24,Z+57
 3638 11d8 8695      		lsr r24
 3639               	.LM369:
 3640 11da 8F70      		andi r24,lo8(15)
 3641               	/* epilogue start */
 3642 11dc 0895      		ret
 3643               	.LFE60:
 3645               	.global	Timebase_UpCounter_Set_Status
 3647               	Timebase_UpCounter_Set_Status:
 3648               	.LFB61:
 3649               	.LM370:
 3650               	.LVL225:
 3651               	/* prologue: function */
 3652               	/* frame size = 0 */
 3653               	.LM371:
 3654 11de E091 0000 		lds r30,Timebase
 3655 11e2 F091 0000 		lds r31,(Timebase)+1
 3656 11e6 90E0      		ldi r25,lo8(0)
 3657               	.LVL226:
 3658 11e8 25E1      		ldi r18,lo8(21)
 3659 11ea 30E0      		ldi r19,hi8(21)
 3660 11ec AC01      		movw r20,r24
 3661 11ee 429F      		mul r20,r18
 3662 11f0 C001      		movw r24,r0
 3663 11f2 439F      		mul r20,r19
 3664 11f4 900D      		add r25,r0
 3665 11f6 529F      		mul r21,r18
 3666 11f8 900D      		add r25,r0
 3667 11fa 1124      		clr r1
 3668               	.LVL227:
 3669 11fc E80F      		add r30,r24
 3670 11fe F91F      		adc r31,r25
 3671 1200 6F70      		andi r22,lo8(15)
 3672               	.LVL228:
 3673 1202 660F      		lsl r22
 3674 1204 81AD      		ldd r24,Z+57
 3675 1206 817E      		andi r24,lo8(-31)
 3676 1208 862B      		or r24,r22
 3677 120a 81AF      		std Z+57,r24
 3678               	/* epilogue start */
 3679               	.LM372:
 3680 120c 0895      		ret
 3681               	.LFE61:
 3683               	.global	Timebase_UpCounter_Get_Value
 3685               	Timebase_UpCounter_Get_Value:
 3686               	.LFB62:
 3687               	.LM373:
 3688               	.LVL229:
 3689               	/* prologue: function */
 3690               	/* frame size = 0 */
 3691               	.LM374:
 3692 120e E091 0000 		lds r30,Timebase
 3693 1212 F091 0000 		lds r31,(Timebase)+1
 3694 1216 90E0      		ldi r25,lo8(0)
 3695               	.LVL230:
 3696 1218 25E1      		ldi r18,lo8(21)
 3697 121a 30E0      		ldi r19,hi8(21)
 3698 121c AC01      		movw r20,r24
 3699 121e 429F      		mul r20,r18
 3700 1220 C001      		movw r24,r0
 3701 1222 439F      		mul r20,r19
 3702 1224 900D      		add r25,r0
 3703 1226 529F      		mul r21,r18
 3704 1228 900D      		add r25,r0
 3705 122a 1124      		clr r1
 3706               	.LVL231:
 3707 122c E80F      		add r30,r24
 3708 122e F91F      		adc r31,r25
 3709 1230 EA5B      		subi r30,lo8(-(70))
 3710 1232 FF4F      		sbci r31,hi8(-(70))
 3711 1234 6081      		ld r22,Z
 3712 1236 7181      		ldd r23,Z+1
 3713               	.LM375:
 3714 1238 8281      		ldd r24,Z+2
 3715 123a 9381      		ldd r25,Z+3
 3716               	.LVL232:
 3717               	/* epilogue start */
 3718 123c 0895      		ret
 3719               	.LFE62:
 3721               	.global	Timebase_UpCounter_Set_Value
 3723               	Timebase_UpCounter_Set_Value:
 3724               	.LFB63:
 3725               	.LM376:
 3726               	.LVL233:
 3727               	/* prologue: function */
 3728               	/* frame size = 0 */
 3729               	.LM377:
 3730 123e E091 0000 		lds r30,Timebase
 3731 1242 F091 0000 		lds r31,(Timebase)+1
 3732 1246 90E0      		ldi r25,lo8(0)
 3733               	.LVL234:
 3734 1248 25E1      		ldi r18,lo8(21)
 3735 124a 30E0      		ldi r19,hi8(21)
 3736 124c DC01      		movw r26,r24
 3737 124e A29F      		mul r26,r18
 3738 1250 C001      		movw r24,r0
 3739 1252 A39F      		mul r26,r19
 3740 1254 900D      		add r25,r0
 3741 1256 B29F      		mul r27,r18
 3742 1258 900D      		add r25,r0
 3743 125a 1124      		clr r1
 3744               	.LVL235:
 3745 125c E80F      		add r30,r24
 3746 125e F91F      		adc r31,r25
 3747 1260 EA5B      		subi r30,lo8(-(70))
 3748 1262 FF4F      		sbci r31,hi8(-(70))
 3749 1264 4083      		st Z,r20
 3750 1266 5183      		std Z+1,r21
 3751 1268 6283      		std Z+2,r22
 3752 126a 7383      		std Z+3,r23
 3753               	/* epilogue start */
 3754               	.LM378:
 3755 126c 0895      		ret
 3756               	.LFE63:
 3758               	.global	Timebase_UpCounter_Get_EndValueSec
 3760               	Timebase_UpCounter_Get_EndValueSec:
 3761               	.LFB64:
 3762               	.LM379:
 3763               	.LVL236:
 3764               	/* prologue: function */
 3765               	/* frame size = 0 */
 3766               	.LM380:
 3767 126e E091 0000 		lds r30,Timebase
 3768 1272 F091 0000 		lds r31,(Timebase)+1
 3769 1276 90E0      		ldi r25,lo8(0)
 3770               	.LVL237:
 3771 1278 25E1      		ldi r18,lo8(21)
 3772 127a 30E0      		ldi r19,hi8(21)
 3773 127c AC01      		movw r20,r24
 3774 127e 429F      		mul r20,r18
 3775 1280 C001      		movw r24,r0
 3776 1282 439F      		mul r20,r19
 3777 1284 900D      		add r25,r0
 3778 1286 529F      		mul r21,r18
 3779 1288 900D      		add r25,r0
 3780 128a 1124      		clr r1
 3781               	.LVL238:
 3782 128c E80F      		add r30,r24
 3783 128e F91F      		adc r31,r25
 3784 1290 DF01      		movw r26,r30
 3785 1292 DA96      		adiw r26,58
 3786 1294 62AD      		ldd r22,Z+58
 3787 1296 1196      		adiw r26,1
 3788 1298 7C91      		ld r23,X
 3789 129a 1197      		sbiw r26,1
 3790               	.LM381:
 3791 129c 1296      		adiw r26,2
 3792 129e 8C91      		ld r24,X
 3793 12a0 1297      		sbiw r26,2
 3794 12a2 1396      		adiw r26,3
 3795 12a4 9C91      		ld r25,X
 3796               	.LVL239:
 3797               	/* epilogue start */
 3798 12a6 0895      		ret
 3799               	.LFE64:
 3801               	.global	Timebase_UpCounter_Get_EndValueSubSec
 3803               	Timebase_UpCounter_Get_EndValueSubSec:
 3804               	.LFB65:
 3805               	.LM382:
 3806               	.LVL240:
 3807               	/* prologue: function */
 3808               	/* frame size = 0 */
 3809               	.LM383:
 3810 12a8 E091 0000 		lds r30,Timebase
 3811 12ac F091 0000 		lds r31,(Timebase)+1
 3812 12b0 90E0      		ldi r25,lo8(0)
 3813               	.LVL241:
 3814 12b2 25E1      		ldi r18,lo8(21)
 3815 12b4 30E0      		ldi r19,hi8(21)
 3816 12b6 AC01      		movw r20,r24
 3817 12b8 429F      		mul r20,r18
 3818 12ba C001      		movw r24,r0
 3819 12bc 439F      		mul r20,r19
 3820 12be 900D      		add r25,r0
 3821 12c0 529F      		mul r21,r18
 3822 12c2 900D      		add r25,r0
 3823 12c4 1124      		clr r1
 3824               	.LVL242:
 3825 12c6 E80F      		add r30,r24
 3826 12c8 F91F      		adc r31,r25
 3827 12ca DF01      		movw r26,r30
 3828 12cc DA96      		adiw r26,58
 3829 12ce 62AD      		ldd r22,Z+58
 3830 12d0 1196      		adiw r26,1
 3831 12d2 7C91      		ld r23,X
 3832 12d4 1197      		sbiw r26,1
 3833               	.LM384:
 3834 12d6 1296      		adiw r26,2
 3835 12d8 8C91      		ld r24,X
 3836 12da 1297      		sbiw r26,2
 3837 12dc 1396      		adiw r26,3
 3838 12de 9C91      		ld r25,X
 3839               	.LVL243:
 3840               	/* epilogue start */
 3841 12e0 0895      		ret
 3842               	.LFE65:
 3844               	.global	Timebase_UpCounter_Set_EndValueSec
 3846               	Timebase_UpCounter_Set_EndValueSec:
 3847               	.LFB66:
 3848               	.LM385:
 3849               	.LVL244:
 3850               	/* prologue: function */
 3851               	/* frame size = 0 */
 3852               	.LM386:
 3853 12e2 E091 0000 		lds r30,Timebase
 3854 12e6 F091 0000 		lds r31,(Timebase)+1
 3855 12ea 90E0      		ldi r25,lo8(0)
 3856               	.LVL245:
 3857 12ec 25E1      		ldi r18,lo8(21)
 3858 12ee 30E0      		ldi r19,hi8(21)
 3859 12f0 DC01      		movw r26,r24
 3860 12f2 A29F      		mul r26,r18
 3861 12f4 C001      		movw r24,r0
 3862 12f6 A39F      		mul r26,r19
 3863 12f8 900D      		add r25,r0
 3864 12fa B29F      		mul r27,r18
 3865 12fc 900D      		add r25,r0
 3866 12fe 1124      		clr r1
 3867               	.LVL246:
 3868 1300 E80F      		add r30,r24
 3869 1302 F91F      		adc r31,r25
 3870 1304 42AF      		std Z+58,r20
 3871 1306 53AF      		std Z+59,r21
 3872 1308 64AF      		std Z+60,r22
 3873 130a 75AF      		std Z+61,r23
 3874               	/* epilogue start */
 3875               	.LM387:
 3876 130c 0895      		ret
 3877               	.LFE66:
 3879               	.global	Timebase_UpCounter_Set_EndValueSubSec
 3881               	Timebase_UpCounter_Set_EndValueSubSec:
 3882               	.LFB67:
 3883               	.LM388:
 3884               	.LVL247:
 3885               	/* prologue: function */
 3886               	/* frame size = 0 */
 3887               	.LM389:
 3888 130e E091 0000 		lds r30,Timebase
 3889 1312 F091 0000 		lds r31,(Timebase)+1
 3890 1316 90E0      		ldi r25,lo8(0)
 3891               	.LVL248:
 3892 1318 25E1      		ldi r18,lo8(21)
 3893 131a 30E0      		ldi r19,hi8(21)
 3894 131c DC01      		movw r26,r24
 3895 131e A29F      		mul r26,r18
 3896 1320 C001      		movw r24,r0
 3897 1322 A39F      		mul r26,r19
 3898 1324 900D      		add r25,r0
 3899 1326 B29F      		mul r27,r18
 3900 1328 900D      		add r25,r0
 3901 132a 1124      		clr r1
 3902               	.LVL249:
 3903 132c E80F      		add r30,r24
 3904 132e F91F      		adc r31,r25
 3905 1330 42AF      		std Z+58,r20
 3906 1332 53AF      		std Z+59,r21
 3907 1334 64AF      		std Z+60,r22
 3908 1336 75AF      		std Z+61,r23
 3909               	/* epilogue start */
 3910               	.LM390:
 3911 1338 0895      		ret
 3912               	.LFE67:
 3914               	.global	Timebase_UpCounter_Get_TargetValue
 3916               	Timebase_UpCounter_Get_TargetValue:
 3917               	.LFB68:
 3918               	.LM391:
 3919               	.LVL250:
 3920               	/* prologue: function */
 3921               	/* frame size = 0 */
 3922               	.LM392:
 3923 133a E091 0000 		lds r30,Timebase
 3924 133e F091 0000 		lds r31,(Timebase)+1
 3925 1342 90E0      		ldi r25,lo8(0)
 3926               	.LVL251:
 3927 1344 25E1      		ldi r18,lo8(21)
 3928 1346 30E0      		ldi r19,hi8(21)
 3929 1348 AC01      		movw r20,r24
 3930 134a 429F      		mul r20,r18
 3931 134c C001      		movw r24,r0
 3932 134e 439F      		mul r20,r19
 3933 1350 900D      		add r25,r0
 3934 1352 529F      		mul r21,r18
 3935 1354 900D      		add r25,r0
 3936 1356 1124      		clr r1
 3937               	.LVL252:
 3938 1358 E80F      		add r30,r24
 3939 135a F91F      		adc r31,r25
 3940 135c FE96      		adiw r30,62
 3941 135e 6081      		ld r22,Z
 3942 1360 7181      		ldd r23,Z+1
 3943               	.LM393:
 3944 1362 8281      		ldd r24,Z+2
 3945 1364 9381      		ldd r25,Z+3
 3946               	.LVL253:
 3947               	/* epilogue start */
 3948 1366 0895      		ret
 3949               	.LFE68:
 3951               	.global	Timebase_UpCounter_Set_TargetValue
 3953               	Timebase_UpCounter_Set_TargetValue:
 3954               	.LFB69:
 3955               	.LM394:
 3956               	.LVL254:
 3957               	/* prologue: function */
 3958               	/* frame size = 0 */
 3959               	.LM395:
 3960 1368 E091 0000 		lds r30,Timebase
 3961 136c F091 0000 		lds r31,(Timebase)+1
 3962 1370 90E0      		ldi r25,lo8(0)
 3963               	.LVL255:
 3964 1372 25E1      		ldi r18,lo8(21)
 3965 1374 30E0      		ldi r19,hi8(21)
 3966 1376 DC01      		movw r26,r24
 3967 1378 A29F      		mul r26,r18
 3968 137a C001      		movw r24,r0
 3969 137c A39F      		mul r26,r19
 3970 137e 900D      		add r25,r0
 3971 1380 B29F      		mul r27,r18
 3972 1382 900D      		add r25,r0
 3973 1384 1124      		clr r1
 3974               	.LVL256:
 3975 1386 E80F      		add r30,r24
 3976 1388 F91F      		adc r31,r25
 3977 138a FE96      		adiw r30,62
 3978 138c 4083      		st Z,r20
 3979 138e 5183      		std Z+1,r21
 3980 1390 6283      		std Z+2,r22
 3981 1392 7383      		std Z+3,r23
 3982               	/* epilogue start */
 3983               	.LM396:
 3984 1394 0895      		ret
 3985               	.LFE69:
 3987               	.global	Timebase_UpCounter_Get_TemporaryValue
 3989               	Timebase_UpCounter_Get_TemporaryValue:
 3990               	.LFB70:
 3991               	.LM397:
 3992               	.LVL257:
 3993               	/* prologue: function */
 3994               	/* frame size = 0 */
 3995               	.LM398:
 3996 1396 E091 0000 		lds r30,Timebase
 3997 139a F091 0000 		lds r31,(Timebase)+1
 3998 139e 90E0      		ldi r25,lo8(0)
 3999               	.LVL258:
 4000 13a0 25E1      		ldi r18,lo8(21)
 4001 13a2 30E0      		ldi r19,hi8(21)
 4002 13a4 AC01      		movw r20,r24
 4003 13a6 429F      		mul r20,r18
 4004 13a8 C001      		movw r24,r0
 4005 13aa 439F      		mul r20,r19
 4006 13ac 900D      		add r25,r0
 4007 13ae 529F      		mul r21,r18
 4008 13b0 900D      		add r25,r0
 4009 13b2 1124      		clr r1
 4010               	.LVL259:
 4011 13b4 E80F      		add r30,r24
 4012 13b6 F91F      		adc r31,r25
 4013 13b8 EE5B      		subi r30,lo8(-(66))
 4014 13ba FF4F      		sbci r31,hi8(-(66))
 4015 13bc 6081      		ld r22,Z
 4016 13be 7181      		ldd r23,Z+1
 4017               	.LM399:
 4018 13c0 8281      		ldd r24,Z+2
 4019 13c2 9381      		ldd r25,Z+3
 4020               	.LVL260:
 4021               	/* epilogue start */
 4022 13c4 0895      		ret
 4023               	.LFE70:
 4025               	.global	Timebase_UpCounter_Set_TemporaryValue
 4027               	Timebase_UpCounter_Set_TemporaryValue:
 4028               	.LFB71:
 4029               	.LM400:
 4030               	.LVL261:
 4031               	/* prologue: function */
 4032               	/* frame size = 0 */
 4033               	.LM401:
 4034 13c6 E091 0000 		lds r30,Timebase
 4035 13ca F091 0000 		lds r31,(Timebase)+1
 4036 13ce 90E0      		ldi r25,lo8(0)
 4037               	.LVL262:
 4038 13d0 25E1      		ldi r18,lo8(21)
 4039 13d2 30E0      		ldi r19,hi8(21)
 4040 13d4 DC01      		movw r26,r24
 4041 13d6 A29F      		mul r26,r18
 4042 13d8 C001      		movw r24,r0
 4043 13da A39F      		mul r26,r19
 4044 13dc 900D      		add r25,r0
 4045 13de B29F      		mul r27,r18
 4046 13e0 900D      		add r25,r0
 4047 13e2 1124      		clr r1
 4048               	.LVL263:
 4049 13e4 E80F      		add r30,r24
 4050 13e6 F91F      		adc r31,r25
 4051 13e8 EE5B      		subi r30,lo8(-(66))
 4052 13ea FF4F      		sbci r31,hi8(-(66))
 4053 13ec 4083      		st Z,r20
 4054 13ee 5183      		std Z+1,r21
 4055 13f0 6283      		std Z+2,r22
 4056 13f2 7383      		std Z+3,r23
 4057               	/* epilogue start */
 4058               	.LM402:
 4059 13f4 0895      		ret
 4060               	.LFE71:
 4062               	.global	Timebase_UpCounter_Get_PeriodValue
 4064               	Timebase_UpCounter_Get_PeriodValue:
 4065               	.LFB72:
 4066               	.LM403:
 4067               	.LVL264:
 4068               	/* prologue: function */
 4069               	/* frame size = 0 */
 4070               	.LM404:
 4071 13f6 E091 0000 		lds r30,Timebase
 4072 13fa F091 0000 		lds r31,(Timebase)+1
 4073 13fe 90E0      		ldi r25,lo8(0)
 4074               	.LVL265:
 4075 1400 25E1      		ldi r18,lo8(21)
 4076 1402 30E0      		ldi r19,hi8(21)
 4077 1404 AC01      		movw r20,r24
 4078 1406 429F      		mul r20,r18
 4079 1408 C001      		movw r24,r0
 4080 140a 439F      		mul r20,r19
 4081 140c 900D      		add r25,r0
 4082 140e 529F      		mul r21,r18
 4083 1410 900D      		add r25,r0
 4084 1412 1124      		clr r1
 4085               	.LVL266:
 4086 1414 E80F      		add r30,r24
 4087 1416 F91F      		adc r31,r25
 4088 1418 E65B      		subi r30,lo8(-(74))
 4089 141a FF4F      		sbci r31,hi8(-(74))
 4090 141c 6081      		ld r22,Z
 4091 141e 7181      		ldd r23,Z+1
 4092               	.LM405:
 4093 1420 8281      		ldd r24,Z+2
 4094 1422 9381      		ldd r25,Z+3
 4095               	.LVL267:
 4096               	/* epilogue start */
 4097 1424 0895      		ret
 4098               	.LFE72:
 4100               	.global	Timebase_UpCounter_Set_PeriodValue
 4102               	Timebase_UpCounter_Set_PeriodValue:
 4103               	.LFB73:
 4104               	.LM406:
 4105               	.LVL268:
 4106               	/* prologue: function */
 4107               	/* frame size = 0 */
 4108               	.LM407:
 4109 1426 E091 0000 		lds r30,Timebase
 4110 142a F091 0000 		lds r31,(Timebase)+1
 4111 142e 90E0      		ldi r25,lo8(0)
 4112               	.LVL269:
 4113 1430 25E1      		ldi r18,lo8(21)
 4114 1432 30E0      		ldi r19,hi8(21)
 4115 1434 DC01      		movw r26,r24
 4116 1436 A29F      		mul r26,r18
 4117 1438 C001      		movw r24,r0
 4118 143a A39F      		mul r26,r19
 4119 143c 900D      		add r25,r0
 4120 143e B29F      		mul r27,r18
 4121 1440 900D      		add r25,r0
 4122 1442 1124      		clr r1
 4123               	.LVL270:
 4124 1444 E80F      		add r30,r24
 4125 1446 F91F      		adc r31,r25
 4126 1448 E65B      		subi r30,lo8(-(74))
 4127 144a FF4F      		sbci r31,hi8(-(74))
 4128 144c 4083      		st Z,r20
 4129 144e 5183      		std Z+1,r21
 4130 1450 6283      		std Z+2,r22
 4131 1452 7383      		std Z+3,r23
 4132               	/* epilogue start */
 4133               	.LM408:
 4134 1454 0895      		ret
 4135               	.LFE73:
 4137               	.global	Timebase_UpCounter_Get_Period_Flag
 4139               	Timebase_UpCounter_Get_Period_Flag:
 4140               	.LFB74:
 4141               	.LM409:
 4142               	.LVL271:
 4143               	/* prologue: function */
 4144               	/* frame size = 0 */
 4145               	.LM410:
 4146 1456 E091 0000 		lds r30,Timebase
 4147 145a F091 0000 		lds r31,(Timebase)+1
 4148 145e 90E0      		ldi r25,lo8(0)
 4149               	.LVL272:
 4150 1460 25E1      		ldi r18,lo8(21)
 4151 1462 30E0      		ldi r19,hi8(21)
 4152 1464 AC01      		movw r20,r24
 4153 1466 429F      		mul r20,r18
 4154 1468 C001      		movw r24,r0
 4155 146a 439F      		mul r20,r19
 4156 146c 900D      		add r25,r0
 4157 146e 529F      		mul r21,r18
 4158 1470 900D      		add r25,r0
 4159 1472 1124      		clr r1
 4160               	.LVL273:
 4161 1474 E80F      		add r30,r24
 4162 1476 F91F      		adc r31,r25
 4163 1478 81AD      		ldd r24,Z+57
 4164               	.LM411:
 4165 147a 8170      		andi r24,lo8(1)
 4166               	/* epilogue start */
 4167 147c 0895      		ret
 4168               	.LFE74:
 4170               	.global	Timebase_UpCounter_Set_Period_Flag
 4172               	Timebase_UpCounter_Set_Period_Flag:
 4173               	.LFB75:
 4174               	.LM412:
 4175               	.LVL274:
 4176               	/* prologue: function */
 4177               	/* frame size = 0 */
 4178               	.LM413:
 4179 147e E091 0000 		lds r30,Timebase
 4180 1482 F091 0000 		lds r31,(Timebase)+1
 4181 1486 90E0      		ldi r25,lo8(0)
 4182               	.LVL275:
 4183 1488 25E1      		ldi r18,lo8(21)
 4184 148a 30E0      		ldi r19,hi8(21)
 4185 148c AC01      		movw r20,r24
 4186 148e 429F      		mul r20,r18
 4187 1490 C001      		movw r24,r0
 4188 1492 439F      		mul r20,r19
 4189 1494 900D      		add r25,r0
 4190 1496 529F      		mul r21,r18
 4191 1498 900D      		add r25,r0
 4192 149a 1124      		clr r1
 4193               	.LVL276:
 4194 149c E80F      		add r30,r24
 4195 149e F91F      		adc r31,r25
 4196 14a0 81AD      		ldd r24,Z+57
 4197 14a2 8160      		ori r24,lo8(1)
 4198 14a4 81AF      		std Z+57,r24
 4199               	/* epilogue start */
 4200               	.LM414:
 4201 14a6 0895      		ret
 4202               	.LFE75:
 4204               	.global	Timebase_UpCounter_Clear_Period_Flag
 4206               	Timebase_UpCounter_Clear_Period_Flag:
 4207               	.LFB76:
 4208               	.LM415:
 4209               	.LVL277:
 4210               	/* prologue: function */
 4211               	/* frame size = 0 */
 4212               	.LM416:
 4213 14a8 E091 0000 		lds r30,Timebase
 4214 14ac F091 0000 		lds r31,(Timebase)+1
 4215 14b0 90E0      		ldi r25,lo8(0)
 4216               	.LVL278:
 4217 14b2 25E1      		ldi r18,lo8(21)
 4218 14b4 30E0      		ldi r19,hi8(21)
 4219 14b6 AC01      		movw r20,r24
 4220 14b8 429F      		mul r20,r18
 4221 14ba C001      		movw r24,r0
 4222 14bc 439F      		mul r20,r19
 4223 14be 900D      		add r25,r0
 4224 14c0 529F      		mul r21,r18
 4225 14c2 900D      		add r25,r0
 4226 14c4 1124      		clr r1
 4227               	.LVL279:
 4228 14c6 E80F      		add r30,r24
 4229 14c8 F91F      		adc r31,r25
 4230 14ca 81AD      		ldd r24,Z+57
 4231 14cc 8E7F      		andi r24,lo8(-2)
 4232 14ce 81AF      		std Z+57,r24
 4233               	/* epilogue start */
 4234               	.LM417:
 4235 14d0 0895      		ret
 4236               	.LFE76:
 4238               	.global	Timebase_UpCounter_Reset
 4240               	Timebase_UpCounter_Reset:
 4241               	.LFB77:
 4242               	.LM418:
 4243               	.LVL280:
 4244               	/* prologue: function */
 4245               	/* frame size = 0 */
 4246               	.LBB757:
 4247               	.LBB758:
 4248               	.LM419:
 4249 14d2 E091 0000 		lds r30,Timebase
 4250 14d6 F091 0000 		lds r31,(Timebase)+1
 4251 14da 90E0      		ldi r25,lo8(0)
 4252 14dc 25E1      		ldi r18,lo8(21)
 4253 14de 30E0      		ldi r19,hi8(21)
 4254 14e0 AC01      		movw r20,r24
 4255               	.LVL281:
 4256 14e2 429F      		mul r20,r18
 4257 14e4 C001      		movw r24,r0
 4258 14e6 439F      		mul r20,r19
 4259 14e8 900D      		add r25,r0
 4260 14ea 529F      		mul r21,r18
 4261 14ec 900D      		add r25,r0
 4262 14ee 1124      		clr r1
 4263 14f0 E80F      		add r30,r24
 4264 14f2 F91F      		adc r31,r25
 4265 14f4 81AD      		ldd r24,Z+57
 4266               	.LBE758:
 4267               	.LBE757:
 4268               	.LBB759:
 4269               	.LBB760:
 4270               	.LM420:
 4271 14f6 EA5B      		subi r30,lo8(-(70))
 4272 14f8 FF4F      		sbci r31,hi8(-(70))
 4273 14fa 1082      		st Z,__zero_reg__
 4274 14fc 1182      		std Z+1,__zero_reg__
 4275 14fe 1282      		std Z+2,__zero_reg__
 4276 1500 1382      		std Z+3,__zero_reg__
 4277 1502 E654      		subi r30,lo8(-(-70))
 4278 1504 F040      		sbci r31,hi8(-(-70))
 4279               	.LBE760:
 4280               	.LBE759:
 4281               	.LBB761:
 4282               	.LBB762:
 4283               	.LM421:
 4284 1506 12AE      		std Z+58,__zero_reg__
 4285 1508 13AE      		std Z+59,__zero_reg__
 4286 150a 14AE      		std Z+60,__zero_reg__
 4287 150c 15AE      		std Z+61,__zero_reg__
 4288               	.LBE762:
 4289               	.LBE761:
 4290               	.LBB763:
 4291               	.LBB764:
 4292               	.LM422:
 4293 150e FE96      		adiw r30,62
 4294 1510 1192      		st Z+,__zero_reg__
 4295 1512 1192      		st Z+,__zero_reg__
 4296 1514 1192      		st Z+,__zero_reg__
 4297 1516 1192      		st Z+,__zero_reg__
 4298               	.LBE764:
 4299               	.LBE763:
 4300               	.LBB765:
 4301               	.LBB766:
 4302               	.LM423:
 4303 1518 1082      		st Z,__zero_reg__
 4304 151a 1182      		std Z+1,__zero_reg__
 4305 151c 1282      		std Z+2,__zero_reg__
 4306 151e 1382      		std Z+3,__zero_reg__
 4307               	.LBE766:
 4308               	.LBE765:
 4309               	.LBB767:
 4310               	.LBB768:
 4311               	.LM424:
 4312 1520 3896      		adiw r30,8
 4313 1522 1082      		st Z,__zero_reg__
 4314 1524 1182      		std Z+1,__zero_reg__
 4315 1526 1282      		std Z+2,__zero_reg__
 4316 1528 1382      		std Z+3,__zero_reg__
 4317 152a EA54      		subi r30,lo8(-(-74))
 4318 152c F040      		sbci r31,hi8(-(-74))
 4319               	.LBE768:
 4320               	.LBE767:
 4321               	.LBB769:
 4322               	.LBB770:
 4323               	.LM425:
 4324 152e 807E      		andi r24,lo8(-32)
 4325 1530 81AF      		std Z+57,r24
 4326               	/* epilogue start */
 4327               	.LBE770:
 4328               	.LBE769:
 4329               	.LM426:
 4330 1532 0895      		ret
 4331               	.LFE77:
 4333               	.global	Timebase_UpCounter_Clear_All_Flags
 4335               	Timebase_UpCounter_Clear_All_Flags:
 4336               	.LFB78:
 4337               	.LM427:
 4338               	.LVL282:
 4339               	/* prologue: function */
 4340               	/* frame size = 0 */
 4341               	.LM428:
 4342 1534 0E94 0000 		call Timebase_UpCounter_Reset
 4343               	.LVL283:
 4344               	/* epilogue start */
 4345               	.LM429:
 4346 1538 0895      		ret
 4347               	.LFE78:
 4349               	.global	Timebase_UpCounter_Start
 4351               	Timebase_UpCounter_Start:
 4352               	.LFB79:
 4353               	.LM430:
 4354               	.LVL284:
 4355               	/* prologue: function */
 4356               	/* frame size = 0 */
 4357               	.LBB771:
 4358               	.LBB772:
 4359               	.LM431:
 4360 153a E091 0000 		lds r30,Timebase
 4361 153e F091 0000 		lds r31,(Timebase)+1
 4362 1542 90E0      		ldi r25,lo8(0)
 4363               	.LBE772:
 4364               	.LBE771:
 4365               	.LM432:
 4366 1544 25E1      		ldi r18,lo8(21)
 4367 1546 30E0      		ldi r19,hi8(21)
 4368 1548 AC01      		movw r20,r24
 4369               	.LVL285:
 4370 154a 429F      		mul r20,r18
 4371 154c C001      		movw r24,r0
 4372 154e 439F      		mul r20,r19
 4373 1550 900D      		add r25,r0
 4374 1552 529F      		mul r21,r18
 4375 1554 900D      		add r25,r0
 4376 1556 1124      		clr r1
 4377 1558 E80F      		add r30,r24
 4378 155a F91F      		adc r31,r25
 4379 155c 91AD      		ldd r25,Z+57
 4380 155e 892F      		mov r24,r25
 4381 1560 8695      		lsr r24
 4382 1562 8F70      		andi r24,lo8(15)
 4383 1564 8130      		cpi r24,lo8(1)
 4384 1566 01F0      		breq .L208
 4385               	.LBB773:
 4386               	.LBB774:
 4387               	.LM433:
 4388 1568 917E      		andi r25,lo8(-31)
 4389 156a 9260      		ori r25,lo8(2)
 4390 156c 91AF      		std Z+57,r25
 4391               	.L208:
 4392 156e 0895      		ret
 4393               	.LBE774:
 4394               	.LBE773:
 4395               	.LFE79:
 4397               	.global	Timebase_UpCounter_Stop
 4399               	Timebase_UpCounter_Stop:
 4400               	.LFB80:
 4401               	.LM434:
 4402               	.LVL286:
 4403               	/* prologue: function */
 4404               	/* frame size = 0 */
 4405               	.LBB775:
 4406               	.LBB776:
 4407               	.LM435:
 4408 1570 E091 0000 		lds r30,Timebase
 4409 1574 F091 0000 		lds r31,(Timebase)+1
 4410 1578 90E0      		ldi r25,lo8(0)
 4411               	.LBE776:
 4412               	.LBE775:
 4413               	.LM436:
 4414 157a 25E1      		ldi r18,lo8(21)
 4415 157c 30E0      		ldi r19,hi8(21)
 4416 157e AC01      		movw r20,r24
 4417               	.LVL287:
 4418 1580 429F      		mul r20,r18
 4419 1582 C001      		movw r24,r0
 4420 1584 439F      		mul r20,r19
 4421 1586 900D      		add r25,r0
 4422 1588 529F      		mul r21,r18
 4423 158a 900D      		add r25,r0
 4424 158c 1124      		clr r1
 4425 158e E80F      		add r30,r24
 4426 1590 F91F      		adc r31,r25
 4427 1592 91AD      		ldd r25,Z+57
 4428 1594 892F      		mov r24,r25
 4429 1596 8695      		lsr r24
 4430 1598 8F70      		andi r24,lo8(15)
 4431 159a 8230      		cpi r24,lo8(2)
 4432 159c 01F0      		breq .L211
 4433               	.LBB777:
 4434               	.LBB778:
 4435               	.LM437:
 4436 159e 917E      		andi r25,lo8(-31)
 4437 15a0 9460      		ori r25,lo8(4)
 4438 15a2 91AF      		std Z+57,r25
 4439               	.L211:
 4440 15a4 0895      		ret
 4441               	.LBE778:
 4442               	.LBE777:
 4443               	.LFE80:
 4445               	.global	Timebase_UpCounter_Set_Securely
 4447               	Timebase_UpCounter_Set_Securely:
 4448               	.LFB81:
 4449               	.LM438:
 4450               	.LVL288:
 4451               	/* prologue: function */
 4452               	/* frame size = 0 */
 4453               	.LBB779:
 4454               	.LBB780:
 4455               	.LM439:
 4456 15a6 A091 0000 		lds r26,Timebase
 4457 15aa B091 0000 		lds r27,(Timebase)+1
 4458 15ae 90E0      		ldi r25,lo8(0)
 4459               	.LBE780:
 4460               	.LBE779:
 4461               	.LM440:
 4462 15b0 25E1      		ldi r18,lo8(21)
 4463 15b2 30E0      		ldi r19,hi8(21)
 4464 15b4 829F      		mul r24,r18
 4465 15b6 F001      		movw r30,r0
 4466 15b8 839F      		mul r24,r19
 4467 15ba F00D      		add r31,r0
 4468 15bc 929F      		mul r25,r18
 4469 15be F00D      		add r31,r0
 4470 15c0 1124      		clr r1
 4471               	.LVL289:
 4472 15c2 EA0F      		add r30,r26
 4473 15c4 FB1F      		adc r31,r27
 4474 15c6 81AD      		ldd r24,Z+57
 4475 15c8 8695      		lsr r24
 4476 15ca 8F70      		andi r24,lo8(15)
 4477 15cc 01F4      		brne .L214
 4478               	.LBB781:
 4479               	.LBB782:
 4480               	.LM441:
 4481 15ce EA5B      		subi r30,lo8(-(70))
 4482 15d0 FF4F      		sbci r31,hi8(-(70))
 4483 15d2 1082      		st Z,__zero_reg__
 4484 15d4 1182      		std Z+1,__zero_reg__
 4485 15d6 1282      		std Z+2,__zero_reg__
 4486 15d8 1382      		std Z+3,__zero_reg__
 4487               	.LBE782:
 4488               	.LBE781:
 4489               	.LBB783:
 4490               	.LBB784:
 4491               	.LM442:
 4492 15da 1292      		st -Z,__zero_reg__
 4493 15dc 1292      		st -Z,__zero_reg__
 4494 15de 1292      		st -Z,__zero_reg__
 4495 15e0 1292      		st -Z,__zero_reg__
 4496               	.LBE784:
 4497               	.LBE783:
 4498               	.LBB785:
 4499               	.LBB786:
 4500               	.LM443:
 4501 15e2 7293      		st -Z,r23
 4502 15e4 6293      		st -Z,r22
 4503 15e6 5293      		st -Z,r21
 4504 15e8 4293      		st -Z,r20
 4505 15ea FE97      		sbiw r30,62
 4506               	.LBE786:
 4507               	.LBE785:
 4508               	.LBB787:
 4509               	.LBB788:
 4510               	.LM444:
 4511 15ec 1A96      		adiw r26,10
 4512 15ee 8D91      		ld r24,X+
 4513 15f0 9D91      		ld r25,X+
 4514 15f2 0D90      		ld __tmp_reg__,X+
 4515 15f4 BC91      		ld r27,X
 4516 15f6 A02D      		mov r26,__tmp_reg__
 4517               	.LVL290:
 4518               	.LBE788:
 4519               	.LBE787:
 4520               	.LBB789:
 4521               	.LBB790:
 4522               	.LM445:
 4523 15f8 91AD      		ldd r25,Z+57
 4524 15fa 892F      		mov r24,r25
 4525               	.LVL291:
 4526 15fc 8695      		lsr r24
 4527 15fe 8F70      		andi r24,lo8(15)
 4528 1600 8130      		cpi r24,lo8(1)
 4529 1602 01F0      		breq .L214
 4530               	.LBB791:
 4531               	.LBB792:
 4532               	.LM446:
 4533 1604 917E      		andi r25,lo8(-31)
 4534 1606 9260      		ori r25,lo8(2)
 4535 1608 91AF      		std Z+57,r25
 4536               	.L214:
 4537 160a 0895      		ret
 4538               	.LBE792:
 4539               	.LBE791:
 4540               	.LBE790:
 4541               	.LBE789:
 4542               	.LFE81:
 4544               	.global	Timebase_UpCounter_Set_Forcefully
 4546               	Timebase_UpCounter_Set_Forcefully:
 4547               	.LFB82:
 4548               	.LM447:
 4549               	.LVL292:
 4550 160c DF92      		push r13
 4551 160e EF92      		push r14
 4552 1610 FF92      		push r15
 4553 1612 0F93      		push r16
 4554 1614 1F93      		push r17
 4555               	/* prologue: function */
 4556               	/* frame size = 0 */
 4557 1616 D82E      		mov r13,r24
 4558 1618 7A01      		movw r14,r20
 4559 161a 8B01      		movw r16,r22
 4560               	.LM448:
 4561 161c 0E94 0000 		call Timebase_UpCounter_Reset
 4562               	.LVL293:
 4563               	.LM449:
 4564 1620 8D2D      		mov r24,r13
 4565 1622 B801      		movw r22,r16
 4566 1624 A701      		movw r20,r14
 4567 1626 0E94 0000 		call Timebase_UpCounter_Set_Securely
 4568               	/* epilogue start */
 4569               	.LM450:
 4570 162a 1F91      		pop r17
 4571 162c 0F91      		pop r16
 4572 162e FF90      		pop r15
 4573 1630 EF90      		pop r14
 4574               	.LVL294:
 4575 1632 DF90      		pop r13
 4576               	.LVL295:
 4577 1634 0895      		ret
 4578               	.LFE82:
 4580               	.global	Timebase_UpCounter_Update
 4582               	Timebase_UpCounter_Update:
 4583               	.LFB83:
 4584               	.LM451:
 4585               	.LVL296:
 4586 1636 AF92      		push r10
 4587 1638 BF92      		push r11
 4588 163a CF92      		push r12
 4589 163c DF92      		push r13
 4590 163e EF92      		push r14
 4591 1640 FF92      		push r15
 4592 1642 0F93      		push r16
 4593 1644 1F93      		push r17
 4594 1646 CF93      		push r28
 4595 1648 DF93      		push r29
 4596               	/* prologue: function */
 4597               	/* frame size = 0 */
 4598               	.LBB793:
 4599               	.LBB794:
 4600               	.LM452:
 4601 164a E091 0000 		lds r30,Timebase
 4602 164e F091 0000 		lds r31,(Timebase)+1
 4603 1652 90E0      		ldi r25,lo8(0)
 4604 1654 25E1      		ldi r18,lo8(21)
 4605 1656 30E0      		ldi r19,hi8(21)
 4606 1658 829F      		mul r24,r18
 4607 165a E001      		movw r28,r0
 4608 165c 839F      		mul r24,r19
 4609 165e D00D      		add r29,r0
 4610 1660 929F      		mul r25,r18
 4611 1662 D00D      		add r29,r0
 4612 1664 1124      		clr r1
 4613               	.LVL297:
 4614 1666 CE0F      		add r28,r30
 4615 1668 DF1F      		adc r29,r31
 4616 166a 89AD      		ldd r24,Y+57
 4617 166c 8695      		lsr r24
 4618 166e 8F70      		andi r24,lo8(15)
 4619               	.LBE794:
 4620               	.LBE793:
 4621               	.LM453:
 4622 1670 8130      		cpi r24,lo8(1)
 4623 1672 01F4      		brne .L218
 4624               	.LBB795:
 4625               	.LBB796:
 4626               	.LM454:
 4627 1674 8285      		ldd r24,Z+10
 4628 1676 9385      		ldd r25,Z+11
 4629 1678 A485      		ldd r26,Z+12
 4630 167a B585      		ldd r27,Z+13
 4631               	.LVL298:
 4632               	.LBE796:
 4633               	.LBE795:
 4634               	.LBB797:
 4635               	.LBB798:
 4636               	.LM455:
 4637 167c BE01      		movw r22,r28
 4638 167e 6A5B      		subi r22,lo8(-(70))
 4639 1680 7F4F      		sbci r23,hi8(-(70))
 4640 1682 FE01      		movw r30,r28
 4641 1684 EE5B      		subi r30,lo8(-(66))
 4642 1686 FF4F      		sbci r31,hi8(-(66))
 4643 1688 EE96      		adiw r28,62
 4644 168a E880      		ld r14,Y
 4645 168c F980      		ldd r15,Y+1
 4646 168e 0A81      		ldd r16,Y+2
 4647 1690 1B81      		ldd r17,Y+3
 4648 1692 EE97      		sbiw r28,62
 4649 1694 2081      		ld r18,Z
 4650 1696 3181      		ldd r19,Z+1
 4651 1698 4281      		ldd r20,Z+2
 4652 169a 5381      		ldd r21,Z+3
 4653 169c 5701      		movw r10,r14
 4654 169e 6801      		movw r12,r16
 4655 16a0 A21A      		sub r10,r18
 4656 16a2 B30A      		sbc r11,r19
 4657 16a4 C40A      		sbc r12,r20
 4658 16a6 D50A      		sbc r13,r21
 4659 16a8 DB01      		movw r26,r22
 4660 16aa AD92      		st X+,r10
 4661 16ac BD92      		st X+,r11
 4662 16ae CD92      		st X+,r12
 4663 16b0 DC92      		st X,r13
 4664 16b2 1397      		sbiw r26,3
 4665               	.LBE798:
 4666               	.LBE797:
 4667               	.LM456:
 4668 16b4 1216      		cp __zero_reg__,r18
 4669 16b6 1306      		cpc __zero_reg__,r19
 4670 16b8 1406      		cpc __zero_reg__,r20
 4671 16ba 1506      		cpc __zero_reg__,r21
 4672 16bc 04F0      		brlt .L220
 4673               	.LBB799:
 4674               	.LBB800:
 4675               	.LM457:
 4676 16be 1082      		st Z,__zero_reg__
 4677 16c0 1182      		std Z+1,__zero_reg__
 4678 16c2 1282      		std Z+2,__zero_reg__
 4679 16c4 1382      		std Z+3,__zero_reg__
 4680               	.LBE800:
 4681               	.LBE799:
 4682               	.LBB801:
 4683               	.LBB802:
 4684               	.LM458:
 4685 16c6 FB01      		movw r30,r22
 4686 16c8 E082      		st Z,r14
 4687 16ca F182      		std Z+1,r15
 4688 16cc 0283      		std Z+2,r16
 4689 16ce 1383      		std Z+3,r17
 4690               	.LBE802:
 4691               	.LBE801:
 4692               	.LBB803:
 4693               	.LBB804:
 4694               	.LM459:
 4695 16d0 89AD      		ldd r24,Y+57
 4696               	.LVL299:
 4697 16d2 817E      		andi r24,lo8(-31)
 4698 16d4 8860      		ori r24,lo8(8)
 4699 16d6 89AF      		std Y+57,r24
 4700 16d8 00C0      		rjmp .L220
 4701               	.L218:
 4702               	.LBE804:
 4703               	.LBE803:
 4704               	.LM460:
 4705 16da 8230      		cpi r24,lo8(2)
 4706 16dc 01F4      		brne .L220
 4707               	.LBB805:
 4708               	.LBB806:
 4709               	.LM461:
 4710 16de 8285      		ldd r24,Z+10
 4711 16e0 9385      		ldd r25,Z+11
 4712 16e2 A485      		ldd r26,Z+12
 4713 16e4 B585      		ldd r27,Z+13
 4714               	.LVL300:
 4715               	.LBE806:
 4716               	.LBE805:
 4717               	.LBB807:
 4718               	.LBB808:
 4719               	.LM462:
 4720 16e6 FE01      		movw r30,r28
 4721 16e8 EE5B      		subi r30,lo8(-(66))
 4722 16ea FF4F      		sbci r31,hi8(-(66))
 4723 16ec EE96      		adiw r28,62
 4724 16ee 8881      		ld r24,Y
 4725 16f0 9981      		ldd r25,Y+1
 4726 16f2 AA81      		ldd r26,Y+2
 4727 16f4 BB81      		ldd r27,Y+3
 4728               	.LVL301:
 4729 16f6 2081      		ld r18,Z
 4730 16f8 3181      		ldd r19,Z+1
 4731 16fa 4281      		ldd r20,Z+2
 4732 16fc 5381      		ldd r21,Z+3
 4733 16fe 821B      		sub r24,r18
 4734 1700 930B      		sbc r25,r19
 4735 1702 A40B      		sbc r26,r20
 4736 1704 B50B      		sbc r27,r21
 4737 1706 2896      		adiw r28,8
 4738 1708 8883      		st Y,r24
 4739 170a 9983      		std Y+1,r25
 4740 170c AA83      		std Y+2,r26
 4741 170e BB83      		std Y+3,r27
 4742               	.LVL302:
 4743               	.L220:
 4744               	/* epilogue start */
 4745               	.LBE808:
 4746               	.LBE807:
 4747               	.LM463:
 4748 1710 DF91      		pop r29
 4749 1712 CF91      		pop r28
 4750 1714 1F91      		pop r17
 4751 1716 0F91      		pop r16
 4752 1718 FF90      		pop r15
 4753 171a EF90      		pop r14
 4754 171c DF90      		pop r13
 4755 171e CF90      		pop r12
 4756 1720 BF90      		pop r11
 4757 1722 AF90      		pop r10
 4758 1724 0895      		ret
 4759               	.LFE83:
 4761               	.global	Timebase_UpCounter_Expired
 4763               	Timebase_UpCounter_Expired:
 4764               	.LFB84:
 4765               	.LM464:
 4766               	.LVL303:
 4767               	/* prologue: function */
 4768               	/* frame size = 0 */
 4769               	.LM465:
 4770 1726 40E0      		ldi r20,lo8(0)
 4771 1728 E091 0000 		lds r30,Timebase
 4772 172c F091 0000 		lds r31,(Timebase)+1
 4773 1730 90E0      		ldi r25,lo8(0)
 4774               	.LVL304:
 4775 1732 25E1      		ldi r18,lo8(21)
 4776 1734 30E0      		ldi r19,hi8(21)
 4777 1736 BC01      		movw r22,r24
 4778 1738 629F      		mul r22,r18
 4779 173a C001      		movw r24,r0
 4780 173c 639F      		mul r22,r19
 4781 173e 900D      		add r25,r0
 4782 1740 729F      		mul r23,r18
 4783 1742 900D      		add r25,r0
 4784 1744 1124      		clr r1
 4785               	.LVL305:
 4786 1746 E80F      		add r30,r24
 4787 1748 F91F      		adc r31,r25
 4788 174a 81AD      		ldd r24,Z+57
 4789 174c 8695      		lsr r24
 4790 174e 8F70      		andi r24,lo8(15)
 4791 1750 8430      		cpi r24,lo8(4)
 4792 1752 01F4      		brne .L222
 4793 1754 41E0      		ldi r20,lo8(1)
 4794               	.L222:
 4795               	.LM466:
 4796 1756 842F      		mov r24,r20
 4797               	/* epilogue start */
 4798 1758 0895      		ret
 4799               	.LFE84:
 4801               	.global	Timebase_UpCounter_Expired_Event
 4803               	Timebase_UpCounter_Expired_Event:
 4804               	.LFB85:
 4805               	.LM467:
 4806               	.LVL306:
 4807               	/* prologue: function */
 4808               	/* frame size = 0 */
 4809 175a 482F      		mov r20,r24
 4810               	.LM468:
 4811 175c E091 0000 		lds r30,Timebase
 4812 1760 F091 0000 		lds r31,(Timebase)+1
 4813 1764 282F      		mov r18,r24
 4814 1766 30E0      		ldi r19,lo8(0)
 4815               	.LVL307:
 4816 1768 85E1      		ldi r24,lo8(21)
 4817 176a 90E0      		ldi r25,hi8(21)
 4818               	.LVL308:
 4819 176c BC01      		movw r22,r24
 4820 176e 269F      		mul r18,r22
 4821 1770 C001      		movw r24,r0
 4822 1772 279F      		mul r18,r23
 4823 1774 900D      		add r25,r0
 4824 1776 369F      		mul r19,r22
 4825 1778 900D      		add r25,r0
 4826 177a 1124      		clr r1
 4827 177c E80F      		add r30,r24
 4828 177e F91F      		adc r31,r25
 4829 1780 81AD      		ldd r24,Z+57
 4830 1782 8695      		lsr r24
 4831 1784 8F70      		andi r24,lo8(15)
 4832 1786 8430      		cpi r24,lo8(4)
 4833 1788 01F0      		breq .L225
 4834 178a 80E0      		ldi r24,lo8(0)
 4835 178c 0895      		ret
 4836               	.L225:
 4837               	.LBB809:
 4838               	.LBB810:
 4839               	.LM469:
 4840 178e 842F      		mov r24,r20
 4841 1790 0E94 0000 		call Timebase_UpCounter_Reset
 4842               	.LVL309:
 4843 1794 81E0      		ldi r24,lo8(1)
 4844               	.LBE810:
 4845               	.LBE809:
 4846               	.LM470:
 4847 1796 0895      		ret
 4848               	.LFE85:
 4850               	.global	Timebase_UpCounter_Set_Period_Value_Securely
 4852               	Timebase_UpCounter_Set_Period_Value_Securely:
 4853               	.LFB86:
 4854               	.LM471:
 4855               	.LVL310:
 4856 1798 CF93      		push r28
 4857 179a DF93      		push r29
 4858               	/* prologue: function */
 4859               	/* frame size = 0 */
 4860               	.LBB811:
 4861               	.LBB812:
 4862               	.LM472:
 4863 179c C091 0000 		lds r28,Timebase
 4864 17a0 D091 0000 		lds r29,(Timebase)+1
 4865 17a4 90E0      		ldi r25,lo8(0)
 4866               	.LBE812:
 4867               	.LBE811:
 4868               	.LM473:
 4869 17a6 25E1      		ldi r18,lo8(21)
 4870 17a8 30E0      		ldi r19,hi8(21)
 4871 17aa FC01      		movw r30,r24
 4872               	.LVL311:
 4873 17ac E29F      		mul r30,r18
 4874 17ae C001      		movw r24,r0
 4875 17b0 E39F      		mul r30,r19
 4876 17b2 900D      		add r25,r0
 4877 17b4 F29F      		mul r31,r18
 4878 17b6 900D      		add r25,r0
 4879 17b8 1124      		clr r1
 4880 17ba C80F      		add r28,r24
 4881 17bc D91F      		adc r29,r25
 4882 17be 89AD      		ldd r24,Y+57
 4883 17c0 80FD      		sbrc r24,0
 4884 17c2 00C0      		rjmp .L230
 4885               	.LBB813:
 4886               	.LBB814:
 4887               	.LM474:
 4888 17c4 FE01      		movw r30,r28
 4889 17c6 E65B      		subi r30,lo8(-(74))
 4890 17c8 FF4F      		sbci r31,hi8(-(74))
 4891 17ca CA5B      		subi r28,lo8(-(70))
 4892 17cc DF4F      		sbci r29,hi8(-(70))
 4893 17ce 8881      		ld r24,Y
 4894 17d0 9981      		ldd r25,Y+1
 4895 17d2 AA81      		ldd r26,Y+2
 4896 17d4 BB81      		ldd r27,Y+3
 4897 17d6 C654      		subi r28,lo8(-(-70))
 4898 17d8 D040      		sbci r29,hi8(-(-70))
 4899 17da 840F      		add r24,r20
 4900 17dc 951F      		adc r25,r21
 4901 17de A61F      		adc r26,r22
 4902 17e0 B71F      		adc r27,r23
 4903 17e2 8083      		st Z,r24
 4904 17e4 9183      		std Z+1,r25
 4905 17e6 A283      		std Z+2,r26
 4906 17e8 B383      		std Z+3,r27
 4907               	.LBE814:
 4908               	.LBE813:
 4909               	.LBB815:
 4910               	.LBB816:
 4911               	.LM475:
 4912 17ea 89AD      		ldd r24,Y+57
 4913 17ec 8160      		ori r24,lo8(1)
 4914 17ee 89AF      		std Y+57,r24
 4915               	.L230:
 4916               	/* epilogue start */
 4917               	.LBE816:
 4918               	.LBE815:
 4919               	.LM476:
 4920 17f0 DF91      		pop r29
 4921 17f2 CF91      		pop r28
 4922 17f4 0895      		ret
 4923               	.LFE86:
 4925               	.global	Timebase_UpCounter_Get_Remaining_Period_Value
 4927               	Timebase_UpCounter_Get_Remaining_Period_Value:
 4928               	.LFB87:
 4929               	.LM477:
 4930               	.LVL312:
 4931               	/* prologue: function */
 4932               	/* frame size = 0 */
 4933               	.LBB817:
 4934               	.LBB818:
 4935               	.LM478:
 4936 17f6 E091 0000 		lds r30,Timebase
 4937 17fa F091 0000 		lds r31,(Timebase)+1
 4938 17fe 90E0      		ldi r25,lo8(0)
 4939               	.LBE818:
 4940               	.LBE817:
 4941               	.LM479:
 4942 1800 25E1      		ldi r18,lo8(21)
 4943 1802 30E0      		ldi r19,hi8(21)
 4944 1804 AC01      		movw r20,r24
 4945               	.LVL313:
 4946 1806 429F      		mul r20,r18
 4947 1808 C001      		movw r24,r0
 4948 180a 439F      		mul r20,r19
 4949 180c 900D      		add r25,r0
 4950 180e 529F      		mul r21,r18
 4951 1810 900D      		add r25,r0
 4952 1812 1124      		clr r1
 4953 1814 E80F      		add r30,r24
 4954 1816 F91F      		adc r31,r25
 4955 1818 DF01      		movw r26,r30
 4956 181a AA5B      		subi r26,lo8(-(70))
 4957 181c BF4F      		sbci r27,hi8(-(70))
 4958 181e E65B      		subi r30,lo8(-(74))
 4959 1820 FF4F      		sbci r31,hi8(-(74))
 4960 1822 2081      		ld r18,Z
 4961 1824 3181      		ldd r19,Z+1
 4962 1826 4281      		ldd r20,Z+2
 4963 1828 5381      		ldd r21,Z+3
 4964               	.LVL314:
 4965 182a 8D91      		ld r24,X+
 4966 182c 9D91      		ld r25,X+
 4967 182e 0D90      		ld __tmp_reg__,X+
 4968 1830 BC91      		ld r27,X
 4969 1832 A02D      		mov r26,__tmp_reg__
 4970 1834 281B      		sub r18,r24
 4971 1836 390B      		sbc r19,r25
 4972 1838 4A0B      		sbc r20,r26
 4973 183a 5B0B      		sbc r21,r27
 4974 183c 57FF      		sbrs r21,7
 4975 183e 00C0      		rjmp .L232
 4976 1840 20E0      		ldi r18,lo8(0)
 4977 1842 30E0      		ldi r19,hi8(0)
 4978 1844 40E0      		ldi r20,hlo8(0)
 4979 1846 50E0      		ldi r21,hhi8(0)
 4980               	.L232:
 4981               	.LM480:
 4982 1848 B901      		movw r22,r18
 4983               	.LVL315:
 4984 184a CA01      		movw r24,r20
 4985               	/* epilogue start */
 4986 184c 0895      		ret
 4987               	.LFE87:
 4989               	.global	Timebase_UpCounter_Period_Value_Expired
 4991               	Timebase_UpCounter_Period_Value_Expired:
 4992               	.LFB88:
 4993               	.LM481:
 4994               	.LVL316:
 4995 184e CF93      		push r28
 4996 1850 DF93      		push r29
 4997               	/* prologue: function */
 4998               	/* frame size = 0 */
 4999               	.LBB819:
 5000               	.LBB820:
 5001               	.LBB821:
 5002               	.LBB822:
 5003               	.LM482:
 5004 1852 C091 0000 		lds r28,Timebase
 5005 1856 D091 0000 		lds r29,(Timebase)+1
 5006 185a 682F      		mov r22,r24
 5007 185c 70E0      		ldi r23,lo8(0)
 5008               	.LBE822:
 5009               	.LBE821:
 5010               	.LM483:
 5011 185e 85E1      		ldi r24,lo8(21)
 5012 1860 90E0      		ldi r25,hi8(21)
 5013               	.LVL317:
 5014 1862 689F      		mul r22,r24
 5015 1864 F001      		movw r30,r0
 5016 1866 699F      		mul r22,r25
 5017 1868 F00D      		add r31,r0
 5018 186a 789F      		mul r23,r24
 5019 186c F00D      		add r31,r0
 5020 186e 1124      		clr r1
 5021 1870 EC0F      		add r30,r28
 5022 1872 FD1F      		adc r31,r29
 5023 1874 DF01      		movw r26,r30
 5024 1876 AA5B      		subi r26,lo8(-(70))
 5025 1878 BF4F      		sbci r27,hi8(-(70))
 5026 187a E65B      		subi r30,lo8(-(74))
 5027 187c FF4F      		sbci r31,hi8(-(74))
 5028 187e 2081      		ld r18,Z
 5029 1880 3181      		ldd r19,Z+1
 5030 1882 4281      		ldd r20,Z+2
 5031 1884 5381      		ldd r21,Z+3
 5032               	.LVL318:
 5033 1886 8D91      		ld r24,X+
 5034 1888 9D91      		ld r25,X+
 5035 188a 0D90      		ld __tmp_reg__,X+
 5036 188c BC91      		ld r27,X
 5037 188e A02D      		mov r26,__tmp_reg__
 5038 1890 281B      		sub r18,r24
 5039 1892 390B      		sbc r19,r25
 5040 1894 4A0B      		sbc r20,r26
 5041 1896 5B0B      		sbc r21,r27
 5042               	.LM484:
 5043 1898 57FD      		sbrc r21,7
 5044 189a 00C0      		rjmp .L235
 5045               	.LBE820:
 5046               	.LBE819:
 5047               	.LM485:
 5048 189c 2115      		cp r18,__zero_reg__
 5049 189e 3105      		cpc r19,__zero_reg__
 5050 18a0 4105      		cpc r20,__zero_reg__
 5051 18a2 5105      		cpc r21,__zero_reg__
 5052 18a4 01F0      		breq .L235
 5053 18a6 20E0      		ldi r18,lo8(0)
 5054               	.LVL319:
 5055 18a8 00C0      		rjmp .L236
 5056               	.LVL320:
 5057               	.L235:
 5058 18aa 20E0      		ldi r18,lo8(0)
 5059               	.LVL321:
 5060 18ac 85E1      		ldi r24,lo8(21)
 5061 18ae 90E0      		ldi r25,hi8(21)
 5062 18b0 AC01      		movw r20,r24
 5063 18b2 649F      		mul r22,r20
 5064 18b4 C001      		movw r24,r0
 5065 18b6 659F      		mul r22,r21
 5066 18b8 900D      		add r25,r0
 5067 18ba 749F      		mul r23,r20
 5068 18bc 900D      		add r25,r0
 5069 18be 1124      		clr r1
 5070 18c0 C80F      		add r28,r24
 5071 18c2 D91F      		adc r29,r25
 5072 18c4 89AD      		ldd r24,Y+57
 5073 18c6 80FF      		sbrs r24,0
 5074 18c8 21E0      		ldi r18,lo8(1)
 5075               	.L237:
 5076 18ca 81E0      		ldi r24,lo8(1)
 5077 18cc 2827      		eor r18,r24
 5078               	.L236:
 5079               	.LM486:
 5080 18ce 822F      		mov r24,r18
 5081               	/* epilogue start */
 5082 18d0 DF91      		pop r29
 5083 18d2 CF91      		pop r28
 5084 18d4 0895      		ret
 5085               	.LFE88:
 5087               	.global	Timebase_UpCounter_Period_Value_Expired_Event
 5089               	Timebase_UpCounter_Period_Value_Expired_Event:
 5090               	.LFB89:
 5091               	.LM487:
 5092               	.LVL322:
 5093 18d6 1F93      		push r17
 5094               	/* prologue: function */
 5095               	/* frame size = 0 */
 5096 18d8 182F      		mov r17,r24
 5097               	.LM488:
 5098 18da 0E94 0000 		call Timebase_UpCounter_Period_Value_Expired
 5099               	.LVL323:
 5100 18de 8130      		cpi r24,lo8(1)
 5101 18e0 01F0      		breq .L240
 5102 18e2 80E0      		ldi r24,lo8(0)
 5103 18e4 00C0      		rjmp .L241
 5104               	.L240:
 5105               	.LBB823:
 5106               	.LBB824:
 5107               	.LM489:
 5108 18e6 E091 0000 		lds r30,Timebase
 5109 18ea F091 0000 		lds r31,(Timebase)+1
 5110 18ee 212F      		mov r18,r17
 5111 18f0 30E0      		ldi r19,lo8(0)
 5112               	.LVL324:
 5113 18f2 85E1      		ldi r24,lo8(21)
 5114 18f4 90E0      		ldi r25,hi8(21)
 5115 18f6 AC01      		movw r20,r24
 5116 18f8 249F      		mul r18,r20
 5117 18fa C001      		movw r24,r0
 5118 18fc 259F      		mul r18,r21
 5119 18fe 900D      		add r25,r0
 5120 1900 349F      		mul r19,r20
 5121 1902 900D      		add r25,r0
 5122 1904 1124      		clr r1
 5123 1906 E80F      		add r30,r24
 5124 1908 F91F      		adc r31,r25
 5125 190a 81AD      		ldd r24,Z+57
 5126 190c 8E7F      		andi r24,lo8(-2)
 5127 190e 81AF      		std Z+57,r24
 5128 1910 81E0      		ldi r24,lo8(1)
 5129               	.L241:
 5130               	/* epilogue start */
 5131               	.LBE824:
 5132               	.LBE823:
 5133               	.LM490:
 5134 1912 1F91      		pop r17
 5135               	.LVL325:
 5136 1914 0895      		ret
 5137               	.LFE89:
 5139               	.global	Timebase_UpCounter_Update_All
 5141               	Timebase_UpCounter_Update_All:
 5142               	.LFB90:
 5143               	.LM491:
 5144               	/* prologue: function */
 5145               	/* frame size = 0 */
 5146               	.LBB825:
 5147               	.LM492:
 5148 1916 80E0      		ldi r24,lo8(0)
 5149 1918 0E94 0000 		call Timebase_UpCounter_Update
 5150               	/* epilogue start */
 5151               	.LBE825:
 5152               	.LM493:
 5153 191c 0895      		ret
 5154               	.LFE90:
 5156               	.global	Timebase_UpCounter_Reset_All
 5158               	Timebase_UpCounter_Reset_All:
 5159               	.LFB91:
 5160               	.LM494:
 5161               	/* prologue: function */
 5162               	/* frame size = 0 */
 5163               	.LBB826:
 5164               	.LM495:
 5165 191e 80E0      		ldi r24,lo8(0)
 5166 1920 0E94 0000 		call Timebase_UpCounter_Reset
 5167               	/* epilogue start */
 5168               	.LBE826:
 5169               	.LM496:
 5170 1924 0895      		ret
 5171               	.LFE91:
 5173               	.global	Timebase_DownCounter_SS_Get_Status
 5175               	Timebase_DownCounter_SS_Get_Status:
 5176               	.LFB92:
 5177               	.LM497:
 5178               	.LVL326:
 5179               	/* prologue: function */
 5180               	/* frame size = 0 */
 5181               	.LM498:
 5182 1926 E091 0000 		lds r30,Timebase
 5183 192a F091 0000 		lds r31,(Timebase)+1
 5184 192e 90E0      		ldi r25,lo8(0)
 5185               	.LVL327:
 5186 1930 9C01      		movw r18,r24
 5187 1932 44E0      		ldi r20,4
 5188 1934 220F      	1:	lsl r18
 5189 1936 331F      		rol r19
 5190 1938 4A95      		dec r20
 5191 193a 01F4      		brne 1b
 5192 193c 280F      		add r18,r24
 5193 193e 391F      		adc r19,r25
 5194 1940 E20F      		add r30,r18
 5195 1942 F31F      		adc r31,r19
 5196 1944 E25B      		subi r30,lo8(-(78))
 5197 1946 FF4F      		sbci r31,hi8(-(78))
 5198 1948 8081      		ld r24,Z
 5199               	.LVL328:
 5200 194a 8695      		lsr r24
 5201               	.LM499:
 5202 194c 8F70      		andi r24,lo8(15)
 5203               	/* epilogue start */
 5204 194e 0895      		ret
 5205               	.LFE92:
 5207               	.global	Timebase_DownCounter_SS_Set_Status
 5209               	Timebase_DownCounter_SS_Set_Status:
 5210               	.LFB93:
 5211               	.LM500:
 5212               	.LVL329:
 5213               	/* prologue: function */
 5214               	/* frame size = 0 */
 5215               	.LM501:
 5216 1950 E091 0000 		lds r30,Timebase
 5217 1954 F091 0000 		lds r31,(Timebase)+1
 5218 1958 90E0      		ldi r25,lo8(0)
 5219               	.LVL330:
 5220 195a 9C01      		movw r18,r24
 5221 195c 54E0      		ldi r21,4
 5222 195e 220F      	1:	lsl r18
 5223 1960 331F      		rol r19
 5224 1962 5A95      		dec r21
 5225 1964 01F4      		brne 1b
 5226 1966 280F      		add r18,r24
 5227 1968 391F      		adc r19,r25
 5228 196a E20F      		add r30,r18
 5229 196c F31F      		adc r31,r19
 5230 196e E25B      		subi r30,lo8(-(78))
 5231 1970 FF4F      		sbci r31,hi8(-(78))
 5232 1972 6F70      		andi r22,lo8(15)
 5233               	.LVL331:
 5234 1974 660F      		lsl r22
 5235 1976 8081      		ld r24,Z
 5236               	.LVL332:
 5237 1978 817E      		andi r24,lo8(-31)
 5238 197a 862B      		or r24,r22
 5239 197c 8083      		st Z,r24
 5240               	/* epilogue start */
 5241               	.LM502:
 5242 197e 0895      		ret
 5243               	.LFE93:
 5245               	.global	Timebase_DownCounter_SS_Get_Value
 5247               	Timebase_DownCounter_SS_Get_Value:
 5248               	.LFB94:
 5249               	.LM503:
 5250               	.LVL333:
 5251               	/* prologue: function */
 5252               	/* frame size = 0 */
 5253               	.LM504:
 5254 1980 E091 0000 		lds r30,Timebase
 5255 1984 F091 0000 		lds r31,(Timebase)+1
 5256 1988 90E0      		ldi r25,lo8(0)
 5257               	.LVL334:
 5258 198a 9C01      		movw r18,r24
 5259 198c 64E0      		ldi r22,4
 5260 198e 220F      	1:	lsl r18
 5261 1990 331F      		rol r19
 5262 1992 6A95      		dec r22
 5263 1994 01F4      		brne 1b
 5264 1996 280F      		add r18,r24
 5265 1998 391F      		adc r19,r25
 5266 199a E20F      		add r30,r18
 5267 199c F31F      		adc r31,r19
 5268 199e E95A      		subi r30,lo8(-(87))
 5269 19a0 FF4F      		sbci r31,hi8(-(87))
 5270 19a2 6081      		ld r22,Z
 5271 19a4 7181      		ldd r23,Z+1
 5272               	.LM505:
 5273 19a6 8281      		ldd r24,Z+2
 5274               	.LVL335:
 5275 19a8 9381      		ldd r25,Z+3
 5276               	.LVL336:
 5277               	/* epilogue start */
 5278 19aa 0895      		ret
 5279               	.LFE94:
 5281               	.global	Timebase_DownCounter_SS_Set_Value
 5283               	Timebase_DownCounter_SS_Set_Value:
 5284               	.LFB95:
 5285               	.LM506:
 5286               	.LVL337:
 5287               	/* prologue: function */
 5288               	/* frame size = 0 */
 5289               	.LM507:
 5290 19ac E091 0000 		lds r30,Timebase
 5291 19b0 F091 0000 		lds r31,(Timebase)+1
 5292 19b4 90E0      		ldi r25,lo8(0)
 5293               	.LVL338:
 5294 19b6 9C01      		movw r18,r24
 5295 19b8 A4E0      		ldi r26,4
 5296 19ba 220F      	1:	lsl r18
 5297 19bc 331F      		rol r19
 5298 19be AA95      		dec r26
 5299 19c0 01F4      		brne 1b
 5300 19c2 280F      		add r18,r24
 5301 19c4 391F      		adc r19,r25
 5302 19c6 E20F      		add r30,r18
 5303 19c8 F31F      		adc r31,r19
 5304 19ca E95A      		subi r30,lo8(-(87))
 5305 19cc FF4F      		sbci r31,hi8(-(87))
 5306 19ce 4083      		st Z,r20
 5307 19d0 5183      		std Z+1,r21
 5308 19d2 6283      		std Z+2,r22
 5309 19d4 7383      		std Z+3,r23
 5310               	/* epilogue start */
 5311               	.LM508:
 5312 19d6 0895      		ret
 5313               	.LFE95:
 5315               	.global	Timebase_DownCounter_SS_Get_EndValueSec
 5317               	Timebase_DownCounter_SS_Get_EndValueSec:
 5318               	.LFB96:
 5319               	.LM509:
 5320               	.LVL339:
 5321               	/* prologue: function */
 5322               	/* frame size = 0 */
 5323               	.LM510:
 5324 19d8 E091 0000 		lds r30,Timebase
 5325 19dc F091 0000 		lds r31,(Timebase)+1
 5326 19e0 90E0      		ldi r25,lo8(0)
 5327               	.LVL340:
 5328 19e2 9C01      		movw r18,r24
 5329 19e4 B4E0      		ldi r27,4
 5330 19e6 220F      	1:	lsl r18
 5331 19e8 331F      		rol r19
 5332 19ea BA95      		dec r27
 5333 19ec 01F4      		brne 1b
 5334 19ee 280F      		add r18,r24
 5335 19f0 391F      		adc r19,r25
 5336 19f2 E20F      		add r30,r18
 5337 19f4 F31F      		adc r31,r19
 5338 19f6 E15B      		subi r30,lo8(-(79))
 5339 19f8 FF4F      		sbci r31,hi8(-(79))
 5340 19fa 6081      		ld r22,Z
 5341 19fc 7181      		ldd r23,Z+1
 5342               	.LM511:
 5343 19fe 8281      		ldd r24,Z+2
 5344               	.LVL341:
 5345 1a00 9381      		ldd r25,Z+3
 5346               	.LVL342:
 5347               	/* epilogue start */
 5348 1a02 0895      		ret
 5349               	.LFE96:
 5351               	.global	Timebase_DownCounter_SS_Get_EndValueSubSec
 5353               	Timebase_DownCounter_SS_Get_EndValueSubSec:
 5354               	.LFB97:
 5355               	.LM512:
 5356               	.LVL343:
 5357               	/* prologue: function */
 5358               	/* frame size = 0 */
 5359               	.LM513:
 5360 1a04 E091 0000 		lds r30,Timebase
 5361 1a08 F091 0000 		lds r31,(Timebase)+1
 5362 1a0c 90E0      		ldi r25,lo8(0)
 5363               	.LVL344:
 5364 1a0e 9C01      		movw r18,r24
 5365 1a10 44E0      		ldi r20,4
 5366 1a12 220F      	1:	lsl r18
 5367 1a14 331F      		rol r19
 5368 1a16 4A95      		dec r20
 5369 1a18 01F4      		brne 1b
 5370 1a1a 280F      		add r18,r24
 5371 1a1c 391F      		adc r19,r25
 5372 1a1e E20F      		add r30,r18
 5373 1a20 F31F      		adc r31,r19
 5374 1a22 ED5A      		subi r30,lo8(-(83))
 5375 1a24 FF4F      		sbci r31,hi8(-(83))
 5376 1a26 6081      		ld r22,Z
 5377 1a28 7181      		ldd r23,Z+1
 5378               	.LM514:
 5379 1a2a 8281      		ldd r24,Z+2
 5380               	.LVL345:
 5381 1a2c 9381      		ldd r25,Z+3
 5382               	.LVL346:
 5383               	/* epilogue start */
 5384 1a2e 0895      		ret
 5385               	.LFE97:
 5387               	.global	Timebase_DownCounter_SS_Set_EndValueSec
 5389               	Timebase_DownCounter_SS_Set_EndValueSec:
 5390               	.LFB98:
 5391               	.LM515:
 5392               	.LVL347:
 5393               	/* prologue: function */
 5394               	/* frame size = 0 */
 5395               	.LM516:
 5396 1a30 E091 0000 		lds r30,Timebase
 5397 1a34 F091 0000 		lds r31,(Timebase)+1
 5398 1a38 90E0      		ldi r25,lo8(0)
 5399               	.LVL348:
 5400 1a3a 9C01      		movw r18,r24
 5401 1a3c A4E0      		ldi r26,4
 5402 1a3e 220F      	1:	lsl r18
 5403 1a40 331F      		rol r19
 5404 1a42 AA95      		dec r26
 5405 1a44 01F4      		brne 1b
 5406 1a46 280F      		add r18,r24
 5407 1a48 391F      		adc r19,r25
 5408 1a4a E20F      		add r30,r18
 5409 1a4c F31F      		adc r31,r19
 5410 1a4e E15B      		subi r30,lo8(-(79))
 5411 1a50 FF4F      		sbci r31,hi8(-(79))
 5412 1a52 4083      		st Z,r20
 5413 1a54 5183      		std Z+1,r21
 5414 1a56 6283      		std Z+2,r22
 5415 1a58 7383      		std Z+3,r23
 5416               	/* epilogue start */
 5417               	.LM517:
 5418 1a5a 0895      		ret
 5419               	.LFE98:
 5421               	.global	Timebase_DownCounter_SS_Set_EndValueSubSec
 5423               	Timebase_DownCounter_SS_Set_EndValueSubSec:
 5424               	.LFB99:
 5425               	.LM518:
 5426               	.LVL349:
 5427               	/* prologue: function */
 5428               	/* frame size = 0 */
 5429               	.LM519:
 5430 1a5c E091 0000 		lds r30,Timebase
 5431 1a60 F091 0000 		lds r31,(Timebase)+1
 5432 1a64 90E0      		ldi r25,lo8(0)
 5433               	.LVL350:
 5434 1a66 9C01      		movw r18,r24
 5435 1a68 B4E0      		ldi r27,4
 5436 1a6a 220F      	1:	lsl r18
 5437 1a6c 331F      		rol r19
 5438 1a6e BA95      		dec r27
 5439 1a70 01F4      		brne 1b
 5440 1a72 280F      		add r18,r24
 5441 1a74 391F      		adc r19,r25
 5442 1a76 E20F      		add r30,r18
 5443 1a78 F31F      		adc r31,r19
 5444 1a7a ED5A      		subi r30,lo8(-(83))
 5445 1a7c FF4F      		sbci r31,hi8(-(83))
 5446 1a7e 4083      		st Z,r20
 5447 1a80 5183      		std Z+1,r21
 5448 1a82 6283      		std Z+2,r22
 5449 1a84 7383      		std Z+3,r23
 5450               	/* epilogue start */
 5451               	.LM520:
 5452 1a86 0895      		ret
 5453               	.LFE99:
 5455               	.global	Timebase_DownCounter_SS_Get_PeriodValue
 5457               	Timebase_DownCounter_SS_Get_PeriodValue:
 5458               	.LFB100:
 5459               	.LM521:
 5460               	.LVL351:
 5461               	/* prologue: function */
 5462               	/* frame size = 0 */
 5463               	.LM522:
 5464 1a88 E091 0000 		lds r30,Timebase
 5465 1a8c F091 0000 		lds r31,(Timebase)+1
 5466 1a90 90E0      		ldi r25,lo8(0)
 5467               	.LVL352:
 5468 1a92 9C01      		movw r18,r24
 5469 1a94 44E0      		ldi r20,4
 5470 1a96 220F      	1:	lsl r18
 5471 1a98 331F      		rol r19
 5472 1a9a 4A95      		dec r20
 5473 1a9c 01F4      		brne 1b
 5474 1a9e 280F      		add r18,r24
 5475 1aa0 391F      		adc r19,r25
 5476 1aa2 E20F      		add r30,r18
 5477 1aa4 F31F      		adc r31,r19
 5478 1aa6 E55A      		subi r30,lo8(-(91))
 5479 1aa8 FF4F      		sbci r31,hi8(-(91))
 5480 1aaa 6081      		ld r22,Z
 5481 1aac 7181      		ldd r23,Z+1
 5482               	.LM523:
 5483 1aae 8281      		ldd r24,Z+2
 5484               	.LVL353:
 5485 1ab0 9381      		ldd r25,Z+3
 5486               	.LVL354:
 5487               	/* epilogue start */
 5488 1ab2 0895      		ret
 5489               	.LFE100:
 5491               	.global	Timebase_DownCounter_SS_Set_PeriodValue
 5493               	Timebase_DownCounter_SS_Set_PeriodValue:
 5494               	.LFB101:
 5495               	.LM524:
 5496               	.LVL355:
 5497               	/* prologue: function */
 5498               	/* frame size = 0 */
 5499 1ab4 E091 0000 		lds r30,Timebase
 5500 1ab8 F091 0000 		lds r31,(Timebase)+1
 5501 1abc 282F      		mov r18,r24
 5502 1abe 30E0      		ldi r19,lo8(0)
 5503               	.LVL356:
 5504               	.LM525:
 5505 1ac0 77FF      		sbrs r23,7
 5506 1ac2 00C0      		rjmp .L266
 5507               	.LVL357:
 5508               	.LM526:
 5509 1ac4 C901      		movw r24,r18
 5510 1ac6 B4E0      		ldi r27,4
 5511 1ac8 880F      	1:	lsl r24
 5512 1aca 991F      		rol r25
 5513 1acc BA95      		dec r27
 5514 1ace 01F4      		brne 1b
 5515 1ad0 820F      		add r24,r18
 5516 1ad2 931F      		adc r25,r19
 5517 1ad4 E80F      		add r30,r24
 5518 1ad6 F91F      		adc r31,r25
 5519 1ad8 E55A      		subi r30,lo8(-(91))
 5520 1ada FF4F      		sbci r31,hi8(-(91))
 5521 1adc 1082      		st Z,__zero_reg__
 5522 1ade 1182      		std Z+1,__zero_reg__
 5523 1ae0 1282      		std Z+2,__zero_reg__
 5524 1ae2 1382      		std Z+3,__zero_reg__
 5525 1ae4 0895      		ret
 5526               	.LVL358:
 5527               	.L266:
 5528               	.LM527:
 5529 1ae6 C901      		movw r24,r18
 5530 1ae8 A4E0      		ldi r26,4
 5531 1aea 880F      	1:	lsl r24
 5532 1aec 991F      		rol r25
 5533 1aee AA95      		dec r26
 5534 1af0 01F4      		brne 1b
 5535 1af2 820F      		add r24,r18
 5536 1af4 931F      		adc r25,r19
 5537 1af6 E80F      		add r30,r24
 5538 1af8 F91F      		adc r31,r25
 5539 1afa E55A      		subi r30,lo8(-(91))
 5540 1afc FF4F      		sbci r31,hi8(-(91))
 5541 1afe 4083      		st Z,r20
 5542 1b00 5183      		std Z+1,r21
 5543 1b02 6283      		std Z+2,r22
 5544 1b04 7383      		std Z+3,r23
 5545 1b06 0895      		ret
 5546               	.LFE101:
 5548               	.global	Timebase_DownCounter_SS_Get_Period_Flag
 5550               	Timebase_DownCounter_SS_Get_Period_Flag:
 5551               	.LFB102:
 5552               	.LM528:
 5553               	.LVL359:
 5554               	/* prologue: function */
 5555               	/* frame size = 0 */
 5556               	.LM529:
 5557 1b08 E091 0000 		lds r30,Timebase
 5558 1b0c F091 0000 		lds r31,(Timebase)+1
 5559 1b10 90E0      		ldi r25,lo8(0)
 5560               	.LVL360:
 5561 1b12 9C01      		movw r18,r24
 5562 1b14 44E0      		ldi r20,4
 5563 1b16 220F      	1:	lsl r18
 5564 1b18 331F      		rol r19
 5565 1b1a 4A95      		dec r20
 5566 1b1c 01F4      		brne 1b
 5567 1b1e 280F      		add r18,r24
 5568 1b20 391F      		adc r19,r25
 5569 1b22 E20F      		add r30,r18
 5570 1b24 F31F      		adc r31,r19
 5571 1b26 E25B      		subi r30,lo8(-(78))
 5572 1b28 FF4F      		sbci r31,hi8(-(78))
 5573 1b2a 8081      		ld r24,Z
 5574               	.LVL361:
 5575               	.LM530:
 5576 1b2c 8170      		andi r24,lo8(1)
 5577               	/* epilogue start */
 5578 1b2e 0895      		ret
 5579               	.LFE102:
 5581               	.global	Timebase_DownCounter_SS_Set_Period_Flag
 5583               	Timebase_DownCounter_SS_Set_Period_Flag:
 5584               	.LFB103:
 5585               	.LM531:
 5586               	.LVL362:
 5587               	/* prologue: function */
 5588               	/* frame size = 0 */
 5589               	.LM532:
 5590 1b30 E091 0000 		lds r30,Timebase
 5591 1b34 F091 0000 		lds r31,(Timebase)+1
 5592 1b38 90E0      		ldi r25,lo8(0)
 5593               	.LVL363:
 5594 1b3a 9C01      		movw r18,r24
 5595 1b3c 54E0      		ldi r21,4
 5596 1b3e 220F      	1:	lsl r18
 5597 1b40 331F      		rol r19
 5598 1b42 5A95      		dec r21
 5599 1b44 01F4      		brne 1b
 5600 1b46 280F      		add r18,r24
 5601 1b48 391F      		adc r19,r25
 5602 1b4a E20F      		add r30,r18
 5603 1b4c F31F      		adc r31,r19
 5604 1b4e E25B      		subi r30,lo8(-(78))
 5605 1b50 FF4F      		sbci r31,hi8(-(78))
 5606 1b52 8081      		ld r24,Z
 5607               	.LVL364:
 5608 1b54 8160      		ori r24,lo8(1)
 5609 1b56 8083      		st Z,r24
 5610               	/* epilogue start */
 5611               	.LM533:
 5612 1b58 0895      		ret
 5613               	.LFE103:
 5615               	.global	Timebase_DownCounter_SS_Clear_Period_Flag
 5617               	Timebase_DownCounter_SS_Clear_Period_Flag:
 5618               	.LFB104:
 5619               	.LM534:
 5620               	.LVL365:
 5621               	/* prologue: function */
 5622               	/* frame size = 0 */
 5623               	.LM535:
 5624 1b5a E091 0000 		lds r30,Timebase
 5625 1b5e F091 0000 		lds r31,(Timebase)+1
 5626 1b62 90E0      		ldi r25,lo8(0)
 5627               	.LVL366:
 5628 1b64 9C01      		movw r18,r24
 5629 1b66 64E0      		ldi r22,4
 5630 1b68 220F      	1:	lsl r18
 5631 1b6a 331F      		rol r19
 5632 1b6c 6A95      		dec r22
 5633 1b6e 01F4      		brne 1b
 5634 1b70 280F      		add r18,r24
 5635 1b72 391F      		adc r19,r25
 5636 1b74 E20F      		add r30,r18
 5637 1b76 F31F      		adc r31,r19
 5638 1b78 E25B      		subi r30,lo8(-(78))
 5639 1b7a FF4F      		sbci r31,hi8(-(78))
 5640 1b7c 8081      		ld r24,Z
 5641               	.LVL367:
 5642 1b7e 8E7F      		andi r24,lo8(-2)
 5643 1b80 8083      		st Z,r24
 5644               	/* epilogue start */
 5645               	.LM536:
 5646 1b82 0895      		ret
 5647               	.LFE104:
 5649               	.global	Timebase_DownCounter_SS_Reset
 5651               	Timebase_DownCounter_SS_Reset:
 5652               	.LFB105:
 5653               	.LM537:
 5654               	.LVL368:
 5655               	/* prologue: function */
 5656               	/* frame size = 0 */
 5657               	.LBB827:
 5658               	.LBB828:
 5659               	.LM538:
 5660 1b84 E091 0000 		lds r30,Timebase
 5661 1b88 F091 0000 		lds r31,(Timebase)+1
 5662 1b8c 90E0      		ldi r25,lo8(0)
 5663 1b8e 9C01      		movw r18,r24
 5664               	.LVL369:
 5665 1b90 74E0      		ldi r23,4
 5666 1b92 220F      	1:	lsl r18
 5667 1b94 331F      		rol r19
 5668 1b96 7A95      		dec r23
 5669 1b98 01F4      		brne 1b
 5670 1b9a 280F      		add r18,r24
 5671 1b9c 391F      		adc r19,r25
 5672 1b9e E20F      		add r30,r18
 5673 1ba0 F31F      		adc r31,r19
 5674 1ba2 ED5A      		subi r30,lo8(-(83))
 5675 1ba4 FF4F      		sbci r31,hi8(-(83))
 5676 1ba6 1082      		st Z,__zero_reg__
 5677 1ba8 1182      		std Z+1,__zero_reg__
 5678 1baa 1282      		std Z+2,__zero_reg__
 5679 1bac 1382      		std Z+3,__zero_reg__
 5680               	.LBE828:
 5681               	.LBE827:
 5682               	.LBB829:
 5683               	.LBB830:
 5684               	.LM539:
 5685 1bae 1292      		st -Z,__zero_reg__
 5686 1bb0 1292      		st -Z,__zero_reg__
 5687 1bb2 1292      		st -Z,__zero_reg__
 5688 1bb4 1292      		st -Z,__zero_reg__
 5689               	.LBE830:
 5690               	.LBE829:
 5691               	.LBB831:
 5692               	.LBB832:
 5693               	.LM540:
 5694 1bb6 3896      		adiw r30,8
 5695 1bb8 1082      		st Z,__zero_reg__
 5696 1bba 1182      		std Z+1,__zero_reg__
 5697 1bbc 1282      		std Z+2,__zero_reg__
 5698 1bbe 1382      		std Z+3,__zero_reg__
 5699               	.LBE832:
 5700               	.LBE831:
 5701               	.LBB833:
 5702               	.LBB834:
 5703               	.LM541:
 5704 1bc0 3997      		sbiw r30,9
 5705 1bc2 8081      		ld r24,Z
 5706               	.LBE834:
 5707               	.LBE833:
 5708               	.LBB835:
 5709               	.LBB836:
 5710               	.LM542:
 5711 1bc4 807E      		andi r24,lo8(-32)
 5712 1bc6 8083      		st Z,r24
 5713               	/* epilogue start */
 5714               	.LBE836:
 5715               	.LBE835:
 5716               	.LM543:
 5717 1bc8 0895      		ret
 5718               	.LFE105:
 5720               	.global	Timebase_DownCounter_SS_Clear_All_Flags
 5722               	Timebase_DownCounter_SS_Clear_All_Flags:
 5723               	.LFB106:
 5724               	.LM544:
 5725               	.LVL370:
 5726               	/* prologue: function */
 5727               	/* frame size = 0 */
 5728               	.LBB837:
 5729               	.LBB838:
 5730               	.LBB839:
 5731               	.LBB840:
 5732               	.LM545:
 5733 1bca E091 0000 		lds r30,Timebase
 5734 1bce F091 0000 		lds r31,(Timebase)+1
 5735 1bd2 90E0      		ldi r25,lo8(0)
 5736 1bd4 9C01      		movw r18,r24
 5737               	.LVL371:
 5738 1bd6 A4E0      		ldi r26,4
 5739 1bd8 220F      	1:	lsl r18
 5740 1bda 331F      		rol r19
 5741 1bdc AA95      		dec r26
 5742 1bde 01F4      		brne 1b
 5743 1be0 280F      		add r18,r24
 5744 1be2 391F      		adc r19,r25
 5745 1be4 E20F      		add r30,r18
 5746 1be6 F31F      		adc r31,r19
 5747 1be8 ED5A      		subi r30,lo8(-(83))
 5748 1bea FF4F      		sbci r31,hi8(-(83))
 5749 1bec 1082      		st Z,__zero_reg__
 5750 1bee 1182      		std Z+1,__zero_reg__
 5751 1bf0 1282      		std Z+2,__zero_reg__
 5752 1bf2 1382      		std Z+3,__zero_reg__
 5753               	.LBE840:
 5754               	.LBE839:
 5755               	.LBB841:
 5756               	.LBB842:
 5757               	.LM546:
 5758 1bf4 1292      		st -Z,__zero_reg__
 5759 1bf6 1292      		st -Z,__zero_reg__
 5760 1bf8 1292      		st -Z,__zero_reg__
 5761 1bfa 1292      		st -Z,__zero_reg__
 5762               	.LBE842:
 5763               	.LBE841:
 5764               	.LBB843:
 5765               	.LBB844:
 5766               	.LM547:
 5767 1bfc 3896      		adiw r30,8
 5768 1bfe 1082      		st Z,__zero_reg__
 5769 1c00 1182      		std Z+1,__zero_reg__
 5770 1c02 1282      		std Z+2,__zero_reg__
 5771 1c04 1382      		std Z+3,__zero_reg__
 5772               	.LBE844:
 5773               	.LBE843:
 5774               	.LBB845:
 5775               	.LBB846:
 5776               	.LM548:
 5777 1c06 3997      		sbiw r30,9
 5778 1c08 8081      		ld r24,Z
 5779               	.LBE846:
 5780               	.LBE845:
 5781               	.LBB847:
 5782               	.LBB848:
 5783               	.LM549:
 5784 1c0a 807E      		andi r24,lo8(-32)
 5785 1c0c 8083      		st Z,r24
 5786               	/* epilogue start */
 5787               	.LBE848:
 5788               	.LBE847:
 5789               	.LBE838:
 5790               	.LBE837:
 5791               	.LM550:
 5792 1c0e 0895      		ret
 5793               	.LFE106:
 5795               	.global	Timebase_DownCounter_SS_Start
 5797               	Timebase_DownCounter_SS_Start:
 5798               	.LFB107:
 5799               	.LM551:
 5800               	.LVL372:
 5801               	/* prologue: function */
 5802               	/* frame size = 0 */
 5803               	.LBB849:
 5804               	.LBB850:
 5805               	.LM552:
 5806 1c10 E091 0000 		lds r30,Timebase
 5807 1c14 F091 0000 		lds r31,(Timebase)+1
 5808 1c18 90E0      		ldi r25,lo8(0)
 5809               	.LBE850:
 5810               	.LBE849:
 5811               	.LM553:
 5812 1c1a 9C01      		movw r18,r24
 5813               	.LVL373:
 5814 1c1c B4E0      		ldi r27,4
 5815 1c1e 220F      	1:	lsl r18
 5816 1c20 331F      		rol r19
 5817 1c22 BA95      		dec r27
 5818 1c24 01F4      		brne 1b
 5819 1c26 280F      		add r18,r24
 5820 1c28 391F      		adc r19,r25
 5821 1c2a E20F      		add r30,r18
 5822 1c2c F31F      		adc r31,r19
 5823 1c2e E25B      		subi r30,lo8(-(78))
 5824 1c30 FF4F      		sbci r31,hi8(-(78))
 5825 1c32 9081      		ld r25,Z
 5826 1c34 892F      		mov r24,r25
 5827 1c36 8695      		lsr r24
 5828 1c38 8F70      		andi r24,lo8(15)
 5829 1c3a 8130      		cpi r24,lo8(1)
 5830 1c3c 01F0      		breq .L281
 5831               	.LBB851:
 5832               	.LBB852:
 5833               	.LM554:
 5834 1c3e 917E      		andi r25,lo8(-31)
 5835 1c40 9260      		ori r25,lo8(2)
 5836 1c42 9083      		st Z,r25
 5837               	.L281:
 5838 1c44 0895      		ret
 5839               	.LBE852:
 5840               	.LBE851:
 5841               	.LFE107:
 5843               	.global	Timebase_DownCounter_SS_Stop
 5845               	Timebase_DownCounter_SS_Stop:
 5846               	.LFB108:
 5847               	.LM555:
 5848               	.LVL374:
 5849               	/* prologue: function */
 5850               	/* frame size = 0 */
 5851               	.LBB853:
 5852               	.LBB854:
 5853               	.LM556:
 5854 1c46 E091 0000 		lds r30,Timebase
 5855 1c4a F091 0000 		lds r31,(Timebase)+1
 5856 1c4e 90E0      		ldi r25,lo8(0)
 5857               	.LBE854:
 5858               	.LBE853:
 5859               	.LM557:
 5860 1c50 9C01      		movw r18,r24
 5861               	.LVL375:
 5862 1c52 44E0      		ldi r20,4
 5863 1c54 220F      	1:	lsl r18
 5864 1c56 331F      		rol r19
 5865 1c58 4A95      		dec r20
 5866 1c5a 01F4      		brne 1b
 5867 1c5c 280F      		add r18,r24
 5868 1c5e 391F      		adc r19,r25
 5869 1c60 E20F      		add r30,r18
 5870 1c62 F31F      		adc r31,r19
 5871 1c64 E25B      		subi r30,lo8(-(78))
 5872 1c66 FF4F      		sbci r31,hi8(-(78))
 5873 1c68 9081      		ld r25,Z
 5874 1c6a 892F      		mov r24,r25
 5875 1c6c 8695      		lsr r24
 5876 1c6e 8F70      		andi r24,lo8(15)
 5877 1c70 8230      		cpi r24,lo8(2)
 5878 1c72 01F0      		breq .L284
 5879               	.LBB855:
 5880               	.LBB856:
 5881               	.LM558:
 5882 1c74 917E      		andi r25,lo8(-31)
 5883 1c76 9460      		ori r25,lo8(4)
 5884 1c78 9083      		st Z,r25
 5885               	.L284:
 5886 1c7a 0895      		ret
 5887               	.LBE856:
 5888               	.LBE855:
 5889               	.LFE108:
 5891               	.global	Timebase_DownCounter_SS_Set_Securely
 5893               	Timebase_DownCounter_SS_Set_Securely:
 5894               	.LFB109:
 5895               	.LM559:
 5896               	.LVL376:
 5897 1c7c 2F92      		push r2
 5898 1c7e 3F92      		push r3
 5899 1c80 4F92      		push r4
 5900 1c82 5F92      		push r5
 5901 1c84 6F92      		push r6
 5902 1c86 7F92      		push r7
 5903 1c88 8F92      		push r8
 5904 1c8a 9F92      		push r9
 5905 1c8c AF92      		push r10
 5906 1c8e BF92      		push r11
 5907 1c90 CF92      		push r12
 5908 1c92 DF92      		push r13
 5909 1c94 EF92      		push r14
 5910 1c96 FF92      		push r15
 5911 1c98 0F93      		push r16
 5912 1c9a 1F93      		push r17
 5913 1c9c DF93      		push r29
 5914 1c9e CF93      		push r28
 5915 1ca0 00D0      		rcall .
 5916 1ca2 00D0      		rcall .
 5917 1ca4 CDB7      		in r28,__SP_L__
 5918 1ca6 DEB7      		in r29,__SP_H__
 5919               	/* prologue: function */
 5920               	/* frame size = 4 */
 5921 1ca8 4A01      		movw r8,r20
 5922 1caa 5B01      		movw r10,r22
 5923               	.LBB857:
 5924               	.LBB858:
 5925               	.LM560:
 5926 1cac 2091 0000 		lds r18,Timebase
 5927 1cb0 3091 0000 		lds r19,(Timebase)+1
 5928 1cb4 3C83      		std Y+4,r19
 5929 1cb6 2B83      		std Y+3,r18
 5930 1cb8 A82F      		mov r26,r24
 5931 1cba B0E0      		ldi r27,lo8(0)
 5932 1cbc BA83      		std Y+2,r27
 5933 1cbe A983      		std Y+1,r26
 5934               	.LBE858:
 5935               	.LBE857:
 5936               	.LM561:
 5937 1cc0 FD01      		movw r30,r26
 5938 1cc2 64E0      		ldi r22,4
 5939 1cc4 EE0F      	1:	lsl r30
 5940 1cc6 FF1F      		rol r31
 5941 1cc8 6A95      		dec r22
 5942 1cca 01F4      		brne 1b
 5943 1ccc EA0F      		add r30,r26
 5944 1cce FB1F      		adc r31,r27
 5945 1cd0 E20F      		add r30,r18
 5946 1cd2 F31F      		adc r31,r19
 5947 1cd4 E25B      		subi r30,lo8(-(78))
 5948 1cd6 FF4F      		sbci r31,hi8(-(78))
 5949 1cd8 8081      		ld r24,Z
 5950               	.LVL377:
 5951 1cda EE54      		subi r30,lo8(-(-78))
 5952 1cdc F040      		sbci r31,hi8(-(-78))
 5953 1cde 8695      		lsr r24
 5954 1ce0 8F70      		andi r24,lo8(15)
 5955 1ce2 01F0      		breq .+2
 5956 1ce4 00C0      		rjmp .L288
 5957               	.LVL378:
 5958               	.LBB859:
 5959               	.LBB860:
 5960               	.LBB861:
 5961               	.LM562:
 5962 1ce6 E95A      		subi r30,lo8(-(87))
 5963 1ce8 FF4F      		sbci r31,hi8(-(87))
 5964 1cea 8082      		st Z,r8
 5965 1cec 9182      		std Z+1,r9
 5966 1cee A282      		std Z+2,r10
 5967 1cf0 B382      		std Z+3,r11
 5968               	.LBE861:
 5969               	.LBE860:
 5970               	.LBB862:
 5971               	.LBB863:
 5972               	.LM563:
 5973 1cf2 F901      		movw r30,r18
 5974 1cf4 C084      		ldd r12,Z+8
 5975 1cf6 D184      		ldd r13,Z+9
 5976               	.LBE863:
 5977               	.LBE862:
 5978               	.LBB864:
 5979               	.LBB865:
 5980               	.LM564:
 5981 1cf8 2284      		ldd r2,Z+10
 5982 1cfa 3384      		ldd r3,Z+11
 5983 1cfc 4484      		ldd r4,Z+12
 5984 1cfe 5584      		ldd r5,Z+13
 5985               	.LVL379:
 5986               	.LBE865:
 5987               	.LBE864:
 5988               	.LM565:
 5989 1d00 2181      		ldd r18,Z+1
 5990 1d02 3281      		ldd r19,Z+2
 5991 1d04 40E0      		ldi r20,lo8(0)
 5992 1d06 50E0      		ldi r21,hi8(0)
 5993 1d08 C501      		movw r24,r10
 5994 1d0a B401      		movw r22,r8
 5995 1d0c 0E94 0000 		call __divmodsi4
 5996 1d10 7B01      		movw r14,r22
 5997 1d12 8C01      		movw r16,r24
 5998               	.LM566:
 5999 1d14 AB81      		ldd r26,Y+3
 6000 1d16 BC81      		ldd r27,Y+4
 6001 1d18 1196      		adiw r26,1
 6002 1d1a 2D91      		ld r18,X+
 6003 1d1c 3C91      		ld r19,X
 6004 1d1e 1297      		sbiw r26,1+1
 6005 1d20 40E0      		ldi r20,lo8(0)
 6006 1d22 50E0      		ldi r21,hi8(0)
 6007 1d24 C501      		movw r24,r10
 6008 1d26 B401      		movw r22,r8
 6009 1d28 0E94 0000 		call __divmodsi4
 6010 1d2c C901      		movw r24,r18
 6011 1d2e DA01      		movw r26,r20
 6012 1d30 3C01      		movw r6,r24
 6013 1d32 4D01      		movw r8,r26
 6014               	.LVL380:
 6015               	.LM567:
 6016 1d34 5601      		movw r10,r12
 6017               	.LVL381:
 6018 1d36 CC24      		clr r12
 6019 1d38 DD24      		clr r13
 6020               	.LVL382:
 6021 1d3a AE0C      		add r10,r14
 6022 1d3c BF1C      		adc r11,r15
 6023 1d3e C01E      		adc r12,r16
 6024 1d40 D11E      		adc r13,r17
 6025               	.LVL383:
 6026               	.LM568:
 6027 1d42 EB81      		ldd r30,Y+3
 6028 1d44 FC81      		ldd r31,Y+4
 6029 1d46 8181      		ldd r24,Z+1
 6030 1d48 9281      		ldd r25,Z+2
 6031               	.LVL384:
 6032 1d4a A0E0      		ldi r26,lo8(0)
 6033 1d4c B0E0      		ldi r27,hi8(0)
 6034 1d4e A816      		cp r10,r24
 6035 1d50 B906      		cpc r11,r25
 6036 1d52 CA06      		cpc r12,r26
 6037 1d54 DB06      		cpc r13,r27
 6038 1d56 04F0      		brlt .L287
 6039               	.LM569:
 6040 1d58 0894      		sec
 6041 1d5a 611C      		adc r6,__zero_reg__
 6042 1d5c 711C      		adc r7,__zero_reg__
 6043 1d5e 811C      		adc r8,__zero_reg__
 6044 1d60 911C      		adc r9,__zero_reg__
 6045               	.LM570:
 6046 1d62 2181      		ldd r18,Z+1
 6047 1d64 3281      		ldd r19,Z+2
 6048 1d66 40E0      		ldi r20,lo8(0)
 6049 1d68 50E0      		ldi r21,hi8(0)
 6050 1d6a C601      		movw r24,r12
 6051 1d6c B501      		movw r22,r10
 6052 1d6e 0E94 0000 		call __divmodsi4
 6053 1d72 AC01      		movw r20,r24
 6054 1d74 CB01      		movw r24,r22
 6055 1d76 DA01      		movw r26,r20
 6056 1d78 5C01      		movw r10,r24
 6057 1d7a 6D01      		movw r12,r26
 6058               	.L287:
 6059               	.LBB866:
 6060               	.LBB867:
 6061               	.LM571:
 6062 1d7c E981      		ldd r30,Y+1
 6063 1d7e FA81      		ldd r31,Y+2
 6064 1d80 54E0      		ldi r21,4
 6065 1d82 EE0F      	1:	lsl r30
 6066 1d84 FF1F      		rol r31
 6067 1d86 5A95      		dec r21
 6068 1d88 01F4      		brne 1b
 6069 1d8a 2981      		ldd r18,Y+1
 6070 1d8c 3A81      		ldd r19,Y+2
 6071 1d8e E20F      		add r30,r18
 6072 1d90 F31F      		adc r31,r19
 6073 1d92 8B81      		ldd r24,Y+3
 6074 1d94 9C81      		ldd r25,Y+4
 6075 1d96 E80F      		add r30,r24
 6076 1d98 F91F      		adc r31,r25
 6077 1d9a E15B      		subi r30,lo8(-(79))
 6078 1d9c FF4F      		sbci r31,hi8(-(79))
 6079 1d9e 260C      		add r2,r6
 6080 1da0 371C      		adc r3,r7
 6081 1da2 481C      		adc r4,r8
 6082 1da4 591C      		adc r5,r9
 6083 1da6 2192      		st Z+,r2
 6084 1da8 3192      		st Z+,r3
 6085 1daa 4192      		st Z+,r4
 6086 1dac 5192      		st Z+,r5
 6087               	.LBE867:
 6088               	.LBE866:
 6089               	.LBB868:
 6090               	.LBB869:
 6091               	.LM572:
 6092 1dae A082      		st Z,r10
 6093 1db0 B182      		std Z+1,r11
 6094 1db2 C282      		std Z+2,r12
 6095 1db4 D382      		std Z+3,r13
 6096               	.LBE869:
 6097               	.LBE868:
 6098               	.LBB870:
 6099               	.LBB871:
 6100               	.LM573:
 6101 1db6 3597      		sbiw r30,5
 6102 1db8 9081      		ld r25,Z
 6103 1dba 892F      		mov r24,r25
 6104 1dbc 8695      		lsr r24
 6105 1dbe 8F70      		andi r24,lo8(15)
 6106 1dc0 8130      		cpi r24,lo8(1)
 6107 1dc2 01F0      		breq .L288
 6108               	.LBB872:
 6109               	.LBB873:
 6110               	.LM574:
 6111 1dc4 917E      		andi r25,lo8(-31)
 6112 1dc6 9260      		ori r25,lo8(2)
 6113 1dc8 9083      		st Z,r25
 6114               	.LVL385:
 6115               	.L288:
 6116               	/* epilogue start */
 6117               	.LBE873:
 6118               	.LBE872:
 6119               	.LBE871:
 6120               	.LBE870:
 6121               	.LBE859:
 6122               	.LM575:
 6123 1dca 0F90      		pop __tmp_reg__
 6124 1dcc 0F90      		pop __tmp_reg__
 6125 1dce 0F90      		pop __tmp_reg__
 6126 1dd0 0F90      		pop __tmp_reg__
 6127 1dd2 CF91      		pop r28
 6128 1dd4 DF91      		pop r29
 6129 1dd6 1F91      		pop r17
 6130 1dd8 0F91      		pop r16
 6131 1dda FF90      		pop r15
 6132 1ddc EF90      		pop r14
 6133 1dde DF90      		pop r13
 6134 1de0 CF90      		pop r12
 6135               	.LVL386:
 6136 1de2 BF90      		pop r11
 6137 1de4 AF90      		pop r10
 6138               	.LVL387:
 6139 1de6 9F90      		pop r9
 6140 1de8 8F90      		pop r8
 6141               	.LVL388:
 6142 1dea 7F90      		pop r7
 6143 1dec 6F90      		pop r6
 6144               	.LVL389:
 6145 1dee 5F90      		pop r5
 6146 1df0 4F90      		pop r4
 6147 1df2 3F90      		pop r3
 6148 1df4 2F90      		pop r2
 6149               	.LVL390:
 6150 1df6 0895      		ret
 6151               	.LFE109:
 6153               	.global	Timebase_DownCounter_SS_Set_Forcefully
 6155               	Timebase_DownCounter_SS_Set_Forcefully:
 6156               	.LFB110:
 6157               	.LM576:
 6158               	.LVL391:
 6159               	/* prologue: function */
 6160               	/* frame size = 0 */
 6161               	.LBB874:
 6162               	.LBB875:
 6163               	.LBB876:
 6164               	.LBB877:
 6165               	.LM577:
 6166 1df8 E091 0000 		lds r30,Timebase
 6167 1dfc F091 0000 		lds r31,(Timebase)+1
 6168 1e00 A82F      		mov r26,r24
 6169 1e02 B0E0      		ldi r27,lo8(0)
 6170 1e04 9D01      		movw r18,r26
 6171 1e06 94E0      		ldi r25,4
 6172 1e08 220F      	1:	lsl r18
 6173 1e0a 331F      		rol r19
 6174 1e0c 9A95      		dec r25
 6175 1e0e 01F4      		brne 1b
 6176 1e10 2A0F      		add r18,r26
 6177 1e12 3B1F      		adc r19,r27
 6178 1e14 E20F      		add r30,r18
 6179 1e16 F31F      		adc r31,r19
 6180 1e18 ED5A      		subi r30,lo8(-(83))
 6181 1e1a FF4F      		sbci r31,hi8(-(83))
 6182 1e1c 1082      		st Z,__zero_reg__
 6183 1e1e 1182      		std Z+1,__zero_reg__
 6184 1e20 1282      		std Z+2,__zero_reg__
 6185 1e22 1382      		std Z+3,__zero_reg__
 6186               	.LBE877:
 6187               	.LBE876:
 6188               	.LBB878:
 6189               	.LBB879:
 6190               	.LM578:
 6191 1e24 1292      		st -Z,__zero_reg__
 6192 1e26 1292      		st -Z,__zero_reg__
 6193 1e28 1292      		st -Z,__zero_reg__
 6194 1e2a 1292      		st -Z,__zero_reg__
 6195               	.LBE879:
 6196               	.LBE878:
 6197               	.LBB880:
 6198               	.LBB881:
 6199               	.LM579:
 6200 1e2c 3896      		adiw r30,8
 6201 1e2e 1082      		st Z,__zero_reg__
 6202 1e30 1182      		std Z+1,__zero_reg__
 6203 1e32 1282      		std Z+2,__zero_reg__
 6204 1e34 1382      		std Z+3,__zero_reg__
 6205               	.LBE881:
 6206               	.LBE880:
 6207               	.LBB882:
 6208               	.LBB883:
 6209               	.LM580:
 6210 1e36 3997      		sbiw r30,9
 6211 1e38 9081      		ld r25,Z
 6212               	.LBE883:
 6213               	.LBE882:
 6214               	.LBB884:
 6215               	.LBB885:
 6216               	.LM581:
 6217 1e3a 907E      		andi r25,lo8(-32)
 6218 1e3c 9083      		st Z,r25
 6219               	.LBE885:
 6220               	.LBE884:
 6221               	.LBE875:
 6222               	.LBE874:
 6223               	.LM582:
 6224 1e3e 0E94 0000 		call Timebase_DownCounter_SS_Set_Securely
 6225               	.LVL392:
 6226               	/* epilogue start */
 6227               	.LM583:
 6228 1e42 0895      		ret
 6229               	.LFE110:
 6231               	.global	Timebase_DownCounter_SS_Update
 6233               	Timebase_DownCounter_SS_Update:
 6234               	.LFB111:
 6235               	.LM584:
 6236               	.LVL393:
 6237 1e44 2F92      		push r2
 6238 1e46 3F92      		push r3
 6239 1e48 4F92      		push r4
 6240 1e4a 5F92      		push r5
 6241 1e4c 6F92      		push r6
 6242 1e4e 7F92      		push r7
 6243 1e50 8F92      		push r8
 6244 1e52 9F92      		push r9
 6245 1e54 AF92      		push r10
 6246 1e56 BF92      		push r11
 6247 1e58 CF92      		push r12
 6248 1e5a DF92      		push r13
 6249 1e5c EF92      		push r14
 6250 1e5e FF92      		push r15
 6251 1e60 0F93      		push r16
 6252 1e62 1F93      		push r17
 6253 1e64 CF93      		push r28
 6254 1e66 DF93      		push r29
 6255               	/* prologue: function */
 6256               	/* frame size = 0 */
 6257               	.LBB886:
 6258               	.LBB887:
 6259               	.LM585:
 6260 1e68 C090 0000 		lds r12,Timebase
 6261 1e6c D090 0000 		lds r13,(Timebase)+1
 6262 1e70 082F      		mov r16,r24
 6263 1e72 10E0      		ldi r17,lo8(0)
 6264 1e74 E801      		movw r28,r16
 6265 1e76 34E0      		ldi r19,4
 6266 1e78 CC0F      	1:	lsl r28
 6267 1e7a DD1F      		rol r29
 6268 1e7c 3A95      		dec r19
 6269 1e7e 01F4      		brne 1b
 6270 1e80 C00F      		add r28,r16
 6271 1e82 D11F      		adc r29,r17
 6272 1e84 CC0D      		add r28,r12
 6273 1e86 DD1D      		adc r29,r13
 6274 1e88 C25B      		subi r28,lo8(-(78))
 6275 1e8a DF4F      		sbci r29,hi8(-(78))
 6276 1e8c 8881      		ld r24,Y
 6277               	.LVL394:
 6278 1e8e CE54      		subi r28,lo8(-(-78))
 6279 1e90 D040      		sbci r29,hi8(-(-78))
 6280 1e92 8695      		lsr r24
 6281 1e94 8F70      		andi r24,lo8(15)
 6282               	.LBE887:
 6283               	.LBE886:
 6284               	.LM586:
 6285 1e96 8130      		cpi r24,lo8(1)
 6286 1e98 01F0      		breq .+2
 6287 1e9a 00C0      		rjmp .L292
 6288               	.LBB888:
 6289               	.LBB889:
 6290               	.LBB890:
 6291               	.LM587:
 6292 1e9c F601      		movw r30,r12
 6293 1e9e 8085      		ldd r24,Z+8
 6294 1ea0 9185      		ldd r25,Z+9
 6295               	.LBE890:
 6296               	.LBE889:
 6297               	.LM588:
 6298 1ea2 4C01      		movw r8,r24
 6299               	.LVL395:
 6300 1ea4 AA24      		clr r10
 6301 1ea6 BB24      		clr r11
 6302               	.LVL396:
 6303               	.LBB891:
 6304               	.LBB892:
 6305               	.LM589:
 6306 1ea8 8285      		ldd r24,Z+10
 6307 1eaa 9385      		ldd r25,Z+11
 6308 1eac A485      		ldd r26,Z+12
 6309 1eae B585      		ldd r27,Z+13
 6310               	.LVL397:
 6311               	.LBE892:
 6312               	.LBE891:
 6313               	.LM590:
 6314 1eb0 C15B      		subi r28,lo8(-(79))
 6315 1eb2 DF4F      		sbci r29,hi8(-(79))
 6316 1eb4 2880      		ld r2,Y
 6317 1eb6 3980      		ldd r3,Y+1
 6318 1eb8 4A80      		ldd r4,Y+2
 6319 1eba 5B80      		ldd r5,Y+3
 6320               	.LVL398:
 6321 1ebc 281A      		sub r2,r24
 6322 1ebe 390A      		sbc r3,r25
 6323 1ec0 4A0A      		sbc r4,r26
 6324 1ec2 5B0A      		sbc r5,r27
 6325 1ec4 57FE      		sbrs r5,7
 6326 1ec6 00C0      		rjmp .L293
 6327 1ec8 2224      		clr r2
 6328 1eca 3324      		clr r3
 6329 1ecc 2101      		movw r4,r2
 6330               	.L293:
 6331               	.LM591:
 6332 1ece F601      		movw r30,r12
 6333 1ed0 2181      		ldd r18,Z+1
 6334 1ed2 3281      		ldd r19,Z+2
 6335 1ed4 40E0      		ldi r20,lo8(0)
 6336 1ed6 50E0      		ldi r21,hi8(0)
 6337 1ed8 C201      		movw r24,r4
 6338 1eda B101      		movw r22,r2
 6339 1edc 0E94 0000 		call __mulsi3
 6340               	.LM592:
 6341 1ee0 F801      		movw r30,r16
 6342 1ee2 24E0      		ldi r18,4
 6343 1ee4 EE0F      	1:	lsl r30
 6344 1ee6 FF1F      		rol r31
 6345 1ee8 2A95      		dec r18
 6346 1eea 01F4      		brne 1b
 6347 1eec E00F      		add r30,r16
 6348 1eee F11F      		adc r31,r17
 6349 1ef0 EC0D      		add r30,r12
 6350 1ef2 FD1D      		adc r31,r13
 6351 1ef4 EF01      		movw r28,r30
 6352 1ef6 CD5A      		subi r28,lo8(-(83))
 6353 1ef8 DF4F      		sbci r29,hi8(-(83))
 6354 1efa 2881      		ld r18,Y
 6355 1efc 3981      		ldd r19,Y+1
 6356 1efe 4A81      		ldd r20,Y+2
 6357 1f00 5B81      		ldd r21,Y+3
 6358               	.LVL399:
 6359 1f02 2819      		sub r18,r8
 6360 1f04 3909      		sbc r19,r9
 6361 1f06 4A09      		sbc r20,r10
 6362 1f08 5B09      		sbc r21,r11
 6363 1f0a 260F      		add r18,r22
 6364 1f0c 371F      		adc r19,r23
 6365 1f0e 481F      		adc r20,r24
 6366 1f10 591F      		adc r21,r25
 6367               	.LBB893:
 6368               	.LBB894:
 6369               	.LM593:
 6370 1f12 DF01      		movw r26,r30
 6371 1f14 A95A      		subi r26,lo8(-(87))
 6372 1f16 BF4F      		sbci r27,hi8(-(87))
 6373 1f18 2D93      		st X+,r18
 6374 1f1a 3D93      		st X+,r19
 6375 1f1c 4D93      		st X+,r20
 6376 1f1e 5C93      		st X,r21
 6377 1f20 1397      		sbiw r26,3
 6378               	.LBE894:
 6379               	.LBE893:
 6380               	.LM594:
 6381 1f22 1216      		cp __zero_reg__,r18
 6382 1f24 1306      		cpc __zero_reg__,r19
 6383 1f26 1406      		cpc __zero_reg__,r20
 6384 1f28 1506      		cpc __zero_reg__,r21
 6385 1f2a 04F4      		brge .+2
 6386 1f2c 00C0      		rjmp .L295
 6387               	.LBB895:
 6388               	.LBB896:
 6389               	.LBB897:
 6390               	.LBB898:
 6391               	.LM595:
 6392 1f2e 1882      		st Y,__zero_reg__
 6393 1f30 1982      		std Y+1,__zero_reg__
 6394 1f32 1A82      		std Y+2,__zero_reg__
 6395 1f34 1B82      		std Y+3,__zero_reg__
 6396               	.LBE898:
 6397               	.LBE897:
 6398               	.LBB899:
 6399               	.LBB900:
 6400               	.LM596:
 6401 1f36 E15B      		subi r30,lo8(-(79))
 6402 1f38 FF4F      		sbci r31,hi8(-(79))
 6403 1f3a 1082      		st Z,__zero_reg__
 6404 1f3c 1182      		std Z+1,__zero_reg__
 6405 1f3e 1282      		std Z+2,__zero_reg__
 6406 1f40 1382      		std Z+3,__zero_reg__
 6407               	.LBE900:
 6408               	.LBE899:
 6409               	.LBB901:
 6410               	.LBB902:
 6411               	.LM597:
 6412 1f42 1D92      		st X+,__zero_reg__
 6413 1f44 1D92      		st X+,__zero_reg__
 6414 1f46 1D92      		st X+,__zero_reg__
 6415 1f48 1C92      		st X,__zero_reg__
 6416 1f4a 1397      		sbiw r26,3
 6417               	.LBE902:
 6418               	.LBE901:
 6419               	.LBB903:
 6420               	.LBB904:
 6421               	.LM598:
 6422 1f4c 8291      		ld r24,-Z
 6423               	.LBE904:
 6424               	.LBE903:
 6425               	.LBE896:
 6426               	.LBE895:
 6427               	.LBB905:
 6428               	.LBB906:
 6429               	.LM599:
 6430 1f4e 807E      		andi r24,lo8(-32)
 6431 1f50 8860      		ori r24,lo8(8)
 6432 1f52 8083      		st Z,r24
 6433 1f54 00C0      		rjmp .L295
 6434               	.LVL400:
 6435               	.L292:
 6436               	.LBE906:
 6437               	.LBE905:
 6438               	.LBE888:
 6439               	.LM600:
 6440 1f56 8230      		cpi r24,lo8(2)
 6441 1f58 01F4      		brne .L295
 6442               	.LBB907:
 6443               	.LBB908:
 6444               	.LBB909:
 6445               	.LM601:
 6446 1f5a F601      		movw r30,r12
 6447 1f5c 6084      		ldd r6,Z+8
 6448 1f5e 7184      		ldd r7,Z+9
 6449               	.LBE909:
 6450               	.LBE908:
 6451               	.LBB910:
 6452               	.LBB911:
 6453               	.LM602:
 6454 1f60 E284      		ldd r14,Z+10
 6455 1f62 F384      		ldd r15,Z+11
 6456 1f64 0485      		ldd r16,Z+12
 6457 1f66 1585      		ldd r17,Z+13
 6458               	.LVL401:
 6459               	.LBE911:
 6460               	.LBE910:
 6461               	.LBB912:
 6462               	.LBB913:
 6463               	.LM603:
 6464 1f68 C95A      		subi r28,lo8(-(87))
 6465 1f6a DF4F      		sbci r29,hi8(-(87))
 6466 1f6c 2880      		ld r2,Y
 6467 1f6e 3980      		ldd r3,Y+1
 6468 1f70 4A80      		ldd r4,Y+2
 6469 1f72 5B80      		ldd r5,Y+3
 6470               	.LVL402:
 6471               	.LBE913:
 6472               	.LBE912:
 6473               	.LM604:
 6474 1f74 2181      		ldd r18,Z+1
 6475 1f76 3281      		ldd r19,Z+2
 6476               	.LM605:
 6477 1f78 A180      		ldd r10,Z+1
 6478 1f7a B280      		ldd r11,Z+2
 6479               	.LBB914:
 6480               	.LBB915:
 6481               	.LM606:
 6482 1f7c 2897      		sbiw r28,8
 6483 1f7e 40E0      		ldi r20,lo8(0)
 6484 1f80 50E0      		ldi r21,hi8(0)
 6485 1f82 C201      		movw r24,r4
 6486 1f84 B101      		movw r22,r2
 6487 1f86 0E94 0000 		call __divmodsi4
 6488 1f8a E20E      		add r14,r18
 6489 1f8c F31E      		adc r15,r19
 6490 1f8e 041F      		adc r16,r20
 6491 1f90 151F      		adc r17,r21
 6492 1f92 E992      		st Y+,r14
 6493 1f94 F992      		st Y+,r15
 6494 1f96 0993      		st Y+,r16
 6495 1f98 1993      		st Y+,r17
 6496               	.LBE915:
 6497               	.LBE914:
 6498               	.LBB916:
 6499               	.LBB917:
 6500               	.LM607:
 6501 1f9a CC24      		clr r12
 6502 1f9c DD24      		clr r13
 6503 1f9e C201      		movw r24,r4
 6504 1fa0 B101      		movw r22,r2
 6505 1fa2 A601      		movw r20,r12
 6506 1fa4 9501      		movw r18,r10
 6507 1fa6 0E94 0000 		call __divmodsi4
 6508 1faa 8824      		clr r8
 6509 1fac 9924      		clr r9
 6510 1fae 660E      		add r6,r22
 6511 1fb0 771E      		adc r7,r23
 6512 1fb2 881E      		adc r8,r24
 6513 1fb4 991E      		adc r9,r25
 6514 1fb6 6882      		st Y,r6
 6515 1fb8 7982      		std Y+1,r7
 6516 1fba 8A82      		std Y+2,r8
 6517 1fbc 9B82      		std Y+3,r9
 6518               	.LVL403:
 6519               	.L295:
 6520               	/* epilogue start */
 6521               	.LBE917:
 6522               	.LBE916:
 6523               	.LBE907:
 6524               	.LM608:
 6525 1fbe DF91      		pop r29
 6526 1fc0 CF91      		pop r28
 6527 1fc2 1F91      		pop r17
 6528 1fc4 0F91      		pop r16
 6529 1fc6 FF90      		pop r15
 6530 1fc8 EF90      		pop r14
 6531               	.LVL404:
 6532 1fca DF90      		pop r13
 6533 1fcc CF90      		pop r12
 6534 1fce BF90      		pop r11
 6535 1fd0 AF90      		pop r10
 6536               	.LVL405:
 6537 1fd2 9F90      		pop r9
 6538 1fd4 8F90      		pop r8
 6539               	.LVL406:
 6540 1fd6 7F90      		pop r7
 6541 1fd8 6F90      		pop r6
 6542 1fda 5F90      		pop r5
 6543 1fdc 4F90      		pop r4
 6544 1fde 3F90      		pop r3
 6545 1fe0 2F90      		pop r2
 6546               	.LVL407:
 6547 1fe2 0895      		ret
 6548               	.LFE111:
 6550               	.global	Timebase_DownCounter_SS_Expired
 6552               	Timebase_DownCounter_SS_Expired:
 6553               	.LFB112:
 6554               	.LM609:
 6555               	.LVL408:
 6556               	/* prologue: function */
 6557               	/* frame size = 0 */
 6558               	.LM610:
 6559 1fe4 40E0      		ldi r20,lo8(0)
 6560 1fe6 E091 0000 		lds r30,Timebase
 6561 1fea F091 0000 		lds r31,(Timebase)+1
 6562 1fee 90E0      		ldi r25,lo8(0)
 6563               	.LVL409:
 6564 1ff0 9C01      		movw r18,r24
 6565 1ff2 54E0      		ldi r21,4
 6566 1ff4 220F      	1:	lsl r18
 6567 1ff6 331F      		rol r19
 6568 1ff8 5A95      		dec r21
 6569 1ffa 01F4      		brne 1b
 6570 1ffc 280F      		add r18,r24
 6571 1ffe 391F      		adc r19,r25
 6572 2000 E20F      		add r30,r18
 6573 2002 F31F      		adc r31,r19
 6574 2004 E25B      		subi r30,lo8(-(78))
 6575 2006 FF4F      		sbci r31,hi8(-(78))
 6576 2008 8081      		ld r24,Z
 6577               	.LVL410:
 6578 200a 8695      		lsr r24
 6579 200c 8F70      		andi r24,lo8(15)
 6580 200e 8430      		cpi r24,lo8(4)
 6581 2010 01F4      		brne .L297
 6582 2012 41E0      		ldi r20,lo8(1)
 6583               	.L297:
 6584               	.LM611:
 6585 2014 842F      		mov r24,r20
 6586               	/* epilogue start */
 6587 2016 0895      		ret
 6588               	.LFE112:
 6590               	.global	Timebase_DownCounter_SS_Expired_Event
 6592               	Timebase_DownCounter_SS_Expired_Event:
 6593               	.LFB113:
 6594               	.LM612:
 6595               	.LVL411:
 6596               	/* prologue: function */
 6597               	/* frame size = 0 */
 6598               	.LBB918:
 6599               	.LBB919:
 6600               	.LM613:
 6601 2018 E091 0000 		lds r30,Timebase
 6602 201c F091 0000 		lds r31,(Timebase)+1
 6603 2020 90E0      		ldi r25,lo8(0)
 6604               	.LBE919:
 6605               	.LBE918:
 6606               	.LM614:
 6607 2022 9C01      		movw r18,r24
 6608               	.LVL412:
 6609 2024 64E0      		ldi r22,4
 6610 2026 220F      	1:	lsl r18
 6611 2028 331F      		rol r19
 6612 202a 6A95      		dec r22
 6613 202c 01F4      		brne 1b
 6614 202e 280F      		add r18,r24
 6615 2030 391F      		adc r19,r25
 6616 2032 E20F      		add r30,r18
 6617 2034 F31F      		adc r31,r19
 6618 2036 DF01      		movw r26,r30
 6619 2038 A25B      		subi r26,lo8(-(78))
 6620 203a BF4F      		sbci r27,hi8(-(78))
 6621 203c 8C91      		ld r24,X
 6622 203e 8695      		lsr r24
 6623 2040 8F70      		andi r24,lo8(15)
 6624 2042 8430      		cpi r24,lo8(4)
 6625 2044 01F0      		breq .L300
 6626 2046 80E0      		ldi r24,lo8(0)
 6627 2048 0895      		ret
 6628               	.L300:
 6629               	.LBB920:
 6630               	.LBB921:
 6631               	.LBB922:
 6632               	.LBB923:
 6633               	.LBB924:
 6634               	.LBB925:
 6635               	.LM615:
 6636 204a ED5A      		subi r30,lo8(-(83))
 6637 204c FF4F      		sbci r31,hi8(-(83))
 6638 204e 1082      		st Z,__zero_reg__
 6639 2050 1182      		std Z+1,__zero_reg__
 6640 2052 1282      		std Z+2,__zero_reg__
 6641 2054 1382      		std Z+3,__zero_reg__
 6642               	.LBE925:
 6643               	.LBE924:
 6644               	.LBB926:
 6645               	.LBB927:
 6646               	.LM616:
 6647 2056 1292      		st -Z,__zero_reg__
 6648 2058 1292      		st -Z,__zero_reg__
 6649 205a 1292      		st -Z,__zero_reg__
 6650 205c 1292      		st -Z,__zero_reg__
 6651               	.LBE927:
 6652               	.LBE926:
 6653               	.LBB928:
 6654               	.LBB929:
 6655               	.LM617:
 6656 205e 3896      		adiw r30,8
 6657 2060 1082      		st Z,__zero_reg__
 6658 2062 1182      		std Z+1,__zero_reg__
 6659 2064 1282      		std Z+2,__zero_reg__
 6660 2066 1382      		std Z+3,__zero_reg__
 6661               	.LBE929:
 6662               	.LBE928:
 6663               	.LBB930:
 6664               	.LBB931:
 6665               	.LM618:
 6666 2068 8C91      		ld r24,X
 6667               	.LBE931:
 6668               	.LBE930:
 6669               	.LBB932:
 6670               	.LBB933:
 6671               	.LM619:
 6672 206a 807E      		andi r24,lo8(-32)
 6673 206c 8C93      		st X,r24
 6674 206e 81E0      		ldi r24,lo8(1)
 6675               	.LBE933:
 6676               	.LBE932:
 6677               	.LBE923:
 6678               	.LBE922:
 6679               	.LBE921:
 6680               	.LBE920:
 6681               	.LM620:
 6682 2070 0895      		ret
 6683               	.LFE113:
 6685               	.global	Timebase_DownCounter_SS_Set_Period_Value_Securely
 6687               	Timebase_DownCounter_SS_Set_Period_Value_Securely:
 6688               	.LFB114:
 6689               	.LM621:
 6690               	.LVL413:
 6691 2072 CF93      		push r28
 6692 2074 DF93      		push r29
 6693               	/* prologue: function */
 6694               	/* frame size = 0 */
 6695               	.LBB934:
 6696               	.LBB935:
 6697               	.LM622:
 6698 2076 C091 0000 		lds r28,Timebase
 6699 207a D091 0000 		lds r29,(Timebase)+1
 6700 207e 282F      		mov r18,r24
 6701 2080 30E0      		ldi r19,lo8(0)
 6702               	.LBE935:
 6703               	.LBE934:
 6704               	.LM623:
 6705 2082 F901      		movw r30,r18
 6706 2084 A4E0      		ldi r26,4
 6707 2086 EE0F      	1:	lsl r30
 6708 2088 FF1F      		rol r31
 6709 208a AA95      		dec r26
 6710 208c 01F4      		brne 1b
 6711 208e E20F      		add r30,r18
 6712 2090 F31F      		adc r31,r19
 6713 2092 EC0F      		add r30,r28
 6714 2094 FD1F      		adc r31,r29
 6715 2096 E25B      		subi r30,lo8(-(78))
 6716 2098 FF4F      		sbci r31,hi8(-(78))
 6717 209a 8081      		ld r24,Z
 6718               	.LVL414:
 6719 209c EE54      		subi r30,lo8(-(-78))
 6720 209e F040      		sbci r31,hi8(-(-78))
 6721 20a0 80FD      		sbrc r24,0
 6722 20a2 00C0      		rjmp .L307
 6723               	.LM624:
 6724 20a4 E95A      		subi r30,lo8(-(87))
 6725 20a6 FF4F      		sbci r31,hi8(-(87))
 6726 20a8 8191      		ld r24,Z+
 6727 20aa 9191      		ld r25,Z+
 6728 20ac A191      		ld r26,Z+
 6729 20ae B191      		ld r27,Z+
 6730 20b0 841B      		sub r24,r20
 6731 20b2 950B      		sbc r25,r21
 6732 20b4 A60B      		sbc r26,r22
 6733 20b6 B70B      		sbc r27,r23
 6734               	.LBB936:
 6735               	.LBB937:
 6736               	.LM625:
 6737 20b8 B7FF      		sbrs r27,7
 6738 20ba 00C0      		rjmp .L305
 6739               	.LM626:
 6740 20bc 1082      		st Z,__zero_reg__
 6741 20be 1182      		std Z+1,__zero_reg__
 6742 20c0 1282      		std Z+2,__zero_reg__
 6743 20c2 1382      		std Z+3,__zero_reg__
 6744 20c4 00C0      		rjmp .L306
 6745               	.L305:
 6746               	.LM627:
 6747 20c6 8083      		st Z,r24
 6748 20c8 9183      		std Z+1,r25
 6749 20ca A283      		std Z+2,r26
 6750 20cc B383      		std Z+3,r27
 6751               	.L306:
 6752               	.LBE937:
 6753               	.LBE936:
 6754               	.LBB938:
 6755               	.LBB939:
 6756               	.LM628:
 6757 20ce F901      		movw r30,r18
 6758 20d0 74E0      		ldi r23,4
 6759 20d2 EE0F      	1:	lsl r30
 6760 20d4 FF1F      		rol r31
 6761 20d6 7A95      		dec r23
 6762 20d8 01F4      		brne 1b
 6763 20da E20F      		add r30,r18
 6764 20dc F31F      		adc r31,r19
 6765 20de EC0F      		add r30,r28
 6766 20e0 FD1F      		adc r31,r29
 6767 20e2 E25B      		subi r30,lo8(-(78))
 6768 20e4 FF4F      		sbci r31,hi8(-(78))
 6769 20e6 8081      		ld r24,Z
 6770 20e8 8160      		ori r24,lo8(1)
 6771 20ea 8083      		st Z,r24
 6772               	.L307:
 6773               	/* epilogue start */
 6774               	.LBE939:
 6775               	.LBE938:
 6776               	.LM629:
 6777 20ec DF91      		pop r29
 6778 20ee CF91      		pop r28
 6779 20f0 0895      		ret
 6780               	.LFE114:
 6782               	.global	Timebase_DownCounter_SS_Get_Remaining_Period_Value
 6784               	Timebase_DownCounter_SS_Get_Remaining_Period_Value:
 6785               	.LFB115:
 6786               	.LM630:
 6787               	.LVL415:
 6788               	/* prologue: function */
 6789               	/* frame size = 0 */
 6790               	.LBB940:
 6791               	.LBB941:
 6792               	.LM631:
 6793 20f2 E091 0000 		lds r30,Timebase
 6794 20f6 F091 0000 		lds r31,(Timebase)+1
 6795 20fa 90E0      		ldi r25,lo8(0)
 6796               	.LBE941:
 6797               	.LBE940:
 6798               	.LM632:
 6799 20fc 9C01      		movw r18,r24
 6800               	.LVL416:
 6801 20fe B4E0      		ldi r27,4
 6802 2100 220F      	1:	lsl r18
 6803 2102 331F      		rol r19
 6804 2104 BA95      		dec r27
 6805 2106 01F4      		brne 1b
 6806 2108 280F      		add r18,r24
 6807 210a 391F      		adc r19,r25
 6808 210c E20F      		add r30,r18
 6809 210e F31F      		adc r31,r19
 6810 2110 DF01      		movw r26,r30
 6811 2112 A55A      		subi r26,lo8(-(91))
 6812 2114 BF4F      		sbci r27,hi8(-(91))
 6813 2116 E95A      		subi r30,lo8(-(87))
 6814 2118 FF4F      		sbci r31,hi8(-(87))
 6815 211a 2081      		ld r18,Z
 6816 211c 3181      		ldd r19,Z+1
 6817 211e 4281      		ldd r20,Z+2
 6818 2120 5381      		ldd r21,Z+3
 6819               	.LVL417:
 6820 2122 8D91      		ld r24,X+
 6821 2124 9D91      		ld r25,X+
 6822 2126 0D90      		ld __tmp_reg__,X+
 6823 2128 BC91      		ld r27,X
 6824 212a A02D      		mov r26,__tmp_reg__
 6825 212c 281B      		sub r18,r24
 6826 212e 390B      		sbc r19,r25
 6827 2130 4A0B      		sbc r20,r26
 6828 2132 5B0B      		sbc r21,r27
 6829 2134 57FF      		sbrs r21,7
 6830 2136 00C0      		rjmp .L309
 6831 2138 20E0      		ldi r18,lo8(0)
 6832 213a 30E0      		ldi r19,hi8(0)
 6833 213c 40E0      		ldi r20,hlo8(0)
 6834 213e 50E0      		ldi r21,hhi8(0)
 6835               	.L309:
 6836               	.LM633:
 6837 2140 B901      		movw r22,r18
 6838               	.LVL418:
 6839 2142 CA01      		movw r24,r20
 6840               	/* epilogue start */
 6841 2144 0895      		ret
 6842               	.LFE115:
 6844               	.global	Timebase_DownCounter_SS_Period_Value_Expired
 6846               	Timebase_DownCounter_SS_Period_Value_Expired:
 6847               	.LFB116:
 6848               	.LM634:
 6849               	.LVL419:
 6850 2146 CF93      		push r28
 6851 2148 DF93      		push r29
 6852               	/* prologue: function */
 6853               	/* frame size = 0 */
 6854               	.LBB942:
 6855               	.LBB943:
 6856               	.LBB944:
 6857               	.LBB945:
 6858               	.LM635:
 6859 214a C091 0000 		lds r28,Timebase
 6860 214e D091 0000 		lds r29,(Timebase)+1
 6861 2152 682F      		mov r22,r24
 6862 2154 70E0      		ldi r23,lo8(0)
 6863               	.LBE945:
 6864               	.LBE944:
 6865               	.LM636:
 6866 2156 FB01      		movw r30,r22
 6867 2158 44E0      		ldi r20,4
 6868 215a EE0F      	1:	lsl r30
 6869 215c FF1F      		rol r31
 6870 215e 4A95      		dec r20
 6871 2160 01F4      		brne 1b
 6872 2162 E60F      		add r30,r22
 6873 2164 F71F      		adc r31,r23
 6874 2166 EC0F      		add r30,r28
 6875 2168 FD1F      		adc r31,r29
 6876 216a DF01      		movw r26,r30
 6877 216c A55A      		subi r26,lo8(-(91))
 6878 216e BF4F      		sbci r27,hi8(-(91))
 6879 2170 E95A      		subi r30,lo8(-(87))
 6880 2172 FF4F      		sbci r31,hi8(-(87))
 6881 2174 2081      		ld r18,Z
 6882 2176 3181      		ldd r19,Z+1
 6883 2178 4281      		ldd r20,Z+2
 6884 217a 5381      		ldd r21,Z+3
 6885               	.LVL420:
 6886 217c 8D91      		ld r24,X+
 6887 217e 9D91      		ld r25,X+
 6888 2180 0D90      		ld __tmp_reg__,X+
 6889 2182 BC91      		ld r27,X
 6890 2184 A02D      		mov r26,__tmp_reg__
 6891               	.LVL421:
 6892 2186 281B      		sub r18,r24
 6893 2188 390B      		sbc r19,r25
 6894 218a 4A0B      		sbc r20,r26
 6895 218c 5B0B      		sbc r21,r27
 6896               	.LM637:
 6897 218e 57FD      		sbrc r21,7
 6898 2190 00C0      		rjmp .L312
 6899               	.LBE943:
 6900               	.LBE942:
 6901               	.LM638:
 6902 2192 2115      		cp r18,__zero_reg__
 6903 2194 3105      		cpc r19,__zero_reg__
 6904 2196 4105      		cpc r20,__zero_reg__
 6905 2198 5105      		cpc r21,__zero_reg__
 6906 219a 01F0      		breq .L312
 6907 219c 20E0      		ldi r18,lo8(0)
 6908               	.LVL422:
 6909 219e 00C0      		rjmp .L313
 6910               	.LVL423:
 6911               	.L312:
 6912 21a0 20E0      		ldi r18,lo8(0)
 6913               	.LVL424:
 6914 21a2 CB01      		movw r24,r22
 6915 21a4 34E0      		ldi r19,4
 6916 21a6 880F      	1:	lsl r24
 6917 21a8 991F      		rol r25
 6918 21aa 3A95      		dec r19
 6919 21ac 01F4      		brne 1b
 6920 21ae 860F      		add r24,r22
 6921 21b0 971F      		adc r25,r23
 6922 21b2 C80F      		add r28,r24
 6923 21b4 D91F      		adc r29,r25
 6924 21b6 C25B      		subi r28,lo8(-(78))
 6925 21b8 DF4F      		sbci r29,hi8(-(78))
 6926 21ba 8881      		ld r24,Y
 6927 21bc 80FF      		sbrs r24,0
 6928 21be 21E0      		ldi r18,lo8(1)
 6929               	.L314:
 6930 21c0 81E0      		ldi r24,lo8(1)
 6931 21c2 2827      		eor r18,r24
 6932               	.L313:
 6933               	.LM639:
 6934 21c4 822F      		mov r24,r18
 6935               	/* epilogue start */
 6936 21c6 DF91      		pop r29
 6937 21c8 CF91      		pop r28
 6938 21ca 0895      		ret
 6939               	.LFE116:
 6941               	.global	Timebase_DownCounter_SS_Period_Value_Expired_Event
 6943               	Timebase_DownCounter_SS_Period_Value_Expired_Event:
 6944               	.LFB117:
 6945               	.LM640:
 6946               	.LVL425:
 6947 21cc 1F93      		push r17
 6948               	/* prologue: function */
 6949               	/* frame size = 0 */
 6950 21ce 182F      		mov r17,r24
 6951               	.LM641:
 6952 21d0 0E94 0000 		call Timebase_DownCounter_SS_Period_Value_Expired
 6953               	.LVL426:
 6954 21d4 8130      		cpi r24,lo8(1)
 6955 21d6 01F0      		breq .L317
 6956 21d8 80E0      		ldi r24,lo8(0)
 6957 21da 00C0      		rjmp .L318
 6958               	.L317:
 6959               	.LBB946:
 6960               	.LBB947:
 6961               	.LM642:
 6962 21dc E091 0000 		lds r30,Timebase
 6963 21e0 F091 0000 		lds r31,(Timebase)+1
 6964 21e4 212F      		mov r18,r17
 6965 21e6 30E0      		ldi r19,lo8(0)
 6966               	.LVL427:
 6967 21e8 C901      		movw r24,r18
 6968 21ea 54E0      		ldi r21,4
 6969 21ec 880F      	1:	lsl r24
 6970 21ee 991F      		rol r25
 6971 21f0 5A95      		dec r21
 6972 21f2 01F4      		brne 1b
 6973 21f4 820F      		add r24,r18
 6974 21f6 931F      		adc r25,r19
 6975 21f8 E80F      		add r30,r24
 6976 21fa F91F      		adc r31,r25
 6977 21fc E25B      		subi r30,lo8(-(78))
 6978 21fe FF4F      		sbci r31,hi8(-(78))
 6979 2200 8081      		ld r24,Z
 6980 2202 8E7F      		andi r24,lo8(-2)
 6981 2204 8083      		st Z,r24
 6982 2206 81E0      		ldi r24,lo8(1)
 6983               	.L318:
 6984               	/* epilogue start */
 6985               	.LBE947:
 6986               	.LBE946:
 6987               	.LM643:
 6988 2208 1F91      		pop r17
 6989               	.LVL428:
 6990 220a 0895      		ret
 6991               	.LFE117:
 6993               	.global	Timebase_DownCounter_SS_Update_All
 6995               	Timebase_DownCounter_SS_Update_All:
 6996               	.LFB118:
 6997               	.LM644:
 6998               	/* prologue: function */
 6999               	/* frame size = 0 */
 7000               	.LBB948:
 7001               	.LM645:
 7002 220c 80E0      		ldi r24,lo8(0)
 7003 220e 0E94 0000 		call Timebase_DownCounter_SS_Update
 7004               	/* epilogue start */
 7005               	.LBE948:
 7006               	.LM646:
 7007 2212 0895      		ret
 7008               	.LFE118:
 7010               	.global	Timebase_DownCounter_SS_Reset_All
 7012               	Timebase_DownCounter_SS_Reset_All:
 7013               	.LFB119:
 7014               	.LM647:
 7015               	/* prologue: function */
 7016               	/* frame size = 0 */
 7017               	.LBB949:
 7018               	.LBB950:
 7019               	.LBB951:
 7020               	.LBB952:
 7021               	.LBB953:
 7022               	.LM648:
 7023 2214 E091 0000 		lds r30,Timebase
 7024 2218 F091 0000 		lds r31,(Timebase)+1
 7025 221c ED5A      		subi r30,lo8(-(83))
 7026 221e FF4F      		sbci r31,hi8(-(83))
 7027 2220 1082      		st Z,__zero_reg__
 7028 2222 1182      		std Z+1,__zero_reg__
 7029 2224 1282      		std Z+2,__zero_reg__
 7030 2226 1382      		std Z+3,__zero_reg__
 7031               	.LBE953:
 7032               	.LBE952:
 7033               	.LBB954:
 7034               	.LBB955:
 7035               	.LM649:
 7036 2228 1292      		st -Z,__zero_reg__
 7037 222a 1292      		st -Z,__zero_reg__
 7038 222c 1292      		st -Z,__zero_reg__
 7039 222e 1292      		st -Z,__zero_reg__
 7040               	.LBE955:
 7041               	.LBE954:
 7042               	.LBB956:
 7043               	.LBB957:
 7044               	.LM650:
 7045 2230 3896      		adiw r30,8
 7046 2232 1082      		st Z,__zero_reg__
 7047 2234 1182      		std Z+1,__zero_reg__
 7048 2236 1282      		std Z+2,__zero_reg__
 7049 2238 1382      		std Z+3,__zero_reg__
 7050               	.LBE957:
 7051               	.LBE956:
 7052               	.LBB958:
 7053               	.LBB959:
 7054               	.LM651:
 7055 223a 3997      		sbiw r30,9
 7056 223c 8081      		ld r24,Z
 7057               	.LBE959:
 7058               	.LBE958:
 7059               	.LBB960:
 7060               	.LBB961:
 7061               	.LM652:
 7062 223e 807E      		andi r24,lo8(-32)
 7063 2240 8083      		st Z,r24
 7064               	/* epilogue start */
 7065               	.LBE961:
 7066               	.LBE960:
 7067               	.LBE951:
 7068               	.LBE950:
 7069               	.LBE949:
 7070               	.LM653:
 7071 2242 0895      		ret
 7072               	.LFE119:
 7074               	.global	Timebase_DownCounter_Get_Status
 7076               	Timebase_DownCounter_Get_Status:
 7077               	.LFB120:
 7078               	.LM654:
 7079               	.LVL429:
 7080               	/* prologue: function */
 7081               	/* frame size = 0 */
 7082               	.LM655:
 7083 2244 E091 0000 		lds r30,Timebase
 7084 2248 F091 0000 		lds r31,(Timebase)+1
 7085 224c 90E0      		ldi r25,lo8(0)
 7086               	.LVL430:
 7087 224e 2DE0      		ldi r18,lo8(13)
 7088 2250 30E0      		ldi r19,hi8(13)
 7089 2252 AC01      		movw r20,r24
 7090 2254 429F      		mul r20,r18
 7091 2256 C001      		movw r24,r0
 7092 2258 439F      		mul r20,r19
 7093 225a 900D      		add r25,r0
 7094 225c 529F      		mul r21,r18
 7095 225e 900D      		add r25,r0
 7096 2260 1124      		clr r1
 7097               	.LVL431:
 7098 2262 E80F      		add r30,r24
 7099 2264 F91F      		adc r31,r25
 7100 2266 E15A      		subi r30,lo8(-(95))
 7101 2268 FF4F      		sbci r31,hi8(-(95))
 7102 226a 8081      		ld r24,Z
 7103 226c 8695      		lsr r24
 7104               	.LM656:
 7105 226e 8F70      		andi r24,lo8(15)
 7106               	/* epilogue start */
 7107 2270 0895      		ret
 7108               	.LFE120:
 7110               	.global	Timebase_DownCounter_Set_Status
 7112               	Timebase_DownCounter_Set_Status:
 7113               	.LFB121:
 7114               	.LM657:
 7115               	.LVL432:
 7116               	/* prologue: function */
 7117               	/* frame size = 0 */
 7118               	.LM658:
 7119 2272 E091 0000 		lds r30,Timebase
 7120 2276 F091 0000 		lds r31,(Timebase)+1
 7121 227a 90E0      		ldi r25,lo8(0)
 7122               	.LVL433:
 7123 227c 2DE0      		ldi r18,lo8(13)
 7124 227e 30E0      		ldi r19,hi8(13)
 7125 2280 AC01      		movw r20,r24
 7126 2282 429F      		mul r20,r18
 7127 2284 C001      		movw r24,r0
 7128 2286 439F      		mul r20,r19
 7129 2288 900D      		add r25,r0
 7130 228a 529F      		mul r21,r18
 7131 228c 900D      		add r25,r0
 7132 228e 1124      		clr r1
 7133               	.LVL434:
 7134 2290 E80F      		add r30,r24
 7135 2292 F91F      		adc r31,r25
 7136 2294 E15A      		subi r30,lo8(-(95))
 7137 2296 FF4F      		sbci r31,hi8(-(95))
 7138 2298 6F70      		andi r22,lo8(15)
 7139               	.LVL435:
 7140 229a 660F      		lsl r22
 7141 229c 8081      		ld r24,Z
 7142 229e 817E      		andi r24,lo8(-31)
 7143 22a0 862B      		or r24,r22
 7144 22a2 8083      		st Z,r24
 7145               	/* epilogue start */
 7146               	.LM659:
 7147 22a4 0895      		ret
 7148               	.LFE121:
 7150               	.global	Timebase_DownCounter_Get_Value
 7152               	Timebase_DownCounter_Get_Value:
 7153               	.LFB122:
 7154               	.LM660:
 7155               	.LVL436:
 7156               	/* prologue: function */
 7157               	/* frame size = 0 */
 7158               	.LM661:
 7159 22a6 E091 0000 		lds r30,Timebase
 7160 22aa F091 0000 		lds r31,(Timebase)+1
 7161 22ae 90E0      		ldi r25,lo8(0)
 7162               	.LVL437:
 7163 22b0 2DE0      		ldi r18,lo8(13)
 7164 22b2 30E0      		ldi r19,hi8(13)
 7165 22b4 AC01      		movw r20,r24
 7166 22b6 429F      		mul r20,r18
 7167 22b8 C001      		movw r24,r0
 7168 22ba 439F      		mul r20,r19
 7169 22bc 900D      		add r25,r0
 7170 22be 529F      		mul r21,r18
 7171 22c0 900D      		add r25,r0
 7172 22c2 1124      		clr r1
 7173               	.LVL438:
 7174 22c4 E80F      		add r30,r24
 7175 22c6 F91F      		adc r31,r25
 7176 22c8 EC59      		subi r30,lo8(-(100))
 7177 22ca FF4F      		sbci r31,hi8(-(100))
 7178 22cc 6081      		ld r22,Z
 7179 22ce 7181      		ldd r23,Z+1
 7180               	.LM662:
 7181 22d0 8281      		ldd r24,Z+2
 7182 22d2 9381      		ldd r25,Z+3
 7183               	.LVL439:
 7184               	/* epilogue start */
 7185 22d4 0895      		ret
 7186               	.LFE122:
 7188               	.global	Timebase_DownCounter_Set_Value
 7190               	Timebase_DownCounter_Set_Value:
 7191               	.LFB123:
 7192               	.LM663:
 7193               	.LVL440:
 7194               	/* prologue: function */
 7195               	/* frame size = 0 */
 7196               	.LM664:
 7197 22d6 E091 0000 		lds r30,Timebase
 7198 22da F091 0000 		lds r31,(Timebase)+1
 7199 22de 90E0      		ldi r25,lo8(0)
 7200               	.LVL441:
 7201 22e0 2DE0      		ldi r18,lo8(13)
 7202 22e2 30E0      		ldi r19,hi8(13)
 7203 22e4 DC01      		movw r26,r24
 7204 22e6 A29F      		mul r26,r18
 7205 22e8 C001      		movw r24,r0
 7206 22ea A39F      		mul r26,r19
 7207 22ec 900D      		add r25,r0
 7208 22ee B29F      		mul r27,r18
 7209 22f0 900D      		add r25,r0
 7210 22f2 1124      		clr r1
 7211               	.LVL442:
 7212 22f4 E80F      		add r30,r24
 7213 22f6 F91F      		adc r31,r25
 7214 22f8 EC59      		subi r30,lo8(-(100))
 7215 22fa FF4F      		sbci r31,hi8(-(100))
 7216 22fc 4083      		st Z,r20
 7217 22fe 5183      		std Z+1,r21
 7218 2300 6283      		std Z+2,r22
 7219 2302 7383      		std Z+3,r23
 7220               	/* epilogue start */
 7221               	.LM665:
 7222 2304 0895      		ret
 7223               	.LFE123:
 7225               	.global	Timebase_DownCounter_Get_EndValue
 7227               	Timebase_DownCounter_Get_EndValue:
 7228               	.LFB124:
 7229               	.LM666:
 7230               	.LVL443:
 7231               	/* prologue: function */
 7232               	/* frame size = 0 */
 7233               	.LM667:
 7234 2306 E091 0000 		lds r30,Timebase
 7235 230a F091 0000 		lds r31,(Timebase)+1
 7236 230e 90E0      		ldi r25,lo8(0)
 7237               	.LVL444:
 7238 2310 2DE0      		ldi r18,lo8(13)
 7239 2312 30E0      		ldi r19,hi8(13)
 7240 2314 AC01      		movw r20,r24
 7241 2316 429F      		mul r20,r18
 7242 2318 C001      		movw r24,r0
 7243 231a 439F      		mul r20,r19
 7244 231c 900D      		add r25,r0
 7245 231e 529F      		mul r21,r18
 7246 2320 900D      		add r25,r0
 7247 2322 1124      		clr r1
 7248               	.LVL445:
 7249 2324 E80F      		add r30,r24
 7250 2326 F91F      		adc r31,r25
 7251 2328 E05A      		subi r30,lo8(-(96))
 7252 232a FF4F      		sbci r31,hi8(-(96))
 7253 232c 6081      		ld r22,Z
 7254 232e 7181      		ldd r23,Z+1
 7255               	.LM668:
 7256 2330 8281      		ldd r24,Z+2
 7257 2332 9381      		ldd r25,Z+3
 7258               	.LVL446:
 7259               	/* epilogue start */
 7260 2334 0895      		ret
 7261               	.LFE124:
 7263               	.global	Timebase_DownCounter_Set_EndValue
 7265               	Timebase_DownCounter_Set_EndValue:
 7266               	.LFB125:
 7267               	.LM669:
 7268               	.LVL447:
 7269               	/* prologue: function */
 7270               	/* frame size = 0 */
 7271               	.LM670:
 7272 2336 E091 0000 		lds r30,Timebase
 7273 233a F091 0000 		lds r31,(Timebase)+1
 7274 233e 90E0      		ldi r25,lo8(0)
 7275               	.LVL448:
 7276 2340 2DE0      		ldi r18,lo8(13)
 7277 2342 30E0      		ldi r19,hi8(13)
 7278 2344 DC01      		movw r26,r24
 7279 2346 A29F      		mul r26,r18
 7280 2348 C001      		movw r24,r0
 7281 234a A39F      		mul r26,r19
 7282 234c 900D      		add r25,r0
 7283 234e B29F      		mul r27,r18
 7284 2350 900D      		add r25,r0
 7285 2352 1124      		clr r1
 7286               	.LVL449:
 7287 2354 E80F      		add r30,r24
 7288 2356 F91F      		adc r31,r25
 7289 2358 E05A      		subi r30,lo8(-(96))
 7290 235a FF4F      		sbci r31,hi8(-(96))
 7291 235c 4083      		st Z,r20
 7292 235e 5183      		std Z+1,r21
 7293 2360 6283      		std Z+2,r22
 7294 2362 7383      		std Z+3,r23
 7295               	/* epilogue start */
 7296               	.LM671:
 7297 2364 0895      		ret
 7298               	.LFE125:
 7300               	.global	Timebase_DownCounter_Get_PeriodValue
 7302               	Timebase_DownCounter_Get_PeriodValue:
 7303               	.LFB126:
 7304               	.LM672:
 7305               	.LVL450:
 7306               	/* prologue: function */
 7307               	/* frame size = 0 */
 7308               	.LM673:
 7309 2366 E091 0000 		lds r30,Timebase
 7310 236a F091 0000 		lds r31,(Timebase)+1
 7311 236e 90E0      		ldi r25,lo8(0)
 7312               	.LVL451:
 7313 2370 2DE0      		ldi r18,lo8(13)
 7314 2372 30E0      		ldi r19,hi8(13)
 7315 2374 AC01      		movw r20,r24
 7316 2376 429F      		mul r20,r18
 7317 2378 C001      		movw r24,r0
 7318 237a 439F      		mul r20,r19
 7319 237c 900D      		add r25,r0
 7320 237e 529F      		mul r21,r18
 7321 2380 900D      		add r25,r0
 7322 2382 1124      		clr r1
 7323               	.LVL452:
 7324 2384 E80F      		add r30,r24
 7325 2386 F91F      		adc r31,r25
 7326 2388 E859      		subi r30,lo8(-(104))
 7327 238a FF4F      		sbci r31,hi8(-(104))
 7328 238c 6081      		ld r22,Z
 7329 238e 7181      		ldd r23,Z+1
 7330               	.LM674:
 7331 2390 8281      		ldd r24,Z+2
 7332 2392 9381      		ldd r25,Z+3
 7333               	.LVL453:
 7334               	/* epilogue start */
 7335 2394 0895      		ret
 7336               	.LFE126:
 7338               	.global	Timebase_DownCounter_Set_PeriodValue
 7340               	Timebase_DownCounter_Set_PeriodValue:
 7341               	.LFB127:
 7342               	.LM675:
 7343               	.LVL454:
 7344               	/* prologue: function */
 7345               	/* frame size = 0 */
 7346 2396 E091 0000 		lds r30,Timebase
 7347 239a F091 0000 		lds r31,(Timebase)+1
 7348 239e 282F      		mov r18,r24
 7349 23a0 30E0      		ldi r19,lo8(0)
 7350               	.LVL455:
 7351               	.LM676:
 7352 23a2 77FF      		sbrs r23,7
 7353 23a4 00C0      		rjmp .L339
 7354               	.LVL456:
 7355               	.LM677:
 7356 23a6 8DE0      		ldi r24,lo8(13)
 7357 23a8 90E0      		ldi r25,hi8(13)
 7358 23aa AC01      		movw r20,r24
 7359               	.LVL457:
 7360 23ac 249F      		mul r18,r20
 7361 23ae C001      		movw r24,r0
 7362 23b0 259F      		mul r18,r21
 7363 23b2 900D      		add r25,r0
 7364 23b4 349F      		mul r19,r20
 7365 23b6 900D      		add r25,r0
 7366 23b8 1124      		clr r1
 7367 23ba E80F      		add r30,r24
 7368 23bc F91F      		adc r31,r25
 7369 23be E859      		subi r30,lo8(-(104))
 7370 23c0 FF4F      		sbci r31,hi8(-(104))
 7371 23c2 1082      		st Z,__zero_reg__
 7372 23c4 1182      		std Z+1,__zero_reg__
 7373 23c6 1282      		std Z+2,__zero_reg__
 7374 23c8 1382      		std Z+3,__zero_reg__
 7375 23ca 0895      		ret
 7376               	.LVL458:
 7377               	.L339:
 7378               	.LM678:
 7379 23cc 8DE0      		ldi r24,lo8(13)
 7380 23ce 90E0      		ldi r25,hi8(13)
 7381 23d0 DC01      		movw r26,r24
 7382 23d2 2A9F      		mul r18,r26
 7383 23d4 C001      		movw r24,r0
 7384 23d6 2B9F      		mul r18,r27
 7385 23d8 900D      		add r25,r0
 7386 23da 3A9F      		mul r19,r26
 7387 23dc 900D      		add r25,r0
 7388 23de 1124      		clr r1
 7389 23e0 E80F      		add r30,r24
 7390 23e2 F91F      		adc r31,r25
 7391 23e4 E859      		subi r30,lo8(-(104))
 7392 23e6 FF4F      		sbci r31,hi8(-(104))
 7393 23e8 4083      		st Z,r20
 7394 23ea 5183      		std Z+1,r21
 7395 23ec 6283      		std Z+2,r22
 7396 23ee 7383      		std Z+3,r23
 7397 23f0 0895      		ret
 7398               	.LFE127:
 7400               	.global	Timebase_DownCounter_Get_Period_Flag
 7402               	Timebase_DownCounter_Get_Period_Flag:
 7403               	.LFB128:
 7404               	.LM679:
 7405               	.LVL459:
 7406               	/* prologue: function */
 7407               	/* frame size = 0 */
 7408               	.LM680:
 7409 23f2 E091 0000 		lds r30,Timebase
 7410 23f6 F091 0000 		lds r31,(Timebase)+1
 7411 23fa 90E0      		ldi r25,lo8(0)
 7412               	.LVL460:
 7413 23fc 2DE0      		ldi r18,lo8(13)
 7414 23fe 30E0      		ldi r19,hi8(13)
 7415 2400 AC01      		movw r20,r24
 7416 2402 429F      		mul r20,r18
 7417 2404 C001      		movw r24,r0
 7418 2406 439F      		mul r20,r19
 7419 2408 900D      		add r25,r0
 7420 240a 529F      		mul r21,r18
 7421 240c 900D      		add r25,r0
 7422 240e 1124      		clr r1
 7423               	.LVL461:
 7424 2410 E80F      		add r30,r24
 7425 2412 F91F      		adc r31,r25
 7426 2414 E15A      		subi r30,lo8(-(95))
 7427 2416 FF4F      		sbci r31,hi8(-(95))
 7428 2418 8081      		ld r24,Z
 7429               	.LM681:
 7430 241a 8170      		andi r24,lo8(1)
 7431               	/* epilogue start */
 7432 241c 0895      		ret
 7433               	.LFE128:
 7435               	.global	Timebase_DownCounter_Set_Period_Flag
 7437               	Timebase_DownCounter_Set_Period_Flag:
 7438               	.LFB129:
 7439               	.LM682:
 7440               	.LVL462:
 7441               	/* prologue: function */
 7442               	/* frame size = 0 */
 7443               	.LM683:
 7444 241e E091 0000 		lds r30,Timebase
 7445 2422 F091 0000 		lds r31,(Timebase)+1
 7446 2426 90E0      		ldi r25,lo8(0)
 7447               	.LVL463:
 7448 2428 2DE0      		ldi r18,lo8(13)
 7449 242a 30E0      		ldi r19,hi8(13)
 7450 242c AC01      		movw r20,r24
 7451 242e 429F      		mul r20,r18
 7452 2430 C001      		movw r24,r0
 7453 2432 439F      		mul r20,r19
 7454 2434 900D      		add r25,r0
 7455 2436 529F      		mul r21,r18
 7456 2438 900D      		add r25,r0
 7457 243a 1124      		clr r1
 7458               	.LVL464:
 7459 243c E80F      		add r30,r24
 7460 243e F91F      		adc r31,r25
 7461 2440 E15A      		subi r30,lo8(-(95))
 7462 2442 FF4F      		sbci r31,hi8(-(95))
 7463 2444 8081      		ld r24,Z
 7464 2446 8160      		ori r24,lo8(1)
 7465 2448 8083      		st Z,r24
 7466               	/* epilogue start */
 7467               	.LM684:
 7468 244a 0895      		ret
 7469               	.LFE129:
 7471               	.global	Timebase_DownCounter_Clear_Period_Flag
 7473               	Timebase_DownCounter_Clear_Period_Flag:
 7474               	.LFB130:
 7475               	.LM685:
 7476               	.LVL465:
 7477               	/* prologue: function */
 7478               	/* frame size = 0 */
 7479               	.LM686:
 7480 244c E091 0000 		lds r30,Timebase
 7481 2450 F091 0000 		lds r31,(Timebase)+1
 7482 2454 90E0      		ldi r25,lo8(0)
 7483               	.LVL466:
 7484 2456 2DE0      		ldi r18,lo8(13)
 7485 2458 30E0      		ldi r19,hi8(13)
 7486 245a AC01      		movw r20,r24
 7487 245c 429F      		mul r20,r18
 7488 245e C001      		movw r24,r0
 7489 2460 439F      		mul r20,r19
 7490 2462 900D      		add r25,r0
 7491 2464 529F      		mul r21,r18
 7492 2466 900D      		add r25,r0
 7493 2468 1124      		clr r1
 7494               	.LVL467:
 7495 246a E80F      		add r30,r24
 7496 246c F91F      		adc r31,r25
 7497 246e E15A      		subi r30,lo8(-(95))
 7498 2470 FF4F      		sbci r31,hi8(-(95))
 7499 2472 8081      		ld r24,Z
 7500 2474 8E7F      		andi r24,lo8(-2)
 7501 2476 8083      		st Z,r24
 7502               	/* epilogue start */
 7503               	.LM687:
 7504 2478 0895      		ret
 7505               	.LFE130:
 7507               	.global	Timebase_DownCounter_Reset
 7509               	Timebase_DownCounter_Reset:
 7510               	.LFB131:
 7511               	.LM688:
 7512               	.LVL468:
 7513               	/* prologue: function */
 7514               	/* frame size = 0 */
 7515               	.LBB962:
 7516               	.LBB963:
 7517               	.LM689:
 7518 247a E091 0000 		lds r30,Timebase
 7519 247e F091 0000 		lds r31,(Timebase)+1
 7520 2482 90E0      		ldi r25,lo8(0)
 7521 2484 2DE0      		ldi r18,lo8(13)
 7522 2486 30E0      		ldi r19,hi8(13)
 7523 2488 AC01      		movw r20,r24
 7524               	.LVL469:
 7525 248a 429F      		mul r20,r18
 7526 248c C001      		movw r24,r0
 7527 248e 439F      		mul r20,r19
 7528 2490 900D      		add r25,r0
 7529 2492 529F      		mul r21,r18
 7530 2494 900D      		add r25,r0
 7531 2496 1124      		clr r1
 7532 2498 E80F      		add r30,r24
 7533 249a F91F      		adc r31,r25
 7534 249c E05A      		subi r30,lo8(-(96))
 7535 249e FF4F      		sbci r31,hi8(-(96))
 7536 24a0 1192      		st Z+,__zero_reg__
 7537 24a2 1192      		st Z+,__zero_reg__
 7538 24a4 1192      		st Z+,__zero_reg__
 7539 24a6 1192      		st Z+,__zero_reg__
 7540               	.LBE963:
 7541               	.LBE962:
 7542               	.LBB964:
 7543               	.LBB965:
 7544               	.LM690:
 7545 24a8 1082      		st Z,__zero_reg__
 7546 24aa 1182      		std Z+1,__zero_reg__
 7547 24ac 1282      		std Z+2,__zero_reg__
 7548 24ae 1382      		std Z+3,__zero_reg__
 7549               	.LBE965:
 7550               	.LBE964:
 7551               	.LBB966:
 7552               	.LBB967:
 7553               	.LM691:
 7554 24b0 3597      		sbiw r30,5
 7555 24b2 8081      		ld r24,Z
 7556               	.LBE967:
 7557               	.LBE966:
 7558               	.LBB968:
 7559               	.LBB969:
 7560               	.LM692:
 7561 24b4 807E      		andi r24,lo8(-32)
 7562 24b6 8083      		st Z,r24
 7563               	/* epilogue start */
 7564               	.LBE969:
 7565               	.LBE968:
 7566               	.LM693:
 7567 24b8 0895      		ret
 7568               	.LFE131:
 7570               	.global	Timebase_DownCounter_Clear_All_Flags
 7572               	Timebase_DownCounter_Clear_All_Flags:
 7573               	.LFB132:
 7574               	.LM694:
 7575               	.LVL470:
 7576               	/* prologue: function */
 7577               	/* frame size = 0 */
 7578               	.LBB970:
 7579               	.LBB971:
 7580               	.LBB972:
 7581               	.LBB973:
 7582               	.LM695:
 7583 24ba E091 0000 		lds r30,Timebase
 7584 24be F091 0000 		lds r31,(Timebase)+1
 7585 24c2 90E0      		ldi r25,lo8(0)
 7586 24c4 2DE0      		ldi r18,lo8(13)
 7587 24c6 30E0      		ldi r19,hi8(13)
 7588 24c8 AC01      		movw r20,r24
 7589               	.LVL471:
 7590 24ca 429F      		mul r20,r18
 7591 24cc C001      		movw r24,r0
 7592 24ce 439F      		mul r20,r19
 7593 24d0 900D      		add r25,r0
 7594 24d2 529F      		mul r21,r18
 7595 24d4 900D      		add r25,r0
 7596 24d6 1124      		clr r1
 7597 24d8 E80F      		add r30,r24
 7598 24da F91F      		adc r31,r25
 7599 24dc E05A      		subi r30,lo8(-(96))
 7600 24de FF4F      		sbci r31,hi8(-(96))
 7601 24e0 1192      		st Z+,__zero_reg__
 7602 24e2 1192      		st Z+,__zero_reg__
 7603 24e4 1192      		st Z+,__zero_reg__
 7604 24e6 1192      		st Z+,__zero_reg__
 7605               	.LBE973:
 7606               	.LBE972:
 7607               	.LBB974:
 7608               	.LBB975:
 7609               	.LM696:
 7610 24e8 1082      		st Z,__zero_reg__
 7611 24ea 1182      		std Z+1,__zero_reg__
 7612 24ec 1282      		std Z+2,__zero_reg__
 7613 24ee 1382      		std Z+3,__zero_reg__
 7614               	.LBE975:
 7615               	.LBE974:
 7616               	.LBB976:
 7617               	.LBB977:
 7618               	.LM697:
 7619 24f0 3597      		sbiw r30,5
 7620 24f2 8081      		ld r24,Z
 7621               	.LBE977:
 7622               	.LBE976:
 7623               	.LBB978:
 7624               	.LBB979:
 7625               	.LM698:
 7626 24f4 807E      		andi r24,lo8(-32)
 7627 24f6 8083      		st Z,r24
 7628               	/* epilogue start */
 7629               	.LBE979:
 7630               	.LBE978:
 7631               	.LBE971:
 7632               	.LBE970:
 7633               	.LM699:
 7634 24f8 0895      		ret
 7635               	.LFE132:
 7637               	.global	Timebase_DownCounter_Start
 7639               	Timebase_DownCounter_Start:
 7640               	.LFB133:
 7641               	.LM700:
 7642               	.LVL472:
 7643               	/* prologue: function */
 7644               	/* frame size = 0 */
 7645               	.LBB980:
 7646               	.LBB981:
 7647               	.LM701:
 7648 24fa E091 0000 		lds r30,Timebase
 7649 24fe F091 0000 		lds r31,(Timebase)+1
 7650 2502 90E0      		ldi r25,lo8(0)
 7651               	.LBE981:
 7652               	.LBE980:
 7653               	.LM702:
 7654 2504 2DE0      		ldi r18,lo8(13)
 7655 2506 30E0      		ldi r19,hi8(13)
 7656 2508 AC01      		movw r20,r24
 7657               	.LVL473:
 7658 250a 429F      		mul r20,r18
 7659 250c C001      		movw r24,r0
 7660 250e 439F      		mul r20,r19
 7661 2510 900D      		add r25,r0
 7662 2512 529F      		mul r21,r18
 7663 2514 900D      		add r25,r0
 7664 2516 1124      		clr r1
 7665 2518 E80F      		add r30,r24
 7666 251a F91F      		adc r31,r25
 7667 251c E15A      		subi r30,lo8(-(95))
 7668 251e FF4F      		sbci r31,hi8(-(95))
 7669 2520 9081      		ld r25,Z
 7670 2522 892F      		mov r24,r25
 7671 2524 8695      		lsr r24
 7672 2526 8F70      		andi r24,lo8(15)
 7673 2528 8130      		cpi r24,lo8(1)
 7674 252a 01F0      		breq .L354
 7675               	.LBB982:
 7676               	.LBB983:
 7677               	.LM703:
 7678 252c 917E      		andi r25,lo8(-31)
 7679 252e 9260      		ori r25,lo8(2)
 7680 2530 9083      		st Z,r25
 7681               	.L354:
 7682 2532 0895      		ret
 7683               	.LBE983:
 7684               	.LBE982:
 7685               	.LFE133:
 7687               	.global	Timebase_DownCounter_Stop
 7689               	Timebase_DownCounter_Stop:
 7690               	.LFB134:
 7691               	.LM704:
 7692               	.LVL474:
 7693               	/* prologue: function */
 7694               	/* frame size = 0 */
 7695               	.LBB984:
 7696               	.LBB985:
 7697               	.LM705:
 7698 2534 E091 0000 		lds r30,Timebase
 7699 2538 F091 0000 		lds r31,(Timebase)+1
 7700 253c 90E0      		ldi r25,lo8(0)
 7701               	.LBE985:
 7702               	.LBE984:
 7703               	.LM706:
 7704 253e 2DE0      		ldi r18,lo8(13)
 7705 2540 30E0      		ldi r19,hi8(13)
 7706 2542 AC01      		movw r20,r24
 7707               	.LVL475:
 7708 2544 429F      		mul r20,r18
 7709 2546 C001      		movw r24,r0
 7710 2548 439F      		mul r20,r19
 7711 254a 900D      		add r25,r0
 7712 254c 529F      		mul r21,r18
 7713 254e 900D      		add r25,r0
 7714 2550 1124      		clr r1
 7715 2552 E80F      		add r30,r24
 7716 2554 F91F      		adc r31,r25
 7717 2556 E15A      		subi r30,lo8(-(95))
 7718 2558 FF4F      		sbci r31,hi8(-(95))
 7719 255a 9081      		ld r25,Z
 7720 255c 892F      		mov r24,r25
 7721 255e 8695      		lsr r24
 7722 2560 8F70      		andi r24,lo8(15)
 7723 2562 8230      		cpi r24,lo8(2)
 7724 2564 01F0      		breq .L357
 7725               	.LBB986:
 7726               	.LBB987:
 7727               	.LM707:
 7728 2566 917E      		andi r25,lo8(-31)
 7729 2568 9460      		ori r25,lo8(4)
 7730 256a 9083      		st Z,r25
 7731               	.L357:
 7732 256c 0895      		ret
 7733               	.LBE987:
 7734               	.LBE986:
 7735               	.LFE134:
 7737               	.global	Timebase_DownCounter_Set_Securely
 7739               	Timebase_DownCounter_Set_Securely:
 7740               	.LFB135:
 7741               	.LM708:
 7742               	.LVL476:
 7743 256e CF93      		push r28
 7744 2570 DF93      		push r29
 7745               	/* prologue: function */
 7746               	/* frame size = 0 */
 7747               	.LBB988:
 7748               	.LBB989:
 7749               	.LM709:
 7750 2572 A091 0000 		lds r26,Timebase
 7751 2576 B091 0000 		lds r27,(Timebase)+1
 7752 257a 90E0      		ldi r25,lo8(0)
 7753               	.LBE989:
 7754               	.LBE988:
 7755               	.LM710:
 7756 257c 2DE0      		ldi r18,lo8(13)
 7757 257e 30E0      		ldi r19,hi8(13)
 7758 2580 829F      		mul r24,r18
 7759 2582 F001      		movw r30,r0
 7760 2584 839F      		mul r24,r19
 7761 2586 F00D      		add r31,r0
 7762 2588 929F      		mul r25,r18
 7763 258a F00D      		add r31,r0
 7764 258c 1124      		clr r1
 7765               	.LVL477:
 7766 258e EA0F      		add r30,r26
 7767 2590 FB1F      		adc r31,r27
 7768 2592 EF01      		movw r28,r30
 7769 2594 C15A      		subi r28,lo8(-(95))
 7770 2596 DF4F      		sbci r29,hi8(-(95))
 7771 2598 8881      		ld r24,Y
 7772 259a 8695      		lsr r24
 7773 259c 8F70      		andi r24,lo8(15)
 7774 259e 01F4      		brne .L360
 7775               	.LBB990:
 7776               	.LBB991:
 7777               	.LM711:
 7778 25a0 EC59      		subi r30,lo8(-(100))
 7779 25a2 FF4F      		sbci r31,hi8(-(100))
 7780 25a4 4083      		st Z,r20
 7781 25a6 5183      		std Z+1,r21
 7782 25a8 6283      		std Z+2,r22
 7783 25aa 7383      		std Z+3,r23
 7784               	.LBE991:
 7785               	.LBE990:
 7786               	.LBB992:
 7787               	.LBB993:
 7788               	.LM712:
 7789 25ac 1A96      		adiw r26,10
 7790 25ae 8D91      		ld r24,X+
 7791 25b0 9D91      		ld r25,X+
 7792 25b2 0D90      		ld __tmp_reg__,X+
 7793 25b4 BC91      		ld r27,X
 7794 25b6 A02D      		mov r26,__tmp_reg__
 7795               	.LBE993:
 7796               	.LBE992:
 7797               	.LBB994:
 7798               	.LBB995:
 7799               	.LM713:
 7800 25b8 840F      		add r24,r20
 7801 25ba 951F      		adc r25,r21
 7802 25bc A61F      		adc r26,r22
 7803 25be B71F      		adc r27,r23
 7804 25c0 B293      		st -Z,r27
 7805 25c2 A293      		st -Z,r26
 7806 25c4 9293      		st -Z,r25
 7807 25c6 8293      		st -Z,r24
 7808               	.LBE995:
 7809               	.LBE994:
 7810               	.LBB996:
 7811               	.LBB997:
 7812               	.LM714:
 7813 25c8 9881      		ld r25,Y
 7814 25ca 892F      		mov r24,r25
 7815 25cc 8695      		lsr r24
 7816 25ce 8F70      		andi r24,lo8(15)
 7817 25d0 8130      		cpi r24,lo8(1)
 7818 25d2 01F0      		breq .L360
 7819               	.LBB998:
 7820               	.LBB999:
 7821               	.LM715:
 7822 25d4 917E      		andi r25,lo8(-31)
 7823 25d6 9260      		ori r25,lo8(2)
 7824 25d8 9883      		st Y,r25
 7825               	.L360:
 7826               	/* epilogue start */
 7827               	.LBE999:
 7828               	.LBE998:
 7829               	.LBE997:
 7830               	.LBE996:
 7831               	.LM716:
 7832 25da DF91      		pop r29
 7833 25dc CF91      		pop r28
 7834 25de 0895      		ret
 7835               	.LFE135:
 7837               	.global	Timebase_DownCounter_Set_Forcefully
 7839               	Timebase_DownCounter_Set_Forcefully:
 7840               	.LFB136:
 7841               	.LM717:
 7842               	.LVL478:
 7843 25e0 CF93      		push r28
 7844 25e2 DF93      		push r29
 7845               	/* prologue: function */
 7846               	/* frame size = 0 */
 7847               	.LBB1000:
 7848               	.LBB1001:
 7849               	.LBB1002:
 7850               	.LBB1003:
 7851               	.LM718:
 7852 25e4 E091 0000 		lds r30,Timebase
 7853 25e8 F091 0000 		lds r31,(Timebase)+1
 7854 25ec A82F      		mov r26,r24
 7855 25ee B0E0      		ldi r27,lo8(0)
 7856 25f0 2DE0      		ldi r18,lo8(13)
 7857 25f2 30E0      		ldi r19,hi8(13)
 7858 25f4 E901      		movw r28,r18
 7859 25f6 AC9F      		mul r26,r28
 7860 25f8 9001      		movw r18,r0
 7861 25fa AD9F      		mul r26,r29
 7862 25fc 300D      		add r19,r0
 7863 25fe BC9F      		mul r27,r28
 7864 2600 300D      		add r19,r0
 7865 2602 1124      		clr r1
 7866 2604 E20F      		add r30,r18
 7867 2606 F31F      		adc r31,r19
 7868 2608 E05A      		subi r30,lo8(-(96))
 7869 260a FF4F      		sbci r31,hi8(-(96))
 7870 260c 1192      		st Z+,__zero_reg__
 7871 260e 1192      		st Z+,__zero_reg__
 7872 2610 1192      		st Z+,__zero_reg__
 7873 2612 1192      		st Z+,__zero_reg__
 7874               	.LBE1003:
 7875               	.LBE1002:
 7876               	.LBB1004:
 7877               	.LBB1005:
 7878               	.LM719:
 7879 2614 1082      		st Z,__zero_reg__
 7880 2616 1182      		std Z+1,__zero_reg__
 7881 2618 1282      		std Z+2,__zero_reg__
 7882 261a 1382      		std Z+3,__zero_reg__
 7883               	.LBE1005:
 7884               	.LBE1004:
 7885               	.LBB1006:
 7886               	.LBB1007:
 7887               	.LM720:
 7888 261c 3597      		sbiw r30,5
 7889 261e 9081      		ld r25,Z
 7890               	.LBE1007:
 7891               	.LBE1006:
 7892               	.LBB1008:
 7893               	.LBB1009:
 7894               	.LM721:
 7895 2620 907E      		andi r25,lo8(-32)
 7896 2622 9083      		st Z,r25
 7897               	.LBE1009:
 7898               	.LBE1008:
 7899               	.LBE1001:
 7900               	.LBE1000:
 7901               	.LM722:
 7902 2624 0E94 0000 		call Timebase_DownCounter_Set_Securely
 7903               	.LVL479:
 7904               	/* epilogue start */
 7905               	.LM723:
 7906 2628 DF91      		pop r29
 7907 262a CF91      		pop r28
 7908 262c 0895      		ret
 7909               	.LFE136:
 7911               	.global	Timebase_DownCounter_Update
 7913               	Timebase_DownCounter_Update:
 7914               	.LFB137:
 7915               	.LM724:
 7916               	.LVL480:
 7917 262e 0F93      		push r16
 7918 2630 1F93      		push r17
 7919 2632 CF93      		push r28
 7920 2634 DF93      		push r29
 7921               	/* prologue: function */
 7922               	/* frame size = 0 */
 7923               	.LBB1010:
 7924               	.LBB1011:
 7925               	.LM725:
 7926 2636 A091 0000 		lds r26,Timebase
 7927 263a B091 0000 		lds r27,(Timebase)+1
 7928 263e 90E0      		ldi r25,lo8(0)
 7929 2640 2DE0      		ldi r18,lo8(13)
 7930 2642 30E0      		ldi r19,hi8(13)
 7931 2644 829F      		mul r24,r18
 7932 2646 F001      		movw r30,r0
 7933 2648 839F      		mul r24,r19
 7934 264a F00D      		add r31,r0
 7935 264c 929F      		mul r25,r18
 7936 264e F00D      		add r31,r0
 7937 2650 1124      		clr r1
 7938               	.LVL481:
 7939 2652 EA0F      		add r30,r26
 7940 2654 FB1F      		adc r31,r27
 7941 2656 8F01      		movw r16,r30
 7942 2658 015A      		subi r16,lo8(-(95))
 7943 265a 1F4F      		sbci r17,hi8(-(95))
 7944 265c E801      		movw r28,r16
 7945 265e 8881      		ld r24,Y
 7946 2660 8695      		lsr r24
 7947 2662 8F70      		andi r24,lo8(15)
 7948               	.LBE1011:
 7949               	.LBE1010:
 7950               	.LM726:
 7951 2664 8130      		cpi r24,lo8(1)
 7952 2666 01F4      		brne .L364
 7953               	.LBB1012:
 7954               	.LBB1013:
 7955               	.LM727:
 7956 2668 1A96      		adiw r26,10
 7957 266a 2D91      		ld r18,X+
 7958 266c 3D91      		ld r19,X+
 7959 266e 4D91      		ld r20,X+
 7960 2670 5C91      		ld r21,X
 7961 2672 1D97      		sbiw r26,10+3
 7962               	.LBE1013:
 7963               	.LBE1012:
 7964               	.LM728:
 7965 2674 BF01      		movw r22,r30
 7966 2676 605A      		subi r22,lo8(-(96))
 7967 2678 7F4F      		sbci r23,hi8(-(96))
 7968 267a EB01      		movw r28,r22
 7969 267c 8881      		ld r24,Y
 7970 267e 9981      		ldd r25,Y+1
 7971 2680 AA81      		ldd r26,Y+2
 7972 2682 BB81      		ldd r27,Y+3
 7973 2684 821B      		sub r24,r18
 7974 2686 930B      		sbc r25,r19
 7975 2688 A40B      		sbc r26,r20
 7976 268a B50B      		sbc r27,r21
 7977               	.LBB1014:
 7978               	.LBB1015:
 7979               	.LM729:
 7980 268c EC59      		subi r30,lo8(-(100))
 7981 268e FF4F      		sbci r31,hi8(-(100))
 7982 2690 8083      		st Z,r24
 7983 2692 9183      		std Z+1,r25
 7984 2694 A283      		std Z+2,r26
 7985 2696 B383      		std Z+3,r27
 7986               	.LBE1015:
 7987               	.LBE1014:
 7988               	.LM730:
 7989 2698 1816      		cp __zero_reg__,r24
 7990 269a 1906      		cpc __zero_reg__,r25
 7991 269c 1A06      		cpc __zero_reg__,r26
 7992 269e 1B06      		cpc __zero_reg__,r27
 7993 26a0 04F0      		brlt .L366
 7994               	.LBB1016:
 7995               	.LBB1017:
 7996               	.LBB1018:
 7997               	.LBB1019:
 7998               	.LM731:
 7999 26a2 DB01      		movw r26,r22
 8000 26a4 1D92      		st X+,__zero_reg__
 8001 26a6 1D92      		st X+,__zero_reg__
 8002 26a8 1D92      		st X+,__zero_reg__
 8003 26aa 1C92      		st X,__zero_reg__
 8004 26ac 1397      		sbiw r26,3
 8005               	.LBE1019:
 8006               	.LBE1018:
 8007               	.LBB1020:
 8008               	.LBB1021:
 8009               	.LM732:
 8010 26ae 1082      		st Z,__zero_reg__
 8011 26b0 1182      		std Z+1,__zero_reg__
 8012 26b2 1282      		std Z+2,__zero_reg__
 8013 26b4 1382      		std Z+3,__zero_reg__
 8014               	.LBE1021:
 8015               	.LBE1020:
 8016               	.LBB1022:
 8017               	.LBB1023:
 8018               	.LM733:
 8019 26b6 E801      		movw r28,r16
 8020 26b8 8881      		ld r24,Y
 8021               	.LBE1023:
 8022               	.LBE1022:
 8023               	.LBE1017:
 8024               	.LBE1016:
 8025               	.LBB1024:
 8026               	.LBB1025:
 8027               	.LM734:
 8028 26ba 807E      		andi r24,lo8(-32)
 8029 26bc 8860      		ori r24,lo8(8)
 8030 26be 8883      		st Y,r24
 8031 26c0 00C0      		rjmp .L366
 8032               	.L364:
 8033               	.LBE1025:
 8034               	.LBE1024:
 8035               	.LM735:
 8036 26c2 8230      		cpi r24,lo8(2)
 8037 26c4 01F4      		brne .L366
 8038               	.LBB1026:
 8039               	.LBB1027:
 8040               	.LM736:
 8041 26c6 1A96      		adiw r26,10
 8042 26c8 8D91      		ld r24,X+
 8043 26ca 9D91      		ld r25,X+
 8044 26cc 0D90      		ld __tmp_reg__,X+
 8045 26ce BC91      		ld r27,X
 8046 26d0 A02D      		mov r26,__tmp_reg__
 8047               	.LBE1027:
 8048               	.LBE1026:
 8049               	.LBB1028:
 8050               	.LBB1029:
 8051               	.LM737:
 8052 26d2 EC59      		subi r30,lo8(-(100))
 8053 26d4 FF4F      		sbci r31,hi8(-(100))
 8054 26d6 2081      		ld r18,Z
 8055 26d8 3181      		ldd r19,Z+1
 8056 26da 4281      		ldd r20,Z+2
 8057 26dc 5381      		ldd r21,Z+3
 8058 26de 820F      		add r24,r18
 8059 26e0 931F      		adc r25,r19
 8060 26e2 A41F      		adc r26,r20
 8061 26e4 B51F      		adc r27,r21
 8062 26e6 B293      		st -Z,r27
 8063 26e8 A293      		st -Z,r26
 8064 26ea 9293      		st -Z,r25
 8065 26ec 8293      		st -Z,r24
 8066               	.L366:
 8067               	/* epilogue start */
 8068               	.LBE1029:
 8069               	.LBE1028:
 8070               	.LM738:
 8071 26ee DF91      		pop r29
 8072 26f0 CF91      		pop r28
 8073 26f2 1F91      		pop r17
 8074 26f4 0F91      		pop r16
 8075 26f6 0895      		ret
 8076               	.LFE137:
 8078               	.global	Timebase_DownCounter_Expired
 8080               	Timebase_DownCounter_Expired:
 8081               	.LFB138:
 8082               	.LM739:
 8083               	.LVL482:
 8084               	/* prologue: function */
 8085               	/* frame size = 0 */
 8086               	.LM740:
 8087 26f8 40E0      		ldi r20,lo8(0)
 8088 26fa E091 0000 		lds r30,Timebase
 8089 26fe F091 0000 		lds r31,(Timebase)+1
 8090 2702 90E0      		ldi r25,lo8(0)
 8091               	.LVL483:
 8092 2704 2DE0      		ldi r18,lo8(13)
 8093 2706 30E0      		ldi r19,hi8(13)
 8094 2708 BC01      		movw r22,r24
 8095 270a 629F      		mul r22,r18
 8096 270c C001      		movw r24,r0
 8097 270e 639F      		mul r22,r19
 8098 2710 900D      		add r25,r0
 8099 2712 729F      		mul r23,r18
 8100 2714 900D      		add r25,r0
 8101 2716 1124      		clr r1
 8102               	.LVL484:
 8103 2718 E80F      		add r30,r24
 8104 271a F91F      		adc r31,r25
 8105 271c E15A      		subi r30,lo8(-(95))
 8106 271e FF4F      		sbci r31,hi8(-(95))
 8107 2720 8081      		ld r24,Z
 8108 2722 8695      		lsr r24
 8109 2724 8F70      		andi r24,lo8(15)
 8110 2726 8430      		cpi r24,lo8(4)
 8111 2728 01F4      		brne .L368
 8112 272a 41E0      		ldi r20,lo8(1)
 8113               	.L368:
 8114               	.LM741:
 8115 272c 842F      		mov r24,r20
 8116               	/* epilogue start */
 8117 272e 0895      		ret
 8118               	.LFE138:
 8120               	.global	Timebase_DownCounter_Expired_Event
 8122               	Timebase_DownCounter_Expired_Event:
 8123               	.LFB139:
 8124               	.LM742:
 8125               	.LVL485:
 8126               	/* prologue: function */
 8127               	/* frame size = 0 */
 8128               	.LBB1030:
 8129               	.LBB1031:
 8130               	.LM743:
 8131 2730 E091 0000 		lds r30,Timebase
 8132 2734 F091 0000 		lds r31,(Timebase)+1
 8133 2738 90E0      		ldi r25,lo8(0)
 8134               	.LBE1031:
 8135               	.LBE1030:
 8136               	.LM744:
 8137 273a 2DE0      		ldi r18,lo8(13)
 8138 273c 30E0      		ldi r19,hi8(13)
 8139 273e AC01      		movw r20,r24
 8140               	.LVL486:
 8141 2740 429F      		mul r20,r18
 8142 2742 C001      		movw r24,r0
 8143 2744 439F      		mul r20,r19
 8144 2746 900D      		add r25,r0
 8145 2748 529F      		mul r21,r18
 8146 274a 900D      		add r25,r0
 8147 274c 1124      		clr r1
 8148 274e E80F      		add r30,r24
 8149 2750 F91F      		adc r31,r25
 8150 2752 DF01      		movw r26,r30
 8151 2754 A15A      		subi r26,lo8(-(95))
 8152 2756 BF4F      		sbci r27,hi8(-(95))
 8153 2758 8C91      		ld r24,X
 8154 275a 8695      		lsr r24
 8155 275c 8F70      		andi r24,lo8(15)
 8156 275e 8430      		cpi r24,lo8(4)
 8157 2760 01F0      		breq .L371
 8158 2762 80E0      		ldi r24,lo8(0)
 8159 2764 0895      		ret
 8160               	.L371:
 8161               	.LBB1032:
 8162               	.LBB1033:
 8163               	.LBB1034:
 8164               	.LBB1035:
 8165               	.LBB1036:
 8166               	.LBB1037:
 8167               	.LM745:
 8168 2766 E05A      		subi r30,lo8(-(96))
 8169 2768 FF4F      		sbci r31,hi8(-(96))
 8170 276a 1192      		st Z+,__zero_reg__
 8171 276c 1192      		st Z+,__zero_reg__
 8172 276e 1192      		st Z+,__zero_reg__
 8173 2770 1192      		st Z+,__zero_reg__
 8174               	.LBE1037:
 8175               	.LBE1036:
 8176               	.LBB1038:
 8177               	.LBB1039:
 8178               	.LM746:
 8179 2772 1082      		st Z,__zero_reg__
 8180 2774 1182      		std Z+1,__zero_reg__
 8181 2776 1282      		std Z+2,__zero_reg__
 8182 2778 1382      		std Z+3,__zero_reg__
 8183               	.LBE1039:
 8184               	.LBE1038:
 8185               	.LBB1040:
 8186               	.LBB1041:
 8187               	.LM747:
 8188 277a 8C91      		ld r24,X
 8189               	.LBE1041:
 8190               	.LBE1040:
 8191               	.LBB1042:
 8192               	.LBB1043:
 8193               	.LM748:
 8194 277c 807E      		andi r24,lo8(-32)
 8195 277e 8C93      		st X,r24
 8196 2780 81E0      		ldi r24,lo8(1)
 8197               	.LBE1043:
 8198               	.LBE1042:
 8199               	.LBE1035:
 8200               	.LBE1034:
 8201               	.LBE1033:
 8202               	.LBE1032:
 8203               	.LM749:
 8204 2782 0895      		ret
 8205               	.LFE139:
 8207               	.global	Timebase_DownCounter_Set_Period_Value_Securely
 8209               	Timebase_DownCounter_Set_Period_Value_Securely:
 8210               	.LFB140:
 8211               	.LM750:
 8212               	.LVL487:
 8213 2784 CF93      		push r28
 8214 2786 DF93      		push r29
 8215               	/* prologue: function */
 8216               	/* frame size = 0 */
 8217               	.LBB1044:
 8218               	.LBB1045:
 8219               	.LM751:
 8220 2788 C091 0000 		lds r28,Timebase
 8221 278c D091 0000 		lds r29,(Timebase)+1
 8222 2790 282F      		mov r18,r24
 8223 2792 30E0      		ldi r19,lo8(0)
 8224               	.LBE1045:
 8225               	.LBE1044:
 8226               	.LM752:
 8227 2794 8DE0      		ldi r24,lo8(13)
 8228 2796 90E0      		ldi r25,hi8(13)
 8229               	.LVL488:
 8230 2798 289F      		mul r18,r24
 8231 279a F001      		movw r30,r0
 8232 279c 299F      		mul r18,r25
 8233 279e F00D      		add r31,r0
 8234 27a0 389F      		mul r19,r24
 8235 27a2 F00D      		add r31,r0
 8236 27a4 1124      		clr r1
 8237 27a6 EC0F      		add r30,r28
 8238 27a8 FD1F      		adc r31,r29
 8239 27aa E15A      		subi r30,lo8(-(95))
 8240 27ac FF4F      		sbci r31,hi8(-(95))
 8241 27ae 8081      		ld r24,Z
 8242 27b0 EF55      		subi r30,lo8(-(-95))
 8243 27b2 F040      		sbci r31,hi8(-(-95))
 8244 27b4 80FD      		sbrc r24,0
 8245 27b6 00C0      		rjmp .L378
 8246               	.LM753:
 8247 27b8 EC59      		subi r30,lo8(-(100))
 8248 27ba FF4F      		sbci r31,hi8(-(100))
 8249 27bc 8191      		ld r24,Z+
 8250 27be 9191      		ld r25,Z+
 8251 27c0 A191      		ld r26,Z+
 8252 27c2 B191      		ld r27,Z+
 8253 27c4 841B      		sub r24,r20
 8254 27c6 950B      		sbc r25,r21
 8255 27c8 A60B      		sbc r26,r22
 8256 27ca B70B      		sbc r27,r23
 8257               	.LBB1046:
 8258               	.LBB1047:
 8259               	.LM754:
 8260 27cc B7FF      		sbrs r27,7
 8261 27ce 00C0      		rjmp .L376
 8262               	.LM755:
 8263 27d0 1082      		st Z,__zero_reg__
 8264 27d2 1182      		std Z+1,__zero_reg__
 8265 27d4 1282      		std Z+2,__zero_reg__
 8266 27d6 1382      		std Z+3,__zero_reg__
 8267 27d8 00C0      		rjmp .L377
 8268               	.L376:
 8269               	.LM756:
 8270 27da 8083      		st Z,r24
 8271 27dc 9183      		std Z+1,r25
 8272 27de A283      		std Z+2,r26
 8273 27e0 B383      		std Z+3,r27
 8274               	.L377:
 8275               	.LBE1047:
 8276               	.LBE1046:
 8277               	.LBB1048:
 8278               	.LBB1049:
 8279               	.LM757:
 8280 27e2 8DE0      		ldi r24,lo8(13)
 8281 27e4 90E0      		ldi r25,hi8(13)
 8282 27e6 289F      		mul r18,r24
 8283 27e8 F001      		movw r30,r0
 8284 27ea 299F      		mul r18,r25
 8285 27ec F00D      		add r31,r0
 8286 27ee 389F      		mul r19,r24
 8287 27f0 F00D      		add r31,r0
 8288 27f2 1124      		clr r1
 8289 27f4 EC0F      		add r30,r28
 8290 27f6 FD1F      		adc r31,r29
 8291 27f8 E15A      		subi r30,lo8(-(95))
 8292 27fa FF4F      		sbci r31,hi8(-(95))
 8293 27fc 8081      		ld r24,Z
 8294 27fe 8160      		ori r24,lo8(1)
 8295 2800 8083      		st Z,r24
 8296               	.L378:
 8297               	/* epilogue start */
 8298               	.LBE1049:
 8299               	.LBE1048:
 8300               	.LM758:
 8301 2802 DF91      		pop r29
 8302 2804 CF91      		pop r28
 8303 2806 0895      		ret
 8304               	.LFE140:
 8306               	.global	Timebase_DownCounter_Get_Remaining_Period_Value
 8308               	Timebase_DownCounter_Get_Remaining_Period_Value:
 8309               	.LFB141:
 8310               	.LM759:
 8311               	.LVL489:
 8312               	/* prologue: function */
 8313               	/* frame size = 0 */
 8314               	.LBB1050:
 8315               	.LBB1051:
 8316               	.LM760:
 8317 2808 E091 0000 		lds r30,Timebase
 8318 280c F091 0000 		lds r31,(Timebase)+1
 8319 2810 90E0      		ldi r25,lo8(0)
 8320               	.LBE1051:
 8321               	.LBE1050:
 8322               	.LM761:
 8323 2812 2DE0      		ldi r18,lo8(13)
 8324 2814 30E0      		ldi r19,hi8(13)
 8325 2816 AC01      		movw r20,r24
 8326               	.LVL490:
 8327 2818 429F      		mul r20,r18
 8328 281a C001      		movw r24,r0
 8329 281c 439F      		mul r20,r19
 8330 281e 900D      		add r25,r0
 8331 2820 529F      		mul r21,r18
 8332 2822 900D      		add r25,r0
 8333 2824 1124      		clr r1
 8334 2826 E80F      		add r30,r24
 8335 2828 F91F      		adc r31,r25
 8336 282a DF01      		movw r26,r30
 8337 282c A859      		subi r26,lo8(-(104))
 8338 282e BF4F      		sbci r27,hi8(-(104))
 8339 2830 EC59      		subi r30,lo8(-(100))
 8340 2832 FF4F      		sbci r31,hi8(-(100))
 8341 2834 2081      		ld r18,Z
 8342 2836 3181      		ldd r19,Z+1
 8343 2838 4281      		ldd r20,Z+2
 8344 283a 5381      		ldd r21,Z+3
 8345               	.LVL491:
 8346 283c 8D91      		ld r24,X+
 8347 283e 9D91      		ld r25,X+
 8348 2840 0D90      		ld __tmp_reg__,X+
 8349 2842 BC91      		ld r27,X
 8350 2844 A02D      		mov r26,__tmp_reg__
 8351 2846 281B      		sub r18,r24
 8352 2848 390B      		sbc r19,r25
 8353 284a 4A0B      		sbc r20,r26
 8354 284c 5B0B      		sbc r21,r27
 8355 284e 57FF      		sbrs r21,7
 8356 2850 00C0      		rjmp .L380
 8357 2852 20E0      		ldi r18,lo8(0)
 8358 2854 30E0      		ldi r19,hi8(0)
 8359 2856 40E0      		ldi r20,hlo8(0)
 8360 2858 50E0      		ldi r21,hhi8(0)
 8361               	.L380:
 8362               	.LM762:
 8363 285a B901      		movw r22,r18
 8364               	.LVL492:
 8365 285c CA01      		movw r24,r20
 8366               	/* epilogue start */
 8367 285e 0895      		ret
 8368               	.LFE141:
 8370               	.global	Timebase_DownCounter_Period_Value_Expired
 8372               	Timebase_DownCounter_Period_Value_Expired:
 8373               	.LFB142:
 8374               	.LM763:
 8375               	.LVL493:
 8376 2860 CF93      		push r28
 8377 2862 DF93      		push r29
 8378               	/* prologue: function */
 8379               	/* frame size = 0 */
 8380               	.LBB1052:
 8381               	.LBB1053:
 8382               	.LBB1054:
 8383               	.LBB1055:
 8384               	.LM764:
 8385 2864 C091 0000 		lds r28,Timebase
 8386 2868 D091 0000 		lds r29,(Timebase)+1
 8387 286c 682F      		mov r22,r24
 8388 286e 70E0      		ldi r23,lo8(0)
 8389               	.LBE1055:
 8390               	.LBE1054:
 8391               	.LM765:
 8392 2870 8DE0      		ldi r24,lo8(13)
 8393 2872 90E0      		ldi r25,hi8(13)
 8394               	.LVL494:
 8395 2874 689F      		mul r22,r24
 8396 2876 F001      		movw r30,r0
 8397 2878 699F      		mul r22,r25
 8398 287a F00D      		add r31,r0
 8399 287c 789F      		mul r23,r24
 8400 287e F00D      		add r31,r0
 8401 2880 1124      		clr r1
 8402 2882 EC0F      		add r30,r28
 8403 2884 FD1F      		adc r31,r29
 8404 2886 DF01      		movw r26,r30
 8405 2888 A859      		subi r26,lo8(-(104))
 8406 288a BF4F      		sbci r27,hi8(-(104))
 8407 288c EC59      		subi r30,lo8(-(100))
 8408 288e FF4F      		sbci r31,hi8(-(100))
 8409 2890 2081      		ld r18,Z
 8410 2892 3181      		ldd r19,Z+1
 8411 2894 4281      		ldd r20,Z+2
 8412 2896 5381      		ldd r21,Z+3
 8413               	.LVL495:
 8414 2898 8D91      		ld r24,X+
 8415 289a 9D91      		ld r25,X+
 8416 289c 0D90      		ld __tmp_reg__,X+
 8417 289e BC91      		ld r27,X
 8418 28a0 A02D      		mov r26,__tmp_reg__
 8419 28a2 281B      		sub r18,r24
 8420 28a4 390B      		sbc r19,r25
 8421 28a6 4A0B      		sbc r20,r26
 8422 28a8 5B0B      		sbc r21,r27
 8423               	.LM766:
 8424 28aa 57FD      		sbrc r21,7
 8425 28ac 00C0      		rjmp .L383
 8426               	.LBE1053:
 8427               	.LBE1052:
 8428               	.LM767:
 8429 28ae 2115      		cp r18,__zero_reg__
 8430 28b0 3105      		cpc r19,__zero_reg__
 8431 28b2 4105      		cpc r20,__zero_reg__
 8432 28b4 5105      		cpc r21,__zero_reg__
 8433 28b6 01F0      		breq .L383
 8434 28b8 20E0      		ldi r18,lo8(0)
 8435               	.LVL496:
 8436 28ba 00C0      		rjmp .L384
 8437               	.LVL497:
 8438               	.L383:
 8439 28bc 20E0      		ldi r18,lo8(0)
 8440               	.LVL498:
 8441 28be 8DE0      		ldi r24,lo8(13)
 8442 28c0 90E0      		ldi r25,hi8(13)
 8443 28c2 AC01      		movw r20,r24
 8444 28c4 649F      		mul r22,r20
 8445 28c6 C001      		movw r24,r0
 8446 28c8 659F      		mul r22,r21
 8447 28ca 900D      		add r25,r0
 8448 28cc 749F      		mul r23,r20
 8449 28ce 900D      		add r25,r0
 8450 28d0 1124      		clr r1
 8451 28d2 C80F      		add r28,r24
 8452 28d4 D91F      		adc r29,r25
 8453 28d6 C15A      		subi r28,lo8(-(95))
 8454 28d8 DF4F      		sbci r29,hi8(-(95))
 8455 28da 8881      		ld r24,Y
 8456 28dc 80FF      		sbrs r24,0
 8457 28de 21E0      		ldi r18,lo8(1)
 8458               	.L385:
 8459 28e0 81E0      		ldi r24,lo8(1)
 8460 28e2 2827      		eor r18,r24
 8461               	.L384:
 8462               	.LM768:
 8463 28e4 822F      		mov r24,r18
 8464               	/* epilogue start */
 8465 28e6 DF91      		pop r29
 8466 28e8 CF91      		pop r28
 8467 28ea 0895      		ret
 8468               	.LFE142:
 8470               	.global	Timebase_DownCounter_Period_Value_Expired_Event
 8472               	Timebase_DownCounter_Period_Value_Expired_Event:
 8473               	.LFB143:
 8474               	.LM769:
 8475               	.LVL499:
 8476 28ec 1F93      		push r17
 8477               	/* prologue: function */
 8478               	/* frame size = 0 */
 8479 28ee 182F      		mov r17,r24
 8480               	.LM770:
 8481 28f0 0E94 0000 		call Timebase_DownCounter_Period_Value_Expired
 8482               	.LVL500:
 8483 28f4 8130      		cpi r24,lo8(1)
 8484 28f6 01F0      		breq .L388
 8485 28f8 80E0      		ldi r24,lo8(0)
 8486 28fa 00C0      		rjmp .L389
 8487               	.L388:
 8488               	.LBB1056:
 8489               	.LBB1057:
 8490               	.LM771:
 8491 28fc E091 0000 		lds r30,Timebase
 8492 2900 F091 0000 		lds r31,(Timebase)+1
 8493 2904 212F      		mov r18,r17
 8494 2906 30E0      		ldi r19,lo8(0)
 8495               	.LVL501:
 8496 2908 8DE0      		ldi r24,lo8(13)
 8497 290a 90E0      		ldi r25,hi8(13)
 8498 290c AC01      		movw r20,r24
 8499 290e 249F      		mul r18,r20
 8500 2910 C001      		movw r24,r0
 8501 2912 259F      		mul r18,r21
 8502 2914 900D      		add r25,r0
 8503 2916 349F      		mul r19,r20
 8504 2918 900D      		add r25,r0
 8505 291a 1124      		clr r1
 8506 291c E80F      		add r30,r24
 8507 291e F91F      		adc r31,r25
 8508 2920 E15A      		subi r30,lo8(-(95))
 8509 2922 FF4F      		sbci r31,hi8(-(95))
 8510 2924 8081      		ld r24,Z
 8511 2926 8E7F      		andi r24,lo8(-2)
 8512 2928 8083      		st Z,r24
 8513 292a 81E0      		ldi r24,lo8(1)
 8514               	.L389:
 8515               	/* epilogue start */
 8516               	.LBE1057:
 8517               	.LBE1056:
 8518               	.LM772:
 8519 292c 1F91      		pop r17
 8520               	.LVL502:
 8521 292e 0895      		ret
 8522               	.LFE143:
 8524               	.global	Timebase_DownCounter_Update_All
 8526               	Timebase_DownCounter_Update_All:
 8527               	.LFB144:
 8528               	.LM773:
 8529               	/* prologue: function */
 8530               	/* frame size = 0 */
 8531               	.LBB1058:
 8532               	.LM774:
 8533 2930 80E0      		ldi r24,lo8(0)
 8534 2932 0E94 0000 		call Timebase_DownCounter_Update
 8535               	/* epilogue start */
 8536               	.LBE1058:
 8537               	.LM775:
 8538 2936 0895      		ret
 8539               	.LFE144:
 8541               	.global	Timebase_DownCounter_Reset_All
 8543               	Timebase_DownCounter_Reset_All:
 8544               	.LFB145:
 8545               	.LM776:
 8546               	/* prologue: function */
 8547               	/* frame size = 0 */
 8548               	.LBB1059:
 8549               	.LBB1060:
 8550               	.LBB1061:
 8551               	.LBB1062:
 8552               	.LBB1063:
 8553               	.LM777:
 8554 2938 E091 0000 		lds r30,Timebase
 8555 293c F091 0000 		lds r31,(Timebase)+1
 8556 2940 E05A      		subi r30,lo8(-(96))
 8557 2942 FF4F      		sbci r31,hi8(-(96))
 8558 2944 1192      		st Z+,__zero_reg__
 8559 2946 1192      		st Z+,__zero_reg__
 8560 2948 1192      		st Z+,__zero_reg__
 8561 294a 1192      		st Z+,__zero_reg__
 8562               	.LBE1063:
 8563               	.LBE1062:
 8564               	.LBB1064:
 8565               	.LBB1065:
 8566               	.LM778:
 8567 294c 1082      		st Z,__zero_reg__
 8568 294e 1182      		std Z+1,__zero_reg__
 8569 2950 1282      		std Z+2,__zero_reg__
 8570 2952 1382      		std Z+3,__zero_reg__
 8571               	.LBE1065:
 8572               	.LBE1064:
 8573               	.LBB1066:
 8574               	.LBB1067:
 8575               	.LM779:
 8576 2954 3597      		sbiw r30,5
 8577 2956 8081      		ld r24,Z
 8578               	.LBE1067:
 8579               	.LBE1066:
 8580               	.LBB1068:
 8581               	.LBB1069:
 8582               	.LM780:
 8583 2958 807E      		andi r24,lo8(-32)
 8584 295a 8083      		st Z,r24
 8585               	/* epilogue start */
 8586               	.LBE1069:
 8587               	.LBE1068:
 8588               	.LBE1061:
 8589               	.LBE1060:
 8590               	.LBE1059:
 8591               	.LM781:
 8592 295c 0895      		ret
 8593               	.LFE145:
 8595               	.global	Timebase_Reset
 8597               	Timebase_Reset:
 8598               	.LFB146:
 8599               	.LM782:
 8600               	/* prologue: function */
 8601               	/* frame size = 0 */
 8602               	.LM783:
 8603 295e 0E94 0000 		call Timebase_UpCounter_Reset_All
 8604               	.LM784:
 8605 2962 0E94 0000 		call Timebase_DownCounter_SS_Reset_All
 8606               	.LM785:
 8607 2966 0E94 0000 		call Timebase_DownCounter_Reset_All
 8608               	/* epilogue start */
 8609               	.LM786:
 8610 296a 0895      		ret
 8611               	.LFE146:
 8613               	.global	Timebase_Init
 8615               	Timebase_Init:
 8616               	.LFB147:
 8617               	.LM787:
 8618               	.LVL503:
 8619 296c 0F93      		push r16
 8620 296e 1F93      		push r17
 8621               	/* prologue: function */
 8622               	/* frame size = 0 */
 8623 2970 8C01      		movw r16,r24
 8624               	.LM788:
 8625 2972 0E94 0000 		call Timebase_Struct_Init
 8626               	.LVL504:
 8627               	.LM789:
 8628 2976 C801      		movw r24,r16
 8629 2978 0E94 0000 		call Timebase_Timer_Config
 8630               	.LM790:
 8631 297c 0E94 0000 		call Timebase_Reset
 8632               	/* epilogue start */
 8633               	.LM791:
 8634 2980 1F91      		pop r17
 8635 2982 0F91      		pop r16
 8636               	.LVL505:
 8637 2984 0895      		ret
 8638               	.LFE147:
 8640               	.global	Timebase_Main_Loop_Executables
 8642               	Timebase_Main_Loop_Executables:
 8643               	.LFB148:
 8644               	.LM792:
 8645               	/* prologue: function */
 8646               	/* frame size = 0 */
 8647               	.LM793:
 8648 2986 E091 0000 		lds r30,Timebase
 8649 298a F091 0000 		lds r31,(Timebase)+1
 8650 298e 868D      		ldd r24,Z+30
 8651 2990 82FF      		sbrs r24,2
 8652 2992 00C0      		rjmp .L400
 8653               	.LM794:
 8654 2994 0E94 0000 		call Timebase_Timer_Sync_With_Shadow_Variables
 8655               	.LM795:
 8656 2998 E091 0000 		lds r30,Timebase
 8657 299c F091 0000 		lds r31,(Timebase)+1
 8658 29a0 868D      		ldd r24,Z+30
 8659 29a2 8B7F      		andi r24,lo8(-5)
 8660 29a4 868F      		std Z+30,r24
 8661               	.L400:
 8662               	.LM796:
 8663 29a6 E091 0000 		lds r30,Timebase
 8664 29aa F091 0000 		lds r31,(Timebase)+1
 8665 29ae 868D      		ldd r24,Z+30
 8666 29b0 80FF      		sbrs r24,0
 8667 29b2 00C0      		rjmp .L401
 8668               	.LM797:
 8669 29b4 0E94 0000 		call Timebase_Timer_Sync_With_Shadow_Variables
 8670               	.LM798:
 8671 29b8 0E94 0000 		call Timebase_UpCounter_Update_All
 8672               	.LM799:
 8673 29bc E091 0000 		lds r30,Timebase
 8674 29c0 F091 0000 		lds r31,(Timebase)+1
 8675 29c4 868D      		ldd r24,Z+30
 8676 29c6 8E7F      		andi r24,lo8(-2)
 8677 29c8 868F      		std Z+30,r24
 8678               	.L401:
 8679               	.LM800:
 8680 29ca E091 0000 		lds r30,Timebase
 8681 29ce F091 0000 		lds r31,(Timebase)+1
 8682 29d2 868D      		ldd r24,Z+30
 8683 29d4 83FF      		sbrs r24,3
 8684 29d6 00C0      		rjmp .L402
 8685               	.LM801:
 8686 29d8 0E94 0000 		call Timebase_Timer_Sync_With_Shadow_Variables
 8687               	.LM802:
 8688 29dc 0E94 0000 		call Timebase_DownCounter_SS_Update_All
 8689               	.LM803:
 8690 29e0 E091 0000 		lds r30,Timebase
 8691 29e4 F091 0000 		lds r31,(Timebase)+1
 8692 29e8 868D      		ldd r24,Z+30
 8693 29ea 877F      		andi r24,lo8(-9)
 8694 29ec 868F      		std Z+30,r24
 8695               	.L402:
 8696               	.LM804:
 8697 29ee E091 0000 		lds r30,Timebase
 8698 29f2 F091 0000 		lds r31,(Timebase)+1
 8699 29f6 868D      		ldd r24,Z+30
 8700 29f8 81FF      		sbrs r24,1
 8701 29fa 00C0      		rjmp .L403
 8702               	.LM805:
 8703 29fc 0E94 0000 		call Timebase_Timer_Sync_With_Shadow_Variables
 8704               	.LM806:
 8705 2a00 0E94 0000 		call Timebase_DownCounter_Update_All
 8706               	.LM807:
 8707 2a04 E091 0000 		lds r30,Timebase
 8708 2a08 F091 0000 		lds r31,(Timebase)+1
 8709 2a0c 868D      		ldd r24,Z+30
 8710 2a0e 8D7F      		andi r24,lo8(-3)
 8711 2a10 868F      		std Z+30,r24
 8712               	.L403:
 8713               	.LM808:
 8714 2a12 E091 0000 		lds r30,Timebase
 8715 2a16 F091 0000 		lds r31,(Timebase)+1
 8716 2a1a 148A      		std Z+20,__zero_reg__
 8717               	/* epilogue start */
 8718               	.LM809:
 8719 2a1c 0895      		ret
 8720               	.LFE148:
 8722               	.global	Timebase_ISR_Executables
 8724               	Timebase_ISR_Executables:
 8725               	.LFB149:
 8726               	.LM810:
 8727               	/* prologue: function */
 8728               	/* frame size = 0 */
 8729               	.LM811:
 8730 2a1e E091 0000 		lds r30,Timebase
 8731 2a22 F091 0000 		lds r31,(Timebase)+1
 8732 2a26 8685      		ldd r24,Z+14
 8733 2a28 9785      		ldd r25,Z+15
 8734 2a2a 0196      		adiw r24,1
 8735 2a2c 9787      		std Z+15,r25
 8736 2a2e 8687      		std Z+14,r24
 8737               	.LM812:
 8738 2a30 868D      		ldd r24,Z+30
 8739 2a32 8460      		ori r24,lo8(4)
 8740 2a34 868F      		std Z+30,r24
 8741               	.LM813:
 8742 2a36 868D      		ldd r24,Z+30
 8743 2a38 8860      		ori r24,lo8(8)
 8744 2a3a 868F      		std Z+30,r24
 8745               	.LM814:
 8746 2a3c 2685      		ldd r18,Z+14
 8747 2a3e 3785      		ldd r19,Z+15
 8748 2a40 8181      		ldd r24,Z+1
 8749 2a42 9281      		ldd r25,Z+2
 8750 2a44 2817      		cp r18,r24
 8751 2a46 3907      		cpc r19,r25
 8752 2a48 00F0      		brlo .L407
 8753               	.LM815:
 8754 2a4a 8089      		ldd r24,Z+16
 8755 2a4c 9189      		ldd r25,Z+17
 8756 2a4e A289      		ldd r26,Z+18
 8757 2a50 B389      		ldd r27,Z+19
 8758 2a52 0196      		adiw r24,1
 8759 2a54 A11D      		adc r26,__zero_reg__
 8760 2a56 B11D      		adc r27,__zero_reg__
 8761 2a58 808B      		std Z+16,r24
 8762 2a5a 918B      		std Z+17,r25
 8763 2a5c A28B      		std Z+18,r26
 8764 2a5e B38B      		std Z+19,r27
 8765               	.LM816:
 8766 2a60 1786      		std Z+15,__zero_reg__
 8767 2a62 1686      		std Z+14,__zero_reg__
 8768               	.LM817:
 8769 2a64 868D      		ldd r24,Z+30
 8770 2a66 8160      		ori r24,lo8(1)
 8771 2a68 868F      		std Z+30,r24
 8772               	.LM818:
 8773 2a6a 868D      		ldd r24,Z+30
 8774 2a6c 8260      		ori r24,lo8(2)
 8775 2a6e 868F      		std Z+30,r24
 8776               	.L407:
 8777 2a70 0895      		ret
 8778               	.LFE149:
 8780               	.global	__vector_16
 8782               	__vector_16:
 8783               	.LFB150:
 8784               	.LM819:
 8785 2a72 1F92      		push __zero_reg__
 8786 2a74 0F92      		push r0
 8787 2a76 0FB6      		in r0,__SREG__
 8788 2a78 0F92      		push r0
 8789 2a7a 1124      		clr __zero_reg__
 8790 2a7c 2F93      		push r18
 8791 2a7e 3F93      		push r19
 8792 2a80 4F93      		push r20
 8793 2a82 5F93      		push r21
 8794 2a84 6F93      		push r22
 8795 2a86 7F93      		push r23
 8796 2a88 8F93      		push r24
 8797 2a8a 9F93      		push r25
 8798 2a8c AF93      		push r26
 8799 2a8e BF93      		push r27
 8800 2a90 EF93      		push r30
 8801 2a92 FF93      		push r31
 8802               	/* prologue: Signal */
 8803               	/* frame size = 0 */
 8804               	.LM820:
 8805 2a94 E091 0000 		lds r30,Timebase
 8806 2a98 F091 0000 		lds r31,(Timebase)+1
 8807 2a9c 8381      		ldd r24,Z+3
 8808 2a9e 86BD      		out 70-32,r24
 8809               	.LM821:
 8810 2aa0 0E94 0000 		call Timebase_ISR_Executables
 8811               	/* epilogue start */
 8812               	.LM822:
 8813 2aa4 FF91      		pop r31
 8814 2aa6 EF91      		pop r30
 8815 2aa8 BF91      		pop r27
 8816 2aaa AF91      		pop r26
 8817 2aac 9F91      		pop r25
 8818 2aae 8F91      		pop r24
 8819 2ab0 7F91      		pop r23
 8820 2ab2 6F91      		pop r22
 8821 2ab4 5F91      		pop r21
 8822 2ab6 4F91      		pop r20
 8823 2ab8 3F91      		pop r19
 8824 2aba 2F91      		pop r18
 8825 2abc 0F90      		pop r0
 8826 2abe 0FBE      		out __SREG__,r0
 8827 2ac0 0F90      		pop r0
 8828 2ac2 1F90      		pop __zero_reg__
 8829 2ac4 1895      		reti
 8830               	.LFE150:
 8832               		.data
 8835               	C.2.1708:
 8836 0000 0100      		.word	1
 8837 0002 0800      		.word	8
 8838 0004 4000      		.word	64
 8839 0006 0001      		.word	256
 8840 0008 0004      		.word	1024
 8841               		.comm Timebase_type,108,1
 8842               		.comm Timebase,2,1
 10019               	.Letext0:
DEFINED SYMBOLS
                            *ABS*:00000000 timebase.c
C:\Users\WALTON\AppData\Local\Temp/cc6UMwKa.s:2      *ABS*:0000003f __SREG__
C:\Users\WALTON\AppData\Local\Temp/cc6UMwKa.s:3      *ABS*:0000003e __SP_H__
C:\Users\WALTON\AppData\Local\Temp/cc6UMwKa.s:4      *ABS*:0000003d __SP_L__
C:\Users\WALTON\AppData\Local\Temp/cc6UMwKa.s:5      *ABS*:00000034 __CCP__
C:\Users\WALTON\AppData\Local\Temp/cc6UMwKa.s:6      *ABS*:00000000 __tmp_reg__
C:\Users\WALTON\AppData\Local\Temp/cc6UMwKa.s:7      *ABS*:00000001 __zero_reg__
C:\Users\WALTON\AppData\Local\Temp/cc6UMwKa.s:18     .text:00000000 Timebase_Struct_Init
                            *COM*:0000006c Timebase_type
                            *COM*:00000002 Timebase
C:\Users\WALTON\AppData\Local\Temp/cc6UMwKa.s:197    .text:000001d6 Timebase_Timer_Config
C:\Users\WALTON\AppData\Local\Temp/cc6UMwKa.s:8835   .data:00000000 C.2.1708
C:\Users\WALTON\AppData\Local\Temp/cc6UMwKa.s:517    .text:00000370 Timebase_Atomic_Operation_Start
C:\Users\WALTON\AppData\Local\Temp/cc6UMwKa.s:535    .text:00000374 Timebase_Atomic_Operation_End
C:\Users\WALTON\AppData\Local\Temp/cc6UMwKa.s:553    .text:00000378 Timebase_Token_Executing
C:\Users\WALTON\AppData\Local\Temp/cc6UMwKa.s:569    .text:00000384 Timebase_Token_Add
C:\Users\WALTON\AppData\Local\Temp/cc6UMwKa.s:595    .text:0000039a Timebase_Token_Remove
C:\Users\WALTON\AppData\Local\Temp/cc6UMwKa.s:621    .text:000003b0 Timebase_Token_Remove_All
C:\Users\WALTON\AppData\Local\Temp/cc6UMwKa.s:637    .text:000003bc Timebase_Timer_Get_SubSecondsShadow
C:\Users\WALTON\AppData\Local\Temp/cc6UMwKa.s:655    .text:000003cc Timebase_Timer_Get_SecondsShadow
C:\Users\WALTON\AppData\Local\Temp/cc6UMwKa.s:676    .text:000003e2 Timebase_Timer_Get_SubSeconds
C:\Users\WALTON\AppData\Local\Temp/cc6UMwKa.s:694    .text:000003f2 Timebase_Timer_Get_Seconds
C:\Users\WALTON\AppData\Local\Temp/cc6UMwKa.s:715    .text:00000408 Timebase_Timer_Set_SubSeconds
C:\Users\WALTON\AppData\Local\Temp/cc6UMwKa.s:733    .text:00000416 Timebase_Timer_Set_Seconds
C:\Users\WALTON\AppData\Local\Temp/cc6UMwKa.s:753    .text:00000428 Timebase_Timer_Sync_With_Shadow_Variables
C:\Users\WALTON\AppData\Local\Temp/cc6UMwKa.s:807    .text:00000458 Timebase_Timer_Delay_SubSeconds
C:\Users\WALTON\AppData\Local\Temp/cc6UMwKa.s:984    .text:00000510 Timebase_Timer_Await_SubSeconds
C:\Users\WALTON\AppData\Local\Temp/cc6UMwKa.s:1146   .text:000005aa Timebase_Timer_Delay_Seconds
C:\Users\WALTON\AppData\Local\Temp/cc6UMwKa.s:1243   .text:000005ec Timebase_Window_Timer_Reset
C:\Users\WALTON\AppData\Local\Temp/cc6UMwKa.s:1269   .text:00000608 Timebase_Window_Timer_Start
C:\Users\WALTON\AppData\Local\Temp/cc6UMwKa.s:1337   .text:00000640 Timebase_Window_Timer_Get_Interval
C:\Users\WALTON\AppData\Local\Temp/cc6UMwKa.s:1453   .text:000006be Timebase_Window_Timer_Get_Interval_Reset
C:\Users\WALTON\AppData\Local\Temp/cc6UMwKa.s:1493   .text:000006e8 Timebase_UpCounter_SS_Get_Status
C:\Users\WALTON\AppData\Local\Temp/cc6UMwKa.s:1527   .text:00000712 Timebase_UpCounter_SS_Set_Status
C:\Users\WALTON\AppData\Local\Temp/cc6UMwKa.s:1565   .text:00000742 Timebase_UpCounter_SS_Get_Value
C:\Users\WALTON\AppData\Local\Temp/cc6UMwKa.s:1608   .text:0000077c Timebase_UpCounter_SS_Set_Value
C:\Users\WALTON\AppData\Local\Temp/cc6UMwKa.s:1658   .text:000007c0 Timebase_UpCounter_SS_Get_EndValueSec
C:\Users\WALTON\AppData\Local\Temp/cc6UMwKa.s:1701   .text:000007fa Timebase_UpCounter_SS_Get_EndValueSubSec
C:\Users\WALTON\AppData\Local\Temp/cc6UMwKa.s:1744   .text:00000834 Timebase_UpCounter_SS_Set_EndValueSec
C:\Users\WALTON\AppData\Local\Temp/cc6UMwKa.s:1779   .text:00000860 Timebase_UpCounter_SS_Set_EndValueSubSec
C:\Users\WALTON\AppData\Local\Temp/cc6UMwKa.s:1814   .text:0000088c Timebase_UpCounter_SS_Get_TargetValue
C:\Users\WALTON\AppData\Local\Temp/cc6UMwKa.s:1857   .text:000008c6 Timebase_UpCounter_SS_Set_TargetValue
C:\Users\WALTON\AppData\Local\Temp/cc6UMwKa.s:1892   .text:000008f2 Timebase_UpCounter_SS_Get_TemporaryValue
C:\Users\WALTON\AppData\Local\Temp/cc6UMwKa.s:1935   .text:0000092c Timebase_UpCounter_SS_Set_TemporaryValue
C:\Users\WALTON\AppData\Local\Temp/cc6UMwKa.s:1985   .text:00000970 Timebase_UpCounter_SS_Get_PeriodValue
C:\Users\WALTON\AppData\Local\Temp/cc6UMwKa.s:2028   .text:000009aa Timebase_UpCounter_SS_Set_PeriodValue
C:\Users\WALTON\AppData\Local\Temp/cc6UMwKa.s:2063   .text:000009d6 Timebase_UpCounter_SS_Get_Period_Flag
C:\Users\WALTON\AppData\Local\Temp/cc6UMwKa.s:2096   .text:000009fe Timebase_UpCounter_SS_Set_Period_Flag
C:\Users\WALTON\AppData\Local\Temp/cc6UMwKa.s:2130   .text:00000a28 Timebase_UpCounter_SS_Clear_Period_Flag
C:\Users\WALTON\AppData\Local\Temp/cc6UMwKa.s:2164   .text:00000a52 Timebase_UpCounter_SS_Reset
C:\Users\WALTON\AppData\Local\Temp/cc6UMwKa.s:2260   .text:00000aac Timebase_UpCounter_SS_Clear_All_Flags
C:\Users\WALTON\AppData\Local\Temp/cc6UMwKa.s:2276   .text:00000ab2 Timebase_UpCounter_SS_Start
C:\Users\WALTON\AppData\Local\Temp/cc6UMwKa.s:2324   .text:00000ae8 Timebase_UpCounter_SS_Stop
C:\Users\WALTON\AppData\Local\Temp/cc6UMwKa.s:2372   .text:00000b1e Timebase_UpCounter_SS_Set_Securely
C:\Users\WALTON\AppData\Local\Temp/cc6UMwKa.s:2644   .text:00000c9a Timebase_UpCounter_SS_Set_Forcefully
C:\Users\WALTON\AppData\Local\Temp/cc6UMwKa.s:2680   .text:00000cc4 Timebase_UpCounter_SS_Update
C:\Users\WALTON\AppData\Local\Temp/cc6UMwKa.s:3226   .text:00000fe2 Timebase_UpCounter_SS_Expired
C:\Users\WALTON\AppData\Local\Temp/cc6UMwKa.s:3266   .text:00001016 Timebase_UpCounter_SS_Expired_Event
C:\Users\WALTON\AppData\Local\Temp/cc6UMwKa.s:3315   .text:00001054 Timebase_UpCounter_SS_Set_Period_Value_Securely
C:\Users\WALTON\AppData\Local\Temp/cc6UMwKa.s:3377   .text:0000109c Timebase_UpCounter_SS_Get_Remaining_Period_Value
C:\Users\WALTON\AppData\Local\Temp/cc6UMwKa.s:3435   .text:000010e8 Timebase_UpCounter_SS_Period_Value_Expired
C:\Users\WALTON\AppData\Local\Temp/cc6UMwKa.s:3527   .text:00001164 Timebase_UpCounter_SS_Period_Value_Expired_Event
C:\Users\WALTON\AppData\Local\Temp/cc6UMwKa.s:3579   .text:000011a4 Timebase_UpCounter_SS_Update_All
C:\Users\WALTON\AppData\Local\Temp/cc6UMwKa.s:3596   .text:000011ac Timebase_UpCounter_SS_Reset_All
C:\Users\WALTON\AppData\Local\Temp/cc6UMwKa.s:3613   .text:000011b4 Timebase_UpCounter_Get_Status
C:\Users\WALTON\AppData\Local\Temp/cc6UMwKa.s:3647   .text:000011de Timebase_UpCounter_Set_Status
C:\Users\WALTON\AppData\Local\Temp/cc6UMwKa.s:3685   .text:0000120e Timebase_UpCounter_Get_Value
C:\Users\WALTON\AppData\Local\Temp/cc6UMwKa.s:3723   .text:0000123e Timebase_UpCounter_Set_Value
C:\Users\WALTON\AppData\Local\Temp/cc6UMwKa.s:3760   .text:0000126e Timebase_UpCounter_Get_EndValueSec
C:\Users\WALTON\AppData\Local\Temp/cc6UMwKa.s:3803   .text:000012a8 Timebase_UpCounter_Get_EndValueSubSec
C:\Users\WALTON\AppData\Local\Temp/cc6UMwKa.s:3846   .text:000012e2 Timebase_UpCounter_Set_EndValueSec
C:\Users\WALTON\AppData\Local\Temp/cc6UMwKa.s:3881   .text:0000130e Timebase_UpCounter_Set_EndValueSubSec
C:\Users\WALTON\AppData\Local\Temp/cc6UMwKa.s:3916   .text:0000133a Timebase_UpCounter_Get_TargetValue
C:\Users\WALTON\AppData\Local\Temp/cc6UMwKa.s:3953   .text:00001368 Timebase_UpCounter_Set_TargetValue
C:\Users\WALTON\AppData\Local\Temp/cc6UMwKa.s:3989   .text:00001396 Timebase_UpCounter_Get_TemporaryValue
C:\Users\WALTON\AppData\Local\Temp/cc6UMwKa.s:4027   .text:000013c6 Timebase_UpCounter_Set_TemporaryValue
C:\Users\WALTON\AppData\Local\Temp/cc6UMwKa.s:4064   .text:000013f6 Timebase_UpCounter_Get_PeriodValue
C:\Users\WALTON\AppData\Local\Temp/cc6UMwKa.s:4102   .text:00001426 Timebase_UpCounter_Set_PeriodValue
C:\Users\WALTON\AppData\Local\Temp/cc6UMwKa.s:4139   .text:00001456 Timebase_UpCounter_Get_Period_Flag
C:\Users\WALTON\AppData\Local\Temp/cc6UMwKa.s:4172   .text:0000147e Timebase_UpCounter_Set_Period_Flag
C:\Users\WALTON\AppData\Local\Temp/cc6UMwKa.s:4206   .text:000014a8 Timebase_UpCounter_Clear_Period_Flag
C:\Users\WALTON\AppData\Local\Temp/cc6UMwKa.s:4240   .text:000014d2 Timebase_UpCounter_Reset
C:\Users\WALTON\AppData\Local\Temp/cc6UMwKa.s:4335   .text:00001534 Timebase_UpCounter_Clear_All_Flags
C:\Users\WALTON\AppData\Local\Temp/cc6UMwKa.s:4351   .text:0000153a Timebase_UpCounter_Start
C:\Users\WALTON\AppData\Local\Temp/cc6UMwKa.s:4399   .text:00001570 Timebase_UpCounter_Stop
C:\Users\WALTON\AppData\Local\Temp/cc6UMwKa.s:4447   .text:000015a6 Timebase_UpCounter_Set_Securely
C:\Users\WALTON\AppData\Local\Temp/cc6UMwKa.s:4546   .text:0000160c Timebase_UpCounter_Set_Forcefully
C:\Users\WALTON\AppData\Local\Temp/cc6UMwKa.s:4582   .text:00001636 Timebase_UpCounter_Update
C:\Users\WALTON\AppData\Local\Temp/cc6UMwKa.s:4763   .text:00001726 Timebase_UpCounter_Expired
C:\Users\WALTON\AppData\Local\Temp/cc6UMwKa.s:4803   .text:0000175a Timebase_UpCounter_Expired_Event
C:\Users\WALTON\AppData\Local\Temp/cc6UMwKa.s:4852   .text:00001798 Timebase_UpCounter_Set_Period_Value_Securely
C:\Users\WALTON\AppData\Local\Temp/cc6UMwKa.s:4927   .text:000017f6 Timebase_UpCounter_Get_Remaining_Period_Value
C:\Users\WALTON\AppData\Local\Temp/cc6UMwKa.s:4991   .text:0000184e Timebase_UpCounter_Period_Value_Expired
C:\Users\WALTON\AppData\Local\Temp/cc6UMwKa.s:5089   .text:000018d6 Timebase_UpCounter_Period_Value_Expired_Event
C:\Users\WALTON\AppData\Local\Temp/cc6UMwKa.s:5141   .text:00001916 Timebase_UpCounter_Update_All
C:\Users\WALTON\AppData\Local\Temp/cc6UMwKa.s:5158   .text:0000191e Timebase_UpCounter_Reset_All
C:\Users\WALTON\AppData\Local\Temp/cc6UMwKa.s:5175   .text:00001926 Timebase_DownCounter_SS_Get_Status
C:\Users\WALTON\AppData\Local\Temp/cc6UMwKa.s:5209   .text:00001950 Timebase_DownCounter_SS_Set_Status
C:\Users\WALTON\AppData\Local\Temp/cc6UMwKa.s:5247   .text:00001980 Timebase_DownCounter_SS_Get_Value
C:\Users\WALTON\AppData\Local\Temp/cc6UMwKa.s:5283   .text:000019ac Timebase_DownCounter_SS_Set_Value
C:\Users\WALTON\AppData\Local\Temp/cc6UMwKa.s:5317   .text:000019d8 Timebase_DownCounter_SS_Get_EndValueSec
C:\Users\WALTON\AppData\Local\Temp/cc6UMwKa.s:5353   .text:00001a04 Timebase_DownCounter_SS_Get_EndValueSubSec
C:\Users\WALTON\AppData\Local\Temp/cc6UMwKa.s:5389   .text:00001a30 Timebase_DownCounter_SS_Set_EndValueSec
C:\Users\WALTON\AppData\Local\Temp/cc6UMwKa.s:5423   .text:00001a5c Timebase_DownCounter_SS_Set_EndValueSubSec
C:\Users\WALTON\AppData\Local\Temp/cc6UMwKa.s:5457   .text:00001a88 Timebase_DownCounter_SS_Get_PeriodValue
C:\Users\WALTON\AppData\Local\Temp/cc6UMwKa.s:5493   .text:00001ab4 Timebase_DownCounter_SS_Set_PeriodValue
C:\Users\WALTON\AppData\Local\Temp/cc6UMwKa.s:5550   .text:00001b08 Timebase_DownCounter_SS_Get_Period_Flag
C:\Users\WALTON\AppData\Local\Temp/cc6UMwKa.s:5583   .text:00001b30 Timebase_DownCounter_SS_Set_Period_Flag
C:\Users\WALTON\AppData\Local\Temp/cc6UMwKa.s:5617   .text:00001b5a Timebase_DownCounter_SS_Clear_Period_Flag
C:\Users\WALTON\AppData\Local\Temp/cc6UMwKa.s:5651   .text:00001b84 Timebase_DownCounter_SS_Reset
C:\Users\WALTON\AppData\Local\Temp/cc6UMwKa.s:5722   .text:00001bca Timebase_DownCounter_SS_Clear_All_Flags
C:\Users\WALTON\AppData\Local\Temp/cc6UMwKa.s:5797   .text:00001c10 Timebase_DownCounter_SS_Start
C:\Users\WALTON\AppData\Local\Temp/cc6UMwKa.s:5845   .text:00001c46 Timebase_DownCounter_SS_Stop
C:\Users\WALTON\AppData\Local\Temp/cc6UMwKa.s:5893   .text:00001c7c Timebase_DownCounter_SS_Set_Securely
C:\Users\WALTON\AppData\Local\Temp/cc6UMwKa.s:6155   .text:00001df8 Timebase_DownCounter_SS_Set_Forcefully
C:\Users\WALTON\AppData\Local\Temp/cc6UMwKa.s:6233   .text:00001e44 Timebase_DownCounter_SS_Update
C:\Users\WALTON\AppData\Local\Temp/cc6UMwKa.s:6552   .text:00001fe4 Timebase_DownCounter_SS_Expired
C:\Users\WALTON\AppData\Local\Temp/cc6UMwKa.s:6592   .text:00002018 Timebase_DownCounter_SS_Expired_Event
C:\Users\WALTON\AppData\Local\Temp/cc6UMwKa.s:6687   .text:00002072 Timebase_DownCounter_SS_Set_Period_Value_Securely
C:\Users\WALTON\AppData\Local\Temp/cc6UMwKa.s:6784   .text:000020f2 Timebase_DownCounter_SS_Get_Remaining_Period_Value
C:\Users\WALTON\AppData\Local\Temp/cc6UMwKa.s:6846   .text:00002146 Timebase_DownCounter_SS_Period_Value_Expired
C:\Users\WALTON\AppData\Local\Temp/cc6UMwKa.s:6943   .text:000021cc Timebase_DownCounter_SS_Period_Value_Expired_Event
C:\Users\WALTON\AppData\Local\Temp/cc6UMwKa.s:6995   .text:0000220c Timebase_DownCounter_SS_Update_All
C:\Users\WALTON\AppData\Local\Temp/cc6UMwKa.s:7012   .text:00002214 Timebase_DownCounter_SS_Reset_All
C:\Users\WALTON\AppData\Local\Temp/cc6UMwKa.s:7076   .text:00002244 Timebase_DownCounter_Get_Status
C:\Users\WALTON\AppData\Local\Temp/cc6UMwKa.s:7112   .text:00002272 Timebase_DownCounter_Set_Status
C:\Users\WALTON\AppData\Local\Temp/cc6UMwKa.s:7152   .text:000022a6 Timebase_DownCounter_Get_Value
C:\Users\WALTON\AppData\Local\Temp/cc6UMwKa.s:7190   .text:000022d6 Timebase_DownCounter_Set_Value
C:\Users\WALTON\AppData\Local\Temp/cc6UMwKa.s:7227   .text:00002306 Timebase_DownCounter_Get_EndValue
C:\Users\WALTON\AppData\Local\Temp/cc6UMwKa.s:7265   .text:00002336 Timebase_DownCounter_Set_EndValue
C:\Users\WALTON\AppData\Local\Temp/cc6UMwKa.s:7302   .text:00002366 Timebase_DownCounter_Get_PeriodValue
C:\Users\WALTON\AppData\Local\Temp/cc6UMwKa.s:7340   .text:00002396 Timebase_DownCounter_Set_PeriodValue
C:\Users\WALTON\AppData\Local\Temp/cc6UMwKa.s:7402   .text:000023f2 Timebase_DownCounter_Get_Period_Flag
C:\Users\WALTON\AppData\Local\Temp/cc6UMwKa.s:7437   .text:0000241e Timebase_DownCounter_Set_Period_Flag
C:\Users\WALTON\AppData\Local\Temp/cc6UMwKa.s:7473   .text:0000244c Timebase_DownCounter_Clear_Period_Flag
C:\Users\WALTON\AppData\Local\Temp/cc6UMwKa.s:7509   .text:0000247a Timebase_DownCounter_Reset
C:\Users\WALTON\AppData\Local\Temp/cc6UMwKa.s:7572   .text:000024ba Timebase_DownCounter_Clear_All_Flags
C:\Users\WALTON\AppData\Local\Temp/cc6UMwKa.s:7639   .text:000024fa Timebase_DownCounter_Start
C:\Users\WALTON\AppData\Local\Temp/cc6UMwKa.s:7689   .text:00002534 Timebase_DownCounter_Stop
C:\Users\WALTON\AppData\Local\Temp/cc6UMwKa.s:7739   .text:0000256e Timebase_DownCounter_Set_Securely
C:\Users\WALTON\AppData\Local\Temp/cc6UMwKa.s:7839   .text:000025e0 Timebase_DownCounter_Set_Forcefully
C:\Users\WALTON\AppData\Local\Temp/cc6UMwKa.s:7913   .text:0000262e Timebase_DownCounter_Update
C:\Users\WALTON\AppData\Local\Temp/cc6UMwKa.s:8080   .text:000026f8 Timebase_DownCounter_Expired
C:\Users\WALTON\AppData\Local\Temp/cc6UMwKa.s:8122   .text:00002730 Timebase_DownCounter_Expired_Event
C:\Users\WALTON\AppData\Local\Temp/cc6UMwKa.s:8209   .text:00002784 Timebase_DownCounter_Set_Period_Value_Securely
C:\Users\WALTON\AppData\Local\Temp/cc6UMwKa.s:8308   .text:00002808 Timebase_DownCounter_Get_Remaining_Period_Value
C:\Users\WALTON\AppData\Local\Temp/cc6UMwKa.s:8372   .text:00002860 Timebase_DownCounter_Period_Value_Expired
C:\Users\WALTON\AppData\Local\Temp/cc6UMwKa.s:8472   .text:000028ec Timebase_DownCounter_Period_Value_Expired_Event
C:\Users\WALTON\AppData\Local\Temp/cc6UMwKa.s:8526   .text:00002930 Timebase_DownCounter_Update_All
C:\Users\WALTON\AppData\Local\Temp/cc6UMwKa.s:8543   .text:00002938 Timebase_DownCounter_Reset_All
C:\Users\WALTON\AppData\Local\Temp/cc6UMwKa.s:8597   .text:0000295e Timebase_Reset
C:\Users\WALTON\AppData\Local\Temp/cc6UMwKa.s:8615   .text:0000296c Timebase_Init
C:\Users\WALTON\AppData\Local\Temp/cc6UMwKa.s:8642   .text:00002986 Timebase_Main_Loop_Executables
C:\Users\WALTON\AppData\Local\Temp/cc6UMwKa.s:8724   .text:00002a1e Timebase_ISR_Executables
C:\Users\WALTON\AppData\Local\Temp/cc6UMwKa.s:8782   .text:00002a72 __vector_16

UNDEFINED SYMBOLS
__divmodsi4
__mulsi3
__do_copy_data
__do_clear_bss
