   1               		.file	"timebase.c"
   2               	__SREG__ = 0x3f
   3               	__SP_H__ = 0x3e
   4               	__SP_L__ = 0x3d
   5               	__CCP__  = 0x34
   6               	__tmp_reg__ = 0
   7               	__zero_reg__ = 1
  15               	.Ltext0:
  16               	.global	Timebase_Struct_Init
  18               	Timebase_Struct_Init:
  19               	.LFB6:
  20               	.LM1:
  21               	/* prologue: function */
  22               	/* frame size = 0 */
  23               	.LM2:
  24 0000 80E0      		ldi r24,lo8(Timebase_type)
  25 0002 90E0      		ldi r25,hi8(Timebase_type)
  26 0004 9093 0000 		sts (Timebase)+1,r25
  27 0008 8093 0000 		sts Timebase,r24
  28               	.LM3:
  29 000c 1092 0000 		sts Timebase_type,__zero_reg__
  30               	.LM4:
  31 0010 8091 0000 		lds r24,Timebase_type
  32 0014 8460      		ori r24,lo8(4)
  33 0016 8093 0000 		sts Timebase_type,r24
  34               	.LM5:
  35 001a 8091 0000 		lds r24,Timebase_type
  36 001e 8770      		andi r24,lo8(7)
  37 0020 8093 0000 		sts Timebase_type,r24
  38               	.LM6:
  39 0024 81E0      		ldi r24,lo8(1)
  40 0026 90E0      		ldi r25,hi8(1)
  41 0028 9093 0000 		sts (Timebase_type+1)+1,r25
  42 002c 8093 0000 		sts Timebase_type+1,r24
  43               	.LM7:
  44 0030 1092 0000 		sts Timebase_type+3,__zero_reg__
  45               	.LM8:
  46 0034 1092 0000 		sts (Timebase_type+8)+1,__zero_reg__
  47 0038 1092 0000 		sts Timebase_type+8,__zero_reg__
  48               	.LM9:
  49 003c 1092 0000 		sts Timebase_type+10,__zero_reg__
  50 0040 1092 0000 		sts (Timebase_type+10)+1,__zero_reg__
  51 0044 1092 0000 		sts (Timebase_type+10)+2,__zero_reg__
  52 0048 1092 0000 		sts (Timebase_type+10)+3,__zero_reg__
  53               	.LM10:
  54 004c 1092 0000 		sts Timebase_type+4,__zero_reg__
  55 0050 1092 0000 		sts (Timebase_type+4)+1,__zero_reg__
  56 0054 1092 0000 		sts (Timebase_type+4)+2,__zero_reg__
  57 0058 1092 0000 		sts (Timebase_type+4)+3,__zero_reg__
  58               	.LM11:
  59 005c 1092 0000 		sts Timebase_type+14,__zero_reg__
  60 0060 1092 0000 		sts (Timebase_type+14)+1,__zero_reg__
  61 0064 1092 0000 		sts (Timebase_type+14)+2,__zero_reg__
  62 0068 1092 0000 		sts (Timebase_type+14)+3,__zero_reg__
  63               	.LM12:
  64 006c 1092 0000 		sts Timebase_type+18,__zero_reg__
  65 0070 1092 0000 		sts (Timebase_type+18)+1,__zero_reg__
  66 0074 1092 0000 		sts (Timebase_type+18)+2,__zero_reg__
  67 0078 1092 0000 		sts (Timebase_type+18)+3,__zero_reg__
  68               	.LM13:
  69 007c 1092 0000 		sts Timebase_type+22,__zero_reg__
  70               	.LM14:
  71 0080 1092 0000 		sts Timebase_type+23,__zero_reg__
  72               	.LM15:
  73 0084 1092 0000 		sts Timebase_type+24,__zero_reg__
  74               	.LBB417:
  75               	.LM16:
  76 0088 1092 0000 		sts Timebase_type+42,__zero_reg__
  77               	.LM17:
  78 008c 1092 0000 		sts Timebase_type+43,__zero_reg__
  79 0090 1092 0000 		sts (Timebase_type+43)+1,__zero_reg__
  80 0094 1092 0000 		sts (Timebase_type+43)+2,__zero_reg__
  81 0098 1092 0000 		sts (Timebase_type+43)+3,__zero_reg__
  82               	.LM18:
  83 009c 1092 0000 		sts Timebase_type+47,__zero_reg__
  84 00a0 1092 0000 		sts (Timebase_type+47)+1,__zero_reg__
  85 00a4 1092 0000 		sts (Timebase_type+47)+2,__zero_reg__
  86 00a8 1092 0000 		sts (Timebase_type+47)+3,__zero_reg__
  87               	.LM19:
  88 00ac 1092 0000 		sts Timebase_type+51,__zero_reg__
  89 00b0 1092 0000 		sts (Timebase_type+51)+1,__zero_reg__
  90 00b4 1092 0000 		sts (Timebase_type+51)+2,__zero_reg__
  91 00b8 1092 0000 		sts (Timebase_type+51)+3,__zero_reg__
  92               	.LBE417:
  93               	.LBB418:
  94               	.LM20:
  95 00bc 1092 0000 		sts Timebase_type+25,__zero_reg__
  96               	.LM21:
  97 00c0 1092 0000 		sts Timebase_type+26,__zero_reg__
  98 00c4 1092 0000 		sts (Timebase_type+26)+1,__zero_reg__
  99 00c8 1092 0000 		sts (Timebase_type+26)+2,__zero_reg__
 100 00cc 1092 0000 		sts (Timebase_type+26)+3,__zero_reg__
 101               	.LM22:
 102 00d0 1092 0000 		sts Timebase_type+30,__zero_reg__
 103 00d4 1092 0000 		sts (Timebase_type+30)+1,__zero_reg__
 104 00d8 1092 0000 		sts (Timebase_type+30)+2,__zero_reg__
 105 00dc 1092 0000 		sts (Timebase_type+30)+3,__zero_reg__
 106               	.LM23:
 107 00e0 1092 0000 		sts Timebase_type+34,__zero_reg__
 108 00e4 1092 0000 		sts (Timebase_type+34)+1,__zero_reg__
 109 00e8 1092 0000 		sts (Timebase_type+34)+2,__zero_reg__
 110 00ec 1092 0000 		sts (Timebase_type+34)+3,__zero_reg__
 111               	.LM24:
 112 00f0 1092 0000 		sts Timebase_type+38,__zero_reg__
 113 00f4 1092 0000 		sts (Timebase_type+38)+1,__zero_reg__
 114 00f8 1092 0000 		sts (Timebase_type+38)+2,__zero_reg__
 115 00fc 1092 0000 		sts (Timebase_type+38)+3,__zero_reg__
 116               	/* epilogue start */
 117               	.LBE418:
 118               	.LM25:
 119 0100 0895      		ret
 120               	.LFE6:
 122               	.global	Timebase_Timer_Config
 124               	Timebase_Timer_Config:
 125               	.LFB7:
 126               	.LM26:
 127               	.LVL0:
 128 0102 7F92      		push r7
 129 0104 8F92      		push r8
 130 0106 9F92      		push r9
 131 0108 AF92      		push r10
 132 010a BF92      		push r11
 133 010c CF92      		push r12
 134 010e DF92      		push r13
 135 0110 EF92      		push r14
 136 0112 FF92      		push r15
 137 0114 0F93      		push r16
 138 0116 1F93      		push r17
 139 0118 DF93      		push r29
 140 011a CF93      		push r28
 141 011c CDB7      		in r28,__SP_L__
 142 011e DEB7      		in r29,__SP_H__
 143 0120 2A97      		sbiw r28,10
 144 0122 0FB6      		in __tmp_reg__,__SREG__
 145 0124 F894      		cli
 146 0126 DEBF      		out __SP_H__,r29
 147 0128 0FBE      		out __SREG__,__tmp_reg__
 148 012a CDBF      		out __SP_L__,r28
 149               	/* prologue: function */
 150               	/* frame size = 10 */
 151 012c 8C01      		movw r16,r24
 152               	.LM27:
 153 012e C090 0000 		lds r12,Timebase
 154 0132 D090 0000 		lds r13,(Timebase)+1
 155 0136 F601      		movw r30,r12
 156 0138 8081      		ld r24,Z
 157               	.LVL1:
 158 013a 80FF      		sbrs r24,0
 159 013c 00C0      		rjmp .L4
 160               	.LBB419:
 161               	.LM28:
 162 013e 0130      		cpi r16,1
 163 0140 1105      		cpc r17,__zero_reg__
 164 0142 01F4      		brne .L5
 165 0144 96E0      		ldi r25,lo8(6)
 166               	.LVL2:
 167 0146 00C0      		rjmp .L6
 168               	.LVL3:
 169               	.L5:
 170               	.LM29:
 171 0148 0230      		cpi r16,2
 172 014a 1105      		cpc r17,__zero_reg__
 173 014c 01F4      		brne .L7
 174 014e 95E0      		ldi r25,lo8(5)
 175               	.LVL4:
 176 0150 00C0      		rjmp .L6
 177               	.LVL5:
 178               	.L7:
 179               	.LM30:
 180 0152 0430      		cpi r16,4
 181 0154 1105      		cpc r17,__zero_reg__
 182 0156 01F4      		brne .L8
 183 0158 94E0      		ldi r25,lo8(4)
 184               	.LVL6:
 185 015a 00C0      		rjmp .L6
 186               	.LVL7:
 187               	.L8:
 188               	.LM31:
 189 015c 0830      		cpi r16,8
 190 015e 1105      		cpc r17,__zero_reg__
 191 0160 01F4      		brne .L9
 192 0162 93E0      		ldi r25,lo8(3)
 193               	.LVL8:
 194 0164 00C0      		rjmp .L6
 195               	.LVL9:
 196               	.L9:
 197               	.LM32:
 198 0166 0031      		cpi r16,16
 199 0168 1105      		cpc r17,__zero_reg__
 200 016a 01F4      		brne .L10
 201 016c 92E0      		ldi r25,lo8(2)
 202               	.LVL10:
 203 016e 00C0      		rjmp .L6
 204               	.LVL11:
 205               	.L10:
 206 0170 90E0      		ldi r25,lo8(0)
 207               	.LVL12:
 208 0172 0032      		cpi r16,32
 209 0174 1105      		cpc r17,__zero_reg__
 210 0176 01F4      		brne .L6
 211 0178 91E0      		ldi r25,lo8(1)
 212               	.L6:
 213               	.LM33:
 214               	/* #APP */
 215               	 ;  256 "timebase.c" 1
 216 017a F894      		cli
 217               	 ;  0 "" 2
 218               	.LM34:
 219               	/* #NOAPP */
 220 017c 84B7      		in r24,84-32
 221 017e 877F      		andi r24,lo8(-9)
 222 0180 84BF      		out 84-32,r24
 223               	.LM35:
 224 0182 8091 6000 		lds r24,96
 225 0186 8068      		ori r24,lo8(-128)
 226 0188 8093 6000 		sts 96,r24
 227               	.LM36:
 228 018c 8091 6000 		lds r24,96
 229 0190 8861      		ori r24,lo8(24)
 230 0192 8093 6000 		sts 96,r24
 231               	.LM37:
 232 0196 9064      		ori r25,lo8(64)
 233 0198 9093 6000 		sts 96,r25
 234               	.LM38:
 235               	/* #APP */
 236               	 ;  261 "timebase.c" 1
 237 019c 7894      		sei
 238               	 ;  0 "" 2
 239               	/* #NOAPP */
 240 019e 00C0      		rjmp .L12
 241               	.LVL13:
 242               	.L4:
 243               	.LBE419:
 244               	.LM39:
 245 01a0 81FD      		sbrc r24,1
 246 01a2 00C0      		rjmp .L12
 247               	.LM40:
 248 01a4 82FF      		sbrs r24,2
 249 01a6 00C0      		rjmp .L12
 250               	.LBB420:
 251               	.LM41:
 252 01a8 DE01      		movw r26,r28
 253 01aa 1196      		adiw r26,1
 254 01ac E0E0      		ldi r30,lo8(C.2.1585)
 255 01ae F0E0      		ldi r31,hi8(C.2.1585)
 256 01b0 8AE0      		ldi r24,lo8(10)
 257               	.L13:
 258 01b2 0190      		ld r0,Z+
 259 01b4 0D92      		st X+,r0
 260 01b6 8150      		subi r24,lo8(-(-1))
 261 01b8 01F4      		brne .L13
 262               	.LM42:
 263 01ba 9801      		movw r18,r16
 264 01bc 40E0      		ldi r20,lo8(0)
 265 01be 50E0      		ldi r21,hi8(0)
 266               	.LVL14:
 267 01c0 60E0      		ldi r22,lo8(12000000)
 268 01c2 7BE1      		ldi r23,hi8(12000000)
 269 01c4 87EB      		ldi r24,hlo8(12000000)
 270 01c6 90E0      		ldi r25,hhi8(12000000)
 271 01c8 0E94 0000 		call __divmodsi4
 272 01cc 722E      		mov r7,r18
 273 01ce 832E      		mov r8,r19
 274 01d0 942E      		mov r9,r20
 275               	.LVL15:
 276 01d2 E52E      		mov r14,r21
 277 01d4 5E01      		movw r10,r28
 278 01d6 0894      		sec
 279 01d8 A11C      		adc r10,__zero_reg__
 280 01da B11C      		adc r11,__zero_reg__
 281 01dc C901      		movw r24,r18
 282 01de DA01      		movw r26,r20
 283 01e0 9C01      		movw r18,r24
 284 01e2 AD01      		movw r20,r26
 285               	.LVL16:
 286 01e4 FF24      		clr r15
 287               	.LVL17:
 288 01e6 00C0      		rjmp .L14
 289               	.LVL18:
 290               	.L16:
 291               	.LM43:
 292 01e8 F501      		movw r30,r10
 293 01ea 2191      		ld r18,Z+
 294 01ec 3191      		ld r19,Z+
 295               	.LVL19:
 296 01ee 5F01      		movw r10,r30
 297 01f0 40E0      		ldi r20,lo8(0)
 298 01f2 50E0      		ldi r21,hi8(0)
 299 01f4 672D      		mov r22,r7
 300 01f6 782D      		mov r23,r8
 301 01f8 892D      		mov r24,r9
 302               	.LVL20:
 303 01fa 9E2D      		mov r25,r14
 304 01fc 0E94 0000 		call __divmodsi4
 305 0200 C901      		movw r24,r18
 306 0202 DA01      		movw r26,r20
 307 0204 9C01      		movw r18,r24
 308 0206 AD01      		movw r20,r26
 309               	.LVL21:
 310               	.LM44:
 311 0208 F394      		inc r15
 312               	.LM45:
 313 020a F5E0      		ldi r31,lo8(5)
 314 020c FF16      		cp r15,r31
 315 020e 01F0      		breq .L15
 316               	.LVL22:
 317               	.L14:
 318               	.LM46:
 319 0210 2F3F      		cpi r18,lo8(255)
 320 0212 3105      		cpc r19,__zero_reg__
 321 0214 4105      		cpc r20,__zero_reg__
 322 0216 5105      		cpc r21,__zero_reg__
 323 0218 01F0      		breq .+2
 324 021a 04F4      		brge .L16
 325               	.L15:
 326               	.LM47:
 327 021c 8F2D      		mov r24,r15
 328 021e 8150      		subi r24,lo8(-(-1))
 329               	.LVL23:
 330               	.LM48:
 331 0220 14BC      		out 68-32,__zero_reg__
 332               	.LM49:
 333 0222 15BC      		out 69-32,__zero_reg__
 334               	.LM50:
 335 0224 1092 6E00 		sts 110,__zero_reg__
 336               	.LM51:
 337 0228 15BA      		out 53-32,__zero_reg__
 338               	.LM52:
 339 022a 17BC      		out 71-32,__zero_reg__
 340               	.LM53:
 341 022c 18BC      		out 72-32,__zero_reg__
 342               	.LM54:
 343 022e 16BC      		out 70-32,__zero_reg__
 344               	.LM55:
 345 0230 17BC      		out 71-32,__zero_reg__
 346               	.LM56:
 347 0232 8823      		tst r24
 348 0234 01F4      		brne .L17
 349               	.LM57:
 350 0236 81E0      		ldi r24,lo8(1)
 351               	.LVL24:
 352 0238 00C0      		rjmp .L24
 353               	.LVL25:
 354               	.L17:
 355               	.LM58:
 356 023a 8130      		cpi r24,lo8(1)
 357 023c 01F4      		brne .L19
 358               	.LM59:
 359 023e 82E0      		ldi r24,lo8(2)
 360               	.LVL26:
 361 0240 00C0      		rjmp .L24
 362               	.LVL27:
 363               	.L19:
 364               	.LM60:
 365 0242 8230      		cpi r24,lo8(2)
 366 0244 01F4      		brne .L20
 367               	.LM61:
 368 0246 83E0      		ldi r24,lo8(3)
 369               	.LVL28:
 370 0248 00C0      		rjmp .L24
 371               	.LVL29:
 372               	.L20:
 373               	.LM62:
 374 024a 8330      		cpi r24,lo8(3)
 375 024c 01F4      		brne .L21
 376               	.LM63:
 377 024e 84E0      		ldi r24,lo8(4)
 378               	.LVL30:
 379 0250 00C0      		rjmp .L24
 380               	.LVL31:
 381               	.L21:
 382               	.LM64:
 383 0252 8430      		cpi r24,lo8(4)
 384 0254 01F4      		brne .L18
 385               	.LM65:
 386 0256 85E0      		ldi r24,lo8(5)
 387               	.LVL32:
 388               	.L24:
 389 0258 85BD      		out 69-32,r24
 390               	.LVL33:
 391               	.L18:
 392               	.LM66:
 393 025a 822F      		mov r24,r18
 394               	.LVL34:
 395 025c 8095      		com r24
 396 025e F601      		movw r30,r12
 397 0260 8383      		std Z+3,r24
 398               	.LM67:
 399 0262 8381      		ldd r24,Z+3
 400 0264 86BD      		out 70-32,r24
 401               	.LM68:
 402 0266 81E0      		ldi r24,lo8(1)
 403 0268 8093 6E00 		sts 110,r24
 404               	.LM69:
 405               	/* #APP */
 406               	 ;  309 "timebase.c" 1
 407 026c 7894      		sei
 408               	 ;  0 "" 2
 409               	.LVL35:
 410               	/* #NOAPP */
 411               	.L12:
 412               	.LBE420:
 413               	.LM70:
 414 026e F601      		movw r30,r12
 415 0270 1283      		std Z+2,r17
 416 0272 0183      		std Z+1,r16
 417               	/* epilogue start */
 418               	.LM71:
 419 0274 2A96      		adiw r28,10
 420 0276 0FB6      		in __tmp_reg__,__SREG__
 421 0278 F894      		cli
 422 027a DEBF      		out __SP_H__,r29
 423 027c 0FBE      		out __SREG__,__tmp_reg__
 424 027e CDBF      		out __SP_L__,r28
 425 0280 CF91      		pop r28
 426 0282 DF91      		pop r29
 427 0284 1F91      		pop r17
 428 0286 0F91      		pop r16
 429               	.LVL36:
 430 0288 FF90      		pop r15
 431 028a EF90      		pop r14
 432 028c DF90      		pop r13
 433 028e CF90      		pop r12
 434 0290 BF90      		pop r11
 435 0292 AF90      		pop r10
 436 0294 9F90      		pop r9
 437 0296 8F90      		pop r8
 438 0298 7F90      		pop r7
 439 029a 0895      		ret
 440               	.LFE7:
 442               	.global	Timebase_Atomic_Operation_Start
 444               	Timebase_Atomic_Operation_Start:
 445               	.LFB8:
 446               	.LM72:
 447               	/* prologue: function */
 448               	/* frame size = 0 */
 449               	.LM73:
 450               	/* #APP */
 451               	 ;  329 "timebase.c" 1
 452 029c F894      		cli
 453               	 ;  0 "" 2
 454               	/* epilogue start */
 455               	.LM74:
 456               	/* #NOAPP */
 457 029e 0895      		ret
 458               	.LFE8:
 460               	.global	Timebase_Atomic_Operation_End
 462               	Timebase_Atomic_Operation_End:
 463               	.LFB9:
 464               	.LM75:
 465               	/* prologue: function */
 466               	/* frame size = 0 */
 467               	.LM76:
 468               	/* #APP */
 469               	 ;  333 "timebase.c" 1
 470 02a0 7894      		sei
 471               	 ;  0 "" 2
 472               	/* epilogue start */
 473               	.LM77:
 474               	/* #NOAPP */
 475 02a2 0895      		ret
 476               	.LFE9:
 478               	.global	Timebase_Token_Executing
 480               	Timebase_Token_Executing:
 481               	.LFB10:
 482               	.LM78:
 483               	/* prologue: function */
 484               	/* frame size = 0 */
 485               	.LM79:
 486 02a4 E091 0000 		lds r30,Timebase
 487 02a8 F091 0000 		lds r31,(Timebase)+1
 488 02ac 808D      		ldd r24,Z+24
 489               	/* epilogue start */
 490               	.LM80:
 491 02ae 0895      		ret
 492               	.LFE10:
 494               	.global	Timebase_Token_Add
 496               	Timebase_Token_Add:
 497               	.LFB11:
 498               	.LM81:
 499               	/* prologue: function */
 500               	/* frame size = 0 */
 501               	.LBB421:
 502               	.LBB422:
 503               	.LM82:
 504 02b0 E091 0000 		lds r30,Timebase
 505 02b4 F091 0000 		lds r31,(Timebase)+1
 506 02b8 808D      		ldd r24,Z+24
 507               	.LBE422:
 508               	.LBE421:
 509               	.LM83:
 510 02ba 8F33      		cpi r24,lo8(63)
 511 02bc 00F4      		brsh .L33
 512               	.LM84:
 513 02be 808D      		ldd r24,Z+24
 514 02c0 8F5F      		subi r24,lo8(-(1))
 515 02c2 808F      		std Z+24,r24
 516               	.L33:
 517 02c4 0895      		ret
 518               	.LFE11:
 520               	.global	Timebase_Token_Remove
 522               	Timebase_Token_Remove:
 523               	.LFB12:
 524               	.LM85:
 525               	/* prologue: function */
 526               	/* frame size = 0 */
 527               	.LBB423:
 528               	.LBB424:
 529               	.LM86:
 530 02c6 E091 0000 		lds r30,Timebase
 531 02ca F091 0000 		lds r31,(Timebase)+1
 532 02ce 808D      		ldd r24,Z+24
 533               	.LBE424:
 534               	.LBE423:
 535               	.LM87:
 536 02d0 8823      		tst r24
 537 02d2 01F0      		breq .L36
 538               	.LM88:
 539 02d4 808D      		ldd r24,Z+24
 540 02d6 8150      		subi r24,lo8(-(-1))
 541 02d8 808F      		std Z+24,r24
 542               	.L36:
 543 02da 0895      		ret
 544               	.LFE12:
 546               	.global	Timebase_Token_Remove_All
 548               	Timebase_Token_Remove_All:
 549               	.LFB13:
 550               	.LM89:
 551               	/* prologue: function */
 552               	/* frame size = 0 */
 553               	.LM90:
 554 02dc E091 0000 		lds r30,Timebase
 555 02e0 F091 0000 		lds r31,(Timebase)+1
 556 02e4 108E      		std Z+24,__zero_reg__
 557               	/* epilogue start */
 558               	.LM91:
 559 02e6 0895      		ret
 560               	.LFE13:
 562               	.global	Timebase_Timer_Get_SubSeconds
 564               	Timebase_Timer_Get_SubSeconds:
 565               	.LFB14:
 566               	.LM92:
 567               	/* prologue: function */
 568               	/* frame size = 0 */
 569               	.LBB425:
 570               	.LBB426:
 571               	.LM93:
 572               	/* #APP */
 573               	 ;  329 "timebase.c" 1
 574 02e8 F894      		cli
 575               	 ;  0 "" 2
 576               	/* #NOAPP */
 577               	.LBE426:
 578               	.LBE425:
 579               	.LM94:
 580 02ea E091 0000 		lds r30,Timebase
 581 02ee F091 0000 		lds r31,(Timebase)+1
 582 02f2 2085      		ldd r18,Z+8
 583 02f4 3185      		ldd r19,Z+9
 584               	.LVL37:
 585               	.LBB427:
 586               	.LBB428:
 587               	.LM95:
 588               	/* #APP */
 589               	 ;  333 "timebase.c" 1
 590 02f6 7894      		sei
 591               	 ;  0 "" 2
 592               	/* #NOAPP */
 593               	.LBE428:
 594               	.LBE427:
 595               	.LM96:
 596 02f8 C901      		movw r24,r18
 597               	.LVL38:
 598               	/* epilogue start */
 599 02fa 0895      		ret
 600               	.LFE14:
 602               	.global	Timebase_Timer_Get_Seconds
 604               	Timebase_Timer_Get_Seconds:
 605               	.LFB15:
 606               	.LM97:
 607               	/* prologue: function */
 608               	/* frame size = 0 */
 609               	.LBB429:
 610               	.LBB430:
 611               	.LM98:
 612               	/* #APP */
 613               	 ;  329 "timebase.c" 1
 614 02fc F894      		cli
 615               	 ;  0 "" 2
 616               	/* #NOAPP */
 617               	.LBE430:
 618               	.LBE429:
 619               	.LM99:
 620 02fe E091 0000 		lds r30,Timebase
 621 0302 F091 0000 		lds r31,(Timebase)+1
 622 0306 2285      		ldd r18,Z+10
 623 0308 3385      		ldd r19,Z+11
 624 030a 4485      		ldd r20,Z+12
 625 030c 5585      		ldd r21,Z+13
 626               	.LVL39:
 627               	.LBB431:
 628               	.LBB432:
 629               	.LM100:
 630               	/* #APP */
 631               	 ;  333 "timebase.c" 1
 632 030e 7894      		sei
 633               	 ;  0 "" 2
 634               	/* #NOAPP */
 635               	.LBE432:
 636               	.LBE431:
 637               	.LM101:
 638 0310 B901      		movw r22,r18
 639               	.LVL40:
 640 0312 CA01      		movw r24,r20
 641               	/* epilogue start */
 642 0314 0895      		ret
 643               	.LFE15:
 645               	.global	Timebase_Timer_Set_SubSeconds
 647               	Timebase_Timer_Set_SubSeconds:
 648               	.LFB16:
 649               	.LM102:
 650               	.LVL41:
 651               	/* prologue: function */
 652               	/* frame size = 0 */
 653               	.LBB433:
 654               	.LBB434:
 655               	.LM103:
 656               	/* #APP */
 657               	 ;  329 "timebase.c" 1
 658 0316 F894      		cli
 659               	 ;  0 "" 2
 660               	/* #NOAPP */
 661               	.LBE434:
 662               	.LBE433:
 663               	.LM104:
 664 0318 E091 0000 		lds r30,Timebase
 665 031c F091 0000 		lds r31,(Timebase)+1
 666 0320 9187      		std Z+9,r25
 667 0322 8087      		std Z+8,r24
 668               	.LBB435:
 669               	.LBB436:
 670               	.LM105:
 671               	/* #APP */
 672               	 ;  333 "timebase.c" 1
 673 0324 7894      		sei
 674               	 ;  0 "" 2
 675               	/* epilogue start */
 676               	/* #NOAPP */
 677               	.LBE436:
 678               	.LBE435:
 679               	.LM106:
 680 0326 0895      		ret
 681               	.LFE16:
 683               	.global	Timebase_Timer_Set_Seconds
 685               	Timebase_Timer_Set_Seconds:
 686               	.LFB17:
 687               	.LM107:
 688               	.LVL42:
 689               	/* prologue: function */
 690               	/* frame size = 0 */
 691               	.LBB437:
 692               	.LBB438:
 693               	.LM108:
 694               	/* #APP */
 695               	 ;  329 "timebase.c" 1
 696 0328 F894      		cli
 697               	 ;  0 "" 2
 698               	/* #NOAPP */
 699               	.LBE438:
 700               	.LBE437:
 701               	.LM109:
 702 032a E091 0000 		lds r30,Timebase
 703 032e F091 0000 		lds r31,(Timebase)+1
 704 0332 6287      		std Z+10,r22
 705 0334 7387      		std Z+11,r23
 706 0336 8487      		std Z+12,r24
 707 0338 9587      		std Z+13,r25
 708               	.LBB439:
 709               	.LBB440:
 710               	.LM110:
 711               	/* #APP */
 712               	 ;  333 "timebase.c" 1
 713 033a 7894      		sei
 714               	 ;  0 "" 2
 715               	/* epilogue start */
 716               	/* #NOAPP */
 717               	.LBE440:
 718               	.LBE439:
 719               	.LM111:
 720 033c 0895      		ret
 721               	.LFE17:
 723               	.global	Timebase_Timer_Delay_SubSeconds
 725               	Timebase_Timer_Delay_SubSeconds:
 726               	.LFB18:
 727               	.LM112:
 728               	.LVL43:
 729 033e 6F92      		push r6
 730 0340 7F92      		push r7
 731 0342 8F92      		push r8
 732 0344 9F92      		push r9
 733 0346 AF92      		push r10
 734 0348 BF92      		push r11
 735 034a CF92      		push r12
 736 034c DF92      		push r13
 737 034e EF92      		push r14
 738 0350 FF92      		push r15
 739 0352 0F93      		push r16
 740 0354 1F93      		push r17
 741 0356 CF93      		push r28
 742 0358 DF93      		push r29
 743               	/* prologue: function */
 744               	/* frame size = 0 */
 745 035a 5C01      		movw r10,r24
 746               	.LBB441:
 747               	.LBB442:
 748               	.LBB443:
 749               	.LBB444:
 750               	.LM113:
 751               	/* #APP */
 752               	 ;  329 "timebase.c" 1
 753 035c F894      		cli
 754               	 ;  0 "" 2
 755               	/* #NOAPP */
 756               	.LBE444:
 757               	.LBE443:
 758               	.LM114:
 759 035e C091 0000 		lds r28,Timebase
 760 0362 D091 0000 		lds r29,(Timebase)+1
 761 0366 E884      		ldd r14,Y+8
 762 0368 F984      		ldd r15,Y+9
 763               	.LVL44:
 764               	.LBB445:
 765               	.LBB446:
 766               	.LM115:
 767               	/* #APP */
 768               	 ;  333 "timebase.c" 1
 769 036a 7894      		sei
 770               	 ;  0 "" 2
 771               	/* #NOAPP */
 772               	.LBE446:
 773               	.LBE445:
 774               	.LBE442:
 775               	.LBE441:
 776               	.LBB447:
 777               	.LBB448:
 778               	.LBB449:
 779               	.LBB450:
 780               	.LM116:
 781               	/* #APP */
 782               	 ;  329 "timebase.c" 1
 783 036c F894      		cli
 784               	 ;  0 "" 2
 785               	/* #NOAPP */
 786               	.LBE450:
 787               	.LBE449:
 788               	.LM117:
 789 036e 2A85      		ldd r18,Y+10
 790 0370 3B85      		ldd r19,Y+11
 791 0372 4C85      		ldd r20,Y+12
 792 0374 5D85      		ldd r21,Y+13
 793               	.LVL45:
 794               	.LBB451:
 795               	.LBB452:
 796               	.LM118:
 797               	/* #APP */
 798               	 ;  333 "timebase.c" 1
 799 0376 7894      		sei
 800               	 ;  0 "" 2
 801               	/* #NOAPP */
 802               	.LBE452:
 803               	.LBE451:
 804               	.LBE448:
 805               	.LBE447:
 806               	.LM119:
 807 0378 6981      		ldd r22,Y+1
 808 037a 7A81      		ldd r23,Y+2
 809 037c 80E0      		ldi r24,lo8(0)
 810 037e 90E0      		ldi r25,hi8(0)
 811               	.LVL46:
 812 0380 0E94 0000 		call __mulsi3
 813               	.LVL47:
 814 0384 3B01      		movw r6,r22
 815 0386 4C01      		movw r8,r24
 816               	.LVL48:
 817               	.LM120:
 818 0388 00E0      		ldi r16,lo8(0)
 819 038a 10E0      		ldi r17,hi8(0)
 820               	.LVL49:
 821 038c 6E0C      		add r6,r14
 822 038e 7F1C      		adc r7,r15
 823 0390 801E      		adc r8,r16
 824 0392 911E      		adc r9,r17
 825               	.LM121:
 826 0394 CC24      		clr r12
 827 0396 DD24      		clr r13
 828               	.LVL50:
 829 0398 6A0C      		add r6,r10
 830 039a 7B1C      		adc r7,r11
 831 039c 8C1C      		adc r8,r12
 832 039e 9D1C      		adc r9,r13
 833 03a0 60E0      		ldi r22,lo8(0)
 834 03a2 70E0      		ldi r23,hi8(0)
 835 03a4 80E0      		ldi r24,hlo8(0)
 836 03a6 90E0      		ldi r25,hhi8(0)
 837               	.LVL51:
 838 03a8 00C0      		rjmp .L48
 839               	.LVL52:
 840               	.L49:
 841               	.LBB453:
 842               	.LBB454:
 843               	.LBB455:
 844               	.LBB456:
 845               	.LM122:
 846               	/* #APP */
 847               	 ;  329 "timebase.c" 1
 848 03aa F894      		cli
 849               	 ;  0 "" 2
 850               	/* #NOAPP */
 851               	.LBE456:
 852               	.LBE455:
 853               	.LM123:
 854 03ac E884      		ldd r14,Y+8
 855 03ae F984      		ldd r15,Y+9
 856               	.LVL53:
 857               	.LBB457:
 858               	.LBB458:
 859               	.LM124:
 860               	/* #APP */
 861               	 ;  333 "timebase.c" 1
 862 03b0 7894      		sei
 863               	 ;  0 "" 2
 864               	/* #NOAPP */
 865               	.LBE458:
 866               	.LBE457:
 867               	.LBE454:
 868               	.LBE453:
 869               	.LBB459:
 870               	.LBB460:
 871               	.LBB461:
 872               	.LBB462:
 873               	.LM125:
 874               	/* #APP */
 875               	 ;  329 "timebase.c" 1
 876 03b2 F894      		cli
 877               	 ;  0 "" 2
 878               	/* #NOAPP */
 879               	.LBE462:
 880               	.LBE461:
 881               	.LM126:
 882 03b4 2A85      		ldd r18,Y+10
 883 03b6 3B85      		ldd r19,Y+11
 884 03b8 4C85      		ldd r20,Y+12
 885 03ba 5D85      		ldd r21,Y+13
 886               	.LVL54:
 887               	.LBB463:
 888               	.LBB464:
 889               	.LM127:
 890               	/* #APP */
 891               	 ;  333 "timebase.c" 1
 892 03bc 7894      		sei
 893               	 ;  0 "" 2
 894               	/* #NOAPP */
 895               	.LBE464:
 896               	.LBE463:
 897               	.LBE460:
 898               	.LBE459:
 899               	.LM128:
 900 03be 6981      		ldd r22,Y+1
 901 03c0 7A81      		ldd r23,Y+2
 902               	.LVL55:
 903 03c2 80E0      		ldi r24,lo8(0)
 904 03c4 90E0      		ldi r25,hi8(0)
 905 03c6 0E94 0000 		call __mulsi3
 906               	.LVL56:
 907               	.LM129:
 908 03ca 00E0      		ldi r16,lo8(0)
 909 03cc 10E0      		ldi r17,hi8(0)
 910               	.LVL57:
 911 03ce 6E0D      		add r22,r14
 912 03d0 7F1D      		adc r23,r15
 913 03d2 801F      		adc r24,r16
 914 03d4 911F      		adc r25,r17
 915               	.LVL58:
 916               	.L48:
 917               	.LM130:
 918 03d6 6615      		cp r22,r6
 919 03d8 7705      		cpc r23,r7
 920 03da 8805      		cpc r24,r8
 921 03dc 9905      		cpc r25,r9
 922 03de 04F0      		brlt .L49
 923               	/* epilogue start */
 924               	.LM131:
 925 03e0 DF91      		pop r29
 926 03e2 CF91      		pop r28
 927 03e4 1F91      		pop r17
 928 03e6 0F91      		pop r16
 929               	.LVL59:
 930 03e8 FF90      		pop r15
 931 03ea EF90      		pop r14
 932               	.LVL60:
 933 03ec DF90      		pop r13
 934 03ee CF90      		pop r12
 935               	.LVL61:
 936 03f0 BF90      		pop r11
 937 03f2 AF90      		pop r10
 938               	.LVL62:
 939 03f4 9F90      		pop r9
 940 03f6 8F90      		pop r8
 941 03f8 7F90      		pop r7
 942 03fa 6F90      		pop r6
 943               	.LVL63:
 944 03fc 0895      		ret
 945               	.LFE18:
 947               	.global	Timebase_Timer_Await_SubSeconds
 949               	Timebase_Timer_Await_SubSeconds:
 950               	.LFB19:
 951               	.LM132:
 952               	.LVL64:
 953               	/* prologue: function */
 954               	/* frame size = 0 */
 955 03fe BC01      		movw r22,r24
 956               	.LBB465:
 957               	.LBB466:
 958               	.LM133:
 959 0400 E091 0000 		lds r30,Timebase
 960 0404 F091 0000 		lds r31,(Timebase)+1
 961               	.LVL65:
 962               	.L52:
 963               	.LBB467:
 964               	.LBB468:
 965               	.LM134:
 966               	/* #APP */
 967               	 ;  329 "timebase.c" 1
 968 0408 F894      		cli
 969               	 ;  0 "" 2
 970               	/* #NOAPP */
 971               	.LBE468:
 972               	.LBE467:
 973               	.LM135:
 974 040a 8085      		ldd r24,Z+8
 975 040c 9185      		ldd r25,Z+9
 976               	.LVL66:
 977               	.LBB469:
 978               	.LBB470:
 979               	.LM136:
 980               	/* #APP */
 981               	 ;  333 "timebase.c" 1
 982 040e 7894      		sei
 983               	 ;  0 "" 2
 984               	/* #NOAPP */
 985               	.LBE470:
 986               	.LBE469:
 987               	.LBE466:
 988               	.LBE465:
 989               	.LM137:
 990 0410 2481      		ldd r18,Z+4
 991 0412 3581      		ldd r19,Z+5
 992 0414 4681      		ldd r20,Z+6
 993 0416 5781      		ldd r21,Z+7
 994 0418 A0E0      		ldi r26,lo8(0)
 995 041a B0E0      		ldi r27,hi8(0)
 996               	.LVL67:
 997 041c 8217      		cp r24,r18
 998 041e 9307      		cpc r25,r19
 999 0420 A407      		cpc r26,r20
 1000 0422 B507      		cpc r27,r21
 1001 0424 01F4      		brne .L52
 1002               	.LBB471:
 1003               	.LBB472:
 1004               	.LBB473:
 1005               	.LBB474:
 1006               	.LM138:
 1007               	/* #APP */
 1008               	 ;  329 "timebase.c" 1
 1009 0426 F894      		cli
 1010               	 ;  0 "" 2
 1011               	/* #NOAPP */
 1012               	.LBE474:
 1013               	.LBE473:
 1014               	.LM139:
 1015 0428 8085      		ldd r24,Z+8
 1016 042a 9185      		ldd r25,Z+9
 1017               	.LVL68:
 1018               	.LBB475:
 1019               	.LBB476:
 1020               	.LM140:
 1021               	/* #APP */
 1022               	 ;  333 "timebase.c" 1
 1023 042c 7894      		sei
 1024               	 ;  0 "" 2
 1025               	/* #NOAPP */
 1026               	.LBE476:
 1027               	.LBE475:
 1028               	.LBE472:
 1029               	.LBE471:
 1030               	.LM141:
 1031 042e 860F      		add r24,r22
 1032 0430 971F      		adc r25,r23
 1033 0432 A0E0      		ldi r26,lo8(0)
 1034 0434 B0E0      		ldi r27,hi8(0)
 1035               	.LVL69:
 1036 0436 8483      		std Z+4,r24
 1037 0438 9583      		std Z+5,r25
 1038 043a A683      		std Z+6,r26
 1039 043c B783      		std Z+7,r27
 1040               	.LVL70:
 1041               	.LM142:
 1042 043e 2481      		ldd r18,Z+4
 1043 0440 3581      		ldd r19,Z+5
 1044 0442 4681      		ldd r20,Z+6
 1045 0444 5781      		ldd r21,Z+7
 1046 0446 8181      		ldd r24,Z+1
 1047 0448 9281      		ldd r25,Z+2
 1048 044a A0E0      		ldi r26,lo8(0)
 1049 044c B0E0      		ldi r27,hi8(0)
 1050 044e 2817      		cp r18,r24
 1051 0450 3907      		cpc r19,r25
 1052 0452 4A07      		cpc r20,r26
 1053 0454 5B07      		cpc r21,r27
 1054 0456 04F0      		brlt .L54
 1055               	.LM143:
 1056 0458 2481      		ldd r18,Z+4
 1057 045a 3581      		ldd r19,Z+5
 1058 045c 4681      		ldd r20,Z+6
 1059 045e 5781      		ldd r21,Z+7
 1060 0460 8181      		ldd r24,Z+1
 1061 0462 9281      		ldd r25,Z+2
 1062 0464 A0E0      		ldi r26,lo8(0)
 1063 0466 B0E0      		ldi r27,hi8(0)
 1064 0468 281B      		sub r18,r24
 1065 046a 390B      		sbc r19,r25
 1066 046c 4A0B      		sbc r20,r26
 1067 046e 5B0B      		sbc r21,r27
 1068 0470 2483      		std Z+4,r18
 1069 0472 3583      		std Z+5,r19
 1070 0474 4683      		std Z+6,r20
 1071 0476 5783      		std Z+7,r21
 1072               	.L54:
 1073 0478 0895      		ret
 1074               	.LFE19:
 1076               	.global	Timebase_Timer_Delay_Seconds
 1078               	Timebase_Timer_Delay_Seconds:
 1079               	.LFB20:
 1080               	.LM144:
 1081               	.LVL71:
 1082               	/* prologue: function */
 1083               	/* frame size = 0 */
 1084               	.LBB477:
 1085               	.LBB478:
 1086               	.LBB479:
 1087               	.LBB480:
 1088               	.LM145:
 1089               	/* #APP */
 1090               	 ;  329 "timebase.c" 1
 1091 047a F894      		cli
 1092               	 ;  0 "" 2
 1093               	/* #NOAPP */
 1094               	.LBE480:
 1095               	.LBE479:
 1096               	.LM146:
 1097 047c E091 0000 		lds r30,Timebase
 1098 0480 F091 0000 		lds r31,(Timebase)+1
 1099 0484 2285      		ldd r18,Z+10
 1100 0486 3385      		ldd r19,Z+11
 1101 0488 4485      		ldd r20,Z+12
 1102 048a 5585      		ldd r21,Z+13
 1103               	.LVL72:
 1104               	.LBB481:
 1105               	.LBB482:
 1106               	.LM147:
 1107               	/* #APP */
 1108               	 ;  333 "timebase.c" 1
 1109 048c 7894      		sei
 1110               	 ;  0 "" 2
 1111               	/* #NOAPP */
 1112               	.LBE482:
 1113               	.LBE481:
 1114               	.LBE478:
 1115               	.LBE477:
 1116               	.LM148:
 1117 048e A0E0      		ldi r26,lo8(0)
 1118 0490 B0E0      		ldi r27,hi8(0)
 1119               	.LVL73:
 1120 0492 820F      		add r24,r18
 1121 0494 931F      		adc r25,r19
 1122 0496 A41F      		adc r26,r20
 1123 0498 B51F      		adc r27,r21
 1124               	.LVL74:
 1125 049a 20E0      		ldi r18,lo8(0)
 1126 049c 30E0      		ldi r19,hi8(0)
 1127 049e 40E0      		ldi r20,hlo8(0)
 1128 04a0 50E0      		ldi r21,hhi8(0)
 1129               	.LVL75:
 1130 04a2 00C0      		rjmp .L57
 1131               	.L58:
 1132               	.LBB483:
 1133               	.LBB484:
 1134               	.LBB485:
 1135               	.LBB486:
 1136               	.LM149:
 1137               	/* #APP */
 1138               	 ;  329 "timebase.c" 1
 1139 04a4 F894      		cli
 1140               	 ;  0 "" 2
 1141               	/* #NOAPP */
 1142               	.LBE486:
 1143               	.LBE485:
 1144               	.LM150:
 1145 04a6 2285      		ldd r18,Z+10
 1146 04a8 3385      		ldd r19,Z+11
 1147 04aa 4485      		ldd r20,Z+12
 1148 04ac 5585      		ldd r21,Z+13
 1149               	.LBB487:
 1150               	.LBB488:
 1151               	.LM151:
 1152               	/* #APP */
 1153               	 ;  333 "timebase.c" 1
 1154 04ae 7894      		sei
 1155               	 ;  0 "" 2
 1156               	/* #NOAPP */
 1157               	.L57:
 1158               	.LBE488:
 1159               	.LBE487:
 1160               	.LBE484:
 1161               	.LBE483:
 1162               	.LM152:
 1163 04b0 2817      		cp r18,r24
 1164 04b2 3907      		cpc r19,r25
 1165 04b4 4A07      		cpc r20,r26
 1166 04b6 5B07      		cpc r21,r27
 1167 04b8 04F0      		brlt .L58
 1168               	/* epilogue start */
 1169               	.LM153:
 1170 04ba 0895      		ret
 1171               	.LFE20:
 1173               	.global	Timebase_Window_Timer_Reset
 1175               	Timebase_Window_Timer_Reset:
 1176               	.LFB21:
 1177               	.LM154:
 1178               	/* prologue: function */
 1179               	/* frame size = 0 */
 1180               	.LM155:
 1181 04bc E091 0000 		lds r30,Timebase
 1182 04c0 F091 0000 		lds r31,(Timebase)+1
 1183 04c4 1686      		std Z+14,__zero_reg__
 1184 04c6 1786      		std Z+15,__zero_reg__
 1185 04c8 108A      		std Z+16,__zero_reg__
 1186 04ca 118A      		std Z+17,__zero_reg__
 1187               	.LM156:
 1188 04cc 128A      		std Z+18,__zero_reg__
 1189 04ce 138A      		std Z+19,__zero_reg__
 1190 04d0 148A      		std Z+20,__zero_reg__
 1191 04d2 158A      		std Z+21,__zero_reg__
 1192               	.LM157:
 1193 04d4 168A      		std Z+22,__zero_reg__
 1194               	/* epilogue start */
 1195               	.LM158:
 1196 04d6 0895      		ret
 1197               	.LFE21:
 1199               	.global	Timebase_Window_Timer_Start
 1201               	Timebase_Window_Timer_Start:
 1202               	.LFB22:
 1203               	.LM159:
 1204               	/* prologue: function */
 1205               	/* frame size = 0 */
 1206               	.LM160:
 1207 04d8 E091 0000 		lds r30,Timebase
 1208 04dc F091 0000 		lds r31,(Timebase)+1
 1209 04e0 8689      		ldd r24,Z+22
 1210 04e2 8823      		tst r24
 1211 04e4 01F4      		brne .L64
 1212               	.LBB489:
 1213               	.LBB490:
 1214               	.LBB491:
 1215               	.LBB492:
 1216               	.LM161:
 1217               	/* #APP */
 1218               	 ;  329 "timebase.c" 1
 1219 04e6 F894      		cli
 1220               	 ;  0 "" 2
 1221               	/* #NOAPP */
 1222               	.LBE492:
 1223               	.LBE491:
 1224               	.LM162:
 1225 04e8 8285      		ldd r24,Z+10
 1226 04ea 9385      		ldd r25,Z+11
 1227 04ec A485      		ldd r26,Z+12
 1228 04ee B585      		ldd r27,Z+13
 1229               	.LVL76:
 1230               	.LBB493:
 1231               	.LBB494:
 1232               	.LM163:
 1233               	/* #APP */
 1234               	 ;  333 "timebase.c" 1
 1235 04f0 7894      		sei
 1236               	 ;  0 "" 2
 1237               	/* #NOAPP */
 1238               	.LBE494:
 1239               	.LBE493:
 1240               	.LBE490:
 1241               	.LBE489:
 1242               	.LM164:
 1243 04f2 8687      		std Z+14,r24
 1244 04f4 9787      		std Z+15,r25
 1245 04f6 A08B      		std Z+16,r26
 1246 04f8 B18B      		std Z+17,r27
 1247               	.LBB495:
 1248               	.LBB496:
 1249               	.LBB497:
 1250               	.LBB498:
 1251               	.LM165:
 1252               	/* #APP */
 1253               	 ;  329 "timebase.c" 1
 1254 04fa F894      		cli
 1255               	 ;  0 "" 2
 1256               	/* #NOAPP */
 1257               	.LBE498:
 1258               	.LBE497:
 1259               	.LM166:
 1260 04fc 8085      		ldd r24,Z+8
 1261 04fe 9185      		ldd r25,Z+9
 1262               	.LVL77:
 1263               	.LBB499:
 1264               	.LBB500:
 1265               	.LM167:
 1266               	/* #APP */
 1267               	 ;  333 "timebase.c" 1
 1268 0500 7894      		sei
 1269               	 ;  0 "" 2
 1270               	/* #NOAPP */
 1271               	.LBE500:
 1272               	.LBE499:
 1273               	.LBE496:
 1274               	.LBE495:
 1275               	.LM168:
 1276 0502 A0E0      		ldi r26,lo8(0)
 1277 0504 B0E0      		ldi r27,hi8(0)
 1278               	.LVL78:
 1279 0506 828B      		std Z+18,r24
 1280 0508 938B      		std Z+19,r25
 1281 050a A48B      		std Z+20,r26
 1282 050c B58B      		std Z+21,r27
 1283               	.LM169:
 1284 050e 81E0      		ldi r24,lo8(1)
 1285               	.LVL79:
 1286 0510 868B      		std Z+22,r24
 1287               	.L64:
 1288 0512 0895      		ret
 1289               	.LFE22:
 1291               	.global	Timebase_Window_Timer_Get_Interval
 1293               	Timebase_Window_Timer_Get_Interval:
 1294               	.LFB23:
 1295               	.LM170:
 1296 0514 EF92      		push r14
 1297 0516 FF92      		push r15
 1298 0518 0F93      		push r16
 1299 051a 1F93      		push r17
 1300 051c CF93      		push r28
 1301 051e DF93      		push r29
 1302               	/* prologue: function */
 1303               	/* frame size = 0 */
 1304               	.LM171:
 1305 0520 C091 0000 		lds r28,Timebase
 1306 0524 D091 0000 		lds r29,(Timebase)+1
 1307 0528 8E89      		ldd r24,Y+22
 1308 052a 8130      		cpi r24,lo8(1)
 1309 052c 01F0      		breq .L66
 1310 052e EE24      		clr r14
 1311 0530 FF24      		clr r15
 1312 0532 8701      		movw r16,r14
 1313               	.LVL80:
 1314 0534 00C0      		rjmp .L67
 1315               	.LVL81:
 1316               	.L66:
 1317               	.LBB501:
 1318               	.LBB502:
 1319               	.LBB503:
 1320               	.LBB504:
 1321               	.LM172:
 1322               	/* #APP */
 1323               	 ;  329 "timebase.c" 1
 1324 0536 F894      		cli
 1325               	 ;  0 "" 2
 1326               	/* #NOAPP */
 1327               	.LBE504:
 1328               	.LBE503:
 1329               	.LM173:
 1330 0538 2A85      		ldd r18,Y+10
 1331 053a 3B85      		ldd r19,Y+11
 1332 053c 4C85      		ldd r20,Y+12
 1333 053e 5D85      		ldd r21,Y+13
 1334               	.LVL82:
 1335               	.LBB505:
 1336               	.LBB506:
 1337               	.LM174:
 1338               	/* #APP */
 1339               	 ;  333 "timebase.c" 1
 1340 0540 7894      		sei
 1341               	 ;  0 "" 2
 1342               	/* #NOAPP */
 1343               	.LBE506:
 1344               	.LBE505:
 1345               	.LBE502:
 1346               	.LBE501:
 1347               	.LBB507:
 1348               	.LBB508:
 1349               	.LBB509:
 1350               	.LBB510:
 1351               	.LM175:
 1352               	/* #APP */
 1353               	 ;  329 "timebase.c" 1
 1354 0542 F894      		cli
 1355               	 ;  0 "" 2
 1356               	/* #NOAPP */
 1357               	.LBE510:
 1358               	.LBE509:
 1359               	.LM176:
 1360 0544 8885      		ldd r24,Y+8
 1361 0546 9985      		ldd r25,Y+9
 1362               	.LVL83:
 1363               	.LBB511:
 1364               	.LBB512:
 1365               	.LM177:
 1366               	/* #APP */
 1367               	 ;  333 "timebase.c" 1
 1368 0548 7894      		sei
 1369               	 ;  0 "" 2
 1370               	/* #NOAPP */
 1371               	.LBE512:
 1372               	.LBE511:
 1373               	.LBE508:
 1374               	.LBE507:
 1375               	.LM178:
 1376 054a 7C01      		movw r14,r24
 1377               	.LVL84:
 1378 054c 00E0      		ldi r16,lo8(0)
 1379 054e 10E0      		ldi r17,hi8(0)
 1380               	.LVL85:
 1381               	.LM179:
 1382 0550 8E85      		ldd r24,Y+14
 1383 0552 9F85      		ldd r25,Y+15
 1384 0554 A889      		ldd r26,Y+16
 1385 0556 B989      		ldd r27,Y+17
 1386               	.LVL86:
 1387 0558 281B      		sub r18,r24
 1388 055a 390B      		sbc r19,r25
 1389 055c 4A0B      		sbc r20,r26
 1390 055e 5B0B      		sbc r21,r27
 1391               	.LVL87:
 1392               	.LM180:
 1393 0560 6981      		ldd r22,Y+1
 1394 0562 7A81      		ldd r23,Y+2
 1395 0564 80E0      		ldi r24,lo8(0)
 1396 0566 90E0      		ldi r25,hi8(0)
 1397 0568 0E94 0000 		call __mulsi3
 1398               	.LVL88:
 1399               	.LM181:
 1400 056c 2A89      		ldd r18,Y+18
 1401 056e 3B89      		ldd r19,Y+19
 1402 0570 4C89      		ldd r20,Y+20
 1403 0572 5D89      		ldd r21,Y+21
 1404 0574 E21A      		sub r14,r18
 1405 0576 F30A      		sbc r15,r19
 1406 0578 040B      		sbc r16,r20
 1407 057a 150B      		sbc r17,r21
 1408               	.LVL89:
 1409 057c E60E      		add r14,r22
 1410 057e F71E      		adc r15,r23
 1411 0580 081F      		adc r16,r24
 1412 0582 191F      		adc r17,r25
 1413               	.L67:
 1414               	.LM182:
 1415 0584 B701      		movw r22,r14
 1416               	.LVL90:
 1417 0586 C801      		movw r24,r16
 1418               	.LVL91:
 1419               	/* epilogue start */
 1420 0588 DF91      		pop r29
 1421 058a CF91      		pop r28
 1422 058c 1F91      		pop r17
 1423 058e 0F91      		pop r16
 1424 0590 FF90      		pop r15
 1425 0592 EF90      		pop r14
 1426 0594 0895      		ret
 1427               	.LFE23:
 1429               	.global	Timebase_Window_Timer_Get_Interval_Reset
 1431               	Timebase_Window_Timer_Get_Interval_Reset:
 1432               	.LFB24:
 1433               	.LM183:
 1434               	/* prologue: function */
 1435               	/* frame size = 0 */
 1436               	.LM184:
 1437 0596 0E94 0000 		call Timebase_Window_Timer_Get_Interval
 1438 059a 282F      		mov r18,r24
 1439               	.LVL92:
 1440               	.LM185:
 1441 059c E091 0000 		lds r30,Timebase
 1442 05a0 F091 0000 		lds r31,(Timebase)+1
 1443 05a4 8689      		ldd r24,Z+22
 1444 05a6 8130      		cpi r24,lo8(1)
 1445 05a8 01F4      		brne .L70
 1446               	.LBB513:
 1447               	.LBB514:
 1448               	.LM186:
 1449 05aa 1686      		std Z+14,__zero_reg__
 1450 05ac 1786      		std Z+15,__zero_reg__
 1451 05ae 108A      		std Z+16,__zero_reg__
 1452 05b0 118A      		std Z+17,__zero_reg__
 1453               	.LM187:
 1454 05b2 128A      		std Z+18,__zero_reg__
 1455 05b4 138A      		std Z+19,__zero_reg__
 1456 05b6 148A      		std Z+20,__zero_reg__
 1457 05b8 158A      		std Z+21,__zero_reg__
 1458               	.LM188:
 1459 05ba 168A      		std Z+22,__zero_reg__
 1460               	.L70:
 1461               	.LBE514:
 1462               	.LBE513:
 1463               	.LM189:
 1464 05bc 822F      		mov r24,r18
 1465               	/* epilogue start */
 1466 05be 0895      		ret
 1467               	.LFE24:
 1469               	.global	Timebase_DownCounter_Get_Status
 1471               	Timebase_DownCounter_Get_Status:
 1472               	.LFB25:
 1473               	.LM190:
 1474               	.LVL93:
 1475               	/* prologue: function */
 1476               	/* frame size = 0 */
 1477               	.LM191:
 1478 05c0 E091 0000 		lds r30,Timebase
 1479 05c4 F091 0000 		lds r31,(Timebase)+1
 1480 05c8 90E0      		ldi r25,lo8(0)
 1481               	.LVL94:
 1482 05ca 2DE0      		ldi r18,lo8(13)
 1483 05cc 30E0      		ldi r19,hi8(13)
 1484 05ce AC01      		movw r20,r24
 1485 05d0 429F      		mul r20,r18
 1486 05d2 C001      		movw r24,r0
 1487 05d4 439F      		mul r20,r19
 1488 05d6 900D      		add r25,r0
 1489 05d8 529F      		mul r21,r18
 1490 05da 900D      		add r25,r0
 1491 05dc 1124      		clr r1
 1492               	.LVL95:
 1493 05de E80F      		add r30,r24
 1494 05e0 F91F      		adc r31,r25
 1495 05e2 82A5      		ldd r24,Z+42
 1496 05e4 8695      		lsr r24
 1497               	.LM192:
 1498 05e6 8F70      		andi r24,lo8(15)
 1499               	/* epilogue start */
 1500 05e8 0895      		ret
 1501               	.LFE25:
 1503               	.global	Timebase_DownCounter_Set_Status
 1505               	Timebase_DownCounter_Set_Status:
 1506               	.LFB26:
 1507               	.LM193:
 1508               	.LVL96:
 1509               	/* prologue: function */
 1510               	/* frame size = 0 */
 1511               	.LM194:
 1512 05ea E091 0000 		lds r30,Timebase
 1513 05ee F091 0000 		lds r31,(Timebase)+1
 1514 05f2 90E0      		ldi r25,lo8(0)
 1515               	.LVL97:
 1516 05f4 2DE0      		ldi r18,lo8(13)
 1517 05f6 30E0      		ldi r19,hi8(13)
 1518 05f8 AC01      		movw r20,r24
 1519 05fa 429F      		mul r20,r18
 1520 05fc C001      		movw r24,r0
 1521 05fe 439F      		mul r20,r19
 1522 0600 900D      		add r25,r0
 1523 0602 529F      		mul r21,r18
 1524 0604 900D      		add r25,r0
 1525 0606 1124      		clr r1
 1526               	.LVL98:
 1527 0608 E80F      		add r30,r24
 1528 060a F91F      		adc r31,r25
 1529 060c 6F70      		andi r22,lo8(15)
 1530               	.LVL99:
 1531 060e 660F      		lsl r22
 1532 0610 82A5      		ldd r24,Z+42
 1533 0612 817E      		andi r24,lo8(-31)
 1534 0614 862B      		or r24,r22
 1535 0616 82A7      		std Z+42,r24
 1536               	/* epilogue start */
 1537               	.LM195:
 1538 0618 0895      		ret
 1539               	.LFE26:
 1541               	.global	Timebase_DownCounter_Get_Value
 1543               	Timebase_DownCounter_Get_Value:
 1544               	.LFB27:
 1545               	.LM196:
 1546               	.LVL100:
 1547               	/* prologue: function */
 1548               	/* frame size = 0 */
 1549               	.LM197:
 1550 061a E091 0000 		lds r30,Timebase
 1551 061e F091 0000 		lds r31,(Timebase)+1
 1552 0622 90E0      		ldi r25,lo8(0)
 1553               	.LVL101:
 1554 0624 2DE0      		ldi r18,lo8(13)
 1555 0626 30E0      		ldi r19,hi8(13)
 1556 0628 AC01      		movw r20,r24
 1557 062a 429F      		mul r20,r18
 1558 062c C001      		movw r24,r0
 1559 062e 439F      		mul r20,r19
 1560 0630 900D      		add r25,r0
 1561 0632 529F      		mul r21,r18
 1562 0634 900D      		add r25,r0
 1563 0636 1124      		clr r1
 1564               	.LVL102:
 1565 0638 E80F      		add r30,r24
 1566 063a F91F      		adc r31,r25
 1567 063c DF01      		movw r26,r30
 1568 063e 9F96      		adiw r26,47
 1569 0640 67A5      		ldd r22,Z+47
 1570 0642 1196      		adiw r26,1
 1571 0644 7C91      		ld r23,X
 1572 0646 1197      		sbiw r26,1
 1573               	.LM198:
 1574 0648 1296      		adiw r26,2
 1575 064a 8C91      		ld r24,X
 1576 064c 1297      		sbiw r26,2
 1577 064e 1396      		adiw r26,3
 1578 0650 9C91      		ld r25,X
 1579               	.LVL103:
 1580               	/* epilogue start */
 1581 0652 0895      		ret
 1582               	.LFE27:
 1584               	.global	Timebase_DownCounter_Set_Value
 1586               	Timebase_DownCounter_Set_Value:
 1587               	.LFB28:
 1588               	.LM199:
 1589               	.LVL104:
 1590               	/* prologue: function */
 1591               	/* frame size = 0 */
 1592               	.LM200:
 1593 0654 E091 0000 		lds r30,Timebase
 1594 0658 F091 0000 		lds r31,(Timebase)+1
 1595 065c 90E0      		ldi r25,lo8(0)
 1596               	.LVL105:
 1597 065e 2DE0      		ldi r18,lo8(13)
 1598 0660 30E0      		ldi r19,hi8(13)
 1599 0662 DC01      		movw r26,r24
 1600 0664 A29F      		mul r26,r18
 1601 0666 C001      		movw r24,r0
 1602 0668 A39F      		mul r26,r19
 1603 066a 900D      		add r25,r0
 1604 066c B29F      		mul r27,r18
 1605 066e 900D      		add r25,r0
 1606 0670 1124      		clr r1
 1607               	.LVL106:
 1608 0672 E80F      		add r30,r24
 1609 0674 F91F      		adc r31,r25
 1610 0676 47A7      		std Z+47,r20
 1611 0678 50AB      		std Z+48,r21
 1612 067a 61AB      		std Z+49,r22
 1613 067c 72AB      		std Z+50,r23
 1614               	/* epilogue start */
 1615               	.LM201:
 1616 067e 0895      		ret
 1617               	.LFE28:
 1619               	.global	Timebase_DownCounter_Get_EndValue
 1621               	Timebase_DownCounter_Get_EndValue:
 1622               	.LFB29:
 1623               	.LM202:
 1624               	.LVL107:
 1625               	/* prologue: function */
 1626               	/* frame size = 0 */
 1627               	.LM203:
 1628 0680 E091 0000 		lds r30,Timebase
 1629 0684 F091 0000 		lds r31,(Timebase)+1
 1630 0688 90E0      		ldi r25,lo8(0)
 1631               	.LVL108:
 1632 068a 2DE0      		ldi r18,lo8(13)
 1633 068c 30E0      		ldi r19,hi8(13)
 1634 068e AC01      		movw r20,r24
 1635 0690 429F      		mul r20,r18
 1636 0692 C001      		movw r24,r0
 1637 0694 439F      		mul r20,r19
 1638 0696 900D      		add r25,r0
 1639 0698 529F      		mul r21,r18
 1640 069a 900D      		add r25,r0
 1641 069c 1124      		clr r1
 1642               	.LVL109:
 1643 069e E80F      		add r30,r24
 1644 06a0 F91F      		adc r31,r25
 1645 06a2 DF01      		movw r26,r30
 1646 06a4 9B96      		adiw r26,43
 1647 06a6 63A5      		ldd r22,Z+43
 1648 06a8 1196      		adiw r26,1
 1649 06aa 7C91      		ld r23,X
 1650 06ac 1197      		sbiw r26,1
 1651               	.LM204:
 1652 06ae 1296      		adiw r26,2
 1653 06b0 8C91      		ld r24,X
 1654 06b2 1297      		sbiw r26,2
 1655 06b4 1396      		adiw r26,3
 1656 06b6 9C91      		ld r25,X
 1657               	.LVL110:
 1658               	/* epilogue start */
 1659 06b8 0895      		ret
 1660               	.LFE29:
 1662               	.global	Timebase_DownCounter_Set_EndValue
 1664               	Timebase_DownCounter_Set_EndValue:
 1665               	.LFB30:
 1666               	.LM205:
 1667               	.LVL111:
 1668               	/* prologue: function */
 1669               	/* frame size = 0 */
 1670               	.LM206:
 1671 06ba E091 0000 		lds r30,Timebase
 1672 06be F091 0000 		lds r31,(Timebase)+1
 1673 06c2 90E0      		ldi r25,lo8(0)
 1674               	.LVL112:
 1675 06c4 2DE0      		ldi r18,lo8(13)
 1676 06c6 30E0      		ldi r19,hi8(13)
 1677 06c8 DC01      		movw r26,r24
 1678 06ca A29F      		mul r26,r18
 1679 06cc C001      		movw r24,r0
 1680 06ce A39F      		mul r26,r19
 1681 06d0 900D      		add r25,r0
 1682 06d2 B29F      		mul r27,r18
 1683 06d4 900D      		add r25,r0
 1684 06d6 1124      		clr r1
 1685               	.LVL113:
 1686 06d8 E80F      		add r30,r24
 1687 06da F91F      		adc r31,r25
 1688 06dc 43A7      		std Z+43,r20
 1689 06de 54A7      		std Z+44,r21
 1690 06e0 65A7      		std Z+45,r22
 1691 06e2 76A7      		std Z+46,r23
 1692               	/* epilogue start */
 1693               	.LM207:
 1694 06e4 0895      		ret
 1695               	.LFE30:
 1697               	.global	Timebase_DownCounter_Get_PeriodValue
 1699               	Timebase_DownCounter_Get_PeriodValue:
 1700               	.LFB31:
 1701               	.LM208:
 1702               	.LVL114:
 1703               	/* prologue: function */
 1704               	/* frame size = 0 */
 1705               	.LM209:
 1706 06e6 E091 0000 		lds r30,Timebase
 1707 06ea F091 0000 		lds r31,(Timebase)+1
 1708 06ee 90E0      		ldi r25,lo8(0)
 1709               	.LVL115:
 1710 06f0 2DE0      		ldi r18,lo8(13)
 1711 06f2 30E0      		ldi r19,hi8(13)
 1712 06f4 AC01      		movw r20,r24
 1713 06f6 429F      		mul r20,r18
 1714 06f8 C001      		movw r24,r0
 1715 06fa 439F      		mul r20,r19
 1716 06fc 900D      		add r25,r0
 1717 06fe 529F      		mul r21,r18
 1718 0700 900D      		add r25,r0
 1719 0702 1124      		clr r1
 1720               	.LVL116:
 1721 0704 E80F      		add r30,r24
 1722 0706 F91F      		adc r31,r25
 1723 0708 DF01      		movw r26,r30
 1724 070a D396      		adiw r26,51
 1725 070c 63A9      		ldd r22,Z+51
 1726 070e 1196      		adiw r26,1
 1727 0710 7C91      		ld r23,X
 1728 0712 1197      		sbiw r26,1
 1729               	.LM210:
 1730 0714 1296      		adiw r26,2
 1731 0716 8C91      		ld r24,X
 1732 0718 1297      		sbiw r26,2
 1733 071a 1396      		adiw r26,3
 1734 071c 9C91      		ld r25,X
 1735               	.LVL117:
 1736               	/* epilogue start */
 1737 071e 0895      		ret
 1738               	.LFE31:
 1740               	.global	Timebase_DownCounter_Set_PeriodValue
 1742               	Timebase_DownCounter_Set_PeriodValue:
 1743               	.LFB32:
 1744               	.LM211:
 1745               	.LVL118:
 1746               	/* prologue: function */
 1747               	/* frame size = 0 */
 1748 0720 E091 0000 		lds r30,Timebase
 1749 0724 F091 0000 		lds r31,(Timebase)+1
 1750 0728 282F      		mov r18,r24
 1751 072a 30E0      		ldi r19,lo8(0)
 1752               	.LVL119:
 1753               	.LM212:
 1754 072c 77FF      		sbrs r23,7
 1755 072e 00C0      		rjmp .L87
 1756               	.LVL120:
 1757               	.LM213:
 1758 0730 8DE0      		ldi r24,lo8(13)
 1759 0732 90E0      		ldi r25,hi8(13)
 1760 0734 AC01      		movw r20,r24
 1761               	.LVL121:
 1762 0736 249F      		mul r18,r20
 1763 0738 C001      		movw r24,r0
 1764 073a 259F      		mul r18,r21
 1765 073c 900D      		add r25,r0
 1766 073e 349F      		mul r19,r20
 1767 0740 900D      		add r25,r0
 1768 0742 1124      		clr r1
 1769 0744 E80F      		add r30,r24
 1770 0746 F91F      		adc r31,r25
 1771 0748 13AA      		std Z+51,__zero_reg__
 1772 074a 14AA      		std Z+52,__zero_reg__
 1773 074c 15AA      		std Z+53,__zero_reg__
 1774 074e 16AA      		std Z+54,__zero_reg__
 1775 0750 0895      		ret
 1776               	.LVL122:
 1777               	.L87:
 1778               	.LM214:
 1779 0752 8DE0      		ldi r24,lo8(13)
 1780 0754 90E0      		ldi r25,hi8(13)
 1781 0756 DC01      		movw r26,r24
 1782 0758 2A9F      		mul r18,r26
 1783 075a C001      		movw r24,r0
 1784 075c 2B9F      		mul r18,r27
 1785 075e 900D      		add r25,r0
 1786 0760 3A9F      		mul r19,r26
 1787 0762 900D      		add r25,r0
 1788 0764 1124      		clr r1
 1789 0766 E80F      		add r30,r24
 1790 0768 F91F      		adc r31,r25
 1791 076a 43AB      		std Z+51,r20
 1792 076c 54AB      		std Z+52,r21
 1793 076e 65AB      		std Z+53,r22
 1794 0770 76AB      		std Z+54,r23
 1795 0772 0895      		ret
 1796               	.LFE32:
 1798               	.global	Timebase_DownCounter_Get_Period_Flag
 1800               	Timebase_DownCounter_Get_Period_Flag:
 1801               	.LFB33:
 1802               	.LM215:
 1803               	.LVL123:
 1804               	/* prologue: function */
 1805               	/* frame size = 0 */
 1806               	.LM216:
 1807 0774 E091 0000 		lds r30,Timebase
 1808 0778 F091 0000 		lds r31,(Timebase)+1
 1809 077c 90E0      		ldi r25,lo8(0)
 1810               	.LVL124:
 1811 077e 2DE0      		ldi r18,lo8(13)
 1812 0780 30E0      		ldi r19,hi8(13)
 1813 0782 AC01      		movw r20,r24
 1814 0784 429F      		mul r20,r18
 1815 0786 C001      		movw r24,r0
 1816 0788 439F      		mul r20,r19
 1817 078a 900D      		add r25,r0
 1818 078c 529F      		mul r21,r18
 1819 078e 900D      		add r25,r0
 1820 0790 1124      		clr r1
 1821               	.LVL125:
 1822 0792 E80F      		add r30,r24
 1823 0794 F91F      		adc r31,r25
 1824 0796 82A5      		ldd r24,Z+42
 1825               	.LM217:
 1826 0798 8170      		andi r24,lo8(1)
 1827               	/* epilogue start */
 1828 079a 0895      		ret
 1829               	.LFE33:
 1831               	.global	Timebase_DownCounter_Set_Period_Flag
 1833               	Timebase_DownCounter_Set_Period_Flag:
 1834               	.LFB34:
 1835               	.LM218:
 1836               	.LVL126:
 1837               	/* prologue: function */
 1838               	/* frame size = 0 */
 1839               	.LM219:
 1840 079c E091 0000 		lds r30,Timebase
 1841 07a0 F091 0000 		lds r31,(Timebase)+1
 1842 07a4 90E0      		ldi r25,lo8(0)
 1843               	.LVL127:
 1844 07a6 2DE0      		ldi r18,lo8(13)
 1845 07a8 30E0      		ldi r19,hi8(13)
 1846 07aa AC01      		movw r20,r24
 1847 07ac 429F      		mul r20,r18
 1848 07ae C001      		movw r24,r0
 1849 07b0 439F      		mul r20,r19
 1850 07b2 900D      		add r25,r0
 1851 07b4 529F      		mul r21,r18
 1852 07b6 900D      		add r25,r0
 1853 07b8 1124      		clr r1
 1854               	.LVL128:
 1855 07ba E80F      		add r30,r24
 1856 07bc F91F      		adc r31,r25
 1857 07be 82A5      		ldd r24,Z+42
 1858 07c0 8160      		ori r24,lo8(1)
 1859 07c2 82A7      		std Z+42,r24
 1860               	/* epilogue start */
 1861               	.LM220:
 1862 07c4 0895      		ret
 1863               	.LFE34:
 1865               	.global	Timebase_DownCounter_Clear_Period_Flag
 1867               	Timebase_DownCounter_Clear_Period_Flag:
 1868               	.LFB35:
 1869               	.LM221:
 1870               	.LVL129:
 1871               	/* prologue: function */
 1872               	/* frame size = 0 */
 1873               	.LM222:
 1874 07c6 E091 0000 		lds r30,Timebase
 1875 07ca F091 0000 		lds r31,(Timebase)+1
 1876 07ce 90E0      		ldi r25,lo8(0)
 1877               	.LVL130:
 1878 07d0 2DE0      		ldi r18,lo8(13)
 1879 07d2 30E0      		ldi r19,hi8(13)
 1880 07d4 AC01      		movw r20,r24
 1881 07d6 429F      		mul r20,r18
 1882 07d8 C001      		movw r24,r0
 1883 07da 439F      		mul r20,r19
 1884 07dc 900D      		add r25,r0
 1885 07de 529F      		mul r21,r18
 1886 07e0 900D      		add r25,r0
 1887 07e2 1124      		clr r1
 1888               	.LVL131:
 1889 07e4 E80F      		add r30,r24
 1890 07e6 F91F      		adc r31,r25
 1891 07e8 82A5      		ldd r24,Z+42
 1892 07ea 8E7F      		andi r24,lo8(-2)
 1893 07ec 82A7      		std Z+42,r24
 1894               	/* epilogue start */
 1895               	.LM223:
 1896 07ee 0895      		ret
 1897               	.LFE35:
 1899               	.global	Timebase_DownCounter_Reset
 1901               	Timebase_DownCounter_Reset:
 1902               	.LFB36:
 1903               	.LM224:
 1904               	.LVL132:
 1905               	/* prologue: function */
 1906               	/* frame size = 0 */
 1907               	.LBB515:
 1908               	.LBB516:
 1909               	.LM225:
 1910 07f0 E091 0000 		lds r30,Timebase
 1911 07f4 F091 0000 		lds r31,(Timebase)+1
 1912 07f8 90E0      		ldi r25,lo8(0)
 1913 07fa 2DE0      		ldi r18,lo8(13)
 1914 07fc 30E0      		ldi r19,hi8(13)
 1915 07fe AC01      		movw r20,r24
 1916               	.LVL133:
 1917 0800 429F      		mul r20,r18
 1918 0802 C001      		movw r24,r0
 1919 0804 439F      		mul r20,r19
 1920 0806 900D      		add r25,r0
 1921 0808 529F      		mul r21,r18
 1922 080a 900D      		add r25,r0
 1923 080c 1124      		clr r1
 1924 080e E80F      		add r30,r24
 1925 0810 F91F      		adc r31,r25
 1926 0812 13A6      		std Z+43,__zero_reg__
 1927 0814 14A6      		std Z+44,__zero_reg__
 1928 0816 15A6      		std Z+45,__zero_reg__
 1929 0818 16A6      		std Z+46,__zero_reg__
 1930               	.LBE516:
 1931               	.LBE515:
 1932               	.LBB517:
 1933               	.LBB518:
 1934               	.LM226:
 1935 081a 17A6      		std Z+47,__zero_reg__
 1936 081c 10AA      		std Z+48,__zero_reg__
 1937 081e 11AA      		std Z+49,__zero_reg__
 1938 0820 12AA      		std Z+50,__zero_reg__
 1939               	.LBE518:
 1940               	.LBE517:
 1941               	.LBB519:
 1942               	.LBB520:
 1943               	.LM227:
 1944 0822 82A5      		ldd r24,Z+42
 1945               	.LBE520:
 1946               	.LBE519:
 1947               	.LBB521:
 1948               	.LBB522:
 1949               	.LM228:
 1950 0824 807E      		andi r24,lo8(-32)
 1951 0826 82A7      		std Z+42,r24
 1952               	/* epilogue start */
 1953               	.LBE522:
 1954               	.LBE521:
 1955               	.LM229:
 1956 0828 0895      		ret
 1957               	.LFE36:
 1959               	.global	Timebase_DownCounter_Clear_All_Flags
 1961               	Timebase_DownCounter_Clear_All_Flags:
 1962               	.LFB37:
 1963               	.LM230:
 1964               	.LVL134:
 1965               	/* prologue: function */
 1966               	/* frame size = 0 */
 1967               	.LBB523:
 1968               	.LBB524:
 1969               	.LBB525:
 1970               	.LBB526:
 1971               	.LM231:
 1972 082a E091 0000 		lds r30,Timebase
 1973 082e F091 0000 		lds r31,(Timebase)+1
 1974 0832 90E0      		ldi r25,lo8(0)
 1975 0834 2DE0      		ldi r18,lo8(13)
 1976 0836 30E0      		ldi r19,hi8(13)
 1977 0838 AC01      		movw r20,r24
 1978               	.LVL135:
 1979 083a 429F      		mul r20,r18
 1980 083c C001      		movw r24,r0
 1981 083e 439F      		mul r20,r19
 1982 0840 900D      		add r25,r0
 1983 0842 529F      		mul r21,r18
 1984 0844 900D      		add r25,r0
 1985 0846 1124      		clr r1
 1986 0848 E80F      		add r30,r24
 1987 084a F91F      		adc r31,r25
 1988 084c 13A6      		std Z+43,__zero_reg__
 1989 084e 14A6      		std Z+44,__zero_reg__
 1990 0850 15A6      		std Z+45,__zero_reg__
 1991 0852 16A6      		std Z+46,__zero_reg__
 1992               	.LBE526:
 1993               	.LBE525:
 1994               	.LBB527:
 1995               	.LBB528:
 1996               	.LM232:
 1997 0854 17A6      		std Z+47,__zero_reg__
 1998 0856 10AA      		std Z+48,__zero_reg__
 1999 0858 11AA      		std Z+49,__zero_reg__
 2000 085a 12AA      		std Z+50,__zero_reg__
 2001               	.LBE528:
 2002               	.LBE527:
 2003               	.LBB529:
 2004               	.LBB530:
 2005               	.LM233:
 2006 085c 82A5      		ldd r24,Z+42
 2007               	.LBE530:
 2008               	.LBE529:
 2009               	.LBB531:
 2010               	.LBB532:
 2011               	.LM234:
 2012 085e 807E      		andi r24,lo8(-32)
 2013 0860 82A7      		std Z+42,r24
 2014               	/* epilogue start */
 2015               	.LBE532:
 2016               	.LBE531:
 2017               	.LBE524:
 2018               	.LBE523:
 2019               	.LM235:
 2020 0862 0895      		ret
 2021               	.LFE37:
 2023               	.global	Timebase_DownCounter_Start
 2025               	Timebase_DownCounter_Start:
 2026               	.LFB38:
 2027               	.LM236:
 2028               	.LVL136:
 2029               	/* prologue: function */
 2030               	/* frame size = 0 */
 2031               	.LBB533:
 2032               	.LBB534:
 2033               	.LM237:
 2034 0864 E091 0000 		lds r30,Timebase
 2035 0868 F091 0000 		lds r31,(Timebase)+1
 2036 086c 90E0      		ldi r25,lo8(0)
 2037               	.LBE534:
 2038               	.LBE533:
 2039               	.LM238:
 2040 086e 2DE0      		ldi r18,lo8(13)
 2041 0870 30E0      		ldi r19,hi8(13)
 2042 0872 AC01      		movw r20,r24
 2043               	.LVL137:
 2044 0874 429F      		mul r20,r18
 2045 0876 C001      		movw r24,r0
 2046 0878 439F      		mul r20,r19
 2047 087a 900D      		add r25,r0
 2048 087c 529F      		mul r21,r18
 2049 087e 900D      		add r25,r0
 2050 0880 1124      		clr r1
 2051 0882 E80F      		add r30,r24
 2052 0884 F91F      		adc r31,r25
 2053 0886 92A5      		ldd r25,Z+42
 2054 0888 892F      		mov r24,r25
 2055 088a 8695      		lsr r24
 2056 088c 8F70      		andi r24,lo8(15)
 2057 088e 8130      		cpi r24,lo8(1)
 2058 0890 01F0      		breq .L102
 2059               	.LBB535:
 2060               	.LBB536:
 2061               	.LM239:
 2062 0892 917E      		andi r25,lo8(-31)
 2063 0894 9260      		ori r25,lo8(2)
 2064 0896 92A7      		std Z+42,r25
 2065               	.L102:
 2066 0898 0895      		ret
 2067               	.LBE536:
 2068               	.LBE535:
 2069               	.LFE38:
 2071               	.global	Timebase_DownCounter_Stop
 2073               	Timebase_DownCounter_Stop:
 2074               	.LFB39:
 2075               	.LM240:
 2076               	.LVL138:
 2077               	/* prologue: function */
 2078               	/* frame size = 0 */
 2079               	.LBB537:
 2080               	.LBB538:
 2081               	.LM241:
 2082 089a E091 0000 		lds r30,Timebase
 2083 089e F091 0000 		lds r31,(Timebase)+1
 2084 08a2 90E0      		ldi r25,lo8(0)
 2085               	.LBE538:
 2086               	.LBE537:
 2087               	.LM242:
 2088 08a4 2DE0      		ldi r18,lo8(13)
 2089 08a6 30E0      		ldi r19,hi8(13)
 2090 08a8 AC01      		movw r20,r24
 2091               	.LVL139:
 2092 08aa 429F      		mul r20,r18
 2093 08ac C001      		movw r24,r0
 2094 08ae 439F      		mul r20,r19
 2095 08b0 900D      		add r25,r0
 2096 08b2 529F      		mul r21,r18
 2097 08b4 900D      		add r25,r0
 2098 08b6 1124      		clr r1
 2099 08b8 E80F      		add r30,r24
 2100 08ba F91F      		adc r31,r25
 2101 08bc 92A5      		ldd r25,Z+42
 2102 08be 892F      		mov r24,r25
 2103 08c0 8695      		lsr r24
 2104 08c2 8F70      		andi r24,lo8(15)
 2105 08c4 8230      		cpi r24,lo8(2)
 2106 08c6 01F0      		breq .L105
 2107               	.LBB539:
 2108               	.LBB540:
 2109               	.LM243:
 2110 08c8 917E      		andi r25,lo8(-31)
 2111 08ca 9460      		ori r25,lo8(4)
 2112 08cc 92A7      		std Z+42,r25
 2113               	.L105:
 2114 08ce 0895      		ret
 2115               	.LBE540:
 2116               	.LBE539:
 2117               	.LFE39:
 2119               	.global	Timebase_DownCounter_Set_Securely
 2121               	Timebase_DownCounter_Set_Securely:
 2122               	.LFB40:
 2123               	.LM244:
 2124               	.LVL140:
 2125 08d0 0F93      		push r16
 2126 08d2 1F93      		push r17
 2127 08d4 CF93      		push r28
 2128 08d6 DF93      		push r29
 2129               	/* prologue: function */
 2130               	/* frame size = 0 */
 2131               	.LBB541:
 2132               	.LBB542:
 2133               	.LM245:
 2134 08d8 C091 0000 		lds r28,Timebase
 2135 08dc D091 0000 		lds r29,(Timebase)+1
 2136 08e0 082F      		mov r16,r24
 2137 08e2 10E0      		ldi r17,lo8(0)
 2138               	.LBE542:
 2139               	.LBE541:
 2140               	.LM246:
 2141 08e4 8DE0      		ldi r24,lo8(13)
 2142 08e6 90E0      		ldi r25,hi8(13)
 2143               	.LVL141:
 2144 08e8 089F      		mul r16,r24
 2145 08ea F001      		movw r30,r0
 2146 08ec 099F      		mul r16,r25
 2147 08ee F00D      		add r31,r0
 2148 08f0 189F      		mul r17,r24
 2149 08f2 F00D      		add r31,r0
 2150 08f4 1124      		clr r1
 2151 08f6 EC0F      		add r30,r28
 2152 08f8 FD1F      		adc r31,r29
 2153 08fa 82A5      		ldd r24,Z+42
 2154 08fc 8695      		lsr r24
 2155 08fe 8F70      		andi r24,lo8(15)
 2156 0900 01F4      		brne .L108
 2157               	.LBB543:
 2158               	.LBB544:
 2159               	.LM247:
 2160 0902 47A7      		std Z+47,r20
 2161 0904 50AB      		std Z+48,r21
 2162 0906 61AB      		std Z+49,r22
 2163 0908 72AB      		std Z+50,r23
 2164               	.LBE544:
 2165               	.LBE543:
 2166               	.LBB545:
 2167               	.LBB546:
 2168               	.LBB547:
 2169               	.LBB548:
 2170               	.LM248:
 2171               	/* #APP */
 2172               	 ;  329 "timebase.c" 1
 2173 090a F894      		cli
 2174               	 ;  0 "" 2
 2175               	/* #NOAPP */
 2176               	.LBE548:
 2177               	.LBE547:
 2178               	.LM249:
 2179 090c 8A85      		ldd r24,Y+10
 2180 090e 9B85      		ldd r25,Y+11
 2181 0910 AC85      		ldd r26,Y+12
 2182 0912 BD85      		ldd r27,Y+13
 2183               	.LVL142:
 2184               	.LBB549:
 2185               	.LBB550:
 2186               	.LM250:
 2187               	/* #APP */
 2188               	 ;  333 "timebase.c" 1
 2189 0914 7894      		sei
 2190               	 ;  0 "" 2
 2191               	/* #NOAPP */
 2192               	.LBE550:
 2193               	.LBE549:
 2194               	.LBE546:
 2195               	.LBE545:
 2196               	.LBB551:
 2197               	.LBB552:
 2198               	.LM251:
 2199 0916 2DE0      		ldi r18,lo8(13)
 2200 0918 30E0      		ldi r19,hi8(13)
 2201 091a 029F      		mul r16,r18
 2202 091c F001      		movw r30,r0
 2203 091e 039F      		mul r16,r19
 2204 0920 F00D      		add r31,r0
 2205 0922 129F      		mul r17,r18
 2206 0924 F00D      		add r31,r0
 2207 0926 1124      		clr r1
 2208 0928 EC0F      		add r30,r28
 2209 092a FD1F      		adc r31,r29
 2210 092c 840F      		add r24,r20
 2211 092e 951F      		adc r25,r21
 2212 0930 A61F      		adc r26,r22
 2213 0932 B71F      		adc r27,r23
 2214 0934 83A7      		std Z+43,r24
 2215 0936 94A7      		std Z+44,r25
 2216 0938 A5A7      		std Z+45,r26
 2217 093a B6A7      		std Z+46,r27
 2218               	.LBE552:
 2219               	.LBE551:
 2220               	.LBB553:
 2221               	.LBB554:
 2222               	.LM252:
 2223 093c 92A5      		ldd r25,Z+42
 2224 093e 892F      		mov r24,r25
 2225               	.LVL143:
 2226 0940 8695      		lsr r24
 2227 0942 8F70      		andi r24,lo8(15)
 2228 0944 8130      		cpi r24,lo8(1)
 2229 0946 01F0      		breq .L108
 2230               	.LBB555:
 2231               	.LBB556:
 2232               	.LM253:
 2233 0948 917E      		andi r25,lo8(-31)
 2234 094a 9260      		ori r25,lo8(2)
 2235 094c 92A7      		std Z+42,r25
 2236               	.L108:
 2237               	/* epilogue start */
 2238               	.LBE556:
 2239               	.LBE555:
 2240               	.LBE554:
 2241               	.LBE553:
 2242               	.LM254:
 2243 094e DF91      		pop r29
 2244 0950 CF91      		pop r28
 2245 0952 1F91      		pop r17
 2246 0954 0F91      		pop r16
 2247 0956 0895      		ret
 2248               	.LFE40:
 2250               	.global	Timebase_DownCounter_Set_Forcefully
 2252               	Timebase_DownCounter_Set_Forcefully:
 2253               	.LFB41:
 2254               	.LM255:
 2255               	.LVL144:
 2256 0958 CF93      		push r28
 2257 095a DF93      		push r29
 2258               	/* prologue: function */
 2259               	/* frame size = 0 */
 2260               	.LBB557:
 2261               	.LBB558:
 2262               	.LBB559:
 2263               	.LBB560:
 2264               	.LM256:
 2265 095c E091 0000 		lds r30,Timebase
 2266 0960 F091 0000 		lds r31,(Timebase)+1
 2267 0964 A82F      		mov r26,r24
 2268 0966 B0E0      		ldi r27,lo8(0)
 2269 0968 2DE0      		ldi r18,lo8(13)
 2270 096a 30E0      		ldi r19,hi8(13)
 2271 096c E901      		movw r28,r18
 2272 096e AC9F      		mul r26,r28
 2273 0970 9001      		movw r18,r0
 2274 0972 AD9F      		mul r26,r29
 2275 0974 300D      		add r19,r0
 2276 0976 BC9F      		mul r27,r28
 2277 0978 300D      		add r19,r0
 2278 097a 1124      		clr r1
 2279 097c E20F      		add r30,r18
 2280 097e F31F      		adc r31,r19
 2281 0980 13A6      		std Z+43,__zero_reg__
 2282 0982 14A6      		std Z+44,__zero_reg__
 2283 0984 15A6      		std Z+45,__zero_reg__
 2284 0986 16A6      		std Z+46,__zero_reg__
 2285               	.LBE560:
 2286               	.LBE559:
 2287               	.LBB561:
 2288               	.LBB562:
 2289               	.LM257:
 2290 0988 17A6      		std Z+47,__zero_reg__
 2291 098a 10AA      		std Z+48,__zero_reg__
 2292 098c 11AA      		std Z+49,__zero_reg__
 2293 098e 12AA      		std Z+50,__zero_reg__
 2294               	.LBE562:
 2295               	.LBE561:
 2296               	.LBB563:
 2297               	.LBB564:
 2298               	.LM258:
 2299 0990 92A5      		ldd r25,Z+42
 2300               	.LBE564:
 2301               	.LBE563:
 2302               	.LBB565:
 2303               	.LBB566:
 2304               	.LM259:
 2305 0992 907E      		andi r25,lo8(-32)
 2306 0994 92A7      		std Z+42,r25
 2307               	.LBE566:
 2308               	.LBE565:
 2309               	.LBE558:
 2310               	.LBE557:
 2311               	.LM260:
 2312 0996 0E94 0000 		call Timebase_DownCounter_Set_Securely
 2313               	.LVL145:
 2314               	/* epilogue start */
 2315               	.LM261:
 2316 099a DF91      		pop r29
 2317 099c CF91      		pop r28
 2318 099e 0895      		ret
 2319               	.LFE41:
 2321               	.global	Timebase_DownCounter_Update
 2323               	Timebase_DownCounter_Update:
 2324               	.LFB42:
 2325               	.LM262:
 2326               	.LVL146:
 2327               	/* prologue: function */
 2328               	/* frame size = 0 */
 2329               	.LBB567:
 2330               	.LBB568:
 2331               	.LM263:
 2332 09a0 A091 0000 		lds r26,Timebase
 2333 09a4 B091 0000 		lds r27,(Timebase)+1
 2334 09a8 682F      		mov r22,r24
 2335 09aa 70E0      		ldi r23,lo8(0)
 2336 09ac 8DE0      		ldi r24,lo8(13)
 2337 09ae 90E0      		ldi r25,hi8(13)
 2338               	.LVL147:
 2339 09b0 689F      		mul r22,r24
 2340 09b2 F001      		movw r30,r0
 2341 09b4 699F      		mul r22,r25
 2342 09b6 F00D      		add r31,r0
 2343 09b8 789F      		mul r23,r24
 2344 09ba F00D      		add r31,r0
 2345 09bc 1124      		clr r1
 2346 09be EA0F      		add r30,r26
 2347 09c0 FB1F      		adc r31,r27
 2348 09c2 82A5      		ldd r24,Z+42
 2349 09c4 8695      		lsr r24
 2350 09c6 8F70      		andi r24,lo8(15)
 2351               	.LBE568:
 2352               	.LBE567:
 2353               	.LM264:
 2354 09c8 8130      		cpi r24,lo8(1)
 2355 09ca 01F4      		brne .L112
 2356               	.LBB569:
 2357               	.LBB570:
 2358               	.LBB571:
 2359               	.LBB572:
 2360               	.LM265:
 2361               	/* #APP */
 2362               	 ;  329 "timebase.c" 1
 2363 09cc F894      		cli
 2364               	 ;  0 "" 2
 2365               	/* #NOAPP */
 2366               	.LBE572:
 2367               	.LBE571:
 2368               	.LM266:
 2369 09ce 1A96      		adiw r26,10
 2370 09d0 2D91      		ld r18,X+
 2371 09d2 3D91      		ld r19,X+
 2372 09d4 4D91      		ld r20,X+
 2373 09d6 5C91      		ld r21,X
 2374 09d8 1D97      		sbiw r26,10+3
 2375               	.LVL148:
 2376               	.LBB573:
 2377               	.LBB574:
 2378               	.LM267:
 2379               	/* #APP */
 2380               	 ;  333 "timebase.c" 1
 2381 09da 7894      		sei
 2382               	 ;  0 "" 2
 2383               	/* #NOAPP */
 2384               	.LBE574:
 2385               	.LBE573:
 2386               	.LBE570:
 2387               	.LBE569:
 2388               	.LM268:
 2389 09dc 8DE0      		ldi r24,lo8(13)
 2390 09de 90E0      		ldi r25,hi8(13)
 2391 09e0 689F      		mul r22,r24
 2392 09e2 F001      		movw r30,r0
 2393 09e4 699F      		mul r22,r25
 2394 09e6 F00D      		add r31,r0
 2395 09e8 789F      		mul r23,r24
 2396 09ea F00D      		add r31,r0
 2397 09ec 1124      		clr r1
 2398 09ee EA0F      		add r30,r26
 2399 09f0 FB1F      		adc r31,r27
 2400 09f2 83A5      		ldd r24,Z+43
 2401 09f4 94A5      		ldd r25,Z+44
 2402 09f6 A5A5      		ldd r26,Z+45
 2403 09f8 B6A5      		ldd r27,Z+46
 2404 09fa 821B      		sub r24,r18
 2405 09fc 930B      		sbc r25,r19
 2406 09fe A40B      		sbc r26,r20
 2407 0a00 B50B      		sbc r27,r21
 2408               	.LBB575:
 2409               	.LBB576:
 2410               	.LM269:
 2411 0a02 87A7      		std Z+47,r24
 2412 0a04 90AB      		std Z+48,r25
 2413 0a06 A1AB      		std Z+49,r26
 2414 0a08 B2AB      		std Z+50,r27
 2415               	.LBE576:
 2416               	.LBE575:
 2417               	.LM270:
 2418 0a0a 1816      		cp __zero_reg__,r24
 2419 0a0c 1906      		cpc __zero_reg__,r25
 2420 0a0e 1A06      		cpc __zero_reg__,r26
 2421 0a10 1B06      		cpc __zero_reg__,r27
 2422 0a12 04F0      		brlt .L114
 2423               	.LBB577:
 2424               	.LBB578:
 2425               	.LBB579:
 2426               	.LBB580:
 2427               	.LM271:
 2428 0a14 13A6      		std Z+43,__zero_reg__
 2429 0a16 14A6      		std Z+44,__zero_reg__
 2430 0a18 15A6      		std Z+45,__zero_reg__
 2431 0a1a 16A6      		std Z+46,__zero_reg__
 2432               	.LBE580:
 2433               	.LBE579:
 2434               	.LBB581:
 2435               	.LBB582:
 2436               	.LM272:
 2437 0a1c 17A6      		std Z+47,__zero_reg__
 2438 0a1e 10AA      		std Z+48,__zero_reg__
 2439 0a20 11AA      		std Z+49,__zero_reg__
 2440 0a22 12AA      		std Z+50,__zero_reg__
 2441               	.LBE582:
 2442               	.LBE581:
 2443               	.LBB583:
 2444               	.LBB584:
 2445               	.LM273:
 2446 0a24 82A5      		ldd r24,Z+42
 2447               	.LBE584:
 2448               	.LBE583:
 2449               	.LBE578:
 2450               	.LBE577:
 2451               	.LBB585:
 2452               	.LBB586:
 2453               	.LM274:
 2454 0a26 807E      		andi r24,lo8(-32)
 2455 0a28 8860      		ori r24,lo8(8)
 2456 0a2a 82A7      		std Z+42,r24
 2457 0a2c 0895      		ret
 2458               	.LVL149:
 2459               	.L112:
 2460               	.LBE586:
 2461               	.LBE585:
 2462               	.LM275:
 2463 0a2e 8230      		cpi r24,lo8(2)
 2464 0a30 01F4      		brne .L114
 2465               	.LBB587:
 2466               	.LBB588:
 2467               	.LBB589:
 2468               	.LBB590:
 2469               	.LM276:
 2470               	/* #APP */
 2471               	 ;  329 "timebase.c" 1
 2472 0a32 F894      		cli
 2473               	 ;  0 "" 2
 2474               	/* #NOAPP */
 2475               	.LBE590:
 2476               	.LBE589:
 2477               	.LM277:
 2478 0a34 1A96      		adiw r26,10
 2479 0a36 2D91      		ld r18,X+
 2480 0a38 3D91      		ld r19,X+
 2481 0a3a 4D91      		ld r20,X+
 2482 0a3c 5C91      		ld r21,X
 2483 0a3e 1D97      		sbiw r26,10+3
 2484               	.LVL150:
 2485               	.LBB591:
 2486               	.LBB592:
 2487               	.LM278:
 2488               	/* #APP */
 2489               	 ;  333 "timebase.c" 1
 2490 0a40 7894      		sei
 2491               	 ;  0 "" 2
 2492               	/* #NOAPP */
 2493               	.LBE592:
 2494               	.LBE591:
 2495               	.LBE588:
 2496               	.LBE587:
 2497               	.LBB593:
 2498               	.LBB594:
 2499               	.LM279:
 2500 0a42 8DE0      		ldi r24,lo8(13)
 2501 0a44 90E0      		ldi r25,hi8(13)
 2502 0a46 689F      		mul r22,r24
 2503 0a48 F001      		movw r30,r0
 2504 0a4a 699F      		mul r22,r25
 2505 0a4c F00D      		add r31,r0
 2506 0a4e 789F      		mul r23,r24
 2507 0a50 F00D      		add r31,r0
 2508 0a52 1124      		clr r1
 2509 0a54 EA0F      		add r30,r26
 2510 0a56 FB1F      		adc r31,r27
 2511 0a58 87A5      		ldd r24,Z+47
 2512 0a5a 90A9      		ldd r25,Z+48
 2513 0a5c A1A9      		ldd r26,Z+49
 2514 0a5e B2A9      		ldd r27,Z+50
 2515 0a60 280F      		add r18,r24
 2516 0a62 391F      		adc r19,r25
 2517 0a64 4A1F      		adc r20,r26
 2518 0a66 5B1F      		adc r21,r27
 2519 0a68 23A7      		std Z+43,r18
 2520 0a6a 34A7      		std Z+44,r19
 2521 0a6c 45A7      		std Z+45,r20
 2522 0a6e 56A7      		std Z+46,r21
 2523               	.LVL151:
 2524               	.L114:
 2525 0a70 0895      		ret
 2526               	.LBE594:
 2527               	.LBE593:
 2528               	.LFE42:
 2530               	.global	Timebase_DownCounter_Expired
 2532               	Timebase_DownCounter_Expired:
 2533               	.LFB43:
 2534               	.LM280:
 2535               	.LVL152:
 2536               	/* prologue: function */
 2537               	/* frame size = 0 */
 2538               	.LM281:
 2539 0a72 40E0      		ldi r20,lo8(0)
 2540 0a74 E091 0000 		lds r30,Timebase
 2541 0a78 F091 0000 		lds r31,(Timebase)+1
 2542 0a7c 90E0      		ldi r25,lo8(0)
 2543               	.LVL153:
 2544 0a7e 2DE0      		ldi r18,lo8(13)
 2545 0a80 30E0      		ldi r19,hi8(13)
 2546 0a82 BC01      		movw r22,r24
 2547 0a84 629F      		mul r22,r18
 2548 0a86 C001      		movw r24,r0
 2549 0a88 639F      		mul r22,r19
 2550 0a8a 900D      		add r25,r0
 2551 0a8c 729F      		mul r23,r18
 2552 0a8e 900D      		add r25,r0
 2553 0a90 1124      		clr r1
 2554               	.LVL154:
 2555 0a92 E80F      		add r30,r24
 2556 0a94 F91F      		adc r31,r25
 2557 0a96 82A5      		ldd r24,Z+42
 2558 0a98 8695      		lsr r24
 2559 0a9a 8F70      		andi r24,lo8(15)
 2560 0a9c 8430      		cpi r24,lo8(4)
 2561 0a9e 01F4      		brne .L116
 2562 0aa0 41E0      		ldi r20,lo8(1)
 2563               	.L116:
 2564               	.LM282:
 2565 0aa2 842F      		mov r24,r20
 2566               	/* epilogue start */
 2567 0aa4 0895      		ret
 2568               	.LFE43:
 2570               	.global	Timebase_DownCounter_Expired_Event
 2572               	Timebase_DownCounter_Expired_Event:
 2573               	.LFB44:
 2574               	.LM283:
 2575               	.LVL155:
 2576               	/* prologue: function */
 2577               	/* frame size = 0 */
 2578               	.LBB595:
 2579               	.LBB596:
 2580               	.LM284:
 2581 0aa6 E091 0000 		lds r30,Timebase
 2582 0aaa F091 0000 		lds r31,(Timebase)+1
 2583 0aae 90E0      		ldi r25,lo8(0)
 2584               	.LBE596:
 2585               	.LBE595:
 2586               	.LM285:
 2587 0ab0 2DE0      		ldi r18,lo8(13)
 2588 0ab2 30E0      		ldi r19,hi8(13)
 2589 0ab4 AC01      		movw r20,r24
 2590               	.LVL156:
 2591 0ab6 429F      		mul r20,r18
 2592 0ab8 C001      		movw r24,r0
 2593 0aba 439F      		mul r20,r19
 2594 0abc 900D      		add r25,r0
 2595 0abe 529F      		mul r21,r18
 2596 0ac0 900D      		add r25,r0
 2597 0ac2 1124      		clr r1
 2598 0ac4 E80F      		add r30,r24
 2599 0ac6 F91F      		adc r31,r25
 2600 0ac8 82A5      		ldd r24,Z+42
 2601 0aca 8695      		lsr r24
 2602 0acc 8F70      		andi r24,lo8(15)
 2603 0ace 8430      		cpi r24,lo8(4)
 2604 0ad0 01F0      		breq .L119
 2605 0ad2 80E0      		ldi r24,lo8(0)
 2606 0ad4 0895      		ret
 2607               	.L119:
 2608               	.LBB597:
 2609               	.LBB598:
 2610               	.LBB599:
 2611               	.LBB600:
 2612               	.LBB601:
 2613               	.LBB602:
 2614               	.LM286:
 2615 0ad6 13A6      		std Z+43,__zero_reg__
 2616 0ad8 14A6      		std Z+44,__zero_reg__
 2617 0ada 15A6      		std Z+45,__zero_reg__
 2618 0adc 16A6      		std Z+46,__zero_reg__
 2619               	.LBE602:
 2620               	.LBE601:
 2621               	.LBB603:
 2622               	.LBB604:
 2623               	.LM287:
 2624 0ade 17A6      		std Z+47,__zero_reg__
 2625 0ae0 10AA      		std Z+48,__zero_reg__
 2626 0ae2 11AA      		std Z+49,__zero_reg__
 2627 0ae4 12AA      		std Z+50,__zero_reg__
 2628               	.LBE604:
 2629               	.LBE603:
 2630               	.LBB605:
 2631               	.LBB606:
 2632               	.LM288:
 2633 0ae6 82A5      		ldd r24,Z+42
 2634               	.LBE606:
 2635               	.LBE605:
 2636               	.LBB607:
 2637               	.LBB608:
 2638               	.LM289:
 2639 0ae8 807E      		andi r24,lo8(-32)
 2640 0aea 82A7      		std Z+42,r24
 2641 0aec 81E0      		ldi r24,lo8(1)
 2642               	.LBE608:
 2643               	.LBE607:
 2644               	.LBE600:
 2645               	.LBE599:
 2646               	.LBE598:
 2647               	.LBE597:
 2648               	.LM290:
 2649 0aee 0895      		ret
 2650               	.LFE44:
 2652               	.global	Timebase_DownCounter_Set_Period_Value_Securely
 2654               	Timebase_DownCounter_Set_Period_Value_Securely:
 2655               	.LFB45:
 2656               	.LM291:
 2657               	.LVL157:
 2658 0af0 CF93      		push r28
 2659 0af2 DF93      		push r29
 2660               	/* prologue: function */
 2661               	/* frame size = 0 */
 2662               	.LBB609:
 2663               	.LBB610:
 2664               	.LM292:
 2665 0af4 C091 0000 		lds r28,Timebase
 2666 0af8 D091 0000 		lds r29,(Timebase)+1
 2667 0afc 282F      		mov r18,r24
 2668 0afe 30E0      		ldi r19,lo8(0)
 2669               	.LBE610:
 2670               	.LBE609:
 2671               	.LM293:
 2672 0b00 8DE0      		ldi r24,lo8(13)
 2673 0b02 90E0      		ldi r25,hi8(13)
 2674               	.LVL158:
 2675 0b04 289F      		mul r18,r24
 2676 0b06 F001      		movw r30,r0
 2677 0b08 299F      		mul r18,r25
 2678 0b0a F00D      		add r31,r0
 2679 0b0c 389F      		mul r19,r24
 2680 0b0e F00D      		add r31,r0
 2681 0b10 1124      		clr r1
 2682 0b12 EC0F      		add r30,r28
 2683 0b14 FD1F      		adc r31,r29
 2684 0b16 82A5      		ldd r24,Z+42
 2685 0b18 80FD      		sbrc r24,0
 2686 0b1a 00C0      		rjmp .L126
 2687               	.LM294:
 2688 0b1c 87A5      		ldd r24,Z+47
 2689 0b1e 90A9      		ldd r25,Z+48
 2690 0b20 A1A9      		ldd r26,Z+49
 2691 0b22 B2A9      		ldd r27,Z+50
 2692 0b24 841B      		sub r24,r20
 2693 0b26 950B      		sbc r25,r21
 2694 0b28 A60B      		sbc r26,r22
 2695 0b2a B70B      		sbc r27,r23
 2696               	.LBB611:
 2697               	.LBB612:
 2698               	.LM295:
 2699 0b2c B7FF      		sbrs r27,7
 2700 0b2e 00C0      		rjmp .L124
 2701               	.LM296:
 2702 0b30 13AA      		std Z+51,__zero_reg__
 2703 0b32 14AA      		std Z+52,__zero_reg__
 2704 0b34 15AA      		std Z+53,__zero_reg__
 2705 0b36 16AA      		std Z+54,__zero_reg__
 2706 0b38 00C0      		rjmp .L125
 2707               	.L124:
 2708               	.LM297:
 2709 0b3a 83AB      		std Z+51,r24
 2710 0b3c 94AB      		std Z+52,r25
 2711 0b3e A5AB      		std Z+53,r26
 2712 0b40 B6AB      		std Z+54,r27
 2713               	.L125:
 2714               	.LBE612:
 2715               	.LBE611:
 2716               	.LBB613:
 2717               	.LBB614:
 2718               	.LM298:
 2719 0b42 8DE0      		ldi r24,lo8(13)
 2720 0b44 90E0      		ldi r25,hi8(13)
 2721 0b46 289F      		mul r18,r24
 2722 0b48 F001      		movw r30,r0
 2723 0b4a 299F      		mul r18,r25
 2724 0b4c F00D      		add r31,r0
 2725 0b4e 389F      		mul r19,r24
 2726 0b50 F00D      		add r31,r0
 2727 0b52 1124      		clr r1
 2728 0b54 EC0F      		add r30,r28
 2729 0b56 FD1F      		adc r31,r29
 2730 0b58 82A5      		ldd r24,Z+42
 2731 0b5a 8160      		ori r24,lo8(1)
 2732 0b5c 82A7      		std Z+42,r24
 2733               	.L126:
 2734               	/* epilogue start */
 2735               	.LBE614:
 2736               	.LBE613:
 2737               	.LM299:
 2738 0b5e DF91      		pop r29
 2739 0b60 CF91      		pop r28
 2740 0b62 0895      		ret
 2741               	.LFE45:
 2743               	.global	Timebase_DownCounter_Get_Remaining_Period_Value
 2745               	Timebase_DownCounter_Get_Remaining_Period_Value:
 2746               	.LFB46:
 2747               	.LM300:
 2748               	.LVL159:
 2749               	/* prologue: function */
 2750               	/* frame size = 0 */
 2751               	.LBB615:
 2752               	.LBB616:
 2753               	.LM301:
 2754 0b64 E091 0000 		lds r30,Timebase
 2755 0b68 F091 0000 		lds r31,(Timebase)+1
 2756 0b6c 90E0      		ldi r25,lo8(0)
 2757               	.LBE616:
 2758               	.LBE615:
 2759               	.LM302:
 2760 0b6e 2DE0      		ldi r18,lo8(13)
 2761 0b70 30E0      		ldi r19,hi8(13)
 2762 0b72 AC01      		movw r20,r24
 2763               	.LVL160:
 2764 0b74 429F      		mul r20,r18
 2765 0b76 C001      		movw r24,r0
 2766 0b78 439F      		mul r20,r19
 2767 0b7a 900D      		add r25,r0
 2768 0b7c 529F      		mul r21,r18
 2769 0b7e 900D      		add r25,r0
 2770 0b80 1124      		clr r1
 2771 0b82 E80F      		add r30,r24
 2772 0b84 F91F      		adc r31,r25
 2773 0b86 27A5      		ldd r18,Z+47
 2774 0b88 30A9      		ldd r19,Z+48
 2775 0b8a 41A9      		ldd r20,Z+49
 2776 0b8c 52A9      		ldd r21,Z+50
 2777               	.LVL161:
 2778 0b8e 83A9      		ldd r24,Z+51
 2779 0b90 94A9      		ldd r25,Z+52
 2780 0b92 A5A9      		ldd r26,Z+53
 2781 0b94 B6A9      		ldd r27,Z+54
 2782 0b96 281B      		sub r18,r24
 2783 0b98 390B      		sbc r19,r25
 2784 0b9a 4A0B      		sbc r20,r26
 2785 0b9c 5B0B      		sbc r21,r27
 2786 0b9e 57FF      		sbrs r21,7
 2787 0ba0 00C0      		rjmp .L128
 2788 0ba2 20E0      		ldi r18,lo8(0)
 2789 0ba4 30E0      		ldi r19,hi8(0)
 2790 0ba6 40E0      		ldi r20,hlo8(0)
 2791 0ba8 50E0      		ldi r21,hhi8(0)
 2792               	.L128:
 2793               	.LM303:
 2794 0baa B901      		movw r22,r18
 2795               	.LVL162:
 2796 0bac CA01      		movw r24,r20
 2797               	/* epilogue start */
 2798 0bae 0895      		ret
 2799               	.LFE46:
 2801               	.global	Timebase_DownCounter_Period_Value_Expired
 2803               	Timebase_DownCounter_Period_Value_Expired:
 2804               	.LFB47:
 2805               	.LM304:
 2806               	.LVL163:
 2807 0bb0 CF93      		push r28
 2808 0bb2 DF93      		push r29
 2809               	/* prologue: function */
 2810               	/* frame size = 0 */
 2811               	.LBB617:
 2812               	.LBB618:
 2813               	.LBB619:
 2814               	.LBB620:
 2815               	.LM305:
 2816 0bb4 C091 0000 		lds r28,Timebase
 2817 0bb8 D091 0000 		lds r29,(Timebase)+1
 2818 0bbc 682F      		mov r22,r24
 2819 0bbe 70E0      		ldi r23,lo8(0)
 2820               	.LBE620:
 2821               	.LBE619:
 2822               	.LM306:
 2823 0bc0 8DE0      		ldi r24,lo8(13)
 2824 0bc2 90E0      		ldi r25,hi8(13)
 2825               	.LVL164:
 2826 0bc4 689F      		mul r22,r24
 2827 0bc6 F001      		movw r30,r0
 2828 0bc8 699F      		mul r22,r25
 2829 0bca F00D      		add r31,r0
 2830 0bcc 789F      		mul r23,r24
 2831 0bce F00D      		add r31,r0
 2832 0bd0 1124      		clr r1
 2833 0bd2 EC0F      		add r30,r28
 2834 0bd4 FD1F      		adc r31,r29
 2835 0bd6 27A5      		ldd r18,Z+47
 2836 0bd8 30A9      		ldd r19,Z+48
 2837 0bda 41A9      		ldd r20,Z+49
 2838 0bdc 52A9      		ldd r21,Z+50
 2839               	.LVL165:
 2840 0bde 83A9      		ldd r24,Z+51
 2841 0be0 94A9      		ldd r25,Z+52
 2842 0be2 A5A9      		ldd r26,Z+53
 2843 0be4 B6A9      		ldd r27,Z+54
 2844 0be6 281B      		sub r18,r24
 2845 0be8 390B      		sbc r19,r25
 2846 0bea 4A0B      		sbc r20,r26
 2847 0bec 5B0B      		sbc r21,r27
 2848               	.LM307:
 2849 0bee 57FD      		sbrc r21,7
 2850 0bf0 00C0      		rjmp .L131
 2851               	.LBE618:
 2852               	.LBE617:
 2853               	.LM308:
 2854 0bf2 2115      		cp r18,__zero_reg__
 2855 0bf4 3105      		cpc r19,__zero_reg__
 2856 0bf6 4105      		cpc r20,__zero_reg__
 2857 0bf8 5105      		cpc r21,__zero_reg__
 2858 0bfa 01F0      		breq .L131
 2859 0bfc 20E0      		ldi r18,lo8(0)
 2860               	.LVL166:
 2861 0bfe 00C0      		rjmp .L132
 2862               	.LVL167:
 2863               	.L131:
 2864 0c00 20E0      		ldi r18,lo8(0)
 2865               	.LVL168:
 2866 0c02 8DE0      		ldi r24,lo8(13)
 2867 0c04 90E0      		ldi r25,hi8(13)
 2868 0c06 AC01      		movw r20,r24
 2869 0c08 649F      		mul r22,r20
 2870 0c0a C001      		movw r24,r0
 2871 0c0c 659F      		mul r22,r21
 2872 0c0e 900D      		add r25,r0
 2873 0c10 749F      		mul r23,r20
 2874 0c12 900D      		add r25,r0
 2875 0c14 1124      		clr r1
 2876 0c16 C80F      		add r28,r24
 2877 0c18 D91F      		adc r29,r25
 2878 0c1a 8AA5      		ldd r24,Y+42
 2879 0c1c 80FF      		sbrs r24,0
 2880 0c1e 21E0      		ldi r18,lo8(1)
 2881               	.L133:
 2882 0c20 81E0      		ldi r24,lo8(1)
 2883 0c22 2827      		eor r18,r24
 2884               	.L132:
 2885               	.LM309:
 2886 0c24 822F      		mov r24,r18
 2887               	/* epilogue start */
 2888 0c26 DF91      		pop r29
 2889 0c28 CF91      		pop r28
 2890 0c2a 0895      		ret
 2891               	.LFE47:
 2893               	.global	Timebase_DownCounter_Period_Value_Expired_Event
 2895               	Timebase_DownCounter_Period_Value_Expired_Event:
 2896               	.LFB48:
 2897               	.LM310:
 2898               	.LVL169:
 2899 0c2c 1F93      		push r17
 2900               	/* prologue: function */
 2901               	/* frame size = 0 */
 2902 0c2e 182F      		mov r17,r24
 2903               	.LM311:
 2904 0c30 0E94 0000 		call Timebase_DownCounter_Period_Value_Expired
 2905               	.LVL170:
 2906 0c34 8130      		cpi r24,lo8(1)
 2907 0c36 01F0      		breq .L136
 2908 0c38 80E0      		ldi r24,lo8(0)
 2909 0c3a 00C0      		rjmp .L137
 2910               	.L136:
 2911               	.LBB621:
 2912               	.LBB622:
 2913               	.LM312:
 2914 0c3c E091 0000 		lds r30,Timebase
 2915 0c40 F091 0000 		lds r31,(Timebase)+1
 2916 0c44 212F      		mov r18,r17
 2917 0c46 30E0      		ldi r19,lo8(0)
 2918               	.LVL171:
 2919 0c48 8DE0      		ldi r24,lo8(13)
 2920 0c4a 90E0      		ldi r25,hi8(13)
 2921 0c4c AC01      		movw r20,r24
 2922 0c4e 249F      		mul r18,r20
 2923 0c50 C001      		movw r24,r0
 2924 0c52 259F      		mul r18,r21
 2925 0c54 900D      		add r25,r0
 2926 0c56 349F      		mul r19,r20
 2927 0c58 900D      		add r25,r0
 2928 0c5a 1124      		clr r1
 2929 0c5c E80F      		add r30,r24
 2930 0c5e F91F      		adc r31,r25
 2931 0c60 82A5      		ldd r24,Z+42
 2932 0c62 8E7F      		andi r24,lo8(-2)
 2933 0c64 82A7      		std Z+42,r24
 2934 0c66 81E0      		ldi r24,lo8(1)
 2935               	.L137:
 2936               	/* epilogue start */
 2937               	.LBE622:
 2938               	.LBE621:
 2939               	.LM313:
 2940 0c68 1F91      		pop r17
 2941               	.LVL172:
 2942 0c6a 0895      		ret
 2943               	.LFE48:
 2945               	.global	Timebase_DownCounter_Update_All
 2947               	Timebase_DownCounter_Update_All:
 2948               	.LFB49:
 2949               	.LM314:
 2950               	/* prologue: function */
 2951               	/* frame size = 0 */
 2952               	.LBB623:
 2953               	.LM315:
 2954 0c6c 80E0      		ldi r24,lo8(0)
 2955 0c6e 0E94 0000 		call Timebase_DownCounter_Update
 2956               	/* epilogue start */
 2957               	.LBE623:
 2958               	.LM316:
 2959 0c72 0895      		ret
 2960               	.LFE49:
 2962               	.global	Timebase_DownCounter_Reset_All
 2964               	Timebase_DownCounter_Reset_All:
 2965               	.LFB50:
 2966               	.LM317:
 2967               	/* prologue: function */
 2968               	/* frame size = 0 */
 2969               	.LBB624:
 2970               	.LBB625:
 2971               	.LBB626:
 2972               	.LBB627:
 2973               	.LBB628:
 2974               	.LM318:
 2975 0c74 E091 0000 		lds r30,Timebase
 2976 0c78 F091 0000 		lds r31,(Timebase)+1
 2977 0c7c 13A6      		std Z+43,__zero_reg__
 2978 0c7e 14A6      		std Z+44,__zero_reg__
 2979 0c80 15A6      		std Z+45,__zero_reg__
 2980 0c82 16A6      		std Z+46,__zero_reg__
 2981               	.LBE628:
 2982               	.LBE627:
 2983               	.LBB629:
 2984               	.LBB630:
 2985               	.LM319:
 2986 0c84 17A6      		std Z+47,__zero_reg__
 2987 0c86 10AA      		std Z+48,__zero_reg__
 2988 0c88 11AA      		std Z+49,__zero_reg__
 2989 0c8a 12AA      		std Z+50,__zero_reg__
 2990               	.LBE630:
 2991               	.LBE629:
 2992               	.LBB631:
 2993               	.LBB632:
 2994               	.LM320:
 2995 0c8c 82A5      		ldd r24,Z+42
 2996               	.LBE632:
 2997               	.LBE631:
 2998               	.LBB633:
 2999               	.LBB634:
 3000               	.LM321:
 3001 0c8e 807E      		andi r24,lo8(-32)
 3002 0c90 82A7      		std Z+42,r24
 3003               	/* epilogue start */
 3004               	.LBE634:
 3005               	.LBE633:
 3006               	.LBE626:
 3007               	.LBE625:
 3008               	.LBE624:
 3009               	.LM322:
 3010 0c92 0895      		ret
 3011               	.LFE50:
 3013               	.global	Timebase_DownCounter_SS_Get_Status
 3015               	Timebase_DownCounter_SS_Get_Status:
 3016               	.LFB51:
 3017               	.LM323:
 3018               	.LVL173:
 3019               	/* prologue: function */
 3020               	/* frame size = 0 */
 3021               	.LM324:
 3022 0c94 E091 0000 		lds r30,Timebase
 3023 0c98 F091 0000 		lds r31,(Timebase)+1
 3024 0c9c 90E0      		ldi r25,lo8(0)
 3025               	.LVL174:
 3026 0c9e 9C01      		movw r18,r24
 3027 0ca0 44E0      		ldi r20,4
 3028 0ca2 220F      	1:	lsl r18
 3029 0ca4 331F      		rol r19
 3030 0ca6 4A95      		dec r20
 3031 0ca8 01F4      		brne 1b
 3032 0caa 280F      		add r18,r24
 3033 0cac 391F      		adc r19,r25
 3034 0cae E20F      		add r30,r18
 3035 0cb0 F31F      		adc r31,r19
 3036 0cb2 818D      		ldd r24,Z+25
 3037               	.LVL175:
 3038 0cb4 8695      		lsr r24
 3039               	.LM325:
 3040 0cb6 8F70      		andi r24,lo8(15)
 3041               	/* epilogue start */
 3042 0cb8 0895      		ret
 3043               	.LFE51:
 3045               	.global	Timebase_DownCounter_SS_Set_Status
 3047               	Timebase_DownCounter_SS_Set_Status:
 3048               	.LFB52:
 3049               	.LM326:
 3050               	.LVL176:
 3051               	/* prologue: function */
 3052               	/* frame size = 0 */
 3053               	.LM327:
 3054 0cba E091 0000 		lds r30,Timebase
 3055 0cbe F091 0000 		lds r31,(Timebase)+1
 3056 0cc2 90E0      		ldi r25,lo8(0)
 3057               	.LVL177:
 3058 0cc4 9C01      		movw r18,r24
 3059 0cc6 54E0      		ldi r21,4
 3060 0cc8 220F      	1:	lsl r18
 3061 0cca 331F      		rol r19
 3062 0ccc 5A95      		dec r21
 3063 0cce 01F4      		brne 1b
 3064 0cd0 280F      		add r18,r24
 3065 0cd2 391F      		adc r19,r25
 3066 0cd4 E20F      		add r30,r18
 3067 0cd6 F31F      		adc r31,r19
 3068 0cd8 6F70      		andi r22,lo8(15)
 3069               	.LVL178:
 3070 0cda 660F      		lsl r22
 3071 0cdc 818D      		ldd r24,Z+25
 3072               	.LVL179:
 3073 0cde 817E      		andi r24,lo8(-31)
 3074 0ce0 862B      		or r24,r22
 3075 0ce2 818F      		std Z+25,r24
 3076               	/* epilogue start */
 3077               	.LM328:
 3078 0ce4 0895      		ret
 3079               	.LFE52:
 3081               	.global	Timebase_DownCounter_SS_Get_Value
 3083               	Timebase_DownCounter_SS_Get_Value:
 3084               	.LFB53:
 3085               	.LM329:
 3086               	.LVL180:
 3087               	/* prologue: function */
 3088               	/* frame size = 0 */
 3089               	.LM330:
 3090 0ce6 E091 0000 		lds r30,Timebase
 3091 0cea F091 0000 		lds r31,(Timebase)+1
 3092 0cee 90E0      		ldi r25,lo8(0)
 3093               	.LVL181:
 3094 0cf0 9C01      		movw r18,r24
 3095 0cf2 64E0      		ldi r22,4
 3096 0cf4 220F      	1:	lsl r18
 3097 0cf6 331F      		rol r19
 3098 0cf8 6A95      		dec r22
 3099 0cfa 01F4      		brne 1b
 3100 0cfc 280F      		add r18,r24
 3101 0cfe 391F      		adc r19,r25
 3102 0d00 E20F      		add r30,r18
 3103 0d02 F31F      		adc r31,r19
 3104 0d04 DF01      		movw r26,r30
 3105 0d06 9296      		adiw r26,34
 3106 0d08 62A1      		ldd r22,Z+34
 3107 0d0a 1196      		adiw r26,1
 3108 0d0c 7C91      		ld r23,X
 3109 0d0e 1197      		sbiw r26,1
 3110               	.LM331:
 3111 0d10 1296      		adiw r26,2
 3112 0d12 8C91      		ld r24,X
 3113 0d14 1297      		sbiw r26,2
 3114               	.LVL182:
 3115 0d16 1396      		adiw r26,3
 3116 0d18 9C91      		ld r25,X
 3117               	.LVL183:
 3118               	/* epilogue start */
 3119 0d1a 0895      		ret
 3120               	.LFE53:
 3122               	.global	Timebase_DownCounter_SS_Set_Value
 3124               	Timebase_DownCounter_SS_Set_Value:
 3125               	.LFB54:
 3126               	.LM332:
 3127               	.LVL184:
 3128               	/* prologue: function */
 3129               	/* frame size = 0 */
 3130               	.LM333:
 3131 0d1c E091 0000 		lds r30,Timebase
 3132 0d20 F091 0000 		lds r31,(Timebase)+1
 3133 0d24 90E0      		ldi r25,lo8(0)
 3134               	.LVL185:
 3135 0d26 9C01      		movw r18,r24
 3136 0d28 A4E0      		ldi r26,4
 3137 0d2a 220F      	1:	lsl r18
 3138 0d2c 331F      		rol r19
 3139 0d2e AA95      		dec r26
 3140 0d30 01F4      		brne 1b
 3141 0d32 280F      		add r18,r24
 3142 0d34 391F      		adc r19,r25
 3143 0d36 E20F      		add r30,r18
 3144 0d38 F31F      		adc r31,r19
 3145 0d3a 42A3      		std Z+34,r20
 3146 0d3c 53A3      		std Z+35,r21
 3147 0d3e 64A3      		std Z+36,r22
 3148 0d40 75A3      		std Z+37,r23
 3149               	/* epilogue start */
 3150               	.LM334:
 3151 0d42 0895      		ret
 3152               	.LFE54:
 3154               	.global	Timebase_DownCounter_SS_Get_EndValueSec
 3156               	Timebase_DownCounter_SS_Get_EndValueSec:
 3157               	.LFB55:
 3158               	.LM335:
 3159               	.LVL186:
 3160               	/* prologue: function */
 3161               	/* frame size = 0 */
 3162               	.LM336:
 3163 0d44 E091 0000 		lds r30,Timebase
 3164 0d48 F091 0000 		lds r31,(Timebase)+1
 3165 0d4c 90E0      		ldi r25,lo8(0)
 3166               	.LVL187:
 3167 0d4e 9C01      		movw r18,r24
 3168 0d50 B4E0      		ldi r27,4
 3169 0d52 220F      	1:	lsl r18
 3170 0d54 331F      		rol r19
 3171 0d56 BA95      		dec r27
 3172 0d58 01F4      		brne 1b
 3173 0d5a 280F      		add r18,r24
 3174 0d5c 391F      		adc r19,r25
 3175 0d5e E20F      		add r30,r18
 3176 0d60 F31F      		adc r31,r19
 3177 0d62 DF01      		movw r26,r30
 3178 0d64 5A96      		adiw r26,26
 3179 0d66 628D      		ldd r22,Z+26
 3180 0d68 1196      		adiw r26,1
 3181 0d6a 7C91      		ld r23,X
 3182 0d6c 1197      		sbiw r26,1
 3183               	.LM337:
 3184 0d6e 1296      		adiw r26,2
 3185 0d70 8C91      		ld r24,X
 3186 0d72 1297      		sbiw r26,2
 3187               	.LVL188:
 3188 0d74 1396      		adiw r26,3
 3189 0d76 9C91      		ld r25,X
 3190               	.LVL189:
 3191               	/* epilogue start */
 3192 0d78 0895      		ret
 3193               	.LFE55:
 3195               	.global	Timebase_DownCounter_SS_Get_EndValueSubSec
 3197               	Timebase_DownCounter_SS_Get_EndValueSubSec:
 3198               	.LFB56:
 3199               	.LM338:
 3200               	.LVL190:
 3201               	/* prologue: function */
 3202               	/* frame size = 0 */
 3203               	.LM339:
 3204 0d7a E091 0000 		lds r30,Timebase
 3205 0d7e F091 0000 		lds r31,(Timebase)+1
 3206 0d82 90E0      		ldi r25,lo8(0)
 3207               	.LVL191:
 3208 0d84 9C01      		movw r18,r24
 3209 0d86 44E0      		ldi r20,4
 3210 0d88 220F      	1:	lsl r18
 3211 0d8a 331F      		rol r19
 3212 0d8c 4A95      		dec r20
 3213 0d8e 01F4      		brne 1b
 3214 0d90 280F      		add r18,r24
 3215 0d92 391F      		adc r19,r25
 3216 0d94 E20F      		add r30,r18
 3217 0d96 F31F      		adc r31,r19
 3218 0d98 DF01      		movw r26,r30
 3219 0d9a 5E96      		adiw r26,30
 3220 0d9c 668D      		ldd r22,Z+30
 3221 0d9e 1196      		adiw r26,1
 3222 0da0 7C91      		ld r23,X
 3223 0da2 1197      		sbiw r26,1
 3224               	.LM340:
 3225 0da4 1296      		adiw r26,2
 3226 0da6 8C91      		ld r24,X
 3227 0da8 1297      		sbiw r26,2
 3228               	.LVL192:
 3229 0daa 1396      		adiw r26,3
 3230 0dac 9C91      		ld r25,X
 3231               	.LVL193:
 3232               	/* epilogue start */
 3233 0dae 0895      		ret
 3234               	.LFE56:
 3236               	.global	Timebase_DownCounter_SS_Set_EndValueSec
 3238               	Timebase_DownCounter_SS_Set_EndValueSec:
 3239               	.LFB57:
 3240               	.LM341:
 3241               	.LVL194:
 3242               	/* prologue: function */
 3243               	/* frame size = 0 */
 3244               	.LM342:
 3245 0db0 E091 0000 		lds r30,Timebase
 3246 0db4 F091 0000 		lds r31,(Timebase)+1
 3247 0db8 90E0      		ldi r25,lo8(0)
 3248               	.LVL195:
 3249 0dba 9C01      		movw r18,r24
 3250 0dbc A4E0      		ldi r26,4
 3251 0dbe 220F      	1:	lsl r18
 3252 0dc0 331F      		rol r19
 3253 0dc2 AA95      		dec r26
 3254 0dc4 01F4      		brne 1b
 3255 0dc6 280F      		add r18,r24
 3256 0dc8 391F      		adc r19,r25
 3257 0dca E20F      		add r30,r18
 3258 0dcc F31F      		adc r31,r19
 3259 0dce 428F      		std Z+26,r20
 3260 0dd0 538F      		std Z+27,r21
 3261 0dd2 648F      		std Z+28,r22
 3262 0dd4 758F      		std Z+29,r23
 3263               	/* epilogue start */
 3264               	.LM343:
 3265 0dd6 0895      		ret
 3266               	.LFE57:
 3268               	.global	Timebase_DownCounter_SS_Set_EndValueSubSec
 3270               	Timebase_DownCounter_SS_Set_EndValueSubSec:
 3271               	.LFB58:
 3272               	.LM344:
 3273               	.LVL196:
 3274               	/* prologue: function */
 3275               	/* frame size = 0 */
 3276               	.LM345:
 3277 0dd8 E091 0000 		lds r30,Timebase
 3278 0ddc F091 0000 		lds r31,(Timebase)+1
 3279 0de0 90E0      		ldi r25,lo8(0)
 3280               	.LVL197:
 3281 0de2 9C01      		movw r18,r24
 3282 0de4 B4E0      		ldi r27,4
 3283 0de6 220F      	1:	lsl r18
 3284 0de8 331F      		rol r19
 3285 0dea BA95      		dec r27
 3286 0dec 01F4      		brne 1b
 3287 0dee 280F      		add r18,r24
 3288 0df0 391F      		adc r19,r25
 3289 0df2 E20F      		add r30,r18
 3290 0df4 F31F      		adc r31,r19
 3291 0df6 468F      		std Z+30,r20
 3292 0df8 578F      		std Z+31,r21
 3293 0dfa 60A3      		std Z+32,r22
 3294 0dfc 71A3      		std Z+33,r23
 3295               	/* epilogue start */
 3296               	.LM346:
 3297 0dfe 0895      		ret
 3298               	.LFE58:
 3300               	.global	Timebase_DownCounter_SS_Get_PeriodValue
 3302               	Timebase_DownCounter_SS_Get_PeriodValue:
 3303               	.LFB59:
 3304               	.LM347:
 3305               	.LVL198:
 3306               	/* prologue: function */
 3307               	/* frame size = 0 */
 3308               	.LM348:
 3309 0e00 E091 0000 		lds r30,Timebase
 3310 0e04 F091 0000 		lds r31,(Timebase)+1
 3311 0e08 90E0      		ldi r25,lo8(0)
 3312               	.LVL199:
 3313 0e0a 9C01      		movw r18,r24
 3314 0e0c 44E0      		ldi r20,4
 3315 0e0e 220F      	1:	lsl r18
 3316 0e10 331F      		rol r19
 3317 0e12 4A95      		dec r20
 3318 0e14 01F4      		brne 1b
 3319 0e16 280F      		add r18,r24
 3320 0e18 391F      		adc r19,r25
 3321 0e1a E20F      		add r30,r18
 3322 0e1c F31F      		adc r31,r19
 3323 0e1e DF01      		movw r26,r30
 3324 0e20 9696      		adiw r26,38
 3325 0e22 66A1      		ldd r22,Z+38
 3326 0e24 1196      		adiw r26,1
 3327 0e26 7C91      		ld r23,X
 3328 0e28 1197      		sbiw r26,1
 3329               	.LM349:
 3330 0e2a 1296      		adiw r26,2
 3331 0e2c 8C91      		ld r24,X
 3332 0e2e 1297      		sbiw r26,2
 3333               	.LVL200:
 3334 0e30 1396      		adiw r26,3
 3335 0e32 9C91      		ld r25,X
 3336               	.LVL201:
 3337               	/* epilogue start */
 3338 0e34 0895      		ret
 3339               	.LFE59:
 3341               	.global	Timebase_DownCounter_SS_Set_PeriodValue
 3343               	Timebase_DownCounter_SS_Set_PeriodValue:
 3344               	.LFB60:
 3345               	.LM350:
 3346               	.LVL202:
 3347               	/* prologue: function */
 3348               	/* frame size = 0 */
 3349 0e36 E091 0000 		lds r30,Timebase
 3350 0e3a F091 0000 		lds r31,(Timebase)+1
 3351 0e3e 282F      		mov r18,r24
 3352 0e40 30E0      		ldi r19,lo8(0)
 3353               	.LVL203:
 3354               	.LM351:
 3355 0e42 77FF      		sbrs r23,7
 3356 0e44 00C0      		rjmp .L162
 3357               	.LVL204:
 3358               	.LM352:
 3359 0e46 C901      		movw r24,r18
 3360 0e48 B4E0      		ldi r27,4
 3361 0e4a 880F      	1:	lsl r24
 3362 0e4c 991F      		rol r25
 3363 0e4e BA95      		dec r27
 3364 0e50 01F4      		brne 1b
 3365 0e52 820F      		add r24,r18
 3366 0e54 931F      		adc r25,r19
 3367 0e56 E80F      		add r30,r24
 3368 0e58 F91F      		adc r31,r25
 3369 0e5a 16A2      		std Z+38,__zero_reg__
 3370 0e5c 17A2      		std Z+39,__zero_reg__
 3371 0e5e 10A6      		std Z+40,__zero_reg__
 3372 0e60 11A6      		std Z+41,__zero_reg__
 3373 0e62 0895      		ret
 3374               	.LVL205:
 3375               	.L162:
 3376               	.LM353:
 3377 0e64 C901      		movw r24,r18
 3378 0e66 A4E0      		ldi r26,4
 3379 0e68 880F      	1:	lsl r24
 3380 0e6a 991F      		rol r25
 3381 0e6c AA95      		dec r26
 3382 0e6e 01F4      		brne 1b
 3383 0e70 820F      		add r24,r18
 3384 0e72 931F      		adc r25,r19
 3385 0e74 E80F      		add r30,r24
 3386 0e76 F91F      		adc r31,r25
 3387 0e78 46A3      		std Z+38,r20
 3388 0e7a 57A3      		std Z+39,r21
 3389 0e7c 60A7      		std Z+40,r22
 3390 0e7e 71A7      		std Z+41,r23
 3391 0e80 0895      		ret
 3392               	.LFE60:
 3394               	.global	Timebase_DownCounter_SS_Get_Period_Flag
 3396               	Timebase_DownCounter_SS_Get_Period_Flag:
 3397               	.LFB61:
 3398               	.LM354:
 3399               	.LVL206:
 3400               	/* prologue: function */
 3401               	/* frame size = 0 */
 3402               	.LM355:
 3403 0e82 E091 0000 		lds r30,Timebase
 3404 0e86 F091 0000 		lds r31,(Timebase)+1
 3405 0e8a 90E0      		ldi r25,lo8(0)
 3406               	.LVL207:
 3407 0e8c 9C01      		movw r18,r24
 3408 0e8e 44E0      		ldi r20,4
 3409 0e90 220F      	1:	lsl r18
 3410 0e92 331F      		rol r19
 3411 0e94 4A95      		dec r20
 3412 0e96 01F4      		brne 1b
 3413 0e98 280F      		add r18,r24
 3414 0e9a 391F      		adc r19,r25
 3415 0e9c E20F      		add r30,r18
 3416 0e9e F31F      		adc r31,r19
 3417 0ea0 818D      		ldd r24,Z+25
 3418               	.LVL208:
 3419               	.LM356:
 3420 0ea2 8170      		andi r24,lo8(1)
 3421               	/* epilogue start */
 3422 0ea4 0895      		ret
 3423               	.LFE61:
 3425               	.global	Timebase_DownCounter_SS_Set_Period_Flag
 3427               	Timebase_DownCounter_SS_Set_Period_Flag:
 3428               	.LFB62:
 3429               	.LM357:
 3430               	.LVL209:
 3431               	/* prologue: function */
 3432               	/* frame size = 0 */
 3433               	.LM358:
 3434 0ea6 E091 0000 		lds r30,Timebase
 3435 0eaa F091 0000 		lds r31,(Timebase)+1
 3436 0eae 90E0      		ldi r25,lo8(0)
 3437               	.LVL210:
 3438 0eb0 9C01      		movw r18,r24
 3439 0eb2 54E0      		ldi r21,4
 3440 0eb4 220F      	1:	lsl r18
 3441 0eb6 331F      		rol r19
 3442 0eb8 5A95      		dec r21
 3443 0eba 01F4      		brne 1b
 3444 0ebc 280F      		add r18,r24
 3445 0ebe 391F      		adc r19,r25
 3446 0ec0 E20F      		add r30,r18
 3447 0ec2 F31F      		adc r31,r19
 3448 0ec4 818D      		ldd r24,Z+25
 3449               	.LVL211:
 3450 0ec6 8160      		ori r24,lo8(1)
 3451 0ec8 818F      		std Z+25,r24
 3452               	/* epilogue start */
 3453               	.LM359:
 3454 0eca 0895      		ret
 3455               	.LFE62:
 3457               	.global	Timebase_DownCounter_SS_Clear_Period_Flag
 3459               	Timebase_DownCounter_SS_Clear_Period_Flag:
 3460               	.LFB63:
 3461               	.LM360:
 3462               	.LVL212:
 3463               	/* prologue: function */
 3464               	/* frame size = 0 */
 3465               	.LM361:
 3466 0ecc E091 0000 		lds r30,Timebase
 3467 0ed0 F091 0000 		lds r31,(Timebase)+1
 3468 0ed4 90E0      		ldi r25,lo8(0)
 3469               	.LVL213:
 3470 0ed6 9C01      		movw r18,r24
 3471 0ed8 64E0      		ldi r22,4
 3472 0eda 220F      	1:	lsl r18
 3473 0edc 331F      		rol r19
 3474 0ede 6A95      		dec r22
 3475 0ee0 01F4      		brne 1b
 3476 0ee2 280F      		add r18,r24
 3477 0ee4 391F      		adc r19,r25
 3478 0ee6 E20F      		add r30,r18
 3479 0ee8 F31F      		adc r31,r19
 3480 0eea 818D      		ldd r24,Z+25
 3481               	.LVL214:
 3482 0eec 8E7F      		andi r24,lo8(-2)
 3483 0eee 818F      		std Z+25,r24
 3484               	/* epilogue start */
 3485               	.LM362:
 3486 0ef0 0895      		ret
 3487               	.LFE63:
 3489               	.global	Timebase_DownCounter_SS_Reset
 3491               	Timebase_DownCounter_SS_Reset:
 3492               	.LFB64:
 3493               	.LM363:
 3494               	.LVL215:
 3495               	/* prologue: function */
 3496               	/* frame size = 0 */
 3497               	.LBB635:
 3498               	.LBB636:
 3499               	.LM364:
 3500 0ef2 E091 0000 		lds r30,Timebase
 3501 0ef6 F091 0000 		lds r31,(Timebase)+1
 3502 0efa 90E0      		ldi r25,lo8(0)
 3503 0efc 9C01      		movw r18,r24
 3504               	.LVL216:
 3505 0efe 74E0      		ldi r23,4
 3506 0f00 220F      	1:	lsl r18
 3507 0f02 331F      		rol r19
 3508 0f04 7A95      		dec r23
 3509 0f06 01F4      		brne 1b
 3510 0f08 280F      		add r18,r24
 3511 0f0a 391F      		adc r19,r25
 3512 0f0c E20F      		add r30,r18
 3513 0f0e F31F      		adc r31,r19
 3514 0f10 168E      		std Z+30,__zero_reg__
 3515 0f12 178E      		std Z+31,__zero_reg__
 3516 0f14 10A2      		std Z+32,__zero_reg__
 3517 0f16 11A2      		std Z+33,__zero_reg__
 3518               	.LBE636:
 3519               	.LBE635:
 3520               	.LBB637:
 3521               	.LBB638:
 3522               	.LM365:
 3523 0f18 128E      		std Z+26,__zero_reg__
 3524 0f1a 138E      		std Z+27,__zero_reg__
 3525 0f1c 148E      		std Z+28,__zero_reg__
 3526 0f1e 158E      		std Z+29,__zero_reg__
 3527               	.LBE638:
 3528               	.LBE637:
 3529               	.LBB639:
 3530               	.LBB640:
 3531               	.LM366:
 3532 0f20 12A2      		std Z+34,__zero_reg__
 3533 0f22 13A2      		std Z+35,__zero_reg__
 3534 0f24 14A2      		std Z+36,__zero_reg__
 3535 0f26 15A2      		std Z+37,__zero_reg__
 3536               	.LBE640:
 3537               	.LBE639:
 3538               	.LBB641:
 3539               	.LBB642:
 3540               	.LM367:
 3541 0f28 818D      		ldd r24,Z+25
 3542               	.LBE642:
 3543               	.LBE641:
 3544               	.LBB643:
 3545               	.LBB644:
 3546               	.LM368:
 3547 0f2a 807E      		andi r24,lo8(-32)
 3548 0f2c 818F      		std Z+25,r24
 3549               	/* epilogue start */
 3550               	.LBE644:
 3551               	.LBE643:
 3552               	.LM369:
 3553 0f2e 0895      		ret
 3554               	.LFE64:
 3556               	.global	Timebase_DownCounter_SS_Clear_All_Flags
 3558               	Timebase_DownCounter_SS_Clear_All_Flags:
 3559               	.LFB65:
 3560               	.LM370:
 3561               	.LVL217:
 3562               	/* prologue: function */
 3563               	/* frame size = 0 */
 3564               	.LBB645:
 3565               	.LBB646:
 3566               	.LBB647:
 3567               	.LBB648:
 3568               	.LM371:
 3569 0f30 E091 0000 		lds r30,Timebase
 3570 0f34 F091 0000 		lds r31,(Timebase)+1
 3571 0f38 90E0      		ldi r25,lo8(0)
 3572 0f3a 9C01      		movw r18,r24
 3573               	.LVL218:
 3574 0f3c A4E0      		ldi r26,4
 3575 0f3e 220F      	1:	lsl r18
 3576 0f40 331F      		rol r19
 3577 0f42 AA95      		dec r26
 3578 0f44 01F4      		brne 1b
 3579 0f46 280F      		add r18,r24
 3580 0f48 391F      		adc r19,r25
 3581 0f4a E20F      		add r30,r18
 3582 0f4c F31F      		adc r31,r19
 3583 0f4e 168E      		std Z+30,__zero_reg__
 3584 0f50 178E      		std Z+31,__zero_reg__
 3585 0f52 10A2      		std Z+32,__zero_reg__
 3586 0f54 11A2      		std Z+33,__zero_reg__
 3587               	.LBE648:
 3588               	.LBE647:
 3589               	.LBB649:
 3590               	.LBB650:
 3591               	.LM372:
 3592 0f56 128E      		std Z+26,__zero_reg__
 3593 0f58 138E      		std Z+27,__zero_reg__
 3594 0f5a 148E      		std Z+28,__zero_reg__
 3595 0f5c 158E      		std Z+29,__zero_reg__
 3596               	.LBE650:
 3597               	.LBE649:
 3598               	.LBB651:
 3599               	.LBB652:
 3600               	.LM373:
 3601 0f5e 12A2      		std Z+34,__zero_reg__
 3602 0f60 13A2      		std Z+35,__zero_reg__
 3603 0f62 14A2      		std Z+36,__zero_reg__
 3604 0f64 15A2      		std Z+37,__zero_reg__
 3605               	.LBE652:
 3606               	.LBE651:
 3607               	.LBB653:
 3608               	.LBB654:
 3609               	.LM374:
 3610 0f66 818D      		ldd r24,Z+25
 3611               	.LBE654:
 3612               	.LBE653:
 3613               	.LBB655:
 3614               	.LBB656:
 3615               	.LM375:
 3616 0f68 807E      		andi r24,lo8(-32)
 3617 0f6a 818F      		std Z+25,r24
 3618               	/* epilogue start */
 3619               	.LBE656:
 3620               	.LBE655:
 3621               	.LBE646:
 3622               	.LBE645:
 3623               	.LM376:
 3624 0f6c 0895      		ret
 3625               	.LFE65:
 3627               	.global	Timebase_DownCounter_SS_Start
 3629               	Timebase_DownCounter_SS_Start:
 3630               	.LFB66:
 3631               	.LM377:
 3632               	.LVL219:
 3633               	/* prologue: function */
 3634               	/* frame size = 0 */
 3635               	.LBB657:
 3636               	.LBB658:
 3637               	.LM378:
 3638 0f6e E091 0000 		lds r30,Timebase
 3639 0f72 F091 0000 		lds r31,(Timebase)+1
 3640 0f76 90E0      		ldi r25,lo8(0)
 3641               	.LBE658:
 3642               	.LBE657:
 3643               	.LM379:
 3644 0f78 9C01      		movw r18,r24
 3645               	.LVL220:
 3646 0f7a B4E0      		ldi r27,4
 3647 0f7c 220F      	1:	lsl r18
 3648 0f7e 331F      		rol r19
 3649 0f80 BA95      		dec r27
 3650 0f82 01F4      		brne 1b
 3651 0f84 280F      		add r18,r24
 3652 0f86 391F      		adc r19,r25
 3653 0f88 E20F      		add r30,r18
 3654 0f8a F31F      		adc r31,r19
 3655 0f8c 918D      		ldd r25,Z+25
 3656 0f8e 892F      		mov r24,r25
 3657 0f90 8695      		lsr r24
 3658 0f92 8F70      		andi r24,lo8(15)
 3659 0f94 8130      		cpi r24,lo8(1)
 3660 0f96 01F0      		breq .L177
 3661               	.LBB659:
 3662               	.LBB660:
 3663               	.LM380:
 3664 0f98 917E      		andi r25,lo8(-31)
 3665 0f9a 9260      		ori r25,lo8(2)
 3666 0f9c 918F      		std Z+25,r25
 3667               	.L177:
 3668 0f9e 0895      		ret
 3669               	.LBE660:
 3670               	.LBE659:
 3671               	.LFE66:
 3673               	.global	Timebase_DownCounter_SS_Stop
 3675               	Timebase_DownCounter_SS_Stop:
 3676               	.LFB67:
 3677               	.LM381:
 3678               	.LVL221:
 3679               	/* prologue: function */
 3680               	/* frame size = 0 */
 3681               	.LBB661:
 3682               	.LBB662:
 3683               	.LM382:
 3684 0fa0 E091 0000 		lds r30,Timebase
 3685 0fa4 F091 0000 		lds r31,(Timebase)+1
 3686 0fa8 90E0      		ldi r25,lo8(0)
 3687               	.LBE662:
 3688               	.LBE661:
 3689               	.LM383:
 3690 0faa 9C01      		movw r18,r24
 3691               	.LVL222:
 3692 0fac 44E0      		ldi r20,4
 3693 0fae 220F      	1:	lsl r18
 3694 0fb0 331F      		rol r19
 3695 0fb2 4A95      		dec r20
 3696 0fb4 01F4      		brne 1b
 3697 0fb6 280F      		add r18,r24
 3698 0fb8 391F      		adc r19,r25
 3699 0fba E20F      		add r30,r18
 3700 0fbc F31F      		adc r31,r19
 3701 0fbe 918D      		ldd r25,Z+25
 3702 0fc0 892F      		mov r24,r25
 3703 0fc2 8695      		lsr r24
 3704 0fc4 8F70      		andi r24,lo8(15)
 3705 0fc6 8230      		cpi r24,lo8(2)
 3706 0fc8 01F0      		breq .L180
 3707               	.LBB663:
 3708               	.LBB664:
 3709               	.LM384:
 3710 0fca 917E      		andi r25,lo8(-31)
 3711 0fcc 9460      		ori r25,lo8(4)
 3712 0fce 918F      		std Z+25,r25
 3713               	.L180:
 3714 0fd0 0895      		ret
 3715               	.LBE664:
 3716               	.LBE663:
 3717               	.LFE67:
 3719               	.global	Timebase_DownCounter_SS_Set_Securely
 3721               	Timebase_DownCounter_SS_Set_Securely:
 3722               	.LFB68:
 3723               	.LM385:
 3724               	.LVL223:
 3725 0fd2 2F92      		push r2
 3726 0fd4 3F92      		push r3
 3727 0fd6 4F92      		push r4
 3728 0fd8 5F92      		push r5
 3729 0fda 6F92      		push r6
 3730 0fdc 7F92      		push r7
 3731 0fde 8F92      		push r8
 3732 0fe0 9F92      		push r9
 3733 0fe2 AF92      		push r10
 3734 0fe4 BF92      		push r11
 3735 0fe6 CF92      		push r12
 3736 0fe8 DF92      		push r13
 3737 0fea EF92      		push r14
 3738 0fec FF92      		push r15
 3739 0fee 0F93      		push r16
 3740 0ff0 1F93      		push r17
 3741 0ff2 DF93      		push r29
 3742 0ff4 CF93      		push r28
 3743 0ff6 00D0      		rcall .
 3744 0ff8 00D0      		rcall .
 3745 0ffa CDB7      		in r28,__SP_L__
 3746 0ffc DEB7      		in r29,__SP_H__
 3747               	/* prologue: function */
 3748               	/* frame size = 4 */
 3749 0ffe 4A01      		movw r8,r20
 3750 1000 5B01      		movw r10,r22
 3751               	.LBB665:
 3752               	.LBB666:
 3753               	.LM386:
 3754 1002 2091 0000 		lds r18,Timebase
 3755 1006 3091 0000 		lds r19,(Timebase)+1
 3756 100a 3C83      		std Y+4,r19
 3757 100c 2B83      		std Y+3,r18
 3758 100e A82F      		mov r26,r24
 3759 1010 B0E0      		ldi r27,lo8(0)
 3760 1012 BA83      		std Y+2,r27
 3761 1014 A983      		std Y+1,r26
 3762               	.LBE666:
 3763               	.LBE665:
 3764               	.LM387:
 3765 1016 FD01      		movw r30,r26
 3766 1018 64E0      		ldi r22,4
 3767 101a EE0F      	1:	lsl r30
 3768 101c FF1F      		rol r31
 3769 101e 6A95      		dec r22
 3770 1020 01F4      		brne 1b
 3771 1022 EA0F      		add r30,r26
 3772 1024 FB1F      		adc r31,r27
 3773 1026 E20F      		add r30,r18
 3774 1028 F31F      		adc r31,r19
 3775 102a 818D      		ldd r24,Z+25
 3776               	.LVL224:
 3777 102c 8695      		lsr r24
 3778 102e 8F70      		andi r24,lo8(15)
 3779 1030 01F0      		breq .+2
 3780 1032 00C0      		rjmp .L184
 3781               	.LVL225:
 3782               	.LBB667:
 3783               	.LBB668:
 3784               	.LBB669:
 3785               	.LM388:
 3786 1034 82A2      		std Z+34,r8
 3787 1036 93A2      		std Z+35,r9
 3788 1038 A4A2      		std Z+36,r10
 3789 103a B5A2      		std Z+37,r11
 3790               	.LBE669:
 3791               	.LBE668:
 3792               	.LBB670:
 3793               	.LBB671:
 3794               	.LBB672:
 3795               	.LBB673:
 3796               	.LM389:
 3797               	/* #APP */
 3798               	 ;  329 "timebase.c" 1
 3799 103c F894      		cli
 3800               	 ;  0 "" 2
 3801               	/* #NOAPP */
 3802               	.LBE673:
 3803               	.LBE672:
 3804               	.LM390:
 3805 103e F901      		movw r30,r18
 3806 1040 C084      		ldd r12,Z+8
 3807 1042 D184      		ldd r13,Z+9
 3808               	.LVL226:
 3809               	.LBB674:
 3810               	.LBB675:
 3811               	.LM391:
 3812               	/* #APP */
 3813               	 ;  333 "timebase.c" 1
 3814 1044 7894      		sei
 3815               	 ;  0 "" 2
 3816               	/* #NOAPP */
 3817               	.LBE675:
 3818               	.LBE674:
 3819               	.LBE671:
 3820               	.LBE670:
 3821               	.LBB676:
 3822               	.LBB677:
 3823               	.LBB678:
 3824               	.LBB679:
 3825               	.LM392:
 3826               	/* #APP */
 3827               	 ;  329 "timebase.c" 1
 3828 1046 F894      		cli
 3829               	 ;  0 "" 2
 3830               	/* #NOAPP */
 3831               	.LBE679:
 3832               	.LBE678:
 3833               	.LM393:
 3834 1048 2284      		ldd r2,Z+10
 3835 104a 3384      		ldd r3,Z+11
 3836 104c 4484      		ldd r4,Z+12
 3837 104e 5584      		ldd r5,Z+13
 3838               	.LVL227:
 3839               	.LBB680:
 3840               	.LBB681:
 3841               	.LM394:
 3842               	/* #APP */
 3843               	 ;  333 "timebase.c" 1
 3844 1050 7894      		sei
 3845               	 ;  0 "" 2
 3846               	/* #NOAPP */
 3847               	.LBE681:
 3848               	.LBE680:
 3849               	.LBE677:
 3850               	.LBE676:
 3851               	.LM395:
 3852 1052 2181      		ldd r18,Z+1
 3853 1054 3281      		ldd r19,Z+2
 3854 1056 40E0      		ldi r20,lo8(0)
 3855 1058 50E0      		ldi r21,hi8(0)
 3856 105a C501      		movw r24,r10
 3857 105c B401      		movw r22,r8
 3858 105e 0E94 0000 		call __divmodsi4
 3859 1062 7B01      		movw r14,r22
 3860 1064 8C01      		movw r16,r24
 3861               	.LM396:
 3862 1066 AB81      		ldd r26,Y+3
 3863 1068 BC81      		ldd r27,Y+4
 3864 106a 1196      		adiw r26,1
 3865 106c 2D91      		ld r18,X+
 3866 106e 3C91      		ld r19,X
 3867 1070 1297      		sbiw r26,1+1
 3868 1072 40E0      		ldi r20,lo8(0)
 3869 1074 50E0      		ldi r21,hi8(0)
 3870 1076 C501      		movw r24,r10
 3871 1078 B401      		movw r22,r8
 3872 107a 0E94 0000 		call __divmodsi4
 3873 107e C901      		movw r24,r18
 3874 1080 DA01      		movw r26,r20
 3875 1082 3C01      		movw r6,r24
 3876 1084 4D01      		movw r8,r26
 3877               	.LVL228:
 3878               	.LM397:
 3879 1086 5601      		movw r10,r12
 3880               	.LVL229:
 3881 1088 CC24      		clr r12
 3882 108a DD24      		clr r13
 3883               	.LVL230:
 3884 108c AE0C      		add r10,r14
 3885 108e BF1C      		adc r11,r15
 3886 1090 C01E      		adc r12,r16
 3887 1092 D11E      		adc r13,r17
 3888               	.LVL231:
 3889               	.LM398:
 3890 1094 EB81      		ldd r30,Y+3
 3891 1096 FC81      		ldd r31,Y+4
 3892 1098 8181      		ldd r24,Z+1
 3893 109a 9281      		ldd r25,Z+2
 3894               	.LVL232:
 3895 109c A0E0      		ldi r26,lo8(0)
 3896 109e B0E0      		ldi r27,hi8(0)
 3897 10a0 A816      		cp r10,r24
 3898 10a2 B906      		cpc r11,r25
 3899 10a4 CA06      		cpc r12,r26
 3900 10a6 DB06      		cpc r13,r27
 3901 10a8 04F0      		brlt .L183
 3902               	.LM399:
 3903 10aa 0894      		sec
 3904 10ac 611C      		adc r6,__zero_reg__
 3905 10ae 711C      		adc r7,__zero_reg__
 3906 10b0 811C      		adc r8,__zero_reg__
 3907 10b2 911C      		adc r9,__zero_reg__
 3908               	.LM400:
 3909 10b4 2181      		ldd r18,Z+1
 3910 10b6 3281      		ldd r19,Z+2
 3911 10b8 40E0      		ldi r20,lo8(0)
 3912 10ba 50E0      		ldi r21,hi8(0)
 3913 10bc C601      		movw r24,r12
 3914 10be B501      		movw r22,r10
 3915 10c0 0E94 0000 		call __divmodsi4
 3916 10c4 AC01      		movw r20,r24
 3917 10c6 CB01      		movw r24,r22
 3918 10c8 DA01      		movw r26,r20
 3919 10ca 5C01      		movw r10,r24
 3920 10cc 6D01      		movw r12,r26
 3921               	.L183:
 3922               	.LBB682:
 3923               	.LBB683:
 3924               	.LM401:
 3925 10ce E981      		ldd r30,Y+1
 3926 10d0 FA81      		ldd r31,Y+2
 3927 10d2 54E0      		ldi r21,4
 3928 10d4 EE0F      	1:	lsl r30
 3929 10d6 FF1F      		rol r31
 3930 10d8 5A95      		dec r21
 3931 10da 01F4      		brne 1b
 3932 10dc 2981      		ldd r18,Y+1
 3933 10de 3A81      		ldd r19,Y+2
 3934 10e0 E20F      		add r30,r18
 3935 10e2 F31F      		adc r31,r19
 3936 10e4 8B81      		ldd r24,Y+3
 3937 10e6 9C81      		ldd r25,Y+4
 3938 10e8 E80F      		add r30,r24
 3939 10ea F91F      		adc r31,r25
 3940 10ec 260C      		add r2,r6
 3941 10ee 371C      		adc r3,r7
 3942 10f0 481C      		adc r4,r8
 3943 10f2 591C      		adc r5,r9
 3944 10f4 228E      		std Z+26,r2
 3945 10f6 338E      		std Z+27,r3
 3946 10f8 448E      		std Z+28,r4
 3947 10fa 558E      		std Z+29,r5
 3948               	.LBE683:
 3949               	.LBE682:
 3950               	.LBB684:
 3951               	.LBB685:
 3952               	.LM402:
 3953 10fc A68E      		std Z+30,r10
 3954 10fe B78E      		std Z+31,r11
 3955 1100 C0A2      		std Z+32,r12
 3956 1102 D1A2      		std Z+33,r13
 3957               	.LBE685:
 3958               	.LBE684:
 3959               	.LBB686:
 3960               	.LBB687:
 3961               	.LM403:
 3962 1104 918D      		ldd r25,Z+25
 3963 1106 892F      		mov r24,r25
 3964 1108 8695      		lsr r24
 3965 110a 8F70      		andi r24,lo8(15)
 3966 110c 8130      		cpi r24,lo8(1)
 3967 110e 01F0      		breq .L184
 3968               	.LBB688:
 3969               	.LBB689:
 3970               	.LM404:
 3971 1110 917E      		andi r25,lo8(-31)
 3972 1112 9260      		ori r25,lo8(2)
 3973 1114 918F      		std Z+25,r25
 3974               	.LVL233:
 3975               	.L184:
 3976               	/* epilogue start */
 3977               	.LBE689:
 3978               	.LBE688:
 3979               	.LBE687:
 3980               	.LBE686:
 3981               	.LBE667:
 3982               	.LM405:
 3983 1116 0F90      		pop __tmp_reg__
 3984 1118 0F90      		pop __tmp_reg__
 3985 111a 0F90      		pop __tmp_reg__
 3986 111c 0F90      		pop __tmp_reg__
 3987 111e CF91      		pop r28
 3988 1120 DF91      		pop r29
 3989 1122 1F91      		pop r17
 3990 1124 0F91      		pop r16
 3991 1126 FF90      		pop r15
 3992 1128 EF90      		pop r14
 3993 112a DF90      		pop r13
 3994 112c CF90      		pop r12
 3995               	.LVL234:
 3996 112e BF90      		pop r11
 3997 1130 AF90      		pop r10
 3998               	.LVL235:
 3999 1132 9F90      		pop r9
 4000 1134 8F90      		pop r8
 4001               	.LVL236:
 4002 1136 7F90      		pop r7
 4003 1138 6F90      		pop r6
 4004               	.LVL237:
 4005 113a 5F90      		pop r5
 4006 113c 4F90      		pop r4
 4007 113e 3F90      		pop r3
 4008 1140 2F90      		pop r2
 4009               	.LVL238:
 4010 1142 0895      		ret
 4011               	.LFE68:
 4013               	.global	Timebase_DownCounter_SS_Set_Forcefully
 4015               	Timebase_DownCounter_SS_Set_Forcefully:
 4016               	.LFB69:
 4017               	.LM406:
 4018               	.LVL239:
 4019               	/* prologue: function */
 4020               	/* frame size = 0 */
 4021               	.LBB690:
 4022               	.LBB691:
 4023               	.LBB692:
 4024               	.LBB693:
 4025               	.LM407:
 4026 1144 E091 0000 		lds r30,Timebase
 4027 1148 F091 0000 		lds r31,(Timebase)+1
 4028 114c A82F      		mov r26,r24
 4029 114e B0E0      		ldi r27,lo8(0)
 4030 1150 9D01      		movw r18,r26
 4031 1152 94E0      		ldi r25,4
 4032 1154 220F      	1:	lsl r18
 4033 1156 331F      		rol r19
 4034 1158 9A95      		dec r25
 4035 115a 01F4      		brne 1b
 4036 115c 2A0F      		add r18,r26
 4037 115e 3B1F      		adc r19,r27
 4038 1160 E20F      		add r30,r18
 4039 1162 F31F      		adc r31,r19
 4040 1164 168E      		std Z+30,__zero_reg__
 4041 1166 178E      		std Z+31,__zero_reg__
 4042 1168 10A2      		std Z+32,__zero_reg__
 4043 116a 11A2      		std Z+33,__zero_reg__
 4044               	.LBE693:
 4045               	.LBE692:
 4046               	.LBB694:
 4047               	.LBB695:
 4048               	.LM408:
 4049 116c 128E      		std Z+26,__zero_reg__
 4050 116e 138E      		std Z+27,__zero_reg__
 4051 1170 148E      		std Z+28,__zero_reg__
 4052 1172 158E      		std Z+29,__zero_reg__
 4053               	.LBE695:
 4054               	.LBE694:
 4055               	.LBB696:
 4056               	.LBB697:
 4057               	.LM409:
 4058 1174 12A2      		std Z+34,__zero_reg__
 4059 1176 13A2      		std Z+35,__zero_reg__
 4060 1178 14A2      		std Z+36,__zero_reg__
 4061 117a 15A2      		std Z+37,__zero_reg__
 4062               	.LBE697:
 4063               	.LBE696:
 4064               	.LBB698:
 4065               	.LBB699:
 4066               	.LM410:
 4067 117c 918D      		ldd r25,Z+25
 4068               	.LBE699:
 4069               	.LBE698:
 4070               	.LBB700:
 4071               	.LBB701:
 4072               	.LM411:
 4073 117e 907E      		andi r25,lo8(-32)
 4074 1180 918F      		std Z+25,r25
 4075               	.LBE701:
 4076               	.LBE700:
 4077               	.LBE691:
 4078               	.LBE690:
 4079               	.LM412:
 4080 1182 0E94 0000 		call Timebase_DownCounter_SS_Set_Securely
 4081               	.LVL240:
 4082               	/* epilogue start */
 4083               	.LM413:
 4084 1186 0895      		ret
 4085               	.LFE69:
 4087               	.global	Timebase_DownCounter_SS_Update
 4089               	Timebase_DownCounter_SS_Update:
 4090               	.LFB70:
 4091               	.LM414:
 4092               	.LVL241:
 4093 1188 2F92      		push r2
 4094 118a 3F92      		push r3
 4095 118c 4F92      		push r4
 4096 118e 5F92      		push r5
 4097 1190 6F92      		push r6
 4098 1192 7F92      		push r7
 4099 1194 8F92      		push r8
 4100 1196 9F92      		push r9
 4101 1198 AF92      		push r10
 4102 119a BF92      		push r11
 4103 119c CF92      		push r12
 4104 119e DF92      		push r13
 4105 11a0 EF92      		push r14
 4106 11a2 FF92      		push r15
 4107 11a4 0F93      		push r16
 4108 11a6 1F93      		push r17
 4109 11a8 DF93      		push r29
 4110 11aa CF93      		push r28
 4111 11ac 00D0      		rcall .
 4112 11ae 00D0      		rcall .
 4113 11b0 CDB7      		in r28,__SP_L__
 4114 11b2 DEB7      		in r29,__SP_H__
 4115               	/* prologue: function */
 4116               	/* frame size = 4 */
 4117               	.LBB702:
 4118               	.LBB703:
 4119               	.LM415:
 4120 11b4 2090 0000 		lds r2,Timebase
 4121 11b8 3090 0000 		lds r3,(Timebase)+1
 4122 11bc 682E      		mov r6,r24
 4123 11be 7724      		clr r7
 4124 11c0 F301      		movw r30,r6
 4125 11c2 54E0      		ldi r21,4
 4126 11c4 EE0F      	1:	lsl r30
 4127 11c6 FF1F      		rol r31
 4128 11c8 5A95      		dec r21
 4129 11ca 01F4      		brne 1b
 4130 11cc E60D      		add r30,r6
 4131 11ce F71D      		adc r31,r7
 4132 11d0 E20D      		add r30,r2
 4133 11d2 F31D      		adc r31,r3
 4134 11d4 818D      		ldd r24,Z+25
 4135               	.LVL242:
 4136 11d6 8695      		lsr r24
 4137 11d8 8F70      		andi r24,lo8(15)
 4138               	.LBE703:
 4139               	.LBE702:
 4140               	.LM416:
 4141 11da 8130      		cpi r24,lo8(1)
 4142 11dc 01F0      		breq .+2
 4143 11de 00C0      		rjmp .L188
 4144               	.LBB704:
 4145               	.LBB705:
 4146               	.LBB706:
 4147               	.LBB707:
 4148               	.LBB708:
 4149               	.LM417:
 4150               	/* #APP */
 4151               	 ;  329 "timebase.c" 1
 4152 11e0 F894      		cli
 4153               	 ;  0 "" 2
 4154               	/* #NOAPP */
 4155               	.LBE708:
 4156               	.LBE707:
 4157               	.LM418:
 4158 11e2 D101      		movw r26,r2
 4159 11e4 1896      		adiw r26,8
 4160 11e6 8D91      		ld r24,X+
 4161 11e8 9C91      		ld r25,X
 4162 11ea 1997      		sbiw r26,8+1
 4163               	.LVL243:
 4164               	.LBB709:
 4165               	.LBB710:
 4166               	.LM419:
 4167               	/* #APP */
 4168               	 ;  333 "timebase.c" 1
 4169 11ec 7894      		sei
 4170               	 ;  0 "" 2
 4171               	/* #NOAPP */
 4172               	.LBE710:
 4173               	.LBE709:
 4174               	.LBE706:
 4175               	.LBE705:
 4176               	.LM420:
 4177 11ee 5C01      		movw r10,r24
 4178               	.LVL244:
 4179 11f0 CC24      		clr r12
 4180 11f2 DD24      		clr r13
 4181               	.LVL245:
 4182               	.LBB711:
 4183               	.LBB712:
 4184               	.LBB713:
 4185               	.LBB714:
 4186               	.LM421:
 4187               	/* #APP */
 4188               	 ;  329 "timebase.c" 1
 4189 11f4 F894      		cli
 4190               	 ;  0 "" 2
 4191               	/* #NOAPP */
 4192               	.LBE714:
 4193               	.LBE713:
 4194               	.LM422:
 4195 11f6 F101      		movw r30,r2
 4196 11f8 8285      		ldd r24,Z+10
 4197 11fa 9385      		ldd r25,Z+11
 4198 11fc A485      		ldd r26,Z+12
 4199 11fe B585      		ldd r27,Z+13
 4200               	.LVL246:
 4201               	.LBB715:
 4202               	.LBB716:
 4203               	.LM423:
 4204               	/* #APP */
 4205               	 ;  333 "timebase.c" 1
 4206 1200 7894      		sei
 4207               	 ;  0 "" 2
 4208               	/* #NOAPP */
 4209               	.LBE716:
 4210               	.LBE715:
 4211               	.LBE712:
 4212               	.LBE711:
 4213               	.LM424:
 4214 1202 F301      		movw r30,r6
 4215 1204 44E0      		ldi r20,4
 4216 1206 EE0F      	1:	lsl r30
 4217 1208 FF1F      		rol r31
 4218 120a 4A95      		dec r20
 4219 120c 01F4      		brne 1b
 4220 120e E60D      		add r30,r6
 4221 1210 F71D      		adc r31,r7
 4222 1212 E20D      		add r30,r2
 4223 1214 F31D      		adc r31,r3
 4224 1216 E28C      		ldd r14,Z+26
 4225 1218 F38C      		ldd r15,Z+27
 4226 121a 048D      		ldd r16,Z+28
 4227 121c 158D      		ldd r17,Z+29
 4228               	.LVL247:
 4229 121e E81A      		sub r14,r24
 4230 1220 F90A      		sbc r15,r25
 4231 1222 0A0B      		sbc r16,r26
 4232 1224 1B0B      		sbc r17,r27
 4233 1226 17FF      		sbrs r17,7
 4234 1228 00C0      		rjmp .L189
 4235 122a EE24      		clr r14
 4236 122c FF24      		clr r15
 4237 122e 8701      		movw r16,r14
 4238               	.L189:
 4239               	.LM425:
 4240 1230 D101      		movw r26,r2
 4241 1232 1196      		adiw r26,1
 4242 1234 2D91      		ld r18,X+
 4243 1236 3C91      		ld r19,X
 4244 1238 1297      		sbiw r26,1+1
 4245 123a 40E0      		ldi r20,lo8(0)
 4246 123c 50E0      		ldi r21,hi8(0)
 4247 123e C801      		movw r24,r16
 4248 1240 B701      		movw r22,r14
 4249 1242 0E94 0000 		call __mulsi3
 4250               	.LM426:
 4251 1246 F301      		movw r30,r6
 4252 1248 34E0      		ldi r19,4
 4253 124a EE0F      	1:	lsl r30
 4254 124c FF1F      		rol r31
 4255 124e 3A95      		dec r19
 4256 1250 01F4      		brne 1b
 4257 1252 E60D      		add r30,r6
 4258 1254 F71D      		adc r31,r7
 4259 1256 E20D      		add r30,r2
 4260 1258 F31D      		adc r31,r3
 4261 125a 268D      		ldd r18,Z+30
 4262 125c 378D      		ldd r19,Z+31
 4263 125e 40A1      		ldd r20,Z+32
 4264 1260 51A1      		ldd r21,Z+33
 4265               	.LVL248:
 4266 1262 2A19      		sub r18,r10
 4267 1264 3B09      		sbc r19,r11
 4268 1266 4C09      		sbc r20,r12
 4269 1268 5D09      		sbc r21,r13
 4270 126a 260F      		add r18,r22
 4271 126c 371F      		adc r19,r23
 4272 126e 481F      		adc r20,r24
 4273 1270 591F      		adc r21,r25
 4274               	.LBB717:
 4275               	.LBB718:
 4276               	.LM427:
 4277 1272 22A3      		std Z+34,r18
 4278 1274 33A3      		std Z+35,r19
 4279 1276 44A3      		std Z+36,r20
 4280 1278 55A3      		std Z+37,r21
 4281               	.LBE718:
 4282               	.LBE717:
 4283               	.LM428:
 4284 127a 1216      		cp __zero_reg__,r18
 4285 127c 1306      		cpc __zero_reg__,r19
 4286 127e 1406      		cpc __zero_reg__,r20
 4287 1280 1506      		cpc __zero_reg__,r21
 4288 1282 04F4      		brge .+2
 4289 1284 00C0      		rjmp .L191
 4290               	.LBB719:
 4291               	.LBB720:
 4292               	.LBB721:
 4293               	.LBB722:
 4294               	.LM429:
 4295 1286 168E      		std Z+30,__zero_reg__
 4296 1288 178E      		std Z+31,__zero_reg__
 4297 128a 10A2      		std Z+32,__zero_reg__
 4298 128c 11A2      		std Z+33,__zero_reg__
 4299               	.LBE722:
 4300               	.LBE721:
 4301               	.LBB723:
 4302               	.LBB724:
 4303               	.LM430:
 4304 128e 128E      		std Z+26,__zero_reg__
 4305 1290 138E      		std Z+27,__zero_reg__
 4306 1292 148E      		std Z+28,__zero_reg__
 4307 1294 158E      		std Z+29,__zero_reg__
 4308               	.LBE724:
 4309               	.LBE723:
 4310               	.LBB725:
 4311               	.LBB726:
 4312               	.LM431:
 4313 1296 12A2      		std Z+34,__zero_reg__
 4314 1298 13A2      		std Z+35,__zero_reg__
 4315 129a 14A2      		std Z+36,__zero_reg__
 4316 129c 15A2      		std Z+37,__zero_reg__
 4317               	.LBE726:
 4318               	.LBE725:
 4319               	.LBB727:
 4320               	.LBB728:
 4321               	.LM432:
 4322 129e 818D      		ldd r24,Z+25
 4323               	.LBE728:
 4324               	.LBE727:
 4325               	.LBE720:
 4326               	.LBE719:
 4327               	.LBB729:
 4328               	.LBB730:
 4329               	.LM433:
 4330 12a0 807E      		andi r24,lo8(-32)
 4331 12a2 8860      		ori r24,lo8(8)
 4332 12a4 818F      		std Z+25,r24
 4333 12a6 00C0      		rjmp .L191
 4334               	.LVL249:
 4335               	.L188:
 4336               	.LBE730:
 4337               	.LBE729:
 4338               	.LBE704:
 4339               	.LM434:
 4340 12a8 8230      		cpi r24,lo8(2)
 4341 12aa 01F0      		breq .+2
 4342 12ac 00C0      		rjmp .L191
 4343               	.LBB731:
 4344               	.LBB732:
 4345               	.LBB733:
 4346               	.LBB734:
 4347               	.LBB735:
 4348               	.LM435:
 4349               	/* #APP */
 4350               	 ;  329 "timebase.c" 1
 4351 12ae F894      		cli
 4352               	 ;  0 "" 2
 4353               	/* #NOAPP */
 4354               	.LBE735:
 4355               	.LBE734:
 4356               	.LM436:
 4357 12b0 F101      		movw r30,r2
 4358 12b2 4084      		ldd r4,Z+8
 4359 12b4 5184      		ldd r5,Z+9
 4360               	.LVL250:
 4361               	.LBB736:
 4362               	.LBB737:
 4363               	.LM437:
 4364               	/* #APP */
 4365               	 ;  333 "timebase.c" 1
 4366 12b6 7894      		sei
 4367               	 ;  0 "" 2
 4368               	/* #NOAPP */
 4369               	.LBE737:
 4370               	.LBE736:
 4371               	.LBE733:
 4372               	.LBE732:
 4373               	.LBB738:
 4374               	.LBB739:
 4375               	.LBB740:
 4376               	.LBB741:
 4377               	.LM438:
 4378               	/* #APP */
 4379               	 ;  329 "timebase.c" 1
 4380 12b8 F894      		cli
 4381               	 ;  0 "" 2
 4382               	/* #NOAPP */
 4383               	.LBE741:
 4384               	.LBE740:
 4385               	.LM439:
 4386 12ba D101      		movw r26,r2
 4387 12bc 1A96      		adiw r26,10
 4388 12be 8D90      		ld r8,X+
 4389 12c0 9D90      		ld r9,X+
 4390 12c2 AD90      		ld r10,X+
 4391 12c4 BC90      		ld r11,X
 4392 12c6 1D97      		sbiw r26,10+3
 4393               	.LVL251:
 4394               	.LBB742:
 4395               	.LBB743:
 4396               	.LM440:
 4397               	/* #APP */
 4398               	 ;  333 "timebase.c" 1
 4399 12c8 7894      		sei
 4400               	 ;  0 "" 2
 4401               	/* #NOAPP */
 4402               	.LBE743:
 4403               	.LBE742:
 4404               	.LBE739:
 4405               	.LBE738:
 4406               	.LBB744:
 4407               	.LBB745:
 4408               	.LM441:
 4409 12ca 6301      		movw r12,r6
 4410 12cc 24E0      		ldi r18,4
 4411 12ce CC0C      	1:	lsl r12
 4412 12d0 DD1C      		rol r13
 4413 12d2 2A95      		dec r18
 4414 12d4 01F4      		brne 1b
 4415 12d6 C60C      		add r12,r6
 4416 12d8 D71C      		adc r13,r7
 4417 12da C20C      		add r12,r2
 4418 12dc D31C      		adc r13,r3
 4419 12de D601      		movw r26,r12
 4420 12e0 9296      		adiw r26,34
 4421 12e2 8D91      		ld r24,X+
 4422 12e4 9D91      		ld r25,X+
 4423 12e6 0D90      		ld __tmp_reg__,X+
 4424 12e8 BC91      		ld r27,X
 4425 12ea A02D      		mov r26,__tmp_reg__
 4426 12ec 8983      		std Y+1,r24
 4427 12ee 9A83      		std Y+2,r25
 4428 12f0 AB83      		std Y+3,r26
 4429 12f2 BC83      		std Y+4,r27
 4430               	.LVL252:
 4431               	.LBE745:
 4432               	.LBE744:
 4433               	.LM442:
 4434 12f4 F101      		movw r30,r2
 4435 12f6 2181      		ldd r18,Z+1
 4436 12f8 3281      		ldd r19,Z+2
 4437               	.LM443:
 4438 12fa E180      		ldd r14,Z+1
 4439 12fc F280      		ldd r15,Z+2
 4440               	.LBB746:
 4441               	.LBB747:
 4442               	.LM444:
 4443 12fe 40E0      		ldi r20,lo8(0)
 4444 1300 50E0      		ldi r21,hi8(0)
 4445 1302 BC01      		movw r22,r24
 4446 1304 CD01      		movw r24,r26
 4447 1306 0E94 0000 		call __divmodsi4
 4448 130a 820E      		add r8,r18
 4449 130c 931E      		adc r9,r19
 4450 130e A41E      		adc r10,r20
 4451 1310 B51E      		adc r11,r21
 4452 1312 D601      		movw r26,r12
 4453 1314 5A96      		adiw r26,26
 4454 1316 8D92      		st X+,r8
 4455 1318 9D92      		st X+,r9
 4456 131a AD92      		st X+,r10
 4457 131c BC92      		st X,r11
 4458 131e 5D97      		sbiw r26,26+3
 4459               	.LBE747:
 4460               	.LBE746:
 4461               	.LBB748:
 4462               	.LBB749:
 4463               	.LM445:
 4464 1320 00E0      		ldi r16,lo8(0)
 4465 1322 10E0      		ldi r17,hi8(0)
 4466 1324 6981      		ldd r22,Y+1
 4467 1326 7A81      		ldd r23,Y+2
 4468 1328 8B81      		ldd r24,Y+3
 4469 132a 9C81      		ldd r25,Y+4
 4470 132c A801      		movw r20,r16
 4471 132e 9701      		movw r18,r14
 4472 1330 0E94 0000 		call __divmodsi4
 4473 1334 6624      		clr r6
 4474 1336 7724      		clr r7
 4475               	.LVL253:
 4476 1338 460E      		add r4,r22
 4477 133a 571E      		adc r5,r23
 4478 133c 681E      		adc r6,r24
 4479 133e 791E      		adc r7,r25
 4480               	.LVL254:
 4481 1340 F601      		movw r30,r12
 4482 1342 468E      		std Z+30,r4
 4483 1344 578E      		std Z+31,r5
 4484 1346 60A2      		std Z+32,r6
 4485 1348 71A2      		std Z+33,r7
 4486               	.LVL255:
 4487               	.L191:
 4488               	/* epilogue start */
 4489               	.LBE749:
 4490               	.LBE748:
 4491               	.LBE731:
 4492               	.LM446:
 4493 134a 0F90      		pop __tmp_reg__
 4494 134c 0F90      		pop __tmp_reg__
 4495 134e 0F90      		pop __tmp_reg__
 4496 1350 0F90      		pop __tmp_reg__
 4497 1352 CF91      		pop r28
 4498 1354 DF91      		pop r29
 4499 1356 1F91      		pop r17
 4500 1358 0F91      		pop r16
 4501 135a FF90      		pop r15
 4502 135c EF90      		pop r14
 4503 135e DF90      		pop r13
 4504 1360 CF90      		pop r12
 4505               	.LVL256:
 4506 1362 BF90      		pop r11
 4507 1364 AF90      		pop r10
 4508               	.LVL257:
 4509 1366 9F90      		pop r9
 4510 1368 8F90      		pop r8
 4511               	.LVL258:
 4512 136a 7F90      		pop r7
 4513 136c 6F90      		pop r6
 4514               	.LVL259:
 4515 136e 5F90      		pop r5
 4516 1370 4F90      		pop r4
 4517               	.LVL260:
 4518 1372 3F90      		pop r3
 4519 1374 2F90      		pop r2
 4520 1376 0895      		ret
 4521               	.LFE70:
 4523               	.global	Timebase_DownCounter_SS_Expired
 4525               	Timebase_DownCounter_SS_Expired:
 4526               	.LFB71:
 4527               	.LM447:
 4528               	.LVL261:
 4529               	/* prologue: function */
 4530               	/* frame size = 0 */
 4531               	.LM448:
 4532 1378 40E0      		ldi r20,lo8(0)
 4533 137a E091 0000 		lds r30,Timebase
 4534 137e F091 0000 		lds r31,(Timebase)+1
 4535 1382 90E0      		ldi r25,lo8(0)
 4536               	.LVL262:
 4537 1384 9C01      		movw r18,r24
 4538 1386 64E0      		ldi r22,4
 4539 1388 220F      	1:	lsl r18
 4540 138a 331F      		rol r19
 4541 138c 6A95      		dec r22
 4542 138e 01F4      		brne 1b
 4543 1390 280F      		add r18,r24
 4544 1392 391F      		adc r19,r25
 4545 1394 E20F      		add r30,r18
 4546 1396 F31F      		adc r31,r19
 4547 1398 818D      		ldd r24,Z+25
 4548               	.LVL263:
 4549 139a 8695      		lsr r24
 4550 139c 8F70      		andi r24,lo8(15)
 4551 139e 8430      		cpi r24,lo8(4)
 4552 13a0 01F4      		brne .L193
 4553 13a2 41E0      		ldi r20,lo8(1)
 4554               	.L193:
 4555               	.LM449:
 4556 13a4 842F      		mov r24,r20
 4557               	/* epilogue start */
 4558 13a6 0895      		ret
 4559               	.LFE71:
 4561               	.global	Timebase_DownCounter_SS_Expired_Event
 4563               	Timebase_DownCounter_SS_Expired_Event:
 4564               	.LFB72:
 4565               	.LM450:
 4566               	.LVL264:
 4567               	/* prologue: function */
 4568               	/* frame size = 0 */
 4569               	.LBB750:
 4570               	.LBB751:
 4571               	.LM451:
 4572 13a8 E091 0000 		lds r30,Timebase
 4573 13ac F091 0000 		lds r31,(Timebase)+1
 4574 13b0 90E0      		ldi r25,lo8(0)
 4575               	.LBE751:
 4576               	.LBE750:
 4577               	.LM452:
 4578 13b2 9C01      		movw r18,r24
 4579               	.LVL265:
 4580 13b4 74E0      		ldi r23,4
 4581 13b6 220F      	1:	lsl r18
 4582 13b8 331F      		rol r19
 4583 13ba 7A95      		dec r23
 4584 13bc 01F4      		brne 1b
 4585 13be 280F      		add r18,r24
 4586 13c0 391F      		adc r19,r25
 4587 13c2 E20F      		add r30,r18
 4588 13c4 F31F      		adc r31,r19
 4589 13c6 818D      		ldd r24,Z+25
 4590 13c8 8695      		lsr r24
 4591 13ca 8F70      		andi r24,lo8(15)
 4592 13cc 8430      		cpi r24,lo8(4)
 4593 13ce 01F0      		breq .L196
 4594 13d0 80E0      		ldi r24,lo8(0)
 4595 13d2 0895      		ret
 4596               	.L196:
 4597               	.LBB752:
 4598               	.LBB753:
 4599               	.LBB754:
 4600               	.LBB755:
 4601               	.LBB756:
 4602               	.LBB757:
 4603               	.LM453:
 4604 13d4 168E      		std Z+30,__zero_reg__
 4605 13d6 178E      		std Z+31,__zero_reg__
 4606 13d8 10A2      		std Z+32,__zero_reg__
 4607 13da 11A2      		std Z+33,__zero_reg__
 4608               	.LBE757:
 4609               	.LBE756:
 4610               	.LBB758:
 4611               	.LBB759:
 4612               	.LM454:
 4613 13dc 128E      		std Z+26,__zero_reg__
 4614 13de 138E      		std Z+27,__zero_reg__
 4615 13e0 148E      		std Z+28,__zero_reg__
 4616 13e2 158E      		std Z+29,__zero_reg__
 4617               	.LBE759:
 4618               	.LBE758:
 4619               	.LBB760:
 4620               	.LBB761:
 4621               	.LM455:
 4622 13e4 12A2      		std Z+34,__zero_reg__
 4623 13e6 13A2      		std Z+35,__zero_reg__
 4624 13e8 14A2      		std Z+36,__zero_reg__
 4625 13ea 15A2      		std Z+37,__zero_reg__
 4626               	.LBE761:
 4627               	.LBE760:
 4628               	.LBB762:
 4629               	.LBB763:
 4630               	.LM456:
 4631 13ec 818D      		ldd r24,Z+25
 4632               	.LBE763:
 4633               	.LBE762:
 4634               	.LBB764:
 4635               	.LBB765:
 4636               	.LM457:
 4637 13ee 807E      		andi r24,lo8(-32)
 4638 13f0 818F      		std Z+25,r24
 4639 13f2 81E0      		ldi r24,lo8(1)
 4640               	.LBE765:
 4641               	.LBE764:
 4642               	.LBE755:
 4643               	.LBE754:
 4644               	.LBE753:
 4645               	.LBE752:
 4646               	.LM458:
 4647 13f4 0895      		ret
 4648               	.LFE72:
 4650               	.global	Timebase_DownCounter_SS_Set_Period_Value_Securely
 4652               	Timebase_DownCounter_SS_Set_Period_Value_Securely:
 4653               	.LFB73:
 4654               	.LM459:
 4655               	.LVL266:
 4656 13f6 CF93      		push r28
 4657 13f8 DF93      		push r29
 4658               	/* prologue: function */
 4659               	/* frame size = 0 */
 4660               	.LBB766:
 4661               	.LBB767:
 4662               	.LM460:
 4663 13fa C091 0000 		lds r28,Timebase
 4664 13fe D091 0000 		lds r29,(Timebase)+1
 4665 1402 282F      		mov r18,r24
 4666 1404 30E0      		ldi r19,lo8(0)
 4667               	.LBE767:
 4668               	.LBE766:
 4669               	.LM461:
 4670 1406 F901      		movw r30,r18
 4671 1408 B4E0      		ldi r27,4
 4672 140a EE0F      	1:	lsl r30
 4673 140c FF1F      		rol r31
 4674 140e BA95      		dec r27
 4675 1410 01F4      		brne 1b
 4676 1412 E20F      		add r30,r18
 4677 1414 F31F      		adc r31,r19
 4678 1416 EC0F      		add r30,r28
 4679 1418 FD1F      		adc r31,r29
 4680 141a 818D      		ldd r24,Z+25
 4681               	.LVL267:
 4682 141c 80FD      		sbrc r24,0
 4683 141e 00C0      		rjmp .L203
 4684               	.LM462:
 4685 1420 82A1      		ldd r24,Z+34
 4686 1422 93A1      		ldd r25,Z+35
 4687 1424 A4A1      		ldd r26,Z+36
 4688 1426 B5A1      		ldd r27,Z+37
 4689 1428 841B      		sub r24,r20
 4690 142a 950B      		sbc r25,r21
 4691 142c A60B      		sbc r26,r22
 4692 142e B70B      		sbc r27,r23
 4693               	.LBB768:
 4694               	.LBB769:
 4695               	.LM463:
 4696 1430 B7FF      		sbrs r27,7
 4697 1432 00C0      		rjmp .L201
 4698               	.LM464:
 4699 1434 16A2      		std Z+38,__zero_reg__
 4700 1436 17A2      		std Z+39,__zero_reg__
 4701 1438 10A6      		std Z+40,__zero_reg__
 4702 143a 11A6      		std Z+41,__zero_reg__
 4703 143c 00C0      		rjmp .L202
 4704               	.L201:
 4705               	.LM465:
 4706 143e 86A3      		std Z+38,r24
 4707 1440 97A3      		std Z+39,r25
 4708 1442 A0A7      		std Z+40,r26
 4709 1444 B1A7      		std Z+41,r27
 4710               	.L202:
 4711               	.LBE769:
 4712               	.LBE768:
 4713               	.LBB770:
 4714               	.LBB771:
 4715               	.LM466:
 4716 1446 F901      		movw r30,r18
 4717 1448 A4E0      		ldi r26,4
 4718 144a EE0F      	1:	lsl r30
 4719 144c FF1F      		rol r31
 4720 144e AA95      		dec r26
 4721 1450 01F4      		brne 1b
 4722 1452 E20F      		add r30,r18
 4723 1454 F31F      		adc r31,r19
 4724 1456 EC0F      		add r30,r28
 4725 1458 FD1F      		adc r31,r29
 4726 145a 818D      		ldd r24,Z+25
 4727 145c 8160      		ori r24,lo8(1)
 4728 145e 818F      		std Z+25,r24
 4729               	.L203:
 4730               	/* epilogue start */
 4731               	.LBE771:
 4732               	.LBE770:
 4733               	.LM467:
 4734 1460 DF91      		pop r29
 4735 1462 CF91      		pop r28
 4736 1464 0895      		ret
 4737               	.LFE73:
 4739               	.global	Timebase_DownCounter_SS_Get_Remaining_Period_Value
 4741               	Timebase_DownCounter_SS_Get_Remaining_Period_Value:
 4742               	.LFB74:
 4743               	.LM468:
 4744               	.LVL268:
 4745               	/* prologue: function */
 4746               	/* frame size = 0 */
 4747               	.LBB772:
 4748               	.LBB773:
 4749               	.LM469:
 4750 1466 E091 0000 		lds r30,Timebase
 4751 146a F091 0000 		lds r31,(Timebase)+1
 4752 146e 90E0      		ldi r25,lo8(0)
 4753               	.LBE773:
 4754               	.LBE772:
 4755               	.LM470:
 4756 1470 9C01      		movw r18,r24
 4757               	.LVL269:
 4758 1472 44E0      		ldi r20,4
 4759 1474 220F      	1:	lsl r18
 4760 1476 331F      		rol r19
 4761 1478 4A95      		dec r20
 4762 147a 01F4      		brne 1b
 4763 147c 280F      		add r18,r24
 4764 147e 391F      		adc r19,r25
 4765 1480 E20F      		add r30,r18
 4766 1482 F31F      		adc r31,r19
 4767 1484 22A1      		ldd r18,Z+34
 4768 1486 33A1      		ldd r19,Z+35
 4769 1488 44A1      		ldd r20,Z+36
 4770 148a 55A1      		ldd r21,Z+37
 4771               	.LVL270:
 4772 148c 86A1      		ldd r24,Z+38
 4773 148e 97A1      		ldd r25,Z+39
 4774 1490 A0A5      		ldd r26,Z+40
 4775 1492 B1A5      		ldd r27,Z+41
 4776 1494 281B      		sub r18,r24
 4777 1496 390B      		sbc r19,r25
 4778 1498 4A0B      		sbc r20,r26
 4779 149a 5B0B      		sbc r21,r27
 4780 149c 57FF      		sbrs r21,7
 4781 149e 00C0      		rjmp .L205
 4782 14a0 20E0      		ldi r18,lo8(0)
 4783 14a2 30E0      		ldi r19,hi8(0)
 4784 14a4 40E0      		ldi r20,hlo8(0)
 4785 14a6 50E0      		ldi r21,hhi8(0)
 4786               	.L205:
 4787               	.LM471:
 4788 14a8 B901      		movw r22,r18
 4789               	.LVL271:
 4790 14aa CA01      		movw r24,r20
 4791               	/* epilogue start */
 4792 14ac 0895      		ret
 4793               	.LFE74:
 4795               	.global	Timebase_DownCounter_SS_Period_Value_Expired
 4797               	Timebase_DownCounter_SS_Period_Value_Expired:
 4798               	.LFB75:
 4799               	.LM472:
 4800               	.LVL272:
 4801 14ae CF93      		push r28
 4802 14b0 DF93      		push r29
 4803               	/* prologue: function */
 4804               	/* frame size = 0 */
 4805               	.LBB774:
 4806               	.LBB775:
 4807               	.LBB776:
 4808               	.LBB777:
 4809               	.LM473:
 4810 14b2 C091 0000 		lds r28,Timebase
 4811 14b6 D091 0000 		lds r29,(Timebase)+1
 4812 14ba 682F      		mov r22,r24
 4813 14bc 70E0      		ldi r23,lo8(0)
 4814               	.LBE777:
 4815               	.LBE776:
 4816               	.LM474:
 4817 14be FB01      		movw r30,r22
 4818 14c0 A4E0      		ldi r26,4
 4819 14c2 EE0F      	1:	lsl r30
 4820 14c4 FF1F      		rol r31
 4821 14c6 AA95      		dec r26
 4822 14c8 01F4      		brne 1b
 4823 14ca E60F      		add r30,r22
 4824 14cc F71F      		adc r31,r23
 4825 14ce EC0F      		add r30,r28
 4826 14d0 FD1F      		adc r31,r29
 4827 14d2 22A1      		ldd r18,Z+34
 4828 14d4 33A1      		ldd r19,Z+35
 4829 14d6 44A1      		ldd r20,Z+36
 4830 14d8 55A1      		ldd r21,Z+37
 4831               	.LVL273:
 4832 14da 86A1      		ldd r24,Z+38
 4833 14dc 97A1      		ldd r25,Z+39
 4834 14de A0A5      		ldd r26,Z+40
 4835 14e0 B1A5      		ldd r27,Z+41
 4836               	.LVL274:
 4837 14e2 281B      		sub r18,r24
 4838 14e4 390B      		sbc r19,r25
 4839 14e6 4A0B      		sbc r20,r26
 4840 14e8 5B0B      		sbc r21,r27
 4841               	.LM475:
 4842 14ea 57FD      		sbrc r21,7
 4843 14ec 00C0      		rjmp .L208
 4844               	.LBE775:
 4845               	.LBE774:
 4846               	.LM476:
 4847 14ee 2115      		cp r18,__zero_reg__
 4848 14f0 3105      		cpc r19,__zero_reg__
 4849 14f2 4105      		cpc r20,__zero_reg__
 4850 14f4 5105      		cpc r21,__zero_reg__
 4851 14f6 01F0      		breq .L208
 4852 14f8 20E0      		ldi r18,lo8(0)
 4853               	.LVL275:
 4854 14fa 00C0      		rjmp .L209
 4855               	.LVL276:
 4856               	.L208:
 4857 14fc 20E0      		ldi r18,lo8(0)
 4858               	.LVL277:
 4859 14fe CB01      		movw r24,r22
 4860 1500 54E0      		ldi r21,4
 4861 1502 880F      	1:	lsl r24
 4862 1504 991F      		rol r25
 4863 1506 5A95      		dec r21
 4864 1508 01F4      		brne 1b
 4865 150a 860F      		add r24,r22
 4866 150c 971F      		adc r25,r23
 4867 150e C80F      		add r28,r24
 4868 1510 D91F      		adc r29,r25
 4869 1512 898D      		ldd r24,Y+25
 4870 1514 80FF      		sbrs r24,0
 4871 1516 21E0      		ldi r18,lo8(1)
 4872               	.L210:
 4873 1518 81E0      		ldi r24,lo8(1)
 4874 151a 2827      		eor r18,r24
 4875               	.L209:
 4876               	.LM477:
 4877 151c 822F      		mov r24,r18
 4878               	/* epilogue start */
 4879 151e DF91      		pop r29
 4880 1520 CF91      		pop r28
 4881 1522 0895      		ret
 4882               	.LFE75:
 4884               	.global	Timebase_DownCounter_SS_Period_Value_Expired_Event
 4886               	Timebase_DownCounter_SS_Period_Value_Expired_Event:
 4887               	.LFB76:
 4888               	.LM478:
 4889               	.LVL278:
 4890 1524 1F93      		push r17
 4891               	/* prologue: function */
 4892               	/* frame size = 0 */
 4893 1526 182F      		mov r17,r24
 4894               	.LM479:
 4895 1528 0E94 0000 		call Timebase_DownCounter_SS_Period_Value_Expired
 4896               	.LVL279:
 4897 152c 8130      		cpi r24,lo8(1)
 4898 152e 01F0      		breq .L213
 4899 1530 80E0      		ldi r24,lo8(0)
 4900 1532 00C0      		rjmp .L214
 4901               	.L213:
 4902               	.LBB778:
 4903               	.LBB779:
 4904               	.LM480:
 4905 1534 E091 0000 		lds r30,Timebase
 4906 1538 F091 0000 		lds r31,(Timebase)+1
 4907 153c 212F      		mov r18,r17
 4908 153e 30E0      		ldi r19,lo8(0)
 4909               	.LVL280:
 4910 1540 C901      		movw r24,r18
 4911 1542 B4E0      		ldi r27,4
 4912 1544 880F      	1:	lsl r24
 4913 1546 991F      		rol r25
 4914 1548 BA95      		dec r27
 4915 154a 01F4      		brne 1b
 4916 154c 820F      		add r24,r18
 4917 154e 931F      		adc r25,r19
 4918 1550 E80F      		add r30,r24
 4919 1552 F91F      		adc r31,r25
 4920 1554 818D      		ldd r24,Z+25
 4921 1556 8E7F      		andi r24,lo8(-2)
 4922 1558 818F      		std Z+25,r24
 4923 155a 81E0      		ldi r24,lo8(1)
 4924               	.L214:
 4925               	/* epilogue start */
 4926               	.LBE779:
 4927               	.LBE778:
 4928               	.LM481:
 4929 155c 1F91      		pop r17
 4930               	.LVL281:
 4931 155e 0895      		ret
 4932               	.LFE76:
 4934               	.global	Timebase_DownCounter_SS_Update_All
 4936               	Timebase_DownCounter_SS_Update_All:
 4937               	.LFB77:
 4938               	.LM482:
 4939               	/* prologue: function */
 4940               	/* frame size = 0 */
 4941               	.LBB780:
 4942               	.LM483:
 4943 1560 80E0      		ldi r24,lo8(0)
 4944 1562 0E94 0000 		call Timebase_DownCounter_SS_Update
 4945               	/* epilogue start */
 4946               	.LBE780:
 4947               	.LM484:
 4948 1566 0895      		ret
 4949               	.LFE77:
 4951               	.global	Timebase_DownCounter_SS_Reset_All
 4953               	Timebase_DownCounter_SS_Reset_All:
 4954               	.LFB78:
 4955               	.LM485:
 4956               	/* prologue: function */
 4957               	/* frame size = 0 */
 4958               	.LBB781:
 4959               	.LBB782:
 4960               	.LBB783:
 4961               	.LBB784:
 4962               	.LBB785:
 4963               	.LM486:
 4964 1568 E091 0000 		lds r30,Timebase
 4965 156c F091 0000 		lds r31,(Timebase)+1
 4966 1570 168E      		std Z+30,__zero_reg__
 4967 1572 178E      		std Z+31,__zero_reg__
 4968 1574 10A2      		std Z+32,__zero_reg__
 4969 1576 11A2      		std Z+33,__zero_reg__
 4970               	.LBE785:
 4971               	.LBE784:
 4972               	.LBB786:
 4973               	.LBB787:
 4974               	.LM487:
 4975 1578 128E      		std Z+26,__zero_reg__
 4976 157a 138E      		std Z+27,__zero_reg__
 4977 157c 148E      		std Z+28,__zero_reg__
 4978 157e 158E      		std Z+29,__zero_reg__
 4979               	.LBE787:
 4980               	.LBE786:
 4981               	.LBB788:
 4982               	.LBB789:
 4983               	.LM488:
 4984 1580 12A2      		std Z+34,__zero_reg__
 4985 1582 13A2      		std Z+35,__zero_reg__
 4986 1584 14A2      		std Z+36,__zero_reg__
 4987 1586 15A2      		std Z+37,__zero_reg__
 4988               	.LBE789:
 4989               	.LBE788:
 4990               	.LBB790:
 4991               	.LBB791:
 4992               	.LM489:
 4993 1588 818D      		ldd r24,Z+25
 4994               	.LBE791:
 4995               	.LBE790:
 4996               	.LBB792:
 4997               	.LBB793:
 4998               	.LM490:
 4999 158a 807E      		andi r24,lo8(-32)
 5000 158c 818F      		std Z+25,r24
 5001               	/* epilogue start */
 5002               	.LBE793:
 5003               	.LBE792:
 5004               	.LBE783:
 5005               	.LBE782:
 5006               	.LBE781:
 5007               	.LM491:
 5008 158e 0895      		ret
 5009               	.LFE78:
 5011               	.global	Timebase_Reset
 5013               	Timebase_Reset:
 5014               	.LFB79:
 5015               	.LM492:
 5016               	/* prologue: function */
 5017               	/* frame size = 0 */
 5018               	.LM493:
 5019 1590 0E94 0000 		call Timebase_DownCounter_SS_Reset_All
 5020               	.LM494:
 5021 1594 0E94 0000 		call Timebase_DownCounter_Reset_All
 5022               	/* epilogue start */
 5023               	.LM495:
 5024 1598 0895      		ret
 5025               	.LFE79:
 5027               	.global	Timebase_Init
 5029               	Timebase_Init:
 5030               	.LFB80:
 5031               	.LM496:
 5032               	.LVL282:
 5033 159a 0F93      		push r16
 5034 159c 1F93      		push r17
 5035               	/* prologue: function */
 5036               	/* frame size = 0 */
 5037 159e 8C01      		movw r16,r24
 5038               	.LM497:
 5039 15a0 0E94 0000 		call Timebase_Struct_Init
 5040               	.LVL283:
 5041               	.LM498:
 5042 15a4 C801      		movw r24,r16
 5043 15a6 0E94 0000 		call Timebase_Timer_Config
 5044               	.LM499:
 5045 15aa 0E94 0000 		call Timebase_Reset
 5046               	/* epilogue start */
 5047               	.LM500:
 5048 15ae 1F91      		pop r17
 5049 15b0 0F91      		pop r16
 5050               	.LVL284:
 5051 15b2 0895      		ret
 5052               	.LFE80:
 5054               	.global	Timebase_Main_Loop_Executables
 5056               	Timebase_Main_Loop_Executables:
 5057               	.LFB81:
 5058               	.LM501:
 5059               	/* prologue: function */
 5060               	/* frame size = 0 */
 5061               	.LM502:
 5062 15b4 E091 0000 		lds r30,Timebase
 5063 15b8 F091 0000 		lds r31,(Timebase)+1
 5064 15bc 8789      		ldd r24,Z+23
 5065 15be 83FF      		sbrs r24,3
 5066 15c0 00C0      		rjmp .L225
 5067               	.LM503:
 5068 15c2 0E94 0000 		call Timebase_DownCounter_SS_Update_All
 5069               	.LM504:
 5070 15c6 E091 0000 		lds r30,Timebase
 5071 15ca F091 0000 		lds r31,(Timebase)+1
 5072 15ce 8789      		ldd r24,Z+23
 5073 15d0 877F      		andi r24,lo8(-9)
 5074 15d2 878B      		std Z+23,r24
 5075               	.L225:
 5076               	.LM505:
 5077 15d4 E091 0000 		lds r30,Timebase
 5078 15d8 F091 0000 		lds r31,(Timebase)+1
 5079 15dc 8789      		ldd r24,Z+23
 5080 15de 81FF      		sbrs r24,1
 5081 15e0 00C0      		rjmp .L227
 5082               	.LM506:
 5083 15e2 0E94 0000 		call Timebase_DownCounter_Update_All
 5084               	.LM507:
 5085 15e6 E091 0000 		lds r30,Timebase
 5086 15ea F091 0000 		lds r31,(Timebase)+1
 5087 15ee 8789      		ldd r24,Z+23
 5088 15f0 8D7F      		andi r24,lo8(-3)
 5089 15f2 878B      		std Z+23,r24
 5090               	.L227:
 5091 15f4 0895      		ret
 5092               	.LFE81:
 5094               	.global	Timebase_ISR_Executables
 5096               	Timebase_ISR_Executables:
 5097               	.LFB82:
 5098               	.LM508:
 5099               	/* prologue: function */
 5100               	/* frame size = 0 */
 5101               	.LM509:
 5102 15f6 E091 0000 		lds r30,Timebase
 5103 15fa F091 0000 		lds r31,(Timebase)+1
 5104 15fe 8085      		ldd r24,Z+8
 5105 1600 9185      		ldd r25,Z+9
 5106 1602 0196      		adiw r24,1
 5107 1604 9187      		std Z+9,r25
 5108 1606 8087      		std Z+8,r24
 5109               	.LM510:
 5110 1608 8381      		ldd r24,Z+3
 5111 160a 86BD      		out 70-32,r24
 5112               	.LM511:
 5113 160c 8789      		ldd r24,Z+23
 5114 160e 8860      		ori r24,lo8(8)
 5115 1610 878B      		std Z+23,r24
 5116               	.LM512:
 5117 1612 8085      		ldd r24,Z+8
 5118 1614 9185      		ldd r25,Z+9
 5119 1616 6181      		ldd r22,Z+1
 5120 1618 7281      		ldd r23,Z+2
 5121 161a 0E94 0000 		call __udivmodhi4
 5122 161e 892B      		or r24,r25
 5123 1620 01F4      		brne .L230
 5124               	.LM513:
 5125 1622 8285      		ldd r24,Z+10
 5126 1624 9385      		ldd r25,Z+11
 5127 1626 A485      		ldd r26,Z+12
 5128 1628 B585      		ldd r27,Z+13
 5129 162a 0196      		adiw r24,1
 5130 162c A11D      		adc r26,__zero_reg__
 5131 162e B11D      		adc r27,__zero_reg__
 5132 1630 8287      		std Z+10,r24
 5133 1632 9387      		std Z+11,r25
 5134 1634 A487      		std Z+12,r26
 5135 1636 B587      		std Z+13,r27
 5136               	.LM514:
 5137 1638 1186      		std Z+9,__zero_reg__
 5138 163a 1086      		std Z+8,__zero_reg__
 5139               	.LM515:
 5140 163c 8789      		ldd r24,Z+23
 5141 163e 8260      		ori r24,lo8(2)
 5142 1640 878B      		std Z+23,r24
 5143               	.L230:
 5144 1642 0895      		ret
 5145               	.LFE82:
 5147               	.global	__vector_16
 5149               	__vector_16:
 5150               	.LFB83:
 5151               	.LM516:
 5152 1644 1F92      		push __zero_reg__
 5153 1646 0F92      		push r0
 5154 1648 0FB6      		in r0,__SREG__
 5155 164a 0F92      		push r0
 5156 164c 1124      		clr __zero_reg__
 5157 164e 2F93      		push r18
 5158 1650 3F93      		push r19
 5159 1652 4F93      		push r20
 5160 1654 5F93      		push r21
 5161 1656 6F93      		push r22
 5162 1658 7F93      		push r23
 5163 165a 8F93      		push r24
 5164 165c 9F93      		push r25
 5165 165e AF93      		push r26
 5166 1660 BF93      		push r27
 5167 1662 EF93      		push r30
 5168 1664 FF93      		push r31
 5169               	/* prologue: Signal */
 5170               	/* frame size = 0 */
 5171               	.LM517:
 5172 1666 0E94 0000 		call Timebase_ISR_Executables
 5173               	/* epilogue start */
 5174               	.LM518:
 5175 166a FF91      		pop r31
 5176 166c EF91      		pop r30
 5177 166e BF91      		pop r27
 5178 1670 AF91      		pop r26
 5179 1672 9F91      		pop r25
 5180 1674 8F91      		pop r24
 5181 1676 7F91      		pop r23
 5182 1678 6F91      		pop r22
 5183 167a 5F91      		pop r21
 5184 167c 4F91      		pop r20
 5185 167e 3F91      		pop r19
 5186 1680 2F91      		pop r18
 5187 1682 0F90      		pop r0
 5188 1684 0FBE      		out __SREG__,r0
 5189 1686 0F90      		pop r0
 5190 1688 1F90      		pop __zero_reg__
 5191 168a 1895      		reti
 5192               	.LFE83:
 5194               		.data
 5197               	C.2.1585:
 5198 0000 0100      		.word	1
 5199 0002 0800      		.word	8
 5200 0004 4000      		.word	64
 5201 0006 0001      		.word	256
 5202 0008 0004      		.word	1024
 5203               		.comm Timebase_type,55,1
 5204               		.comm Timebase,2,1
 5845               	.Letext0:
DEFINED SYMBOLS
                            *ABS*:00000000 timebase.c
C:\Users\WALTON\AppData\Local\Temp/ccmDJWWe.s:2      *ABS*:0000003f __SREG__
C:\Users\WALTON\AppData\Local\Temp/ccmDJWWe.s:3      *ABS*:0000003e __SP_H__
C:\Users\WALTON\AppData\Local\Temp/ccmDJWWe.s:4      *ABS*:0000003d __SP_L__
C:\Users\WALTON\AppData\Local\Temp/ccmDJWWe.s:5      *ABS*:00000034 __CCP__
C:\Users\WALTON\AppData\Local\Temp/ccmDJWWe.s:6      *ABS*:00000000 __tmp_reg__
C:\Users\WALTON\AppData\Local\Temp/ccmDJWWe.s:7      *ABS*:00000001 __zero_reg__
C:\Users\WALTON\AppData\Local\Temp/ccmDJWWe.s:18     .text:00000000 Timebase_Struct_Init
                            *COM*:00000037 Timebase_type
                            *COM*:00000002 Timebase
C:\Users\WALTON\AppData\Local\Temp/ccmDJWWe.s:124    .text:00000102 Timebase_Timer_Config
C:\Users\WALTON\AppData\Local\Temp/ccmDJWWe.s:5197   .data:00000000 C.2.1585
C:\Users\WALTON\AppData\Local\Temp/ccmDJWWe.s:444    .text:0000029c Timebase_Atomic_Operation_Start
C:\Users\WALTON\AppData\Local\Temp/ccmDJWWe.s:462    .text:000002a0 Timebase_Atomic_Operation_End
C:\Users\WALTON\AppData\Local\Temp/ccmDJWWe.s:480    .text:000002a4 Timebase_Token_Executing
C:\Users\WALTON\AppData\Local\Temp/ccmDJWWe.s:496    .text:000002b0 Timebase_Token_Add
C:\Users\WALTON\AppData\Local\Temp/ccmDJWWe.s:522    .text:000002c6 Timebase_Token_Remove
C:\Users\WALTON\AppData\Local\Temp/ccmDJWWe.s:548    .text:000002dc Timebase_Token_Remove_All
C:\Users\WALTON\AppData\Local\Temp/ccmDJWWe.s:564    .text:000002e8 Timebase_Timer_Get_SubSeconds
C:\Users\WALTON\AppData\Local\Temp/ccmDJWWe.s:604    .text:000002fc Timebase_Timer_Get_Seconds
C:\Users\WALTON\AppData\Local\Temp/ccmDJWWe.s:647    .text:00000316 Timebase_Timer_Set_SubSeconds
C:\Users\WALTON\AppData\Local\Temp/ccmDJWWe.s:685    .text:00000328 Timebase_Timer_Set_Seconds
C:\Users\WALTON\AppData\Local\Temp/ccmDJWWe.s:725    .text:0000033e Timebase_Timer_Delay_SubSeconds
C:\Users\WALTON\AppData\Local\Temp/ccmDJWWe.s:949    .text:000003fe Timebase_Timer_Await_SubSeconds
C:\Users\WALTON\AppData\Local\Temp/ccmDJWWe.s:1078   .text:0000047a Timebase_Timer_Delay_Seconds
C:\Users\WALTON\AppData\Local\Temp/ccmDJWWe.s:1175   .text:000004bc Timebase_Window_Timer_Reset
C:\Users\WALTON\AppData\Local\Temp/ccmDJWWe.s:1201   .text:000004d8 Timebase_Window_Timer_Start
C:\Users\WALTON\AppData\Local\Temp/ccmDJWWe.s:1293   .text:00000514 Timebase_Window_Timer_Get_Interval
C:\Users\WALTON\AppData\Local\Temp/ccmDJWWe.s:1431   .text:00000596 Timebase_Window_Timer_Get_Interval_Reset
C:\Users\WALTON\AppData\Local\Temp/ccmDJWWe.s:1471   .text:000005c0 Timebase_DownCounter_Get_Status
C:\Users\WALTON\AppData\Local\Temp/ccmDJWWe.s:1505   .text:000005ea Timebase_DownCounter_Set_Status
C:\Users\WALTON\AppData\Local\Temp/ccmDJWWe.s:1543   .text:0000061a Timebase_DownCounter_Get_Value
C:\Users\WALTON\AppData\Local\Temp/ccmDJWWe.s:1586   .text:00000654 Timebase_DownCounter_Set_Value
C:\Users\WALTON\AppData\Local\Temp/ccmDJWWe.s:1621   .text:00000680 Timebase_DownCounter_Get_EndValue
C:\Users\WALTON\AppData\Local\Temp/ccmDJWWe.s:1664   .text:000006ba Timebase_DownCounter_Set_EndValue
C:\Users\WALTON\AppData\Local\Temp/ccmDJWWe.s:1699   .text:000006e6 Timebase_DownCounter_Get_PeriodValue
C:\Users\WALTON\AppData\Local\Temp/ccmDJWWe.s:1742   .text:00000720 Timebase_DownCounter_Set_PeriodValue
C:\Users\WALTON\AppData\Local\Temp/ccmDJWWe.s:1800   .text:00000774 Timebase_DownCounter_Get_Period_Flag
C:\Users\WALTON\AppData\Local\Temp/ccmDJWWe.s:1833   .text:0000079c Timebase_DownCounter_Set_Period_Flag
C:\Users\WALTON\AppData\Local\Temp/ccmDJWWe.s:1867   .text:000007c6 Timebase_DownCounter_Clear_Period_Flag
C:\Users\WALTON\AppData\Local\Temp/ccmDJWWe.s:1901   .text:000007f0 Timebase_DownCounter_Reset
C:\Users\WALTON\AppData\Local\Temp/ccmDJWWe.s:1961   .text:0000082a Timebase_DownCounter_Clear_All_Flags
C:\Users\WALTON\AppData\Local\Temp/ccmDJWWe.s:2025   .text:00000864 Timebase_DownCounter_Start
C:\Users\WALTON\AppData\Local\Temp/ccmDJWWe.s:2073   .text:0000089a Timebase_DownCounter_Stop
C:\Users\WALTON\AppData\Local\Temp/ccmDJWWe.s:2121   .text:000008d0 Timebase_DownCounter_Set_Securely
C:\Users\WALTON\AppData\Local\Temp/ccmDJWWe.s:2252   .text:00000958 Timebase_DownCounter_Set_Forcefully
C:\Users\WALTON\AppData\Local\Temp/ccmDJWWe.s:2323   .text:000009a0 Timebase_DownCounter_Update
C:\Users\WALTON\AppData\Local\Temp/ccmDJWWe.s:2532   .text:00000a72 Timebase_DownCounter_Expired
C:\Users\WALTON\AppData\Local\Temp/ccmDJWWe.s:2572   .text:00000aa6 Timebase_DownCounter_Expired_Event
C:\Users\WALTON\AppData\Local\Temp/ccmDJWWe.s:2654   .text:00000af0 Timebase_DownCounter_Set_Period_Value_Securely
C:\Users\WALTON\AppData\Local\Temp/ccmDJWWe.s:2745   .text:00000b64 Timebase_DownCounter_Get_Remaining_Period_Value
C:\Users\WALTON\AppData\Local\Temp/ccmDJWWe.s:2803   .text:00000bb0 Timebase_DownCounter_Period_Value_Expired
C:\Users\WALTON\AppData\Local\Temp/ccmDJWWe.s:2895   .text:00000c2c Timebase_DownCounter_Period_Value_Expired_Event
C:\Users\WALTON\AppData\Local\Temp/ccmDJWWe.s:2947   .text:00000c6c Timebase_DownCounter_Update_All
C:\Users\WALTON\AppData\Local\Temp/ccmDJWWe.s:2964   .text:00000c74 Timebase_DownCounter_Reset_All
C:\Users\WALTON\AppData\Local\Temp/ccmDJWWe.s:3015   .text:00000c94 Timebase_DownCounter_SS_Get_Status
C:\Users\WALTON\AppData\Local\Temp/ccmDJWWe.s:3047   .text:00000cba Timebase_DownCounter_SS_Set_Status
C:\Users\WALTON\AppData\Local\Temp/ccmDJWWe.s:3083   .text:00000ce6 Timebase_DownCounter_SS_Get_Value
C:\Users\WALTON\AppData\Local\Temp/ccmDJWWe.s:3124   .text:00000d1c Timebase_DownCounter_SS_Set_Value
C:\Users\WALTON\AppData\Local\Temp/ccmDJWWe.s:3156   .text:00000d44 Timebase_DownCounter_SS_Get_EndValueSec
C:\Users\WALTON\AppData\Local\Temp/ccmDJWWe.s:3197   .text:00000d7a Timebase_DownCounter_SS_Get_EndValueSubSec
C:\Users\WALTON\AppData\Local\Temp/ccmDJWWe.s:3238   .text:00000db0 Timebase_DownCounter_SS_Set_EndValueSec
C:\Users\WALTON\AppData\Local\Temp/ccmDJWWe.s:3270   .text:00000dd8 Timebase_DownCounter_SS_Set_EndValueSubSec
C:\Users\WALTON\AppData\Local\Temp/ccmDJWWe.s:3302   .text:00000e00 Timebase_DownCounter_SS_Get_PeriodValue
C:\Users\WALTON\AppData\Local\Temp/ccmDJWWe.s:3343   .text:00000e36 Timebase_DownCounter_SS_Set_PeriodValue
C:\Users\WALTON\AppData\Local\Temp/ccmDJWWe.s:3396   .text:00000e82 Timebase_DownCounter_SS_Get_Period_Flag
C:\Users\WALTON\AppData\Local\Temp/ccmDJWWe.s:3427   .text:00000ea6 Timebase_DownCounter_SS_Set_Period_Flag
C:\Users\WALTON\AppData\Local\Temp/ccmDJWWe.s:3459   .text:00000ecc Timebase_DownCounter_SS_Clear_Period_Flag
C:\Users\WALTON\AppData\Local\Temp/ccmDJWWe.s:3491   .text:00000ef2 Timebase_DownCounter_SS_Reset
C:\Users\WALTON\AppData\Local\Temp/ccmDJWWe.s:3558   .text:00000f30 Timebase_DownCounter_SS_Clear_All_Flags
C:\Users\WALTON\AppData\Local\Temp/ccmDJWWe.s:3629   .text:00000f6e Timebase_DownCounter_SS_Start
C:\Users\WALTON\AppData\Local\Temp/ccmDJWWe.s:3675   .text:00000fa0 Timebase_DownCounter_SS_Stop
C:\Users\WALTON\AppData\Local\Temp/ccmDJWWe.s:3721   .text:00000fd2 Timebase_DownCounter_SS_Set_Securely
C:\Users\WALTON\AppData\Local\Temp/ccmDJWWe.s:4015   .text:00001144 Timebase_DownCounter_SS_Set_Forcefully
C:\Users\WALTON\AppData\Local\Temp/ccmDJWWe.s:4089   .text:00001188 Timebase_DownCounter_SS_Update
C:\Users\WALTON\AppData\Local\Temp/ccmDJWWe.s:4525   .text:00001378 Timebase_DownCounter_SS_Expired
C:\Users\WALTON\AppData\Local\Temp/ccmDJWWe.s:4563   .text:000013a8 Timebase_DownCounter_SS_Expired_Event
C:\Users\WALTON\AppData\Local\Temp/ccmDJWWe.s:4652   .text:000013f6 Timebase_DownCounter_SS_Set_Period_Value_Securely
C:\Users\WALTON\AppData\Local\Temp/ccmDJWWe.s:4741   .text:00001466 Timebase_DownCounter_SS_Get_Remaining_Period_Value
C:\Users\WALTON\AppData\Local\Temp/ccmDJWWe.s:4797   .text:000014ae Timebase_DownCounter_SS_Period_Value_Expired
C:\Users\WALTON\AppData\Local\Temp/ccmDJWWe.s:4886   .text:00001524 Timebase_DownCounter_SS_Period_Value_Expired_Event
C:\Users\WALTON\AppData\Local\Temp/ccmDJWWe.s:4936   .text:00001560 Timebase_DownCounter_SS_Update_All
C:\Users\WALTON\AppData\Local\Temp/ccmDJWWe.s:4953   .text:00001568 Timebase_DownCounter_SS_Reset_All
C:\Users\WALTON\AppData\Local\Temp/ccmDJWWe.s:5013   .text:00001590 Timebase_Reset
C:\Users\WALTON\AppData\Local\Temp/ccmDJWWe.s:5029   .text:0000159a Timebase_Init
C:\Users\WALTON\AppData\Local\Temp/ccmDJWWe.s:5056   .text:000015b4 Timebase_Main_Loop_Executables
C:\Users\WALTON\AppData\Local\Temp/ccmDJWWe.s:5096   .text:000015f6 Timebase_ISR_Executables
C:\Users\WALTON\AppData\Local\Temp/ccmDJWWe.s:5149   .text:00001644 __vector_16

UNDEFINED SYMBOLS
__divmodsi4
__mulsi3
__udivmodhi4
__do_copy_data
__do_clear_bss
