   1               		.file	"timebase.c"
   2               	__SREG__ = 0x3f
   3               	__SP_H__ = 0x3e
   4               	__SP_L__ = 0x3d
   5               	__CCP__  = 0x34
   6               	__tmp_reg__ = 0
   7               	__zero_reg__ = 1
  15               	.Ltext0:
  16               	.global	Timebase_Struct_Init
  18               	Timebase_Struct_Init:
  19               	.LFB6:
  20               	.LM1:
  21               	/* prologue: function */
  22               	/* frame size = 0 */
  23               	.LM2:
  24 0000 80E0      		ldi r24,lo8(Timebase_type)
  25 0002 90E0      		ldi r25,hi8(Timebase_type)
  26 0004 9093 0000 		sts (Timebase)+1,r25
  27 0008 8093 0000 		sts Timebase,r24
  28               	.LM3:
  29 000c 1092 0000 		sts Timebase_type,__zero_reg__
  30               	.LM4:
  31 0010 8091 0000 		lds r24,Timebase_type
  32 0014 8460      		ori r24,lo8(4)
  33 0016 8093 0000 		sts Timebase_type,r24
  34               	.LM5:
  35 001a 8091 0000 		lds r24,Timebase_type
  36 001e 8770      		andi r24,lo8(7)
  37 0020 8093 0000 		sts Timebase_type,r24
  38               	.LM6:
  39 0024 81E0      		ldi r24,lo8(1)
  40 0026 90E0      		ldi r25,hi8(1)
  41 0028 9093 0000 		sts (Timebase_type+1)+1,r25
  42 002c 8093 0000 		sts Timebase_type+1,r24
  43               	.LM7:
  44 0030 1092 0000 		sts Timebase_type+7,__zero_reg__
  45 0034 1092 0000 		sts (Timebase_type+7)+1,__zero_reg__
  46 0038 1092 0000 		sts (Timebase_type+7)+2,__zero_reg__
  47 003c 1092 0000 		sts (Timebase_type+7)+3,__zero_reg__
  48               	.LM8:
  49 0040 1092 0000 		sts Timebase_type+11,__zero_reg__
  50 0044 1092 0000 		sts (Timebase_type+11)+1,__zero_reg__
  51 0048 1092 0000 		sts (Timebase_type+11)+2,__zero_reg__
  52 004c 1092 0000 		sts (Timebase_type+11)+3,__zero_reg__
  53               	.LM9:
  54 0050 1092 0000 		sts Timebase_type+3,__zero_reg__
  55 0054 1092 0000 		sts (Timebase_type+3)+1,__zero_reg__
  56 0058 1092 0000 		sts (Timebase_type+3)+2,__zero_reg__
  57 005c 1092 0000 		sts (Timebase_type+3)+3,__zero_reg__
  58               	.LM10:
  59 0060 1092 0000 		sts Timebase_type+15,__zero_reg__
  60               	.LBB261:
  61               	.LM11:
  62 0064 1092 0000 		sts Timebase_type+16,__zero_reg__
  63               	.LM12:
  64 0068 1092 0000 		sts Timebase_type+17,__zero_reg__
  65 006c 1092 0000 		sts (Timebase_type+17)+1,__zero_reg__
  66 0070 1092 0000 		sts (Timebase_type+17)+2,__zero_reg__
  67 0074 1092 0000 		sts (Timebase_type+17)+3,__zero_reg__
  68               	.LM13:
  69 0078 1092 0000 		sts Timebase_type+21,__zero_reg__
  70 007c 1092 0000 		sts (Timebase_type+21)+1,__zero_reg__
  71 0080 1092 0000 		sts (Timebase_type+21)+2,__zero_reg__
  72 0084 1092 0000 		sts (Timebase_type+21)+3,__zero_reg__
  73               	.LM14:
  74 0088 1092 0000 		sts Timebase_type+25,__zero_reg__
  75 008c 1092 0000 		sts (Timebase_type+25)+1,__zero_reg__
  76 0090 1092 0000 		sts (Timebase_type+25)+2,__zero_reg__
  77 0094 1092 0000 		sts (Timebase_type+25)+3,__zero_reg__
  78               	.LM15:
  79 0098 1092 0000 		sts Timebase_type+29,__zero_reg__
  80 009c 1092 0000 		sts (Timebase_type+29)+1,__zero_reg__
  81 00a0 1092 0000 		sts (Timebase_type+29)+2,__zero_reg__
  82 00a4 1092 0000 		sts (Timebase_type+29)+3,__zero_reg__
  83               	.LM16:
  84 00a8 1092 0000 		sts Timebase_type+33,__zero_reg__
  85 00ac 1092 0000 		sts (Timebase_type+33)+1,__zero_reg__
  86 00b0 1092 0000 		sts (Timebase_type+33)+2,__zero_reg__
  87 00b4 1092 0000 		sts (Timebase_type+33)+3,__zero_reg__
  88               	.LBE261:
  89               	.LBB262:
  90               	.LM17:
  91 00b8 1092 0000 		sts Timebase_type+37,__zero_reg__
  92               	.LM18:
  93 00bc 1092 0000 		sts Timebase_type+38,__zero_reg__
  94 00c0 1092 0000 		sts (Timebase_type+38)+1,__zero_reg__
  95 00c4 1092 0000 		sts (Timebase_type+38)+2,__zero_reg__
  96 00c8 1092 0000 		sts (Timebase_type+38)+3,__zero_reg__
  97               	.LM19:
  98 00cc 1092 0000 		sts Timebase_type+42,__zero_reg__
  99 00d0 1092 0000 		sts (Timebase_type+42)+1,__zero_reg__
 100 00d4 1092 0000 		sts (Timebase_type+42)+2,__zero_reg__
 101 00d8 1092 0000 		sts (Timebase_type+42)+3,__zero_reg__
 102               	.LM20:
 103 00dc 1092 0000 		sts Timebase_type+46,__zero_reg__
 104 00e0 1092 0000 		sts (Timebase_type+46)+1,__zero_reg__
 105 00e4 1092 0000 		sts (Timebase_type+46)+2,__zero_reg__
 106 00e8 1092 0000 		sts (Timebase_type+46)+3,__zero_reg__
 107               	/* epilogue start */
 108               	.LBE262:
 109               	.LM21:
 110 00ec 0895      		ret
 111               	.LFE6:
 113               	.global	Timebase_Timer_Config
 115               	Timebase_Timer_Config:
 116               	.LFB7:
 117               	.LM22:
 118               	.LVL0:
 119               	/* prologue: function */
 120               	/* frame size = 0 */
 121 00ee 9C01      		movw r18,r24
 122               	.LM23:
 123 00f0 E091 0000 		lds r30,Timebase
 124 00f4 F091 0000 		lds r31,(Timebase)+1
 125 00f8 8081      		ld r24,Z
 126               	.LVL1:
 127 00fa 80FF      		sbrs r24,0
 128 00fc 00C0      		rjmp .L4
 129               	.LBB263:
 130               	.LM24:
 131 00fe 2130      		cpi r18,1
 132 0100 3105      		cpc r19,__zero_reg__
 133 0102 01F4      		brne .L5
 134 0104 96E0      		ldi r25,lo8(6)
 135               	.LVL2:
 136 0106 00C0      		rjmp .L6
 137               	.LVL3:
 138               	.L5:
 139               	.LM25:
 140 0108 2230      		cpi r18,2
 141 010a 3105      		cpc r19,__zero_reg__
 142 010c 01F4      		brne .L7
 143 010e 95E0      		ldi r25,lo8(5)
 144               	.LVL4:
 145 0110 00C0      		rjmp .L6
 146               	.LVL5:
 147               	.L7:
 148               	.LM26:
 149 0112 2430      		cpi r18,4
 150 0114 3105      		cpc r19,__zero_reg__
 151 0116 01F4      		brne .L8
 152 0118 94E0      		ldi r25,lo8(4)
 153               	.LVL6:
 154 011a 00C0      		rjmp .L6
 155               	.LVL7:
 156               	.L8:
 157               	.LM27:
 158 011c 2830      		cpi r18,8
 159 011e 3105      		cpc r19,__zero_reg__
 160 0120 01F4      		brne .L9
 161 0122 93E0      		ldi r25,lo8(3)
 162               	.LVL8:
 163 0124 00C0      		rjmp .L6
 164               	.LVL9:
 165               	.L9:
 166               	.LM28:
 167 0126 2031      		cpi r18,16
 168 0128 3105      		cpc r19,__zero_reg__
 169 012a 01F4      		brne .L10
 170 012c 92E0      		ldi r25,lo8(2)
 171               	.LVL10:
 172 012e 00C0      		rjmp .L6
 173               	.LVL11:
 174               	.L10:
 175 0130 90E0      		ldi r25,lo8(0)
 176               	.LVL12:
 177 0132 2032      		cpi r18,32
 178 0134 3105      		cpc r19,__zero_reg__
 179 0136 01F4      		brne .L6
 180 0138 91E0      		ldi r25,lo8(1)
 181               	.L6:
 182               	.LM29:
 183               	/* #APP */
 184               	 ;  144 "timebase.c" 1
 185 013a F894      		cli
 186               	 ;  0 "" 2
 187               	.LM30:
 188               	/* #NOAPP */
 189 013c 84B7      		in r24,84-32
 190 013e 877F      		andi r24,lo8(-9)
 191 0140 84BF      		out 84-32,r24
 192               	.LM31:
 193 0142 8091 6000 		lds r24,96
 194 0146 8068      		ori r24,lo8(-128)
 195 0148 8093 6000 		sts 96,r24
 196               	.LM32:
 197 014c 8091 6000 		lds r24,96
 198 0150 8861      		ori r24,lo8(24)
 199 0152 8093 6000 		sts 96,r24
 200               	.LM33:
 201 0156 9064      		ori r25,lo8(64)
 202 0158 9093 6000 		sts 96,r25
 203               	.LM34:
 204               	/* #APP */
 205               	 ;  149 "timebase.c" 1
 206 015c 7894      		sei
 207               	 ;  0 "" 2
 208               	/* #NOAPP */
 209 015e 00C0      		rjmp .L12
 210               	.LVL13:
 211               	.L4:
 212               	.LBE263:
 213               	.LM35:
 214 0160 81FD      		sbrc r24,1
 215 0162 00C0      		rjmp .L12
 216               	.LM36:
 217 0164 82FF      		sbrs r24,2
 218 0166 00C0      		rjmp .L12
 219               	.LM37:
 220 0168 14BC      		out 68-32,__zero_reg__
 221               	.LM38:
 222 016a 15BC      		out 69-32,__zero_reg__
 223               	.LM39:
 224 016c 1092 6E00 		sts 110,__zero_reg__
 225               	.LM40:
 226 0170 15BA      		out 53-32,__zero_reg__
 227               	.LM41:
 228 0172 17BC      		out 71-32,__zero_reg__
 229               	.LM42:
 230 0174 18BC      		out 72-32,__zero_reg__
 231               	.LM43:
 232 0176 16BC      		out 70-32,__zero_reg__
 233               	.LM44:
 234 0178 8AEF      		ldi r24,lo8(-6)
 235 017a 87BD      		out 71-32,r24
 236               	.LM45:
 237 017c 92E0      		ldi r25,lo8(2)
 238 017e 94BD      		out 68-32,r25
 239               	.LM46:
 240 0180 83E0      		ldi r24,lo8(3)
 241 0182 85BD      		out 69-32,r24
 242               	.LM47:
 243 0184 9093 6E00 		sts 110,r25
 244               	.LM48:
 245               	/* #APP */
 246               	 ;  164 "timebase.c" 1
 247 0188 7894      		sei
 248               	 ;  0 "" 2
 249               	.LVL14:
 250               	/* #NOAPP */
 251               	.L12:
 252               	.LM49:
 253 018a 3283      		std Z+2,r19
 254 018c 2183      		std Z+1,r18
 255               	/* epilogue start */
 256               	.LM50:
 257 018e 0895      		ret
 258               	.LFE7:
 260               	.global	Timebase_Token_Executing
 262               	Timebase_Token_Executing:
 263               	.LFB8:
 264               	.LM51:
 265               	/* prologue: function */
 266               	/* frame size = 0 */
 267               	.LM52:
 268 0190 E091 0000 		lds r30,Timebase
 269 0194 F091 0000 		lds r31,(Timebase)+1
 270 0198 8785      		ldd r24,Z+15
 271               	/* epilogue start */
 272               	.LM53:
 273 019a 0895      		ret
 274               	.LFE8:
 276               	.global	Timebase_Token_Add
 278               	Timebase_Token_Add:
 279               	.LFB9:
 280               	.LM54:
 281               	/* prologue: function */
 282               	/* frame size = 0 */
 283               	.LBB264:
 284               	.LBB265:
 285               	.LM55:
 286 019c E091 0000 		lds r30,Timebase
 287 01a0 F091 0000 		lds r31,(Timebase)+1
 288 01a4 8785      		ldd r24,Z+15
 289               	.LBE265:
 290               	.LBE264:
 291               	.LM56:
 292 01a6 8F33      		cpi r24,lo8(63)
 293 01a8 00F4      		brsh .L18
 294               	.LM57:
 295 01aa 8785      		ldd r24,Z+15
 296 01ac 8F5F      		subi r24,lo8(-(1))
 297 01ae 8787      		std Z+15,r24
 298               	.L18:
 299 01b0 0895      		ret
 300               	.LFE9:
 302               	.global	Timebase_Token_Remove
 304               	Timebase_Token_Remove:
 305               	.LFB10:
 306               	.LM58:
 307               	/* prologue: function */
 308               	/* frame size = 0 */
 309               	.LBB266:
 310               	.LBB267:
 311               	.LM59:
 312 01b2 E091 0000 		lds r30,Timebase
 313 01b6 F091 0000 		lds r31,(Timebase)+1
 314 01ba 8785      		ldd r24,Z+15
 315               	.LBE267:
 316               	.LBE266:
 317               	.LM60:
 318 01bc 8823      		tst r24
 319 01be 01F0      		breq .L21
 320               	.LM61:
 321 01c0 8785      		ldd r24,Z+15
 322 01c2 8150      		subi r24,lo8(-(-1))
 323 01c4 8787      		std Z+15,r24
 324               	.L21:
 325 01c6 0895      		ret
 326               	.LFE10:
 328               	.global	Timebase_Token_Remove_All
 330               	Timebase_Token_Remove_All:
 331               	.LFB11:
 332               	.LM62:
 333               	/* prologue: function */
 334               	/* frame size = 0 */
 335               	.LM63:
 336 01c8 E091 0000 		lds r30,Timebase
 337 01cc F091 0000 		lds r31,(Timebase)+1
 338 01d0 1786      		std Z+15,__zero_reg__
 339               	/* epilogue start */
 340               	.LM64:
 341 01d2 0895      		ret
 342               	.LFE11:
 344               	.global	Timebase_Timer_Get_SubSeconds
 346               	Timebase_Timer_Get_SubSeconds:
 347               	.LFB12:
 348               	.LM65:
 349               	/* prologue: function */
 350               	/* frame size = 0 */
 351               	.LM66:
 352 01d4 E091 0000 		lds r30,Timebase
 353 01d8 F091 0000 		lds r31,(Timebase)+1
 354 01dc 2781      		ldd r18,Z+7
 355 01de 3085      		ldd r19,Z+8
 356 01e0 4185      		ldd r20,Z+9
 357 01e2 5285      		ldd r21,Z+10
 358               	.LM67:
 359 01e4 B901      		movw r22,r18
 360 01e6 CA01      		movw r24,r20
 361               	/* epilogue start */
 362 01e8 0895      		ret
 363               	.LFE12:
 365               	.global	Timebase_Timer_Get_Seconds
 367               	Timebase_Timer_Get_Seconds:
 368               	.LFB13:
 369               	.LM68:
 370               	/* prologue: function */
 371               	/* frame size = 0 */
 372               	.LM69:
 373 01ea E091 0000 		lds r30,Timebase
 374 01ee F091 0000 		lds r31,(Timebase)+1
 375 01f2 2385      		ldd r18,Z+11
 376 01f4 3485      		ldd r19,Z+12
 377 01f6 4585      		ldd r20,Z+13
 378 01f8 5685      		ldd r21,Z+14
 379               	.LM70:
 380 01fa B901      		movw r22,r18
 381 01fc CA01      		movw r24,r20
 382               	/* epilogue start */
 383 01fe 0895      		ret
 384               	.LFE13:
 386               	.global	Timebase_Timer_Set_SubSeconds
 388               	Timebase_Timer_Set_SubSeconds:
 389               	.LFB14:
 390               	.LM71:
 391               	.LVL15:
 392               	/* prologue: function */
 393               	/* frame size = 0 */
 394               	.LM72:
 395 0200 E091 0000 		lds r30,Timebase
 396 0204 F091 0000 		lds r31,(Timebase)+1
 397 0208 6783      		std Z+7,r22
 398 020a 7087      		std Z+8,r23
 399 020c 8187      		std Z+9,r24
 400 020e 9287      		std Z+10,r25
 401               	/* epilogue start */
 402               	.LM73:
 403 0210 0895      		ret
 404               	.LFE14:
 406               	.global	Timebase_Timer_Set_Seconds
 408               	Timebase_Timer_Set_Seconds:
 409               	.LFB15:
 410               	.LM74:
 411               	.LVL16:
 412               	/* prologue: function */
 413               	/* frame size = 0 */
 414               	.LM75:
 415 0212 E091 0000 		lds r30,Timebase
 416 0216 F091 0000 		lds r31,(Timebase)+1
 417 021a 6387      		std Z+11,r22
 418 021c 7487      		std Z+12,r23
 419 021e 8587      		std Z+13,r24
 420 0220 9687      		std Z+14,r25
 421               	/* epilogue start */
 422               	.LM76:
 423 0222 0895      		ret
 424               	.LFE15:
 426               	.global	Timebase_Timer_Delay_SubSeconds
 428               	Timebase_Timer_Delay_SubSeconds:
 429               	.LFB16:
 430               	.LM77:
 431               	.LVL17:
 432               	/* prologue: function */
 433               	/* frame size = 0 */
 434 0224 9C01      		movw r18,r24
 435               	.LBB268:
 436               	.LBB269:
 437               	.LBB270:
 438               	.LBB271:
 439               	.LM78:
 440 0226 E091 0000 		lds r30,Timebase
 441 022a F091 0000 		lds r31,(Timebase)+1
 442 022e 8785      		ldd r24,Z+15
 443               	.LVL18:
 444               	.LBE271:
 445               	.LBE270:
 446               	.LM79:
 447 0230 8F33      		cpi r24,lo8(63)
 448 0232 00F4      		brsh .L33
 449               	.LM80:
 450 0234 8785      		ldd r24,Z+15
 451 0236 8F5F      		subi r24,lo8(-(1))
 452 0238 8787      		std Z+15,r24
 453               	.L33:
 454               	.LBE269:
 455               	.LBE268:
 456               	.LBB272:
 457               	.LBB273:
 458               	.LM81:
 459 023a 8781      		ldd r24,Z+7
 460 023c 9085      		ldd r25,Z+8
 461 023e A185      		ldd r26,Z+9
 462 0240 B285      		ldd r27,Z+10
 463               	.LBE273:
 464               	.LBE272:
 465               	.LM82:
 466 0242 40E0      		ldi r20,lo8(0)
 467 0244 50E0      		ldi r21,hi8(0)
 468               	.LVL19:
 469 0246 280F      		add r18,r24
 470 0248 391F      		adc r19,r25
 471 024a 4A1F      		adc r20,r26
 472 024c 5B1F      		adc r21,r27
 473               	.LVL20:
 474               	.L34:
 475               	.LBB274:
 476               	.LBB275:
 477               	.LM83:
 478 024e 8781      		ldd r24,Z+7
 479 0250 9085      		ldd r25,Z+8
 480 0252 A185      		ldd r26,Z+9
 481 0254 B285      		ldd r27,Z+10
 482               	.LBE275:
 483               	.LBE274:
 484               	.LM84:
 485 0256 8217      		cp r24,r18
 486 0258 9307      		cpc r25,r19
 487 025a A407      		cpc r26,r20
 488 025c B507      		cpc r27,r21
 489 025e 00F0      		brlo .L34
 490               	.LBB276:
 491               	.LBB277:
 492               	.LBB278:
 493               	.LBB279:
 494               	.LM85:
 495 0260 8785      		ldd r24,Z+15
 496               	.LBE279:
 497               	.LBE278:
 498               	.LM86:
 499 0262 8823      		tst r24
 500 0264 01F0      		breq .L36
 501               	.LM87:
 502 0266 8785      		ldd r24,Z+15
 503 0268 8150      		subi r24,lo8(-(-1))
 504 026a 8787      		std Z+15,r24
 505               	.L36:
 506 026c 0895      		ret
 507               	.LBE277:
 508               	.LBE276:
 509               	.LFE16:
 511               	.global	Timebase_Timer_Delay_Seconds
 513               	Timebase_Timer_Delay_Seconds:
 514               	.LFB17:
 515               	.LM88:
 516               	.LVL21:
 517 026e EF92      		push r14
 518 0270 FF92      		push r15
 519 0272 0F93      		push r16
 520 0274 1F93      		push r17
 521               	/* prologue: function */
 522               	/* frame size = 0 */
 523               	.LBB280:
 524               	.LBB281:
 525               	.LM89:
 526 0276 E091 0000 		lds r30,Timebase
 527 027a F091 0000 		lds r31,(Timebase)+1
 528 027e 2385      		ldd r18,Z+11
 529 0280 3485      		ldd r19,Z+12
 530 0282 4585      		ldd r20,Z+13
 531 0284 5685      		ldd r21,Z+14
 532               	.LBE281:
 533               	.LBE280:
 534               	.LM90:
 535 0286 7C01      		movw r14,r24
 536               	.LVL22:
 537 0288 00E0      		ldi r16,lo8(0)
 538 028a 10E0      		ldi r17,hi8(0)
 539               	.LVL23:
 540 028c E20E      		add r14,r18
 541 028e F31E      		adc r15,r19
 542 0290 041F      		adc r16,r20
 543 0292 151F      		adc r17,r21
 544               	.LVL24:
 545               	.L39:
 546               	.LBB282:
 547               	.LBB283:
 548               	.LM91:
 549 0294 8781      		ldd r24,Z+7
 550 0296 9085      		ldd r25,Z+8
 551 0298 A185      		ldd r26,Z+9
 552 029a B285      		ldd r27,Z+10
 553               	.LVL25:
 554               	.LBE283:
 555               	.LBE282:
 556               	.LM92:
 557 029c 8E15      		cp r24,r14
 558 029e 9F05      		cpc r25,r15
 559 02a0 A007      		cpc r26,r16
 560 02a2 B107      		cpc r27,r17
 561 02a4 00F0      		brlo .L39
 562               	/* epilogue start */
 563               	.LM93:
 564 02a6 1F91      		pop r17
 565 02a8 0F91      		pop r16
 566               	.LVL26:
 567 02aa FF90      		pop r15
 568 02ac EF90      		pop r14
 569               	.LVL27:
 570 02ae 0895      		ret
 571               	.LFE17:
 573               	.global	Timebase_UpCounter_Get_Status
 575               	Timebase_UpCounter_Get_Status:
 576               	.LFB18:
 577               	.LM94:
 578               	.LVL28:
 579               	/* prologue: function */
 580               	/* frame size = 0 */
 581               	.LM95:
 582 02b0 E091 0000 		lds r30,Timebase
 583 02b4 F091 0000 		lds r31,(Timebase)+1
 584 02b8 90E0      		ldi r25,lo8(0)
 585               	.LVL29:
 586 02ba 25E1      		ldi r18,lo8(21)
 587 02bc 30E0      		ldi r19,hi8(21)
 588 02be AC01      		movw r20,r24
 589 02c0 429F      		mul r20,r18
 590 02c2 C001      		movw r24,r0
 591 02c4 439F      		mul r20,r19
 592 02c6 900D      		add r25,r0
 593 02c8 529F      		mul r21,r18
 594 02ca 900D      		add r25,r0
 595 02cc 1124      		clr r1
 596               	.LVL30:
 597 02ce E80F      		add r30,r24
 598 02d0 F91F      		adc r31,r25
 599 02d2 8089      		ldd r24,Z+16
 600 02d4 8695      		lsr r24
 601               	.LM96:
 602 02d6 8F70      		andi r24,lo8(15)
 603               	/* epilogue start */
 604 02d8 0895      		ret
 605               	.LFE18:
 607               	.global	Timebase_UpCounter_Set_Status
 609               	Timebase_UpCounter_Set_Status:
 610               	.LFB19:
 611               	.LM97:
 612               	.LVL31:
 613               	/* prologue: function */
 614               	/* frame size = 0 */
 615               	.LM98:
 616 02da E091 0000 		lds r30,Timebase
 617 02de F091 0000 		lds r31,(Timebase)+1
 618 02e2 90E0      		ldi r25,lo8(0)
 619               	.LVL32:
 620 02e4 25E1      		ldi r18,lo8(21)
 621 02e6 30E0      		ldi r19,hi8(21)
 622 02e8 AC01      		movw r20,r24
 623 02ea 429F      		mul r20,r18
 624 02ec C001      		movw r24,r0
 625 02ee 439F      		mul r20,r19
 626 02f0 900D      		add r25,r0
 627 02f2 529F      		mul r21,r18
 628 02f4 900D      		add r25,r0
 629 02f6 1124      		clr r1
 630               	.LVL33:
 631 02f8 E80F      		add r30,r24
 632 02fa F91F      		adc r31,r25
 633 02fc 6F70      		andi r22,lo8(15)
 634               	.LVL34:
 635 02fe 660F      		lsl r22
 636 0300 8089      		ldd r24,Z+16
 637 0302 817E      		andi r24,lo8(-31)
 638 0304 862B      		or r24,r22
 639 0306 808B      		std Z+16,r24
 640               	/* epilogue start */
 641               	.LM99:
 642 0308 0895      		ret
 643               	.LFE19:
 645               	.global	Timebase_UpCounter_Get_Value
 647               	Timebase_UpCounter_Get_Value:
 648               	.LFB20:
 649               	.LM100:
 650               	.LVL35:
 651               	/* prologue: function */
 652               	/* frame size = 0 */
 653               	.LM101:
 654 030a E091 0000 		lds r30,Timebase
 655 030e F091 0000 		lds r31,(Timebase)+1
 656 0312 90E0      		ldi r25,lo8(0)
 657               	.LVL36:
 658 0314 25E1      		ldi r18,lo8(21)
 659 0316 30E0      		ldi r19,hi8(21)
 660 0318 AC01      		movw r20,r24
 661 031a 429F      		mul r20,r18
 662 031c C001      		movw r24,r0
 663 031e 439F      		mul r20,r19
 664 0320 900D      		add r25,r0
 665 0322 529F      		mul r21,r18
 666 0324 900D      		add r25,r0
 667 0326 1124      		clr r1
 668               	.LVL37:
 669 0328 E80F      		add r30,r24
 670 032a F91F      		adc r31,r25
 671 032c DF01      		movw r26,r30
 672 032e 5D96      		adiw r26,29
 673 0330 658D      		ldd r22,Z+29
 674 0332 1196      		adiw r26,1
 675 0334 7C91      		ld r23,X
 676 0336 1197      		sbiw r26,1
 677               	.LM102:
 678 0338 1296      		adiw r26,2
 679 033a 8C91      		ld r24,X
 680 033c 1297      		sbiw r26,2
 681 033e 1396      		adiw r26,3
 682 0340 9C91      		ld r25,X
 683               	.LVL38:
 684               	/* epilogue start */
 685 0342 0895      		ret
 686               	.LFE20:
 688               	.global	Timebase_UpCounter_Set_Value
 690               	Timebase_UpCounter_Set_Value:
 691               	.LFB21:
 692               	.LM103:
 693               	.LVL39:
 694               	/* prologue: function */
 695               	/* frame size = 0 */
 696               	.LM104:
 697 0344 E091 0000 		lds r30,Timebase
 698 0348 F091 0000 		lds r31,(Timebase)+1
 699 034c 90E0      		ldi r25,lo8(0)
 700               	.LVL40:
 701 034e 25E1      		ldi r18,lo8(21)
 702 0350 30E0      		ldi r19,hi8(21)
 703 0352 DC01      		movw r26,r24
 704 0354 A29F      		mul r26,r18
 705 0356 C001      		movw r24,r0
 706 0358 A39F      		mul r26,r19
 707 035a 900D      		add r25,r0
 708 035c B29F      		mul r27,r18
 709 035e 900D      		add r25,r0
 710 0360 1124      		clr r1
 711               	.LVL41:
 712 0362 E80F      		add r30,r24
 713 0364 F91F      		adc r31,r25
 714 0366 458F      		std Z+29,r20
 715 0368 568F      		std Z+30,r21
 716 036a 678F      		std Z+31,r22
 717 036c 70A3      		std Z+32,r23
 718               	/* epilogue start */
 719               	.LM105:
 720 036e 0895      		ret
 721               	.LFE21:
 723               	.global	Timebase_UpCounter_Get_EndValue
 725               	Timebase_UpCounter_Get_EndValue:
 726               	.LFB22:
 727               	.LM106:
 728               	.LVL42:
 729               	/* prologue: function */
 730               	/* frame size = 0 */
 731               	.LM107:
 732 0370 E091 0000 		lds r30,Timebase
 733 0374 F091 0000 		lds r31,(Timebase)+1
 734 0378 90E0      		ldi r25,lo8(0)
 735               	.LVL43:
 736 037a 25E1      		ldi r18,lo8(21)
 737 037c 30E0      		ldi r19,hi8(21)
 738 037e AC01      		movw r20,r24
 739 0380 429F      		mul r20,r18
 740 0382 C001      		movw r24,r0
 741 0384 439F      		mul r20,r19
 742 0386 900D      		add r25,r0
 743 0388 529F      		mul r21,r18
 744 038a 900D      		add r25,r0
 745 038c 1124      		clr r1
 746               	.LVL44:
 747 038e E80F      		add r30,r24
 748 0390 F91F      		adc r31,r25
 749 0392 DF01      		movw r26,r30
 750 0394 5196      		adiw r26,17
 751 0396 6189      		ldd r22,Z+17
 752 0398 1196      		adiw r26,1
 753 039a 7C91      		ld r23,X
 754 039c 1197      		sbiw r26,1
 755               	.LM108:
 756 039e 1296      		adiw r26,2
 757 03a0 8C91      		ld r24,X
 758 03a2 1297      		sbiw r26,2
 759 03a4 1396      		adiw r26,3
 760 03a6 9C91      		ld r25,X
 761               	.LVL45:
 762               	/* epilogue start */
 763 03a8 0895      		ret
 764               	.LFE22:
 766               	.global	Timebase_UpCounter_Set_EndValue
 768               	Timebase_UpCounter_Set_EndValue:
 769               	.LFB23:
 770               	.LM109:
 771               	.LVL46:
 772               	/* prologue: function */
 773               	/* frame size = 0 */
 774               	.LM110:
 775 03aa E091 0000 		lds r30,Timebase
 776 03ae F091 0000 		lds r31,(Timebase)+1
 777 03b2 90E0      		ldi r25,lo8(0)
 778               	.LVL47:
 779 03b4 25E1      		ldi r18,lo8(21)
 780 03b6 30E0      		ldi r19,hi8(21)
 781 03b8 DC01      		movw r26,r24
 782 03ba A29F      		mul r26,r18
 783 03bc C001      		movw r24,r0
 784 03be A39F      		mul r26,r19
 785 03c0 900D      		add r25,r0
 786 03c2 B29F      		mul r27,r18
 787 03c4 900D      		add r25,r0
 788 03c6 1124      		clr r1
 789               	.LVL48:
 790 03c8 E80F      		add r30,r24
 791 03ca F91F      		adc r31,r25
 792 03cc 418B      		std Z+17,r20
 793 03ce 528B      		std Z+18,r21
 794 03d0 638B      		std Z+19,r22
 795 03d2 748B      		std Z+20,r23
 796               	/* epilogue start */
 797               	.LM111:
 798 03d4 0895      		ret
 799               	.LFE23:
 801               	.global	Timebase_UpCounter_Get_TargetValue
 803               	Timebase_UpCounter_Get_TargetValue:
 804               	.LFB24:
 805               	.LM112:
 806               	.LVL49:
 807               	/* prologue: function */
 808               	/* frame size = 0 */
 809               	.LM113:
 810 03d6 E091 0000 		lds r30,Timebase
 811 03da F091 0000 		lds r31,(Timebase)+1
 812 03de 90E0      		ldi r25,lo8(0)
 813               	.LVL50:
 814 03e0 0196      		adiw r24,1
 815               	.LVL51:
 816 03e2 25E1      		ldi r18,lo8(21)
 817 03e4 30E0      		ldi r19,hi8(21)
 818 03e6 AC01      		movw r20,r24
 819 03e8 429F      		mul r20,r18
 820 03ea C001      		movw r24,r0
 821 03ec 439F      		mul r20,r19
 822 03ee 900D      		add r25,r0
 823 03f0 529F      		mul r21,r18
 824 03f2 900D      		add r25,r0
 825 03f4 1124      		clr r1
 826               	.LVL52:
 827 03f6 E80F      		add r30,r24
 828 03f8 F91F      		adc r31,r25
 829 03fa 6081      		ld r22,Z
 830 03fc 7181      		ldd r23,Z+1
 831               	.LM114:
 832 03fe 8281      		ldd r24,Z+2
 833 0400 9381      		ldd r25,Z+3
 834               	.LVL53:
 835               	/* epilogue start */
 836 0402 0895      		ret
 837               	.LFE24:
 839               	.global	Timebase_UpCounter_Set_TargetValue
 841               	Timebase_UpCounter_Set_TargetValue:
 842               	.LFB25:
 843               	.LM115:
 844               	.LVL54:
 845               	/* prologue: function */
 846               	/* frame size = 0 */
 847               	.LM116:
 848 0404 E091 0000 		lds r30,Timebase
 849 0408 F091 0000 		lds r31,(Timebase)+1
 850 040c 90E0      		ldi r25,lo8(0)
 851               	.LVL55:
 852 040e 0196      		adiw r24,1
 853               	.LVL56:
 854 0410 25E1      		ldi r18,lo8(21)
 855 0412 30E0      		ldi r19,hi8(21)
 856 0414 DC01      		movw r26,r24
 857 0416 A29F      		mul r26,r18
 858 0418 C001      		movw r24,r0
 859 041a A39F      		mul r26,r19
 860 041c 900D      		add r25,r0
 861 041e B29F      		mul r27,r18
 862 0420 900D      		add r25,r0
 863 0422 1124      		clr r1
 864               	.LVL57:
 865 0424 E80F      		add r30,r24
 866 0426 F91F      		adc r31,r25
 867 0428 4083      		st Z,r20
 868 042a 5183      		std Z+1,r21
 869 042c 6283      		std Z+2,r22
 870 042e 7383      		std Z+3,r23
 871               	/* epilogue start */
 872               	.LM117:
 873 0430 0895      		ret
 874               	.LFE25:
 876               	.global	Timebase_UpCounter_Get_TemporaryValue
 878               	Timebase_UpCounter_Get_TemporaryValue:
 879               	.LFB26:
 880               	.LM118:
 881               	.LVL58:
 882               	/* prologue: function */
 883               	/* frame size = 0 */
 884               	.LM119:
 885 0432 E091 0000 		lds r30,Timebase
 886 0436 F091 0000 		lds r31,(Timebase)+1
 887 043a 90E0      		ldi r25,lo8(0)
 888               	.LVL59:
 889 043c 25E1      		ldi r18,lo8(21)
 890 043e 30E0      		ldi r19,hi8(21)
 891 0440 AC01      		movw r20,r24
 892 0442 429F      		mul r20,r18
 893 0444 C001      		movw r24,r0
 894 0446 439F      		mul r20,r19
 895 0448 900D      		add r25,r0
 896 044a 529F      		mul r21,r18
 897 044c 900D      		add r25,r0
 898 044e 1124      		clr r1
 899               	.LVL60:
 900 0450 E80F      		add r30,r24
 901 0452 F91F      		adc r31,r25
 902 0454 DF01      		movw r26,r30
 903 0456 5996      		adiw r26,25
 904 0458 618D      		ldd r22,Z+25
 905 045a 1196      		adiw r26,1
 906 045c 7C91      		ld r23,X
 907 045e 1197      		sbiw r26,1
 908               	.LM120:
 909 0460 1296      		adiw r26,2
 910 0462 8C91      		ld r24,X
 911 0464 1297      		sbiw r26,2
 912 0466 1396      		adiw r26,3
 913 0468 9C91      		ld r25,X
 914               	.LVL61:
 915               	/* epilogue start */
 916 046a 0895      		ret
 917               	.LFE26:
 919               	.global	Timebase_UpCounter_Set_TemporaryValue
 921               	Timebase_UpCounter_Set_TemporaryValue:
 922               	.LFB27:
 923               	.LM121:
 924               	.LVL62:
 925               	/* prologue: function */
 926               	/* frame size = 0 */
 927               	.LM122:
 928 046c E091 0000 		lds r30,Timebase
 929 0470 F091 0000 		lds r31,(Timebase)+1
 930 0474 90E0      		ldi r25,lo8(0)
 931               	.LVL63:
 932 0476 25E1      		ldi r18,lo8(21)
 933 0478 30E0      		ldi r19,hi8(21)
 934 047a DC01      		movw r26,r24
 935 047c A29F      		mul r26,r18
 936 047e C001      		movw r24,r0
 937 0480 A39F      		mul r26,r19
 938 0482 900D      		add r25,r0
 939 0484 B29F      		mul r27,r18
 940 0486 900D      		add r25,r0
 941 0488 1124      		clr r1
 942               	.LVL64:
 943 048a E80F      		add r30,r24
 944 048c F91F      		adc r31,r25
 945 048e 418F      		std Z+25,r20
 946 0490 528F      		std Z+26,r21
 947 0492 638F      		std Z+27,r22
 948 0494 748F      		std Z+28,r23
 949               	/* epilogue start */
 950               	.LM123:
 951 0496 0895      		ret
 952               	.LFE27:
 954               	.global	Timebase_UpCounter_Get_PeriodValue
 956               	Timebase_UpCounter_Get_PeriodValue:
 957               	.LFB28:
 958               	.LM124:
 959               	.LVL65:
 960               	/* prologue: function */
 961               	/* frame size = 0 */
 962               	.LM125:
 963 0498 E091 0000 		lds r30,Timebase
 964 049c F091 0000 		lds r31,(Timebase)+1
 965 04a0 90E0      		ldi r25,lo8(0)
 966               	.LVL66:
 967 04a2 25E1      		ldi r18,lo8(21)
 968 04a4 30E0      		ldi r19,hi8(21)
 969 04a6 AC01      		movw r20,r24
 970 04a8 429F      		mul r20,r18
 971 04aa C001      		movw r24,r0
 972 04ac 439F      		mul r20,r19
 973 04ae 900D      		add r25,r0
 974 04b0 529F      		mul r21,r18
 975 04b2 900D      		add r25,r0
 976 04b4 1124      		clr r1
 977               	.LVL67:
 978 04b6 E80F      		add r30,r24
 979 04b8 F91F      		adc r31,r25
 980 04ba DF01      		movw r26,r30
 981 04bc 9196      		adiw r26,33
 982 04be 61A1      		ldd r22,Z+33
 983 04c0 1196      		adiw r26,1
 984 04c2 7C91      		ld r23,X
 985 04c4 1197      		sbiw r26,1
 986               	.LM126:
 987 04c6 1296      		adiw r26,2
 988 04c8 8C91      		ld r24,X
 989 04ca 1297      		sbiw r26,2
 990 04cc 1396      		adiw r26,3
 991 04ce 9C91      		ld r25,X
 992               	.LVL68:
 993               	/* epilogue start */
 994 04d0 0895      		ret
 995               	.LFE28:
 997               	.global	Timebase_UpCounter_Set_PeriodValue
 999               	Timebase_UpCounter_Set_PeriodValue:
 1000               	.LFB29:
 1001               	.LM127:
 1002               	.LVL69:
 1003               	/* prologue: function */
 1004               	/* frame size = 0 */
 1005               	.LM128:
 1006 04d2 E091 0000 		lds r30,Timebase
 1007 04d6 F091 0000 		lds r31,(Timebase)+1
 1008 04da 90E0      		ldi r25,lo8(0)
 1009               	.LVL70:
 1010 04dc 25E1      		ldi r18,lo8(21)
 1011 04de 30E0      		ldi r19,hi8(21)
 1012 04e0 DC01      		movw r26,r24
 1013 04e2 A29F      		mul r26,r18
 1014 04e4 C001      		movw r24,r0
 1015 04e6 A39F      		mul r26,r19
 1016 04e8 900D      		add r25,r0
 1017 04ea B29F      		mul r27,r18
 1018 04ec 900D      		add r25,r0
 1019 04ee 1124      		clr r1
 1020               	.LVL71:
 1021 04f0 E80F      		add r30,r24
 1022 04f2 F91F      		adc r31,r25
 1023 04f4 41A3      		std Z+33,r20
 1024 04f6 52A3      		std Z+34,r21
 1025 04f8 63A3      		std Z+35,r22
 1026 04fa 74A3      		std Z+36,r23
 1027               	/* epilogue start */
 1028               	.LM129:
 1029 04fc 0895      		ret
 1030               	.LFE29:
 1032               	.global	Timebase_UpCounter_Get_Period_Flag
 1034               	Timebase_UpCounter_Get_Period_Flag:
 1035               	.LFB30:
 1036               	.LM130:
 1037               	.LVL72:
 1038               	/* prologue: function */
 1039               	/* frame size = 0 */
 1040               	.LM131:
 1041 04fe E091 0000 		lds r30,Timebase
 1042 0502 F091 0000 		lds r31,(Timebase)+1
 1043 0506 90E0      		ldi r25,lo8(0)
 1044               	.LVL73:
 1045 0508 25E1      		ldi r18,lo8(21)
 1046 050a 30E0      		ldi r19,hi8(21)
 1047 050c AC01      		movw r20,r24
 1048 050e 429F      		mul r20,r18
 1049 0510 C001      		movw r24,r0
 1050 0512 439F      		mul r20,r19
 1051 0514 900D      		add r25,r0
 1052 0516 529F      		mul r21,r18
 1053 0518 900D      		add r25,r0
 1054 051a 1124      		clr r1
 1055               	.LVL74:
 1056 051c E80F      		add r30,r24
 1057 051e F91F      		adc r31,r25
 1058 0520 8089      		ldd r24,Z+16
 1059               	.LM132:
 1060 0522 8170      		andi r24,lo8(1)
 1061               	/* epilogue start */
 1062 0524 0895      		ret
 1063               	.LFE30:
 1065               	.global	Timebase_UpCounter_Set_Period_Flag
 1067               	Timebase_UpCounter_Set_Period_Flag:
 1068               	.LFB31:
 1069               	.LM133:
 1070               	.LVL75:
 1071               	/* prologue: function */
 1072               	/* frame size = 0 */
 1073               	.LM134:
 1074 0526 E091 0000 		lds r30,Timebase
 1075 052a F091 0000 		lds r31,(Timebase)+1
 1076 052e 90E0      		ldi r25,lo8(0)
 1077               	.LVL76:
 1078 0530 25E1      		ldi r18,lo8(21)
 1079 0532 30E0      		ldi r19,hi8(21)
 1080 0534 AC01      		movw r20,r24
 1081 0536 429F      		mul r20,r18
 1082 0538 C001      		movw r24,r0
 1083 053a 439F      		mul r20,r19
 1084 053c 900D      		add r25,r0
 1085 053e 529F      		mul r21,r18
 1086 0540 900D      		add r25,r0
 1087 0542 1124      		clr r1
 1088               	.LVL77:
 1089 0544 E80F      		add r30,r24
 1090 0546 F91F      		adc r31,r25
 1091 0548 8089      		ldd r24,Z+16
 1092 054a 8160      		ori r24,lo8(1)
 1093 054c 808B      		std Z+16,r24
 1094               	/* epilogue start */
 1095               	.LM135:
 1096 054e 0895      		ret
 1097               	.LFE31:
 1099               	.global	Timebase_UpCounter_Clear_Period_Flag
 1101               	Timebase_UpCounter_Clear_Period_Flag:
 1102               	.LFB32:
 1103               	.LM136:
 1104               	.LVL78:
 1105               	/* prologue: function */
 1106               	/* frame size = 0 */
 1107               	.LM137:
 1108 0550 E091 0000 		lds r30,Timebase
 1109 0554 F091 0000 		lds r31,(Timebase)+1
 1110 0558 90E0      		ldi r25,lo8(0)
 1111               	.LVL79:
 1112 055a 25E1      		ldi r18,lo8(21)
 1113 055c 30E0      		ldi r19,hi8(21)
 1114 055e AC01      		movw r20,r24
 1115 0560 429F      		mul r20,r18
 1116 0562 C001      		movw r24,r0
 1117 0564 439F      		mul r20,r19
 1118 0566 900D      		add r25,r0
 1119 0568 529F      		mul r21,r18
 1120 056a 900D      		add r25,r0
 1121 056c 1124      		clr r1
 1122               	.LVL80:
 1123 056e E80F      		add r30,r24
 1124 0570 F91F      		adc r31,r25
 1125 0572 8089      		ldd r24,Z+16
 1126 0574 8E7F      		andi r24,lo8(-2)
 1127 0576 808B      		std Z+16,r24
 1128               	/* epilogue start */
 1129               	.LM138:
 1130 0578 0895      		ret
 1131               	.LFE32:
 1133               	.global	Timebase_UpCounter_Reset
 1135               	Timebase_UpCounter_Reset:
 1136               	.LFB33:
 1137               	.LM139:
 1138               	.LVL81:
 1139               	/* prologue: function */
 1140               	/* frame size = 0 */
 1141               	.LBB284:
 1142               	.LBB285:
 1143               	.LM140:
 1144 057a A091 0000 		lds r26,Timebase
 1145 057e B091 0000 		lds r27,(Timebase)+1
 1146 0582 90E0      		ldi r25,lo8(0)
 1147 0584 45E1      		ldi r20,lo8(21)
 1148 0586 50E0      		ldi r21,hi8(21)
 1149 0588 849F      		mul r24,r20
 1150 058a F001      		movw r30,r0
 1151 058c 859F      		mul r24,r21
 1152 058e F00D      		add r31,r0
 1153 0590 949F      		mul r25,r20
 1154 0592 F00D      		add r31,r0
 1155 0594 1124      		clr r1
 1156               	.LVL82:
 1157 0596 EA0F      		add r30,r26
 1158 0598 FB1F      		adc r31,r27
 1159 059a 2089      		ldd r18,Z+16
 1160 059c 217E      		andi r18,lo8(-31)
 1161 059e 208B      		std Z+16,r18
 1162               	.LBE285:
 1163               	.LBE284:
 1164               	.LBB286:
 1165               	.LBB287:
 1166               	.LM141:
 1167 05a0 158E      		std Z+29,__zero_reg__
 1168 05a2 168E      		std Z+30,__zero_reg__
 1169 05a4 178E      		std Z+31,__zero_reg__
 1170 05a6 10A2      		std Z+32,__zero_reg__
 1171               	.LBE287:
 1172               	.LBE286:
 1173               	.LBB288:
 1174               	.LBB289:
 1175               	.LM142:
 1176 05a8 118A      		std Z+17,__zero_reg__
 1177 05aa 128A      		std Z+18,__zero_reg__
 1178 05ac 138A      		std Z+19,__zero_reg__
 1179 05ae 148A      		std Z+20,__zero_reg__
 1180               	.LBE289:
 1181               	.LBE288:
 1182               	.LBB290:
 1183               	.LBB291:
 1184               	.LM143:
 1185 05b0 0196      		adiw r24,1
 1186 05b2 9C01      		movw r18,r24
 1187 05b4 249F      		mul r18,r20
 1188 05b6 C001      		movw r24,r0
 1189 05b8 259F      		mul r18,r21
 1190 05ba 900D      		add r25,r0
 1191 05bc 349F      		mul r19,r20
 1192 05be 900D      		add r25,r0
 1193 05c0 1124      		clr r1
 1194 05c2 A80F      		add r26,r24
 1195 05c4 B91F      		adc r27,r25
 1196 05c6 1D92      		st X+,__zero_reg__
 1197 05c8 1D92      		st X+,__zero_reg__
 1198 05ca 1D92      		st X+,__zero_reg__
 1199 05cc 1C92      		st X,__zero_reg__
 1200 05ce 1397      		sbiw r26,3
 1201               	.LBE291:
 1202               	.LBE290:
 1203               	.LBB292:
 1204               	.LBB293:
 1205               	.LM144:
 1206 05d0 118E      		std Z+25,__zero_reg__
 1207 05d2 128E      		std Z+26,__zero_reg__
 1208 05d4 138E      		std Z+27,__zero_reg__
 1209 05d6 148E      		std Z+28,__zero_reg__
 1210               	.LBE293:
 1211               	.LBE292:
 1212               	.LBB294:
 1213               	.LBB295:
 1214               	.LM145:
 1215 05d8 11A2      		std Z+33,__zero_reg__
 1216 05da 12A2      		std Z+34,__zero_reg__
 1217 05dc 13A2      		std Z+35,__zero_reg__
 1218 05de 14A2      		std Z+36,__zero_reg__
 1219               	.LBE295:
 1220               	.LBE294:
 1221               	.LBB296:
 1222               	.LBB297:
 1223               	.LM146:
 1224 05e0 8089      		ldd r24,Z+16
 1225 05e2 8E7F      		andi r24,lo8(-2)
 1226 05e4 808B      		std Z+16,r24
 1227               	/* epilogue start */
 1228               	.LBE297:
 1229               	.LBE296:
 1230               	.LM147:
 1231 05e6 0895      		ret
 1232               	.LFE33:
 1234               	.global	Timebase_UpCounter_Clear_All_Flags
 1236               	Timebase_UpCounter_Clear_All_Flags:
 1237               	.LFB34:
 1238               	.LM148:
 1239               	.LVL83:
 1240               	/* prologue: function */
 1241               	/* frame size = 0 */
 1242               	.LM149:
 1243 05e8 0E94 0000 		call Timebase_UpCounter_Reset
 1244               	.LVL84:
 1245               	/* epilogue start */
 1246               	.LM150:
 1247 05ec 0895      		ret
 1248               	.LFE34:
 1250               	.global	Timebase_UpCounter_Start
 1252               	Timebase_UpCounter_Start:
 1253               	.LFB35:
 1254               	.LM151:
 1255               	.LVL85:
 1256               	/* prologue: function */
 1257               	/* frame size = 0 */
 1258               	.LBB298:
 1259               	.LBB299:
 1260               	.LM152:
 1261 05ee E091 0000 		lds r30,Timebase
 1262 05f2 F091 0000 		lds r31,(Timebase)+1
 1263 05f6 90E0      		ldi r25,lo8(0)
 1264               	.LBE299:
 1265               	.LBE298:
 1266               	.LM153:
 1267 05f8 25E1      		ldi r18,lo8(21)
 1268 05fa 30E0      		ldi r19,hi8(21)
 1269 05fc AC01      		movw r20,r24
 1270               	.LVL86:
 1271 05fe 429F      		mul r20,r18
 1272 0600 C001      		movw r24,r0
 1273 0602 439F      		mul r20,r19
 1274 0604 900D      		add r25,r0
 1275 0606 529F      		mul r21,r18
 1276 0608 900D      		add r25,r0
 1277 060a 1124      		clr r1
 1278 060c E80F      		add r30,r24
 1279 060e F91F      		adc r31,r25
 1280 0610 9089      		ldd r25,Z+16
 1281 0612 892F      		mov r24,r25
 1282 0614 8695      		lsr r24
 1283 0616 8F70      		andi r24,lo8(15)
 1284 0618 8130      		cpi r24,lo8(1)
 1285 061a 01F0      		breq .L78
 1286               	.LBB300:
 1287               	.LBB301:
 1288               	.LM154:
 1289 061c 917E      		andi r25,lo8(-31)
 1290 061e 9260      		ori r25,lo8(2)
 1291 0620 908B      		std Z+16,r25
 1292               	.L78:
 1293 0622 0895      		ret
 1294               	.LBE301:
 1295               	.LBE300:
 1296               	.LFE35:
 1298               	.global	Timebase_UpCounter_Stop
 1300               	Timebase_UpCounter_Stop:
 1301               	.LFB36:
 1302               	.LM155:
 1303               	.LVL87:
 1304               	/* prologue: function */
 1305               	/* frame size = 0 */
 1306               	.LBB302:
 1307               	.LBB303:
 1308               	.LM156:
 1309 0624 E091 0000 		lds r30,Timebase
 1310 0628 F091 0000 		lds r31,(Timebase)+1
 1311 062c 90E0      		ldi r25,lo8(0)
 1312               	.LBE303:
 1313               	.LBE302:
 1314               	.LM157:
 1315 062e 25E1      		ldi r18,lo8(21)
 1316 0630 30E0      		ldi r19,hi8(21)
 1317 0632 AC01      		movw r20,r24
 1318               	.LVL88:
 1319 0634 429F      		mul r20,r18
 1320 0636 C001      		movw r24,r0
 1321 0638 439F      		mul r20,r19
 1322 063a 900D      		add r25,r0
 1323 063c 529F      		mul r21,r18
 1324 063e 900D      		add r25,r0
 1325 0640 1124      		clr r1
 1326 0642 E80F      		add r30,r24
 1327 0644 F91F      		adc r31,r25
 1328 0646 9089      		ldd r25,Z+16
 1329 0648 892F      		mov r24,r25
 1330 064a 8695      		lsr r24
 1331 064c 8F70      		andi r24,lo8(15)
 1332 064e 8230      		cpi r24,lo8(2)
 1333 0650 01F0      		breq .L81
 1334               	.LBB304:
 1335               	.LBB305:
 1336               	.LM158:
 1337 0652 917E      		andi r25,lo8(-31)
 1338 0654 9460      		ori r25,lo8(4)
 1339 0656 908B      		std Z+16,r25
 1340               	.L81:
 1341 0658 0895      		ret
 1342               	.LBE305:
 1343               	.LBE304:
 1344               	.LFE36:
 1346               	.global	Timebase_UpCounter_Set_Securely
 1348               	Timebase_UpCounter_Set_Securely:
 1349               	.LFB37:
 1350               	.LM159:
 1351               	.LVL89:
 1352 065a 0F93      		push r16
 1353 065c 1F93      		push r17
 1354 065e CF93      		push r28
 1355 0660 DF93      		push r29
 1356               	/* prologue: function */
 1357               	/* frame size = 0 */
 1358               	.LBB306:
 1359               	.LBB307:
 1360               	.LM160:
 1361 0662 A091 0000 		lds r26,Timebase
 1362 0666 B091 0000 		lds r27,(Timebase)+1
 1363 066a 282F      		mov r18,r24
 1364 066c 30E0      		ldi r19,lo8(0)
 1365               	.LBE307:
 1366               	.LBE306:
 1367               	.LM161:
 1368 066e 05E1      		ldi r16,lo8(21)
 1369 0670 10E0      		ldi r17,hi8(21)
 1370 0672 209F      		mul r18,r16
 1371 0674 E001      		movw r28,r0
 1372 0676 219F      		mul r18,r17
 1373 0678 D00D      		add r29,r0
 1374 067a 309F      		mul r19,r16
 1375 067c D00D      		add r29,r0
 1376 067e 1124      		clr r1
 1377 0680 CA0F      		add r28,r26
 1378 0682 DB1F      		adc r29,r27
 1379 0684 8889      		ldd r24,Y+16
 1380               	.LVL90:
 1381 0686 8695      		lsr r24
 1382 0688 8F70      		andi r24,lo8(15)
 1383 068a 01F4      		brne .L84
 1384               	.LBB308:
 1385               	.LBB309:
 1386               	.LM162:
 1387 068c 1D8E      		std Y+29,__zero_reg__
 1388 068e 1E8E      		std Y+30,__zero_reg__
 1389 0690 1F8E      		std Y+31,__zero_reg__
 1390 0692 18A2      		std Y+32,__zero_reg__
 1391               	.LBE309:
 1392               	.LBE308:
 1393               	.LBB310:
 1394               	.LBB311:
 1395               	.LM163:
 1396 0694 198E      		std Y+25,__zero_reg__
 1397 0696 1A8E      		std Y+26,__zero_reg__
 1398 0698 1B8E      		std Y+27,__zero_reg__
 1399 069a 1C8E      		std Y+28,__zero_reg__
 1400               	.LBE311:
 1401               	.LBE310:
 1402               	.LBB312:
 1403               	.LBB313:
 1404               	.LM164:
 1405 069c 2F5F      		subi r18,lo8(-(1))
 1406 069e 3F4F      		sbci r19,hi8(-(1))
 1407 06a0 209F      		mul r18,r16
 1408 06a2 F001      		movw r30,r0
 1409 06a4 219F      		mul r18,r17
 1410 06a6 F00D      		add r31,r0
 1411 06a8 309F      		mul r19,r16
 1412 06aa F00D      		add r31,r0
 1413 06ac 1124      		clr r1
 1414 06ae EA0F      		add r30,r26
 1415 06b0 FB1F      		adc r31,r27
 1416 06b2 4083      		st Z,r20
 1417 06b4 5183      		std Z+1,r21
 1418 06b6 6283      		std Z+2,r22
 1419 06b8 7383      		std Z+3,r23
 1420               	.LBE313:
 1421               	.LBE312:
 1422               	.LBB314:
 1423               	.LBB315:
 1424               	.LM165:
 1425 06ba 1B96      		adiw r26,11
 1426 06bc 8D91      		ld r24,X+
 1427 06be 9D91      		ld r25,X+
 1428 06c0 0D90      		ld __tmp_reg__,X+
 1429 06c2 BC91      		ld r27,X
 1430 06c4 A02D      		mov r26,__tmp_reg__
 1431               	.LBE315:
 1432               	.LBE314:
 1433               	.LBB316:
 1434               	.LBB317:
 1435               	.LM166:
 1436 06c6 840F      		add r24,r20
 1437 06c8 951F      		adc r25,r21
 1438 06ca A61F      		adc r26,r22
 1439 06cc B71F      		adc r27,r23
 1440 06ce 898B      		std Y+17,r24
 1441 06d0 9A8B      		std Y+18,r25
 1442 06d2 AB8B      		std Y+19,r26
 1443 06d4 BC8B      		std Y+20,r27
 1444               	.LBE317:
 1445               	.LBE316:
 1446               	.LBB318:
 1447               	.LBB319:
 1448               	.LM167:
 1449 06d6 9889      		ldd r25,Y+16
 1450 06d8 892F      		mov r24,r25
 1451 06da 8695      		lsr r24
 1452 06dc 8F70      		andi r24,lo8(15)
 1453 06de 8130      		cpi r24,lo8(1)
 1454 06e0 01F0      		breq .L84
 1455               	.LBB320:
 1456               	.LBB321:
 1457               	.LM168:
 1458 06e2 917E      		andi r25,lo8(-31)
 1459 06e4 9260      		ori r25,lo8(2)
 1460 06e6 988B      		std Y+16,r25
 1461               	.L84:
 1462               	/* epilogue start */
 1463               	.LBE321:
 1464               	.LBE320:
 1465               	.LBE319:
 1466               	.LBE318:
 1467               	.LM169:
 1468 06e8 DF91      		pop r29
 1469 06ea CF91      		pop r28
 1470 06ec 1F91      		pop r17
 1471 06ee 0F91      		pop r16
 1472 06f0 0895      		ret
 1473               	.LFE37:
 1475               	.global	Timebase_UpCounter_Set_Forcefully
 1477               	Timebase_UpCounter_Set_Forcefully:
 1478               	.LFB38:
 1479               	.LM170:
 1480               	.LVL91:
 1481 06f2 DF92      		push r13
 1482 06f4 EF92      		push r14
 1483 06f6 FF92      		push r15
 1484 06f8 0F93      		push r16
 1485 06fa 1F93      		push r17
 1486               	/* prologue: function */
 1487               	/* frame size = 0 */
 1488 06fc D82E      		mov r13,r24
 1489 06fe 7A01      		movw r14,r20
 1490 0700 8B01      		movw r16,r22
 1491               	.LM171:
 1492 0702 0E94 0000 		call Timebase_UpCounter_Reset
 1493               	.LVL92:
 1494               	.LM172:
 1495 0706 8D2D      		mov r24,r13
 1496 0708 B801      		movw r22,r16
 1497 070a A701      		movw r20,r14
 1498 070c 0E94 0000 		call Timebase_UpCounter_Set_Securely
 1499               	/* epilogue start */
 1500               	.LM173:
 1501 0710 1F91      		pop r17
 1502 0712 0F91      		pop r16
 1503 0714 FF90      		pop r15
 1504 0716 EF90      		pop r14
 1505               	.LVL93:
 1506 0718 DF90      		pop r13
 1507               	.LVL94:
 1508 071a 0895      		ret
 1509               	.LFE38:
 1511               	.global	Timebase_UpCounter_Update
 1513               	Timebase_UpCounter_Update:
 1514               	.LFB39:
 1515               	.LM174:
 1516               	.LVL95:
 1517 071c EF92      		push r14
 1518 071e FF92      		push r15
 1519 0720 0F93      		push r16
 1520 0722 1F93      		push r17
 1521 0724 CF93      		push r28
 1522 0726 DF93      		push r29
 1523               	/* prologue: function */
 1524               	/* frame size = 0 */
 1525               	.LBB322:
 1526               	.LBB323:
 1527               	.LM175:
 1528 0728 C091 0000 		lds r28,Timebase
 1529 072c D091 0000 		lds r29,(Timebase)+1
 1530 0730 682F      		mov r22,r24
 1531 0732 70E0      		ldi r23,lo8(0)
 1532 0734 05E1      		ldi r16,lo8(21)
 1533 0736 10E0      		ldi r17,hi8(21)
 1534 0738 609F      		mul r22,r16
 1535 073a F001      		movw r30,r0
 1536 073c 619F      		mul r22,r17
 1537 073e F00D      		add r31,r0
 1538 0740 709F      		mul r23,r16
 1539 0742 F00D      		add r31,r0
 1540 0744 1124      		clr r1
 1541 0746 EC0F      		add r30,r28
 1542 0748 FD1F      		adc r31,r29
 1543 074a 8089      		ldd r24,Z+16
 1544               	.LVL96:
 1545 074c 8695      		lsr r24
 1546 074e 8F70      		andi r24,lo8(15)
 1547               	.LBE323:
 1548               	.LBE322:
 1549               	.LM176:
 1550 0750 8130      		cpi r24,lo8(1)
 1551 0752 01F0      		breq .+2
 1552 0754 00C0      		rjmp .L88
 1553               	.LBB324:
 1554               	.LBB325:
 1555               	.LM177:
 1556 0756 8B85      		ldd r24,Y+11
 1557 0758 9C85      		ldd r25,Y+12
 1558 075a AD85      		ldd r26,Y+13
 1559 075c BE85      		ldd r27,Y+14
 1560               	.LBE325:
 1561               	.LBE324:
 1562               	.LM178:
 1563 075e 2189      		ldd r18,Z+17
 1564 0760 3289      		ldd r19,Z+18
 1565 0762 4389      		ldd r20,Z+19
 1566 0764 5489      		ldd r21,Z+20
 1567 0766 281B      		sub r18,r24
 1568 0768 390B      		sbc r19,r25
 1569 076a 4A0B      		sbc r20,r26
 1570 076c 5B0B      		sbc r21,r27
 1571               	.LBB326:
 1572               	.LBB327:
 1573               	.LM179:
 1574 076e 218F      		std Z+25,r18
 1575 0770 328F      		std Z+26,r19
 1576 0772 438F      		std Z+27,r20
 1577 0774 548F      		std Z+28,r21
 1578               	.LBE327:
 1579               	.LBE326:
 1580               	.LBB328:
 1581               	.LBB329:
 1582               	.LM180:
 1583 0776 6F5F      		subi r22,lo8(-(1))
 1584 0778 7F4F      		sbci r23,hi8(-(1))
 1585 077a 609F      		mul r22,r16
 1586 077c C001      		movw r24,r0
 1587 077e 619F      		mul r22,r17
 1588 0780 900D      		add r25,r0
 1589 0782 709F      		mul r23,r16
 1590 0784 900D      		add r25,r0
 1591 0786 1124      		clr r1
 1592 0788 C80F      		add r28,r24
 1593 078a D91F      		adc r29,r25
 1594 078c E880      		ld r14,Y
 1595 078e F980      		ldd r15,Y+1
 1596 0790 0A81      		ldd r16,Y+2
 1597 0792 1B81      		ldd r17,Y+3
 1598 0794 D801      		movw r26,r16
 1599 0796 C701      		movw r24,r14
 1600 0798 821B      		sub r24,r18
 1601 079a 930B      		sbc r25,r19
 1602 079c A40B      		sbc r26,r20
 1603 079e B50B      		sbc r27,r21
 1604 07a0 858F      		std Z+29,r24
 1605 07a2 968F      		std Z+30,r25
 1606 07a4 A78F      		std Z+31,r26
 1607 07a6 B0A3      		std Z+32,r27
 1608               	.LBE329:
 1609               	.LBE328:
 1610               	.LM181:
 1611 07a8 2115      		cp r18,__zero_reg__
 1612 07aa 3105      		cpc r19,__zero_reg__
 1613 07ac 4105      		cpc r20,__zero_reg__
 1614 07ae 5105      		cpc r21,__zero_reg__
 1615 07b0 01F4      		brne .L90
 1616               	.LBB330:
 1617               	.LBB331:
 1618               	.LM182:
 1619 07b2 118A      		std Z+17,__zero_reg__
 1620 07b4 128A      		std Z+18,__zero_reg__
 1621 07b6 138A      		std Z+19,__zero_reg__
 1622 07b8 148A      		std Z+20,__zero_reg__
 1623               	.LBE331:
 1624               	.LBE330:
 1625               	.LBB332:
 1626               	.LBB333:
 1627               	.LM183:
 1628 07ba 118E      		std Z+25,__zero_reg__
 1629 07bc 128E      		std Z+26,__zero_reg__
 1630 07be 138E      		std Z+27,__zero_reg__
 1631 07c0 148E      		std Z+28,__zero_reg__
 1632               	.LBE333:
 1633               	.LBE332:
 1634               	.LBB334:
 1635               	.LBB335:
 1636               	.LM184:
 1637 07c2 E58E      		std Z+29,r14
 1638 07c4 F68E      		std Z+30,r15
 1639 07c6 078F      		std Z+31,r16
 1640 07c8 10A3      		std Z+32,r17
 1641               	.LBE335:
 1642               	.LBE334:
 1643               	.LBB336:
 1644               	.LBB337:
 1645               	.LM185:
 1646 07ca 8089      		ldd r24,Z+16
 1647 07cc 817E      		andi r24,lo8(-31)
 1648 07ce 8860      		ori r24,lo8(8)
 1649 07d0 808B      		std Z+16,r24
 1650 07d2 00C0      		rjmp .L90
 1651               	.L88:
 1652               	.LBE337:
 1653               	.LBE336:
 1654               	.LM186:
 1655 07d4 8230      		cpi r24,lo8(2)
 1656 07d6 01F4      		brne .L90
 1657               	.LBB338:
 1658               	.LBB339:
 1659               	.LM187:
 1660 07d8 8B85      		ldd r24,Y+11
 1661 07da 9C85      		ldd r25,Y+12
 1662 07dc AD85      		ldd r26,Y+13
 1663 07de BE85      		ldd r27,Y+14
 1664               	.LBE339:
 1665               	.LBE338:
 1666               	.LBB340:
 1667               	.LBB341:
 1668               	.LM188:
 1669 07e0 218D      		ldd r18,Z+25
 1670 07e2 328D      		ldd r19,Z+26
 1671 07e4 438D      		ldd r20,Z+27
 1672 07e6 548D      		ldd r21,Z+28
 1673 07e8 820F      		add r24,r18
 1674 07ea 931F      		adc r25,r19
 1675 07ec A41F      		adc r26,r20
 1676 07ee B51F      		adc r27,r21
 1677 07f0 818B      		std Z+17,r24
 1678 07f2 928B      		std Z+18,r25
 1679 07f4 A38B      		std Z+19,r26
 1680 07f6 B48B      		std Z+20,r27
 1681               	.LBE341:
 1682               	.LBE340:
 1683               	.LBB342:
 1684               	.LBB343:
 1685               	.LM189:
 1686 07f8 6F5F      		subi r22,lo8(-(1))
 1687 07fa 7F4F      		sbci r23,hi8(-(1))
 1688 07fc 609F      		mul r22,r16
 1689 07fe C001      		movw r24,r0
 1690 0800 619F      		mul r22,r17
 1691 0802 900D      		add r25,r0
 1692 0804 709F      		mul r23,r16
 1693 0806 900D      		add r25,r0
 1694 0808 1124      		clr r1
 1695 080a C80F      		add r28,r24
 1696 080c D91F      		adc r29,r25
 1697 080e 8881      		ld r24,Y
 1698 0810 9981      		ldd r25,Y+1
 1699 0812 AA81      		ldd r26,Y+2
 1700 0814 BB81      		ldd r27,Y+3
 1701 0816 821B      		sub r24,r18
 1702 0818 930B      		sbc r25,r19
 1703 081a A40B      		sbc r26,r20
 1704 081c B50B      		sbc r27,r21
 1705 081e 858F      		std Z+29,r24
 1706 0820 968F      		std Z+30,r25
 1707 0822 A78F      		std Z+31,r26
 1708 0824 B0A3      		std Z+32,r27
 1709               	.L90:
 1710               	/* epilogue start */
 1711               	.LBE343:
 1712               	.LBE342:
 1713               	.LM190:
 1714 0826 DF91      		pop r29
 1715 0828 CF91      		pop r28
 1716 082a 1F91      		pop r17
 1717 082c 0F91      		pop r16
 1718 082e FF90      		pop r15
 1719 0830 EF90      		pop r14
 1720 0832 0895      		ret
 1721               	.LFE39:
 1723               	.global	Timebase_UpCounter_Expired
 1725               	Timebase_UpCounter_Expired:
 1726               	.LFB40:
 1727               	.LM191:
 1728               	.LVL97:
 1729               	/* prologue: function */
 1730               	/* frame size = 0 */
 1731               	.LM192:
 1732 0834 40E0      		ldi r20,lo8(0)
 1733 0836 E091 0000 		lds r30,Timebase
 1734 083a F091 0000 		lds r31,(Timebase)+1
 1735 083e 90E0      		ldi r25,lo8(0)
 1736               	.LVL98:
 1737 0840 25E1      		ldi r18,lo8(21)
 1738 0842 30E0      		ldi r19,hi8(21)
 1739 0844 BC01      		movw r22,r24
 1740 0846 629F      		mul r22,r18
 1741 0848 C001      		movw r24,r0
 1742 084a 639F      		mul r22,r19
 1743 084c 900D      		add r25,r0
 1744 084e 729F      		mul r23,r18
 1745 0850 900D      		add r25,r0
 1746 0852 1124      		clr r1
 1747               	.LVL99:
 1748 0854 E80F      		add r30,r24
 1749 0856 F91F      		adc r31,r25
 1750 0858 8089      		ldd r24,Z+16
 1751 085a 8695      		lsr r24
 1752 085c 8F70      		andi r24,lo8(15)
 1753 085e 8430      		cpi r24,lo8(4)
 1754 0860 01F4      		brne .L92
 1755 0862 41E0      		ldi r20,lo8(1)
 1756               	.L92:
 1757               	.LM193:
 1758 0864 842F      		mov r24,r20
 1759               	/* epilogue start */
 1760 0866 0895      		ret
 1761               	.LFE40:
 1763               	.global	Timebase_UpCounter_Expired_Event
 1765               	Timebase_UpCounter_Expired_Event:
 1766               	.LFB41:
 1767               	.LM194:
 1768               	.LVL100:
 1769               	/* prologue: function */
 1770               	/* frame size = 0 */
 1771 0868 482F      		mov r20,r24
 1772               	.LM195:
 1773 086a E091 0000 		lds r30,Timebase
 1774 086e F091 0000 		lds r31,(Timebase)+1
 1775 0872 282F      		mov r18,r24
 1776 0874 30E0      		ldi r19,lo8(0)
 1777               	.LVL101:
 1778 0876 85E1      		ldi r24,lo8(21)
 1779 0878 90E0      		ldi r25,hi8(21)
 1780               	.LVL102:
 1781 087a BC01      		movw r22,r24
 1782 087c 269F      		mul r18,r22
 1783 087e C001      		movw r24,r0
 1784 0880 279F      		mul r18,r23
 1785 0882 900D      		add r25,r0
 1786 0884 369F      		mul r19,r22
 1787 0886 900D      		add r25,r0
 1788 0888 1124      		clr r1
 1789 088a E80F      		add r30,r24
 1790 088c F91F      		adc r31,r25
 1791 088e 8089      		ldd r24,Z+16
 1792 0890 8695      		lsr r24
 1793 0892 8F70      		andi r24,lo8(15)
 1794 0894 8430      		cpi r24,lo8(4)
 1795 0896 01F0      		breq .L95
 1796 0898 80E0      		ldi r24,lo8(0)
 1797 089a 0895      		ret
 1798               	.L95:
 1799               	.LBB344:
 1800               	.LBB345:
 1801               	.LM196:
 1802 089c 842F      		mov r24,r20
 1803 089e 0E94 0000 		call Timebase_UpCounter_Reset
 1804               	.LVL103:
 1805 08a2 81E0      		ldi r24,lo8(1)
 1806               	.LBE345:
 1807               	.LBE344:
 1808               	.LM197:
 1809 08a4 0895      		ret
 1810               	.LFE41:
 1812               	.global	Timebase_UpCounter_Set_Period_Value_Securely
 1814               	Timebase_UpCounter_Set_Period_Value_Securely:
 1815               	.LFB42:
 1816               	.LM198:
 1817               	.LVL104:
 1818               	/* prologue: function */
 1819               	/* frame size = 0 */
 1820               	.LBB346:
 1821               	.LBB347:
 1822               	.LM199:
 1823 08a6 E091 0000 		lds r30,Timebase
 1824 08aa F091 0000 		lds r31,(Timebase)+1
 1825 08ae 90E0      		ldi r25,lo8(0)
 1826               	.LBE347:
 1827               	.LBE346:
 1828               	.LM200:
 1829 08b0 25E1      		ldi r18,lo8(21)
 1830 08b2 30E0      		ldi r19,hi8(21)
 1831 08b4 DC01      		movw r26,r24
 1832               	.LVL105:
 1833 08b6 A29F      		mul r26,r18
 1834 08b8 C001      		movw r24,r0
 1835 08ba A39F      		mul r26,r19
 1836 08bc 900D      		add r25,r0
 1837 08be B29F      		mul r27,r18
 1838 08c0 900D      		add r25,r0
 1839 08c2 1124      		clr r1
 1840 08c4 E80F      		add r30,r24
 1841 08c6 F91F      		adc r31,r25
 1842 08c8 8089      		ldd r24,Z+16
 1843 08ca 80FD      		sbrc r24,0
 1844 08cc 00C0      		rjmp .L100
 1845               	.LBB348:
 1846               	.LBB349:
 1847               	.LM201:
 1848 08ce 858D      		ldd r24,Z+29
 1849 08d0 968D      		ldd r25,Z+30
 1850 08d2 A78D      		ldd r26,Z+31
 1851 08d4 B0A1      		ldd r27,Z+32
 1852 08d6 840F      		add r24,r20
 1853 08d8 951F      		adc r25,r21
 1854 08da A61F      		adc r26,r22
 1855 08dc B71F      		adc r27,r23
 1856 08de 81A3      		std Z+33,r24
 1857 08e0 92A3      		std Z+34,r25
 1858 08e2 A3A3      		std Z+35,r26
 1859 08e4 B4A3      		std Z+36,r27
 1860               	.LBE349:
 1861               	.LBE348:
 1862               	.LBB350:
 1863               	.LBB351:
 1864               	.LM202:
 1865 08e6 8089      		ldd r24,Z+16
 1866 08e8 8160      		ori r24,lo8(1)
 1867 08ea 808B      		std Z+16,r24
 1868               	.L100:
 1869 08ec 0895      		ret
 1870               	.LBE351:
 1871               	.LBE350:
 1872               	.LFE42:
 1874               	.global	Timebase_UpCounter_Get_Remaining_Period_Value
 1876               	Timebase_UpCounter_Get_Remaining_Period_Value:
 1877               	.LFB43:
 1878               	.LM203:
 1879               	.LVL106:
 1880               	/* prologue: function */
 1881               	/* frame size = 0 */
 1882               	.LBB352:
 1883               	.LBB353:
 1884               	.LM204:
 1885 08ee E091 0000 		lds r30,Timebase
 1886 08f2 F091 0000 		lds r31,(Timebase)+1
 1887 08f6 90E0      		ldi r25,lo8(0)
 1888               	.LBE353:
 1889               	.LBE352:
 1890               	.LM205:
 1891 08f8 25E1      		ldi r18,lo8(21)
 1892 08fa 30E0      		ldi r19,hi8(21)
 1893 08fc AC01      		movw r20,r24
 1894               	.LVL107:
 1895 08fe 429F      		mul r20,r18
 1896 0900 C001      		movw r24,r0
 1897 0902 439F      		mul r20,r19
 1898 0904 900D      		add r25,r0
 1899 0906 529F      		mul r21,r18
 1900 0908 900D      		add r25,r0
 1901 090a 1124      		clr r1
 1902 090c E80F      		add r30,r24
 1903 090e F91F      		adc r31,r25
 1904 0910 21A1      		ldd r18,Z+33
 1905 0912 32A1      		ldd r19,Z+34
 1906 0914 43A1      		ldd r20,Z+35
 1907 0916 54A1      		ldd r21,Z+36
 1908               	.LVL108:
 1909 0918 858D      		ldd r24,Z+29
 1910 091a 968D      		ldd r25,Z+30
 1911 091c A78D      		ldd r26,Z+31
 1912 091e B0A1      		ldd r27,Z+32
 1913 0920 281B      		sub r18,r24
 1914 0922 390B      		sbc r19,r25
 1915 0924 4A0B      		sbc r20,r26
 1916 0926 5B0B      		sbc r21,r27
 1917 0928 57FF      		sbrs r21,7
 1918 092a 00C0      		rjmp .L102
 1919 092c 20E0      		ldi r18,lo8(0)
 1920 092e 30E0      		ldi r19,hi8(0)
 1921 0930 40E0      		ldi r20,hlo8(0)
 1922 0932 50E0      		ldi r21,hhi8(0)
 1923               	.L102:
 1924               	.LM206:
 1925 0934 B901      		movw r22,r18
 1926               	.LVL109:
 1927 0936 CA01      		movw r24,r20
 1928               	/* epilogue start */
 1929 0938 0895      		ret
 1930               	.LFE43:
 1932               	.global	Timebase_UpCounter_Period_Value_Expired
 1934               	Timebase_UpCounter_Period_Value_Expired:
 1935               	.LFB44:
 1936               	.LM207:
 1937               	.LVL110:
 1938 093a CF93      		push r28
 1939 093c DF93      		push r29
 1940               	/* prologue: function */
 1941               	/* frame size = 0 */
 1942               	.LBB354:
 1943               	.LBB355:
 1944               	.LBB356:
 1945               	.LBB357:
 1946               	.LM208:
 1947 093e C091 0000 		lds r28,Timebase
 1948 0942 D091 0000 		lds r29,(Timebase)+1
 1949 0946 682F      		mov r22,r24
 1950 0948 70E0      		ldi r23,lo8(0)
 1951               	.LBE357:
 1952               	.LBE356:
 1953               	.LM209:
 1954 094a 85E1      		ldi r24,lo8(21)
 1955 094c 90E0      		ldi r25,hi8(21)
 1956               	.LVL111:
 1957 094e 689F      		mul r22,r24
 1958 0950 F001      		movw r30,r0
 1959 0952 699F      		mul r22,r25
 1960 0954 F00D      		add r31,r0
 1961 0956 789F      		mul r23,r24
 1962 0958 F00D      		add r31,r0
 1963 095a 1124      		clr r1
 1964 095c EC0F      		add r30,r28
 1965 095e FD1F      		adc r31,r29
 1966 0960 21A1      		ldd r18,Z+33
 1967 0962 32A1      		ldd r19,Z+34
 1968 0964 43A1      		ldd r20,Z+35
 1969 0966 54A1      		ldd r21,Z+36
 1970               	.LVL112:
 1971 0968 858D      		ldd r24,Z+29
 1972 096a 968D      		ldd r25,Z+30
 1973 096c A78D      		ldd r26,Z+31
 1974 096e B0A1      		ldd r27,Z+32
 1975 0970 281B      		sub r18,r24
 1976 0972 390B      		sbc r19,r25
 1977 0974 4A0B      		sbc r20,r26
 1978 0976 5B0B      		sbc r21,r27
 1979               	.LM210:
 1980 0978 57FD      		sbrc r21,7
 1981 097a 00C0      		rjmp .L105
 1982               	.LBE355:
 1983               	.LBE354:
 1984               	.LM211:
 1985 097c 2115      		cp r18,__zero_reg__
 1986 097e 3105      		cpc r19,__zero_reg__
 1987 0980 4105      		cpc r20,__zero_reg__
 1988 0982 5105      		cpc r21,__zero_reg__
 1989 0984 01F0      		breq .L105
 1990 0986 20E0      		ldi r18,lo8(0)
 1991               	.LVL113:
 1992 0988 00C0      		rjmp .L106
 1993               	.LVL114:
 1994               	.L105:
 1995 098a 20E0      		ldi r18,lo8(0)
 1996               	.LVL115:
 1997 098c 85E1      		ldi r24,lo8(21)
 1998 098e 90E0      		ldi r25,hi8(21)
 1999 0990 AC01      		movw r20,r24
 2000 0992 649F      		mul r22,r20
 2001 0994 C001      		movw r24,r0
 2002 0996 659F      		mul r22,r21
 2003 0998 900D      		add r25,r0
 2004 099a 749F      		mul r23,r20
 2005 099c 900D      		add r25,r0
 2006 099e 1124      		clr r1
 2007 09a0 C80F      		add r28,r24
 2008 09a2 D91F      		adc r29,r25
 2009 09a4 8889      		ldd r24,Y+16
 2010 09a6 80FF      		sbrs r24,0
 2011 09a8 21E0      		ldi r18,lo8(1)
 2012               	.L107:
 2013 09aa 81E0      		ldi r24,lo8(1)
 2014 09ac 2827      		eor r18,r24
 2015               	.L106:
 2016               	.LM212:
 2017 09ae 822F      		mov r24,r18
 2018               	/* epilogue start */
 2019 09b0 DF91      		pop r29
 2020 09b2 CF91      		pop r28
 2021 09b4 0895      		ret
 2022               	.LFE44:
 2024               	.global	Timebase_UpCounter_Period_Value_Expired_Event
 2026               	Timebase_UpCounter_Period_Value_Expired_Event:
 2027               	.LFB45:
 2028               	.LM213:
 2029               	.LVL116:
 2030 09b6 1F93      		push r17
 2031               	/* prologue: function */
 2032               	/* frame size = 0 */
 2033 09b8 182F      		mov r17,r24
 2034               	.LM214:
 2035 09ba 0E94 0000 		call Timebase_UpCounter_Period_Value_Expired
 2036               	.LVL117:
 2037 09be 8130      		cpi r24,lo8(1)
 2038 09c0 01F0      		breq .L110
 2039 09c2 80E0      		ldi r24,lo8(0)
 2040 09c4 00C0      		rjmp .L111
 2041               	.L110:
 2042               	.LBB358:
 2043               	.LBB359:
 2044               	.LM215:
 2045 09c6 E091 0000 		lds r30,Timebase
 2046 09ca F091 0000 		lds r31,(Timebase)+1
 2047 09ce 212F      		mov r18,r17
 2048 09d0 30E0      		ldi r19,lo8(0)
 2049               	.LVL118:
 2050 09d2 85E1      		ldi r24,lo8(21)
 2051 09d4 90E0      		ldi r25,hi8(21)
 2052 09d6 AC01      		movw r20,r24
 2053 09d8 249F      		mul r18,r20
 2054 09da C001      		movw r24,r0
 2055 09dc 259F      		mul r18,r21
 2056 09de 900D      		add r25,r0
 2057 09e0 349F      		mul r19,r20
 2058 09e2 900D      		add r25,r0
 2059 09e4 1124      		clr r1
 2060 09e6 E80F      		add r30,r24
 2061 09e8 F91F      		adc r31,r25
 2062 09ea 8089      		ldd r24,Z+16
 2063 09ec 8E7F      		andi r24,lo8(-2)
 2064 09ee 808B      		std Z+16,r24
 2065 09f0 81E0      		ldi r24,lo8(1)
 2066               	.L111:
 2067               	/* epilogue start */
 2068               	.LBE359:
 2069               	.LBE358:
 2070               	.LM216:
 2071 09f2 1F91      		pop r17
 2072               	.LVL119:
 2073 09f4 0895      		ret
 2074               	.LFE45:
 2076               	.global	Timebase_UpCounter_Update_All
 2078               	Timebase_UpCounter_Update_All:
 2079               	.LFB46:
 2080               	.LM217:
 2081               	/* prologue: function */
 2082               	/* frame size = 0 */
 2083               	.LBB360:
 2084               	.LM218:
 2085 09f6 80E0      		ldi r24,lo8(0)
 2086 09f8 0E94 0000 		call Timebase_UpCounter_Update
 2087               	/* epilogue start */
 2088               	.LBE360:
 2089               	.LM219:
 2090 09fc 0895      		ret
 2091               	.LFE46:
 2093               	.global	Timebase_UpCounter_Reset_All
 2095               	Timebase_UpCounter_Reset_All:
 2096               	.LFB47:
 2097               	.LM220:
 2098               	/* prologue: function */
 2099               	/* frame size = 0 */
 2100               	.LBB361:
 2101               	.LM221:
 2102 09fe 80E0      		ldi r24,lo8(0)
 2103 0a00 0E94 0000 		call Timebase_UpCounter_Reset
 2104               	/* epilogue start */
 2105               	.LBE361:
 2106               	.LM222:
 2107 0a04 0895      		ret
 2108               	.LFE47:
 2110               	.global	Timebase_DownCounter_Get_Status
 2112               	Timebase_DownCounter_Get_Status:
 2113               	.LFB48:
 2114               	.LM223:
 2115               	.LVL120:
 2116               	/* prologue: function */
 2117               	/* frame size = 0 */
 2118               	.LM224:
 2119 0a06 E091 0000 		lds r30,Timebase
 2120 0a0a F091 0000 		lds r31,(Timebase)+1
 2121 0a0e 90E0      		ldi r25,lo8(0)
 2122               	.LVL121:
 2123 0a10 2DE0      		ldi r18,lo8(13)
 2124 0a12 30E0      		ldi r19,hi8(13)
 2125 0a14 AC01      		movw r20,r24
 2126 0a16 429F      		mul r20,r18
 2127 0a18 C001      		movw r24,r0
 2128 0a1a 439F      		mul r20,r19
 2129 0a1c 900D      		add r25,r0
 2130 0a1e 529F      		mul r21,r18
 2131 0a20 900D      		add r25,r0
 2132 0a22 1124      		clr r1
 2133               	.LVL122:
 2134 0a24 E80F      		add r30,r24
 2135 0a26 F91F      		adc r31,r25
 2136 0a28 85A1      		ldd r24,Z+37
 2137 0a2a 8695      		lsr r24
 2138               	.LM225:
 2139 0a2c 8F70      		andi r24,lo8(15)
 2140               	/* epilogue start */
 2141 0a2e 0895      		ret
 2142               	.LFE48:
 2144               	.global	Timebase_DownCounter_Set_Status
 2146               	Timebase_DownCounter_Set_Status:
 2147               	.LFB49:
 2148               	.LM226:
 2149               	.LVL123:
 2150               	/* prologue: function */
 2151               	/* frame size = 0 */
 2152               	.LM227:
 2153 0a30 E091 0000 		lds r30,Timebase
 2154 0a34 F091 0000 		lds r31,(Timebase)+1
 2155 0a38 90E0      		ldi r25,lo8(0)
 2156               	.LVL124:
 2157 0a3a 2DE0      		ldi r18,lo8(13)
 2158 0a3c 30E0      		ldi r19,hi8(13)
 2159 0a3e AC01      		movw r20,r24
 2160 0a40 429F      		mul r20,r18
 2161 0a42 C001      		movw r24,r0
 2162 0a44 439F      		mul r20,r19
 2163 0a46 900D      		add r25,r0
 2164 0a48 529F      		mul r21,r18
 2165 0a4a 900D      		add r25,r0
 2166 0a4c 1124      		clr r1
 2167               	.LVL125:
 2168 0a4e E80F      		add r30,r24
 2169 0a50 F91F      		adc r31,r25
 2170 0a52 6F70      		andi r22,lo8(15)
 2171               	.LVL126:
 2172 0a54 660F      		lsl r22
 2173 0a56 85A1      		ldd r24,Z+37
 2174 0a58 817E      		andi r24,lo8(-31)
 2175 0a5a 862B      		or r24,r22
 2176 0a5c 85A3      		std Z+37,r24
 2177               	/* epilogue start */
 2178               	.LM228:
 2179 0a5e 0895      		ret
 2180               	.LFE49:
 2182               	.global	Timebase_DownCounter_Get_Value
 2184               	Timebase_DownCounter_Get_Value:
 2185               	.LFB50:
 2186               	.LM229:
 2187               	.LVL127:
 2188               	/* prologue: function */
 2189               	/* frame size = 0 */
 2190               	.LM230:
 2191 0a60 E091 0000 		lds r30,Timebase
 2192 0a64 F091 0000 		lds r31,(Timebase)+1
 2193 0a68 90E0      		ldi r25,lo8(0)
 2194               	.LVL128:
 2195 0a6a 2DE0      		ldi r18,lo8(13)
 2196 0a6c 30E0      		ldi r19,hi8(13)
 2197 0a6e AC01      		movw r20,r24
 2198 0a70 429F      		mul r20,r18
 2199 0a72 C001      		movw r24,r0
 2200 0a74 439F      		mul r20,r19
 2201 0a76 900D      		add r25,r0
 2202 0a78 529F      		mul r21,r18
 2203 0a7a 900D      		add r25,r0
 2204 0a7c 1124      		clr r1
 2205               	.LVL129:
 2206 0a7e E80F      		add r30,r24
 2207 0a80 F91F      		adc r31,r25
 2208 0a82 DF01      		movw r26,r30
 2209 0a84 9A96      		adiw r26,42
 2210 0a86 62A5      		ldd r22,Z+42
 2211 0a88 1196      		adiw r26,1
 2212 0a8a 7C91      		ld r23,X
 2213 0a8c 1197      		sbiw r26,1
 2214               	.LM231:
 2215 0a8e 1296      		adiw r26,2
 2216 0a90 8C91      		ld r24,X
 2217 0a92 1297      		sbiw r26,2
 2218 0a94 1396      		adiw r26,3
 2219 0a96 9C91      		ld r25,X
 2220               	.LVL130:
 2221               	/* epilogue start */
 2222 0a98 0895      		ret
 2223               	.LFE50:
 2225               	.global	Timebase_DownCounter_Set_Value
 2227               	Timebase_DownCounter_Set_Value:
 2228               	.LFB51:
 2229               	.LM232:
 2230               	.LVL131:
 2231               	/* prologue: function */
 2232               	/* frame size = 0 */
 2233               	.LM233:
 2234 0a9a E091 0000 		lds r30,Timebase
 2235 0a9e F091 0000 		lds r31,(Timebase)+1
 2236 0aa2 90E0      		ldi r25,lo8(0)
 2237               	.LVL132:
 2238 0aa4 2DE0      		ldi r18,lo8(13)
 2239 0aa6 30E0      		ldi r19,hi8(13)
 2240 0aa8 DC01      		movw r26,r24
 2241 0aaa A29F      		mul r26,r18
 2242 0aac C001      		movw r24,r0
 2243 0aae A39F      		mul r26,r19
 2244 0ab0 900D      		add r25,r0
 2245 0ab2 B29F      		mul r27,r18
 2246 0ab4 900D      		add r25,r0
 2247 0ab6 1124      		clr r1
 2248               	.LVL133:
 2249 0ab8 E80F      		add r30,r24
 2250 0aba F91F      		adc r31,r25
 2251 0abc 42A7      		std Z+42,r20
 2252 0abe 53A7      		std Z+43,r21
 2253 0ac0 64A7      		std Z+44,r22
 2254 0ac2 75A7      		std Z+45,r23
 2255               	/* epilogue start */
 2256               	.LM234:
 2257 0ac4 0895      		ret
 2258               	.LFE51:
 2260               	.global	Timebase_DownCounter_Get_EndValue
 2262               	Timebase_DownCounter_Get_EndValue:
 2263               	.LFB52:
 2264               	.LM235:
 2265               	.LVL134:
 2266               	/* prologue: function */
 2267               	/* frame size = 0 */
 2268               	.LM236:
 2269 0ac6 E091 0000 		lds r30,Timebase
 2270 0aca F091 0000 		lds r31,(Timebase)+1
 2271 0ace 90E0      		ldi r25,lo8(0)
 2272               	.LVL135:
 2273 0ad0 2DE0      		ldi r18,lo8(13)
 2274 0ad2 30E0      		ldi r19,hi8(13)
 2275 0ad4 AC01      		movw r20,r24
 2276 0ad6 429F      		mul r20,r18
 2277 0ad8 C001      		movw r24,r0
 2278 0ada 439F      		mul r20,r19
 2279 0adc 900D      		add r25,r0
 2280 0ade 529F      		mul r21,r18
 2281 0ae0 900D      		add r25,r0
 2282 0ae2 1124      		clr r1
 2283               	.LVL136:
 2284 0ae4 E80F      		add r30,r24
 2285 0ae6 F91F      		adc r31,r25
 2286 0ae8 DF01      		movw r26,r30
 2287 0aea 9696      		adiw r26,38
 2288 0aec 66A1      		ldd r22,Z+38
 2289 0aee 1196      		adiw r26,1
 2290 0af0 7C91      		ld r23,X
 2291 0af2 1197      		sbiw r26,1
 2292               	.LM237:
 2293 0af4 1296      		adiw r26,2
 2294 0af6 8C91      		ld r24,X
 2295 0af8 1297      		sbiw r26,2
 2296 0afa 1396      		adiw r26,3
 2297 0afc 9C91      		ld r25,X
 2298               	.LVL137:
 2299               	/* epilogue start */
 2300 0afe 0895      		ret
 2301               	.LFE52:
 2303               	.global	Timebase_DownCounter_Set_EndValue
 2305               	Timebase_DownCounter_Set_EndValue:
 2306               	.LFB53:
 2307               	.LM238:
 2308               	.LVL138:
 2309               	/* prologue: function */
 2310               	/* frame size = 0 */
 2311               	.LM239:
 2312 0b00 E091 0000 		lds r30,Timebase
 2313 0b04 F091 0000 		lds r31,(Timebase)+1
 2314 0b08 90E0      		ldi r25,lo8(0)
 2315               	.LVL139:
 2316 0b0a 2DE0      		ldi r18,lo8(13)
 2317 0b0c 30E0      		ldi r19,hi8(13)
 2318 0b0e DC01      		movw r26,r24
 2319 0b10 A29F      		mul r26,r18
 2320 0b12 C001      		movw r24,r0
 2321 0b14 A39F      		mul r26,r19
 2322 0b16 900D      		add r25,r0
 2323 0b18 B29F      		mul r27,r18
 2324 0b1a 900D      		add r25,r0
 2325 0b1c 1124      		clr r1
 2326               	.LVL140:
 2327 0b1e E80F      		add r30,r24
 2328 0b20 F91F      		adc r31,r25
 2329 0b22 46A3      		std Z+38,r20
 2330 0b24 57A3      		std Z+39,r21
 2331 0b26 60A7      		std Z+40,r22
 2332 0b28 71A7      		std Z+41,r23
 2333               	/* epilogue start */
 2334               	.LM240:
 2335 0b2a 0895      		ret
 2336               	.LFE53:
 2338               	.global	Timebase_DownCounter_Get_PeriodValue
 2340               	Timebase_DownCounter_Get_PeriodValue:
 2341               	.LFB54:
 2342               	.LM241:
 2343               	.LVL141:
 2344               	/* prologue: function */
 2345               	/* frame size = 0 */
 2346               	.LM242:
 2347 0b2c E091 0000 		lds r30,Timebase
 2348 0b30 F091 0000 		lds r31,(Timebase)+1
 2349 0b34 90E0      		ldi r25,lo8(0)
 2350               	.LVL142:
 2351 0b36 2DE0      		ldi r18,lo8(13)
 2352 0b38 30E0      		ldi r19,hi8(13)
 2353 0b3a AC01      		movw r20,r24
 2354 0b3c 429F      		mul r20,r18
 2355 0b3e C001      		movw r24,r0
 2356 0b40 439F      		mul r20,r19
 2357 0b42 900D      		add r25,r0
 2358 0b44 529F      		mul r21,r18
 2359 0b46 900D      		add r25,r0
 2360 0b48 1124      		clr r1
 2361               	.LVL143:
 2362 0b4a E80F      		add r30,r24
 2363 0b4c F91F      		adc r31,r25
 2364 0b4e DF01      		movw r26,r30
 2365 0b50 9E96      		adiw r26,46
 2366 0b52 66A5      		ldd r22,Z+46
 2367 0b54 1196      		adiw r26,1
 2368 0b56 7C91      		ld r23,X
 2369 0b58 1197      		sbiw r26,1
 2370               	.LM243:
 2371 0b5a 1296      		adiw r26,2
 2372 0b5c 8C91      		ld r24,X
 2373 0b5e 1297      		sbiw r26,2
 2374 0b60 1396      		adiw r26,3
 2375 0b62 9C91      		ld r25,X
 2376               	.LVL144:
 2377               	/* epilogue start */
 2378 0b64 0895      		ret
 2379               	.LFE54:
 2381               	.global	Timebase_DownCounter_Set_PeriodValue
 2383               	Timebase_DownCounter_Set_PeriodValue:
 2384               	.LFB55:
 2385               	.LM244:
 2386               	.LVL145:
 2387               	/* prologue: function */
 2388               	/* frame size = 0 */
 2389               	.LM245:
 2390 0b66 E091 0000 		lds r30,Timebase
 2391 0b6a F091 0000 		lds r31,(Timebase)+1
 2392 0b6e 90E0      		ldi r25,lo8(0)
 2393               	.LVL146:
 2394 0b70 2DE0      		ldi r18,lo8(13)
 2395 0b72 30E0      		ldi r19,hi8(13)
 2396 0b74 DC01      		movw r26,r24
 2397 0b76 A29F      		mul r26,r18
 2398 0b78 C001      		movw r24,r0
 2399 0b7a A39F      		mul r26,r19
 2400 0b7c 900D      		add r25,r0
 2401 0b7e B29F      		mul r27,r18
 2402 0b80 900D      		add r25,r0
 2403 0b82 1124      		clr r1
 2404               	.LVL147:
 2405 0b84 E80F      		add r30,r24
 2406 0b86 F91F      		adc r31,r25
 2407 0b88 46A7      		std Z+46,r20
 2408 0b8a 57A7      		std Z+47,r21
 2409 0b8c 60AB      		std Z+48,r22
 2410 0b8e 71AB      		std Z+49,r23
 2411               	/* epilogue start */
 2412               	.LM246:
 2413 0b90 0895      		ret
 2414               	.LFE55:
 2416               	.global	Timebase_DownCounter_Get_Period_Flag
 2418               	Timebase_DownCounter_Get_Period_Flag:
 2419               	.LFB56:
 2420               	.LM247:
 2421               	.LVL148:
 2422               	/* prologue: function */
 2423               	/* frame size = 0 */
 2424               	.LM248:
 2425 0b92 E091 0000 		lds r30,Timebase
 2426 0b96 F091 0000 		lds r31,(Timebase)+1
 2427 0b9a 90E0      		ldi r25,lo8(0)
 2428               	.LVL149:
 2429 0b9c 2DE0      		ldi r18,lo8(13)
 2430 0b9e 30E0      		ldi r19,hi8(13)
 2431 0ba0 AC01      		movw r20,r24
 2432 0ba2 429F      		mul r20,r18
 2433 0ba4 C001      		movw r24,r0
 2434 0ba6 439F      		mul r20,r19
 2435 0ba8 900D      		add r25,r0
 2436 0baa 529F      		mul r21,r18
 2437 0bac 900D      		add r25,r0
 2438 0bae 1124      		clr r1
 2439               	.LVL150:
 2440 0bb0 E80F      		add r30,r24
 2441 0bb2 F91F      		adc r31,r25
 2442 0bb4 85A1      		ldd r24,Z+37
 2443               	.LM249:
 2444 0bb6 8170      		andi r24,lo8(1)
 2445               	/* epilogue start */
 2446 0bb8 0895      		ret
 2447               	.LFE56:
 2449               	.global	Timebase_DownCounter_Set_Period_Flag
 2451               	Timebase_DownCounter_Set_Period_Flag:
 2452               	.LFB57:
 2453               	.LM250:
 2454               	.LVL151:
 2455               	/* prologue: function */
 2456               	/* frame size = 0 */
 2457               	.LM251:
 2458 0bba E091 0000 		lds r30,Timebase
 2459 0bbe F091 0000 		lds r31,(Timebase)+1
 2460 0bc2 90E0      		ldi r25,lo8(0)
 2461               	.LVL152:
 2462 0bc4 2DE0      		ldi r18,lo8(13)
 2463 0bc6 30E0      		ldi r19,hi8(13)
 2464 0bc8 AC01      		movw r20,r24
 2465 0bca 429F      		mul r20,r18
 2466 0bcc C001      		movw r24,r0
 2467 0bce 439F      		mul r20,r19
 2468 0bd0 900D      		add r25,r0
 2469 0bd2 529F      		mul r21,r18
 2470 0bd4 900D      		add r25,r0
 2471 0bd6 1124      		clr r1
 2472               	.LVL153:
 2473 0bd8 E80F      		add r30,r24
 2474 0bda F91F      		adc r31,r25
 2475 0bdc 85A1      		ldd r24,Z+37
 2476 0bde 8160      		ori r24,lo8(1)
 2477 0be0 85A3      		std Z+37,r24
 2478               	/* epilogue start */
 2479               	.LM252:
 2480 0be2 0895      		ret
 2481               	.LFE57:
 2483               	.global	Timebase_DownCounter_Clear_Period_Flag
 2485               	Timebase_DownCounter_Clear_Period_Flag:
 2486               	.LFB58:
 2487               	.LM253:
 2488               	.LVL154:
 2489               	/* prologue: function */
 2490               	/* frame size = 0 */
 2491               	.LM254:
 2492 0be4 E091 0000 		lds r30,Timebase
 2493 0be8 F091 0000 		lds r31,(Timebase)+1
 2494 0bec 90E0      		ldi r25,lo8(0)
 2495               	.LVL155:
 2496 0bee 2DE0      		ldi r18,lo8(13)
 2497 0bf0 30E0      		ldi r19,hi8(13)
 2498 0bf2 AC01      		movw r20,r24
 2499 0bf4 429F      		mul r20,r18
 2500 0bf6 C001      		movw r24,r0
 2501 0bf8 439F      		mul r20,r19
 2502 0bfa 900D      		add r25,r0
 2503 0bfc 529F      		mul r21,r18
 2504 0bfe 900D      		add r25,r0
 2505 0c00 1124      		clr r1
 2506               	.LVL156:
 2507 0c02 E80F      		add r30,r24
 2508 0c04 F91F      		adc r31,r25
 2509 0c06 85A1      		ldd r24,Z+37
 2510 0c08 8E7F      		andi r24,lo8(-2)
 2511 0c0a 85A3      		std Z+37,r24
 2512               	/* epilogue start */
 2513               	.LM255:
 2514 0c0c 0895      		ret
 2515               	.LFE58:
 2517               	.global	Timebase_DownCounter_Reset
 2519               	Timebase_DownCounter_Reset:
 2520               	.LFB59:
 2521               	.LM256:
 2522               	.LVL157:
 2523               	/* prologue: function */
 2524               	/* frame size = 0 */
 2525               	.LBB362:
 2526               	.LBB363:
 2527               	.LM257:
 2528 0c0e E091 0000 		lds r30,Timebase
 2529 0c12 F091 0000 		lds r31,(Timebase)+1
 2530 0c16 90E0      		ldi r25,lo8(0)
 2531 0c18 2DE0      		ldi r18,lo8(13)
 2532 0c1a 30E0      		ldi r19,hi8(13)
 2533 0c1c AC01      		movw r20,r24
 2534               	.LVL158:
 2535 0c1e 429F      		mul r20,r18
 2536 0c20 C001      		movw r24,r0
 2537 0c22 439F      		mul r20,r19
 2538 0c24 900D      		add r25,r0
 2539 0c26 529F      		mul r21,r18
 2540 0c28 900D      		add r25,r0
 2541 0c2a 1124      		clr r1
 2542 0c2c E80F      		add r30,r24
 2543 0c2e F91F      		adc r31,r25
 2544 0c30 16A2      		std Z+38,__zero_reg__
 2545 0c32 17A2      		std Z+39,__zero_reg__
 2546 0c34 10A6      		std Z+40,__zero_reg__
 2547 0c36 11A6      		std Z+41,__zero_reg__
 2548               	.LBE363:
 2549               	.LBE362:
 2550               	.LBB364:
 2551               	.LBB365:
 2552               	.LM258:
 2553 0c38 12A6      		std Z+42,__zero_reg__
 2554 0c3a 13A6      		std Z+43,__zero_reg__
 2555 0c3c 14A6      		std Z+44,__zero_reg__
 2556 0c3e 15A6      		std Z+45,__zero_reg__
 2557               	.LBE365:
 2558               	.LBE364:
 2559               	.LBB366:
 2560               	.LBB367:
 2561               	.LM259:
 2562 0c40 85A1      		ldd r24,Z+37
 2563               	.LBE367:
 2564               	.LBE366:
 2565               	.LBB368:
 2566               	.LBB369:
 2567               	.LM260:
 2568 0c42 807E      		andi r24,lo8(-32)
 2569 0c44 85A3      		std Z+37,r24
 2570               	/* epilogue start */
 2571               	.LBE369:
 2572               	.LBE368:
 2573               	.LM261:
 2574 0c46 0895      		ret
 2575               	.LFE59:
 2577               	.global	Timebase_DownCounter_Clear_All_Flags
 2579               	Timebase_DownCounter_Clear_All_Flags:
 2580               	.LFB60:
 2581               	.LM262:
 2582               	.LVL159:
 2583               	/* prologue: function */
 2584               	/* frame size = 0 */
 2585               	.LBB370:
 2586               	.LBB371:
 2587               	.LBB372:
 2588               	.LBB373:
 2589               	.LM263:
 2590 0c48 E091 0000 		lds r30,Timebase
 2591 0c4c F091 0000 		lds r31,(Timebase)+1
 2592 0c50 90E0      		ldi r25,lo8(0)
 2593 0c52 2DE0      		ldi r18,lo8(13)
 2594 0c54 30E0      		ldi r19,hi8(13)
 2595 0c56 AC01      		movw r20,r24
 2596               	.LVL160:
 2597 0c58 429F      		mul r20,r18
 2598 0c5a C001      		movw r24,r0
 2599 0c5c 439F      		mul r20,r19
 2600 0c5e 900D      		add r25,r0
 2601 0c60 529F      		mul r21,r18
 2602 0c62 900D      		add r25,r0
 2603 0c64 1124      		clr r1
 2604 0c66 E80F      		add r30,r24
 2605 0c68 F91F      		adc r31,r25
 2606 0c6a 16A2      		std Z+38,__zero_reg__
 2607 0c6c 17A2      		std Z+39,__zero_reg__
 2608 0c6e 10A6      		std Z+40,__zero_reg__
 2609 0c70 11A6      		std Z+41,__zero_reg__
 2610               	.LBE373:
 2611               	.LBE372:
 2612               	.LBB374:
 2613               	.LBB375:
 2614               	.LM264:
 2615 0c72 12A6      		std Z+42,__zero_reg__
 2616 0c74 13A6      		std Z+43,__zero_reg__
 2617 0c76 14A6      		std Z+44,__zero_reg__
 2618 0c78 15A6      		std Z+45,__zero_reg__
 2619               	.LBE375:
 2620               	.LBE374:
 2621               	.LBB376:
 2622               	.LBB377:
 2623               	.LM265:
 2624 0c7a 85A1      		ldd r24,Z+37
 2625               	.LBE377:
 2626               	.LBE376:
 2627               	.LBB378:
 2628               	.LBB379:
 2629               	.LM266:
 2630 0c7c 807E      		andi r24,lo8(-32)
 2631 0c7e 85A3      		std Z+37,r24
 2632               	/* epilogue start */
 2633               	.LBE379:
 2634               	.LBE378:
 2635               	.LBE371:
 2636               	.LBE370:
 2637               	.LM267:
 2638 0c80 0895      		ret
 2639               	.LFE60:
 2641               	.global	Timebase_DownCounter_Start
 2643               	Timebase_DownCounter_Start:
 2644               	.LFB61:
 2645               	.LM268:
 2646               	.LVL161:
 2647               	/* prologue: function */
 2648               	/* frame size = 0 */
 2649               	.LBB380:
 2650               	.LBB381:
 2651               	.LM269:
 2652 0c82 E091 0000 		lds r30,Timebase
 2653 0c86 F091 0000 		lds r31,(Timebase)+1
 2654 0c8a 90E0      		ldi r25,lo8(0)
 2655               	.LBE381:
 2656               	.LBE380:
 2657               	.LM270:
 2658 0c8c 2DE0      		ldi r18,lo8(13)
 2659 0c8e 30E0      		ldi r19,hi8(13)
 2660 0c90 AC01      		movw r20,r24
 2661               	.LVL162:
 2662 0c92 429F      		mul r20,r18
 2663 0c94 C001      		movw r24,r0
 2664 0c96 439F      		mul r20,r19
 2665 0c98 900D      		add r25,r0
 2666 0c9a 529F      		mul r21,r18
 2667 0c9c 900D      		add r25,r0
 2668 0c9e 1124      		clr r1
 2669 0ca0 E80F      		add r30,r24
 2670 0ca2 F91F      		adc r31,r25
 2671 0ca4 95A1      		ldd r25,Z+37
 2672 0ca6 892F      		mov r24,r25
 2673 0ca8 8695      		lsr r24
 2674 0caa 8F70      		andi r24,lo8(15)
 2675 0cac 8130      		cpi r24,lo8(1)
 2676 0cae 01F0      		breq .L145
 2677               	.LBB382:
 2678               	.LBB383:
 2679               	.LM271:
 2680 0cb0 917E      		andi r25,lo8(-31)
 2681 0cb2 9260      		ori r25,lo8(2)
 2682 0cb4 95A3      		std Z+37,r25
 2683               	.L145:
 2684 0cb6 0895      		ret
 2685               	.LBE383:
 2686               	.LBE382:
 2687               	.LFE61:
 2689               	.global	Timebase_DownCounter_Stop
 2691               	Timebase_DownCounter_Stop:
 2692               	.LFB62:
 2693               	.LM272:
 2694               	.LVL163:
 2695               	/* prologue: function */
 2696               	/* frame size = 0 */
 2697               	.LBB384:
 2698               	.LBB385:
 2699               	.LM273:
 2700 0cb8 E091 0000 		lds r30,Timebase
 2701 0cbc F091 0000 		lds r31,(Timebase)+1
 2702 0cc0 90E0      		ldi r25,lo8(0)
 2703               	.LBE385:
 2704               	.LBE384:
 2705               	.LM274:
 2706 0cc2 2DE0      		ldi r18,lo8(13)
 2707 0cc4 30E0      		ldi r19,hi8(13)
 2708 0cc6 AC01      		movw r20,r24
 2709               	.LVL164:
 2710 0cc8 429F      		mul r20,r18
 2711 0cca C001      		movw r24,r0
 2712 0ccc 439F      		mul r20,r19
 2713 0cce 900D      		add r25,r0
 2714 0cd0 529F      		mul r21,r18
 2715 0cd2 900D      		add r25,r0
 2716 0cd4 1124      		clr r1
 2717 0cd6 E80F      		add r30,r24
 2718 0cd8 F91F      		adc r31,r25
 2719 0cda 95A1      		ldd r25,Z+37
 2720 0cdc 892F      		mov r24,r25
 2721 0cde 8695      		lsr r24
 2722 0ce0 8F70      		andi r24,lo8(15)
 2723 0ce2 8230      		cpi r24,lo8(2)
 2724 0ce4 01F0      		breq .L148
 2725               	.LBB386:
 2726               	.LBB387:
 2727               	.LM275:
 2728 0ce6 917E      		andi r25,lo8(-31)
 2729 0ce8 9460      		ori r25,lo8(4)
 2730 0cea 95A3      		std Z+37,r25
 2731               	.L148:
 2732 0cec 0895      		ret
 2733               	.LBE387:
 2734               	.LBE386:
 2735               	.LFE62:
 2737               	.global	Timebase_DownCounter_Set_Securely
 2739               	Timebase_DownCounter_Set_Securely:
 2740               	.LFB63:
 2741               	.LM276:
 2742               	.LVL165:
 2743               	/* prologue: function */
 2744               	/* frame size = 0 */
 2745               	.LBB388:
 2746               	.LBB389:
 2747               	.LM277:
 2748 0cee A091 0000 		lds r26,Timebase
 2749 0cf2 B091 0000 		lds r27,(Timebase)+1
 2750 0cf6 90E0      		ldi r25,lo8(0)
 2751               	.LBE389:
 2752               	.LBE388:
 2753               	.LM278:
 2754 0cf8 2DE0      		ldi r18,lo8(13)
 2755 0cfa 30E0      		ldi r19,hi8(13)
 2756 0cfc 829F      		mul r24,r18
 2757 0cfe F001      		movw r30,r0
 2758 0d00 839F      		mul r24,r19
 2759 0d02 F00D      		add r31,r0
 2760 0d04 929F      		mul r25,r18
 2761 0d06 F00D      		add r31,r0
 2762 0d08 1124      		clr r1
 2763               	.LVL166:
 2764 0d0a EA0F      		add r30,r26
 2765 0d0c FB1F      		adc r31,r27
 2766 0d0e 85A1      		ldd r24,Z+37
 2767 0d10 8695      		lsr r24
 2768 0d12 8F70      		andi r24,lo8(15)
 2769 0d14 01F4      		brne .L151
 2770               	.LBB390:
 2771               	.LBB391:
 2772               	.LM279:
 2773 0d16 42A7      		std Z+42,r20
 2774 0d18 53A7      		std Z+43,r21
 2775 0d1a 64A7      		std Z+44,r22
 2776 0d1c 75A7      		std Z+45,r23
 2777               	.LBE391:
 2778               	.LBE390:
 2779               	.LBB392:
 2780               	.LBB393:
 2781               	.LM280:
 2782 0d1e 1B96      		adiw r26,11
 2783 0d20 8D91      		ld r24,X+
 2784 0d22 9D91      		ld r25,X+
 2785 0d24 0D90      		ld __tmp_reg__,X+
 2786 0d26 BC91      		ld r27,X
 2787 0d28 A02D      		mov r26,__tmp_reg__
 2788               	.LBE393:
 2789               	.LBE392:
 2790               	.LBB394:
 2791               	.LBB395:
 2792               	.LM281:
 2793 0d2a 840F      		add r24,r20
 2794 0d2c 951F      		adc r25,r21
 2795 0d2e A61F      		adc r26,r22
 2796 0d30 B71F      		adc r27,r23
 2797 0d32 86A3      		std Z+38,r24
 2798 0d34 97A3      		std Z+39,r25
 2799 0d36 A0A7      		std Z+40,r26
 2800 0d38 B1A7      		std Z+41,r27
 2801               	.LBE395:
 2802               	.LBE394:
 2803               	.LBB396:
 2804               	.LBB397:
 2805               	.LM282:
 2806 0d3a 95A1      		ldd r25,Z+37
 2807 0d3c 892F      		mov r24,r25
 2808 0d3e 8695      		lsr r24
 2809 0d40 8F70      		andi r24,lo8(15)
 2810 0d42 8130      		cpi r24,lo8(1)
 2811 0d44 01F0      		breq .L151
 2812               	.LBB398:
 2813               	.LBB399:
 2814               	.LM283:
 2815 0d46 917E      		andi r25,lo8(-31)
 2816 0d48 9260      		ori r25,lo8(2)
 2817 0d4a 95A3      		std Z+37,r25
 2818               	.L151:
 2819 0d4c 0895      		ret
 2820               	.LBE399:
 2821               	.LBE398:
 2822               	.LBE397:
 2823               	.LBE396:
 2824               	.LFE63:
 2826               	.global	Timebase_DownCounter_Set_Forcefully
 2828               	Timebase_DownCounter_Set_Forcefully:
 2829               	.LFB64:
 2830               	.LM284:
 2831               	.LVL167:
 2832 0d4e CF93      		push r28
 2833 0d50 DF93      		push r29
 2834               	/* prologue: function */
 2835               	/* frame size = 0 */
 2836               	.LBB400:
 2837               	.LBB401:
 2838               	.LBB402:
 2839               	.LBB403:
 2840               	.LM285:
 2841 0d52 E091 0000 		lds r30,Timebase
 2842 0d56 F091 0000 		lds r31,(Timebase)+1
 2843 0d5a A82F      		mov r26,r24
 2844 0d5c B0E0      		ldi r27,lo8(0)
 2845 0d5e 2DE0      		ldi r18,lo8(13)
 2846 0d60 30E0      		ldi r19,hi8(13)
 2847 0d62 E901      		movw r28,r18
 2848 0d64 AC9F      		mul r26,r28
 2849 0d66 9001      		movw r18,r0
 2850 0d68 AD9F      		mul r26,r29
 2851 0d6a 300D      		add r19,r0
 2852 0d6c BC9F      		mul r27,r28
 2853 0d6e 300D      		add r19,r0
 2854 0d70 1124      		clr r1
 2855 0d72 E20F      		add r30,r18
 2856 0d74 F31F      		adc r31,r19
 2857 0d76 16A2      		std Z+38,__zero_reg__
 2858 0d78 17A2      		std Z+39,__zero_reg__
 2859 0d7a 10A6      		std Z+40,__zero_reg__
 2860 0d7c 11A6      		std Z+41,__zero_reg__
 2861               	.LBE403:
 2862               	.LBE402:
 2863               	.LBB404:
 2864               	.LBB405:
 2865               	.LM286:
 2866 0d7e 12A6      		std Z+42,__zero_reg__
 2867 0d80 13A6      		std Z+43,__zero_reg__
 2868 0d82 14A6      		std Z+44,__zero_reg__
 2869 0d84 15A6      		std Z+45,__zero_reg__
 2870               	.LBE405:
 2871               	.LBE404:
 2872               	.LBB406:
 2873               	.LBB407:
 2874               	.LM287:
 2875 0d86 95A1      		ldd r25,Z+37
 2876               	.LBE407:
 2877               	.LBE406:
 2878               	.LBB408:
 2879               	.LBB409:
 2880               	.LM288:
 2881 0d88 907E      		andi r25,lo8(-32)
 2882 0d8a 95A3      		std Z+37,r25
 2883               	.LBE409:
 2884               	.LBE408:
 2885               	.LBE401:
 2886               	.LBE400:
 2887               	.LM289:
 2888 0d8c 0E94 0000 		call Timebase_DownCounter_Set_Securely
 2889               	.LVL168:
 2890               	/* epilogue start */
 2891               	.LM290:
 2892 0d90 DF91      		pop r29
 2893 0d92 CF91      		pop r28
 2894 0d94 0895      		ret
 2895               	.LFE64:
 2897               	.global	Timebase_DownCounter_Update
 2899               	Timebase_DownCounter_Update:
 2900               	.LFB65:
 2901               	.LM291:
 2902               	.LVL169:
 2903               	/* prologue: function */
 2904               	/* frame size = 0 */
 2905               	.LBB410:
 2906               	.LBB411:
 2907               	.LM292:
 2908 0d96 A091 0000 		lds r26,Timebase
 2909 0d9a B091 0000 		lds r27,(Timebase)+1
 2910 0d9e 90E0      		ldi r25,lo8(0)
 2911 0da0 2DE0      		ldi r18,lo8(13)
 2912 0da2 30E0      		ldi r19,hi8(13)
 2913 0da4 829F      		mul r24,r18
 2914 0da6 F001      		movw r30,r0
 2915 0da8 839F      		mul r24,r19
 2916 0daa F00D      		add r31,r0
 2917 0dac 929F      		mul r25,r18
 2918 0dae F00D      		add r31,r0
 2919 0db0 1124      		clr r1
 2920               	.LVL170:
 2921 0db2 EA0F      		add r30,r26
 2922 0db4 FB1F      		adc r31,r27
 2923 0db6 85A1      		ldd r24,Z+37
 2924 0db8 8695      		lsr r24
 2925 0dba 8F70      		andi r24,lo8(15)
 2926               	.LBE411:
 2927               	.LBE410:
 2928               	.LM293:
 2929 0dbc 8130      		cpi r24,lo8(1)
 2930 0dbe 01F4      		brne .L155
 2931               	.LBB412:
 2932               	.LBB413:
 2933               	.LM294:
 2934 0dc0 1B96      		adiw r26,11
 2935 0dc2 2D91      		ld r18,X+
 2936 0dc4 3D91      		ld r19,X+
 2937 0dc6 4D91      		ld r20,X+
 2938 0dc8 5C91      		ld r21,X
 2939 0dca 1E97      		sbiw r26,11+3
 2940               	.LBE413:
 2941               	.LBE412:
 2942               	.LBB414:
 2943               	.LBB415:
 2944               	.LM295:
 2945 0dcc 86A1      		ldd r24,Z+38
 2946 0dce 97A1      		ldd r25,Z+39
 2947 0dd0 A0A5      		ldd r26,Z+40
 2948 0dd2 B1A5      		ldd r27,Z+41
 2949 0dd4 821B      		sub r24,r18
 2950 0dd6 930B      		sbc r25,r19
 2951 0dd8 A40B      		sbc r26,r20
 2952 0dda B50B      		sbc r27,r21
 2953 0ddc 82A7      		std Z+42,r24
 2954 0dde 93A7      		std Z+43,r25
 2955 0de0 A4A7      		std Z+44,r26
 2956 0de2 B5A7      		std Z+45,r27
 2957               	.LBE415:
 2958               	.LBE414:
 2959               	.LM296:
 2960 0de4 0097      		sbiw r24,0
 2961 0de6 A105      		cpc r26,__zero_reg__
 2962 0de8 B105      		cpc r27,__zero_reg__
 2963 0dea 01F4      		brne .L157
 2964               	.LBB416:
 2965               	.LBB417:
 2966               	.LBB418:
 2967               	.LBB419:
 2968               	.LM297:
 2969 0dec 16A2      		std Z+38,__zero_reg__
 2970 0dee 17A2      		std Z+39,__zero_reg__
 2971 0df0 10A6      		std Z+40,__zero_reg__
 2972 0df2 11A6      		std Z+41,__zero_reg__
 2973               	.LBE419:
 2974               	.LBE418:
 2975               	.LBB420:
 2976               	.LBB421:
 2977               	.LM298:
 2978 0df4 12A6      		std Z+42,__zero_reg__
 2979 0df6 13A6      		std Z+43,__zero_reg__
 2980 0df8 14A6      		std Z+44,__zero_reg__
 2981 0dfa 15A6      		std Z+45,__zero_reg__
 2982               	.LBE421:
 2983               	.LBE420:
 2984               	.LBB422:
 2985               	.LBB423:
 2986               	.LM299:
 2987 0dfc 85A1      		ldd r24,Z+37
 2988               	.LBE423:
 2989               	.LBE422:
 2990               	.LBE417:
 2991               	.LBE416:
 2992               	.LBB424:
 2993               	.LBB425:
 2994               	.LM300:
 2995 0dfe 807E      		andi r24,lo8(-32)
 2996 0e00 8860      		ori r24,lo8(8)
 2997 0e02 85A3      		std Z+37,r24
 2998 0e04 0895      		ret
 2999               	.L155:
 3000               	.LBE425:
 3001               	.LBE424:
 3002               	.LM301:
 3003 0e06 8230      		cpi r24,lo8(2)
 3004 0e08 01F4      		brne .L157
 3005               	.LBB426:
 3006               	.LBB427:
 3007               	.LM302:
 3008 0e0a 1B96      		adiw r26,11
 3009 0e0c 2D91      		ld r18,X+
 3010 0e0e 3D91      		ld r19,X+
 3011 0e10 4D91      		ld r20,X+
 3012 0e12 5C91      		ld r21,X
 3013 0e14 1E97      		sbiw r26,11+3
 3014               	.LBE427:
 3015               	.LBE426:
 3016               	.LBB428:
 3017               	.LBB429:
 3018               	.LM303:
 3019 0e16 82A5      		ldd r24,Z+42
 3020 0e18 93A5      		ldd r25,Z+43
 3021 0e1a A4A5      		ldd r26,Z+44
 3022 0e1c B5A5      		ldd r27,Z+45
 3023 0e1e 820F      		add r24,r18
 3024 0e20 931F      		adc r25,r19
 3025 0e22 A41F      		adc r26,r20
 3026 0e24 B51F      		adc r27,r21
 3027 0e26 86A3      		std Z+38,r24
 3028 0e28 97A3      		std Z+39,r25
 3029 0e2a A0A7      		std Z+40,r26
 3030 0e2c B1A7      		std Z+41,r27
 3031               	.L157:
 3032 0e2e 0895      		ret
 3033               	.LBE429:
 3034               	.LBE428:
 3035               	.LFE65:
 3037               	.global	Timebase_DownCounter_Expired
 3039               	Timebase_DownCounter_Expired:
 3040               	.LFB66:
 3041               	.LM304:
 3042               	.LVL171:
 3043               	/* prologue: function */
 3044               	/* frame size = 0 */
 3045               	.LM305:
 3046 0e30 40E0      		ldi r20,lo8(0)
 3047 0e32 E091 0000 		lds r30,Timebase
 3048 0e36 F091 0000 		lds r31,(Timebase)+1
 3049 0e3a 90E0      		ldi r25,lo8(0)
 3050               	.LVL172:
 3051 0e3c 2DE0      		ldi r18,lo8(13)
 3052 0e3e 30E0      		ldi r19,hi8(13)
 3053 0e40 BC01      		movw r22,r24
 3054 0e42 629F      		mul r22,r18
 3055 0e44 C001      		movw r24,r0
 3056 0e46 639F      		mul r22,r19
 3057 0e48 900D      		add r25,r0
 3058 0e4a 729F      		mul r23,r18
 3059 0e4c 900D      		add r25,r0
 3060 0e4e 1124      		clr r1
 3061               	.LVL173:
 3062 0e50 E80F      		add r30,r24
 3063 0e52 F91F      		adc r31,r25
 3064 0e54 85A1      		ldd r24,Z+37
 3065 0e56 8695      		lsr r24
 3066 0e58 8F70      		andi r24,lo8(15)
 3067 0e5a 8430      		cpi r24,lo8(4)
 3068 0e5c 01F4      		brne .L159
 3069 0e5e 41E0      		ldi r20,lo8(1)
 3070               	.L159:
 3071               	.LM306:
 3072 0e60 842F      		mov r24,r20
 3073               	/* epilogue start */
 3074 0e62 0895      		ret
 3075               	.LFE66:
 3077               	.global	Timebase_DownCounter_Expired_Event
 3079               	Timebase_DownCounter_Expired_Event:
 3080               	.LFB67:
 3081               	.LM307:
 3082               	.LVL174:
 3083               	/* prologue: function */
 3084               	/* frame size = 0 */
 3085               	.LBB430:
 3086               	.LBB431:
 3087               	.LM308:
 3088 0e64 E091 0000 		lds r30,Timebase
 3089 0e68 F091 0000 		lds r31,(Timebase)+1
 3090 0e6c 90E0      		ldi r25,lo8(0)
 3091               	.LBE431:
 3092               	.LBE430:
 3093               	.LM309:
 3094 0e6e 2DE0      		ldi r18,lo8(13)
 3095 0e70 30E0      		ldi r19,hi8(13)
 3096 0e72 AC01      		movw r20,r24
 3097               	.LVL175:
 3098 0e74 429F      		mul r20,r18
 3099 0e76 C001      		movw r24,r0
 3100 0e78 439F      		mul r20,r19
 3101 0e7a 900D      		add r25,r0
 3102 0e7c 529F      		mul r21,r18
 3103 0e7e 900D      		add r25,r0
 3104 0e80 1124      		clr r1
 3105 0e82 E80F      		add r30,r24
 3106 0e84 F91F      		adc r31,r25
 3107 0e86 85A1      		ldd r24,Z+37
 3108 0e88 8695      		lsr r24
 3109 0e8a 8F70      		andi r24,lo8(15)
 3110 0e8c 8430      		cpi r24,lo8(4)
 3111 0e8e 01F0      		breq .L162
 3112 0e90 80E0      		ldi r24,lo8(0)
 3113 0e92 0895      		ret
 3114               	.L162:
 3115               	.LBB432:
 3116               	.LBB433:
 3117               	.LBB434:
 3118               	.LBB435:
 3119               	.LBB436:
 3120               	.LBB437:
 3121               	.LM310:
 3122 0e94 16A2      		std Z+38,__zero_reg__
 3123 0e96 17A2      		std Z+39,__zero_reg__
 3124 0e98 10A6      		std Z+40,__zero_reg__
 3125 0e9a 11A6      		std Z+41,__zero_reg__
 3126               	.LBE437:
 3127               	.LBE436:
 3128               	.LBB438:
 3129               	.LBB439:
 3130               	.LM311:
 3131 0e9c 12A6      		std Z+42,__zero_reg__
 3132 0e9e 13A6      		std Z+43,__zero_reg__
 3133 0ea0 14A6      		std Z+44,__zero_reg__
 3134 0ea2 15A6      		std Z+45,__zero_reg__
 3135               	.LBE439:
 3136               	.LBE438:
 3137               	.LBB440:
 3138               	.LBB441:
 3139               	.LM312:
 3140 0ea4 85A1      		ldd r24,Z+37
 3141               	.LBE441:
 3142               	.LBE440:
 3143               	.LBB442:
 3144               	.LBB443:
 3145               	.LM313:
 3146 0ea6 807E      		andi r24,lo8(-32)
 3147 0ea8 85A3      		std Z+37,r24
 3148 0eaa 81E0      		ldi r24,lo8(1)
 3149               	.LBE443:
 3150               	.LBE442:
 3151               	.LBE435:
 3152               	.LBE434:
 3153               	.LBE433:
 3154               	.LBE432:
 3155               	.LM314:
 3156 0eac 0895      		ret
 3157               	.LFE67:
 3159               	.global	Timebase_DownCounter_Set_Period_Value_Securely
 3161               	Timebase_DownCounter_Set_Period_Value_Securely:
 3162               	.LFB68:
 3163               	.LM315:
 3164               	.LVL176:
 3165               	/* prologue: function */
 3166               	/* frame size = 0 */
 3167               	.LBB444:
 3168               	.LBB445:
 3169               	.LM316:
 3170 0eae E091 0000 		lds r30,Timebase
 3171 0eb2 F091 0000 		lds r31,(Timebase)+1
 3172 0eb6 90E0      		ldi r25,lo8(0)
 3173               	.LBE445:
 3174               	.LBE444:
 3175               	.LM317:
 3176 0eb8 2DE0      		ldi r18,lo8(13)
 3177 0eba 30E0      		ldi r19,hi8(13)
 3178 0ebc DC01      		movw r26,r24
 3179               	.LVL177:
 3180 0ebe A29F      		mul r26,r18
 3181 0ec0 C001      		movw r24,r0
 3182 0ec2 A39F      		mul r26,r19
 3183 0ec4 900D      		add r25,r0
 3184 0ec6 B29F      		mul r27,r18
 3185 0ec8 900D      		add r25,r0
 3186 0eca 1124      		clr r1
 3187 0ecc E80F      		add r30,r24
 3188 0ece F91F      		adc r31,r25
 3189 0ed0 85A1      		ldd r24,Z+37
 3190 0ed2 80FD      		sbrc r24,0
 3191 0ed4 00C0      		rjmp .L167
 3192               	.LBB446:
 3193               	.LBB447:
 3194               	.LM318:
 3195 0ed6 82A5      		ldd r24,Z+42
 3196 0ed8 93A5      		ldd r25,Z+43
 3197 0eda A4A5      		ldd r26,Z+44
 3198 0edc B5A5      		ldd r27,Z+45
 3199 0ede 841B      		sub r24,r20
 3200 0ee0 950B      		sbc r25,r21
 3201 0ee2 A60B      		sbc r26,r22
 3202 0ee4 B70B      		sbc r27,r23
 3203 0ee6 86A7      		std Z+46,r24
 3204 0ee8 97A7      		std Z+47,r25
 3205 0eea A0AB      		std Z+48,r26
 3206 0eec B1AB      		std Z+49,r27
 3207               	.LBE447:
 3208               	.LBE446:
 3209               	.LBB448:
 3210               	.LBB449:
 3211               	.LM319:
 3212 0eee 85A1      		ldd r24,Z+37
 3213 0ef0 8160      		ori r24,lo8(1)
 3214 0ef2 85A3      		std Z+37,r24
 3215               	.L167:
 3216 0ef4 0895      		ret
 3217               	.LBE449:
 3218               	.LBE448:
 3219               	.LFE68:
 3221               	.global	Timebase_DownCounter_Get_Remaining_Period_Value
 3223               	Timebase_DownCounter_Get_Remaining_Period_Value:
 3224               	.LFB69:
 3225               	.LM320:
 3226               	.LVL178:
 3227               	/* prologue: function */
 3228               	/* frame size = 0 */
 3229               	.LBB450:
 3230               	.LBB451:
 3231               	.LM321:
 3232 0ef6 E091 0000 		lds r30,Timebase
 3233 0efa F091 0000 		lds r31,(Timebase)+1
 3234 0efe 90E0      		ldi r25,lo8(0)
 3235               	.LBE451:
 3236               	.LBE450:
 3237               	.LM322:
 3238 0f00 2DE0      		ldi r18,lo8(13)
 3239 0f02 30E0      		ldi r19,hi8(13)
 3240 0f04 AC01      		movw r20,r24
 3241               	.LVL179:
 3242 0f06 429F      		mul r20,r18
 3243 0f08 C001      		movw r24,r0
 3244 0f0a 439F      		mul r20,r19
 3245 0f0c 900D      		add r25,r0
 3246 0f0e 529F      		mul r21,r18
 3247 0f10 900D      		add r25,r0
 3248 0f12 1124      		clr r1
 3249 0f14 E80F      		add r30,r24
 3250 0f16 F91F      		adc r31,r25
 3251 0f18 22A5      		ldd r18,Z+42
 3252 0f1a 33A5      		ldd r19,Z+43
 3253 0f1c 44A5      		ldd r20,Z+44
 3254 0f1e 55A5      		ldd r21,Z+45
 3255               	.LVL180:
 3256 0f20 86A5      		ldd r24,Z+46
 3257 0f22 97A5      		ldd r25,Z+47
 3258 0f24 A0A9      		ldd r26,Z+48
 3259 0f26 B1A9      		ldd r27,Z+49
 3260 0f28 281B      		sub r18,r24
 3261 0f2a 390B      		sbc r19,r25
 3262 0f2c 4A0B      		sbc r20,r26
 3263 0f2e 5B0B      		sbc r21,r27
 3264 0f30 57FF      		sbrs r21,7
 3265 0f32 00C0      		rjmp .L169
 3266 0f34 20E0      		ldi r18,lo8(0)
 3267 0f36 30E0      		ldi r19,hi8(0)
 3268 0f38 40E0      		ldi r20,hlo8(0)
 3269 0f3a 50E0      		ldi r21,hhi8(0)
 3270               	.L169:
 3271               	.LM323:
 3272 0f3c B901      		movw r22,r18
 3273               	.LVL181:
 3274 0f3e CA01      		movw r24,r20
 3275               	/* epilogue start */
 3276 0f40 0895      		ret
 3277               	.LFE69:
 3279               	.global	Timebase_DownCounter_Period_Value_Expired
 3281               	Timebase_DownCounter_Period_Value_Expired:
 3282               	.LFB70:
 3283               	.LM324:
 3284               	.LVL182:
 3285 0f42 CF93      		push r28
 3286 0f44 DF93      		push r29
 3287               	/* prologue: function */
 3288               	/* frame size = 0 */
 3289               	.LBB452:
 3290               	.LBB453:
 3291               	.LBB454:
 3292               	.LBB455:
 3293               	.LM325:
 3294 0f46 C091 0000 		lds r28,Timebase
 3295 0f4a D091 0000 		lds r29,(Timebase)+1
 3296 0f4e 682F      		mov r22,r24
 3297 0f50 70E0      		ldi r23,lo8(0)
 3298               	.LBE455:
 3299               	.LBE454:
 3300               	.LM326:
 3301 0f52 8DE0      		ldi r24,lo8(13)
 3302 0f54 90E0      		ldi r25,hi8(13)
 3303               	.LVL183:
 3304 0f56 689F      		mul r22,r24
 3305 0f58 F001      		movw r30,r0
 3306 0f5a 699F      		mul r22,r25
 3307 0f5c F00D      		add r31,r0
 3308 0f5e 789F      		mul r23,r24
 3309 0f60 F00D      		add r31,r0
 3310 0f62 1124      		clr r1
 3311 0f64 EC0F      		add r30,r28
 3312 0f66 FD1F      		adc r31,r29
 3313 0f68 22A5      		ldd r18,Z+42
 3314 0f6a 33A5      		ldd r19,Z+43
 3315 0f6c 44A5      		ldd r20,Z+44
 3316 0f6e 55A5      		ldd r21,Z+45
 3317               	.LVL184:
 3318 0f70 86A5      		ldd r24,Z+46
 3319 0f72 97A5      		ldd r25,Z+47
 3320 0f74 A0A9      		ldd r26,Z+48
 3321 0f76 B1A9      		ldd r27,Z+49
 3322 0f78 281B      		sub r18,r24
 3323 0f7a 390B      		sbc r19,r25
 3324 0f7c 4A0B      		sbc r20,r26
 3325 0f7e 5B0B      		sbc r21,r27
 3326               	.LM327:
 3327 0f80 57FD      		sbrc r21,7
 3328 0f82 00C0      		rjmp .L172
 3329               	.LBE453:
 3330               	.LBE452:
 3331               	.LM328:
 3332 0f84 2115      		cp r18,__zero_reg__
 3333 0f86 3105      		cpc r19,__zero_reg__
 3334 0f88 4105      		cpc r20,__zero_reg__
 3335 0f8a 5105      		cpc r21,__zero_reg__
 3336 0f8c 01F0      		breq .L172
 3337 0f8e 20E0      		ldi r18,lo8(0)
 3338               	.LVL185:
 3339 0f90 00C0      		rjmp .L173
 3340               	.LVL186:
 3341               	.L172:
 3342 0f92 20E0      		ldi r18,lo8(0)
 3343               	.LVL187:
 3344 0f94 8DE0      		ldi r24,lo8(13)
 3345 0f96 90E0      		ldi r25,hi8(13)
 3346 0f98 AC01      		movw r20,r24
 3347 0f9a 649F      		mul r22,r20
 3348 0f9c C001      		movw r24,r0
 3349 0f9e 659F      		mul r22,r21
 3350 0fa0 900D      		add r25,r0
 3351 0fa2 749F      		mul r23,r20
 3352 0fa4 900D      		add r25,r0
 3353 0fa6 1124      		clr r1
 3354 0fa8 C80F      		add r28,r24
 3355 0faa D91F      		adc r29,r25
 3356 0fac 8DA1      		ldd r24,Y+37
 3357 0fae 80FF      		sbrs r24,0
 3358 0fb0 21E0      		ldi r18,lo8(1)
 3359               	.L174:
 3360 0fb2 81E0      		ldi r24,lo8(1)
 3361 0fb4 2827      		eor r18,r24
 3362               	.L173:
 3363               	.LM329:
 3364 0fb6 822F      		mov r24,r18
 3365               	/* epilogue start */
 3366 0fb8 DF91      		pop r29
 3367 0fba CF91      		pop r28
 3368 0fbc 0895      		ret
 3369               	.LFE70:
 3371               	.global	Timebase_DownCounter_Period_Value_Expired_Event
 3373               	Timebase_DownCounter_Period_Value_Expired_Event:
 3374               	.LFB71:
 3375               	.LM330:
 3376               	.LVL188:
 3377 0fbe 1F93      		push r17
 3378               	/* prologue: function */
 3379               	/* frame size = 0 */
 3380 0fc0 182F      		mov r17,r24
 3381               	.LM331:
 3382 0fc2 0E94 0000 		call Timebase_DownCounter_Period_Value_Expired
 3383               	.LVL189:
 3384 0fc6 8130      		cpi r24,lo8(1)
 3385 0fc8 01F0      		breq .L177
 3386 0fca 80E0      		ldi r24,lo8(0)
 3387 0fcc 00C0      		rjmp .L178
 3388               	.L177:
 3389               	.LBB456:
 3390               	.LBB457:
 3391               	.LM332:
 3392 0fce E091 0000 		lds r30,Timebase
 3393 0fd2 F091 0000 		lds r31,(Timebase)+1
 3394 0fd6 212F      		mov r18,r17
 3395 0fd8 30E0      		ldi r19,lo8(0)
 3396               	.LVL190:
 3397 0fda 8DE0      		ldi r24,lo8(13)
 3398 0fdc 90E0      		ldi r25,hi8(13)
 3399 0fde AC01      		movw r20,r24
 3400 0fe0 249F      		mul r18,r20
 3401 0fe2 C001      		movw r24,r0
 3402 0fe4 259F      		mul r18,r21
 3403 0fe6 900D      		add r25,r0
 3404 0fe8 349F      		mul r19,r20
 3405 0fea 900D      		add r25,r0
 3406 0fec 1124      		clr r1
 3407 0fee E80F      		add r30,r24
 3408 0ff0 F91F      		adc r31,r25
 3409 0ff2 85A1      		ldd r24,Z+37
 3410 0ff4 8E7F      		andi r24,lo8(-2)
 3411 0ff6 85A3      		std Z+37,r24
 3412 0ff8 81E0      		ldi r24,lo8(1)
 3413               	.L178:
 3414               	/* epilogue start */
 3415               	.LBE457:
 3416               	.LBE456:
 3417               	.LM333:
 3418 0ffa 1F91      		pop r17
 3419               	.LVL191:
 3420 0ffc 0895      		ret
 3421               	.LFE71:
 3423               	.global	Timebase_DownCounter_Update_All
 3425               	Timebase_DownCounter_Update_All:
 3426               	.LFB72:
 3427               	.LM334:
 3428               	/* prologue: function */
 3429               	/* frame size = 0 */
 3430               	.LBB458:
 3431               	.LM335:
 3432 0ffe 80E0      		ldi r24,lo8(0)
 3433 1000 0E94 0000 		call Timebase_DownCounter_Update
 3434               	/* epilogue start */
 3435               	.LBE458:
 3436               	.LM336:
 3437 1004 0895      		ret
 3438               	.LFE72:
 3440               	.global	Timebase_DownCounter_Reset_All
 3442               	Timebase_DownCounter_Reset_All:
 3443               	.LFB73:
 3444               	.LM337:
 3445               	/* prologue: function */
 3446               	/* frame size = 0 */
 3447               	.LBB459:
 3448               	.LBB460:
 3449               	.LBB461:
 3450               	.LBB462:
 3451               	.LBB463:
 3452               	.LM338:
 3453 1006 E091 0000 		lds r30,Timebase
 3454 100a F091 0000 		lds r31,(Timebase)+1
 3455 100e 16A2      		std Z+38,__zero_reg__
 3456 1010 17A2      		std Z+39,__zero_reg__
 3457 1012 10A6      		std Z+40,__zero_reg__
 3458 1014 11A6      		std Z+41,__zero_reg__
 3459               	.LBE463:
 3460               	.LBE462:
 3461               	.LBB464:
 3462               	.LBB465:
 3463               	.LM339:
 3464 1016 12A6      		std Z+42,__zero_reg__
 3465 1018 13A6      		std Z+43,__zero_reg__
 3466 101a 14A6      		std Z+44,__zero_reg__
 3467 101c 15A6      		std Z+45,__zero_reg__
 3468               	.LBE465:
 3469               	.LBE464:
 3470               	.LBB466:
 3471               	.LBB467:
 3472               	.LM340:
 3473 101e 85A1      		ldd r24,Z+37
 3474               	.LBE467:
 3475               	.LBE466:
 3476               	.LBB468:
 3477               	.LBB469:
 3478               	.LM341:
 3479 1020 807E      		andi r24,lo8(-32)
 3480 1022 85A3      		std Z+37,r24
 3481               	/* epilogue start */
 3482               	.LBE469:
 3483               	.LBE468:
 3484               	.LBE461:
 3485               	.LBE460:
 3486               	.LBE459:
 3487               	.LM342:
 3488 1024 0895      		ret
 3489               	.LFE73:
 3491               	.global	Timebase_Reset
 3493               	Timebase_Reset:
 3494               	.LFB74:
 3495               	.LM343:
 3496               	/* prologue: function */
 3497               	/* frame size = 0 */
 3498               	.LM344:
 3499 1026 0E94 0000 		call Timebase_UpCounter_Reset_All
 3500               	.LM345:
 3501 102a 0E94 0000 		call Timebase_DownCounter_Reset_All
 3502               	/* epilogue start */
 3503               	.LM346:
 3504 102e 0895      		ret
 3505               	.LFE74:
 3507               	.global	Timebase_Init
 3509               	Timebase_Init:
 3510               	.LFB75:
 3511               	.LM347:
 3512               	.LVL192:
 3513 1030 0F93      		push r16
 3514 1032 1F93      		push r17
 3515               	/* prologue: function */
 3516               	/* frame size = 0 */
 3517 1034 8C01      		movw r16,r24
 3518               	.LM348:
 3519 1036 0E94 0000 		call Timebase_Struct_Init
 3520               	.LVL193:
 3521               	.LM349:
 3522 103a C801      		movw r24,r16
 3523 103c 0E94 0000 		call Timebase_Timer_Config
 3524               	.LM350:
 3525 1040 0E94 0000 		call Timebase_Reset
 3526               	/* epilogue start */
 3527               	.LM351:
 3528 1044 1F91      		pop r17
 3529 1046 0F91      		pop r16
 3530               	.LVL194:
 3531 1048 0895      		ret
 3532               	.LFE75:
 3534               	.global	Timebase_Main_Loop_Executables
 3536               	Timebase_Main_Loop_Executables:
 3537               	.LFB76:
 3538               	.LM352:
 3539               	/* prologue: function */
 3540               	/* frame size = 0 */
 3541               	.LM353:
 3542 104a 0E94 0000 		call Timebase_UpCounter_Update_All
 3543               	.LM354:
 3544 104e 0E94 0000 		call Timebase_DownCounter_Update_All
 3545               	/* epilogue start */
 3546               	.LM355:
 3547 1052 0895      		ret
 3548               	.LFE76:
 3550               	.global	Timebase_ISR_Executables
 3552               	Timebase_ISR_Executables:
 3553               	.LFB77:
 3554               	.LM356:
 3555 1054 CF93      		push r28
 3556 1056 DF93      		push r29
 3557               	/* prologue: function */
 3558               	/* frame size = 0 */
 3559               	.LM357:
 3560 1058 C091 0000 		lds r28,Timebase
 3561 105c D091 0000 		lds r29,(Timebase)+1
 3562 1060 8F81      		ldd r24,Y+7
 3563 1062 9885      		ldd r25,Y+8
 3564 1064 A985      		ldd r26,Y+9
 3565 1066 BA85      		ldd r27,Y+10
 3566 1068 0196      		adiw r24,1
 3567 106a A11D      		adc r26,__zero_reg__
 3568 106c B11D      		adc r27,__zero_reg__
 3569 106e 8F83      		std Y+7,r24
 3570 1070 9887      		std Y+8,r25
 3571 1072 A987      		std Y+9,r26
 3572 1074 BA87      		std Y+10,r27
 3573               	.LM358:
 3574 1076 6F81      		ldd r22,Y+7
 3575 1078 7885      		ldd r23,Y+8
 3576 107a 8985      		ldd r24,Y+9
 3577 107c 9A85      		ldd r25,Y+10
 3578 107e 2981      		ldd r18,Y+1
 3579 1080 3A81      		ldd r19,Y+2
 3580 1082 40E0      		ldi r20,lo8(0)
 3581 1084 50E0      		ldi r21,hi8(0)
 3582 1086 0E94 0000 		call __udivmodsi4
 3583 108a 6115      		cp r22,__zero_reg__
 3584 108c 7105      		cpc r23,__zero_reg__
 3585 108e 8105      		cpc r24,__zero_reg__
 3586 1090 9105      		cpc r25,__zero_reg__
 3587 1092 01F4      		brne .L192
 3588               	.LM359:
 3589 1094 8B85      		ldd r24,Y+11
 3590 1096 9C85      		ldd r25,Y+12
 3591 1098 AD85      		ldd r26,Y+13
 3592 109a BE85      		ldd r27,Y+14
 3593 109c 0196      		adiw r24,1
 3594 109e A11D      		adc r26,__zero_reg__
 3595 10a0 B11D      		adc r27,__zero_reg__
 3596 10a2 8B87      		std Y+11,r24
 3597 10a4 9C87      		std Y+12,r25
 3598 10a6 AD87      		std Y+13,r26
 3599 10a8 BE87      		std Y+14,r27
 3600               	.LBB470:
 3601               	.LBB471:
 3602               	.LM360:
 3603 10aa 8F85      		ldd r24,Y+15
 3604               	.LBE471:
 3605               	.LBE470:
 3606               	.LM361:
 3607 10ac 8823      		tst r24
 3608 10ae 01F4      		brne .L192
 3609               	.LM362:
 3610 10b0 1F82      		std Y+7,__zero_reg__
 3611 10b2 1886      		std Y+8,__zero_reg__
 3612 10b4 1986      		std Y+9,__zero_reg__
 3613 10b6 1A86      		std Y+10,__zero_reg__
 3614               	.L192:
 3615               	/* epilogue start */
 3616               	.LM363:
 3617 10b8 DF91      		pop r29
 3618 10ba CF91      		pop r28
 3619 10bc 0895      		ret
 3620               	.LFE77:
 3622               	.global	__vector_14
 3624               	__vector_14:
 3625               	.LFB78:
 3626               	.LM364:
 3627 10be 1F92      		push __zero_reg__
 3628 10c0 0F92      		push r0
 3629 10c2 0FB6      		in r0,__SREG__
 3630 10c4 0F92      		push r0
 3631 10c6 1124      		clr __zero_reg__
 3632 10c8 2F93      		push r18
 3633 10ca 3F93      		push r19
 3634 10cc 4F93      		push r20
 3635 10ce 5F93      		push r21
 3636 10d0 6F93      		push r22
 3637 10d2 7F93      		push r23
 3638 10d4 8F93      		push r24
 3639 10d6 9F93      		push r25
 3640 10d8 AF93      		push r26
 3641 10da BF93      		push r27
 3642 10dc EF93      		push r30
 3643 10de FF93      		push r31
 3644               	/* prologue: Signal */
 3645               	/* frame size = 0 */
 3646               	.LM365:
 3647 10e0 0E94 0000 		call Timebase_ISR_Executables
 3648               	/* epilogue start */
 3649               	.LM366:
 3650 10e4 FF91      		pop r31
 3651 10e6 EF91      		pop r30
 3652 10e8 BF91      		pop r27
 3653 10ea AF91      		pop r26
 3654 10ec 9F91      		pop r25
 3655 10ee 8F91      		pop r24
 3656 10f0 7F91      		pop r23
 3657 10f2 6F91      		pop r22
 3658 10f4 5F91      		pop r21
 3659 10f6 4F91      		pop r20
 3660 10f8 3F91      		pop r19
 3661 10fa 2F91      		pop r18
 3662 10fc 0F90      		pop r0
 3663 10fe 0FBE      		out __SREG__,r0
 3664 1100 0F90      		pop r0
 3665 1102 1F90      		pop __zero_reg__
 3666 1104 1895      		reti
 3667               	.LFE78:
 3669               		.comm Timebase_type,50,1
 3670               		.comm Timebase,2,1
 4271               	.Letext0:
DEFINED SYMBOLS
                            *ABS*:00000000 timebase.c
C:\Users\farid\AppData\Local\Temp/ccljlm0J.s:2      *ABS*:0000003f __SREG__
C:\Users\farid\AppData\Local\Temp/ccljlm0J.s:3      *ABS*:0000003e __SP_H__
C:\Users\farid\AppData\Local\Temp/ccljlm0J.s:4      *ABS*:0000003d __SP_L__
C:\Users\farid\AppData\Local\Temp/ccljlm0J.s:5      *ABS*:00000034 __CCP__
C:\Users\farid\AppData\Local\Temp/ccljlm0J.s:6      *ABS*:00000000 __tmp_reg__
C:\Users\farid\AppData\Local\Temp/ccljlm0J.s:7      *ABS*:00000001 __zero_reg__
C:\Users\farid\AppData\Local\Temp/ccljlm0J.s:18     .text:00000000 Timebase_Struct_Init
                            *COM*:00000032 Timebase_type
                            *COM*:00000002 Timebase
C:\Users\farid\AppData\Local\Temp/ccljlm0J.s:115    .text:000000ee Timebase_Timer_Config
C:\Users\farid\AppData\Local\Temp/ccljlm0J.s:262    .text:00000190 Timebase_Token_Executing
C:\Users\farid\AppData\Local\Temp/ccljlm0J.s:278    .text:0000019c Timebase_Token_Add
C:\Users\farid\AppData\Local\Temp/ccljlm0J.s:304    .text:000001b2 Timebase_Token_Remove
C:\Users\farid\AppData\Local\Temp/ccljlm0J.s:330    .text:000001c8 Timebase_Token_Remove_All
C:\Users\farid\AppData\Local\Temp/ccljlm0J.s:346    .text:000001d4 Timebase_Timer_Get_SubSeconds
C:\Users\farid\AppData\Local\Temp/ccljlm0J.s:367    .text:000001ea Timebase_Timer_Get_Seconds
C:\Users\farid\AppData\Local\Temp/ccljlm0J.s:388    .text:00000200 Timebase_Timer_Set_SubSeconds
C:\Users\farid\AppData\Local\Temp/ccljlm0J.s:408    .text:00000212 Timebase_Timer_Set_Seconds
C:\Users\farid\AppData\Local\Temp/ccljlm0J.s:428    .text:00000224 Timebase_Timer_Delay_SubSeconds
C:\Users\farid\AppData\Local\Temp/ccljlm0J.s:513    .text:0000026e Timebase_Timer_Delay_Seconds
C:\Users\farid\AppData\Local\Temp/ccljlm0J.s:575    .text:000002b0 Timebase_UpCounter_Get_Status
C:\Users\farid\AppData\Local\Temp/ccljlm0J.s:609    .text:000002da Timebase_UpCounter_Set_Status
C:\Users\farid\AppData\Local\Temp/ccljlm0J.s:647    .text:0000030a Timebase_UpCounter_Get_Value
C:\Users\farid\AppData\Local\Temp/ccljlm0J.s:690    .text:00000344 Timebase_UpCounter_Set_Value
C:\Users\farid\AppData\Local\Temp/ccljlm0J.s:725    .text:00000370 Timebase_UpCounter_Get_EndValue
C:\Users\farid\AppData\Local\Temp/ccljlm0J.s:768    .text:000003aa Timebase_UpCounter_Set_EndValue
C:\Users\farid\AppData\Local\Temp/ccljlm0J.s:803    .text:000003d6 Timebase_UpCounter_Get_TargetValue
C:\Users\farid\AppData\Local\Temp/ccljlm0J.s:841    .text:00000404 Timebase_UpCounter_Set_TargetValue
C:\Users\farid\AppData\Local\Temp/ccljlm0J.s:878    .text:00000432 Timebase_UpCounter_Get_TemporaryValue
C:\Users\farid\AppData\Local\Temp/ccljlm0J.s:921    .text:0000046c Timebase_UpCounter_Set_TemporaryValue
C:\Users\farid\AppData\Local\Temp/ccljlm0J.s:956    .text:00000498 Timebase_UpCounter_Get_PeriodValue
C:\Users\farid\AppData\Local\Temp/ccljlm0J.s:999    .text:000004d2 Timebase_UpCounter_Set_PeriodValue
C:\Users\farid\AppData\Local\Temp/ccljlm0J.s:1034   .text:000004fe Timebase_UpCounter_Get_Period_Flag
C:\Users\farid\AppData\Local\Temp/ccljlm0J.s:1067   .text:00000526 Timebase_UpCounter_Set_Period_Flag
C:\Users\farid\AppData\Local\Temp/ccljlm0J.s:1101   .text:00000550 Timebase_UpCounter_Clear_Period_Flag
C:\Users\farid\AppData\Local\Temp/ccljlm0J.s:1135   .text:0000057a Timebase_UpCounter_Reset
C:\Users\farid\AppData\Local\Temp/ccljlm0J.s:1236   .text:000005e8 Timebase_UpCounter_Clear_All_Flags
C:\Users\farid\AppData\Local\Temp/ccljlm0J.s:1252   .text:000005ee Timebase_UpCounter_Start
C:\Users\farid\AppData\Local\Temp/ccljlm0J.s:1300   .text:00000624 Timebase_UpCounter_Stop
C:\Users\farid\AppData\Local\Temp/ccljlm0J.s:1348   .text:0000065a Timebase_UpCounter_Set_Securely
C:\Users\farid\AppData\Local\Temp/ccljlm0J.s:1477   .text:000006f2 Timebase_UpCounter_Set_Forcefully
C:\Users\farid\AppData\Local\Temp/ccljlm0J.s:1513   .text:0000071c Timebase_UpCounter_Update
C:\Users\farid\AppData\Local\Temp/ccljlm0J.s:1725   .text:00000834 Timebase_UpCounter_Expired
C:\Users\farid\AppData\Local\Temp/ccljlm0J.s:1765   .text:00000868 Timebase_UpCounter_Expired_Event
C:\Users\farid\AppData\Local\Temp/ccljlm0J.s:1814   .text:000008a6 Timebase_UpCounter_Set_Period_Value_Securely
C:\Users\farid\AppData\Local\Temp/ccljlm0J.s:1876   .text:000008ee Timebase_UpCounter_Get_Remaining_Period_Value
C:\Users\farid\AppData\Local\Temp/ccljlm0J.s:1934   .text:0000093a Timebase_UpCounter_Period_Value_Expired
C:\Users\farid\AppData\Local\Temp/ccljlm0J.s:2026   .text:000009b6 Timebase_UpCounter_Period_Value_Expired_Event
C:\Users\farid\AppData\Local\Temp/ccljlm0J.s:2078   .text:000009f6 Timebase_UpCounter_Update_All
C:\Users\farid\AppData\Local\Temp/ccljlm0J.s:2095   .text:000009fe Timebase_UpCounter_Reset_All
C:\Users\farid\AppData\Local\Temp/ccljlm0J.s:2112   .text:00000a06 Timebase_DownCounter_Get_Status
C:\Users\farid\AppData\Local\Temp/ccljlm0J.s:2146   .text:00000a30 Timebase_DownCounter_Set_Status
C:\Users\farid\AppData\Local\Temp/ccljlm0J.s:2184   .text:00000a60 Timebase_DownCounter_Get_Value
C:\Users\farid\AppData\Local\Temp/ccljlm0J.s:2227   .text:00000a9a Timebase_DownCounter_Set_Value
C:\Users\farid\AppData\Local\Temp/ccljlm0J.s:2262   .text:00000ac6 Timebase_DownCounter_Get_EndValue
C:\Users\farid\AppData\Local\Temp/ccljlm0J.s:2305   .text:00000b00 Timebase_DownCounter_Set_EndValue
C:\Users\farid\AppData\Local\Temp/ccljlm0J.s:2340   .text:00000b2c Timebase_DownCounter_Get_PeriodValue
C:\Users\farid\AppData\Local\Temp/ccljlm0J.s:2383   .text:00000b66 Timebase_DownCounter_Set_PeriodValue
C:\Users\farid\AppData\Local\Temp/ccljlm0J.s:2418   .text:00000b92 Timebase_DownCounter_Get_Period_Flag
C:\Users\farid\AppData\Local\Temp/ccljlm0J.s:2451   .text:00000bba Timebase_DownCounter_Set_Period_Flag
C:\Users\farid\AppData\Local\Temp/ccljlm0J.s:2485   .text:00000be4 Timebase_DownCounter_Clear_Period_Flag
C:\Users\farid\AppData\Local\Temp/ccljlm0J.s:2519   .text:00000c0e Timebase_DownCounter_Reset
C:\Users\farid\AppData\Local\Temp/ccljlm0J.s:2579   .text:00000c48 Timebase_DownCounter_Clear_All_Flags
C:\Users\farid\AppData\Local\Temp/ccljlm0J.s:2643   .text:00000c82 Timebase_DownCounter_Start
C:\Users\farid\AppData\Local\Temp/ccljlm0J.s:2691   .text:00000cb8 Timebase_DownCounter_Stop
C:\Users\farid\AppData\Local\Temp/ccljlm0J.s:2739   .text:00000cee Timebase_DownCounter_Set_Securely
C:\Users\farid\AppData\Local\Temp/ccljlm0J.s:2828   .text:00000d4e Timebase_DownCounter_Set_Forcefully
C:\Users\farid\AppData\Local\Temp/ccljlm0J.s:2899   .text:00000d96 Timebase_DownCounter_Update
C:\Users\farid\AppData\Local\Temp/ccljlm0J.s:3039   .text:00000e30 Timebase_DownCounter_Expired
C:\Users\farid\AppData\Local\Temp/ccljlm0J.s:3079   .text:00000e64 Timebase_DownCounter_Expired_Event
C:\Users\farid\AppData\Local\Temp/ccljlm0J.s:3161   .text:00000eae Timebase_DownCounter_Set_Period_Value_Securely
C:\Users\farid\AppData\Local\Temp/ccljlm0J.s:3223   .text:00000ef6 Timebase_DownCounter_Get_Remaining_Period_Value
C:\Users\farid\AppData\Local\Temp/ccljlm0J.s:3281   .text:00000f42 Timebase_DownCounter_Period_Value_Expired
C:\Users\farid\AppData\Local\Temp/ccljlm0J.s:3373   .text:00000fbe Timebase_DownCounter_Period_Value_Expired_Event
C:\Users\farid\AppData\Local\Temp/ccljlm0J.s:3425   .text:00000ffe Timebase_DownCounter_Update_All
C:\Users\farid\AppData\Local\Temp/ccljlm0J.s:3442   .text:00001006 Timebase_DownCounter_Reset_All
C:\Users\farid\AppData\Local\Temp/ccljlm0J.s:3493   .text:00001026 Timebase_Reset
C:\Users\farid\AppData\Local\Temp/ccljlm0J.s:3509   .text:00001030 Timebase_Init
C:\Users\farid\AppData\Local\Temp/ccljlm0J.s:3536   .text:0000104a Timebase_Main_Loop_Executables
C:\Users\farid\AppData\Local\Temp/ccljlm0J.s:3552   .text:00001054 Timebase_ISR_Executables
C:\Users\farid\AppData\Local\Temp/ccljlm0J.s:3624   .text:000010be __vector_14

UNDEFINED SYMBOLS
__udivmodsi4
__do_clear_bss
