   1               		.file	"timebase.c"
   2               	__SREG__ = 0x3f
   3               	__SP_H__ = 0x3e
   4               	__SP_L__ = 0x3d
   5               	__CCP__  = 0x34
   6               	__tmp_reg__ = 0
   7               	__zero_reg__ = 1
  15               	.Ltext0:
  16               	.global	Timebase_Struct_Init
  18               	Timebase_Struct_Init:
  19               	.LFB6:
  20               	.LM1:
  21               	/* prologue: function */
  22               	/* frame size = 0 */
  23               	.LM2:
  24 0000 80E0      		ldi r24,lo8(Timebase_type)
  25 0002 90E0      		ldi r25,hi8(Timebase_type)
  26 0004 9093 0000 		sts (Timebase)+1,r25
  27 0008 8093 0000 		sts Timebase,r24
  28               	.LM3:
  29 000c 1092 0000 		sts Timebase_type,__zero_reg__
  30               	.LM4:
  31 0010 8091 0000 		lds r24,Timebase_type
  32 0014 8460      		ori r24,lo8(4)
  33 0016 8093 0000 		sts Timebase_type,r24
  34               	.LM5:
  35 001a 8091 0000 		lds r24,Timebase_type
  36 001e 8770      		andi r24,lo8(7)
  37 0020 8093 0000 		sts Timebase_type,r24
  38               	.LM6:
  39 0024 81E0      		ldi r24,lo8(1)
  40 0026 90E0      		ldi r25,hi8(1)
  41 0028 9093 0000 		sts (Timebase_type+1)+1,r25
  42 002c 8093 0000 		sts Timebase_type+1,r24
  43               	.LM7:
  44 0030 1092 0000 		sts Timebase_type+3,__zero_reg__
  45               	.LM8:
  46 0034 1092 0000 		sts (Timebase_type+8)+1,__zero_reg__
  47 0038 1092 0000 		sts Timebase_type+8,__zero_reg__
  48               	.LM9:
  49 003c 1092 0000 		sts Timebase_type+10,__zero_reg__
  50 0040 1092 0000 		sts (Timebase_type+10)+1,__zero_reg__
  51 0044 1092 0000 		sts (Timebase_type+10)+2,__zero_reg__
  52 0048 1092 0000 		sts (Timebase_type+10)+3,__zero_reg__
  53               	.LM10:
  54 004c 1092 0000 		sts Timebase_type+4,__zero_reg__
  55 0050 1092 0000 		sts (Timebase_type+4)+1,__zero_reg__
  56 0054 1092 0000 		sts (Timebase_type+4)+2,__zero_reg__
  57 0058 1092 0000 		sts (Timebase_type+4)+3,__zero_reg__
  58               	.LM11:
  59 005c 1092 0000 		sts Timebase_type+14,__zero_reg__
  60 0060 1092 0000 		sts (Timebase_type+14)+1,__zero_reg__
  61 0064 1092 0000 		sts (Timebase_type+14)+2,__zero_reg__
  62 0068 1092 0000 		sts (Timebase_type+14)+3,__zero_reg__
  63               	.LM12:
  64 006c 1092 0000 		sts Timebase_type+18,__zero_reg__
  65 0070 1092 0000 		sts (Timebase_type+18)+1,__zero_reg__
  66 0074 1092 0000 		sts (Timebase_type+18)+2,__zero_reg__
  67 0078 1092 0000 		sts (Timebase_type+18)+3,__zero_reg__
  68               	.LM13:
  69 007c 1092 0000 		sts Timebase_type+22,__zero_reg__
  70               	.LM14:
  71 0080 1092 0000 		sts Timebase_type+23,__zero_reg__
  72               	.LBB420:
  73               	.LM15:
  74 0084 1092 0000 		sts Timebase_type+24,__zero_reg__
  75               	.LM16:
  76 0088 1092 0000 		sts Timebase_type+25,__zero_reg__
  77 008c 1092 0000 		sts (Timebase_type+25)+1,__zero_reg__
  78 0090 1092 0000 		sts (Timebase_type+25)+2,__zero_reg__
  79 0094 1092 0000 		sts (Timebase_type+25)+3,__zero_reg__
  80               	.LM17:
  81 0098 1092 0000 		sts Timebase_type+29,__zero_reg__
  82 009c 1092 0000 		sts (Timebase_type+29)+1,__zero_reg__
  83 00a0 1092 0000 		sts (Timebase_type+29)+2,__zero_reg__
  84 00a4 1092 0000 		sts (Timebase_type+29)+3,__zero_reg__
  85               	.LM18:
  86 00a8 1092 0000 		sts Timebase_type+33,__zero_reg__
  87 00ac 1092 0000 		sts (Timebase_type+33)+1,__zero_reg__
  88 00b0 1092 0000 		sts (Timebase_type+33)+2,__zero_reg__
  89 00b4 1092 0000 		sts (Timebase_type+33)+3,__zero_reg__
  90               	.LM19:
  91 00b8 1092 0000 		sts Timebase_type+37,__zero_reg__
  92 00bc 1092 0000 		sts (Timebase_type+37)+1,__zero_reg__
  93 00c0 1092 0000 		sts (Timebase_type+37)+2,__zero_reg__
  94 00c4 1092 0000 		sts (Timebase_type+37)+3,__zero_reg__
  95               	.LM20:
  96 00c8 1092 0000 		sts Timebase_type+41,__zero_reg__
  97 00cc 1092 0000 		sts (Timebase_type+41)+1,__zero_reg__
  98 00d0 1092 0000 		sts (Timebase_type+41)+2,__zero_reg__
  99 00d4 1092 0000 		sts (Timebase_type+41)+3,__zero_reg__
 100               	.LBE420:
 101               	.LBB421:
 102               	.LM21:
 103 00d8 1092 0000 		sts Timebase_type+45,__zero_reg__
 104               	.LM22:
 105 00dc 1092 0000 		sts Timebase_type+46,__zero_reg__
 106 00e0 1092 0000 		sts (Timebase_type+46)+1,__zero_reg__
 107 00e4 1092 0000 		sts (Timebase_type+46)+2,__zero_reg__
 108 00e8 1092 0000 		sts (Timebase_type+46)+3,__zero_reg__
 109               	.LM23:
 110 00ec 1092 0000 		sts Timebase_type+50,__zero_reg__
 111 00f0 1092 0000 		sts (Timebase_type+50)+1,__zero_reg__
 112 00f4 1092 0000 		sts (Timebase_type+50)+2,__zero_reg__
 113 00f8 1092 0000 		sts (Timebase_type+50)+3,__zero_reg__
 114               	.LM24:
 115 00fc 1092 0000 		sts Timebase_type+54,__zero_reg__
 116 0100 1092 0000 		sts (Timebase_type+54)+1,__zero_reg__
 117 0104 1092 0000 		sts (Timebase_type+54)+2,__zero_reg__
 118 0108 1092 0000 		sts (Timebase_type+54)+3,__zero_reg__
 119               	.LM25:
 120 010c 1092 0000 		sts Timebase_type+58,__zero_reg__
 121 0110 1092 0000 		sts (Timebase_type+58)+1,__zero_reg__
 122 0114 1092 0000 		sts (Timebase_type+58)+2,__zero_reg__
 123 0118 1092 0000 		sts (Timebase_type+58)+3,__zero_reg__
 124               	.LM26:
 125 011c 1092 0000 		sts Timebase_type+62,__zero_reg__
 126 0120 1092 0000 		sts (Timebase_type+62)+1,__zero_reg__
 127 0124 1092 0000 		sts (Timebase_type+62)+2,__zero_reg__
 128 0128 1092 0000 		sts (Timebase_type+62)+3,__zero_reg__
 129               	.LM27:
 130 012c 1092 0000 		sts Timebase_type+66,__zero_reg__
 131 0130 1092 0000 		sts (Timebase_type+66)+1,__zero_reg__
 132 0134 1092 0000 		sts (Timebase_type+66)+2,__zero_reg__
 133 0138 1092 0000 		sts (Timebase_type+66)+3,__zero_reg__
 134               	.LBE421:
 135               	.LBB422:
 136               	.LM28:
 137 013c 1092 0000 		sts Timebase_type+70,__zero_reg__
 138               	.LM29:
 139 0140 1092 0000 		sts Timebase_type+71,__zero_reg__
 140 0144 1092 0000 		sts (Timebase_type+71)+1,__zero_reg__
 141 0148 1092 0000 		sts (Timebase_type+71)+2,__zero_reg__
 142 014c 1092 0000 		sts (Timebase_type+71)+3,__zero_reg__
 143               	.LM30:
 144 0150 1092 0000 		sts Timebase_type+75,__zero_reg__
 145 0154 1092 0000 		sts (Timebase_type+75)+1,__zero_reg__
 146 0158 1092 0000 		sts (Timebase_type+75)+2,__zero_reg__
 147 015c 1092 0000 		sts (Timebase_type+75)+3,__zero_reg__
 148               	.LM31:
 149 0160 1092 0000 		sts Timebase_type+79,__zero_reg__
 150 0164 1092 0000 		sts (Timebase_type+79)+1,__zero_reg__
 151 0168 1092 0000 		sts (Timebase_type+79)+2,__zero_reg__
 152 016c 1092 0000 		sts (Timebase_type+79)+3,__zero_reg__
 153               	.LBE422:
 154               	.LBB423:
 155               	.LM32:
 156 0170 1092 0000 		sts Timebase_type+83,__zero_reg__
 157               	.LM33:
 158 0174 1092 0000 		sts Timebase_type+84,__zero_reg__
 159 0178 1092 0000 		sts (Timebase_type+84)+1,__zero_reg__
 160 017c 1092 0000 		sts (Timebase_type+84)+2,__zero_reg__
 161 0180 1092 0000 		sts (Timebase_type+84)+3,__zero_reg__
 162               	.LM34:
 163 0184 1092 0000 		sts Timebase_type+88,__zero_reg__
 164 0188 1092 0000 		sts (Timebase_type+88)+1,__zero_reg__
 165 018c 1092 0000 		sts (Timebase_type+88)+2,__zero_reg__
 166 0190 1092 0000 		sts (Timebase_type+88)+3,__zero_reg__
 167               	.LM35:
 168 0194 1092 0000 		sts Timebase_type+92,__zero_reg__
 169 0198 1092 0000 		sts (Timebase_type+92)+1,__zero_reg__
 170 019c 1092 0000 		sts (Timebase_type+92)+2,__zero_reg__
 171 01a0 1092 0000 		sts (Timebase_type+92)+3,__zero_reg__
 172               	.LM36:
 173 01a4 1092 0000 		sts Timebase_type+96,__zero_reg__
 174 01a8 1092 0000 		sts (Timebase_type+96)+1,__zero_reg__
 175 01ac 1092 0000 		sts (Timebase_type+96)+2,__zero_reg__
 176 01b0 1092 0000 		sts (Timebase_type+96)+3,__zero_reg__
 177               	/* epilogue start */
 178               	.LBE423:
 179               	.LM37:
 180 01b4 0895      		ret
 181               	.LFE6:
 183               	.global	Timebase_Timer_Config
 185               	Timebase_Timer_Config:
 186               	.LFB7:
 187               	.LM38:
 188               	.LVL0:
 189 01b6 7F92      		push r7
 190 01b8 8F92      		push r8
 191 01ba 9F92      		push r9
 192 01bc AF92      		push r10
 193 01be BF92      		push r11
 194 01c0 CF92      		push r12
 195 01c2 DF92      		push r13
 196 01c4 EF92      		push r14
 197 01c6 FF92      		push r15
 198 01c8 0F93      		push r16
 199 01ca 1F93      		push r17
 200 01cc DF93      		push r29
 201 01ce CF93      		push r28
 202 01d0 CDB7      		in r28,__SP_L__
 203 01d2 DEB7      		in r29,__SP_H__
 204 01d4 2A97      		sbiw r28,10
 205 01d6 0FB6      		in __tmp_reg__,__SREG__
 206 01d8 F894      		cli
 207 01da DEBF      		out __SP_H__,r29
 208 01dc 0FBE      		out __SREG__,__tmp_reg__
 209 01de CDBF      		out __SP_L__,r28
 210               	/* prologue: function */
 211               	/* frame size = 10 */
 212 01e0 8C01      		movw r16,r24
 213               	.LM39:
 214 01e2 C090 0000 		lds r12,Timebase
 215 01e6 D090 0000 		lds r13,(Timebase)+1
 216 01ea F601      		movw r30,r12
 217 01ec 8081      		ld r24,Z
 218               	.LVL1:
 219 01ee 80FF      		sbrs r24,0
 220 01f0 00C0      		rjmp .L4
 221               	.LBB424:
 222               	.LM40:
 223 01f2 0130      		cpi r16,1
 224 01f4 1105      		cpc r17,__zero_reg__
 225 01f6 01F4      		brne .L5
 226 01f8 96E0      		ldi r25,lo8(6)
 227               	.LVL2:
 228 01fa 00C0      		rjmp .L6
 229               	.LVL3:
 230               	.L5:
 231               	.LM41:
 232 01fc 0230      		cpi r16,2
 233 01fe 1105      		cpc r17,__zero_reg__
 234 0200 01F4      		brne .L7
 235 0202 95E0      		ldi r25,lo8(5)
 236               	.LVL4:
 237 0204 00C0      		rjmp .L6
 238               	.LVL5:
 239               	.L7:
 240               	.LM42:
 241 0206 0430      		cpi r16,4
 242 0208 1105      		cpc r17,__zero_reg__
 243 020a 01F4      		brne .L8
 244 020c 94E0      		ldi r25,lo8(4)
 245               	.LVL6:
 246 020e 00C0      		rjmp .L6
 247               	.LVL7:
 248               	.L8:
 249               	.LM43:
 250 0210 0830      		cpi r16,8
 251 0212 1105      		cpc r17,__zero_reg__
 252 0214 01F4      		brne .L9
 253 0216 93E0      		ldi r25,lo8(3)
 254               	.LVL8:
 255 0218 00C0      		rjmp .L6
 256               	.LVL9:
 257               	.L9:
 258               	.LM44:
 259 021a 0031      		cpi r16,16
 260 021c 1105      		cpc r17,__zero_reg__
 261 021e 01F4      		brne .L10
 262 0220 92E0      		ldi r25,lo8(2)
 263               	.LVL10:
 264 0222 00C0      		rjmp .L6
 265               	.LVL11:
 266               	.L10:
 267 0224 90E0      		ldi r25,lo8(0)
 268               	.LVL12:
 269 0226 0032      		cpi r16,32
 270 0228 1105      		cpc r17,__zero_reg__
 271 022a 01F4      		brne .L6
 272 022c 91E0      		ldi r25,lo8(1)
 273               	.L6:
 274               	.LM45:
 275               	/* #APP */
 276               	 ;  245 "timebase.c" 1
 277 022e F894      		cli
 278               	 ;  0 "" 2
 279               	.LM46:
 280               	/* #NOAPP */
 281 0230 84B7      		in r24,84-32
 282 0232 877F      		andi r24,lo8(-9)
 283 0234 84BF      		out 84-32,r24
 284               	.LM47:
 285 0236 8091 6000 		lds r24,96
 286 023a 8068      		ori r24,lo8(-128)
 287 023c 8093 6000 		sts 96,r24
 288               	.LM48:
 289 0240 8091 6000 		lds r24,96
 290 0244 8861      		ori r24,lo8(24)
 291 0246 8093 6000 		sts 96,r24
 292               	.LM49:
 293 024a 9064      		ori r25,lo8(64)
 294 024c 9093 6000 		sts 96,r25
 295               	.LM50:
 296               	/* #APP */
 297               	 ;  250 "timebase.c" 1
 298 0250 7894      		sei
 299               	 ;  0 "" 2
 300               	/* #NOAPP */
 301 0252 00C0      		rjmp .L12
 302               	.LVL13:
 303               	.L4:
 304               	.LBE424:
 305               	.LM51:
 306 0254 81FD      		sbrc r24,1
 307 0256 00C0      		rjmp .L12
 308               	.LM52:
 309 0258 82FF      		sbrs r24,2
 310 025a 00C0      		rjmp .L12
 311               	.LBB425:
 312               	.LM53:
 313 025c DE01      		movw r26,r28
 314 025e 1196      		adiw r26,1
 315 0260 E0E0      		ldi r30,lo8(C.2.1370)
 316 0262 F0E0      		ldi r31,hi8(C.2.1370)
 317 0264 8AE0      		ldi r24,lo8(10)
 318               	.L13:
 319 0266 0190      		ld r0,Z+
 320 0268 0D92      		st X+,r0
 321 026a 8150      		subi r24,lo8(-(-1))
 322 026c 01F4      		brne .L13
 323               	.LM54:
 324 026e 9801      		movw r18,r16
 325 0270 40E0      		ldi r20,lo8(0)
 326 0272 50E0      		ldi r21,hi8(0)
 327               	.LVL14:
 328 0274 60E0      		ldi r22,lo8(8000000)
 329 0276 72E1      		ldi r23,hi8(8000000)
 330 0278 8AE7      		ldi r24,hlo8(8000000)
 331 027a 90E0      		ldi r25,hhi8(8000000)
 332 027c 0E94 0000 		call __divmodsi4
 333 0280 722E      		mov r7,r18
 334 0282 832E      		mov r8,r19
 335 0284 942E      		mov r9,r20
 336               	.LVL15:
 337 0286 E52E      		mov r14,r21
 338 0288 5E01      		movw r10,r28
 339 028a 0894      		sec
 340 028c A11C      		adc r10,__zero_reg__
 341 028e B11C      		adc r11,__zero_reg__
 342 0290 C901      		movw r24,r18
 343 0292 DA01      		movw r26,r20
 344 0294 9C01      		movw r18,r24
 345 0296 AD01      		movw r20,r26
 346               	.LVL16:
 347 0298 FF24      		clr r15
 348               	.LVL17:
 349 029a 00C0      		rjmp .L14
 350               	.LVL18:
 351               	.L16:
 352               	.LM55:
 353 029c F501      		movw r30,r10
 354 029e 2191      		ld r18,Z+
 355 02a0 3191      		ld r19,Z+
 356               	.LVL19:
 357 02a2 5F01      		movw r10,r30
 358 02a4 40E0      		ldi r20,lo8(0)
 359 02a6 50E0      		ldi r21,hi8(0)
 360 02a8 672D      		mov r22,r7
 361 02aa 782D      		mov r23,r8
 362 02ac 892D      		mov r24,r9
 363               	.LVL20:
 364 02ae 9E2D      		mov r25,r14
 365 02b0 0E94 0000 		call __divmodsi4
 366 02b4 C901      		movw r24,r18
 367 02b6 DA01      		movw r26,r20
 368 02b8 9C01      		movw r18,r24
 369 02ba AD01      		movw r20,r26
 370               	.LVL21:
 371               	.LM56:
 372 02bc F394      		inc r15
 373               	.LM57:
 374 02be F5E0      		ldi r31,lo8(5)
 375 02c0 FF16      		cp r15,r31
 376 02c2 01F0      		breq .L15
 377               	.LVL22:
 378               	.L14:
 379               	.LM58:
 380 02c4 2F3F      		cpi r18,lo8(255)
 381 02c6 3105      		cpc r19,__zero_reg__
 382 02c8 4105      		cpc r20,__zero_reg__
 383 02ca 5105      		cpc r21,__zero_reg__
 384 02cc 01F0      		breq .+2
 385 02ce 04F4      		brge .L16
 386               	.L15:
 387               	.LM59:
 388 02d0 8F2D      		mov r24,r15
 389 02d2 8150      		subi r24,lo8(-(-1))
 390               	.LVL23:
 391               	.LM60:
 392 02d4 14BC      		out 68-32,__zero_reg__
 393               	.LM61:
 394 02d6 15BC      		out 69-32,__zero_reg__
 395               	.LM62:
 396 02d8 1092 6E00 		sts 110,__zero_reg__
 397               	.LM63:
 398 02dc 15BA      		out 53-32,__zero_reg__
 399               	.LM64:
 400 02de 17BC      		out 71-32,__zero_reg__
 401               	.LM65:
 402 02e0 18BC      		out 72-32,__zero_reg__
 403               	.LM66:
 404 02e2 16BC      		out 70-32,__zero_reg__
 405               	.LM67:
 406 02e4 17BC      		out 71-32,__zero_reg__
 407               	.LM68:
 408 02e6 8823      		tst r24
 409 02e8 01F4      		brne .L17
 410               	.LM69:
 411 02ea 81E0      		ldi r24,lo8(1)
 412               	.LVL24:
 413 02ec 00C0      		rjmp .L24
 414               	.LVL25:
 415               	.L17:
 416               	.LM70:
 417 02ee 8130      		cpi r24,lo8(1)
 418 02f0 01F4      		brne .L19
 419               	.LM71:
 420 02f2 82E0      		ldi r24,lo8(2)
 421               	.LVL26:
 422 02f4 00C0      		rjmp .L24
 423               	.LVL27:
 424               	.L19:
 425               	.LM72:
 426 02f6 8230      		cpi r24,lo8(2)
 427 02f8 01F4      		brne .L20
 428               	.LM73:
 429 02fa 83E0      		ldi r24,lo8(3)
 430               	.LVL28:
 431 02fc 00C0      		rjmp .L24
 432               	.LVL29:
 433               	.L20:
 434               	.LM74:
 435 02fe 8330      		cpi r24,lo8(3)
 436 0300 01F4      		brne .L21
 437               	.LM75:
 438 0302 84E0      		ldi r24,lo8(4)
 439               	.LVL30:
 440 0304 00C0      		rjmp .L24
 441               	.LVL31:
 442               	.L21:
 443               	.LM76:
 444 0306 8430      		cpi r24,lo8(4)
 445 0308 01F4      		brne .L18
 446               	.LM77:
 447 030a 85E0      		ldi r24,lo8(5)
 448               	.LVL32:
 449               	.L24:
 450 030c 85BD      		out 69-32,r24
 451               	.LVL33:
 452               	.L18:
 453               	.LM78:
 454 030e 822F      		mov r24,r18
 455               	.LVL34:
 456 0310 8095      		com r24
 457 0312 F601      		movw r30,r12
 458 0314 8383      		std Z+3,r24
 459               	.LM79:
 460 0316 8381      		ldd r24,Z+3
 461 0318 86BD      		out 70-32,r24
 462               	.LM80:
 463 031a 81E0      		ldi r24,lo8(1)
 464 031c 8093 6E00 		sts 110,r24
 465               	.LM81:
 466               	/* #APP */
 467               	 ;  298 "timebase.c" 1
 468 0320 7894      		sei
 469               	 ;  0 "" 2
 470               	.LVL35:
 471               	/* #NOAPP */
 472               	.L12:
 473               	.LBE425:
 474               	.LM82:
 475 0322 F601      		movw r30,r12
 476 0324 1283      		std Z+2,r17
 477 0326 0183      		std Z+1,r16
 478               	/* epilogue start */
 479               	.LM83:
 480 0328 2A96      		adiw r28,10
 481 032a 0FB6      		in __tmp_reg__,__SREG__
 482 032c F894      		cli
 483 032e DEBF      		out __SP_H__,r29
 484 0330 0FBE      		out __SREG__,__tmp_reg__
 485 0332 CDBF      		out __SP_L__,r28
 486 0334 CF91      		pop r28
 487 0336 DF91      		pop r29
 488 0338 1F91      		pop r17
 489 033a 0F91      		pop r16
 490               	.LVL36:
 491 033c FF90      		pop r15
 492 033e EF90      		pop r14
 493 0340 DF90      		pop r13
 494 0342 CF90      		pop r12
 495 0344 BF90      		pop r11
 496 0346 AF90      		pop r10
 497 0348 9F90      		pop r9
 498 034a 8F90      		pop r8
 499 034c 7F90      		pop r7
 500 034e 0895      		ret
 501               	.LFE7:
 503               	.global	Timebase_Token_Executing
 505               	Timebase_Token_Executing:
 506               	.LFB8:
 507               	.LM84:
 508               	/* prologue: function */
 509               	/* frame size = 0 */
 510               	.LM85:
 511 0350 E091 0000 		lds r30,Timebase
 512 0354 F091 0000 		lds r31,(Timebase)+1
 513 0358 8789      		ldd r24,Z+23
 514               	/* epilogue start */
 515               	.LM86:
 516 035a 0895      		ret
 517               	.LFE8:
 519               	.global	Timebase_Token_Add
 521               	Timebase_Token_Add:
 522               	.LFB9:
 523               	.LM87:
 524               	/* prologue: function */
 525               	/* frame size = 0 */
 526               	.LBB426:
 527               	.LBB427:
 528               	.LM88:
 529 035c E091 0000 		lds r30,Timebase
 530 0360 F091 0000 		lds r31,(Timebase)+1
 531 0364 8789      		ldd r24,Z+23
 532               	.LBE427:
 533               	.LBE426:
 534               	.LM89:
 535 0366 8F33      		cpi r24,lo8(63)
 536 0368 00F4      		brsh .L29
 537               	.LM90:
 538 036a 8789      		ldd r24,Z+23
 539 036c 8F5F      		subi r24,lo8(-(1))
 540 036e 878B      		std Z+23,r24
 541               	.L29:
 542 0370 0895      		ret
 543               	.LFE9:
 545               	.global	Timebase_Token_Remove
 547               	Timebase_Token_Remove:
 548               	.LFB10:
 549               	.LM91:
 550               	/* prologue: function */
 551               	/* frame size = 0 */
 552               	.LBB428:
 553               	.LBB429:
 554               	.LM92:
 555 0372 E091 0000 		lds r30,Timebase
 556 0376 F091 0000 		lds r31,(Timebase)+1
 557 037a 8789      		ldd r24,Z+23
 558               	.LBE429:
 559               	.LBE428:
 560               	.LM93:
 561 037c 8823      		tst r24
 562 037e 01F0      		breq .L32
 563               	.LM94:
 564 0380 8789      		ldd r24,Z+23
 565 0382 8150      		subi r24,lo8(-(-1))
 566 0384 878B      		std Z+23,r24
 567               	.L32:
 568 0386 0895      		ret
 569               	.LFE10:
 571               	.global	Timebase_Token_Remove_All
 573               	Timebase_Token_Remove_All:
 574               	.LFB11:
 575               	.LM95:
 576               	/* prologue: function */
 577               	/* frame size = 0 */
 578               	.LM96:
 579 0388 E091 0000 		lds r30,Timebase
 580 038c F091 0000 		lds r31,(Timebase)+1
 581 0390 178A      		std Z+23,__zero_reg__
 582               	/* epilogue start */
 583               	.LM97:
 584 0392 0895      		ret
 585               	.LFE11:
 587               	.global	Timebase_Timer_Get_SubSeconds
 589               	Timebase_Timer_Get_SubSeconds:
 590               	.LFB12:
 591               	.LM98:
 592               	/* prologue: function */
 593               	/* frame size = 0 */
 594               	.LM99:
 595 0394 E091 0000 		lds r30,Timebase
 596 0398 F091 0000 		lds r31,(Timebase)+1
 597 039c 2085      		ldd r18,Z+8
 598 039e 3185      		ldd r19,Z+9
 599               	.LM100:
 600 03a0 C901      		movw r24,r18
 601               	/* epilogue start */
 602 03a2 0895      		ret
 603               	.LFE12:
 605               	.global	Timebase_Timer_Get_Seconds
 607               	Timebase_Timer_Get_Seconds:
 608               	.LFB13:
 609               	.LM101:
 610               	/* prologue: function */
 611               	/* frame size = 0 */
 612               	.LM102:
 613 03a4 E091 0000 		lds r30,Timebase
 614 03a8 F091 0000 		lds r31,(Timebase)+1
 615 03ac 2285      		ldd r18,Z+10
 616 03ae 3385      		ldd r19,Z+11
 617 03b0 4485      		ldd r20,Z+12
 618 03b2 5585      		ldd r21,Z+13
 619               	.LM103:
 620 03b4 B901      		movw r22,r18
 621 03b6 CA01      		movw r24,r20
 622               	/* epilogue start */
 623 03b8 0895      		ret
 624               	.LFE13:
 626               	.global	Timebase_Timer_Set_SubSeconds
 628               	Timebase_Timer_Set_SubSeconds:
 629               	.LFB14:
 630               	.LM104:
 631               	.LVL37:
 632               	/* prologue: function */
 633               	/* frame size = 0 */
 634               	.LM105:
 635 03ba E091 0000 		lds r30,Timebase
 636 03be F091 0000 		lds r31,(Timebase)+1
 637 03c2 9187      		std Z+9,r25
 638 03c4 8087      		std Z+8,r24
 639               	/* epilogue start */
 640               	.LM106:
 641 03c6 0895      		ret
 642               	.LFE14:
 644               	.global	Timebase_Timer_Set_Seconds
 646               	Timebase_Timer_Set_Seconds:
 647               	.LFB15:
 648               	.LM107:
 649               	.LVL38:
 650               	/* prologue: function */
 651               	/* frame size = 0 */
 652               	.LM108:
 653 03c8 E091 0000 		lds r30,Timebase
 654 03cc F091 0000 		lds r31,(Timebase)+1
 655 03d0 6287      		std Z+10,r22
 656 03d2 7387      		std Z+11,r23
 657 03d4 8487      		std Z+12,r24
 658 03d6 9587      		std Z+13,r25
 659               	/* epilogue start */
 660               	.LM109:
 661 03d8 0895      		ret
 662               	.LFE15:
 664               	.global	Timebase_Timer_Delay_SubSeconds
 666               	Timebase_Timer_Delay_SubSeconds:
 667               	.LFB16:
 668               	.LM110:
 669               	.LVL39:
 670               	/* prologue: function */
 671               	/* frame size = 0 */
 672 03da 9C01      		movw r18,r24
 673               	.LBB430:
 674               	.LBB431:
 675               	.LBB432:
 676               	.LBB433:
 677               	.LM111:
 678 03dc E091 0000 		lds r30,Timebase
 679 03e0 F091 0000 		lds r31,(Timebase)+1
 680 03e4 8789      		ldd r24,Z+23
 681               	.LVL40:
 682               	.LBE433:
 683               	.LBE432:
 684               	.LM112:
 685 03e6 8F33      		cpi r24,lo8(63)
 686 03e8 00F4      		brsh .L44
 687               	.LM113:
 688 03ea 8789      		ldd r24,Z+23
 689 03ec 8F5F      		subi r24,lo8(-(1))
 690 03ee 878B      		std Z+23,r24
 691               	.L44:
 692               	.LBE431:
 693               	.LBE430:
 694               	.LBB434:
 695               	.LBB435:
 696               	.LM114:
 697 03f0 8085      		ldd r24,Z+8
 698 03f2 9185      		ldd r25,Z+9
 699               	.LBE435:
 700               	.LBE434:
 701               	.LM115:
 702 03f4 A0E0      		ldi r26,lo8(0)
 703 03f6 B0E0      		ldi r27,hi8(0)
 704               	.LVL41:
 705               	.LM116:
 706 03f8 40E0      		ldi r20,lo8(0)
 707 03fa 50E0      		ldi r21,hi8(0)
 708               	.LVL42:
 709 03fc 280F      		add r18,r24
 710 03fe 391F      		adc r19,r25
 711 0400 4A1F      		adc r20,r26
 712 0402 5B1F      		adc r21,r27
 713               	.LVL43:
 714               	.L45:
 715               	.LBB436:
 716               	.LBB437:
 717               	.LM117:
 718 0404 8085      		ldd r24,Z+8
 719 0406 9185      		ldd r25,Z+9
 720               	.LBE437:
 721               	.LBE436:
 722               	.LM118:
 723 0408 A0E0      		ldi r26,lo8(0)
 724 040a B0E0      		ldi r27,hi8(0)
 725 040c 8217      		cp r24,r18
 726 040e 9307      		cpc r25,r19
 727 0410 A407      		cpc r26,r20
 728 0412 B507      		cpc r27,r21
 729 0414 04F0      		brlt .L45
 730               	.LBB438:
 731               	.LBB439:
 732               	.LBB440:
 733               	.LBB441:
 734               	.LM119:
 735 0416 8789      		ldd r24,Z+23
 736               	.LBE441:
 737               	.LBE440:
 738               	.LM120:
 739 0418 8823      		tst r24
 740 041a 01F0      		breq .L47
 741               	.LM121:
 742 041c 8789      		ldd r24,Z+23
 743 041e 8150      		subi r24,lo8(-(-1))
 744 0420 878B      		std Z+23,r24
 745               	.L47:
 746 0422 0895      		ret
 747               	.LBE439:
 748               	.LBE438:
 749               	.LFE16:
 751               	.global	Timebase_Timer_Await_SubSeconds
 753               	Timebase_Timer_Await_SubSeconds:
 754               	.LFB17:
 755               	.LM122:
 756               	.LVL44:
 757               	/* prologue: function */
 758               	/* frame size = 0 */
 759 0424 BC01      		movw r22,r24
 760               	.LBB442:
 761               	.LBB443:
 762               	.LM123:
 763 0426 E091 0000 		lds r30,Timebase
 764 042a F091 0000 		lds r31,(Timebase)+1
 765               	.LVL45:
 766               	.L50:
 767 042e 8085      		ldd r24,Z+8
 768 0430 9185      		ldd r25,Z+9
 769               	.LBE443:
 770               	.LBE442:
 771               	.LM124:
 772 0432 2481      		ldd r18,Z+4
 773 0434 3581      		ldd r19,Z+5
 774 0436 4681      		ldd r20,Z+6
 775 0438 5781      		ldd r21,Z+7
 776 043a A0E0      		ldi r26,lo8(0)
 777 043c B0E0      		ldi r27,hi8(0)
 778 043e 8217      		cp r24,r18
 779 0440 9307      		cpc r25,r19
 780 0442 A407      		cpc r26,r20
 781 0444 B507      		cpc r27,r21
 782 0446 01F4      		brne .L50
 783               	.LBB444:
 784               	.LBB445:
 785               	.LM125:
 786 0448 8085      		ldd r24,Z+8
 787 044a 9185      		ldd r25,Z+9
 788               	.LBE445:
 789               	.LBE444:
 790               	.LM126:
 791 044c 860F      		add r24,r22
 792 044e 971F      		adc r25,r23
 793 0450 A0E0      		ldi r26,lo8(0)
 794 0452 B0E0      		ldi r27,hi8(0)
 795 0454 8483      		std Z+4,r24
 796 0456 9583      		std Z+5,r25
 797 0458 A683      		std Z+6,r26
 798 045a B783      		std Z+7,r27
 799               	.LM127:
 800 045c 2481      		ldd r18,Z+4
 801 045e 3581      		ldd r19,Z+5
 802 0460 4681      		ldd r20,Z+6
 803 0462 5781      		ldd r21,Z+7
 804 0464 8181      		ldd r24,Z+1
 805 0466 9281      		ldd r25,Z+2
 806 0468 A0E0      		ldi r26,lo8(0)
 807 046a B0E0      		ldi r27,hi8(0)
 808 046c 2817      		cp r18,r24
 809 046e 3907      		cpc r19,r25
 810 0470 4A07      		cpc r20,r26
 811 0472 5B07      		cpc r21,r27
 812 0474 04F0      		brlt .L52
 813               	.LM128:
 814 0476 2481      		ldd r18,Z+4
 815 0478 3581      		ldd r19,Z+5
 816 047a 4681      		ldd r20,Z+6
 817 047c 5781      		ldd r21,Z+7
 818 047e 8181      		ldd r24,Z+1
 819 0480 9281      		ldd r25,Z+2
 820 0482 A0E0      		ldi r26,lo8(0)
 821 0484 B0E0      		ldi r27,hi8(0)
 822 0486 281B      		sub r18,r24
 823 0488 390B      		sbc r19,r25
 824 048a 4A0B      		sbc r20,r26
 825 048c 5B0B      		sbc r21,r27
 826 048e 2483      		std Z+4,r18
 827 0490 3583      		std Z+5,r19
 828 0492 4683      		std Z+6,r20
 829 0494 5783      		std Z+7,r21
 830               	.L52:
 831 0496 0895      		ret
 832               	.LFE17:
 834               	.global	Timebase_Timer_Delay_Seconds
 836               	Timebase_Timer_Delay_Seconds:
 837               	.LFB18:
 838               	.LM129:
 839               	.LVL46:
 840 0498 EF92      		push r14
 841 049a FF92      		push r15
 842 049c 0F93      		push r16
 843 049e 1F93      		push r17
 844               	/* prologue: function */
 845               	/* frame size = 0 */
 846               	.LBB446:
 847               	.LBB447:
 848               	.LM130:
 849 04a0 E091 0000 		lds r30,Timebase
 850 04a4 F091 0000 		lds r31,(Timebase)+1
 851 04a8 2285      		ldd r18,Z+10
 852 04aa 3385      		ldd r19,Z+11
 853 04ac 4485      		ldd r20,Z+12
 854 04ae 5585      		ldd r21,Z+13
 855               	.LBE447:
 856               	.LBE446:
 857               	.LM131:
 858 04b0 7C01      		movw r14,r24
 859               	.LVL47:
 860 04b2 00E0      		ldi r16,lo8(0)
 861 04b4 10E0      		ldi r17,hi8(0)
 862               	.LVL48:
 863 04b6 E20E      		add r14,r18
 864 04b8 F31E      		adc r15,r19
 865 04ba 041F      		adc r16,r20
 866 04bc 151F      		adc r17,r21
 867               	.LVL49:
 868               	.L55:
 869               	.LBB448:
 870               	.LBB449:
 871               	.LM132:
 872 04be 8285      		ldd r24,Z+10
 873 04c0 9385      		ldd r25,Z+11
 874 04c2 A485      		ldd r26,Z+12
 875 04c4 B585      		ldd r27,Z+13
 876               	.LVL50:
 877               	.LBE449:
 878               	.LBE448:
 879               	.LM133:
 880 04c6 8E15      		cp r24,r14
 881 04c8 9F05      		cpc r25,r15
 882 04ca A007      		cpc r26,r16
 883 04cc B107      		cpc r27,r17
 884 04ce 04F0      		brlt .L55
 885               	/* epilogue start */
 886               	.LM134:
 887 04d0 1F91      		pop r17
 888 04d2 0F91      		pop r16
 889               	.LVL51:
 890 04d4 FF90      		pop r15
 891 04d6 EF90      		pop r14
 892               	.LVL52:
 893 04d8 0895      		ret
 894               	.LFE18:
 896               	.global	Timebase_Window_Timer_Reset
 898               	Timebase_Window_Timer_Reset:
 899               	.LFB19:
 900               	.LM135:
 901               	/* prologue: function */
 902               	/* frame size = 0 */
 903               	.LM136:
 904 04da E091 0000 		lds r30,Timebase
 905 04de F091 0000 		lds r31,(Timebase)+1
 906 04e2 1686      		std Z+14,__zero_reg__
 907 04e4 1786      		std Z+15,__zero_reg__
 908 04e6 108A      		std Z+16,__zero_reg__
 909 04e8 118A      		std Z+17,__zero_reg__
 910               	.LM137:
 911 04ea 128A      		std Z+18,__zero_reg__
 912 04ec 138A      		std Z+19,__zero_reg__
 913 04ee 148A      		std Z+20,__zero_reg__
 914 04f0 158A      		std Z+21,__zero_reg__
 915               	.LM138:
 916 04f2 168A      		std Z+22,__zero_reg__
 917               	/* epilogue start */
 918               	.LM139:
 919 04f4 0895      		ret
 920               	.LFE19:
 922               	.global	Timebase_Window_Timer_Start
 924               	Timebase_Window_Timer_Start:
 925               	.LFB20:
 926               	.LM140:
 927               	/* prologue: function */
 928               	/* frame size = 0 */
 929               	.LM141:
 930 04f6 E091 0000 		lds r30,Timebase
 931 04fa F091 0000 		lds r31,(Timebase)+1
 932 04fe 8689      		ldd r24,Z+22
 933 0500 8823      		tst r24
 934 0502 01F4      		brne .L62
 935               	.LBB450:
 936               	.LBB451:
 937               	.LM142:
 938 0504 8285      		ldd r24,Z+10
 939 0506 9385      		ldd r25,Z+11
 940 0508 A485      		ldd r26,Z+12
 941 050a B585      		ldd r27,Z+13
 942               	.LBE451:
 943               	.LBE450:
 944               	.LM143:
 945 050c 8687      		std Z+14,r24
 946 050e 9787      		std Z+15,r25
 947 0510 A08B      		std Z+16,r26
 948 0512 B18B      		std Z+17,r27
 949               	.LBB452:
 950               	.LBB453:
 951               	.LM144:
 952 0514 8085      		ldd r24,Z+8
 953 0516 9185      		ldd r25,Z+9
 954               	.LBE453:
 955               	.LBE452:
 956               	.LM145:
 957 0518 A0E0      		ldi r26,lo8(0)
 958 051a B0E0      		ldi r27,hi8(0)
 959 051c 828B      		std Z+18,r24
 960 051e 938B      		std Z+19,r25
 961 0520 A48B      		std Z+20,r26
 962 0522 B58B      		std Z+21,r27
 963               	.LM146:
 964 0524 81E0      		ldi r24,lo8(1)
 965 0526 868B      		std Z+22,r24
 966               	.L62:
 967 0528 0895      		ret
 968               	.LFE20:
 970               	.global	Timebase_Window_Timer_Get_Interval
 972               	Timebase_Window_Timer_Get_Interval:
 973               	.LFB21:
 974               	.LM147:
 975 052a EF92      		push r14
 976 052c FF92      		push r15
 977 052e 0F93      		push r16
 978 0530 1F93      		push r17
 979 0532 CF93      		push r28
 980 0534 DF93      		push r29
 981               	/* prologue: function */
 982               	/* frame size = 0 */
 983               	.LM148:
 984 0536 C091 0000 		lds r28,Timebase
 985 053a D091 0000 		lds r29,(Timebase)+1
 986 053e 8E89      		ldd r24,Y+22
 987 0540 8130      		cpi r24,lo8(1)
 988 0542 01F0      		breq .L64
 989 0544 EE24      		clr r14
 990 0546 FF24      		clr r15
 991 0548 8701      		movw r16,r14
 992               	.LVL53:
 993 054a 00C0      		rjmp .L65
 994               	.LVL54:
 995               	.L64:
 996               	.LBB454:
 997               	.LBB455:
 998               	.LBB456:
 999               	.LM149:
 1000 054c 2A85      		ldd r18,Y+10
 1001 054e 3B85      		ldd r19,Y+11
 1002 0550 4C85      		ldd r20,Y+12
 1003 0552 5D85      		ldd r21,Y+13
 1004               	.LVL55:
 1005               	.LBE456:
 1006               	.LBE455:
 1007               	.LBB457:
 1008               	.LBB458:
 1009               	.LM150:
 1010 0554 8885      		ldd r24,Y+8
 1011 0556 9985      		ldd r25,Y+9
 1012               	.LBE458:
 1013               	.LBE457:
 1014               	.LM151:
 1015 0558 7C01      		movw r14,r24
 1016               	.LVL56:
 1017 055a 00E0      		ldi r16,lo8(0)
 1018 055c 10E0      		ldi r17,hi8(0)
 1019               	.LVL57:
 1020               	.LM152:
 1021 055e 8E85      		ldd r24,Y+14
 1022 0560 9F85      		ldd r25,Y+15
 1023 0562 A889      		ldd r26,Y+16
 1024 0564 B989      		ldd r27,Y+17
 1025 0566 281B      		sub r18,r24
 1026 0568 390B      		sbc r19,r25
 1027 056a 4A0B      		sbc r20,r26
 1028 056c 5B0B      		sbc r21,r27
 1029               	.LVL58:
 1030               	.LM153:
 1031 056e 6981      		ldd r22,Y+1
 1032 0570 7A81      		ldd r23,Y+2
 1033 0572 80E0      		ldi r24,lo8(0)
 1034 0574 90E0      		ldi r25,hi8(0)
 1035 0576 0E94 0000 		call __mulsi3
 1036               	.LVL59:
 1037               	.LM154:
 1038 057a 2A89      		ldd r18,Y+18
 1039 057c 3B89      		ldd r19,Y+19
 1040 057e 4C89      		ldd r20,Y+20
 1041 0580 5D89      		ldd r21,Y+21
 1042 0582 E21A      		sub r14,r18
 1043 0584 F30A      		sbc r15,r19
 1044 0586 040B      		sbc r16,r20
 1045 0588 150B      		sbc r17,r21
 1046               	.LVL60:
 1047 058a E60E      		add r14,r22
 1048 058c F71E      		adc r15,r23
 1049 058e 081F      		adc r16,r24
 1050 0590 191F      		adc r17,r25
 1051               	.L65:
 1052               	.LBE454:
 1053               	.LM155:
 1054 0592 B701      		movw r22,r14
 1055               	.LVL61:
 1056 0594 C801      		movw r24,r16
 1057               	.LVL62:
 1058               	/* epilogue start */
 1059 0596 DF91      		pop r29
 1060 0598 CF91      		pop r28
 1061 059a 1F91      		pop r17
 1062 059c 0F91      		pop r16
 1063 059e FF90      		pop r15
 1064 05a0 EF90      		pop r14
 1065 05a2 0895      		ret
 1066               	.LFE21:
 1068               	.global	Timebase_Window_Timer_Get_Interval_Reset
 1070               	Timebase_Window_Timer_Get_Interval_Reset:
 1071               	.LFB22:
 1072               	.LM156:
 1073               	/* prologue: function */
 1074               	/* frame size = 0 */
 1075               	.LM157:
 1076 05a4 0E94 0000 		call Timebase_Window_Timer_Get_Interval
 1077 05a8 282F      		mov r18,r24
 1078               	.LVL63:
 1079               	.LM158:
 1080 05aa E091 0000 		lds r30,Timebase
 1081 05ae F091 0000 		lds r31,(Timebase)+1
 1082 05b2 8689      		ldd r24,Z+22
 1083 05b4 8130      		cpi r24,lo8(1)
 1084 05b6 01F4      		brne .L68
 1085               	.LBB459:
 1086               	.LBB460:
 1087               	.LM159:
 1088 05b8 1686      		std Z+14,__zero_reg__
 1089 05ba 1786      		std Z+15,__zero_reg__
 1090 05bc 108A      		std Z+16,__zero_reg__
 1091 05be 118A      		std Z+17,__zero_reg__
 1092               	.LM160:
 1093 05c0 128A      		std Z+18,__zero_reg__
 1094 05c2 138A      		std Z+19,__zero_reg__
 1095 05c4 148A      		std Z+20,__zero_reg__
 1096 05c6 158A      		std Z+21,__zero_reg__
 1097               	.LM161:
 1098 05c8 168A      		std Z+22,__zero_reg__
 1099               	.L68:
 1100               	.LBE460:
 1101               	.LBE459:
 1102               	.LM162:
 1103 05ca 822F      		mov r24,r18
 1104               	/* epilogue start */
 1105 05cc 0895      		ret
 1106               	.LFE22:
 1108               	.global	Timebase_UpCounter_Get_Status
 1110               	Timebase_UpCounter_Get_Status:
 1111               	.LFB23:
 1112               	.LM163:
 1113               	.LVL64:
 1114               	/* prologue: function */
 1115               	/* frame size = 0 */
 1116               	.LM164:
 1117 05ce E091 0000 		lds r30,Timebase
 1118 05d2 F091 0000 		lds r31,(Timebase)+1
 1119 05d6 90E0      		ldi r25,lo8(0)
 1120               	.LVL65:
 1121 05d8 2EE2      		ldi r18,lo8(46)
 1122 05da 30E0      		ldi r19,hi8(46)
 1123 05dc AC01      		movw r20,r24
 1124 05de 429F      		mul r20,r18
 1125 05e0 C001      		movw r24,r0
 1126 05e2 439F      		mul r20,r19
 1127 05e4 900D      		add r25,r0
 1128 05e6 529F      		mul r21,r18
 1129 05e8 900D      		add r25,r0
 1130 05ea 1124      		clr r1
 1131               	.LVL66:
 1132 05ec E80F      		add r30,r24
 1133 05ee F91F      		adc r31,r25
 1134 05f0 808D      		ldd r24,Z+24
 1135 05f2 8695      		lsr r24
 1136               	.LM165:
 1137 05f4 8F70      		andi r24,lo8(15)
 1138               	/* epilogue start */
 1139 05f6 0895      		ret
 1140               	.LFE23:
 1142               	.global	Timebase_UpCounter_Set_Status
 1144               	Timebase_UpCounter_Set_Status:
 1145               	.LFB24:
 1146               	.LM166:
 1147               	.LVL67:
 1148               	/* prologue: function */
 1149               	/* frame size = 0 */
 1150               	.LM167:
 1151 05f8 E091 0000 		lds r30,Timebase
 1152 05fc F091 0000 		lds r31,(Timebase)+1
 1153 0600 90E0      		ldi r25,lo8(0)
 1154               	.LVL68:
 1155 0602 2EE2      		ldi r18,lo8(46)
 1156 0604 30E0      		ldi r19,hi8(46)
 1157 0606 AC01      		movw r20,r24
 1158 0608 429F      		mul r20,r18
 1159 060a C001      		movw r24,r0
 1160 060c 439F      		mul r20,r19
 1161 060e 900D      		add r25,r0
 1162 0610 529F      		mul r21,r18
 1163 0612 900D      		add r25,r0
 1164 0614 1124      		clr r1
 1165               	.LVL69:
 1166 0616 E80F      		add r30,r24
 1167 0618 F91F      		adc r31,r25
 1168 061a 6F70      		andi r22,lo8(15)
 1169               	.LVL70:
 1170 061c 660F      		lsl r22
 1171 061e 808D      		ldd r24,Z+24
 1172 0620 817E      		andi r24,lo8(-31)
 1173 0622 862B      		or r24,r22
 1174 0624 808F      		std Z+24,r24
 1175               	/* epilogue start */
 1176               	.LM168:
 1177 0626 0895      		ret
 1178               	.LFE24:
 1180               	.global	Timebase_UpCounter_Get_Value
 1182               	Timebase_UpCounter_Get_Value:
 1183               	.LFB25:
 1184               	.LM169:
 1185               	.LVL71:
 1186               	/* prologue: function */
 1187               	/* frame size = 0 */
 1188               	.LM170:
 1189 0628 E091 0000 		lds r30,Timebase
 1190 062c F091 0000 		lds r31,(Timebase)+1
 1191 0630 90E0      		ldi r25,lo8(0)
 1192               	.LVL72:
 1193 0632 2EE2      		ldi r18,lo8(46)
 1194 0634 30E0      		ldi r19,hi8(46)
 1195 0636 AC01      		movw r20,r24
 1196 0638 429F      		mul r20,r18
 1197 063a C001      		movw r24,r0
 1198 063c 439F      		mul r20,r19
 1199 063e 900D      		add r25,r0
 1200 0640 529F      		mul r21,r18
 1201 0642 900D      		add r25,r0
 1202 0644 1124      		clr r1
 1203               	.LVL73:
 1204 0646 E80F      		add r30,r24
 1205 0648 F91F      		adc r31,r25
 1206 064a DF01      		movw r26,r30
 1207 064c 9596      		adiw r26,37
 1208 064e 65A1      		ldd r22,Z+37
 1209 0650 1196      		adiw r26,1
 1210 0652 7C91      		ld r23,X
 1211 0654 1197      		sbiw r26,1
 1212               	.LM171:
 1213 0656 1296      		adiw r26,2
 1214 0658 8C91      		ld r24,X
 1215 065a 1297      		sbiw r26,2
 1216 065c 1396      		adiw r26,3
 1217 065e 9C91      		ld r25,X
 1218               	.LVL74:
 1219               	/* epilogue start */
 1220 0660 0895      		ret
 1221               	.LFE25:
 1223               	.global	Timebase_UpCounter_Set_Value
 1225               	Timebase_UpCounter_Set_Value:
 1226               	.LFB26:
 1227               	.LM172:
 1228               	.LVL75:
 1229               	/* prologue: function */
 1230               	/* frame size = 0 */
 1231               	.LM173:
 1232 0662 E091 0000 		lds r30,Timebase
 1233 0666 F091 0000 		lds r31,(Timebase)+1
 1234 066a 90E0      		ldi r25,lo8(0)
 1235               	.LVL76:
 1236 066c 2EE2      		ldi r18,lo8(46)
 1237 066e 30E0      		ldi r19,hi8(46)
 1238 0670 DC01      		movw r26,r24
 1239 0672 A29F      		mul r26,r18
 1240 0674 C001      		movw r24,r0
 1241 0676 A39F      		mul r26,r19
 1242 0678 900D      		add r25,r0
 1243 067a B29F      		mul r27,r18
 1244 067c 900D      		add r25,r0
 1245 067e 1124      		clr r1
 1246               	.LVL77:
 1247 0680 E80F      		add r30,r24
 1248 0682 F91F      		adc r31,r25
 1249 0684 45A3      		std Z+37,r20
 1250 0686 56A3      		std Z+38,r21
 1251 0688 67A3      		std Z+39,r22
 1252 068a 70A7      		std Z+40,r23
 1253               	/* epilogue start */
 1254               	.LM174:
 1255 068c 0895      		ret
 1256               	.LFE26:
 1258               	.global	Timebase_UpCounter_Get_EndValue
 1260               	Timebase_UpCounter_Get_EndValue:
 1261               	.LFB27:
 1262               	.LM175:
 1263               	.LVL78:
 1264               	/* prologue: function */
 1265               	/* frame size = 0 */
 1266               	.LM176:
 1267 068e E091 0000 		lds r30,Timebase
 1268 0692 F091 0000 		lds r31,(Timebase)+1
 1269 0696 90E0      		ldi r25,lo8(0)
 1270               	.LVL79:
 1271 0698 2EE2      		ldi r18,lo8(46)
 1272 069a 30E0      		ldi r19,hi8(46)
 1273 069c AC01      		movw r20,r24
 1274 069e 429F      		mul r20,r18
 1275 06a0 C001      		movw r24,r0
 1276 06a2 439F      		mul r20,r19
 1277 06a4 900D      		add r25,r0
 1278 06a6 529F      		mul r21,r18
 1279 06a8 900D      		add r25,r0
 1280 06aa 1124      		clr r1
 1281               	.LVL80:
 1282 06ac E80F      		add r30,r24
 1283 06ae F91F      		adc r31,r25
 1284 06b0 DF01      		movw r26,r30
 1285 06b2 5996      		adiw r26,25
 1286 06b4 618D      		ldd r22,Z+25
 1287 06b6 1196      		adiw r26,1
 1288 06b8 7C91      		ld r23,X
 1289 06ba 1197      		sbiw r26,1
 1290               	.LM177:
 1291 06bc 1296      		adiw r26,2
 1292 06be 8C91      		ld r24,X
 1293 06c0 1297      		sbiw r26,2
 1294 06c2 1396      		adiw r26,3
 1295 06c4 9C91      		ld r25,X
 1296               	.LVL81:
 1297               	/* epilogue start */
 1298 06c6 0895      		ret
 1299               	.LFE27:
 1301               	.global	Timebase_UpCounter_Set_EndValue
 1303               	Timebase_UpCounter_Set_EndValue:
 1304               	.LFB28:
 1305               	.LM178:
 1306               	.LVL82:
 1307               	/* prologue: function */
 1308               	/* frame size = 0 */
 1309               	.LM179:
 1310 06c8 E091 0000 		lds r30,Timebase
 1311 06cc F091 0000 		lds r31,(Timebase)+1
 1312 06d0 90E0      		ldi r25,lo8(0)
 1313               	.LVL83:
 1314 06d2 2EE2      		ldi r18,lo8(46)
 1315 06d4 30E0      		ldi r19,hi8(46)
 1316 06d6 DC01      		movw r26,r24
 1317 06d8 A29F      		mul r26,r18
 1318 06da C001      		movw r24,r0
 1319 06dc A39F      		mul r26,r19
 1320 06de 900D      		add r25,r0
 1321 06e0 B29F      		mul r27,r18
 1322 06e2 900D      		add r25,r0
 1323 06e4 1124      		clr r1
 1324               	.LVL84:
 1325 06e6 E80F      		add r30,r24
 1326 06e8 F91F      		adc r31,r25
 1327 06ea 418F      		std Z+25,r20
 1328 06ec 528F      		std Z+26,r21
 1329 06ee 638F      		std Z+27,r22
 1330 06f0 748F      		std Z+28,r23
 1331               	/* epilogue start */
 1332               	.LM180:
 1333 06f2 0895      		ret
 1334               	.LFE28:
 1336               	.global	Timebase_UpCounter_Get_TargetValue
 1338               	Timebase_UpCounter_Get_TargetValue:
 1339               	.LFB29:
 1340               	.LM181:
 1341               	.LVL85:
 1342               	/* prologue: function */
 1343               	/* frame size = 0 */
 1344               	.LM182:
 1345 06f4 E091 0000 		lds r30,Timebase
 1346 06f8 F091 0000 		lds r31,(Timebase)+1
 1347 06fc 90E0      		ldi r25,lo8(0)
 1348               	.LVL86:
 1349 06fe 2EE2      		ldi r18,lo8(46)
 1350 0700 30E0      		ldi r19,hi8(46)
 1351 0702 AC01      		movw r20,r24
 1352 0704 429F      		mul r20,r18
 1353 0706 C001      		movw r24,r0
 1354 0708 439F      		mul r20,r19
 1355 070a 900D      		add r25,r0
 1356 070c 529F      		mul r21,r18
 1357 070e 900D      		add r25,r0
 1358 0710 1124      		clr r1
 1359               	.LVL87:
 1360 0712 E80F      		add r30,r24
 1361 0714 F91F      		adc r31,r25
 1362 0716 DF01      		movw r26,r30
 1363 0718 5D96      		adiw r26,29
 1364 071a 658D      		ldd r22,Z+29
 1365 071c 1196      		adiw r26,1
 1366 071e 7C91      		ld r23,X
 1367 0720 1197      		sbiw r26,1
 1368               	.LM183:
 1369 0722 1296      		adiw r26,2
 1370 0724 8C91      		ld r24,X
 1371 0726 1297      		sbiw r26,2
 1372 0728 1396      		adiw r26,3
 1373 072a 9C91      		ld r25,X
 1374               	.LVL88:
 1375               	/* epilogue start */
 1376 072c 0895      		ret
 1377               	.LFE29:
 1379               	.global	Timebase_UpCounter_Set_TargetValue
 1381               	Timebase_UpCounter_Set_TargetValue:
 1382               	.LFB30:
 1383               	.LM184:
 1384               	.LVL89:
 1385               	/* prologue: function */
 1386               	/* frame size = 0 */
 1387               	.LM185:
 1388 072e E091 0000 		lds r30,Timebase
 1389 0732 F091 0000 		lds r31,(Timebase)+1
 1390 0736 90E0      		ldi r25,lo8(0)
 1391               	.LVL90:
 1392 0738 2EE2      		ldi r18,lo8(46)
 1393 073a 30E0      		ldi r19,hi8(46)
 1394 073c DC01      		movw r26,r24
 1395 073e A29F      		mul r26,r18
 1396 0740 C001      		movw r24,r0
 1397 0742 A39F      		mul r26,r19
 1398 0744 900D      		add r25,r0
 1399 0746 B29F      		mul r27,r18
 1400 0748 900D      		add r25,r0
 1401 074a 1124      		clr r1
 1402               	.LVL91:
 1403 074c E80F      		add r30,r24
 1404 074e F91F      		adc r31,r25
 1405 0750 458F      		std Z+29,r20
 1406 0752 568F      		std Z+30,r21
 1407 0754 678F      		std Z+31,r22
 1408 0756 70A3      		std Z+32,r23
 1409               	/* epilogue start */
 1410               	.LM186:
 1411 0758 0895      		ret
 1412               	.LFE30:
 1414               	.global	Timebase_UpCounter_Get_TemporaryValue
 1416               	Timebase_UpCounter_Get_TemporaryValue:
 1417               	.LFB31:
 1418               	.LM187:
 1419               	.LVL92:
 1420               	/* prologue: function */
 1421               	/* frame size = 0 */
 1422               	.LM188:
 1423 075a E091 0000 		lds r30,Timebase
 1424 075e F091 0000 		lds r31,(Timebase)+1
 1425 0762 90E0      		ldi r25,lo8(0)
 1426               	.LVL93:
 1427 0764 2EE2      		ldi r18,lo8(46)
 1428 0766 30E0      		ldi r19,hi8(46)
 1429 0768 AC01      		movw r20,r24
 1430 076a 429F      		mul r20,r18
 1431 076c C001      		movw r24,r0
 1432 076e 439F      		mul r20,r19
 1433 0770 900D      		add r25,r0
 1434 0772 529F      		mul r21,r18
 1435 0774 900D      		add r25,r0
 1436 0776 1124      		clr r1
 1437               	.LVL94:
 1438 0778 E80F      		add r30,r24
 1439 077a F91F      		adc r31,r25
 1440 077c DF01      		movw r26,r30
 1441 077e 9196      		adiw r26,33
 1442 0780 61A1      		ldd r22,Z+33
 1443 0782 1196      		adiw r26,1
 1444 0784 7C91      		ld r23,X
 1445 0786 1197      		sbiw r26,1
 1446               	.LM189:
 1447 0788 1296      		adiw r26,2
 1448 078a 8C91      		ld r24,X
 1449 078c 1297      		sbiw r26,2
 1450 078e 1396      		adiw r26,3
 1451 0790 9C91      		ld r25,X
 1452               	.LVL95:
 1453               	/* epilogue start */
 1454 0792 0895      		ret
 1455               	.LFE31:
 1457               	.global	Timebase_UpCounter_Set_TemporaryValue
 1459               	Timebase_UpCounter_Set_TemporaryValue:
 1460               	.LFB32:
 1461               	.LM190:
 1462               	.LVL96:
 1463               	/* prologue: function */
 1464               	/* frame size = 0 */
 1465               	.LM191:
 1466 0794 E091 0000 		lds r30,Timebase
 1467 0798 F091 0000 		lds r31,(Timebase)+1
 1468 079c 90E0      		ldi r25,lo8(0)
 1469               	.LVL97:
 1470 079e 2EE2      		ldi r18,lo8(46)
 1471 07a0 30E0      		ldi r19,hi8(46)
 1472 07a2 DC01      		movw r26,r24
 1473 07a4 A29F      		mul r26,r18
 1474 07a6 C001      		movw r24,r0
 1475 07a8 A39F      		mul r26,r19
 1476 07aa 900D      		add r25,r0
 1477 07ac B29F      		mul r27,r18
 1478 07ae 900D      		add r25,r0
 1479 07b0 1124      		clr r1
 1480               	.LVL98:
 1481 07b2 E80F      		add r30,r24
 1482 07b4 F91F      		adc r31,r25
 1483 07b6 41A3      		std Z+33,r20
 1484 07b8 52A3      		std Z+34,r21
 1485 07ba 63A3      		std Z+35,r22
 1486 07bc 74A3      		std Z+36,r23
 1487               	/* epilogue start */
 1488               	.LM192:
 1489 07be 0895      		ret
 1490               	.LFE32:
 1492               	.global	Timebase_UpCounter_Get_PeriodValue
 1494               	Timebase_UpCounter_Get_PeriodValue:
 1495               	.LFB33:
 1496               	.LM193:
 1497               	.LVL99:
 1498               	/* prologue: function */
 1499               	/* frame size = 0 */
 1500               	.LM194:
 1501 07c0 E091 0000 		lds r30,Timebase
 1502 07c4 F091 0000 		lds r31,(Timebase)+1
 1503 07c8 90E0      		ldi r25,lo8(0)
 1504               	.LVL100:
 1505 07ca 2EE2      		ldi r18,lo8(46)
 1506 07cc 30E0      		ldi r19,hi8(46)
 1507 07ce AC01      		movw r20,r24
 1508 07d0 429F      		mul r20,r18
 1509 07d2 C001      		movw r24,r0
 1510 07d4 439F      		mul r20,r19
 1511 07d6 900D      		add r25,r0
 1512 07d8 529F      		mul r21,r18
 1513 07da 900D      		add r25,r0
 1514 07dc 1124      		clr r1
 1515               	.LVL101:
 1516 07de E80F      		add r30,r24
 1517 07e0 F91F      		adc r31,r25
 1518 07e2 DF01      		movw r26,r30
 1519 07e4 9996      		adiw r26,41
 1520 07e6 61A5      		ldd r22,Z+41
 1521 07e8 1196      		adiw r26,1
 1522 07ea 7C91      		ld r23,X
 1523 07ec 1197      		sbiw r26,1
 1524               	.LM195:
 1525 07ee 1296      		adiw r26,2
 1526 07f0 8C91      		ld r24,X
 1527 07f2 1297      		sbiw r26,2
 1528 07f4 1396      		adiw r26,3
 1529 07f6 9C91      		ld r25,X
 1530               	.LVL102:
 1531               	/* epilogue start */
 1532 07f8 0895      		ret
 1533               	.LFE33:
 1535               	.global	Timebase_UpCounter_Set_PeriodValue
 1537               	Timebase_UpCounter_Set_PeriodValue:
 1538               	.LFB34:
 1539               	.LM196:
 1540               	.LVL103:
 1541               	/* prologue: function */
 1542               	/* frame size = 0 */
 1543               	.LM197:
 1544 07fa E091 0000 		lds r30,Timebase
 1545 07fe F091 0000 		lds r31,(Timebase)+1
 1546 0802 90E0      		ldi r25,lo8(0)
 1547               	.LVL104:
 1548 0804 2EE2      		ldi r18,lo8(46)
 1549 0806 30E0      		ldi r19,hi8(46)
 1550 0808 DC01      		movw r26,r24
 1551 080a A29F      		mul r26,r18
 1552 080c C001      		movw r24,r0
 1553 080e A39F      		mul r26,r19
 1554 0810 900D      		add r25,r0
 1555 0812 B29F      		mul r27,r18
 1556 0814 900D      		add r25,r0
 1557 0816 1124      		clr r1
 1558               	.LVL105:
 1559 0818 E80F      		add r30,r24
 1560 081a F91F      		adc r31,r25
 1561 081c 41A7      		std Z+41,r20
 1562 081e 52A7      		std Z+42,r21
 1563 0820 63A7      		std Z+43,r22
 1564 0822 74A7      		std Z+44,r23
 1565               	/* epilogue start */
 1566               	.LM198:
 1567 0824 0895      		ret
 1568               	.LFE34:
 1570               	.global	Timebase_UpCounter_Get_Period_Flag
 1572               	Timebase_UpCounter_Get_Period_Flag:
 1573               	.LFB35:
 1574               	.LM199:
 1575               	.LVL106:
 1576               	/* prologue: function */
 1577               	/* frame size = 0 */
 1578               	.LM200:
 1579 0826 E091 0000 		lds r30,Timebase
 1580 082a F091 0000 		lds r31,(Timebase)+1
 1581 082e 90E0      		ldi r25,lo8(0)
 1582               	.LVL107:
 1583 0830 2EE2      		ldi r18,lo8(46)
 1584 0832 30E0      		ldi r19,hi8(46)
 1585 0834 AC01      		movw r20,r24
 1586 0836 429F      		mul r20,r18
 1587 0838 C001      		movw r24,r0
 1588 083a 439F      		mul r20,r19
 1589 083c 900D      		add r25,r0
 1590 083e 529F      		mul r21,r18
 1591 0840 900D      		add r25,r0
 1592 0842 1124      		clr r1
 1593               	.LVL108:
 1594 0844 E80F      		add r30,r24
 1595 0846 F91F      		adc r31,r25
 1596 0848 808D      		ldd r24,Z+24
 1597               	.LM201:
 1598 084a 8170      		andi r24,lo8(1)
 1599               	/* epilogue start */
 1600 084c 0895      		ret
 1601               	.LFE35:
 1603               	.global	Timebase_UpCounter_Set_Period_Flag
 1605               	Timebase_UpCounter_Set_Period_Flag:
 1606               	.LFB36:
 1607               	.LM202:
 1608               	.LVL109:
 1609               	/* prologue: function */
 1610               	/* frame size = 0 */
 1611               	.LM203:
 1612 084e E091 0000 		lds r30,Timebase
 1613 0852 F091 0000 		lds r31,(Timebase)+1
 1614 0856 90E0      		ldi r25,lo8(0)
 1615               	.LVL110:
 1616 0858 2EE2      		ldi r18,lo8(46)
 1617 085a 30E0      		ldi r19,hi8(46)
 1618 085c AC01      		movw r20,r24
 1619 085e 429F      		mul r20,r18
 1620 0860 C001      		movw r24,r0
 1621 0862 439F      		mul r20,r19
 1622 0864 900D      		add r25,r0
 1623 0866 529F      		mul r21,r18
 1624 0868 900D      		add r25,r0
 1625 086a 1124      		clr r1
 1626               	.LVL111:
 1627 086c E80F      		add r30,r24
 1628 086e F91F      		adc r31,r25
 1629 0870 808D      		ldd r24,Z+24
 1630 0872 8160      		ori r24,lo8(1)
 1631 0874 808F      		std Z+24,r24
 1632               	/* epilogue start */
 1633               	.LM204:
 1634 0876 0895      		ret
 1635               	.LFE36:
 1637               	.global	Timebase_UpCounter_Clear_Period_Flag
 1639               	Timebase_UpCounter_Clear_Period_Flag:
 1640               	.LFB37:
 1641               	.LM205:
 1642               	.LVL112:
 1643               	/* prologue: function */
 1644               	/* frame size = 0 */
 1645               	.LM206:
 1646 0878 E091 0000 		lds r30,Timebase
 1647 087c F091 0000 		lds r31,(Timebase)+1
 1648 0880 90E0      		ldi r25,lo8(0)
 1649               	.LVL113:
 1650 0882 2EE2      		ldi r18,lo8(46)
 1651 0884 30E0      		ldi r19,hi8(46)
 1652 0886 AC01      		movw r20,r24
 1653 0888 429F      		mul r20,r18
 1654 088a C001      		movw r24,r0
 1655 088c 439F      		mul r20,r19
 1656 088e 900D      		add r25,r0
 1657 0890 529F      		mul r21,r18
 1658 0892 900D      		add r25,r0
 1659 0894 1124      		clr r1
 1660               	.LVL114:
 1661 0896 E80F      		add r30,r24
 1662 0898 F91F      		adc r31,r25
 1663 089a 808D      		ldd r24,Z+24
 1664 089c 8E7F      		andi r24,lo8(-2)
 1665 089e 808F      		std Z+24,r24
 1666               	/* epilogue start */
 1667               	.LM207:
 1668 08a0 0895      		ret
 1669               	.LFE37:
 1671               	.global	Timebase_UpCounter_Reset
 1673               	Timebase_UpCounter_Reset:
 1674               	.LFB38:
 1675               	.LM208:
 1676               	.LVL115:
 1677               	/* prologue: function */
 1678               	/* frame size = 0 */
 1679               	.LBB461:
 1680               	.LBB462:
 1681               	.LM209:
 1682 08a2 E091 0000 		lds r30,Timebase
 1683 08a6 F091 0000 		lds r31,(Timebase)+1
 1684 08aa 90E0      		ldi r25,lo8(0)
 1685 08ac 2EE2      		ldi r18,lo8(46)
 1686 08ae 30E0      		ldi r19,hi8(46)
 1687 08b0 AC01      		movw r20,r24
 1688               	.LVL116:
 1689 08b2 429F      		mul r20,r18
 1690 08b4 C001      		movw r24,r0
 1691 08b6 439F      		mul r20,r19
 1692 08b8 900D      		add r25,r0
 1693 08ba 529F      		mul r21,r18
 1694 08bc 900D      		add r25,r0
 1695 08be 1124      		clr r1
 1696 08c0 E80F      		add r30,r24
 1697 08c2 F91F      		adc r31,r25
 1698 08c4 808D      		ldd r24,Z+24
 1699               	.LBE462:
 1700               	.LBE461:
 1701               	.LBB463:
 1702               	.LBB464:
 1703               	.LM210:
 1704 08c6 15A2      		std Z+37,__zero_reg__
 1705 08c8 16A2      		std Z+38,__zero_reg__
 1706 08ca 17A2      		std Z+39,__zero_reg__
 1707 08cc 10A6      		std Z+40,__zero_reg__
 1708               	.LBE464:
 1709               	.LBE463:
 1710               	.LBB465:
 1711               	.LBB466:
 1712               	.LM211:
 1713 08ce 118E      		std Z+25,__zero_reg__
 1714 08d0 128E      		std Z+26,__zero_reg__
 1715 08d2 138E      		std Z+27,__zero_reg__
 1716 08d4 148E      		std Z+28,__zero_reg__
 1717               	.LBE466:
 1718               	.LBE465:
 1719               	.LBB467:
 1720               	.LBB468:
 1721               	.LM212:
 1722 08d6 158E      		std Z+29,__zero_reg__
 1723 08d8 168E      		std Z+30,__zero_reg__
 1724 08da 178E      		std Z+31,__zero_reg__
 1725 08dc 10A2      		std Z+32,__zero_reg__
 1726               	.LBE468:
 1727               	.LBE467:
 1728               	.LBB469:
 1729               	.LBB470:
 1730               	.LM213:
 1731 08de 11A2      		std Z+33,__zero_reg__
 1732 08e0 12A2      		std Z+34,__zero_reg__
 1733 08e2 13A2      		std Z+35,__zero_reg__
 1734 08e4 14A2      		std Z+36,__zero_reg__
 1735               	.LBE470:
 1736               	.LBE469:
 1737               	.LBB471:
 1738               	.LBB472:
 1739               	.LM214:
 1740 08e6 11A6      		std Z+41,__zero_reg__
 1741 08e8 12A6      		std Z+42,__zero_reg__
 1742 08ea 13A6      		std Z+43,__zero_reg__
 1743 08ec 14A6      		std Z+44,__zero_reg__
 1744               	.LBE472:
 1745               	.LBE471:
 1746               	.LBB473:
 1747               	.LBB474:
 1748               	.LM215:
 1749 08ee 807E      		andi r24,lo8(-32)
 1750 08f0 808F      		std Z+24,r24
 1751               	/* epilogue start */
 1752               	.LBE474:
 1753               	.LBE473:
 1754               	.LM216:
 1755 08f2 0895      		ret
 1756               	.LFE38:
 1758               	.global	Timebase_UpCounter_Clear_All_Flags
 1760               	Timebase_UpCounter_Clear_All_Flags:
 1761               	.LFB39:
 1762               	.LM217:
 1763               	.LVL117:
 1764               	/* prologue: function */
 1765               	/* frame size = 0 */
 1766               	.LM218:
 1767 08f4 0E94 0000 		call Timebase_UpCounter_Reset
 1768               	.LVL118:
 1769               	/* epilogue start */
 1770               	.LM219:
 1771 08f8 0895      		ret
 1772               	.LFE39:
 1774               	.global	Timebase_UpCounter_Start
 1776               	Timebase_UpCounter_Start:
 1777               	.LFB40:
 1778               	.LM220:
 1779               	.LVL119:
 1780               	/* prologue: function */
 1781               	/* frame size = 0 */
 1782               	.LBB475:
 1783               	.LBB476:
 1784               	.LM221:
 1785 08fa E091 0000 		lds r30,Timebase
 1786 08fe F091 0000 		lds r31,(Timebase)+1
 1787 0902 90E0      		ldi r25,lo8(0)
 1788               	.LBE476:
 1789               	.LBE475:
 1790               	.LM222:
 1791 0904 2EE2      		ldi r18,lo8(46)
 1792 0906 30E0      		ldi r19,hi8(46)
 1793 0908 AC01      		movw r20,r24
 1794               	.LVL120:
 1795 090a 429F      		mul r20,r18
 1796 090c C001      		movw r24,r0
 1797 090e 439F      		mul r20,r19
 1798 0910 900D      		add r25,r0
 1799 0912 529F      		mul r21,r18
 1800 0914 900D      		add r25,r0
 1801 0916 1124      		clr r1
 1802 0918 E80F      		add r30,r24
 1803 091a F91F      		adc r31,r25
 1804 091c 908D      		ldd r25,Z+24
 1805 091e 892F      		mov r24,r25
 1806 0920 8695      		lsr r24
 1807 0922 8F70      		andi r24,lo8(15)
 1808 0924 8130      		cpi r24,lo8(1)
 1809 0926 01F0      		breq .L106
 1810               	.LBB477:
 1811               	.LBB478:
 1812               	.LM223:
 1813 0928 917E      		andi r25,lo8(-31)
 1814 092a 9260      		ori r25,lo8(2)
 1815 092c 908F      		std Z+24,r25
 1816               	.L106:
 1817 092e 0895      		ret
 1818               	.LBE478:
 1819               	.LBE477:
 1820               	.LFE40:
 1822               	.global	Timebase_UpCounter_Stop
 1824               	Timebase_UpCounter_Stop:
 1825               	.LFB41:
 1826               	.LM224:
 1827               	.LVL121:
 1828               	/* prologue: function */
 1829               	/* frame size = 0 */
 1830               	.LBB479:
 1831               	.LBB480:
 1832               	.LM225:
 1833 0930 E091 0000 		lds r30,Timebase
 1834 0934 F091 0000 		lds r31,(Timebase)+1
 1835 0938 90E0      		ldi r25,lo8(0)
 1836               	.LBE480:
 1837               	.LBE479:
 1838               	.LM226:
 1839 093a 2EE2      		ldi r18,lo8(46)
 1840 093c 30E0      		ldi r19,hi8(46)
 1841 093e AC01      		movw r20,r24
 1842               	.LVL122:
 1843 0940 429F      		mul r20,r18
 1844 0942 C001      		movw r24,r0
 1845 0944 439F      		mul r20,r19
 1846 0946 900D      		add r25,r0
 1847 0948 529F      		mul r21,r18
 1848 094a 900D      		add r25,r0
 1849 094c 1124      		clr r1
 1850 094e E80F      		add r30,r24
 1851 0950 F91F      		adc r31,r25
 1852 0952 908D      		ldd r25,Z+24
 1853 0954 892F      		mov r24,r25
 1854 0956 8695      		lsr r24
 1855 0958 8F70      		andi r24,lo8(15)
 1856 095a 8230      		cpi r24,lo8(2)
 1857 095c 01F0      		breq .L109
 1858               	.LBB481:
 1859               	.LBB482:
 1860               	.LM227:
 1861 095e 917E      		andi r25,lo8(-31)
 1862 0960 9460      		ori r25,lo8(4)
 1863 0962 908F      		std Z+24,r25
 1864               	.L109:
 1865 0964 0895      		ret
 1866               	.LBE482:
 1867               	.LBE481:
 1868               	.LFE41:
 1870               	.global	Timebase_UpCounter_Set_Securely
 1872               	Timebase_UpCounter_Set_Securely:
 1873               	.LFB42:
 1874               	.LM228:
 1875               	.LVL123:
 1876               	/* prologue: function */
 1877               	/* frame size = 0 */
 1878               	.LBB483:
 1879               	.LBB484:
 1880               	.LM229:
 1881 0966 A091 0000 		lds r26,Timebase
 1882 096a B091 0000 		lds r27,(Timebase)+1
 1883 096e 90E0      		ldi r25,lo8(0)
 1884               	.LBE484:
 1885               	.LBE483:
 1886               	.LM230:
 1887 0970 2EE2      		ldi r18,lo8(46)
 1888 0972 30E0      		ldi r19,hi8(46)
 1889 0974 829F      		mul r24,r18
 1890 0976 F001      		movw r30,r0
 1891 0978 839F      		mul r24,r19
 1892 097a F00D      		add r31,r0
 1893 097c 929F      		mul r25,r18
 1894 097e F00D      		add r31,r0
 1895 0980 1124      		clr r1
 1896               	.LVL124:
 1897 0982 EA0F      		add r30,r26
 1898 0984 FB1F      		adc r31,r27
 1899 0986 808D      		ldd r24,Z+24
 1900 0988 8695      		lsr r24
 1901 098a 8F70      		andi r24,lo8(15)
 1902 098c 01F4      		brne .L112
 1903               	.LBB485:
 1904               	.LBB486:
 1905               	.LM231:
 1906 098e 15A2      		std Z+37,__zero_reg__
 1907 0990 16A2      		std Z+38,__zero_reg__
 1908 0992 17A2      		std Z+39,__zero_reg__
 1909 0994 10A6      		std Z+40,__zero_reg__
 1910               	.LBE486:
 1911               	.LBE485:
 1912               	.LBB487:
 1913               	.LBB488:
 1914               	.LM232:
 1915 0996 11A2      		std Z+33,__zero_reg__
 1916 0998 12A2      		std Z+34,__zero_reg__
 1917 099a 13A2      		std Z+35,__zero_reg__
 1918 099c 14A2      		std Z+36,__zero_reg__
 1919               	.LBE488:
 1920               	.LBE487:
 1921               	.LBB489:
 1922               	.LBB490:
 1923               	.LM233:
 1924 099e 458F      		std Z+29,r20
 1925 09a0 568F      		std Z+30,r21
 1926 09a2 678F      		std Z+31,r22
 1927 09a4 70A3      		std Z+32,r23
 1928               	.LBE490:
 1929               	.LBE489:
 1930               	.LBB491:
 1931               	.LBB492:
 1932               	.LM234:
 1933 09a6 1A96      		adiw r26,10
 1934 09a8 8D91      		ld r24,X+
 1935 09aa 9D91      		ld r25,X+
 1936 09ac 0D90      		ld __tmp_reg__,X+
 1937 09ae BC91      		ld r27,X
 1938 09b0 A02D      		mov r26,__tmp_reg__
 1939               	.LBE492:
 1940               	.LBE491:
 1941               	.LBB493:
 1942               	.LBB494:
 1943               	.LM235:
 1944 09b2 840F      		add r24,r20
 1945 09b4 951F      		adc r25,r21
 1946 09b6 A61F      		adc r26,r22
 1947 09b8 B71F      		adc r27,r23
 1948 09ba 818F      		std Z+25,r24
 1949 09bc 928F      		std Z+26,r25
 1950 09be A38F      		std Z+27,r26
 1951 09c0 B48F      		std Z+28,r27
 1952               	.LBE494:
 1953               	.LBE493:
 1954               	.LBB495:
 1955               	.LBB496:
 1956               	.LM236:
 1957 09c2 908D      		ldd r25,Z+24
 1958 09c4 892F      		mov r24,r25
 1959 09c6 8695      		lsr r24
 1960 09c8 8F70      		andi r24,lo8(15)
 1961 09ca 8130      		cpi r24,lo8(1)
 1962 09cc 01F0      		breq .L112
 1963               	.LBB497:
 1964               	.LBB498:
 1965               	.LM237:
 1966 09ce 917E      		andi r25,lo8(-31)
 1967 09d0 9260      		ori r25,lo8(2)
 1968 09d2 908F      		std Z+24,r25
 1969               	.L112:
 1970 09d4 0895      		ret
 1971               	.LBE498:
 1972               	.LBE497:
 1973               	.LBE496:
 1974               	.LBE495:
 1975               	.LFE42:
 1977               	.global	Timebase_UpCounter_Set_Forcefully
 1979               	Timebase_UpCounter_Set_Forcefully:
 1980               	.LFB43:
 1981               	.LM238:
 1982               	.LVL125:
 1983 09d6 DF92      		push r13
 1984 09d8 EF92      		push r14
 1985 09da FF92      		push r15
 1986 09dc 0F93      		push r16
 1987 09de 1F93      		push r17
 1988               	/* prologue: function */
 1989               	/* frame size = 0 */
 1990 09e0 D82E      		mov r13,r24
 1991 09e2 7A01      		movw r14,r20
 1992 09e4 8B01      		movw r16,r22
 1993               	.LM239:
 1994 09e6 0E94 0000 		call Timebase_UpCounter_Reset
 1995               	.LVL126:
 1996               	.LM240:
 1997 09ea 8D2D      		mov r24,r13
 1998 09ec B801      		movw r22,r16
 1999 09ee A701      		movw r20,r14
 2000 09f0 0E94 0000 		call Timebase_UpCounter_Set_Securely
 2001               	/* epilogue start */
 2002               	.LM241:
 2003 09f4 1F91      		pop r17
 2004 09f6 0F91      		pop r16
 2005 09f8 FF90      		pop r15
 2006 09fa EF90      		pop r14
 2007               	.LVL127:
 2008 09fc DF90      		pop r13
 2009               	.LVL128:
 2010 09fe 0895      		ret
 2011               	.LFE43:
 2013               	.global	Timebase_UpCounter_Update
 2015               	Timebase_UpCounter_Update:
 2016               	.LFB44:
 2017               	.LM242:
 2018               	.LVL129:
 2019 0a00 EF92      		push r14
 2020 0a02 FF92      		push r15
 2021 0a04 0F93      		push r16
 2022 0a06 1F93      		push r17
 2023               	/* prologue: function */
 2024               	/* frame size = 0 */
 2025               	.LBB499:
 2026               	.LBB500:
 2027               	.LM243:
 2028 0a08 A091 0000 		lds r26,Timebase
 2029 0a0c B091 0000 		lds r27,(Timebase)+1
 2030 0a10 90E0      		ldi r25,lo8(0)
 2031 0a12 2EE2      		ldi r18,lo8(46)
 2032 0a14 30E0      		ldi r19,hi8(46)
 2033 0a16 829F      		mul r24,r18
 2034 0a18 F001      		movw r30,r0
 2035 0a1a 839F      		mul r24,r19
 2036 0a1c F00D      		add r31,r0
 2037 0a1e 929F      		mul r25,r18
 2038 0a20 F00D      		add r31,r0
 2039 0a22 1124      		clr r1
 2040               	.LVL130:
 2041 0a24 EA0F      		add r30,r26
 2042 0a26 FB1F      		adc r31,r27
 2043 0a28 808D      		ldd r24,Z+24
 2044 0a2a 8695      		lsr r24
 2045 0a2c 8F70      		andi r24,lo8(15)
 2046               	.LBE500:
 2047               	.LBE499:
 2048               	.LM244:
 2049 0a2e 8130      		cpi r24,lo8(1)
 2050 0a30 01F4      		brne .L116
 2051               	.LBB501:
 2052               	.LBB502:
 2053               	.LM245:
 2054 0a32 1A96      		adiw r26,10
 2055 0a34 8D91      		ld r24,X+
 2056 0a36 9D91      		ld r25,X+
 2057 0a38 0D90      		ld __tmp_reg__,X+
 2058 0a3a BC91      		ld r27,X
 2059 0a3c A02D      		mov r26,__tmp_reg__
 2060               	.LBE502:
 2061               	.LBE501:
 2062               	.LM246:
 2063 0a3e 218D      		ldd r18,Z+25
 2064 0a40 328D      		ldd r19,Z+26
 2065 0a42 438D      		ldd r20,Z+27
 2066 0a44 548D      		ldd r21,Z+28
 2067 0a46 281B      		sub r18,r24
 2068 0a48 390B      		sbc r19,r25
 2069 0a4a 4A0B      		sbc r20,r26
 2070 0a4c 5B0B      		sbc r21,r27
 2071               	.LBB503:
 2072               	.LBB504:
 2073               	.LM247:
 2074 0a4e 21A3      		std Z+33,r18
 2075 0a50 32A3      		std Z+34,r19
 2076 0a52 43A3      		std Z+35,r20
 2077 0a54 54A3      		std Z+36,r21
 2078               	.LBE504:
 2079               	.LBE503:
 2080               	.LBB505:
 2081               	.LBB506:
 2082               	.LM248:
 2083 0a56 E58C      		ldd r14,Z+29
 2084 0a58 F68C      		ldd r15,Z+30
 2085 0a5a 078D      		ldd r16,Z+31
 2086 0a5c 10A1      		ldd r17,Z+32
 2087 0a5e D801      		movw r26,r16
 2088 0a60 C701      		movw r24,r14
 2089 0a62 821B      		sub r24,r18
 2090 0a64 930B      		sbc r25,r19
 2091 0a66 A40B      		sbc r26,r20
 2092 0a68 B50B      		sbc r27,r21
 2093 0a6a 85A3      		std Z+37,r24
 2094 0a6c 96A3      		std Z+38,r25
 2095 0a6e A7A3      		std Z+39,r26
 2096 0a70 B0A7      		std Z+40,r27
 2097               	.LBE506:
 2098               	.LBE505:
 2099               	.LM249:
 2100 0a72 1216      		cp __zero_reg__,r18
 2101 0a74 1306      		cpc __zero_reg__,r19
 2102 0a76 1406      		cpc __zero_reg__,r20
 2103 0a78 1506      		cpc __zero_reg__,r21
 2104 0a7a 04F0      		brlt .L118
 2105               	.LBB507:
 2106               	.LBB508:
 2107               	.LM250:
 2108 0a7c 118E      		std Z+25,__zero_reg__
 2109 0a7e 128E      		std Z+26,__zero_reg__
 2110 0a80 138E      		std Z+27,__zero_reg__
 2111 0a82 148E      		std Z+28,__zero_reg__
 2112               	.LBE508:
 2113               	.LBE507:
 2114               	.LBB509:
 2115               	.LBB510:
 2116               	.LM251:
 2117 0a84 11A2      		std Z+33,__zero_reg__
 2118 0a86 12A2      		std Z+34,__zero_reg__
 2119 0a88 13A2      		std Z+35,__zero_reg__
 2120 0a8a 14A2      		std Z+36,__zero_reg__
 2121               	.LBE510:
 2122               	.LBE509:
 2123               	.LBB511:
 2124               	.LBB512:
 2125               	.LM252:
 2126 0a8c E5A2      		std Z+37,r14
 2127 0a8e F6A2      		std Z+38,r15
 2128 0a90 07A3      		std Z+39,r16
 2129 0a92 10A7      		std Z+40,r17
 2130               	.LBE512:
 2131               	.LBE511:
 2132               	.LBB513:
 2133               	.LBB514:
 2134               	.LM253:
 2135 0a94 808D      		ldd r24,Z+24
 2136 0a96 817E      		andi r24,lo8(-31)
 2137 0a98 8860      		ori r24,lo8(8)
 2138 0a9a 808F      		std Z+24,r24
 2139 0a9c 00C0      		rjmp .L118
 2140               	.L116:
 2141               	.LBE514:
 2142               	.LBE513:
 2143               	.LM254:
 2144 0a9e 8230      		cpi r24,lo8(2)
 2145 0aa0 01F4      		brne .L118
 2146               	.LBB515:
 2147               	.LBB516:
 2148               	.LM255:
 2149 0aa2 1A96      		adiw r26,10
 2150 0aa4 8D91      		ld r24,X+
 2151 0aa6 9D91      		ld r25,X+
 2152 0aa8 0D90      		ld __tmp_reg__,X+
 2153 0aaa BC91      		ld r27,X
 2154 0aac A02D      		mov r26,__tmp_reg__
 2155               	.LBE516:
 2156               	.LBE515:
 2157               	.LBB517:
 2158               	.LBB518:
 2159               	.LM256:
 2160 0aae 21A1      		ldd r18,Z+33
 2161 0ab0 32A1      		ldd r19,Z+34
 2162 0ab2 43A1      		ldd r20,Z+35
 2163 0ab4 54A1      		ldd r21,Z+36
 2164 0ab6 820F      		add r24,r18
 2165 0ab8 931F      		adc r25,r19
 2166 0aba A41F      		adc r26,r20
 2167 0abc B51F      		adc r27,r21
 2168 0abe 818F      		std Z+25,r24
 2169 0ac0 928F      		std Z+26,r25
 2170 0ac2 A38F      		std Z+27,r26
 2171 0ac4 B48F      		std Z+28,r27
 2172               	.LBE518:
 2173               	.LBE517:
 2174               	.LBB519:
 2175               	.LBB520:
 2176               	.LM257:
 2177 0ac6 858D      		ldd r24,Z+29
 2178 0ac8 968D      		ldd r25,Z+30
 2179 0aca A78D      		ldd r26,Z+31
 2180 0acc B0A1      		ldd r27,Z+32
 2181 0ace 821B      		sub r24,r18
 2182 0ad0 930B      		sbc r25,r19
 2183 0ad2 A40B      		sbc r26,r20
 2184 0ad4 B50B      		sbc r27,r21
 2185 0ad6 85A3      		std Z+37,r24
 2186 0ad8 96A3      		std Z+38,r25
 2187 0ada A7A3      		std Z+39,r26
 2188 0adc B0A7      		std Z+40,r27
 2189               	.L118:
 2190               	/* epilogue start */
 2191               	.LBE520:
 2192               	.LBE519:
 2193               	.LM258:
 2194 0ade 1F91      		pop r17
 2195 0ae0 0F91      		pop r16
 2196 0ae2 FF90      		pop r15
 2197 0ae4 EF90      		pop r14
 2198 0ae6 0895      		ret
 2199               	.LFE44:
 2201               	.global	Timebase_UpCounter_Expired
 2203               	Timebase_UpCounter_Expired:
 2204               	.LFB45:
 2205               	.LM259:
 2206               	.LVL131:
 2207               	/* prologue: function */
 2208               	/* frame size = 0 */
 2209               	.LM260:
 2210 0ae8 40E0      		ldi r20,lo8(0)
 2211 0aea E091 0000 		lds r30,Timebase
 2212 0aee F091 0000 		lds r31,(Timebase)+1
 2213 0af2 90E0      		ldi r25,lo8(0)
 2214               	.LVL132:
 2215 0af4 2EE2      		ldi r18,lo8(46)
 2216 0af6 30E0      		ldi r19,hi8(46)
 2217 0af8 BC01      		movw r22,r24
 2218 0afa 629F      		mul r22,r18
 2219 0afc C001      		movw r24,r0
 2220 0afe 639F      		mul r22,r19
 2221 0b00 900D      		add r25,r0
 2222 0b02 729F      		mul r23,r18
 2223 0b04 900D      		add r25,r0
 2224 0b06 1124      		clr r1
 2225               	.LVL133:
 2226 0b08 E80F      		add r30,r24
 2227 0b0a F91F      		adc r31,r25
 2228 0b0c 808D      		ldd r24,Z+24
 2229 0b0e 8695      		lsr r24
 2230 0b10 8F70      		andi r24,lo8(15)
 2231 0b12 8430      		cpi r24,lo8(4)
 2232 0b14 01F4      		brne .L120
 2233 0b16 41E0      		ldi r20,lo8(1)
 2234               	.L120:
 2235               	.LM261:
 2236 0b18 842F      		mov r24,r20
 2237               	/* epilogue start */
 2238 0b1a 0895      		ret
 2239               	.LFE45:
 2241               	.global	Timebase_UpCounter_Expired_Event
 2243               	Timebase_UpCounter_Expired_Event:
 2244               	.LFB46:
 2245               	.LM262:
 2246               	.LVL134:
 2247               	/* prologue: function */
 2248               	/* frame size = 0 */
 2249 0b1c 482F      		mov r20,r24
 2250               	.LM263:
 2251 0b1e E091 0000 		lds r30,Timebase
 2252 0b22 F091 0000 		lds r31,(Timebase)+1
 2253 0b26 282F      		mov r18,r24
 2254 0b28 30E0      		ldi r19,lo8(0)
 2255               	.LVL135:
 2256 0b2a 8EE2      		ldi r24,lo8(46)
 2257 0b2c 90E0      		ldi r25,hi8(46)
 2258               	.LVL136:
 2259 0b2e BC01      		movw r22,r24
 2260 0b30 269F      		mul r18,r22
 2261 0b32 C001      		movw r24,r0
 2262 0b34 279F      		mul r18,r23
 2263 0b36 900D      		add r25,r0
 2264 0b38 369F      		mul r19,r22
 2265 0b3a 900D      		add r25,r0
 2266 0b3c 1124      		clr r1
 2267 0b3e E80F      		add r30,r24
 2268 0b40 F91F      		adc r31,r25
 2269 0b42 808D      		ldd r24,Z+24
 2270 0b44 8695      		lsr r24
 2271 0b46 8F70      		andi r24,lo8(15)
 2272 0b48 8430      		cpi r24,lo8(4)
 2273 0b4a 01F0      		breq .L123
 2274 0b4c 80E0      		ldi r24,lo8(0)
 2275 0b4e 0895      		ret
 2276               	.L123:
 2277               	.LBB521:
 2278               	.LBB522:
 2279               	.LM264:
 2280 0b50 842F      		mov r24,r20
 2281 0b52 0E94 0000 		call Timebase_UpCounter_Reset
 2282               	.LVL137:
 2283 0b56 81E0      		ldi r24,lo8(1)
 2284               	.LBE522:
 2285               	.LBE521:
 2286               	.LM265:
 2287 0b58 0895      		ret
 2288               	.LFE46:
 2290               	.global	Timebase_UpCounter_Set_Period_Value_Securely
 2292               	Timebase_UpCounter_Set_Period_Value_Securely:
 2293               	.LFB47:
 2294               	.LM266:
 2295               	.LVL138:
 2296               	/* prologue: function */
 2297               	/* frame size = 0 */
 2298               	.LBB523:
 2299               	.LBB524:
 2300               	.LM267:
 2301 0b5a E091 0000 		lds r30,Timebase
 2302 0b5e F091 0000 		lds r31,(Timebase)+1
 2303 0b62 90E0      		ldi r25,lo8(0)
 2304               	.LBE524:
 2305               	.LBE523:
 2306               	.LM268:
 2307 0b64 2EE2      		ldi r18,lo8(46)
 2308 0b66 30E0      		ldi r19,hi8(46)
 2309 0b68 DC01      		movw r26,r24
 2310               	.LVL139:
 2311 0b6a A29F      		mul r26,r18
 2312 0b6c C001      		movw r24,r0
 2313 0b6e A39F      		mul r26,r19
 2314 0b70 900D      		add r25,r0
 2315 0b72 B29F      		mul r27,r18
 2316 0b74 900D      		add r25,r0
 2317 0b76 1124      		clr r1
 2318 0b78 E80F      		add r30,r24
 2319 0b7a F91F      		adc r31,r25
 2320 0b7c 808D      		ldd r24,Z+24
 2321 0b7e 80FD      		sbrc r24,0
 2322 0b80 00C0      		rjmp .L128
 2323               	.LBB525:
 2324               	.LBB526:
 2325               	.LM269:
 2326 0b82 85A1      		ldd r24,Z+37
 2327 0b84 96A1      		ldd r25,Z+38
 2328 0b86 A7A1      		ldd r26,Z+39
 2329 0b88 B0A5      		ldd r27,Z+40
 2330 0b8a 840F      		add r24,r20
 2331 0b8c 951F      		adc r25,r21
 2332 0b8e A61F      		adc r26,r22
 2333 0b90 B71F      		adc r27,r23
 2334 0b92 81A7      		std Z+41,r24
 2335 0b94 92A7      		std Z+42,r25
 2336 0b96 A3A7      		std Z+43,r26
 2337 0b98 B4A7      		std Z+44,r27
 2338               	.LBE526:
 2339               	.LBE525:
 2340               	.LBB527:
 2341               	.LBB528:
 2342               	.LM270:
 2343 0b9a 808D      		ldd r24,Z+24
 2344 0b9c 8160      		ori r24,lo8(1)
 2345 0b9e 808F      		std Z+24,r24
 2346               	.L128:
 2347 0ba0 0895      		ret
 2348               	.LBE528:
 2349               	.LBE527:
 2350               	.LFE47:
 2352               	.global	Timebase_UpCounter_Get_Remaining_Period_Value
 2354               	Timebase_UpCounter_Get_Remaining_Period_Value:
 2355               	.LFB48:
 2356               	.LM271:
 2357               	.LVL140:
 2358               	/* prologue: function */
 2359               	/* frame size = 0 */
 2360               	.LBB529:
 2361               	.LBB530:
 2362               	.LM272:
 2363 0ba2 E091 0000 		lds r30,Timebase
 2364 0ba6 F091 0000 		lds r31,(Timebase)+1
 2365 0baa 90E0      		ldi r25,lo8(0)
 2366               	.LBE530:
 2367               	.LBE529:
 2368               	.LM273:
 2369 0bac 2EE2      		ldi r18,lo8(46)
 2370 0bae 30E0      		ldi r19,hi8(46)
 2371 0bb0 AC01      		movw r20,r24
 2372               	.LVL141:
 2373 0bb2 429F      		mul r20,r18
 2374 0bb4 C001      		movw r24,r0
 2375 0bb6 439F      		mul r20,r19
 2376 0bb8 900D      		add r25,r0
 2377 0bba 529F      		mul r21,r18
 2378 0bbc 900D      		add r25,r0
 2379 0bbe 1124      		clr r1
 2380 0bc0 E80F      		add r30,r24
 2381 0bc2 F91F      		adc r31,r25
 2382 0bc4 21A5      		ldd r18,Z+41
 2383 0bc6 32A5      		ldd r19,Z+42
 2384 0bc8 43A5      		ldd r20,Z+43
 2385 0bca 54A5      		ldd r21,Z+44
 2386               	.LVL142:
 2387 0bcc 85A1      		ldd r24,Z+37
 2388 0bce 96A1      		ldd r25,Z+38
 2389 0bd0 A7A1      		ldd r26,Z+39
 2390 0bd2 B0A5      		ldd r27,Z+40
 2391 0bd4 281B      		sub r18,r24
 2392 0bd6 390B      		sbc r19,r25
 2393 0bd8 4A0B      		sbc r20,r26
 2394 0bda 5B0B      		sbc r21,r27
 2395 0bdc 57FF      		sbrs r21,7
 2396 0bde 00C0      		rjmp .L130
 2397 0be0 20E0      		ldi r18,lo8(0)
 2398 0be2 30E0      		ldi r19,hi8(0)
 2399 0be4 40E0      		ldi r20,hlo8(0)
 2400 0be6 50E0      		ldi r21,hhi8(0)
 2401               	.L130:
 2402               	.LM274:
 2403 0be8 B901      		movw r22,r18
 2404               	.LVL143:
 2405 0bea CA01      		movw r24,r20
 2406               	/* epilogue start */
 2407 0bec 0895      		ret
 2408               	.LFE48:
 2410               	.global	Timebase_UpCounter_Period_Value_Expired
 2412               	Timebase_UpCounter_Period_Value_Expired:
 2413               	.LFB49:
 2414               	.LM275:
 2415               	.LVL144:
 2416 0bee CF93      		push r28
 2417 0bf0 DF93      		push r29
 2418               	/* prologue: function */
 2419               	/* frame size = 0 */
 2420               	.LBB531:
 2421               	.LBB532:
 2422               	.LBB533:
 2423               	.LBB534:
 2424               	.LM276:
 2425 0bf2 C091 0000 		lds r28,Timebase
 2426 0bf6 D091 0000 		lds r29,(Timebase)+1
 2427 0bfa 682F      		mov r22,r24
 2428 0bfc 70E0      		ldi r23,lo8(0)
 2429               	.LBE534:
 2430               	.LBE533:
 2431               	.LM277:
 2432 0bfe 8EE2      		ldi r24,lo8(46)
 2433 0c00 90E0      		ldi r25,hi8(46)
 2434               	.LVL145:
 2435 0c02 689F      		mul r22,r24
 2436 0c04 F001      		movw r30,r0
 2437 0c06 699F      		mul r22,r25
 2438 0c08 F00D      		add r31,r0
 2439 0c0a 789F      		mul r23,r24
 2440 0c0c F00D      		add r31,r0
 2441 0c0e 1124      		clr r1
 2442 0c10 EC0F      		add r30,r28
 2443 0c12 FD1F      		adc r31,r29
 2444 0c14 21A5      		ldd r18,Z+41
 2445 0c16 32A5      		ldd r19,Z+42
 2446 0c18 43A5      		ldd r20,Z+43
 2447 0c1a 54A5      		ldd r21,Z+44
 2448               	.LVL146:
 2449 0c1c 85A1      		ldd r24,Z+37
 2450 0c1e 96A1      		ldd r25,Z+38
 2451 0c20 A7A1      		ldd r26,Z+39
 2452 0c22 B0A5      		ldd r27,Z+40
 2453 0c24 281B      		sub r18,r24
 2454 0c26 390B      		sbc r19,r25
 2455 0c28 4A0B      		sbc r20,r26
 2456 0c2a 5B0B      		sbc r21,r27
 2457               	.LM278:
 2458 0c2c 57FD      		sbrc r21,7
 2459 0c2e 00C0      		rjmp .L133
 2460               	.LBE532:
 2461               	.LBE531:
 2462               	.LM279:
 2463 0c30 2115      		cp r18,__zero_reg__
 2464 0c32 3105      		cpc r19,__zero_reg__
 2465 0c34 4105      		cpc r20,__zero_reg__
 2466 0c36 5105      		cpc r21,__zero_reg__
 2467 0c38 01F0      		breq .L133
 2468 0c3a 20E0      		ldi r18,lo8(0)
 2469               	.LVL147:
 2470 0c3c 00C0      		rjmp .L134
 2471               	.LVL148:
 2472               	.L133:
 2473 0c3e 20E0      		ldi r18,lo8(0)
 2474               	.LVL149:
 2475 0c40 8EE2      		ldi r24,lo8(46)
 2476 0c42 90E0      		ldi r25,hi8(46)
 2477 0c44 AC01      		movw r20,r24
 2478 0c46 649F      		mul r22,r20
 2479 0c48 C001      		movw r24,r0
 2480 0c4a 659F      		mul r22,r21
 2481 0c4c 900D      		add r25,r0
 2482 0c4e 749F      		mul r23,r20
 2483 0c50 900D      		add r25,r0
 2484 0c52 1124      		clr r1
 2485 0c54 C80F      		add r28,r24
 2486 0c56 D91F      		adc r29,r25
 2487 0c58 888D      		ldd r24,Y+24
 2488 0c5a 80FF      		sbrs r24,0
 2489 0c5c 21E0      		ldi r18,lo8(1)
 2490               	.L135:
 2491 0c5e 81E0      		ldi r24,lo8(1)
 2492 0c60 2827      		eor r18,r24
 2493               	.L134:
 2494               	.LM280:
 2495 0c62 822F      		mov r24,r18
 2496               	/* epilogue start */
 2497 0c64 DF91      		pop r29
 2498 0c66 CF91      		pop r28
 2499 0c68 0895      		ret
 2500               	.LFE49:
 2502               	.global	Timebase_UpCounter_Period_Value_Expired_Event
 2504               	Timebase_UpCounter_Period_Value_Expired_Event:
 2505               	.LFB50:
 2506               	.LM281:
 2507               	.LVL150:
 2508 0c6a 1F93      		push r17
 2509               	/* prologue: function */
 2510               	/* frame size = 0 */
 2511 0c6c 182F      		mov r17,r24
 2512               	.LM282:
 2513 0c6e 0E94 0000 		call Timebase_UpCounter_Period_Value_Expired
 2514               	.LVL151:
 2515 0c72 8130      		cpi r24,lo8(1)
 2516 0c74 01F0      		breq .L138
 2517 0c76 80E0      		ldi r24,lo8(0)
 2518 0c78 00C0      		rjmp .L139
 2519               	.L138:
 2520               	.LBB535:
 2521               	.LBB536:
 2522               	.LM283:
 2523 0c7a E091 0000 		lds r30,Timebase
 2524 0c7e F091 0000 		lds r31,(Timebase)+1
 2525 0c82 212F      		mov r18,r17
 2526 0c84 30E0      		ldi r19,lo8(0)
 2527               	.LVL152:
 2528 0c86 8EE2      		ldi r24,lo8(46)
 2529 0c88 90E0      		ldi r25,hi8(46)
 2530 0c8a AC01      		movw r20,r24
 2531 0c8c 249F      		mul r18,r20
 2532 0c8e C001      		movw r24,r0
 2533 0c90 259F      		mul r18,r21
 2534 0c92 900D      		add r25,r0
 2535 0c94 349F      		mul r19,r20
 2536 0c96 900D      		add r25,r0
 2537 0c98 1124      		clr r1
 2538 0c9a E80F      		add r30,r24
 2539 0c9c F91F      		adc r31,r25
 2540 0c9e 808D      		ldd r24,Z+24
 2541 0ca0 8E7F      		andi r24,lo8(-2)
 2542 0ca2 808F      		std Z+24,r24
 2543 0ca4 81E0      		ldi r24,lo8(1)
 2544               	.L139:
 2545               	/* epilogue start */
 2546               	.LBE536:
 2547               	.LBE535:
 2548               	.LM284:
 2549 0ca6 1F91      		pop r17
 2550               	.LVL153:
 2551 0ca8 0895      		ret
 2552               	.LFE50:
 2554               	.global	Timebase_UpCounter_Update_All
 2556               	Timebase_UpCounter_Update_All:
 2557               	.LFB51:
 2558               	.LM285:
 2559               	/* prologue: function */
 2560               	/* frame size = 0 */
 2561               	.LBB537:
 2562               	.LM286:
 2563 0caa 80E0      		ldi r24,lo8(0)
 2564 0cac 0E94 0000 		call Timebase_UpCounter_Update
 2565               	/* epilogue start */
 2566               	.LBE537:
 2567               	.LM287:
 2568 0cb0 0895      		ret
 2569               	.LFE51:
 2571               	.global	Timebase_UpCounter_Reset_All
 2573               	Timebase_UpCounter_Reset_All:
 2574               	.LFB52:
 2575               	.LM288:
 2576               	/* prologue: function */
 2577               	/* frame size = 0 */
 2578               	.LBB538:
 2579               	.LM289:
 2580 0cb2 80E0      		ldi r24,lo8(0)
 2581 0cb4 0E94 0000 		call Timebase_UpCounter_Reset
 2582               	/* epilogue start */
 2583               	.LBE538:
 2584               	.LM290:
 2585 0cb8 0895      		ret
 2586               	.LFE52:
 2588               	.global	Timebase_DownCounter_Get_Status
 2590               	Timebase_DownCounter_Get_Status:
 2591               	.LFB53:
 2592               	.LM291:
 2593               	.LVL154:
 2594               	/* prologue: function */
 2595               	/* frame size = 0 */
 2596               	.LM292:
 2597 0cba E091 0000 		lds r30,Timebase
 2598 0cbe F091 0000 		lds r31,(Timebase)+1
 2599 0cc2 282F      		mov r18,r24
 2600 0cc4 30E0      		ldi r19,lo8(0)
 2601               	.LVL155:
 2602 0cc6 C901      		movw r24,r18
 2603               	.LVL156:
 2604 0cc8 55E0      		ldi r21,5
 2605 0cca 880F      	1:	lsl r24
 2606 0ccc 991F      		rol r25
 2607 0cce 5A95      		dec r21
 2608 0cd0 01F4      		brne 1b
 2609 0cd2 220F      		lsl r18
 2610 0cd4 331F      		rol r19
 2611               	.LVL157:
 2612 0cd6 821B      		sub r24,r18
 2613 0cd8 930B      		sbc r25,r19
 2614 0cda E80F      		add r30,r24
 2615 0cdc F91F      		adc r31,r25
 2616 0cde EA5B      		subi r30,lo8(-(70))
 2617 0ce0 FF4F      		sbci r31,hi8(-(70))
 2618 0ce2 8081      		ld r24,Z
 2619 0ce4 8695      		lsr r24
 2620               	.LM293:
 2621 0ce6 8F70      		andi r24,lo8(15)
 2622               	/* epilogue start */
 2623 0ce8 0895      		ret
 2624               	.LFE53:
 2626               	.global	Timebase_DownCounter_Set_Status
 2628               	Timebase_DownCounter_Set_Status:
 2629               	.LFB54:
 2630               	.LM294:
 2631               	.LVL158:
 2632               	/* prologue: function */
 2633               	/* frame size = 0 */
 2634               	.LM295:
 2635 0cea E091 0000 		lds r30,Timebase
 2636 0cee F091 0000 		lds r31,(Timebase)+1
 2637 0cf2 282F      		mov r18,r24
 2638 0cf4 30E0      		ldi r19,lo8(0)
 2639               	.LVL159:
 2640 0cf6 C901      		movw r24,r18
 2641               	.LVL160:
 2642 0cf8 A5E0      		ldi r26,5
 2643 0cfa 880F      	1:	lsl r24
 2644 0cfc 991F      		rol r25
 2645 0cfe AA95      		dec r26
 2646 0d00 01F4      		brne 1b
 2647 0d02 220F      		lsl r18
 2648 0d04 331F      		rol r19
 2649               	.LVL161:
 2650 0d06 821B      		sub r24,r18
 2651 0d08 930B      		sbc r25,r19
 2652 0d0a E80F      		add r30,r24
 2653 0d0c F91F      		adc r31,r25
 2654 0d0e EA5B      		subi r30,lo8(-(70))
 2655 0d10 FF4F      		sbci r31,hi8(-(70))
 2656 0d12 6F70      		andi r22,lo8(15)
 2657               	.LVL162:
 2658 0d14 660F      		lsl r22
 2659 0d16 8081      		ld r24,Z
 2660 0d18 817E      		andi r24,lo8(-31)
 2661 0d1a 862B      		or r24,r22
 2662 0d1c 8083      		st Z,r24
 2663               	/* epilogue start */
 2664               	.LM296:
 2665 0d1e 0895      		ret
 2666               	.LFE54:
 2668               	.global	Timebase_DownCounter_Get_Value
 2670               	Timebase_DownCounter_Get_Value:
 2671               	.LFB55:
 2672               	.LM297:
 2673               	.LVL163:
 2674               	/* prologue: function */
 2675               	/* frame size = 0 */
 2676               	.LM298:
 2677 0d20 E091 0000 		lds r30,Timebase
 2678 0d24 F091 0000 		lds r31,(Timebase)+1
 2679 0d28 282F      		mov r18,r24
 2680 0d2a 30E0      		ldi r19,lo8(0)
 2681               	.LVL164:
 2682 0d2c C901      		movw r24,r18
 2683               	.LVL165:
 2684 0d2e 45E0      		ldi r20,5
 2685 0d30 880F      	1:	lsl r24
 2686 0d32 991F      		rol r25
 2687 0d34 4A95      		dec r20
 2688 0d36 01F4      		brne 1b
 2689 0d38 220F      		lsl r18
 2690 0d3a 331F      		rol r19
 2691               	.LVL166:
 2692 0d3c 821B      		sub r24,r18
 2693 0d3e 930B      		sbc r25,r19
 2694 0d40 E80F      		add r30,r24
 2695 0d42 F91F      		adc r31,r25
 2696 0d44 E55B      		subi r30,lo8(-(75))
 2697 0d46 FF4F      		sbci r31,hi8(-(75))
 2698 0d48 6081      		ld r22,Z
 2699 0d4a 7181      		ldd r23,Z+1
 2700               	.LM299:
 2701 0d4c 8281      		ldd r24,Z+2
 2702 0d4e 9381      		ldd r25,Z+3
 2703               	/* epilogue start */
 2704 0d50 0895      		ret
 2705               	.LFE55:
 2707               	.global	Timebase_DownCounter_Set_Value
 2709               	Timebase_DownCounter_Set_Value:
 2710               	.LFB56:
 2711               	.LM300:
 2712               	.LVL167:
 2713               	/* prologue: function */
 2714               	/* frame size = 0 */
 2715               	.LM301:
 2716 0d52 E091 0000 		lds r30,Timebase
 2717 0d56 F091 0000 		lds r31,(Timebase)+1
 2718 0d5a 282F      		mov r18,r24
 2719 0d5c 30E0      		ldi r19,lo8(0)
 2720               	.LVL168:
 2721 0d5e C901      		movw r24,r18
 2722               	.LVL169:
 2723 0d60 B5E0      		ldi r27,5
 2724 0d62 880F      	1:	lsl r24
 2725 0d64 991F      		rol r25
 2726 0d66 BA95      		dec r27
 2727 0d68 01F4      		brne 1b
 2728 0d6a 220F      		lsl r18
 2729 0d6c 331F      		rol r19
 2730               	.LVL170:
 2731 0d6e 821B      		sub r24,r18
 2732 0d70 930B      		sbc r25,r19
 2733 0d72 E80F      		add r30,r24
 2734 0d74 F91F      		adc r31,r25
 2735 0d76 E55B      		subi r30,lo8(-(75))
 2736 0d78 FF4F      		sbci r31,hi8(-(75))
 2737 0d7a 4083      		st Z,r20
 2738 0d7c 5183      		std Z+1,r21
 2739 0d7e 6283      		std Z+2,r22
 2740 0d80 7383      		std Z+3,r23
 2741               	/* epilogue start */
 2742               	.LM302:
 2743 0d82 0895      		ret
 2744               	.LFE56:
 2746               	.global	Timebase_DownCounter_Get_EndValue
 2748               	Timebase_DownCounter_Get_EndValue:
 2749               	.LFB57:
 2750               	.LM303:
 2751               	.LVL171:
 2752               	/* prologue: function */
 2753               	/* frame size = 0 */
 2754               	.LM304:
 2755 0d84 E091 0000 		lds r30,Timebase
 2756 0d88 F091 0000 		lds r31,(Timebase)+1
 2757 0d8c 282F      		mov r18,r24
 2758 0d8e 30E0      		ldi r19,lo8(0)
 2759               	.LVL172:
 2760 0d90 C901      		movw r24,r18
 2761               	.LVL173:
 2762 0d92 55E0      		ldi r21,5
 2763 0d94 880F      	1:	lsl r24
 2764 0d96 991F      		rol r25
 2765 0d98 5A95      		dec r21
 2766 0d9a 01F4      		brne 1b
 2767 0d9c 220F      		lsl r18
 2768 0d9e 331F      		rol r19
 2769               	.LVL174:
 2770 0da0 821B      		sub r24,r18
 2771 0da2 930B      		sbc r25,r19
 2772 0da4 E80F      		add r30,r24
 2773 0da6 F91F      		adc r31,r25
 2774 0da8 E95B      		subi r30,lo8(-(71))
 2775 0daa FF4F      		sbci r31,hi8(-(71))
 2776 0dac 6081      		ld r22,Z
 2777 0dae 7181      		ldd r23,Z+1
 2778               	.LM305:
 2779 0db0 8281      		ldd r24,Z+2
 2780 0db2 9381      		ldd r25,Z+3
 2781               	/* epilogue start */
 2782 0db4 0895      		ret
 2783               	.LFE57:
 2785               	.global	Timebase_DownCounter_Set_EndValue
 2787               	Timebase_DownCounter_Set_EndValue:
 2788               	.LFB58:
 2789               	.LM306:
 2790               	.LVL175:
 2791               	/* prologue: function */
 2792               	/* frame size = 0 */
 2793               	.LM307:
 2794 0db6 E091 0000 		lds r30,Timebase
 2795 0dba F091 0000 		lds r31,(Timebase)+1
 2796 0dbe 282F      		mov r18,r24
 2797 0dc0 30E0      		ldi r19,lo8(0)
 2798               	.LVL176:
 2799 0dc2 C901      		movw r24,r18
 2800               	.LVL177:
 2801 0dc4 B5E0      		ldi r27,5
 2802 0dc6 880F      	1:	lsl r24
 2803 0dc8 991F      		rol r25
 2804 0dca BA95      		dec r27
 2805 0dcc 01F4      		brne 1b
 2806 0dce 220F      		lsl r18
 2807 0dd0 331F      		rol r19
 2808               	.LVL178:
 2809 0dd2 821B      		sub r24,r18
 2810 0dd4 930B      		sbc r25,r19
 2811 0dd6 E80F      		add r30,r24
 2812 0dd8 F91F      		adc r31,r25
 2813 0dda E95B      		subi r30,lo8(-(71))
 2814 0ddc FF4F      		sbci r31,hi8(-(71))
 2815 0dde 4083      		st Z,r20
 2816 0de0 5183      		std Z+1,r21
 2817 0de2 6283      		std Z+2,r22
 2818 0de4 7383      		std Z+3,r23
 2819               	/* epilogue start */
 2820               	.LM308:
 2821 0de6 0895      		ret
 2822               	.LFE58:
 2824               	.global	Timebase_DownCounter_Get_PeriodValue
 2826               	Timebase_DownCounter_Get_PeriodValue:
 2827               	.LFB59:
 2828               	.LM309:
 2829               	.LVL179:
 2830               	/* prologue: function */
 2831               	/* frame size = 0 */
 2832               	.LM310:
 2833 0de8 E091 0000 		lds r30,Timebase
 2834 0dec F091 0000 		lds r31,(Timebase)+1
 2835 0df0 282F      		mov r18,r24
 2836 0df2 30E0      		ldi r19,lo8(0)
 2837               	.LVL180:
 2838 0df4 C901      		movw r24,r18
 2839               	.LVL181:
 2840 0df6 55E0      		ldi r21,5
 2841 0df8 880F      	1:	lsl r24
 2842 0dfa 991F      		rol r25
 2843 0dfc 5A95      		dec r21
 2844 0dfe 01F4      		brne 1b
 2845 0e00 220F      		lsl r18
 2846 0e02 331F      		rol r19
 2847               	.LVL182:
 2848 0e04 821B      		sub r24,r18
 2849 0e06 930B      		sbc r25,r19
 2850 0e08 E80F      		add r30,r24
 2851 0e0a F91F      		adc r31,r25
 2852 0e0c E15B      		subi r30,lo8(-(79))
 2853 0e0e FF4F      		sbci r31,hi8(-(79))
 2854 0e10 6081      		ld r22,Z
 2855 0e12 7181      		ldd r23,Z+1
 2856               	.LM311:
 2857 0e14 8281      		ldd r24,Z+2
 2858 0e16 9381      		ldd r25,Z+3
 2859               	/* epilogue start */
 2860 0e18 0895      		ret
 2861               	.LFE59:
 2863               	.global	Timebase_DownCounter_Set_PeriodValue
 2865               	Timebase_DownCounter_Set_PeriodValue:
 2866               	.LFB60:
 2867               	.LM312:
 2868               	.LVL183:
 2869               	/* prologue: function */
 2870               	/* frame size = 0 */
 2871 0e1a E091 0000 		lds r30,Timebase
 2872 0e1e F091 0000 		lds r31,(Timebase)+1
 2873               	.LM313:
 2874 0e22 77FF      		sbrs r23,7
 2875 0e24 00C0      		rjmp .L160
 2876               	.LM314:
 2877 0e26 90E0      		ldi r25,lo8(0)
 2878               	.LVL184:
 2879 0e28 9C01      		movw r18,r24
 2880 0e2a 55E0      		ldi r21,5
 2881 0e2c 220F      	1:	lsl r18
 2882 0e2e 331F      		rol r19
 2883 0e30 5A95      		dec r21
 2884 0e32 01F4      		brne 1b
 2885 0e34 880F      		lsl r24
 2886 0e36 991F      		rol r25
 2887               	.LVL185:
 2888 0e38 281B      		sub r18,r24
 2889 0e3a 390B      		sbc r19,r25
 2890 0e3c E20F      		add r30,r18
 2891 0e3e F31F      		adc r31,r19
 2892 0e40 E15B      		subi r30,lo8(-(79))
 2893 0e42 FF4F      		sbci r31,hi8(-(79))
 2894 0e44 1082      		st Z,__zero_reg__
 2895 0e46 1182      		std Z+1,__zero_reg__
 2896 0e48 1282      		std Z+2,__zero_reg__
 2897 0e4a 1382      		std Z+3,__zero_reg__
 2898 0e4c 0895      		ret
 2899               	.LVL186:
 2900               	.L160:
 2901               	.LM315:
 2902 0e4e 90E0      		ldi r25,lo8(0)
 2903               	.LVL187:
 2904 0e50 9C01      		movw r18,r24
 2905 0e52 B5E0      		ldi r27,5
 2906 0e54 220F      	1:	lsl r18
 2907 0e56 331F      		rol r19
 2908 0e58 BA95      		dec r27
 2909 0e5a 01F4      		brne 1b
 2910 0e5c 880F      		lsl r24
 2911 0e5e 991F      		rol r25
 2912               	.LVL188:
 2913 0e60 281B      		sub r18,r24
 2914 0e62 390B      		sbc r19,r25
 2915 0e64 E20F      		add r30,r18
 2916 0e66 F31F      		adc r31,r19
 2917 0e68 E15B      		subi r30,lo8(-(79))
 2918 0e6a FF4F      		sbci r31,hi8(-(79))
 2919 0e6c 4083      		st Z,r20
 2920 0e6e 5183      		std Z+1,r21
 2921 0e70 6283      		std Z+2,r22
 2922 0e72 7383      		std Z+3,r23
 2923 0e74 0895      		ret
 2924               	.LFE60:
 2926               	.global	Timebase_DownCounter_Get_Period_Flag
 2928               	Timebase_DownCounter_Get_Period_Flag:
 2929               	.LFB61:
 2930               	.LM316:
 2931               	.LVL189:
 2932               	/* prologue: function */
 2933               	/* frame size = 0 */
 2934               	.LM317:
 2935 0e76 E091 0000 		lds r30,Timebase
 2936 0e7a F091 0000 		lds r31,(Timebase)+1
 2937 0e7e 282F      		mov r18,r24
 2938 0e80 30E0      		ldi r19,lo8(0)
 2939               	.LVL190:
 2940 0e82 C901      		movw r24,r18
 2941               	.LVL191:
 2942 0e84 75E0      		ldi r23,5
 2943 0e86 880F      	1:	lsl r24
 2944 0e88 991F      		rol r25
 2945 0e8a 7A95      		dec r23
 2946 0e8c 01F4      		brne 1b
 2947 0e8e 220F      		lsl r18
 2948 0e90 331F      		rol r19
 2949               	.LVL192:
 2950 0e92 821B      		sub r24,r18
 2951 0e94 930B      		sbc r25,r19
 2952 0e96 E80F      		add r30,r24
 2953 0e98 F91F      		adc r31,r25
 2954 0e9a EA5B      		subi r30,lo8(-(70))
 2955 0e9c FF4F      		sbci r31,hi8(-(70))
 2956 0e9e 8081      		ld r24,Z
 2957               	.LM318:
 2958 0ea0 8170      		andi r24,lo8(1)
 2959               	/* epilogue start */
 2960 0ea2 0895      		ret
 2961               	.LFE61:
 2963               	.global	Timebase_DownCounter_Set_Period_Flag
 2965               	Timebase_DownCounter_Set_Period_Flag:
 2966               	.LFB62:
 2967               	.LM319:
 2968               	.LVL193:
 2969               	/* prologue: function */
 2970               	/* frame size = 0 */
 2971               	.LM320:
 2972 0ea4 E091 0000 		lds r30,Timebase
 2973 0ea8 F091 0000 		lds r31,(Timebase)+1
 2974 0eac 282F      		mov r18,r24
 2975 0eae 30E0      		ldi r19,lo8(0)
 2976               	.LVL194:
 2977 0eb0 C901      		movw r24,r18
 2978               	.LVL195:
 2979 0eb2 B5E0      		ldi r27,5
 2980 0eb4 880F      	1:	lsl r24
 2981 0eb6 991F      		rol r25
 2982 0eb8 BA95      		dec r27
 2983 0eba 01F4      		brne 1b
 2984 0ebc 220F      		lsl r18
 2985 0ebe 331F      		rol r19
 2986               	.LVL196:
 2987 0ec0 821B      		sub r24,r18
 2988 0ec2 930B      		sbc r25,r19
 2989 0ec4 E80F      		add r30,r24
 2990 0ec6 F91F      		adc r31,r25
 2991 0ec8 EA5B      		subi r30,lo8(-(70))
 2992 0eca FF4F      		sbci r31,hi8(-(70))
 2993 0ecc 8081      		ld r24,Z
 2994 0ece 8160      		ori r24,lo8(1)
 2995 0ed0 8083      		st Z,r24
 2996               	/* epilogue start */
 2997               	.LM321:
 2998 0ed2 0895      		ret
 2999               	.LFE62:
 3001               	.global	Timebase_DownCounter_Clear_Period_Flag
 3003               	Timebase_DownCounter_Clear_Period_Flag:
 3004               	.LFB63:
 3005               	.LM322:
 3006               	.LVL197:
 3007               	/* prologue: function */
 3008               	/* frame size = 0 */
 3009               	.LM323:
 3010 0ed4 E091 0000 		lds r30,Timebase
 3011 0ed8 F091 0000 		lds r31,(Timebase)+1
 3012 0edc 282F      		mov r18,r24
 3013 0ede 30E0      		ldi r19,lo8(0)
 3014               	.LVL198:
 3015 0ee0 C901      		movw r24,r18
 3016               	.LVL199:
 3017 0ee2 55E0      		ldi r21,5
 3018 0ee4 880F      	1:	lsl r24
 3019 0ee6 991F      		rol r25
 3020 0ee8 5A95      		dec r21
 3021 0eea 01F4      		brne 1b
 3022 0eec 220F      		lsl r18
 3023 0eee 331F      		rol r19
 3024               	.LVL200:
 3025 0ef0 821B      		sub r24,r18
 3026 0ef2 930B      		sbc r25,r19
 3027 0ef4 E80F      		add r30,r24
 3028 0ef6 F91F      		adc r31,r25
 3029 0ef8 EA5B      		subi r30,lo8(-(70))
 3030 0efa FF4F      		sbci r31,hi8(-(70))
 3031 0efc 8081      		ld r24,Z
 3032 0efe 8E7F      		andi r24,lo8(-2)
 3033 0f00 8083      		st Z,r24
 3034               	/* epilogue start */
 3035               	.LM324:
 3036 0f02 0895      		ret
 3037               	.LFE63:
 3039               	.global	Timebase_DownCounter_Reset
 3041               	Timebase_DownCounter_Reset:
 3042               	.LFB64:
 3043               	.LM325:
 3044               	.LVL201:
 3045               	/* prologue: function */
 3046               	/* frame size = 0 */
 3047               	.LBB539:
 3048               	.LBB540:
 3049               	.LM326:
 3050 0f04 4091 0000 		lds r20,Timebase
 3051 0f08 5091 0000 		lds r21,(Timebase)+1
 3052 0f0c 282F      		mov r18,r24
 3053 0f0e 30E0      		ldi r19,lo8(0)
 3054 0f10 F901      		movw r30,r18
 3055 0f12 A5E0      		ldi r26,5
 3056 0f14 EE0F      	1:	lsl r30
 3057 0f16 FF1F      		rol r31
 3058 0f18 AA95      		dec r26
 3059 0f1a 01F4      		brne 1b
 3060 0f1c 220F      		lsl r18
 3061 0f1e 331F      		rol r19
 3062 0f20 E21B      		sub r30,r18
 3063 0f22 F30B      		sbc r31,r19
 3064 0f24 E40F      		add r30,r20
 3065 0f26 F51F      		adc r31,r21
 3066 0f28 E95B      		subi r30,lo8(-(71))
 3067 0f2a FF4F      		sbci r31,hi8(-(71))
 3068 0f2c 1082      		st Z,__zero_reg__
 3069 0f2e 1182      		std Z+1,__zero_reg__
 3070 0f30 1282      		std Z+2,__zero_reg__
 3071 0f32 1382      		std Z+3,__zero_reg__
 3072               	.LBE540:
 3073               	.LBE539:
 3074               	.LBB541:
 3075               	.LBB542:
 3076               	.LM327:
 3077 0f34 282F      		mov r18,r24
 3078 0f36 30E0      		ldi r19,lo8(0)
 3079 0f38 F901      		movw r30,r18
 3080 0f3a 65E0      		ldi r22,5
 3081 0f3c EE0F      	1:	lsl r30
 3082 0f3e FF1F      		rol r31
 3083 0f40 6A95      		dec r22
 3084 0f42 01F4      		brne 1b
 3085 0f44 220F      		lsl r18
 3086 0f46 331F      		rol r19
 3087 0f48 E21B      		sub r30,r18
 3088 0f4a F30B      		sbc r31,r19
 3089 0f4c E40F      		add r30,r20
 3090 0f4e F51F      		adc r31,r21
 3091 0f50 E55B      		subi r30,lo8(-(75))
 3092 0f52 FF4F      		sbci r31,hi8(-(75))
 3093 0f54 1082      		st Z,__zero_reg__
 3094 0f56 1182      		std Z+1,__zero_reg__
 3095 0f58 1282      		std Z+2,__zero_reg__
 3096 0f5a 1382      		std Z+3,__zero_reg__
 3097               	.LBE542:
 3098               	.LBE541:
 3099               	.LBB543:
 3100               	.LBB544:
 3101               	.LM328:
 3102 0f5c 282F      		mov r18,r24
 3103 0f5e 30E0      		ldi r19,lo8(0)
 3104 0f60 F901      		movw r30,r18
 3105 0f62 B5E0      		ldi r27,5
 3106 0f64 EE0F      	1:	lsl r30
 3107 0f66 FF1F      		rol r31
 3108 0f68 BA95      		dec r27
 3109 0f6a 01F4      		brne 1b
 3110 0f6c 220F      		lsl r18
 3111 0f6e 331F      		rol r19
 3112 0f70 E21B      		sub r30,r18
 3113 0f72 F30B      		sbc r31,r19
 3114 0f74 E40F      		add r30,r20
 3115 0f76 F51F      		adc r31,r21
 3116 0f78 EA5B      		subi r30,lo8(-(70))
 3117 0f7a FF4F      		sbci r31,hi8(-(70))
 3118 0f7c 9081      		ld r25,Z
 3119 0f7e 917E      		andi r25,lo8(-31)
 3120 0f80 9083      		st Z,r25
 3121               	.LBE544:
 3122               	.LBE543:
 3123               	.LBB545:
 3124               	.LBB546:
 3125               	.LM329:
 3126 0f82 282F      		mov r18,r24
 3127 0f84 30E0      		ldi r19,lo8(0)
 3128 0f86 F901      		movw r30,r18
 3129 0f88 75E0      		ldi r23,5
 3130 0f8a EE0F      	1:	lsl r30
 3131 0f8c FF1F      		rol r31
 3132 0f8e 7A95      		dec r23
 3133 0f90 01F4      		brne 1b
 3134 0f92 220F      		lsl r18
 3135 0f94 331F      		rol r19
 3136 0f96 E21B      		sub r30,r18
 3137 0f98 F30B      		sbc r31,r19
 3138 0f9a E40F      		add r30,r20
 3139 0f9c F51F      		adc r31,r21
 3140 0f9e EA5B      		subi r30,lo8(-(70))
 3141 0fa0 FF4F      		sbci r31,hi8(-(70))
 3142 0fa2 8081      		ld r24,Z
 3143               	.LVL202:
 3144 0fa4 8E7F      		andi r24,lo8(-2)
 3145 0fa6 8083      		st Z,r24
 3146               	/* epilogue start */
 3147               	.LBE546:
 3148               	.LBE545:
 3149               	.LM330:
 3150 0fa8 0895      		ret
 3151               	.LFE64:
 3153               	.global	Timebase_DownCounter_Clear_All_Flags
 3155               	Timebase_DownCounter_Clear_All_Flags:
 3156               	.LFB65:
 3157               	.LM331:
 3158               	.LVL203:
 3159               	/* prologue: function */
 3160               	/* frame size = 0 */
 3161               	.LBB547:
 3162               	.LBB548:
 3163               	.LBB549:
 3164               	.LBB550:
 3165               	.LM332:
 3166 0faa 4091 0000 		lds r20,Timebase
 3167 0fae 5091 0000 		lds r21,(Timebase)+1
 3168 0fb2 282F      		mov r18,r24
 3169 0fb4 30E0      		ldi r19,lo8(0)
 3170 0fb6 F901      		movw r30,r18
 3171 0fb8 95E0      		ldi r25,5
 3172 0fba EE0F      	1:	lsl r30
 3173 0fbc FF1F      		rol r31
 3174 0fbe 9A95      		dec r25
 3175 0fc0 01F4      		brne 1b
 3176 0fc2 220F      		lsl r18
 3177 0fc4 331F      		rol r19
 3178 0fc6 E21B      		sub r30,r18
 3179 0fc8 F30B      		sbc r31,r19
 3180 0fca E40F      		add r30,r20
 3181 0fcc F51F      		adc r31,r21
 3182 0fce E95B      		subi r30,lo8(-(71))
 3183 0fd0 FF4F      		sbci r31,hi8(-(71))
 3184 0fd2 1082      		st Z,__zero_reg__
 3185 0fd4 1182      		std Z+1,__zero_reg__
 3186 0fd6 1282      		std Z+2,__zero_reg__
 3187 0fd8 1382      		std Z+3,__zero_reg__
 3188               	.LBE550:
 3189               	.LBE549:
 3190               	.LBB551:
 3191               	.LBB552:
 3192               	.LM333:
 3193 0fda 282F      		mov r18,r24
 3194 0fdc 30E0      		ldi r19,lo8(0)
 3195 0fde F901      		movw r30,r18
 3196 0fe0 A5E0      		ldi r26,5
 3197 0fe2 EE0F      	1:	lsl r30
 3198 0fe4 FF1F      		rol r31
 3199 0fe6 AA95      		dec r26
 3200 0fe8 01F4      		brne 1b
 3201 0fea 220F      		lsl r18
 3202 0fec 331F      		rol r19
 3203 0fee E21B      		sub r30,r18
 3204 0ff0 F30B      		sbc r31,r19
 3205 0ff2 E40F      		add r30,r20
 3206 0ff4 F51F      		adc r31,r21
 3207 0ff6 E55B      		subi r30,lo8(-(75))
 3208 0ff8 FF4F      		sbci r31,hi8(-(75))
 3209 0ffa 1082      		st Z,__zero_reg__
 3210 0ffc 1182      		std Z+1,__zero_reg__
 3211 0ffe 1282      		std Z+2,__zero_reg__
 3212 1000 1382      		std Z+3,__zero_reg__
 3213               	.LBE552:
 3214               	.LBE551:
 3215               	.LBB553:
 3216               	.LBB554:
 3217               	.LM334:
 3218 1002 282F      		mov r18,r24
 3219 1004 30E0      		ldi r19,lo8(0)
 3220 1006 F901      		movw r30,r18
 3221 1008 65E0      		ldi r22,5
 3222 100a EE0F      	1:	lsl r30
 3223 100c FF1F      		rol r31
 3224 100e 6A95      		dec r22
 3225 1010 01F4      		brne 1b
 3226 1012 220F      		lsl r18
 3227 1014 331F      		rol r19
 3228 1016 E21B      		sub r30,r18
 3229 1018 F30B      		sbc r31,r19
 3230 101a E40F      		add r30,r20
 3231 101c F51F      		adc r31,r21
 3232 101e EA5B      		subi r30,lo8(-(70))
 3233 1020 FF4F      		sbci r31,hi8(-(70))
 3234 1022 9081      		ld r25,Z
 3235 1024 917E      		andi r25,lo8(-31)
 3236 1026 9083      		st Z,r25
 3237               	.LBE554:
 3238               	.LBE553:
 3239               	.LBB555:
 3240               	.LBB556:
 3241               	.LM335:
 3242 1028 282F      		mov r18,r24
 3243 102a 30E0      		ldi r19,lo8(0)
 3244 102c F901      		movw r30,r18
 3245 102e 85E0      		ldi r24,5
 3246 1030 EE0F      	1:	lsl r30
 3247 1032 FF1F      		rol r31
 3248 1034 8A95      		dec r24
 3249 1036 01F4      		brne 1b
 3250               	.LVL204:
 3251 1038 220F      		lsl r18
 3252 103a 331F      		rol r19
 3253 103c E21B      		sub r30,r18
 3254 103e F30B      		sbc r31,r19
 3255 1040 E40F      		add r30,r20
 3256 1042 F51F      		adc r31,r21
 3257 1044 EA5B      		subi r30,lo8(-(70))
 3258 1046 FF4F      		sbci r31,hi8(-(70))
 3259 1048 8081      		ld r24,Z
 3260 104a 8E7F      		andi r24,lo8(-2)
 3261 104c 8083      		st Z,r24
 3262               	/* epilogue start */
 3263               	.LBE556:
 3264               	.LBE555:
 3265               	.LBE548:
 3266               	.LBE547:
 3267               	.LM336:
 3268 104e 0895      		ret
 3269               	.LFE65:
 3271               	.global	Timebase_DownCounter_Start
 3273               	Timebase_DownCounter_Start:
 3274               	.LFB66:
 3275               	.LM337:
 3276               	.LVL205:
 3277               	/* prologue: function */
 3278               	/* frame size = 0 */
 3279 1050 482F      		mov r20,r24
 3280               	.LBB557:
 3281               	.LBB558:
 3282               	.LM338:
 3283 1052 2091 0000 		lds r18,Timebase
 3284 1056 3091 0000 		lds r19,(Timebase)+1
 3285               	.LBE558:
 3286               	.LBE557:
 3287               	.LM339:
 3288 105a 90E0      		ldi r25,lo8(0)
 3289 105c FC01      		movw r30,r24
 3290               	.LVL206:
 3291 105e 75E0      		ldi r23,5
 3292 1060 EE0F      	1:	lsl r30
 3293 1062 FF1F      		rol r31
 3294 1064 7A95      		dec r23
 3295 1066 01F4      		brne 1b
 3296 1068 880F      		lsl r24
 3297 106a 991F      		rol r25
 3298 106c E81B      		sub r30,r24
 3299 106e F90B      		sbc r31,r25
 3300 1070 E20F      		add r30,r18
 3301 1072 F31F      		adc r31,r19
 3302 1074 EA5B      		subi r30,lo8(-(70))
 3303 1076 FF4F      		sbci r31,hi8(-(70))
 3304 1078 8081      		ld r24,Z
 3305 107a 8695      		lsr r24
 3306 107c 8F70      		andi r24,lo8(15)
 3307 107e 8130      		cpi r24,lo8(1)
 3308 1080 01F0      		breq .L175
 3309               	.LBB559:
 3310               	.LBB560:
 3311               	.LM340:
 3312 1082 842F      		mov r24,r20
 3313 1084 90E0      		ldi r25,lo8(0)
 3314 1086 FC01      		movw r30,r24
 3315 1088 55E0      		ldi r21,5
 3316 108a EE0F      	1:	lsl r30
 3317 108c FF1F      		rol r31
 3318 108e 5A95      		dec r21
 3319 1090 01F4      		brne 1b
 3320 1092 880F      		lsl r24
 3321 1094 991F      		rol r25
 3322               	.LVL207:
 3323 1096 E81B      		sub r30,r24
 3324 1098 F90B      		sbc r31,r25
 3325 109a E20F      		add r30,r18
 3326 109c F31F      		adc r31,r19
 3327 109e EA5B      		subi r30,lo8(-(70))
 3328 10a0 FF4F      		sbci r31,hi8(-(70))
 3329 10a2 8081      		ld r24,Z
 3330 10a4 817E      		andi r24,lo8(-31)
 3331 10a6 8260      		ori r24,lo8(2)
 3332 10a8 8083      		st Z,r24
 3333               	.LVL208:
 3334               	.L175:
 3335 10aa 0895      		ret
 3336               	.LBE560:
 3337               	.LBE559:
 3338               	.LFE66:
 3340               	.global	Timebase_DownCounter_Stop
 3342               	Timebase_DownCounter_Stop:
 3343               	.LFB67:
 3344               	.LM341:
 3345               	.LVL209:
 3346               	/* prologue: function */
 3347               	/* frame size = 0 */
 3348 10ac 482F      		mov r20,r24
 3349               	.LBB561:
 3350               	.LBB562:
 3351               	.LM342:
 3352 10ae 2091 0000 		lds r18,Timebase
 3353 10b2 3091 0000 		lds r19,(Timebase)+1
 3354               	.LBE562:
 3355               	.LBE561:
 3356               	.LM343:
 3357 10b6 90E0      		ldi r25,lo8(0)
 3358 10b8 FC01      		movw r30,r24
 3359               	.LVL210:
 3360 10ba 65E0      		ldi r22,5
 3361 10bc EE0F      	1:	lsl r30
 3362 10be FF1F      		rol r31
 3363 10c0 6A95      		dec r22
 3364 10c2 01F4      		brne 1b
 3365 10c4 880F      		lsl r24
 3366 10c6 991F      		rol r25
 3367 10c8 E81B      		sub r30,r24
 3368 10ca F90B      		sbc r31,r25
 3369 10cc E20F      		add r30,r18
 3370 10ce F31F      		adc r31,r19
 3371 10d0 EA5B      		subi r30,lo8(-(70))
 3372 10d2 FF4F      		sbci r31,hi8(-(70))
 3373 10d4 8081      		ld r24,Z
 3374 10d6 8695      		lsr r24
 3375 10d8 8F70      		andi r24,lo8(15)
 3376 10da 8230      		cpi r24,lo8(2)
 3377 10dc 01F0      		breq .L178
 3378               	.LBB563:
 3379               	.LBB564:
 3380               	.LM344:
 3381 10de 842F      		mov r24,r20
 3382 10e0 90E0      		ldi r25,lo8(0)
 3383 10e2 FC01      		movw r30,r24
 3384 10e4 B5E0      		ldi r27,5
 3385 10e6 EE0F      	1:	lsl r30
 3386 10e8 FF1F      		rol r31
 3387 10ea BA95      		dec r27
 3388 10ec 01F4      		brne 1b
 3389 10ee 880F      		lsl r24
 3390 10f0 991F      		rol r25
 3391 10f2 E81B      		sub r30,r24
 3392 10f4 F90B      		sbc r31,r25
 3393 10f6 E20F      		add r30,r18
 3394 10f8 F31F      		adc r31,r19
 3395 10fa EA5B      		subi r30,lo8(-(70))
 3396 10fc FF4F      		sbci r31,hi8(-(70))
 3397 10fe 8081      		ld r24,Z
 3398 1100 817E      		andi r24,lo8(-31)
 3399 1102 8460      		ori r24,lo8(4)
 3400 1104 8083      		st Z,r24
 3401               	.L178:
 3402 1106 0895      		ret
 3403               	.LBE564:
 3404               	.LBE563:
 3405               	.LFE67:
 3407               	.global	Timebase_DownCounter_Set_Securely
 3409               	Timebase_DownCounter_Set_Securely:
 3410               	.LFB68:
 3411               	.LM345:
 3412               	.LVL211:
 3413 1108 DF92      		push r13
 3414 110a EF92      		push r14
 3415 110c FF92      		push r15
 3416 110e 0F93      		push r16
 3417 1110 1F93      		push r17
 3418               	/* prologue: function */
 3419               	/* frame size = 0 */
 3420 1112 D82E      		mov r13,r24
 3421 1114 7A01      		movw r14,r20
 3422 1116 8B01      		movw r16,r22
 3423               	.LBB565:
 3424               	.LBB566:
 3425               	.LM346:
 3426 1118 A091 0000 		lds r26,Timebase
 3427 111c B091 0000 		lds r27,(Timebase)+1
 3428               	.LBE566:
 3429               	.LBE565:
 3430               	.LM347:
 3431 1120 90E0      		ldi r25,lo8(0)
 3432 1122 FC01      		movw r30,r24
 3433               	.LVL212:
 3434 1124 55E0      		ldi r21,5
 3435 1126 EE0F      	1:	lsl r30
 3436 1128 FF1F      		rol r31
 3437 112a 5A95      		dec r21
 3438 112c 01F4      		brne 1b
 3439 112e 880F      		lsl r24
 3440 1130 991F      		rol r25
 3441               	.LVL213:
 3442 1132 E81B      		sub r30,r24
 3443 1134 F90B      		sbc r31,r25
 3444 1136 EA0F      		add r30,r26
 3445 1138 FB1F      		adc r31,r27
 3446 113a EA5B      		subi r30,lo8(-(70))
 3447 113c FF4F      		sbci r31,hi8(-(70))
 3448 113e 8081      		ld r24,Z
 3449 1140 8695      		lsr r24
 3450 1142 8F70      		andi r24,lo8(15)
 3451 1144 01F0      		breq .+2
 3452 1146 00C0      		rjmp .L181
 3453               	.LBB567:
 3454               	.LBB568:
 3455               	.LM348:
 3456 1148 8D2D      		mov r24,r13
 3457 114a 90E0      		ldi r25,lo8(0)
 3458 114c FC01      		movw r30,r24
 3459 114e 35E0      		ldi r19,5
 3460 1150 EE0F      	1:	lsl r30
 3461 1152 FF1F      		rol r31
 3462 1154 3A95      		dec r19
 3463 1156 01F4      		brne 1b
 3464 1158 880F      		lsl r24
 3465 115a 991F      		rol r25
 3466 115c E81B      		sub r30,r24
 3467 115e F90B      		sbc r31,r25
 3468 1160 EA0F      		add r30,r26
 3469 1162 FB1F      		adc r31,r27
 3470 1164 E55B      		subi r30,lo8(-(75))
 3471 1166 FF4F      		sbci r31,hi8(-(75))
 3472 1168 E082      		st Z,r14
 3473 116a F182      		std Z+1,r15
 3474 116c 0283      		std Z+2,r16
 3475 116e 1383      		std Z+3,r17
 3476               	.LBE568:
 3477               	.LBE567:
 3478               	.LBB569:
 3479               	.LBB570:
 3480               	.LM349:
 3481 1170 1A96      		adiw r26,10
 3482 1172 2D91      		ld r18,X+
 3483 1174 3D91      		ld r19,X+
 3484 1176 4D91      		ld r20,X+
 3485 1178 5C91      		ld r21,X
 3486 117a 1D97      		sbiw r26,10+3
 3487               	.LBE570:
 3488               	.LBE569:
 3489               	.LBB571:
 3490               	.LBB572:
 3491               	.LM350:
 3492 117c 8D2D      		mov r24,r13
 3493 117e 90E0      		ldi r25,lo8(0)
 3494 1180 FC01      		movw r30,r24
 3495 1182 75E0      		ldi r23,5
 3496 1184 EE0F      	1:	lsl r30
 3497 1186 FF1F      		rol r31
 3498 1188 7A95      		dec r23
 3499 118a 01F4      		brne 1b
 3500 118c 880F      		lsl r24
 3501 118e 991F      		rol r25
 3502 1190 E81B      		sub r30,r24
 3503 1192 F90B      		sbc r31,r25
 3504 1194 EA0F      		add r30,r26
 3505 1196 FB1F      		adc r31,r27
 3506 1198 E95B      		subi r30,lo8(-(71))
 3507 119a FF4F      		sbci r31,hi8(-(71))
 3508 119c 2E0D      		add r18,r14
 3509 119e 3F1D      		adc r19,r15
 3510 11a0 401F      		adc r20,r16
 3511 11a2 511F      		adc r21,r17
 3512 11a4 2083      		st Z,r18
 3513 11a6 3183      		std Z+1,r19
 3514 11a8 4283      		std Z+2,r20
 3515 11aa 5383      		std Z+3,r21
 3516               	.LBE572:
 3517               	.LBE571:
 3518               	.LBB573:
 3519               	.LBB574:
 3520               	.LM351:
 3521 11ac 8D2D      		mov r24,r13
 3522 11ae 90E0      		ldi r25,lo8(0)
 3523 11b0 FC01      		movw r30,r24
 3524 11b2 25E0      		ldi r18,5
 3525 11b4 EE0F      	1:	lsl r30
 3526 11b6 FF1F      		rol r31
 3527 11b8 2A95      		dec r18
 3528 11ba 01F4      		brne 1b
 3529 11bc 880F      		lsl r24
 3530 11be 991F      		rol r25
 3531 11c0 E81B      		sub r30,r24
 3532 11c2 F90B      		sbc r31,r25
 3533 11c4 EA0F      		add r30,r26
 3534 11c6 FB1F      		adc r31,r27
 3535 11c8 EA5B      		subi r30,lo8(-(70))
 3536 11ca FF4F      		sbci r31,hi8(-(70))
 3537 11cc 8081      		ld r24,Z
 3538 11ce 8695      		lsr r24
 3539 11d0 8F70      		andi r24,lo8(15)
 3540 11d2 8130      		cpi r24,lo8(1)
 3541 11d4 01F0      		breq .L181
 3542               	.LBB575:
 3543               	.LBB576:
 3544               	.LM352:
 3545 11d6 8D2D      		mov r24,r13
 3546 11d8 90E0      		ldi r25,lo8(0)
 3547 11da FC01      		movw r30,r24
 3548 11dc 15E0      		ldi r17,5
 3549 11de EE0F      	1:	lsl r30
 3550 11e0 FF1F      		rol r31
 3551 11e2 1A95      		dec r17
 3552 11e4 01F4      		brne 1b
 3553 11e6 880F      		lsl r24
 3554 11e8 991F      		rol r25
 3555 11ea E81B      		sub r30,r24
 3556 11ec F90B      		sbc r31,r25
 3557 11ee EA0F      		add r30,r26
 3558 11f0 FB1F      		adc r31,r27
 3559 11f2 EA5B      		subi r30,lo8(-(70))
 3560 11f4 FF4F      		sbci r31,hi8(-(70))
 3561 11f6 8081      		ld r24,Z
 3562 11f8 817E      		andi r24,lo8(-31)
 3563 11fa 8260      		ori r24,lo8(2)
 3564 11fc 8083      		st Z,r24
 3565               	.L181:
 3566               	/* epilogue start */
 3567               	.LBE576:
 3568               	.LBE575:
 3569               	.LBE574:
 3570               	.LBE573:
 3571               	.LM353:
 3572 11fe 1F91      		pop r17
 3573 1200 0F91      		pop r16
 3574 1202 FF90      		pop r15
 3575 1204 EF90      		pop r14
 3576               	.LVL214:
 3577 1206 DF90      		pop r13
 3578               	.LVL215:
 3579 1208 0895      		ret
 3580               	.LFE68:
 3582               	.global	Timebase_DownCounter_Set_Forcefully
 3584               	Timebase_DownCounter_Set_Forcefully:
 3585               	.LFB69:
 3586               	.LM354:
 3587               	.LVL216:
 3588               	/* prologue: function */
 3589               	/* frame size = 0 */
 3590               	.LBB577:
 3591               	.LBB578:
 3592               	.LBB579:
 3593               	.LBB580:
 3594               	.LM355:
 3595 120a A091 0000 		lds r26,Timebase
 3596 120e B091 0000 		lds r27,(Timebase)+1
 3597 1212 282F      		mov r18,r24
 3598 1214 30E0      		ldi r19,lo8(0)
 3599 1216 F901      		movw r30,r18
 3600 1218 95E0      		ldi r25,5
 3601 121a EE0F      	1:	lsl r30
 3602 121c FF1F      		rol r31
 3603 121e 9A95      		dec r25
 3604 1220 01F4      		brne 1b
 3605 1222 220F      		lsl r18
 3606 1224 331F      		rol r19
 3607 1226 E21B      		sub r30,r18
 3608 1228 F30B      		sbc r31,r19
 3609 122a EA0F      		add r30,r26
 3610 122c FB1F      		adc r31,r27
 3611 122e E95B      		subi r30,lo8(-(71))
 3612 1230 FF4F      		sbci r31,hi8(-(71))
 3613 1232 1082      		st Z,__zero_reg__
 3614 1234 1182      		std Z+1,__zero_reg__
 3615 1236 1282      		std Z+2,__zero_reg__
 3616 1238 1382      		std Z+3,__zero_reg__
 3617               	.LBE580:
 3618               	.LBE579:
 3619               	.LBB581:
 3620               	.LBB582:
 3621               	.LM356:
 3622 123a 282F      		mov r18,r24
 3623 123c 30E0      		ldi r19,lo8(0)
 3624 123e F901      		movw r30,r18
 3625 1240 95E0      		ldi r25,5
 3626 1242 EE0F      	1:	lsl r30
 3627 1244 FF1F      		rol r31
 3628 1246 9A95      		dec r25
 3629 1248 01F4      		brne 1b
 3630 124a 220F      		lsl r18
 3631 124c 331F      		rol r19
 3632 124e E21B      		sub r30,r18
 3633 1250 F30B      		sbc r31,r19
 3634 1252 EA0F      		add r30,r26
 3635 1254 FB1F      		adc r31,r27
 3636 1256 E55B      		subi r30,lo8(-(75))
 3637 1258 FF4F      		sbci r31,hi8(-(75))
 3638 125a 1082      		st Z,__zero_reg__
 3639 125c 1182      		std Z+1,__zero_reg__
 3640 125e 1282      		std Z+2,__zero_reg__
 3641 1260 1382      		std Z+3,__zero_reg__
 3642               	.LBE582:
 3643               	.LBE581:
 3644               	.LBB583:
 3645               	.LBB584:
 3646               	.LM357:
 3647 1262 282F      		mov r18,r24
 3648 1264 30E0      		ldi r19,lo8(0)
 3649 1266 F901      		movw r30,r18
 3650 1268 95E0      		ldi r25,5
 3651 126a EE0F      	1:	lsl r30
 3652 126c FF1F      		rol r31
 3653 126e 9A95      		dec r25
 3654 1270 01F4      		brne 1b
 3655 1272 220F      		lsl r18
 3656 1274 331F      		rol r19
 3657 1276 E21B      		sub r30,r18
 3658 1278 F30B      		sbc r31,r19
 3659 127a EA0F      		add r30,r26
 3660 127c FB1F      		adc r31,r27
 3661 127e EA5B      		subi r30,lo8(-(70))
 3662 1280 FF4F      		sbci r31,hi8(-(70))
 3663 1282 9081      		ld r25,Z
 3664 1284 917E      		andi r25,lo8(-31)
 3665 1286 9083      		st Z,r25
 3666               	.LBE584:
 3667               	.LBE583:
 3668               	.LBB585:
 3669               	.LBB586:
 3670               	.LM358:
 3671 1288 282F      		mov r18,r24
 3672 128a 30E0      		ldi r19,lo8(0)
 3673 128c F901      		movw r30,r18
 3674 128e 95E0      		ldi r25,5
 3675 1290 EE0F      	1:	lsl r30
 3676 1292 FF1F      		rol r31
 3677 1294 9A95      		dec r25
 3678 1296 01F4      		brne 1b
 3679 1298 220F      		lsl r18
 3680 129a 331F      		rol r19
 3681 129c E21B      		sub r30,r18
 3682 129e F30B      		sbc r31,r19
 3683 12a0 EA0F      		add r30,r26
 3684 12a2 FB1F      		adc r31,r27
 3685 12a4 EA5B      		subi r30,lo8(-(70))
 3686 12a6 FF4F      		sbci r31,hi8(-(70))
 3687 12a8 9081      		ld r25,Z
 3688 12aa 9E7F      		andi r25,lo8(-2)
 3689 12ac 9083      		st Z,r25
 3690               	.LBE586:
 3691               	.LBE585:
 3692               	.LBE578:
 3693               	.LBE577:
 3694               	.LM359:
 3695 12ae 0E94 0000 		call Timebase_DownCounter_Set_Securely
 3696               	.LVL217:
 3697               	/* epilogue start */
 3698               	.LM360:
 3699 12b2 0895      		ret
 3700               	.LFE69:
 3702               	.global	Timebase_DownCounter_Update
 3704               	Timebase_DownCounter_Update:
 3705               	.LFB70:
 3706               	.LM361:
 3707               	.LVL218:
 3708 12b4 DF92      		push r13
 3709 12b6 EF92      		push r14
 3710 12b8 FF92      		push r15
 3711 12ba 0F93      		push r16
 3712 12bc 1F93      		push r17
 3713               	/* prologue: function */
 3714               	/* frame size = 0 */
 3715 12be D82E      		mov r13,r24
 3716               	.LBB587:
 3717               	.LBB588:
 3718               	.LM362:
 3719 12c0 A091 0000 		lds r26,Timebase
 3720 12c4 B091 0000 		lds r27,(Timebase)+1
 3721 12c8 90E0      		ldi r25,lo8(0)
 3722 12ca FC01      		movw r30,r24
 3723               	.LVL219:
 3724 12cc 55E0      		ldi r21,5
 3725 12ce EE0F      	1:	lsl r30
 3726 12d0 FF1F      		rol r31
 3727 12d2 5A95      		dec r21
 3728 12d4 01F4      		brne 1b
 3729 12d6 880F      		lsl r24
 3730 12d8 991F      		rol r25
 3731 12da E81B      		sub r30,r24
 3732 12dc F90B      		sbc r31,r25
 3733 12de EA0F      		add r30,r26
 3734 12e0 FB1F      		adc r31,r27
 3735 12e2 EA5B      		subi r30,lo8(-(70))
 3736 12e4 FF4F      		sbci r31,hi8(-(70))
 3737 12e6 E081      		ld r30,Z
 3738 12e8 E695      		lsr r30
 3739 12ea EF70      		andi r30,lo8(15)
 3740               	.LBE588:
 3741               	.LBE587:
 3742               	.LM363:
 3743 12ec E130      		cpi r30,lo8(1)
 3744 12ee 01F0      		breq .+2
 3745 12f0 00C0      		rjmp .L185
 3746               	.LBB589:
 3747               	.LBB590:
 3748               	.LM364:
 3749 12f2 1A96      		adiw r26,10
 3750 12f4 ED90      		ld r14,X+
 3751 12f6 FD90      		ld r15,X+
 3752 12f8 0D91      		ld r16,X+
 3753 12fa 1C91      		ld r17,X
 3754 12fc 1D97      		sbiw r26,10+3
 3755               	.LBE590:
 3756               	.LBE589:
 3757               	.LM365:
 3758 12fe 8D2D      		mov r24,r13
 3759 1300 90E0      		ldi r25,lo8(0)
 3760 1302 FC01      		movw r30,r24
 3761 1304 35E0      		ldi r19,5
 3762 1306 EE0F      	1:	lsl r30
 3763 1308 FF1F      		rol r31
 3764 130a 3A95      		dec r19
 3765 130c 01F4      		brne 1b
 3766 130e 880F      		lsl r24
 3767 1310 991F      		rol r25
 3768 1312 E81B      		sub r30,r24
 3769 1314 F90B      		sbc r31,r25
 3770 1316 EA0F      		add r30,r26
 3771 1318 FB1F      		adc r31,r27
 3772 131a E95B      		subi r30,lo8(-(71))
 3773 131c FF4F      		sbci r31,hi8(-(71))
 3774 131e 2081      		ld r18,Z
 3775 1320 3181      		ldd r19,Z+1
 3776 1322 4281      		ldd r20,Z+2
 3777 1324 5381      		ldd r21,Z+3
 3778 1326 2E19      		sub r18,r14
 3779 1328 3F09      		sbc r19,r15
 3780 132a 400B      		sbc r20,r16
 3781 132c 510B      		sbc r21,r17
 3782               	.LBB591:
 3783               	.LBB592:
 3784               	.LM366:
 3785 132e 8D2D      		mov r24,r13
 3786 1330 90E0      		ldi r25,lo8(0)
 3787 1332 FC01      		movw r30,r24
 3788 1334 75E0      		ldi r23,5
 3789 1336 EE0F      	1:	lsl r30
 3790 1338 FF1F      		rol r31
 3791 133a 7A95      		dec r23
 3792 133c 01F4      		brne 1b
 3793 133e 880F      		lsl r24
 3794 1340 991F      		rol r25
 3795 1342 E81B      		sub r30,r24
 3796 1344 F90B      		sbc r31,r25
 3797 1346 EA0F      		add r30,r26
 3798 1348 FB1F      		adc r31,r27
 3799 134a E55B      		subi r30,lo8(-(75))
 3800 134c FF4F      		sbci r31,hi8(-(75))
 3801 134e 2083      		st Z,r18
 3802 1350 3183      		std Z+1,r19
 3803 1352 4283      		std Z+2,r20
 3804 1354 5383      		std Z+3,r21
 3805               	.LBE592:
 3806               	.LBE591:
 3807               	.LM367:
 3808 1356 1216      		cp __zero_reg__,r18
 3809 1358 1306      		cpc __zero_reg__,r19
 3810 135a 1406      		cpc __zero_reg__,r20
 3811 135c 1506      		cpc __zero_reg__,r21
 3812 135e 04F4      		brge .+2
 3813 1360 00C0      		rjmp .L187
 3814               	.LBB593:
 3815               	.LBB594:
 3816               	.LBB595:
 3817               	.LBB596:
 3818               	.LM368:
 3819 1362 8D2D      		mov r24,r13
 3820 1364 90E0      		ldi r25,lo8(0)
 3821 1366 FC01      		movw r30,r24
 3822 1368 35E0      		ldi r19,5
 3823 136a EE0F      	1:	lsl r30
 3824 136c FF1F      		rol r31
 3825 136e 3A95      		dec r19
 3826 1370 01F4      		brne 1b
 3827 1372 880F      		lsl r24
 3828 1374 991F      		rol r25
 3829 1376 E81B      		sub r30,r24
 3830 1378 F90B      		sbc r31,r25
 3831 137a EA0F      		add r30,r26
 3832 137c FB1F      		adc r31,r27
 3833 137e E95B      		subi r30,lo8(-(71))
 3834 1380 FF4F      		sbci r31,hi8(-(71))
 3835 1382 1082      		st Z,__zero_reg__
 3836 1384 1182      		std Z+1,__zero_reg__
 3837 1386 1282      		std Z+2,__zero_reg__
 3838 1388 1382      		std Z+3,__zero_reg__
 3839               	.LBE596:
 3840               	.LBE595:
 3841               	.LBB597:
 3842               	.LBB598:
 3843               	.LM369:
 3844 138a 8D2D      		mov r24,r13
 3845 138c 90E0      		ldi r25,lo8(0)
 3846 138e FC01      		movw r30,r24
 3847 1390 05E0      		ldi r16,5
 3848 1392 EE0F      	1:	lsl r30
 3849 1394 FF1F      		rol r31
 3850 1396 0A95      		dec r16
 3851 1398 01F4      		brne 1b
 3852 139a 880F      		lsl r24
 3853 139c 991F      		rol r25
 3854 139e E81B      		sub r30,r24
 3855 13a0 F90B      		sbc r31,r25
 3856 13a2 EA0F      		add r30,r26
 3857 13a4 FB1F      		adc r31,r27
 3858 13a6 E55B      		subi r30,lo8(-(75))
 3859 13a8 FF4F      		sbci r31,hi8(-(75))
 3860 13aa 1082      		st Z,__zero_reg__
 3861 13ac 1182      		std Z+1,__zero_reg__
 3862 13ae 1282      		std Z+2,__zero_reg__
 3863 13b0 1382      		std Z+3,__zero_reg__
 3864               	.LBE598:
 3865               	.LBE597:
 3866               	.LBB599:
 3867               	.LBB600:
 3868               	.LM370:
 3869 13b2 8D2D      		mov r24,r13
 3870 13b4 90E0      		ldi r25,lo8(0)
 3871 13b6 FC01      		movw r30,r24
 3872 13b8 75E0      		ldi r23,5
 3873 13ba EE0F      	1:	lsl r30
 3874 13bc FF1F      		rol r31
 3875 13be 7A95      		dec r23
 3876 13c0 01F4      		brne 1b
 3877 13c2 880F      		lsl r24
 3878 13c4 991F      		rol r25
 3879 13c6 E81B      		sub r30,r24
 3880 13c8 F90B      		sbc r31,r25
 3881 13ca EA0F      		add r30,r26
 3882 13cc FB1F      		adc r31,r27
 3883 13ce EA5B      		subi r30,lo8(-(70))
 3884 13d0 FF4F      		sbci r31,hi8(-(70))
 3885 13d2 8081      		ld r24,Z
 3886 13d4 8E7F      		andi r24,lo8(-2)
 3887 13d6 8083      		st Z,r24
 3888               	.LBE600:
 3889               	.LBE599:
 3890               	.LBE594:
 3891               	.LBE593:
 3892               	.LBB601:
 3893               	.LBB602:
 3894               	.LM371:
 3895 13d8 8D2D      		mov r24,r13
 3896 13da 90E0      		ldi r25,lo8(0)
 3897 13dc FC01      		movw r30,r24
 3898 13de 55E0      		ldi r21,5
 3899 13e0 EE0F      	1:	lsl r30
 3900 13e2 FF1F      		rol r31
 3901 13e4 5A95      		dec r21
 3902 13e6 01F4      		brne 1b
 3903 13e8 880F      		lsl r24
 3904 13ea 991F      		rol r25
 3905 13ec E81B      		sub r30,r24
 3906 13ee F90B      		sbc r31,r25
 3907 13f0 EA0F      		add r30,r26
 3908 13f2 FB1F      		adc r31,r27
 3909 13f4 EA5B      		subi r30,lo8(-(70))
 3910 13f6 FF4F      		sbci r31,hi8(-(70))
 3911 13f8 8081      		ld r24,Z
 3912 13fa 817E      		andi r24,lo8(-31)
 3913 13fc 8860      		ori r24,lo8(8)
 3914 13fe 8083      		st Z,r24
 3915 1400 00C0      		rjmp .L187
 3916               	.L185:
 3917               	.LBE602:
 3918               	.LBE601:
 3919               	.LM372:
 3920 1402 E230      		cpi r30,lo8(2)
 3921 1404 01F4      		brne .L187
 3922               	.LBB603:
 3923               	.LBB604:
 3924               	.LM373:
 3925 1406 1A96      		adiw r26,10
 3926 1408 4D91      		ld r20,X+
 3927 140a 5D91      		ld r21,X+
 3928 140c 6D91      		ld r22,X+
 3929 140e 7C91      		ld r23,X
 3930 1410 1D97      		sbiw r26,10+3
 3931               	.LBE604:
 3932               	.LBE603:
 3933               	.LBB605:
 3934               	.LBB606:
 3935               	.LM374:
 3936 1412 8D2D      		mov r24,r13
 3937 1414 90E0      		ldi r25,lo8(0)
 3938 1416 FC01      		movw r30,r24
 3939 1418 35E0      		ldi r19,5
 3940 141a EE0F      	1:	lsl r30
 3941 141c FF1F      		rol r31
 3942 141e 3A95      		dec r19
 3943 1420 01F4      		brne 1b
 3944 1422 880F      		lsl r24
 3945 1424 991F      		rol r25
 3946 1426 E81B      		sub r30,r24
 3947 1428 F90B      		sbc r31,r25
 3948 142a EA0F      		add r30,r26
 3949 142c FB1F      		adc r31,r27
 3950 142e E95B      		subi r30,lo8(-(71))
 3951 1430 FF4F      		sbci r31,hi8(-(71))
 3952 1432 8D2D      		mov r24,r13
 3953 1434 90E0      		ldi r25,lo8(0)
 3954 1436 9C01      		movw r18,r24
 3955 1438 05E0      		ldi r16,5
 3956 143a 220F      	1:	lsl r18
 3957 143c 331F      		rol r19
 3958 143e 0A95      		dec r16
 3959 1440 01F4      		brne 1b
 3960 1442 880F      		lsl r24
 3961 1444 991F      		rol r25
 3962 1446 281B      		sub r18,r24
 3963 1448 390B      		sbc r19,r25
 3964 144a A20F      		add r26,r18
 3965 144c B31F      		adc r27,r19
 3966 144e A55B      		subi r26,lo8(-(75))
 3967 1450 BF4F      		sbci r27,hi8(-(75))
 3968 1452 8D91      		ld r24,X+
 3969 1454 9D91      		ld r25,X+
 3970 1456 0D90      		ld __tmp_reg__,X+
 3971 1458 BC91      		ld r27,X
 3972 145a A02D      		mov r26,__tmp_reg__
 3973 145c 480F      		add r20,r24
 3974 145e 591F      		adc r21,r25
 3975 1460 6A1F      		adc r22,r26
 3976 1462 7B1F      		adc r23,r27
 3977 1464 4083      		st Z,r20
 3978 1466 5183      		std Z+1,r21
 3979 1468 6283      		std Z+2,r22
 3980 146a 7383      		std Z+3,r23
 3981               	.L187:
 3982               	/* epilogue start */
 3983               	.LBE606:
 3984               	.LBE605:
 3985               	.LM375:
 3986 146c 1F91      		pop r17
 3987 146e 0F91      		pop r16
 3988 1470 FF90      		pop r15
 3989 1472 EF90      		pop r14
 3990 1474 DF90      		pop r13
 3991               	.LVL220:
 3992 1476 0895      		ret
 3993               	.LFE70:
 3995               	.global	Timebase_DownCounter_Expired
 3997               	Timebase_DownCounter_Expired:
 3998               	.LFB71:
 3999               	.LM376:
 4000               	.LVL221:
 4001               	/* prologue: function */
 4002               	/* frame size = 0 */
 4003               	.LM377:
 4004 1478 40E0      		ldi r20,lo8(0)
 4005 147a E091 0000 		lds r30,Timebase
 4006 147e F091 0000 		lds r31,(Timebase)+1
 4007 1482 282F      		mov r18,r24
 4008 1484 30E0      		ldi r19,lo8(0)
 4009               	.LVL222:
 4010 1486 C901      		movw r24,r18
 4011               	.LVL223:
 4012 1488 75E0      		ldi r23,5
 4013 148a 880F      	1:	lsl r24
 4014 148c 991F      		rol r25
 4015 148e 7A95      		dec r23
 4016 1490 01F4      		brne 1b
 4017 1492 220F      		lsl r18
 4018 1494 331F      		rol r19
 4019               	.LVL224:
 4020 1496 821B      		sub r24,r18
 4021 1498 930B      		sbc r25,r19
 4022 149a E80F      		add r30,r24
 4023 149c F91F      		adc r31,r25
 4024 149e EA5B      		subi r30,lo8(-(70))
 4025 14a0 FF4F      		sbci r31,hi8(-(70))
 4026 14a2 8081      		ld r24,Z
 4027 14a4 8695      		lsr r24
 4028 14a6 8F70      		andi r24,lo8(15)
 4029 14a8 8430      		cpi r24,lo8(4)
 4030 14aa 01F4      		brne .L189
 4031 14ac 41E0      		ldi r20,lo8(1)
 4032               	.L189:
 4033               	.LM378:
 4034 14ae 842F      		mov r24,r20
 4035               	/* epilogue start */
 4036 14b0 0895      		ret
 4037               	.LFE71:
 4039               	.global	Timebase_DownCounter_Expired_Event
 4041               	Timebase_DownCounter_Expired_Event:
 4042               	.LFB72:
 4043               	.LM379:
 4044               	.LVL225:
 4045               	/* prologue: function */
 4046               	/* frame size = 0 */
 4047 14b2 482F      		mov r20,r24
 4048               	.LBB607:
 4049               	.LBB608:
 4050               	.LM380:
 4051 14b4 2091 0000 		lds r18,Timebase
 4052 14b8 3091 0000 		lds r19,(Timebase)+1
 4053               	.LBE608:
 4054               	.LBE607:
 4055               	.LM381:
 4056 14bc 90E0      		ldi r25,lo8(0)
 4057 14be FC01      		movw r30,r24
 4058               	.LVL226:
 4059 14c0 75E0      		ldi r23,5
 4060 14c2 EE0F      	1:	lsl r30
 4061 14c4 FF1F      		rol r31
 4062 14c6 7A95      		dec r23
 4063 14c8 01F4      		brne 1b
 4064 14ca 880F      		lsl r24
 4065 14cc 991F      		rol r25
 4066 14ce E81B      		sub r30,r24
 4067 14d0 F90B      		sbc r31,r25
 4068 14d2 E20F      		add r30,r18
 4069 14d4 F31F      		adc r31,r19
 4070 14d6 EA5B      		subi r30,lo8(-(70))
 4071 14d8 FF4F      		sbci r31,hi8(-(70))
 4072 14da 8081      		ld r24,Z
 4073 14dc 8695      		lsr r24
 4074 14de 8F70      		andi r24,lo8(15)
 4075 14e0 8430      		cpi r24,lo8(4)
 4076 14e2 01F0      		breq .L192
 4077 14e4 80E0      		ldi r24,lo8(0)
 4078 14e6 0895      		ret
 4079               	.L192:
 4080               	.LBB609:
 4081               	.LBB610:
 4082               	.LBB611:
 4083               	.LBB612:
 4084               	.LBB613:
 4085               	.LBB614:
 4086               	.LM382:
 4087 14e8 842F      		mov r24,r20
 4088 14ea 90E0      		ldi r25,lo8(0)
 4089 14ec FC01      		movw r30,r24
 4090 14ee 55E0      		ldi r21,5
 4091 14f0 EE0F      	1:	lsl r30
 4092 14f2 FF1F      		rol r31
 4093 14f4 5A95      		dec r21
 4094 14f6 01F4      		brne 1b
 4095 14f8 880F      		lsl r24
 4096 14fa 991F      		rol r25
 4097 14fc E81B      		sub r30,r24
 4098 14fe F90B      		sbc r31,r25
 4099 1500 E20F      		add r30,r18
 4100 1502 F31F      		adc r31,r19
 4101 1504 E95B      		subi r30,lo8(-(71))
 4102 1506 FF4F      		sbci r31,hi8(-(71))
 4103 1508 1082      		st Z,__zero_reg__
 4104 150a 1182      		std Z+1,__zero_reg__
 4105 150c 1282      		std Z+2,__zero_reg__
 4106 150e 1382      		std Z+3,__zero_reg__
 4107               	.LBE614:
 4108               	.LBE613:
 4109               	.LBB615:
 4110               	.LBB616:
 4111               	.LM383:
 4112 1510 842F      		mov r24,r20
 4113 1512 90E0      		ldi r25,lo8(0)
 4114 1514 FC01      		movw r30,r24
 4115 1516 A5E0      		ldi r26,5
 4116 1518 EE0F      	1:	lsl r30
 4117 151a FF1F      		rol r31
 4118 151c AA95      		dec r26
 4119 151e 01F4      		brne 1b
 4120 1520 880F      		lsl r24
 4121 1522 991F      		rol r25
 4122 1524 E81B      		sub r30,r24
 4123 1526 F90B      		sbc r31,r25
 4124 1528 E20F      		add r30,r18
 4125 152a F31F      		adc r31,r19
 4126 152c E55B      		subi r30,lo8(-(75))
 4127 152e FF4F      		sbci r31,hi8(-(75))
 4128 1530 1082      		st Z,__zero_reg__
 4129 1532 1182      		std Z+1,__zero_reg__
 4130 1534 1282      		std Z+2,__zero_reg__
 4131 1536 1382      		std Z+3,__zero_reg__
 4132               	.LBE616:
 4133               	.LBE615:
 4134               	.LBB617:
 4135               	.LBB618:
 4136               	.LM384:
 4137 1538 842F      		mov r24,r20
 4138 153a 90E0      		ldi r25,lo8(0)
 4139 153c FC01      		movw r30,r24
 4140 153e 65E0      		ldi r22,5
 4141 1540 EE0F      	1:	lsl r30
 4142 1542 FF1F      		rol r31
 4143 1544 6A95      		dec r22
 4144 1546 01F4      		brne 1b
 4145 1548 880F      		lsl r24
 4146 154a 991F      		rol r25
 4147 154c E81B      		sub r30,r24
 4148 154e F90B      		sbc r31,r25
 4149 1550 E20F      		add r30,r18
 4150 1552 F31F      		adc r31,r19
 4151 1554 EA5B      		subi r30,lo8(-(70))
 4152 1556 FF4F      		sbci r31,hi8(-(70))
 4153 1558 8081      		ld r24,Z
 4154 155a 817E      		andi r24,lo8(-31)
 4155 155c 8083      		st Z,r24
 4156               	.LBE618:
 4157               	.LBE617:
 4158               	.LBB619:
 4159               	.LBB620:
 4160               	.LM385:
 4161 155e 842F      		mov r24,r20
 4162 1560 90E0      		ldi r25,lo8(0)
 4163 1562 FC01      		movw r30,r24
 4164 1564 B5E0      		ldi r27,5
 4165 1566 EE0F      	1:	lsl r30
 4166 1568 FF1F      		rol r31
 4167 156a BA95      		dec r27
 4168 156c 01F4      		brne 1b
 4169 156e 880F      		lsl r24
 4170 1570 991F      		rol r25
 4171 1572 E81B      		sub r30,r24
 4172 1574 F90B      		sbc r31,r25
 4173 1576 E20F      		add r30,r18
 4174 1578 F31F      		adc r31,r19
 4175 157a EA5B      		subi r30,lo8(-(70))
 4176 157c FF4F      		sbci r31,hi8(-(70))
 4177 157e 8081      		ld r24,Z
 4178 1580 8E7F      		andi r24,lo8(-2)
 4179 1582 8083      		st Z,r24
 4180 1584 81E0      		ldi r24,lo8(1)
 4181               	.LBE620:
 4182               	.LBE619:
 4183               	.LBE612:
 4184               	.LBE611:
 4185               	.LBE610:
 4186               	.LBE609:
 4187               	.LM386:
 4188 1586 0895      		ret
 4189               	.LFE72:
 4191               	.global	Timebase_DownCounter_Set_Period_Value_Securely
 4193               	Timebase_DownCounter_Set_Period_Value_Securely:
 4194               	.LFB73:
 4195               	.LM387:
 4196               	.LVL227:
 4197 1588 DF92      		push r13
 4198 158a EF92      		push r14
 4199 158c FF92      		push r15
 4200 158e 0F93      		push r16
 4201 1590 1F93      		push r17
 4202               	/* prologue: function */
 4203               	/* frame size = 0 */
 4204 1592 D82E      		mov r13,r24
 4205 1594 7A01      		movw r14,r20
 4206 1596 8B01      		movw r16,r22
 4207               	.LBB621:
 4208               	.LBB622:
 4209               	.LM388:
 4210 1598 A091 0000 		lds r26,Timebase
 4211 159c B091 0000 		lds r27,(Timebase)+1
 4212               	.LBE622:
 4213               	.LBE621:
 4214               	.LM389:
 4215 15a0 90E0      		ldi r25,lo8(0)
 4216 15a2 FC01      		movw r30,r24
 4217               	.LVL228:
 4218 15a4 55E0      		ldi r21,5
 4219 15a6 EE0F      	1:	lsl r30
 4220 15a8 FF1F      		rol r31
 4221 15aa 5A95      		dec r21
 4222 15ac 01F4      		brne 1b
 4223 15ae 880F      		lsl r24
 4224 15b0 991F      		rol r25
 4225               	.LVL229:
 4226 15b2 E81B      		sub r30,r24
 4227 15b4 F90B      		sbc r31,r25
 4228 15b6 EA0F      		add r30,r26
 4229 15b8 FB1F      		adc r31,r27
 4230 15ba EA5B      		subi r30,lo8(-(70))
 4231 15bc FF4F      		sbci r31,hi8(-(70))
 4232 15be 8081      		ld r24,Z
 4233 15c0 80FD      		sbrc r24,0
 4234 15c2 00C0      		rjmp .L199
 4235               	.LM390:
 4236 15c4 8D2D      		mov r24,r13
 4237 15c6 90E0      		ldi r25,lo8(0)
 4238 15c8 FC01      		movw r30,r24
 4239 15ca 35E0      		ldi r19,5
 4240 15cc EE0F      	1:	lsl r30
 4241 15ce FF1F      		rol r31
 4242 15d0 3A95      		dec r19
 4243 15d2 01F4      		brne 1b
 4244 15d4 880F      		lsl r24
 4245 15d6 991F      		rol r25
 4246 15d8 E81B      		sub r30,r24
 4247 15da F90B      		sbc r31,r25
 4248 15dc EA0F      		add r30,r26
 4249 15de FB1F      		adc r31,r27
 4250 15e0 E55B      		subi r30,lo8(-(75))
 4251 15e2 FF4F      		sbci r31,hi8(-(75))
 4252 15e4 2081      		ld r18,Z
 4253 15e6 3181      		ldd r19,Z+1
 4254 15e8 4281      		ldd r20,Z+2
 4255 15ea 5381      		ldd r21,Z+3
 4256 15ec 2E19      		sub r18,r14
 4257 15ee 3F09      		sbc r19,r15
 4258 15f0 400B      		sbc r20,r16
 4259 15f2 510B      		sbc r21,r17
 4260               	.LBB623:
 4261               	.LBB624:
 4262               	.LM391:
 4263 15f4 57FF      		sbrs r21,7
 4264 15f6 00C0      		rjmp .L197
 4265               	.LM392:
 4266 15f8 8D2D      		mov r24,r13
 4267 15fa 90E0      		ldi r25,lo8(0)
 4268 15fc FC01      		movw r30,r24
 4269 15fe 05E0      		ldi r16,5
 4270 1600 EE0F      	1:	lsl r30
 4271 1602 FF1F      		rol r31
 4272 1604 0A95      		dec r16
 4273 1606 01F4      		brne 1b
 4274 1608 880F      		lsl r24
 4275 160a 991F      		rol r25
 4276 160c E81B      		sub r30,r24
 4277 160e F90B      		sbc r31,r25
 4278 1610 EA0F      		add r30,r26
 4279 1612 FB1F      		adc r31,r27
 4280 1614 E15B      		subi r30,lo8(-(79))
 4281 1616 FF4F      		sbci r31,hi8(-(79))
 4282 1618 1082      		st Z,__zero_reg__
 4283 161a 1182      		std Z+1,__zero_reg__
 4284 161c 1282      		std Z+2,__zero_reg__
 4285 161e 1382      		std Z+3,__zero_reg__
 4286 1620 00C0      		rjmp .L198
 4287               	.L197:
 4288               	.LM393:
 4289 1622 8D2D      		mov r24,r13
 4290 1624 90E0      		ldi r25,lo8(0)
 4291 1626 FC01      		movw r30,r24
 4292 1628 75E0      		ldi r23,5
 4293 162a EE0F      	1:	lsl r30
 4294 162c FF1F      		rol r31
 4295 162e 7A95      		dec r23
 4296 1630 01F4      		brne 1b
 4297 1632 880F      		lsl r24
 4298 1634 991F      		rol r25
 4299 1636 E81B      		sub r30,r24
 4300 1638 F90B      		sbc r31,r25
 4301 163a EA0F      		add r30,r26
 4302 163c FB1F      		adc r31,r27
 4303 163e E15B      		subi r30,lo8(-(79))
 4304 1640 FF4F      		sbci r31,hi8(-(79))
 4305 1642 2083      		st Z,r18
 4306 1644 3183      		std Z+1,r19
 4307 1646 4283      		std Z+2,r20
 4308 1648 5383      		std Z+3,r21
 4309               	.L198:
 4310               	.LBE624:
 4311               	.LBE623:
 4312               	.LBB625:
 4313               	.LBB626:
 4314               	.LM394:
 4315 164a 8D2D      		mov r24,r13
 4316 164c 90E0      		ldi r25,lo8(0)
 4317 164e FC01      		movw r30,r24
 4318 1650 05E0      		ldi r16,5
 4319 1652 EE0F      	1:	lsl r30
 4320 1654 FF1F      		rol r31
 4321 1656 0A95      		dec r16
 4322 1658 01F4      		brne 1b
 4323 165a 880F      		lsl r24
 4324 165c 991F      		rol r25
 4325 165e E81B      		sub r30,r24
 4326 1660 F90B      		sbc r31,r25
 4327 1662 EA0F      		add r30,r26
 4328 1664 FB1F      		adc r31,r27
 4329 1666 EA5B      		subi r30,lo8(-(70))
 4330 1668 FF4F      		sbci r31,hi8(-(70))
 4331 166a 8081      		ld r24,Z
 4332 166c 8160      		ori r24,lo8(1)
 4333 166e 8083      		st Z,r24
 4334               	.L199:
 4335               	/* epilogue start */
 4336               	.LBE626:
 4337               	.LBE625:
 4338               	.LM395:
 4339 1670 1F91      		pop r17
 4340 1672 0F91      		pop r16
 4341 1674 FF90      		pop r15
 4342 1676 EF90      		pop r14
 4343               	.LVL230:
 4344 1678 DF90      		pop r13
 4345               	.LVL231:
 4346 167a 0895      		ret
 4347               	.LFE73:
 4349               	.global	Timebase_DownCounter_Get_Remaining_Period_Value
 4351               	Timebase_DownCounter_Get_Remaining_Period_Value:
 4352               	.LFB74:
 4353               	.LM396:
 4354               	.LVL232:
 4355               	/* prologue: function */
 4356               	/* frame size = 0 */
 4357               	.LBB627:
 4358               	.LBB628:
 4359               	.LM397:
 4360 167c A091 0000 		lds r26,Timebase
 4361 1680 B091 0000 		lds r27,(Timebase)+1
 4362               	.LBE628:
 4363               	.LBE627:
 4364               	.LM398:
 4365 1684 282F      		mov r18,r24
 4366 1686 30E0      		ldi r19,lo8(0)
 4367 1688 F901      		movw r30,r18
 4368 168a 45E0      		ldi r20,5
 4369 168c EE0F      	1:	lsl r30
 4370 168e FF1F      		rol r31
 4371 1690 4A95      		dec r20
 4372 1692 01F4      		brne 1b
 4373 1694 220F      		lsl r18
 4374 1696 331F      		rol r19
 4375 1698 E21B      		sub r30,r18
 4376 169a F30B      		sbc r31,r19
 4377 169c EA0F      		add r30,r26
 4378 169e FB1F      		adc r31,r27
 4379 16a0 E55B      		subi r30,lo8(-(75))
 4380 16a2 FF4F      		sbci r31,hi8(-(75))
 4381 16a4 282F      		mov r18,r24
 4382 16a6 30E0      		ldi r19,lo8(0)
 4383 16a8 C901      		movw r24,r18
 4384               	.LVL233:
 4385 16aa 75E0      		ldi r23,5
 4386 16ac 880F      	1:	lsl r24
 4387 16ae 991F      		rol r25
 4388 16b0 7A95      		dec r23
 4389 16b2 01F4      		brne 1b
 4390 16b4 220F      		lsl r18
 4391 16b6 331F      		rol r19
 4392 16b8 821B      		sub r24,r18
 4393 16ba 930B      		sbc r25,r19
 4394 16bc A80F      		add r26,r24
 4395 16be B91F      		adc r27,r25
 4396 16c0 A15B      		subi r26,lo8(-(79))
 4397 16c2 BF4F      		sbci r27,hi8(-(79))
 4398 16c4 2081      		ld r18,Z
 4399 16c6 3181      		ldd r19,Z+1
 4400 16c8 4281      		ldd r20,Z+2
 4401 16ca 5381      		ldd r21,Z+3
 4402               	.LVL234:
 4403 16cc 8D91      		ld r24,X+
 4404 16ce 9D91      		ld r25,X+
 4405 16d0 0D90      		ld __tmp_reg__,X+
 4406 16d2 BC91      		ld r27,X
 4407 16d4 A02D      		mov r26,__tmp_reg__
 4408 16d6 281B      		sub r18,r24
 4409 16d8 390B      		sbc r19,r25
 4410 16da 4A0B      		sbc r20,r26
 4411 16dc 5B0B      		sbc r21,r27
 4412 16de 57FF      		sbrs r21,7
 4413 16e0 00C0      		rjmp .L201
 4414 16e2 20E0      		ldi r18,lo8(0)
 4415 16e4 30E0      		ldi r19,hi8(0)
 4416 16e6 40E0      		ldi r20,hlo8(0)
 4417 16e8 50E0      		ldi r21,hhi8(0)
 4418               	.L201:
 4419               	.LM399:
 4420 16ea B901      		movw r22,r18
 4421               	.LVL235:
 4422 16ec CA01      		movw r24,r20
 4423               	/* epilogue start */
 4424 16ee 0895      		ret
 4425               	.LFE74:
 4427               	.global	Timebase_DownCounter_Period_Value_Expired
 4429               	Timebase_DownCounter_Period_Value_Expired:
 4430               	.LFB75:
 4431               	.LM400:
 4432               	.LVL236:
 4433 16f0 CF93      		push r28
 4434 16f2 DF93      		push r29
 4435               	/* prologue: function */
 4436               	/* frame size = 0 */
 4437 16f4 682F      		mov r22,r24
 4438               	.LBB629:
 4439               	.LBB630:
 4440               	.LBB631:
 4441               	.LBB632:
 4442               	.LM401:
 4443 16f6 C091 0000 		lds r28,Timebase
 4444 16fa D091 0000 		lds r29,(Timebase)+1
 4445               	.LBE632:
 4446               	.LBE631:
 4447               	.LM402:
 4448 16fe 90E0      		ldi r25,lo8(0)
 4449 1700 DC01      		movw r26,r24
 4450               	.LVL237:
 4451 1702 45E0      		ldi r20,5
 4452 1704 AA0F      	1:	lsl r26
 4453 1706 BB1F      		rol r27
 4454 1708 4A95      		dec r20
 4455 170a 01F4      		brne 1b
 4456 170c 880F      		lsl r24
 4457 170e 991F      		rol r25
 4458 1710 A81B      		sub r26,r24
 4459 1712 B90B      		sbc r27,r25
 4460 1714 AC0F      		add r26,r28
 4461 1716 BD1F      		adc r27,r29
 4462 1718 A55B      		subi r26,lo8(-(75))
 4463 171a BF4F      		sbci r27,hi8(-(75))
 4464 171c 862F      		mov r24,r22
 4465 171e 90E0      		ldi r25,lo8(0)
 4466 1720 FC01      		movw r30,r24
 4467 1722 25E0      		ldi r18,5
 4468 1724 EE0F      	1:	lsl r30
 4469 1726 FF1F      		rol r31
 4470 1728 2A95      		dec r18
 4471 172a 01F4      		brne 1b
 4472 172c 880F      		lsl r24
 4473 172e 991F      		rol r25
 4474 1730 E81B      		sub r30,r24
 4475 1732 F90B      		sbc r31,r25
 4476 1734 EC0F      		add r30,r28
 4477 1736 FD1F      		adc r31,r29
 4478 1738 E15B      		subi r30,lo8(-(79))
 4479 173a FF4F      		sbci r31,hi8(-(79))
 4480 173c 2D91      		ld r18,X+
 4481 173e 3D91      		ld r19,X+
 4482 1740 4D91      		ld r20,X+
 4483 1742 5C91      		ld r21,X
 4484               	.LVL238:
 4485 1744 8081      		ld r24,Z
 4486 1746 9181      		ldd r25,Z+1
 4487 1748 A281      		ldd r26,Z+2
 4488 174a B381      		ldd r27,Z+3
 4489 174c 281B      		sub r18,r24
 4490 174e 390B      		sbc r19,r25
 4491 1750 4A0B      		sbc r20,r26
 4492 1752 5B0B      		sbc r21,r27
 4493               	.LM403:
 4494 1754 57FD      		sbrc r21,7
 4495 1756 00C0      		rjmp .L204
 4496               	.LBE630:
 4497               	.LBE629:
 4498               	.LM404:
 4499 1758 2115      		cp r18,__zero_reg__
 4500 175a 3105      		cpc r19,__zero_reg__
 4501 175c 4105      		cpc r20,__zero_reg__
 4502 175e 5105      		cpc r21,__zero_reg__
 4503 1760 01F0      		breq .L204
 4504 1762 40E0      		ldi r20,lo8(0)
 4505 1764 00C0      		rjmp .L205
 4506               	.L204:
 4507 1766 40E0      		ldi r20,lo8(0)
 4508 1768 862F      		mov r24,r22
 4509 176a 90E0      		ldi r25,lo8(0)
 4510 176c 9C01      		movw r18,r24
 4511               	.LVL239:
 4512 176e 65E0      		ldi r22,5
 4513 1770 220F      	1:	lsl r18
 4514 1772 331F      		rol r19
 4515 1774 6A95      		dec r22
 4516 1776 01F4      		brne 1b
 4517               	.LVL240:
 4518 1778 880F      		lsl r24
 4519 177a 991F      		rol r25
 4520 177c 281B      		sub r18,r24
 4521 177e 390B      		sbc r19,r25
 4522 1780 C20F      		add r28,r18
 4523 1782 D31F      		adc r29,r19
 4524 1784 CA5B      		subi r28,lo8(-(70))
 4525 1786 DF4F      		sbci r29,hi8(-(70))
 4526 1788 8881      		ld r24,Y
 4527 178a 80FF      		sbrs r24,0
 4528 178c 41E0      		ldi r20,lo8(1)
 4529               	.L206:
 4530 178e 81E0      		ldi r24,lo8(1)
 4531 1790 4827      		eor r20,r24
 4532               	.LVL241:
 4533               	.L205:
 4534               	.LM405:
 4535 1792 842F      		mov r24,r20
 4536               	/* epilogue start */
 4537 1794 DF91      		pop r29
 4538 1796 CF91      		pop r28
 4539 1798 0895      		ret
 4540               	.LFE75:
 4542               	.global	Timebase_DownCounter_Period_Value_Expired_Event
 4544               	Timebase_DownCounter_Period_Value_Expired_Event:
 4545               	.LFB76:
 4546               	.LM406:
 4547               	.LVL242:
 4548 179a 1F93      		push r17
 4549               	/* prologue: function */
 4550               	/* frame size = 0 */
 4551 179c 182F      		mov r17,r24
 4552               	.LM407:
 4553 179e 0E94 0000 		call Timebase_DownCounter_Period_Value_Expired
 4554               	.LVL243:
 4555 17a2 8130      		cpi r24,lo8(1)
 4556 17a4 01F0      		breq .L209
 4557 17a6 80E0      		ldi r24,lo8(0)
 4558 17a8 00C0      		rjmp .L210
 4559               	.L209:
 4560               	.LBB633:
 4561               	.LBB634:
 4562               	.LM408:
 4563 17aa E091 0000 		lds r30,Timebase
 4564 17ae F091 0000 		lds r31,(Timebase)+1
 4565 17b2 812F      		mov r24,r17
 4566 17b4 90E0      		ldi r25,lo8(0)
 4567               	.LVL244:
 4568 17b6 9C01      		movw r18,r24
 4569 17b8 65E0      		ldi r22,5
 4570 17ba 220F      	1:	lsl r18
 4571 17bc 331F      		rol r19
 4572 17be 6A95      		dec r22
 4573 17c0 01F4      		brne 1b
 4574 17c2 880F      		lsl r24
 4575 17c4 991F      		rol r25
 4576               	.LVL245:
 4577 17c6 281B      		sub r18,r24
 4578 17c8 390B      		sbc r19,r25
 4579 17ca E20F      		add r30,r18
 4580 17cc F31F      		adc r31,r19
 4581 17ce EA5B      		subi r30,lo8(-(70))
 4582 17d0 FF4F      		sbci r31,hi8(-(70))
 4583 17d2 8081      		ld r24,Z
 4584               	.LVL246:
 4585 17d4 8E7F      		andi r24,lo8(-2)
 4586 17d6 8083      		st Z,r24
 4587 17d8 81E0      		ldi r24,lo8(1)
 4588               	.LVL247:
 4589               	.L210:
 4590               	/* epilogue start */
 4591               	.LBE634:
 4592               	.LBE633:
 4593               	.LM409:
 4594 17da 1F91      		pop r17
 4595               	.LVL248:
 4596 17dc 0895      		ret
 4597               	.LFE76:
 4599               	.global	Timebase_DownCounter_Update_All
 4601               	Timebase_DownCounter_Update_All:
 4602               	.LFB77:
 4603               	.LM410:
 4604               	/* prologue: function */
 4605               	/* frame size = 0 */
 4606               	.LBB635:
 4607               	.LM411:
 4608 17de 80E0      		ldi r24,lo8(0)
 4609 17e0 0E94 0000 		call Timebase_DownCounter_Update
 4610               	/* epilogue start */
 4611               	.LBE635:
 4612               	.LM412:
 4613 17e4 0895      		ret
 4614               	.LFE77:
 4616               	.global	Timebase_DownCounter_Reset_All
 4618               	Timebase_DownCounter_Reset_All:
 4619               	.LFB78:
 4620               	.LM413:
 4621               	/* prologue: function */
 4622               	/* frame size = 0 */
 4623               	.LBB636:
 4624               	.LBB637:
 4625               	.LBB638:
 4626               	.LBB639:
 4627               	.LBB640:
 4628               	.LM414:
 4629 17e6 E091 0000 		lds r30,Timebase
 4630 17ea F091 0000 		lds r31,(Timebase)+1
 4631 17ee E95B      		subi r30,lo8(-(71))
 4632 17f0 FF4F      		sbci r31,hi8(-(71))
 4633 17f2 1192      		st Z+,__zero_reg__
 4634 17f4 1192      		st Z+,__zero_reg__
 4635 17f6 1192      		st Z+,__zero_reg__
 4636 17f8 1192      		st Z+,__zero_reg__
 4637               	.LBE640:
 4638               	.LBE639:
 4639               	.LBB641:
 4640               	.LBB642:
 4641               	.LM415:
 4642 17fa 1082      		st Z,__zero_reg__
 4643 17fc 1182      		std Z+1,__zero_reg__
 4644 17fe 1282      		std Z+2,__zero_reg__
 4645 1800 1382      		std Z+3,__zero_reg__
 4646               	.LBE642:
 4647               	.LBE641:
 4648               	.LBB643:
 4649               	.LBB644:
 4650               	.LM416:
 4651 1802 3597      		sbiw r30,5
 4652 1804 8081      		ld r24,Z
 4653               	.LBE644:
 4654               	.LBE643:
 4655               	.LBB645:
 4656               	.LBB646:
 4657               	.LM417:
 4658 1806 807E      		andi r24,lo8(-32)
 4659 1808 8083      		st Z,r24
 4660               	/* epilogue start */
 4661               	.LBE646:
 4662               	.LBE645:
 4663               	.LBE638:
 4664               	.LBE637:
 4665               	.LBE636:
 4666               	.LM418:
 4667 180a 0895      		ret
 4668               	.LFE78:
 4670               	.global	Timebase_DownCounter_SS_Get_Status
 4672               	Timebase_DownCounter_SS_Get_Status:
 4673               	.LFB79:
 4674               	.LM419:
 4675               	.LVL249:
 4676               	/* prologue: function */
 4677               	/* frame size = 0 */
 4678               	.LM420:
 4679 180c E091 0000 		lds r30,Timebase
 4680 1810 F091 0000 		lds r31,(Timebase)+1
 4681 1814 282F      		mov r18,r24
 4682 1816 30E0      		ldi r19,lo8(0)
 4683               	.LVL250:
 4684 1818 C901      		movw r24,r18
 4685               	.LVL251:
 4686 181a A5E0      		ldi r26,5
 4687 181c 880F      	1:	lsl r24
 4688 181e 991F      		rol r25
 4689 1820 AA95      		dec r26
 4690 1822 01F4      		brne 1b
 4691 1824 220F      		lsl r18
 4692 1826 331F      		rol r19
 4693               	.LVL252:
 4694 1828 821B      		sub r24,r18
 4695 182a 930B      		sbc r25,r19
 4696 182c E80F      		add r30,r24
 4697 182e F91F      		adc r31,r25
 4698 1830 ED5A      		subi r30,lo8(-(83))
 4699 1832 FF4F      		sbci r31,hi8(-(83))
 4700 1834 8081      		ld r24,Z
 4701 1836 8695      		lsr r24
 4702               	.LM421:
 4703 1838 8F70      		andi r24,lo8(15)
 4704               	/* epilogue start */
 4705 183a 0895      		ret
 4706               	.LFE79:
 4708               	.global	Timebase_DownCounter_SS_Set_Status
 4710               	Timebase_DownCounter_SS_Set_Status:
 4711               	.LFB80:
 4712               	.LM422:
 4713               	.LVL253:
 4714               	/* prologue: function */
 4715               	/* frame size = 0 */
 4716               	.LM423:
 4717 183c E091 0000 		lds r30,Timebase
 4718 1840 F091 0000 		lds r31,(Timebase)+1
 4719 1844 282F      		mov r18,r24
 4720 1846 30E0      		ldi r19,lo8(0)
 4721               	.LVL254:
 4722 1848 C901      		movw r24,r18
 4723               	.LVL255:
 4724 184a 45E0      		ldi r20,5
 4725 184c 880F      	1:	lsl r24
 4726 184e 991F      		rol r25
 4727 1850 4A95      		dec r20
 4728 1852 01F4      		brne 1b
 4729 1854 220F      		lsl r18
 4730 1856 331F      		rol r19
 4731               	.LVL256:
 4732 1858 821B      		sub r24,r18
 4733 185a 930B      		sbc r25,r19
 4734 185c E80F      		add r30,r24
 4735 185e F91F      		adc r31,r25
 4736 1860 ED5A      		subi r30,lo8(-(83))
 4737 1862 FF4F      		sbci r31,hi8(-(83))
 4738 1864 6F70      		andi r22,lo8(15)
 4739               	.LVL257:
 4740 1866 660F      		lsl r22
 4741 1868 8081      		ld r24,Z
 4742 186a 817E      		andi r24,lo8(-31)
 4743 186c 862B      		or r24,r22
 4744 186e 8083      		st Z,r24
 4745               	/* epilogue start */
 4746               	.LM424:
 4747 1870 0895      		ret
 4748               	.LFE80:
 4750               	.global	Timebase_DownCounter_SS_Get_Value
 4752               	Timebase_DownCounter_SS_Get_Value:
 4753               	.LFB81:
 4754               	.LM425:
 4755               	.LVL258:
 4756               	/* prologue: function */
 4757               	/* frame size = 0 */
 4758               	.LM426:
 4759 1872 E091 0000 		lds r30,Timebase
 4760 1876 F091 0000 		lds r31,(Timebase)+1
 4761 187a 282F      		mov r18,r24
 4762 187c 30E0      		ldi r19,lo8(0)
 4763               	.LVL259:
 4764 187e C901      		movw r24,r18
 4765               	.LVL260:
 4766 1880 65E0      		ldi r22,5
 4767 1882 880F      	1:	lsl r24
 4768 1884 991F      		rol r25
 4769 1886 6A95      		dec r22
 4770 1888 01F4      		brne 1b
 4771 188a 220F      		lsl r18
 4772 188c 331F      		rol r19
 4773               	.LVL261:
 4774 188e 821B      		sub r24,r18
 4775 1890 930B      		sbc r25,r19
 4776 1892 E80F      		add r30,r24
 4777 1894 F91F      		adc r31,r25
 4778 1896 E45A      		subi r30,lo8(-(92))
 4779 1898 FF4F      		sbci r31,hi8(-(92))
 4780 189a 6081      		ld r22,Z
 4781 189c 7181      		ldd r23,Z+1
 4782               	.LM427:
 4783 189e 8281      		ldd r24,Z+2
 4784 18a0 9381      		ldd r25,Z+3
 4785               	/* epilogue start */
 4786 18a2 0895      		ret
 4787               	.LFE81:
 4789               	.global	Timebase_DownCounter_SS_Set_Value
 4791               	Timebase_DownCounter_SS_Set_Value:
 4792               	.LFB82:
 4793               	.LM428:
 4794               	.LVL262:
 4795               	/* prologue: function */
 4796               	/* frame size = 0 */
 4797               	.LM429:
 4798 18a4 E091 0000 		lds r30,Timebase
 4799 18a8 F091 0000 		lds r31,(Timebase)+1
 4800 18ac 282F      		mov r18,r24
 4801 18ae 30E0      		ldi r19,lo8(0)
 4802               	.LVL263:
 4803 18b0 C901      		movw r24,r18
 4804               	.LVL264:
 4805 18b2 B5E0      		ldi r27,5
 4806 18b4 880F      	1:	lsl r24
 4807 18b6 991F      		rol r25
 4808 18b8 BA95      		dec r27
 4809 18ba 01F4      		brne 1b
 4810 18bc 220F      		lsl r18
 4811 18be 331F      		rol r19
 4812               	.LVL265:
 4813 18c0 821B      		sub r24,r18
 4814 18c2 930B      		sbc r25,r19
 4815 18c4 E80F      		add r30,r24
 4816 18c6 F91F      		adc r31,r25
 4817 18c8 E45A      		subi r30,lo8(-(92))
 4818 18ca FF4F      		sbci r31,hi8(-(92))
 4819 18cc 4083      		st Z,r20
 4820 18ce 5183      		std Z+1,r21
 4821 18d0 6283      		std Z+2,r22
 4822 18d2 7383      		std Z+3,r23
 4823               	/* epilogue start */
 4824               	.LM430:
 4825 18d4 0895      		ret
 4826               	.LFE82:
 4828               	.global	Timebase_DownCounter_SS_Get_EndValueSec
 4830               	Timebase_DownCounter_SS_Get_EndValueSec:
 4831               	.LFB83:
 4832               	.LM431:
 4833               	.LVL266:
 4834               	/* prologue: function */
 4835               	/* frame size = 0 */
 4836               	.LM432:
 4837 18d6 E091 0000 		lds r30,Timebase
 4838 18da F091 0000 		lds r31,(Timebase)+1
 4839 18de 282F      		mov r18,r24
 4840 18e0 30E0      		ldi r19,lo8(0)
 4841               	.LVL267:
 4842 18e2 C901      		movw r24,r18
 4843               	.LVL268:
 4844 18e4 55E0      		ldi r21,5
 4845 18e6 880F      	1:	lsl r24
 4846 18e8 991F      		rol r25
 4847 18ea 5A95      		dec r21
 4848 18ec 01F4      		brne 1b
 4849 18ee 220F      		lsl r18
 4850 18f0 331F      		rol r19
 4851               	.LVL269:
 4852 18f2 821B      		sub r24,r18
 4853 18f4 930B      		sbc r25,r19
 4854 18f6 E80F      		add r30,r24
 4855 18f8 F91F      		adc r31,r25
 4856 18fa EC5A      		subi r30,lo8(-(84))
 4857 18fc FF4F      		sbci r31,hi8(-(84))
 4858 18fe 6081      		ld r22,Z
 4859 1900 7181      		ldd r23,Z+1
 4860               	.LM433:
 4861 1902 8281      		ldd r24,Z+2
 4862 1904 9381      		ldd r25,Z+3
 4863               	/* epilogue start */
 4864 1906 0895      		ret
 4865               	.LFE83:
 4867               	.global	Timebase_DownCounter_SS_Get_EndValueSubSec
 4869               	Timebase_DownCounter_SS_Get_EndValueSubSec:
 4870               	.LFB84:
 4871               	.LM434:
 4872               	.LVL270:
 4873               	/* prologue: function */
 4874               	/* frame size = 0 */
 4875               	.LM435:
 4876 1908 E091 0000 		lds r30,Timebase
 4877 190c F091 0000 		lds r31,(Timebase)+1
 4878 1910 282F      		mov r18,r24
 4879 1912 30E0      		ldi r19,lo8(0)
 4880               	.LVL271:
 4881 1914 C901      		movw r24,r18
 4882               	.LVL272:
 4883 1916 75E0      		ldi r23,5
 4884 1918 880F      	1:	lsl r24
 4885 191a 991F      		rol r25
 4886 191c 7A95      		dec r23
 4887 191e 01F4      		brne 1b
 4888 1920 220F      		lsl r18
 4889 1922 331F      		rol r19
 4890               	.LVL273:
 4891 1924 821B      		sub r24,r18
 4892 1926 930B      		sbc r25,r19
 4893 1928 E80F      		add r30,r24
 4894 192a F91F      		adc r31,r25
 4895 192c E85A      		subi r30,lo8(-(88))
 4896 192e FF4F      		sbci r31,hi8(-(88))
 4897 1930 6081      		ld r22,Z
 4898 1932 7181      		ldd r23,Z+1
 4899               	.LM436:
 4900 1934 8281      		ldd r24,Z+2
 4901 1936 9381      		ldd r25,Z+3
 4902               	/* epilogue start */
 4903 1938 0895      		ret
 4904               	.LFE84:
 4906               	.global	Timebase_DownCounter_SS_Set_EndValueSec
 4908               	Timebase_DownCounter_SS_Set_EndValueSec:
 4909               	.LFB85:
 4910               	.LM437:
 4911               	.LVL274:
 4912               	/* prologue: function */
 4913               	/* frame size = 0 */
 4914               	.LM438:
 4915 193a E091 0000 		lds r30,Timebase
 4916 193e F091 0000 		lds r31,(Timebase)+1
 4917 1942 282F      		mov r18,r24
 4918 1944 30E0      		ldi r19,lo8(0)
 4919               	.LVL275:
 4920 1946 C901      		movw r24,r18
 4921               	.LVL276:
 4922 1948 B5E0      		ldi r27,5
 4923 194a 880F      	1:	lsl r24
 4924 194c 991F      		rol r25
 4925 194e BA95      		dec r27
 4926 1950 01F4      		brne 1b
 4927 1952 220F      		lsl r18
 4928 1954 331F      		rol r19
 4929               	.LVL277:
 4930 1956 821B      		sub r24,r18
 4931 1958 930B      		sbc r25,r19
 4932 195a E80F      		add r30,r24
 4933 195c F91F      		adc r31,r25
 4934 195e EC5A      		subi r30,lo8(-(84))
 4935 1960 FF4F      		sbci r31,hi8(-(84))
 4936 1962 4083      		st Z,r20
 4937 1964 5183      		std Z+1,r21
 4938 1966 6283      		std Z+2,r22
 4939 1968 7383      		std Z+3,r23
 4940               	/* epilogue start */
 4941               	.LM439:
 4942 196a 0895      		ret
 4943               	.LFE85:
 4945               	.global	Timebase_DownCounter_SS_Set_EndValueSubSec
 4947               	Timebase_DownCounter_SS_Set_EndValueSubSec:
 4948               	.LFB86:
 4949               	.LM440:
 4950               	.LVL278:
 4951               	/* prologue: function */
 4952               	/* frame size = 0 */
 4953               	.LM441:
 4954 196c E091 0000 		lds r30,Timebase
 4955 1970 F091 0000 		lds r31,(Timebase)+1
 4956 1974 282F      		mov r18,r24
 4957 1976 30E0      		ldi r19,lo8(0)
 4958               	.LVL279:
 4959 1978 C901      		movw r24,r18
 4960               	.LVL280:
 4961 197a B5E0      		ldi r27,5
 4962 197c 880F      	1:	lsl r24
 4963 197e 991F      		rol r25
 4964 1980 BA95      		dec r27
 4965 1982 01F4      		brne 1b
 4966 1984 220F      		lsl r18
 4967 1986 331F      		rol r19
 4968               	.LVL281:
 4969 1988 821B      		sub r24,r18
 4970 198a 930B      		sbc r25,r19
 4971 198c E80F      		add r30,r24
 4972 198e F91F      		adc r31,r25
 4973 1990 E85A      		subi r30,lo8(-(88))
 4974 1992 FF4F      		sbci r31,hi8(-(88))
 4975 1994 4083      		st Z,r20
 4976 1996 5183      		std Z+1,r21
 4977 1998 6283      		std Z+2,r22
 4978 199a 7383      		std Z+3,r23
 4979               	/* epilogue start */
 4980               	.LM442:
 4981 199c 0895      		ret
 4982               	.LFE86:
 4984               	.global	Timebase_DownCounter_SS_Get_PeriodValue
 4986               	Timebase_DownCounter_SS_Get_PeriodValue:
 4987               	.LFB87:
 4988               	.LM443:
 4989               	.LVL282:
 4990               	/* prologue: function */
 4991               	/* frame size = 0 */
 4992               	.LM444:
 4993 199e E091 0000 		lds r30,Timebase
 4994 19a2 F091 0000 		lds r31,(Timebase)+1
 4995 19a6 282F      		mov r18,r24
 4996 19a8 30E0      		ldi r19,lo8(0)
 4997               	.LVL283:
 4998 19aa C901      		movw r24,r18
 4999               	.LVL284:
 5000 19ac 55E0      		ldi r21,5
 5001 19ae 880F      	1:	lsl r24
 5002 19b0 991F      		rol r25
 5003 19b2 5A95      		dec r21
 5004 19b4 01F4      		brne 1b
 5005 19b6 220F      		lsl r18
 5006 19b8 331F      		rol r19
 5007               	.LVL285:
 5008 19ba 821B      		sub r24,r18
 5009 19bc 930B      		sbc r25,r19
 5010 19be E80F      		add r30,r24
 5011 19c0 F91F      		adc r31,r25
 5012 19c2 E05A      		subi r30,lo8(-(96))
 5013 19c4 FF4F      		sbci r31,hi8(-(96))
 5014 19c6 6081      		ld r22,Z
 5015 19c8 7181      		ldd r23,Z+1
 5016               	.LM445:
 5017 19ca 8281      		ldd r24,Z+2
 5018 19cc 9381      		ldd r25,Z+3
 5019               	/* epilogue start */
 5020 19ce 0895      		ret
 5021               	.LFE87:
 5023               	.global	Timebase_DownCounter_SS_Set_PeriodValue
 5025               	Timebase_DownCounter_SS_Set_PeriodValue:
 5026               	.LFB88:
 5027               	.LM446:
 5028               	.LVL286:
 5029               	/* prologue: function */
 5030               	/* frame size = 0 */
 5031 19d0 E091 0000 		lds r30,Timebase
 5032 19d4 F091 0000 		lds r31,(Timebase)+1
 5033               	.LM447:
 5034 19d8 77FF      		sbrs r23,7
 5035 19da 00C0      		rjmp .L235
 5036               	.LM448:
 5037 19dc 90E0      		ldi r25,lo8(0)
 5038               	.LVL287:
 5039 19de 9C01      		movw r18,r24
 5040 19e0 55E0      		ldi r21,5
 5041 19e2 220F      	1:	lsl r18
 5042 19e4 331F      		rol r19
 5043 19e6 5A95      		dec r21
 5044 19e8 01F4      		brne 1b
 5045 19ea 880F      		lsl r24
 5046 19ec 991F      		rol r25
 5047               	.LVL288:
 5048 19ee 281B      		sub r18,r24
 5049 19f0 390B      		sbc r19,r25
 5050 19f2 E20F      		add r30,r18
 5051 19f4 F31F      		adc r31,r19
 5052 19f6 E05A      		subi r30,lo8(-(96))
 5053 19f8 FF4F      		sbci r31,hi8(-(96))
 5054 19fa 1082      		st Z,__zero_reg__
 5055 19fc 1182      		std Z+1,__zero_reg__
 5056 19fe 1282      		std Z+2,__zero_reg__
 5057 1a00 1382      		std Z+3,__zero_reg__
 5058 1a02 0895      		ret
 5059               	.LVL289:
 5060               	.L235:
 5061               	.LM449:
 5062 1a04 90E0      		ldi r25,lo8(0)
 5063               	.LVL290:
 5064 1a06 9C01      		movw r18,r24
 5065 1a08 B5E0      		ldi r27,5
 5066 1a0a 220F      	1:	lsl r18
 5067 1a0c 331F      		rol r19
 5068 1a0e BA95      		dec r27
 5069 1a10 01F4      		brne 1b
 5070 1a12 880F      		lsl r24
 5071 1a14 991F      		rol r25
 5072               	.LVL291:
 5073 1a16 281B      		sub r18,r24
 5074 1a18 390B      		sbc r19,r25
 5075 1a1a E20F      		add r30,r18
 5076 1a1c F31F      		adc r31,r19
 5077 1a1e E05A      		subi r30,lo8(-(96))
 5078 1a20 FF4F      		sbci r31,hi8(-(96))
 5079 1a22 4083      		st Z,r20
 5080 1a24 5183      		std Z+1,r21
 5081 1a26 6283      		std Z+2,r22
 5082 1a28 7383      		std Z+3,r23
 5083 1a2a 0895      		ret
 5084               	.LFE88:
 5086               	.global	Timebase_DownCounter_SS_Get_Period_Flag
 5088               	Timebase_DownCounter_SS_Get_Period_Flag:
 5089               	.LFB89:
 5090               	.LM450:
 5091               	.LVL292:
 5092               	/* prologue: function */
 5093               	/* frame size = 0 */
 5094               	.LM451:
 5095 1a2c E091 0000 		lds r30,Timebase
 5096 1a30 F091 0000 		lds r31,(Timebase)+1
 5097 1a34 282F      		mov r18,r24
 5098 1a36 30E0      		ldi r19,lo8(0)
 5099               	.LVL293:
 5100 1a38 C901      		movw r24,r18
 5101               	.LVL294:
 5102 1a3a 75E0      		ldi r23,5
 5103 1a3c 880F      	1:	lsl r24
 5104 1a3e 991F      		rol r25
 5105 1a40 7A95      		dec r23
 5106 1a42 01F4      		brne 1b
 5107 1a44 220F      		lsl r18
 5108 1a46 331F      		rol r19
 5109               	.LVL295:
 5110 1a48 821B      		sub r24,r18
 5111 1a4a 930B      		sbc r25,r19
 5112 1a4c E80F      		add r30,r24
 5113 1a4e F91F      		adc r31,r25
 5114 1a50 ED5A      		subi r30,lo8(-(83))
 5115 1a52 FF4F      		sbci r31,hi8(-(83))
 5116 1a54 8081      		ld r24,Z
 5117               	.LM452:
 5118 1a56 8170      		andi r24,lo8(1)
 5119               	/* epilogue start */
 5120 1a58 0895      		ret
 5121               	.LFE89:
 5123               	.global	Timebase_DownCounter_SS_Set_Period_Flag
 5125               	Timebase_DownCounter_SS_Set_Period_Flag:
 5126               	.LFB90:
 5127               	.LM453:
 5128               	.LVL296:
 5129               	/* prologue: function */
 5130               	/* frame size = 0 */
 5131               	.LM454:
 5132 1a5a E091 0000 		lds r30,Timebase
 5133 1a5e F091 0000 		lds r31,(Timebase)+1
 5134 1a62 282F      		mov r18,r24
 5135 1a64 30E0      		ldi r19,lo8(0)
 5136               	.LVL297:
 5137 1a66 C901      		movw r24,r18
 5138               	.LVL298:
 5139 1a68 B5E0      		ldi r27,5
 5140 1a6a 880F      	1:	lsl r24
 5141 1a6c 991F      		rol r25
 5142 1a6e BA95      		dec r27
 5143 1a70 01F4      		brne 1b
 5144 1a72 220F      		lsl r18
 5145 1a74 331F      		rol r19
 5146               	.LVL299:
 5147 1a76 821B      		sub r24,r18
 5148 1a78 930B      		sbc r25,r19
 5149 1a7a E80F      		add r30,r24
 5150 1a7c F91F      		adc r31,r25
 5151 1a7e ED5A      		subi r30,lo8(-(83))
 5152 1a80 FF4F      		sbci r31,hi8(-(83))
 5153 1a82 8081      		ld r24,Z
 5154 1a84 8160      		ori r24,lo8(1)
 5155 1a86 8083      		st Z,r24
 5156               	/* epilogue start */
 5157               	.LM455:
 5158 1a88 0895      		ret
 5159               	.LFE90:
 5161               	.global	Timebase_DownCounter_SS_Clear_Period_Flag
 5163               	Timebase_DownCounter_SS_Clear_Period_Flag:
 5164               	.LFB91:
 5165               	.LM456:
 5166               	.LVL300:
 5167               	/* prologue: function */
 5168               	/* frame size = 0 */
 5169               	.LM457:
 5170 1a8a E091 0000 		lds r30,Timebase
 5171 1a8e F091 0000 		lds r31,(Timebase)+1
 5172 1a92 282F      		mov r18,r24
 5173 1a94 30E0      		ldi r19,lo8(0)
 5174               	.LVL301:
 5175 1a96 C901      		movw r24,r18
 5176               	.LVL302:
 5177 1a98 55E0      		ldi r21,5
 5178 1a9a 880F      	1:	lsl r24
 5179 1a9c 991F      		rol r25
 5180 1a9e 5A95      		dec r21
 5181 1aa0 01F4      		brne 1b
 5182 1aa2 220F      		lsl r18
 5183 1aa4 331F      		rol r19
 5184               	.LVL303:
 5185 1aa6 821B      		sub r24,r18
 5186 1aa8 930B      		sbc r25,r19
 5187 1aaa E80F      		add r30,r24
 5188 1aac F91F      		adc r31,r25
 5189 1aae ED5A      		subi r30,lo8(-(83))
 5190 1ab0 FF4F      		sbci r31,hi8(-(83))
 5191 1ab2 8081      		ld r24,Z
 5192 1ab4 8E7F      		andi r24,lo8(-2)
 5193 1ab6 8083      		st Z,r24
 5194               	/* epilogue start */
 5195               	.LM458:
 5196 1ab8 0895      		ret
 5197               	.LFE91:
 5199               	.global	Timebase_DownCounter_SS_Reset
 5201               	Timebase_DownCounter_SS_Reset:
 5202               	.LFB92:
 5203               	.LM459:
 5204               	.LVL304:
 5205               	/* prologue: function */
 5206               	/* frame size = 0 */
 5207               	.LBB647:
 5208               	.LBB648:
 5209               	.LM460:
 5210 1aba 4091 0000 		lds r20,Timebase
 5211 1abe 5091 0000 		lds r21,(Timebase)+1
 5212 1ac2 282F      		mov r18,r24
 5213 1ac4 30E0      		ldi r19,lo8(0)
 5214 1ac6 F901      		movw r30,r18
 5215 1ac8 95E0      		ldi r25,5
 5216 1aca EE0F      	1:	lsl r30
 5217 1acc FF1F      		rol r31
 5218 1ace 9A95      		dec r25
 5219 1ad0 01F4      		brne 1b
 5220 1ad2 220F      		lsl r18
 5221 1ad4 331F      		rol r19
 5222 1ad6 E21B      		sub r30,r18
 5223 1ad8 F30B      		sbc r31,r19
 5224 1ada E40F      		add r30,r20
 5225 1adc F51F      		adc r31,r21
 5226 1ade E85A      		subi r30,lo8(-(88))
 5227 1ae0 FF4F      		sbci r31,hi8(-(88))
 5228 1ae2 1082      		st Z,__zero_reg__
 5229 1ae4 1182      		std Z+1,__zero_reg__
 5230 1ae6 1282      		std Z+2,__zero_reg__
 5231 1ae8 1382      		std Z+3,__zero_reg__
 5232               	.LBE648:
 5233               	.LBE647:
 5234               	.LBB649:
 5235               	.LBB650:
 5236               	.LM461:
 5237 1aea 282F      		mov r18,r24
 5238 1aec 30E0      		ldi r19,lo8(0)
 5239 1aee F901      		movw r30,r18
 5240 1af0 A5E0      		ldi r26,5
 5241 1af2 EE0F      	1:	lsl r30
 5242 1af4 FF1F      		rol r31
 5243 1af6 AA95      		dec r26
 5244 1af8 01F4      		brne 1b
 5245 1afa 220F      		lsl r18
 5246 1afc 331F      		rol r19
 5247 1afe E21B      		sub r30,r18
 5248 1b00 F30B      		sbc r31,r19
 5249 1b02 E40F      		add r30,r20
 5250 1b04 F51F      		adc r31,r21
 5251 1b06 EC5A      		subi r30,lo8(-(84))
 5252 1b08 FF4F      		sbci r31,hi8(-(84))
 5253 1b0a 1082      		st Z,__zero_reg__
 5254 1b0c 1182      		std Z+1,__zero_reg__
 5255 1b0e 1282      		std Z+2,__zero_reg__
 5256 1b10 1382      		std Z+3,__zero_reg__
 5257               	.LBE650:
 5258               	.LBE649:
 5259               	.LBB651:
 5260               	.LBB652:
 5261               	.LM462:
 5262 1b12 282F      		mov r18,r24
 5263 1b14 30E0      		ldi r19,lo8(0)
 5264 1b16 F901      		movw r30,r18
 5265 1b18 65E0      		ldi r22,5
 5266 1b1a EE0F      	1:	lsl r30
 5267 1b1c FF1F      		rol r31
 5268 1b1e 6A95      		dec r22
 5269 1b20 01F4      		brne 1b
 5270 1b22 220F      		lsl r18
 5271 1b24 331F      		rol r19
 5272 1b26 E21B      		sub r30,r18
 5273 1b28 F30B      		sbc r31,r19
 5274 1b2a E40F      		add r30,r20
 5275 1b2c F51F      		adc r31,r21
 5276 1b2e E45A      		subi r30,lo8(-(92))
 5277 1b30 FF4F      		sbci r31,hi8(-(92))
 5278 1b32 1082      		st Z,__zero_reg__
 5279 1b34 1182      		std Z+1,__zero_reg__
 5280 1b36 1282      		std Z+2,__zero_reg__
 5281 1b38 1382      		std Z+3,__zero_reg__
 5282               	.LBE652:
 5283               	.LBE651:
 5284               	.LBB653:
 5285               	.LBB654:
 5286               	.LM463:
 5287 1b3a 282F      		mov r18,r24
 5288 1b3c 30E0      		ldi r19,lo8(0)
 5289 1b3e F901      		movw r30,r18
 5290 1b40 B5E0      		ldi r27,5
 5291 1b42 EE0F      	1:	lsl r30
 5292 1b44 FF1F      		rol r31
 5293 1b46 BA95      		dec r27
 5294 1b48 01F4      		brne 1b
 5295 1b4a 220F      		lsl r18
 5296 1b4c 331F      		rol r19
 5297 1b4e E21B      		sub r30,r18
 5298 1b50 F30B      		sbc r31,r19
 5299 1b52 E40F      		add r30,r20
 5300 1b54 F51F      		adc r31,r21
 5301 1b56 ED5A      		subi r30,lo8(-(83))
 5302 1b58 FF4F      		sbci r31,hi8(-(83))
 5303 1b5a 9081      		ld r25,Z
 5304 1b5c 917E      		andi r25,lo8(-31)
 5305 1b5e 9083      		st Z,r25
 5306               	.LBE654:
 5307               	.LBE653:
 5308               	.LBB655:
 5309               	.LBB656:
 5310               	.LM464:
 5311 1b60 282F      		mov r18,r24
 5312 1b62 30E0      		ldi r19,lo8(0)
 5313 1b64 F901      		movw r30,r18
 5314 1b66 75E0      		ldi r23,5
 5315 1b68 EE0F      	1:	lsl r30
 5316 1b6a FF1F      		rol r31
 5317 1b6c 7A95      		dec r23
 5318 1b6e 01F4      		brne 1b
 5319 1b70 220F      		lsl r18
 5320 1b72 331F      		rol r19
 5321 1b74 E21B      		sub r30,r18
 5322 1b76 F30B      		sbc r31,r19
 5323 1b78 E40F      		add r30,r20
 5324 1b7a F51F      		adc r31,r21
 5325 1b7c ED5A      		subi r30,lo8(-(83))
 5326 1b7e FF4F      		sbci r31,hi8(-(83))
 5327 1b80 8081      		ld r24,Z
 5328               	.LVL305:
 5329 1b82 8E7F      		andi r24,lo8(-2)
 5330 1b84 8083      		st Z,r24
 5331               	/* epilogue start */
 5332               	.LBE656:
 5333               	.LBE655:
 5334               	.LM465:
 5335 1b86 0895      		ret
 5336               	.LFE92:
 5338               	.global	Timebase_DownCounter_SS_Clear_All_Flags
 5340               	Timebase_DownCounter_SS_Clear_All_Flags:
 5341               	.LFB93:
 5342               	.LM466:
 5343               	.LVL306:
 5344               	/* prologue: function */
 5345               	/* frame size = 0 */
 5346               	.LBB657:
 5347               	.LBB658:
 5348               	.LBB659:
 5349               	.LBB660:
 5350               	.LM467:
 5351 1b88 4091 0000 		lds r20,Timebase
 5352 1b8c 5091 0000 		lds r21,(Timebase)+1
 5353 1b90 282F      		mov r18,r24
 5354 1b92 30E0      		ldi r19,lo8(0)
 5355 1b94 F901      		movw r30,r18
 5356 1b96 95E0      		ldi r25,5
 5357 1b98 EE0F      	1:	lsl r30
 5358 1b9a FF1F      		rol r31
 5359 1b9c 9A95      		dec r25
 5360 1b9e 01F4      		brne 1b
 5361 1ba0 220F      		lsl r18
 5362 1ba2 331F      		rol r19
 5363 1ba4 E21B      		sub r30,r18
 5364 1ba6 F30B      		sbc r31,r19
 5365 1ba8 E40F      		add r30,r20
 5366 1baa F51F      		adc r31,r21
 5367 1bac E85A      		subi r30,lo8(-(88))
 5368 1bae FF4F      		sbci r31,hi8(-(88))
 5369 1bb0 1082      		st Z,__zero_reg__
 5370 1bb2 1182      		std Z+1,__zero_reg__
 5371 1bb4 1282      		std Z+2,__zero_reg__
 5372 1bb6 1382      		std Z+3,__zero_reg__
 5373               	.LBE660:
 5374               	.LBE659:
 5375               	.LBB661:
 5376               	.LBB662:
 5377               	.LM468:
 5378 1bb8 282F      		mov r18,r24
 5379 1bba 30E0      		ldi r19,lo8(0)
 5380 1bbc F901      		movw r30,r18
 5381 1bbe A5E0      		ldi r26,5
 5382 1bc0 EE0F      	1:	lsl r30
 5383 1bc2 FF1F      		rol r31
 5384 1bc4 AA95      		dec r26
 5385 1bc6 01F4      		brne 1b
 5386 1bc8 220F      		lsl r18
 5387 1bca 331F      		rol r19
 5388 1bcc E21B      		sub r30,r18
 5389 1bce F30B      		sbc r31,r19
 5390 1bd0 E40F      		add r30,r20
 5391 1bd2 F51F      		adc r31,r21
 5392 1bd4 EC5A      		subi r30,lo8(-(84))
 5393 1bd6 FF4F      		sbci r31,hi8(-(84))
 5394 1bd8 1082      		st Z,__zero_reg__
 5395 1bda 1182      		std Z+1,__zero_reg__
 5396 1bdc 1282      		std Z+2,__zero_reg__
 5397 1bde 1382      		std Z+3,__zero_reg__
 5398               	.LBE662:
 5399               	.LBE661:
 5400               	.LBB663:
 5401               	.LBB664:
 5402               	.LM469:
 5403 1be0 282F      		mov r18,r24
 5404 1be2 30E0      		ldi r19,lo8(0)
 5405 1be4 F901      		movw r30,r18
 5406 1be6 65E0      		ldi r22,5
 5407 1be8 EE0F      	1:	lsl r30
 5408 1bea FF1F      		rol r31
 5409 1bec 6A95      		dec r22
 5410 1bee 01F4      		brne 1b
 5411 1bf0 220F      		lsl r18
 5412 1bf2 331F      		rol r19
 5413 1bf4 E21B      		sub r30,r18
 5414 1bf6 F30B      		sbc r31,r19
 5415 1bf8 E40F      		add r30,r20
 5416 1bfa F51F      		adc r31,r21
 5417 1bfc E45A      		subi r30,lo8(-(92))
 5418 1bfe FF4F      		sbci r31,hi8(-(92))
 5419 1c00 1082      		st Z,__zero_reg__
 5420 1c02 1182      		std Z+1,__zero_reg__
 5421 1c04 1282      		std Z+2,__zero_reg__
 5422 1c06 1382      		std Z+3,__zero_reg__
 5423               	.LBE664:
 5424               	.LBE663:
 5425               	.LBB665:
 5426               	.LBB666:
 5427               	.LM470:
 5428 1c08 282F      		mov r18,r24
 5429 1c0a 30E0      		ldi r19,lo8(0)
 5430 1c0c F901      		movw r30,r18
 5431 1c0e B5E0      		ldi r27,5
 5432 1c10 EE0F      	1:	lsl r30
 5433 1c12 FF1F      		rol r31
 5434 1c14 BA95      		dec r27
 5435 1c16 01F4      		brne 1b
 5436 1c18 220F      		lsl r18
 5437 1c1a 331F      		rol r19
 5438 1c1c E21B      		sub r30,r18
 5439 1c1e F30B      		sbc r31,r19
 5440 1c20 E40F      		add r30,r20
 5441 1c22 F51F      		adc r31,r21
 5442 1c24 ED5A      		subi r30,lo8(-(83))
 5443 1c26 FF4F      		sbci r31,hi8(-(83))
 5444 1c28 9081      		ld r25,Z
 5445 1c2a 917E      		andi r25,lo8(-31)
 5446 1c2c 9083      		st Z,r25
 5447               	.LBE666:
 5448               	.LBE665:
 5449               	.LBB667:
 5450               	.LBB668:
 5451               	.LM471:
 5452 1c2e 282F      		mov r18,r24
 5453 1c30 30E0      		ldi r19,lo8(0)
 5454 1c32 F901      		movw r30,r18
 5455 1c34 75E0      		ldi r23,5
 5456 1c36 EE0F      	1:	lsl r30
 5457 1c38 FF1F      		rol r31
 5458 1c3a 7A95      		dec r23
 5459 1c3c 01F4      		brne 1b
 5460 1c3e 220F      		lsl r18
 5461 1c40 331F      		rol r19
 5462 1c42 E21B      		sub r30,r18
 5463 1c44 F30B      		sbc r31,r19
 5464 1c46 E40F      		add r30,r20
 5465 1c48 F51F      		adc r31,r21
 5466 1c4a ED5A      		subi r30,lo8(-(83))
 5467 1c4c FF4F      		sbci r31,hi8(-(83))
 5468 1c4e 8081      		ld r24,Z
 5469               	.LVL307:
 5470 1c50 8E7F      		andi r24,lo8(-2)
 5471 1c52 8083      		st Z,r24
 5472               	/* epilogue start */
 5473               	.LBE668:
 5474               	.LBE667:
 5475               	.LBE658:
 5476               	.LBE657:
 5477               	.LM472:
 5478 1c54 0895      		ret
 5479               	.LFE93:
 5481               	.global	Timebase_DownCounter_SS_Start
 5483               	Timebase_DownCounter_SS_Start:
 5484               	.LFB94:
 5485               	.LM473:
 5486               	.LVL308:
 5487               	/* prologue: function */
 5488               	/* frame size = 0 */
 5489 1c56 482F      		mov r20,r24
 5490               	.LBB669:
 5491               	.LBB670:
 5492               	.LM474:
 5493 1c58 2091 0000 		lds r18,Timebase
 5494 1c5c 3091 0000 		lds r19,(Timebase)+1
 5495               	.LBE670:
 5496               	.LBE669:
 5497               	.LM475:
 5498 1c60 90E0      		ldi r25,lo8(0)
 5499 1c62 FC01      		movw r30,r24
 5500               	.LVL309:
 5501 1c64 75E0      		ldi r23,5
 5502 1c66 EE0F      	1:	lsl r30
 5503 1c68 FF1F      		rol r31
 5504 1c6a 7A95      		dec r23
 5505 1c6c 01F4      		brne 1b
 5506 1c6e 880F      		lsl r24
 5507 1c70 991F      		rol r25
 5508 1c72 E81B      		sub r30,r24
 5509 1c74 F90B      		sbc r31,r25
 5510 1c76 E20F      		add r30,r18
 5511 1c78 F31F      		adc r31,r19
 5512 1c7a ED5A      		subi r30,lo8(-(83))
 5513 1c7c FF4F      		sbci r31,hi8(-(83))
 5514 1c7e 8081      		ld r24,Z
 5515 1c80 8695      		lsr r24
 5516 1c82 8F70      		andi r24,lo8(15)
 5517 1c84 8130      		cpi r24,lo8(1)
 5518 1c86 01F0      		breq .L250
 5519               	.LBB671:
 5520               	.LBB672:
 5521               	.LM476:
 5522 1c88 842F      		mov r24,r20
 5523 1c8a 90E0      		ldi r25,lo8(0)
 5524 1c8c FC01      		movw r30,r24
 5525 1c8e 55E0      		ldi r21,5
 5526 1c90 EE0F      	1:	lsl r30
 5527 1c92 FF1F      		rol r31
 5528 1c94 5A95      		dec r21
 5529 1c96 01F4      		brne 1b
 5530 1c98 880F      		lsl r24
 5531 1c9a 991F      		rol r25
 5532               	.LVL310:
 5533 1c9c E81B      		sub r30,r24
 5534 1c9e F90B      		sbc r31,r25
 5535 1ca0 E20F      		add r30,r18
 5536 1ca2 F31F      		adc r31,r19
 5537 1ca4 ED5A      		subi r30,lo8(-(83))
 5538 1ca6 FF4F      		sbci r31,hi8(-(83))
 5539 1ca8 8081      		ld r24,Z
 5540 1caa 817E      		andi r24,lo8(-31)
 5541 1cac 8260      		ori r24,lo8(2)
 5542 1cae 8083      		st Z,r24
 5543               	.LVL311:
 5544               	.L250:
 5545 1cb0 0895      		ret
 5546               	.LBE672:
 5547               	.LBE671:
 5548               	.LFE94:
 5550               	.global	Timebase_DownCounter_SS_Stop
 5552               	Timebase_DownCounter_SS_Stop:
 5553               	.LFB95:
 5554               	.LM477:
 5555               	.LVL312:
 5556               	/* prologue: function */
 5557               	/* frame size = 0 */
 5558 1cb2 482F      		mov r20,r24
 5559               	.LBB673:
 5560               	.LBB674:
 5561               	.LM478:
 5562 1cb4 2091 0000 		lds r18,Timebase
 5563 1cb8 3091 0000 		lds r19,(Timebase)+1
 5564               	.LBE674:
 5565               	.LBE673:
 5566               	.LM479:
 5567 1cbc 90E0      		ldi r25,lo8(0)
 5568 1cbe FC01      		movw r30,r24
 5569               	.LVL313:
 5570 1cc0 65E0      		ldi r22,5
 5571 1cc2 EE0F      	1:	lsl r30
 5572 1cc4 FF1F      		rol r31
 5573 1cc6 6A95      		dec r22
 5574 1cc8 01F4      		brne 1b
 5575 1cca 880F      		lsl r24
 5576 1ccc 991F      		rol r25
 5577 1cce E81B      		sub r30,r24
 5578 1cd0 F90B      		sbc r31,r25
 5579 1cd2 E20F      		add r30,r18
 5580 1cd4 F31F      		adc r31,r19
 5581 1cd6 ED5A      		subi r30,lo8(-(83))
 5582 1cd8 FF4F      		sbci r31,hi8(-(83))
 5583 1cda 8081      		ld r24,Z
 5584 1cdc 8695      		lsr r24
 5585 1cde 8F70      		andi r24,lo8(15)
 5586 1ce0 8230      		cpi r24,lo8(2)
 5587 1ce2 01F0      		breq .L253
 5588               	.LBB675:
 5589               	.LBB676:
 5590               	.LM480:
 5591 1ce4 842F      		mov r24,r20
 5592 1ce6 90E0      		ldi r25,lo8(0)
 5593 1ce8 FC01      		movw r30,r24
 5594 1cea B5E0      		ldi r27,5
 5595 1cec EE0F      	1:	lsl r30
 5596 1cee FF1F      		rol r31
 5597 1cf0 BA95      		dec r27
 5598 1cf2 01F4      		brne 1b
 5599 1cf4 880F      		lsl r24
 5600 1cf6 991F      		rol r25
 5601 1cf8 E81B      		sub r30,r24
 5602 1cfa F90B      		sbc r31,r25
 5603 1cfc E20F      		add r30,r18
 5604 1cfe F31F      		adc r31,r19
 5605 1d00 ED5A      		subi r30,lo8(-(83))
 5606 1d02 FF4F      		sbci r31,hi8(-(83))
 5607 1d04 8081      		ld r24,Z
 5608 1d06 817E      		andi r24,lo8(-31)
 5609 1d08 8460      		ori r24,lo8(4)
 5610 1d0a 8083      		st Z,r24
 5611               	.L253:
 5612 1d0c 0895      		ret
 5613               	.LBE676:
 5614               	.LBE675:
 5615               	.LFE95:
 5617               	.global	Timebase_DownCounter_SS_Set_Securely
 5619               	Timebase_DownCounter_SS_Set_Securely:
 5620               	.LFB96:
 5621               	.LM481:
 5622               	.LVL314:
 5623 1d0e 9F92      		push r9
 5624 1d10 AF92      		push r10
 5625 1d12 BF92      		push r11
 5626 1d14 CF92      		push r12
 5627 1d16 DF92      		push r13
 5628 1d18 EF92      		push r14
 5629 1d1a FF92      		push r15
 5630 1d1c 0F93      		push r16
 5631 1d1e 1F93      		push r17
 5632 1d20 CF93      		push r28
 5633 1d22 DF93      		push r29
 5634               	/* prologue: function */
 5635               	/* frame size = 0 */
 5636 1d24 982E      		mov r9,r24
 5637 1d26 7A01      		movw r14,r20
 5638 1d28 8B01      		movw r16,r22
 5639               	.LBB677:
 5640               	.LBB678:
 5641               	.LM482:
 5642 1d2a C091 0000 		lds r28,Timebase
 5643 1d2e D091 0000 		lds r29,(Timebase)+1
 5644               	.LBE678:
 5645               	.LBE677:
 5646               	.LM483:
 5647 1d32 90E0      		ldi r25,lo8(0)
 5648 1d34 FC01      		movw r30,r24
 5649               	.LVL315:
 5650 1d36 35E0      		ldi r19,5
 5651 1d38 EE0F      	1:	lsl r30
 5652 1d3a FF1F      		rol r31
 5653 1d3c 3A95      		dec r19
 5654 1d3e 01F4      		brne 1b
 5655 1d40 880F      		lsl r24
 5656 1d42 991F      		rol r25
 5657 1d44 E81B      		sub r30,r24
 5658 1d46 F90B      		sbc r31,r25
 5659 1d48 EC0F      		add r30,r28
 5660 1d4a FD1F      		adc r31,r29
 5661 1d4c ED5A      		subi r30,lo8(-(83))
 5662 1d4e FF4F      		sbci r31,hi8(-(83))
 5663 1d50 8081      		ld r24,Z
 5664 1d52 8695      		lsr r24
 5665 1d54 8F70      		andi r24,lo8(15)
 5666 1d56 01F0      		breq .+2
 5667 1d58 00C0      		rjmp .L257
 5668               	.LVL316:
 5669               	.LBB679:
 5670               	.LBB680:
 5671               	.LBB681:
 5672               	.LM484:
 5673 1d5a 892D      		mov r24,r9
 5674 1d5c 90E0      		ldi r25,lo8(0)
 5675 1d5e FC01      		movw r30,r24
 5676 1d60 B5E0      		ldi r27,5
 5677 1d62 EE0F      	1:	lsl r30
 5678 1d64 FF1F      		rol r31
 5679 1d66 BA95      		dec r27
 5680 1d68 01F4      		brne 1b
 5681 1d6a 880F      		lsl r24
 5682 1d6c 991F      		rol r25
 5683 1d6e E81B      		sub r30,r24
 5684 1d70 F90B      		sbc r31,r25
 5685 1d72 EC0F      		add r30,r28
 5686 1d74 FD1F      		adc r31,r29
 5687 1d76 E45A      		subi r30,lo8(-(92))
 5688 1d78 FF4F      		sbci r31,hi8(-(92))
 5689 1d7a 4083      		st Z,r20
 5690 1d7c 5183      		std Z+1,r21
 5691 1d7e 6283      		std Z+2,r22
 5692 1d80 7383      		std Z+3,r23
 5693               	.LBE681:
 5694               	.LBE680:
 5695               	.LM485:
 5696 1d82 2981      		ldd r18,Y+1
 5697 1d84 3A81      		ldd r19,Y+2
 5698 1d86 40E0      		ldi r20,lo8(0)
 5699 1d88 50E0      		ldi r21,hi8(0)
 5700 1d8a C801      		movw r24,r16
 5701 1d8c B701      		movw r22,r14
 5702 1d8e 0E94 0000 		call __divmodsi4
 5703 1d92 C901      		movw r24,r18
 5704 1d94 DA01      		movw r26,r20
 5705 1d96 5C01      		movw r10,r24
 5706 1d98 6D01      		movw r12,r26
 5707               	.LVL317:
 5708               	.LM486:
 5709 1d9a 2981      		ldd r18,Y+1
 5710 1d9c 3A81      		ldd r19,Y+2
 5711 1d9e 40E0      		ldi r20,lo8(0)
 5712 1da0 50E0      		ldi r21,hi8(0)
 5713 1da2 C801      		movw r24,r16
 5714 1da4 B701      		movw r22,r14
 5715 1da6 0E94 0000 		call __divmodsi4
 5716 1daa 9B01      		movw r18,r22
 5717 1dac AC01      		movw r20,r24
 5718               	.LVL318:
 5719               	.LBB682:
 5720               	.LBB683:
 5721               	.LM487:
 5722 1dae 8885      		ldd r24,Y+8
 5723 1db0 9985      		ldd r25,Y+9
 5724               	.LBE683:
 5725               	.LBE682:
 5726               	.LM488:
 5727 1db2 7C01      		movw r14,r24
 5728               	.LVL319:
 5729 1db4 00E0      		ldi r16,lo8(0)
 5730 1db6 10E0      		ldi r17,hi8(0)
 5731               	.LVL320:
 5732 1db8 E20E      		add r14,r18
 5733 1dba F31E      		adc r15,r19
 5734 1dbc 041F      		adc r16,r20
 5735 1dbe 151F      		adc r17,r21
 5736               	.LVL321:
 5737               	.LM489:
 5738 1dc0 8981      		ldd r24,Y+1
 5739 1dc2 9A81      		ldd r25,Y+2
 5740 1dc4 A0E0      		ldi r26,lo8(0)
 5741 1dc6 B0E0      		ldi r27,hi8(0)
 5742 1dc8 E816      		cp r14,r24
 5743 1dca F906      		cpc r15,r25
 5744 1dcc 0A07      		cpc r16,r26
 5745 1dce 1B07      		cpc r17,r27
 5746 1dd0 04F0      		brlt .L256
 5747               	.LM490:
 5748 1dd2 0894      		sec
 5749 1dd4 A11C      		adc r10,__zero_reg__
 5750 1dd6 B11C      		adc r11,__zero_reg__
 5751 1dd8 C11C      		adc r12,__zero_reg__
 5752 1dda D11C      		adc r13,__zero_reg__
 5753               	.LM491:
 5754 1ddc 2981      		ldd r18,Y+1
 5755 1dde 3A81      		ldd r19,Y+2
 5756 1de0 40E0      		ldi r20,lo8(0)
 5757 1de2 50E0      		ldi r21,hi8(0)
 5758 1de4 C801      		movw r24,r16
 5759 1de6 B701      		movw r22,r14
 5760 1de8 0E94 0000 		call __divmodsi4
 5761 1dec AC01      		movw r20,r24
 5762 1dee CB01      		movw r24,r22
 5763 1df0 DA01      		movw r26,r20
 5764 1df2 7C01      		movw r14,r24
 5765 1df4 8D01      		movw r16,r26
 5766               	.L256:
 5767               	.LBB684:
 5768               	.LBB685:
 5769               	.LM492:
 5770 1df6 2A85      		ldd r18,Y+10
 5771 1df8 3B85      		ldd r19,Y+11
 5772 1dfa 4C85      		ldd r20,Y+12
 5773 1dfc 5D85      		ldd r21,Y+13
 5774               	.LBE685:
 5775               	.LBE684:
 5776               	.LBB686:
 5777               	.LBB687:
 5778               	.LM493:
 5779 1dfe 892D      		mov r24,r9
 5780 1e00 90E0      		ldi r25,lo8(0)
 5781 1e02 FC01      		movw r30,r24
 5782 1e04 75E0      		ldi r23,5
 5783 1e06 EE0F      	1:	lsl r30
 5784 1e08 FF1F      		rol r31
 5785 1e0a 7A95      		dec r23
 5786 1e0c 01F4      		brne 1b
 5787 1e0e 880F      		lsl r24
 5788 1e10 991F      		rol r25
 5789 1e12 E81B      		sub r30,r24
 5790 1e14 F90B      		sbc r31,r25
 5791 1e16 EC0F      		add r30,r28
 5792 1e18 FD1F      		adc r31,r29
 5793 1e1a EC5A      		subi r30,lo8(-(84))
 5794 1e1c FF4F      		sbci r31,hi8(-(84))
 5795 1e1e 2A0D      		add r18,r10
 5796 1e20 3B1D      		adc r19,r11
 5797 1e22 4C1D      		adc r20,r12
 5798 1e24 5D1D      		adc r21,r13
 5799 1e26 2083      		st Z,r18
 5800 1e28 3183      		std Z+1,r19
 5801 1e2a 4283      		std Z+2,r20
 5802 1e2c 5383      		std Z+3,r21
 5803               	.LBE687:
 5804               	.LBE686:
 5805               	.LBB688:
 5806               	.LBB689:
 5807               	.LM494:
 5808 1e2e 2885      		ldd r18,Y+8
 5809 1e30 3985      		ldd r19,Y+9
 5810               	.LBE689:
 5811               	.LBE688:
 5812               	.LBB690:
 5813               	.LBB691:
 5814               	.LM495:
 5815 1e32 892D      		mov r24,r9
 5816 1e34 90E0      		ldi r25,lo8(0)
 5817 1e36 FC01      		movw r30,r24
 5818 1e38 55E0      		ldi r21,5
 5819 1e3a EE0F      	1:	lsl r30
 5820 1e3c FF1F      		rol r31
 5821 1e3e 5A95      		dec r21
 5822 1e40 01F4      		brne 1b
 5823 1e42 880F      		lsl r24
 5824 1e44 991F      		rol r25
 5825 1e46 E81B      		sub r30,r24
 5826 1e48 F90B      		sbc r31,r25
 5827 1e4a EC0F      		add r30,r28
 5828 1e4c FD1F      		adc r31,r29
 5829 1e4e E85A      		subi r30,lo8(-(88))
 5830 1e50 FF4F      		sbci r31,hi8(-(88))
 5831 1e52 40E0      		ldi r20,lo8(0)
 5832 1e54 50E0      		ldi r21,hi8(0)
 5833 1e56 2E0D      		add r18,r14
 5834 1e58 3F1D      		adc r19,r15
 5835 1e5a 401F      		adc r20,r16
 5836 1e5c 511F      		adc r21,r17
 5837 1e5e 2083      		st Z,r18
 5838 1e60 3183      		std Z+1,r19
 5839 1e62 4283      		std Z+2,r20
 5840 1e64 5383      		std Z+3,r21
 5841               	.LBE691:
 5842               	.LBE690:
 5843               	.LBB692:
 5844               	.LBB693:
 5845               	.LM496:
 5846 1e66 892D      		mov r24,r9
 5847 1e68 90E0      		ldi r25,lo8(0)
 5848 1e6a FC01      		movw r30,r24
 5849 1e6c 15E0      		ldi r17,5
 5850 1e6e EE0F      	1:	lsl r30
 5851 1e70 FF1F      		rol r31
 5852 1e72 1A95      		dec r17
 5853 1e74 01F4      		brne 1b
 5854 1e76 880F      		lsl r24
 5855 1e78 991F      		rol r25
 5856 1e7a E81B      		sub r30,r24
 5857 1e7c F90B      		sbc r31,r25
 5858 1e7e EC0F      		add r30,r28
 5859 1e80 FD1F      		adc r31,r29
 5860 1e82 ED5A      		subi r30,lo8(-(83))
 5861 1e84 FF4F      		sbci r31,hi8(-(83))
 5862 1e86 8081      		ld r24,Z
 5863 1e88 8695      		lsr r24
 5864 1e8a 8F70      		andi r24,lo8(15)
 5865 1e8c 8130      		cpi r24,lo8(1)
 5866 1e8e 01F0      		breq .L257
 5867               	.LBB694:
 5868               	.LBB695:
 5869               	.LM497:
 5870 1e90 892D      		mov r24,r9
 5871 1e92 90E0      		ldi r25,lo8(0)
 5872 1e94 FC01      		movw r30,r24
 5873 1e96 A5E0      		ldi r26,5
 5874 1e98 EE0F      	1:	lsl r30
 5875 1e9a FF1F      		rol r31
 5876 1e9c AA95      		dec r26
 5877 1e9e 01F4      		brne 1b
 5878 1ea0 880F      		lsl r24
 5879 1ea2 991F      		rol r25
 5880 1ea4 E81B      		sub r30,r24
 5881 1ea6 F90B      		sbc r31,r25
 5882 1ea8 EC0F      		add r30,r28
 5883 1eaa FD1F      		adc r31,r29
 5884 1eac ED5A      		subi r30,lo8(-(83))
 5885 1eae FF4F      		sbci r31,hi8(-(83))
 5886 1eb0 8081      		ld r24,Z
 5887 1eb2 817E      		andi r24,lo8(-31)
 5888 1eb4 8260      		ori r24,lo8(2)
 5889 1eb6 8083      		st Z,r24
 5890               	.LVL322:
 5891               	.L257:
 5892               	/* epilogue start */
 5893               	.LBE695:
 5894               	.LBE694:
 5895               	.LBE693:
 5896               	.LBE692:
 5897               	.LBE679:
 5898               	.LM498:
 5899 1eb8 DF91      		pop r29
 5900 1eba CF91      		pop r28
 5901 1ebc 1F91      		pop r17
 5902 1ebe 0F91      		pop r16
 5903               	.LVL323:
 5904 1ec0 FF90      		pop r15
 5905 1ec2 EF90      		pop r14
 5906               	.LVL324:
 5907 1ec4 DF90      		pop r13
 5908 1ec6 CF90      		pop r12
 5909 1ec8 BF90      		pop r11
 5910 1eca AF90      		pop r10
 5911               	.LVL325:
 5912 1ecc 9F90      		pop r9
 5913               	.LVL326:
 5914 1ece 0895      		ret
 5915               	.LFE96:
 5917               	.global	Timebase_DownCounter_SS_Set_Forcefully
 5919               	Timebase_DownCounter_SS_Set_Forcefully:
 5920               	.LFB97:
 5921               	.LM499:
 5922               	.LVL327:
 5923               	/* prologue: function */
 5924               	/* frame size = 0 */
 5925               	.LBB696:
 5926               	.LBB697:
 5927               	.LBB698:
 5928               	.LBB699:
 5929               	.LM500:
 5930 1ed0 A091 0000 		lds r26,Timebase
 5931 1ed4 B091 0000 		lds r27,(Timebase)+1
 5932 1ed8 282F      		mov r18,r24
 5933 1eda 30E0      		ldi r19,lo8(0)
 5934 1edc F901      		movw r30,r18
 5935 1ede 95E0      		ldi r25,5
 5936 1ee0 EE0F      	1:	lsl r30
 5937 1ee2 FF1F      		rol r31
 5938 1ee4 9A95      		dec r25
 5939 1ee6 01F4      		brne 1b
 5940 1ee8 220F      		lsl r18
 5941 1eea 331F      		rol r19
 5942 1eec E21B      		sub r30,r18
 5943 1eee F30B      		sbc r31,r19
 5944 1ef0 EA0F      		add r30,r26
 5945 1ef2 FB1F      		adc r31,r27
 5946 1ef4 E85A      		subi r30,lo8(-(88))
 5947 1ef6 FF4F      		sbci r31,hi8(-(88))
 5948 1ef8 1082      		st Z,__zero_reg__
 5949 1efa 1182      		std Z+1,__zero_reg__
 5950 1efc 1282      		std Z+2,__zero_reg__
 5951 1efe 1382      		std Z+3,__zero_reg__
 5952               	.LBE699:
 5953               	.LBE698:
 5954               	.LBB700:
 5955               	.LBB701:
 5956               	.LM501:
 5957 1f00 282F      		mov r18,r24
 5958 1f02 30E0      		ldi r19,lo8(0)
 5959 1f04 F901      		movw r30,r18
 5960 1f06 95E0      		ldi r25,5
 5961 1f08 EE0F      	1:	lsl r30
 5962 1f0a FF1F      		rol r31
 5963 1f0c 9A95      		dec r25
 5964 1f0e 01F4      		brne 1b
 5965 1f10 220F      		lsl r18
 5966 1f12 331F      		rol r19
 5967 1f14 E21B      		sub r30,r18
 5968 1f16 F30B      		sbc r31,r19
 5969 1f18 EA0F      		add r30,r26
 5970 1f1a FB1F      		adc r31,r27
 5971 1f1c EC5A      		subi r30,lo8(-(84))
 5972 1f1e FF4F      		sbci r31,hi8(-(84))
 5973 1f20 1082      		st Z,__zero_reg__
 5974 1f22 1182      		std Z+1,__zero_reg__
 5975 1f24 1282      		std Z+2,__zero_reg__
 5976 1f26 1382      		std Z+3,__zero_reg__
 5977               	.LBE701:
 5978               	.LBE700:
 5979               	.LBB702:
 5980               	.LBB703:
 5981               	.LM502:
 5982 1f28 282F      		mov r18,r24
 5983 1f2a 30E0      		ldi r19,lo8(0)
 5984 1f2c F901      		movw r30,r18
 5985 1f2e 95E0      		ldi r25,5
 5986 1f30 EE0F      	1:	lsl r30
 5987 1f32 FF1F      		rol r31
 5988 1f34 9A95      		dec r25
 5989 1f36 01F4      		brne 1b
 5990 1f38 220F      		lsl r18
 5991 1f3a 331F      		rol r19
 5992 1f3c E21B      		sub r30,r18
 5993 1f3e F30B      		sbc r31,r19
 5994 1f40 EA0F      		add r30,r26
 5995 1f42 FB1F      		adc r31,r27
 5996 1f44 E45A      		subi r30,lo8(-(92))
 5997 1f46 FF4F      		sbci r31,hi8(-(92))
 5998 1f48 1082      		st Z,__zero_reg__
 5999 1f4a 1182      		std Z+1,__zero_reg__
 6000 1f4c 1282      		std Z+2,__zero_reg__
 6001 1f4e 1382      		std Z+3,__zero_reg__
 6002               	.LBE703:
 6003               	.LBE702:
 6004               	.LBB704:
 6005               	.LBB705:
 6006               	.LM503:
 6007 1f50 282F      		mov r18,r24
 6008 1f52 30E0      		ldi r19,lo8(0)
 6009 1f54 F901      		movw r30,r18
 6010 1f56 95E0      		ldi r25,5
 6011 1f58 EE0F      	1:	lsl r30
 6012 1f5a FF1F      		rol r31
 6013 1f5c 9A95      		dec r25
 6014 1f5e 01F4      		brne 1b
 6015 1f60 220F      		lsl r18
 6016 1f62 331F      		rol r19
 6017 1f64 E21B      		sub r30,r18
 6018 1f66 F30B      		sbc r31,r19
 6019 1f68 EA0F      		add r30,r26
 6020 1f6a FB1F      		adc r31,r27
 6021 1f6c ED5A      		subi r30,lo8(-(83))
 6022 1f6e FF4F      		sbci r31,hi8(-(83))
 6023 1f70 9081      		ld r25,Z
 6024 1f72 917E      		andi r25,lo8(-31)
 6025 1f74 9083      		st Z,r25
 6026               	.LBE705:
 6027               	.LBE704:
 6028               	.LBB706:
 6029               	.LBB707:
 6030               	.LM504:
 6031 1f76 282F      		mov r18,r24
 6032 1f78 30E0      		ldi r19,lo8(0)
 6033 1f7a F901      		movw r30,r18
 6034 1f7c 95E0      		ldi r25,5
 6035 1f7e EE0F      	1:	lsl r30
 6036 1f80 FF1F      		rol r31
 6037 1f82 9A95      		dec r25
 6038 1f84 01F4      		brne 1b
 6039 1f86 220F      		lsl r18
 6040 1f88 331F      		rol r19
 6041 1f8a E21B      		sub r30,r18
 6042 1f8c F30B      		sbc r31,r19
 6043 1f8e EA0F      		add r30,r26
 6044 1f90 FB1F      		adc r31,r27
 6045 1f92 ED5A      		subi r30,lo8(-(83))
 6046 1f94 FF4F      		sbci r31,hi8(-(83))
 6047 1f96 9081      		ld r25,Z
 6048 1f98 9E7F      		andi r25,lo8(-2)
 6049 1f9a 9083      		st Z,r25
 6050               	.LBE707:
 6051               	.LBE706:
 6052               	.LBE697:
 6053               	.LBE696:
 6054               	.LM505:
 6055 1f9c 0E94 0000 		call Timebase_DownCounter_SS_Set_Securely
 6056               	.LVL328:
 6057               	/* epilogue start */
 6058               	.LM506:
 6059 1fa0 0895      		ret
 6060               	.LFE97:
 6062               	.global	Timebase_DownCounter_SS_Expired
 6064               	Timebase_DownCounter_SS_Expired:
 6065               	.LFB99:
 6066               	.LM507:
 6067               	.LVL329:
 6068               	/* prologue: function */
 6069               	/* frame size = 0 */
 6070               	.LM508:
 6071 1fa2 40E0      		ldi r20,lo8(0)
 6072 1fa4 E091 0000 		lds r30,Timebase
 6073 1fa8 F091 0000 		lds r31,(Timebase)+1
 6074 1fac 282F      		mov r18,r24
 6075 1fae 30E0      		ldi r19,lo8(0)
 6076               	.LVL330:
 6077 1fb0 C901      		movw r24,r18
 6078               	.LVL331:
 6079 1fb2 65E0      		ldi r22,5
 6080 1fb4 880F      	1:	lsl r24
 6081 1fb6 991F      		rol r25
 6082 1fb8 6A95      		dec r22
 6083 1fba 01F4      		brne 1b
 6084 1fbc 220F      		lsl r18
 6085 1fbe 331F      		rol r19
 6086               	.LVL332:
 6087 1fc0 821B      		sub r24,r18
 6088 1fc2 930B      		sbc r25,r19
 6089 1fc4 E80F      		add r30,r24
 6090 1fc6 F91F      		adc r31,r25
 6091 1fc8 ED5A      		subi r30,lo8(-(83))
 6092 1fca FF4F      		sbci r31,hi8(-(83))
 6093 1fcc 8081      		ld r24,Z
 6094 1fce 8695      		lsr r24
 6095 1fd0 8F70      		andi r24,lo8(15)
 6096 1fd2 8430      		cpi r24,lo8(4)
 6097 1fd4 01F4      		brne .L261
 6098 1fd6 41E0      		ldi r20,lo8(1)
 6099               	.L261:
 6100               	.LM509:
 6101 1fd8 842F      		mov r24,r20
 6102               	/* epilogue start */
 6103 1fda 0895      		ret
 6104               	.LFE99:
 6106               	.global	Timebase_DownCounter_SS_Expired_Event
 6108               	Timebase_DownCounter_SS_Expired_Event:
 6109               	.LFB100:
 6110               	.LM510:
 6111               	.LVL333:
 6112               	/* prologue: function */
 6113               	/* frame size = 0 */
 6114 1fdc 482F      		mov r20,r24
 6115               	.LBB708:
 6116               	.LBB709:
 6117               	.LM511:
 6118 1fde 2091 0000 		lds r18,Timebase
 6119 1fe2 3091 0000 		lds r19,(Timebase)+1
 6120               	.LBE709:
 6121               	.LBE708:
 6122               	.LM512:
 6123 1fe6 90E0      		ldi r25,lo8(0)
 6124 1fe8 FC01      		movw r30,r24
 6125               	.LVL334:
 6126 1fea A5E0      		ldi r26,5
 6127 1fec EE0F      	1:	lsl r30
 6128 1fee FF1F      		rol r31
 6129 1ff0 AA95      		dec r26
 6130 1ff2 01F4      		brne 1b
 6131 1ff4 880F      		lsl r24
 6132 1ff6 991F      		rol r25
 6133 1ff8 E81B      		sub r30,r24
 6134 1ffa F90B      		sbc r31,r25
 6135 1ffc E20F      		add r30,r18
 6136 1ffe F31F      		adc r31,r19
 6137 2000 ED5A      		subi r30,lo8(-(83))
 6138 2002 FF4F      		sbci r31,hi8(-(83))
 6139 2004 8081      		ld r24,Z
 6140 2006 8695      		lsr r24
 6141 2008 8F70      		andi r24,lo8(15)
 6142 200a 8430      		cpi r24,lo8(4)
 6143 200c 01F0      		breq .L264
 6144 200e 80E0      		ldi r24,lo8(0)
 6145 2010 0895      		ret
 6146               	.L264:
 6147               	.LBB710:
 6148               	.LBB711:
 6149               	.LBB712:
 6150               	.LBB713:
 6151               	.LBB714:
 6152               	.LBB715:
 6153               	.LM513:
 6154 2012 842F      		mov r24,r20
 6155 2014 90E0      		ldi r25,lo8(0)
 6156 2016 FC01      		movw r30,r24
 6157 2018 65E0      		ldi r22,5
 6158 201a EE0F      	1:	lsl r30
 6159 201c FF1F      		rol r31
 6160 201e 6A95      		dec r22
 6161 2020 01F4      		brne 1b
 6162 2022 880F      		lsl r24
 6163 2024 991F      		rol r25
 6164 2026 E81B      		sub r30,r24
 6165 2028 F90B      		sbc r31,r25
 6166 202a E20F      		add r30,r18
 6167 202c F31F      		adc r31,r19
 6168 202e E85A      		subi r30,lo8(-(88))
 6169 2030 FF4F      		sbci r31,hi8(-(88))
 6170 2032 1082      		st Z,__zero_reg__
 6171 2034 1182      		std Z+1,__zero_reg__
 6172 2036 1282      		std Z+2,__zero_reg__
 6173 2038 1382      		std Z+3,__zero_reg__
 6174               	.LBE715:
 6175               	.LBE714:
 6176               	.LBB716:
 6177               	.LBB717:
 6178               	.LM514:
 6179 203a 842F      		mov r24,r20
 6180 203c 90E0      		ldi r25,lo8(0)
 6181 203e FC01      		movw r30,r24
 6182 2040 B5E0      		ldi r27,5
 6183 2042 EE0F      	1:	lsl r30
 6184 2044 FF1F      		rol r31
 6185 2046 BA95      		dec r27
 6186 2048 01F4      		brne 1b
 6187 204a 880F      		lsl r24
 6188 204c 991F      		rol r25
 6189 204e E81B      		sub r30,r24
 6190 2050 F90B      		sbc r31,r25
 6191 2052 E20F      		add r30,r18
 6192 2054 F31F      		adc r31,r19
 6193 2056 EC5A      		subi r30,lo8(-(84))
 6194 2058 FF4F      		sbci r31,hi8(-(84))
 6195 205a 1082      		st Z,__zero_reg__
 6196 205c 1182      		std Z+1,__zero_reg__
 6197 205e 1282      		std Z+2,__zero_reg__
 6198 2060 1382      		std Z+3,__zero_reg__
 6199               	.LBE717:
 6200               	.LBE716:
 6201               	.LBB718:
 6202               	.LBB719:
 6203               	.LM515:
 6204 2062 842F      		mov r24,r20
 6205 2064 90E0      		ldi r25,lo8(0)
 6206 2066 FC01      		movw r30,r24
 6207 2068 75E0      		ldi r23,5
 6208 206a EE0F      	1:	lsl r30
 6209 206c FF1F      		rol r31
 6210 206e 7A95      		dec r23
 6211 2070 01F4      		brne 1b
 6212 2072 880F      		lsl r24
 6213 2074 991F      		rol r25
 6214 2076 E81B      		sub r30,r24
 6215 2078 F90B      		sbc r31,r25
 6216 207a E20F      		add r30,r18
 6217 207c F31F      		adc r31,r19
 6218 207e E45A      		subi r30,lo8(-(92))
 6219 2080 FF4F      		sbci r31,hi8(-(92))
 6220 2082 1082      		st Z,__zero_reg__
 6221 2084 1182      		std Z+1,__zero_reg__
 6222 2086 1282      		std Z+2,__zero_reg__
 6223 2088 1382      		std Z+3,__zero_reg__
 6224               	.LBE719:
 6225               	.LBE718:
 6226               	.LBB720:
 6227               	.LBB721:
 6228               	.LM516:
 6229 208a 842F      		mov r24,r20
 6230 208c 90E0      		ldi r25,lo8(0)
 6231 208e FC01      		movw r30,r24
 6232 2090 55E0      		ldi r21,5
 6233 2092 EE0F      	1:	lsl r30
 6234 2094 FF1F      		rol r31
 6235 2096 5A95      		dec r21
 6236 2098 01F4      		brne 1b
 6237 209a 880F      		lsl r24
 6238 209c 991F      		rol r25
 6239 209e E81B      		sub r30,r24
 6240 20a0 F90B      		sbc r31,r25
 6241 20a2 E20F      		add r30,r18
 6242 20a4 F31F      		adc r31,r19
 6243 20a6 ED5A      		subi r30,lo8(-(83))
 6244 20a8 FF4F      		sbci r31,hi8(-(83))
 6245 20aa 8081      		ld r24,Z
 6246 20ac 817E      		andi r24,lo8(-31)
 6247 20ae 8083      		st Z,r24
 6248               	.LBE721:
 6249               	.LBE720:
 6250               	.LBB722:
 6251               	.LBB723:
 6252               	.LM517:
 6253 20b0 842F      		mov r24,r20
 6254 20b2 90E0      		ldi r25,lo8(0)
 6255 20b4 FC01      		movw r30,r24
 6256 20b6 A5E0      		ldi r26,5
 6257 20b8 EE0F      	1:	lsl r30
 6258 20ba FF1F      		rol r31
 6259 20bc AA95      		dec r26
 6260 20be 01F4      		brne 1b
 6261 20c0 880F      		lsl r24
 6262 20c2 991F      		rol r25
 6263 20c4 E81B      		sub r30,r24
 6264 20c6 F90B      		sbc r31,r25
 6265 20c8 E20F      		add r30,r18
 6266 20ca F31F      		adc r31,r19
 6267 20cc ED5A      		subi r30,lo8(-(83))
 6268 20ce FF4F      		sbci r31,hi8(-(83))
 6269 20d0 8081      		ld r24,Z
 6270 20d2 8E7F      		andi r24,lo8(-2)
 6271 20d4 8083      		st Z,r24
 6272 20d6 81E0      		ldi r24,lo8(1)
 6273               	.LBE723:
 6274               	.LBE722:
 6275               	.LBE713:
 6276               	.LBE712:
 6277               	.LBE711:
 6278               	.LBE710:
 6279               	.LM518:
 6280 20d8 0895      		ret
 6281               	.LFE100:
 6283               	.global	Timebase_DownCounter_SS_Set_Period_Value_Securely
 6285               	Timebase_DownCounter_SS_Set_Period_Value_Securely:
 6286               	.LFB101:
 6287               	.LM519:
 6288               	.LVL335:
 6289 20da DF92      		push r13
 6290 20dc EF92      		push r14
 6291 20de FF92      		push r15
 6292 20e0 0F93      		push r16
 6293 20e2 1F93      		push r17
 6294               	/* prologue: function */
 6295               	/* frame size = 0 */
 6296 20e4 D82E      		mov r13,r24
 6297 20e6 7A01      		movw r14,r20
 6298 20e8 8B01      		movw r16,r22
 6299               	.LBB724:
 6300               	.LBB725:
 6301               	.LM520:
 6302 20ea A091 0000 		lds r26,Timebase
 6303 20ee B091 0000 		lds r27,(Timebase)+1
 6304               	.LBE725:
 6305               	.LBE724:
 6306               	.LM521:
 6307 20f2 90E0      		ldi r25,lo8(0)
 6308 20f4 FC01      		movw r30,r24
 6309               	.LVL336:
 6310 20f6 55E0      		ldi r21,5
 6311 20f8 EE0F      	1:	lsl r30
 6312 20fa FF1F      		rol r31
 6313 20fc 5A95      		dec r21
 6314 20fe 01F4      		brne 1b
 6315 2100 880F      		lsl r24
 6316 2102 991F      		rol r25
 6317               	.LVL337:
 6318 2104 E81B      		sub r30,r24
 6319 2106 F90B      		sbc r31,r25
 6320 2108 EA0F      		add r30,r26
 6321 210a FB1F      		adc r31,r27
 6322 210c ED5A      		subi r30,lo8(-(83))
 6323 210e FF4F      		sbci r31,hi8(-(83))
 6324 2110 8081      		ld r24,Z
 6325 2112 80FD      		sbrc r24,0
 6326 2114 00C0      		rjmp .L271
 6327               	.LM522:
 6328 2116 8D2D      		mov r24,r13
 6329 2118 90E0      		ldi r25,lo8(0)
 6330 211a FC01      		movw r30,r24
 6331 211c 35E0      		ldi r19,5
 6332 211e EE0F      	1:	lsl r30
 6333 2120 FF1F      		rol r31
 6334 2122 3A95      		dec r19
 6335 2124 01F4      		brne 1b
 6336 2126 880F      		lsl r24
 6337 2128 991F      		rol r25
 6338 212a E81B      		sub r30,r24
 6339 212c F90B      		sbc r31,r25
 6340 212e EA0F      		add r30,r26
 6341 2130 FB1F      		adc r31,r27
 6342 2132 E45A      		subi r30,lo8(-(92))
 6343 2134 FF4F      		sbci r31,hi8(-(92))
 6344 2136 2081      		ld r18,Z
 6345 2138 3181      		ldd r19,Z+1
 6346 213a 4281      		ldd r20,Z+2
 6347 213c 5381      		ldd r21,Z+3
 6348 213e 2E19      		sub r18,r14
 6349 2140 3F09      		sbc r19,r15
 6350 2142 400B      		sbc r20,r16
 6351 2144 510B      		sbc r21,r17
 6352               	.LBB726:
 6353               	.LBB727:
 6354               	.LM523:
 6355 2146 57FF      		sbrs r21,7
 6356 2148 00C0      		rjmp .L269
 6357               	.LM524:
 6358 214a 8D2D      		mov r24,r13
 6359 214c 90E0      		ldi r25,lo8(0)
 6360 214e FC01      		movw r30,r24
 6361 2150 05E0      		ldi r16,5
 6362 2152 EE0F      	1:	lsl r30
 6363 2154 FF1F      		rol r31
 6364 2156 0A95      		dec r16
 6365 2158 01F4      		brne 1b
 6366 215a 880F      		lsl r24
 6367 215c 991F      		rol r25
 6368 215e E81B      		sub r30,r24
 6369 2160 F90B      		sbc r31,r25
 6370 2162 EA0F      		add r30,r26
 6371 2164 FB1F      		adc r31,r27
 6372 2166 E05A      		subi r30,lo8(-(96))
 6373 2168 FF4F      		sbci r31,hi8(-(96))
 6374 216a 1082      		st Z,__zero_reg__
 6375 216c 1182      		std Z+1,__zero_reg__
 6376 216e 1282      		std Z+2,__zero_reg__
 6377 2170 1382      		std Z+3,__zero_reg__
 6378 2172 00C0      		rjmp .L270
 6379               	.L269:
 6380               	.LM525:
 6381 2174 8D2D      		mov r24,r13
 6382 2176 90E0      		ldi r25,lo8(0)
 6383 2178 FC01      		movw r30,r24
 6384 217a 75E0      		ldi r23,5
 6385 217c EE0F      	1:	lsl r30
 6386 217e FF1F      		rol r31
 6387 2180 7A95      		dec r23
 6388 2182 01F4      		brne 1b
 6389 2184 880F      		lsl r24
 6390 2186 991F      		rol r25
 6391 2188 E81B      		sub r30,r24
 6392 218a F90B      		sbc r31,r25
 6393 218c EA0F      		add r30,r26
 6394 218e FB1F      		adc r31,r27
 6395 2190 E05A      		subi r30,lo8(-(96))
 6396 2192 FF4F      		sbci r31,hi8(-(96))
 6397 2194 2083      		st Z,r18
 6398 2196 3183      		std Z+1,r19
 6399 2198 4283      		std Z+2,r20
 6400 219a 5383      		std Z+3,r21
 6401               	.L270:
 6402               	.LBE727:
 6403               	.LBE726:
 6404               	.LBB728:
 6405               	.LBB729:
 6406               	.LM526:
 6407 219c 8D2D      		mov r24,r13
 6408 219e 90E0      		ldi r25,lo8(0)
 6409 21a0 FC01      		movw r30,r24
 6410 21a2 05E0      		ldi r16,5
 6411 21a4 EE0F      	1:	lsl r30
 6412 21a6 FF1F      		rol r31
 6413 21a8 0A95      		dec r16
 6414 21aa 01F4      		brne 1b
 6415 21ac 880F      		lsl r24
 6416 21ae 991F      		rol r25
 6417 21b0 E81B      		sub r30,r24
 6418 21b2 F90B      		sbc r31,r25
 6419 21b4 EA0F      		add r30,r26
 6420 21b6 FB1F      		adc r31,r27
 6421 21b8 ED5A      		subi r30,lo8(-(83))
 6422 21ba FF4F      		sbci r31,hi8(-(83))
 6423 21bc 8081      		ld r24,Z
 6424 21be 8160      		ori r24,lo8(1)
 6425 21c0 8083      		st Z,r24
 6426               	.L271:
 6427               	/* epilogue start */
 6428               	.LBE729:
 6429               	.LBE728:
 6430               	.LM527:
 6431 21c2 1F91      		pop r17
 6432 21c4 0F91      		pop r16
 6433 21c6 FF90      		pop r15
 6434 21c8 EF90      		pop r14
 6435               	.LVL338:
 6436 21ca DF90      		pop r13
 6437               	.LVL339:
 6438 21cc 0895      		ret
 6439               	.LFE101:
 6441               	.global	Timebase_DownCounter_SS_Get_Remaining_Period_Value
 6443               	Timebase_DownCounter_SS_Get_Remaining_Period_Value:
 6444               	.LFB102:
 6445               	.LM528:
 6446               	.LVL340:
 6447               	/* prologue: function */
 6448               	/* frame size = 0 */
 6449               	.LBB730:
 6450               	.LBB731:
 6451               	.LM529:
 6452 21ce A091 0000 		lds r26,Timebase
 6453 21d2 B091 0000 		lds r27,(Timebase)+1
 6454               	.LBE731:
 6455               	.LBE730:
 6456               	.LM530:
 6457 21d6 282F      		mov r18,r24
 6458 21d8 30E0      		ldi r19,lo8(0)
 6459 21da F901      		movw r30,r18
 6460 21dc 45E0      		ldi r20,5
 6461 21de EE0F      	1:	lsl r30
 6462 21e0 FF1F      		rol r31
 6463 21e2 4A95      		dec r20
 6464 21e4 01F4      		brne 1b
 6465 21e6 220F      		lsl r18
 6466 21e8 331F      		rol r19
 6467 21ea E21B      		sub r30,r18
 6468 21ec F30B      		sbc r31,r19
 6469 21ee EA0F      		add r30,r26
 6470 21f0 FB1F      		adc r31,r27
 6471 21f2 E45A      		subi r30,lo8(-(92))
 6472 21f4 FF4F      		sbci r31,hi8(-(92))
 6473 21f6 282F      		mov r18,r24
 6474 21f8 30E0      		ldi r19,lo8(0)
 6475 21fa C901      		movw r24,r18
 6476               	.LVL341:
 6477 21fc 75E0      		ldi r23,5
 6478 21fe 880F      	1:	lsl r24
 6479 2200 991F      		rol r25
 6480 2202 7A95      		dec r23
 6481 2204 01F4      		brne 1b
 6482 2206 220F      		lsl r18
 6483 2208 331F      		rol r19
 6484 220a 821B      		sub r24,r18
 6485 220c 930B      		sbc r25,r19
 6486 220e A80F      		add r26,r24
 6487 2210 B91F      		adc r27,r25
 6488 2212 A05A      		subi r26,lo8(-(96))
 6489 2214 BF4F      		sbci r27,hi8(-(96))
 6490 2216 2081      		ld r18,Z
 6491 2218 3181      		ldd r19,Z+1
 6492 221a 4281      		ldd r20,Z+2
 6493 221c 5381      		ldd r21,Z+3
 6494               	.LVL342:
 6495 221e 8D91      		ld r24,X+
 6496 2220 9D91      		ld r25,X+
 6497 2222 0D90      		ld __tmp_reg__,X+
 6498 2224 BC91      		ld r27,X
 6499 2226 A02D      		mov r26,__tmp_reg__
 6500 2228 281B      		sub r18,r24
 6501 222a 390B      		sbc r19,r25
 6502 222c 4A0B      		sbc r20,r26
 6503 222e 5B0B      		sbc r21,r27
 6504 2230 57FF      		sbrs r21,7
 6505 2232 00C0      		rjmp .L273
 6506 2234 20E0      		ldi r18,lo8(0)
 6507 2236 30E0      		ldi r19,hi8(0)
 6508 2238 40E0      		ldi r20,hlo8(0)
 6509 223a 50E0      		ldi r21,hhi8(0)
 6510               	.L273:
 6511               	.LM531:
 6512 223c B901      		movw r22,r18
 6513               	.LVL343:
 6514 223e CA01      		movw r24,r20
 6515               	/* epilogue start */
 6516 2240 0895      		ret
 6517               	.LFE102:
 6519               	.global	Timebase_DownCounter_SS_Period_Value_Expired
 6521               	Timebase_DownCounter_SS_Period_Value_Expired:
 6522               	.LFB103:
 6523               	.LM532:
 6524               	.LVL344:
 6525 2242 CF93      		push r28
 6526 2244 DF93      		push r29
 6527               	/* prologue: function */
 6528               	/* frame size = 0 */
 6529 2246 682F      		mov r22,r24
 6530               	.LBB732:
 6531               	.LBB733:
 6532               	.LBB734:
 6533               	.LBB735:
 6534               	.LM533:
 6535 2248 C091 0000 		lds r28,Timebase
 6536 224c D091 0000 		lds r29,(Timebase)+1
 6537               	.LBE735:
 6538               	.LBE734:
 6539               	.LM534:
 6540 2250 90E0      		ldi r25,lo8(0)
 6541 2252 DC01      		movw r26,r24
 6542               	.LVL345:
 6543 2254 45E0      		ldi r20,5
 6544 2256 AA0F      	1:	lsl r26
 6545 2258 BB1F      		rol r27
 6546 225a 4A95      		dec r20
 6547 225c 01F4      		brne 1b
 6548 225e 880F      		lsl r24
 6549 2260 991F      		rol r25
 6550 2262 A81B      		sub r26,r24
 6551 2264 B90B      		sbc r27,r25
 6552 2266 AC0F      		add r26,r28
 6553 2268 BD1F      		adc r27,r29
 6554 226a A45A      		subi r26,lo8(-(92))
 6555 226c BF4F      		sbci r27,hi8(-(92))
 6556 226e 862F      		mov r24,r22
 6557 2270 90E0      		ldi r25,lo8(0)
 6558 2272 FC01      		movw r30,r24
 6559 2274 25E0      		ldi r18,5
 6560 2276 EE0F      	1:	lsl r30
 6561 2278 FF1F      		rol r31
 6562 227a 2A95      		dec r18
 6563 227c 01F4      		brne 1b
 6564 227e 880F      		lsl r24
 6565 2280 991F      		rol r25
 6566 2282 E81B      		sub r30,r24
 6567 2284 F90B      		sbc r31,r25
 6568 2286 EC0F      		add r30,r28
 6569 2288 FD1F      		adc r31,r29
 6570 228a E05A      		subi r30,lo8(-(96))
 6571 228c FF4F      		sbci r31,hi8(-(96))
 6572 228e 2D91      		ld r18,X+
 6573 2290 3D91      		ld r19,X+
 6574 2292 4D91      		ld r20,X+
 6575 2294 5C91      		ld r21,X
 6576               	.LVL346:
 6577 2296 8081      		ld r24,Z
 6578 2298 9181      		ldd r25,Z+1
 6579 229a A281      		ldd r26,Z+2
 6580 229c B381      		ldd r27,Z+3
 6581 229e 281B      		sub r18,r24
 6582 22a0 390B      		sbc r19,r25
 6583 22a2 4A0B      		sbc r20,r26
 6584 22a4 5B0B      		sbc r21,r27
 6585               	.LM535:
 6586 22a6 57FD      		sbrc r21,7
 6587 22a8 00C0      		rjmp .L276
 6588               	.LBE733:
 6589               	.LBE732:
 6590               	.LM536:
 6591 22aa 2115      		cp r18,__zero_reg__
 6592 22ac 3105      		cpc r19,__zero_reg__
 6593 22ae 4105      		cpc r20,__zero_reg__
 6594 22b0 5105      		cpc r21,__zero_reg__
 6595 22b2 01F0      		breq .L276
 6596 22b4 40E0      		ldi r20,lo8(0)
 6597 22b6 00C0      		rjmp .L277
 6598               	.L276:
 6599 22b8 40E0      		ldi r20,lo8(0)
 6600 22ba 862F      		mov r24,r22
 6601 22bc 90E0      		ldi r25,lo8(0)
 6602 22be 9C01      		movw r18,r24
 6603               	.LVL347:
 6604 22c0 65E0      		ldi r22,5
 6605 22c2 220F      	1:	lsl r18
 6606 22c4 331F      		rol r19
 6607 22c6 6A95      		dec r22
 6608 22c8 01F4      		brne 1b
 6609               	.LVL348:
 6610 22ca 880F      		lsl r24
 6611 22cc 991F      		rol r25
 6612 22ce 281B      		sub r18,r24
 6613 22d0 390B      		sbc r19,r25
 6614 22d2 C20F      		add r28,r18
 6615 22d4 D31F      		adc r29,r19
 6616 22d6 CD5A      		subi r28,lo8(-(83))
 6617 22d8 DF4F      		sbci r29,hi8(-(83))
 6618 22da 8881      		ld r24,Y
 6619 22dc 80FF      		sbrs r24,0
 6620 22de 41E0      		ldi r20,lo8(1)
 6621               	.L278:
 6622 22e0 81E0      		ldi r24,lo8(1)
 6623 22e2 4827      		eor r20,r24
 6624               	.LVL349:
 6625               	.L277:
 6626               	.LM537:
 6627 22e4 842F      		mov r24,r20
 6628               	/* epilogue start */
 6629 22e6 DF91      		pop r29
 6630 22e8 CF91      		pop r28
 6631 22ea 0895      		ret
 6632               	.LFE103:
 6634               	.global	Timebase_DownCounter_SS_Period_Value_Expired_Event
 6636               	Timebase_DownCounter_SS_Period_Value_Expired_Event:
 6637               	.LFB104:
 6638               	.LM538:
 6639               	.LVL350:
 6640 22ec 1F93      		push r17
 6641               	/* prologue: function */
 6642               	/* frame size = 0 */
 6643 22ee 182F      		mov r17,r24
 6644               	.LM539:
 6645 22f0 0E94 0000 		call Timebase_DownCounter_SS_Period_Value_Expired
 6646               	.LVL351:
 6647 22f4 8130      		cpi r24,lo8(1)
 6648 22f6 01F0      		breq .L281
 6649 22f8 80E0      		ldi r24,lo8(0)
 6650 22fa 00C0      		rjmp .L282
 6651               	.L281:
 6652               	.LBB736:
 6653               	.LBB737:
 6654               	.LM540:
 6655 22fc E091 0000 		lds r30,Timebase
 6656 2300 F091 0000 		lds r31,(Timebase)+1
 6657 2304 812F      		mov r24,r17
 6658 2306 90E0      		ldi r25,lo8(0)
 6659               	.LVL352:
 6660 2308 9C01      		movw r18,r24
 6661 230a 65E0      		ldi r22,5
 6662 230c 220F      	1:	lsl r18
 6663 230e 331F      		rol r19
 6664 2310 6A95      		dec r22
 6665 2312 01F4      		brne 1b
 6666 2314 880F      		lsl r24
 6667 2316 991F      		rol r25
 6668               	.LVL353:
 6669 2318 281B      		sub r18,r24
 6670 231a 390B      		sbc r19,r25
 6671 231c E20F      		add r30,r18
 6672 231e F31F      		adc r31,r19
 6673 2320 ED5A      		subi r30,lo8(-(83))
 6674 2322 FF4F      		sbci r31,hi8(-(83))
 6675 2324 8081      		ld r24,Z
 6676               	.LVL354:
 6677 2326 8E7F      		andi r24,lo8(-2)
 6678 2328 8083      		st Z,r24
 6679 232a 81E0      		ldi r24,lo8(1)
 6680               	.LVL355:
 6681               	.L282:
 6682               	/* epilogue start */
 6683               	.LBE737:
 6684               	.LBE736:
 6685               	.LM541:
 6686 232c 1F91      		pop r17
 6687               	.LVL356:
 6688 232e 0895      		ret
 6689               	.LFE104:
 6691               	.global	Timebase_DownCounter_SS_Reset_All
 6693               	Timebase_DownCounter_SS_Reset_All:
 6694               	.LFB106:
 6695               	.LM542:
 6696               	/* prologue: function */
 6697               	/* frame size = 0 */
 6698               	.LBB738:
 6699               	.LBB739:
 6700               	.LBB740:
 6701               	.LBB741:
 6702               	.LBB742:
 6703               	.LM543:
 6704 2330 E091 0000 		lds r30,Timebase
 6705 2334 F091 0000 		lds r31,(Timebase)+1
 6706 2338 E85A      		subi r30,lo8(-(88))
 6707 233a FF4F      		sbci r31,hi8(-(88))
 6708 233c 1082      		st Z,__zero_reg__
 6709 233e 1182      		std Z+1,__zero_reg__
 6710 2340 1282      		std Z+2,__zero_reg__
 6711 2342 1382      		std Z+3,__zero_reg__
 6712               	.LBE742:
 6713               	.LBE741:
 6714               	.LBB743:
 6715               	.LBB744:
 6716               	.LM544:
 6717 2344 1292      		st -Z,__zero_reg__
 6718 2346 1292      		st -Z,__zero_reg__
 6719 2348 1292      		st -Z,__zero_reg__
 6720 234a 1292      		st -Z,__zero_reg__
 6721               	.LBE744:
 6722               	.LBE743:
 6723               	.LBB745:
 6724               	.LBB746:
 6725               	.LM545:
 6726 234c 3896      		adiw r30,8
 6727 234e 1082      		st Z,__zero_reg__
 6728 2350 1182      		std Z+1,__zero_reg__
 6729 2352 1282      		std Z+2,__zero_reg__
 6730 2354 1382      		std Z+3,__zero_reg__
 6731               	.LBE746:
 6732               	.LBE745:
 6733               	.LBB747:
 6734               	.LBB748:
 6735               	.LM546:
 6736 2356 3997      		sbiw r30,9
 6737 2358 8081      		ld r24,Z
 6738               	.LBE748:
 6739               	.LBE747:
 6740               	.LBB749:
 6741               	.LBB750:
 6742               	.LM547:
 6743 235a 807E      		andi r24,lo8(-32)
 6744 235c 8083      		st Z,r24
 6745               	/* epilogue start */
 6746               	.LBE750:
 6747               	.LBE749:
 6748               	.LBE740:
 6749               	.LBE739:
 6750               	.LBE738:
 6751               	.LM548:
 6752 235e 0895      		ret
 6753               	.LFE106:
 6755               	.global	Timebase_Reset
 6757               	Timebase_Reset:
 6758               	.LFB107:
 6759               	.LM549:
 6760               	/* prologue: function */
 6761               	/* frame size = 0 */
 6762               	.LM550:
 6763 2360 0E94 0000 		call Timebase_UpCounter_Reset_All
 6764               	.LM551:
 6765 2364 0E94 0000 		call Timebase_DownCounter_Reset_All
 6766               	/* epilogue start */
 6767               	.LM552:
 6768 2368 0895      		ret
 6769               	.LFE107:
 6771               	.global	Timebase_Init
 6773               	Timebase_Init:
 6774               	.LFB108:
 6775               	.LM553:
 6776               	.LVL357:
 6777 236a 0F93      		push r16
 6778 236c 1F93      		push r17
 6779               	/* prologue: function */
 6780               	/* frame size = 0 */
 6781 236e 8C01      		movw r16,r24
 6782               	.LM554:
 6783 2370 0E94 0000 		call Timebase_Struct_Init
 6784               	.LVL358:
 6785               	.LM555:
 6786 2374 C801      		movw r24,r16
 6787 2376 0E94 0000 		call Timebase_Timer_Config
 6788               	.LM556:
 6789 237a 0E94 0000 		call Timebase_Reset
 6790               	/* epilogue start */
 6791               	.LM557:
 6792 237e 1F91      		pop r17
 6793 2380 0F91      		pop r16
 6794               	.LVL359:
 6795 2382 0895      		ret
 6796               	.LFE108:
 6798               	.global	Timebase_Main_Loop_Executables
 6800               	Timebase_Main_Loop_Executables:
 6801               	.LFB109:
 6802               	.LM558:
 6803               	/* prologue: function */
 6804               	/* frame size = 0 */
 6805               	.LM559:
 6806 2384 0E94 0000 		call Timebase_UpCounter_Update_All
 6807               	.LM560:
 6808 2388 0E94 0000 		call Timebase_DownCounter_Update_All
 6809               	/* epilogue start */
 6810               	.LM561:
 6811 238c 0895      		ret
 6812               	.LFE109:
 6814               	.global	Timebase_ISR_Executables
 6816               	Timebase_ISR_Executables:
 6817               	.LFB110:
 6818               	.LM562:
 6819               	/* prologue: function */
 6820               	/* frame size = 0 */
 6821               	.LM563:
 6822 238e E091 0000 		lds r30,Timebase
 6823 2392 F091 0000 		lds r31,(Timebase)+1
 6824 2396 8085      		ldd r24,Z+8
 6825 2398 9185      		ldd r25,Z+9
 6826 239a 0196      		adiw r24,1
 6827 239c 9187      		std Z+9,r25
 6828 239e 8087      		std Z+8,r24
 6829               	.LM564:
 6830 23a0 8381      		ldd r24,Z+3
 6831 23a2 86BD      		out 70-32,r24
 6832               	.LM565:
 6833 23a4 8085      		ldd r24,Z+8
 6834 23a6 9185      		ldd r25,Z+9
 6835 23a8 6181      		ldd r22,Z+1
 6836 23aa 7281      		ldd r23,Z+2
 6837 23ac 0E94 0000 		call __udivmodhi4
 6838 23b0 892B      		or r24,r25
 6839 23b2 01F4      		brne .L294
 6840               	.LM566:
 6841 23b4 8285      		ldd r24,Z+10
 6842 23b6 9385      		ldd r25,Z+11
 6843 23b8 A485      		ldd r26,Z+12
 6844 23ba B585      		ldd r27,Z+13
 6845 23bc 0196      		adiw r24,1
 6846 23be A11D      		adc r26,__zero_reg__
 6847 23c0 B11D      		adc r27,__zero_reg__
 6848 23c2 8287      		std Z+10,r24
 6849 23c4 9387      		std Z+11,r25
 6850 23c6 A487      		std Z+12,r26
 6851 23c8 B587      		std Z+13,r27
 6852               	.LBB751:
 6853               	.LBB752:
 6854               	.LM567:
 6855 23ca 8789      		ldd r24,Z+23
 6856               	.LBE752:
 6857               	.LBE751:
 6858               	.LM568:
 6859 23cc 8823      		tst r24
 6860 23ce 01F4      		brne .L294
 6861               	.LM569:
 6862 23d0 1186      		std Z+9,__zero_reg__
 6863 23d2 1086      		std Z+8,__zero_reg__
 6864               	.L294:
 6865 23d4 0895      		ret
 6866               	.LFE110:
 6868               	.global	__vector_16
 6870               	__vector_16:
 6871               	.LFB111:
 6872               	.LM570:
 6873 23d6 1F92      		push __zero_reg__
 6874 23d8 0F92      		push r0
 6875 23da 0FB6      		in r0,__SREG__
 6876 23dc 0F92      		push r0
 6877 23de 1124      		clr __zero_reg__
 6878 23e0 2F93      		push r18
 6879 23e2 3F93      		push r19
 6880 23e4 4F93      		push r20
 6881 23e6 5F93      		push r21
 6882 23e8 6F93      		push r22
 6883 23ea 7F93      		push r23
 6884 23ec 8F93      		push r24
 6885 23ee 9F93      		push r25
 6886 23f0 AF93      		push r26
 6887 23f2 BF93      		push r27
 6888 23f4 EF93      		push r30
 6889 23f6 FF93      		push r31
 6890               	/* prologue: Signal */
 6891               	/* frame size = 0 */
 6892               	.LM571:
 6893 23f8 5D9A      		sbi 43-32,5
 6894               	.LM572:
 6895 23fa 0E94 0000 		call Timebase_ISR_Executables
 6896               	.LM573:
 6897 23fe 5D98      		cbi 43-32,5
 6898               	/* epilogue start */
 6899               	.LM574:
 6900 2400 FF91      		pop r31
 6901 2402 EF91      		pop r30
 6902 2404 BF91      		pop r27
 6903 2406 AF91      		pop r26
 6904 2408 9F91      		pop r25
 6905 240a 8F91      		pop r24
 6906 240c 7F91      		pop r23
 6907 240e 6F91      		pop r22
 6908 2410 5F91      		pop r21
 6909 2412 4F91      		pop r20
 6910 2414 3F91      		pop r19
 6911 2416 2F91      		pop r18
 6912 2418 0F90      		pop r0
 6913 241a 0FBE      		out __SREG__,r0
 6914 241c 0F90      		pop r0
 6915 241e 1F90      		pop __zero_reg__
 6916 2420 1895      		reti
 6917               	.LFE111:
 6919               	.global	Timebase_DownCounter_SS_Update
 6921               	Timebase_DownCounter_SS_Update:
 6922               	.LFB98:
 6923               	.LM575:
 6924               	.LVL360:
 6925 2422 1F93      		push r17
 6926 2424 CF93      		push r28
 6927 2426 DF93      		push r29
 6928               	/* prologue: function */
 6929               	/* frame size = 0 */
 6930 2428 182F      		mov r17,r24
 6931               	.LBB753:
 6932               	.LBB754:
 6933               	.LM576:
 6934 242a A091 0000 		lds r26,Timebase
 6935 242e B091 0000 		lds r27,(Timebase)+1
 6936 2432 90E0      		ldi r25,lo8(0)
 6937 2434 FC01      		movw r30,r24
 6938               	.LVL361:
 6939 2436 75E0      		ldi r23,5
 6940 2438 EE0F      	1:	lsl r30
 6941 243a FF1F      		rol r31
 6942 243c 7A95      		dec r23
 6943 243e 01F4      		brne 1b
 6944 2440 880F      		lsl r24
 6945 2442 991F      		rol r25
 6946 2444 E81B      		sub r30,r24
 6947 2446 F90B      		sbc r31,r25
 6948 2448 EA0F      		add r30,r26
 6949 244a FB1F      		adc r31,r27
 6950 244c ED5A      		subi r30,lo8(-(83))
 6951 244e FF4F      		sbci r31,hi8(-(83))
 6952 2450 E081      		ld r30,Z
 6953 2452 E695      		lsr r30
 6954 2454 EF70      		andi r30,lo8(15)
 6955               	.LBE754:
 6956               	.LBE753:
 6957               	.LM577:
 6958 2456 E130      		cpi r30,lo8(1)
 6959 2458 01F0      		breq .+2
 6960 245a 00C0      		rjmp .L298
 6961               	.LM578:
 6962 245c 812F      		mov r24,r17
 6963 245e 90E0      		ldi r25,lo8(0)
 6964 2460 0E94 0000 		call Timebase_DownCounter_SS_Get_EndValue
 6965               	.LBB755:
 6966               	.LBB756:
 6967               	.LM579:
 6968 2464 C091 0000 		lds r28,Timebase
 6969 2468 D091 0000 		lds r29,(Timebase)+1
 6970 246c 2A85      		ldd r18,Y+10
 6971 246e 3B85      		ldd r19,Y+11
 6972 2470 4C85      		ldd r20,Y+12
 6973 2472 5D85      		ldd r21,Y+13
 6974               	.LBE756:
 6975               	.LBE755:
 6976               	.LM580:
 6977 2474 AA27      		clr r26
 6978 2476 97FD      		sbrc r25,7
 6979 2478 A095      		com r26
 6980 247a BA2F      		mov r27,r26
 6981 247c 821B      		sub r24,r18
 6982 247e 930B      		sbc r25,r19
 6983 2480 A40B      		sbc r26,r20
 6984 2482 B50B      		sbc r27,r21
 6985               	.LBB757:
 6986               	.LBB758:
 6987               	.LM581:
 6988 2484 212F      		mov r18,r17
 6989 2486 30E0      		ldi r19,lo8(0)
 6990 2488 F901      		movw r30,r18
 6991 248a 55E0      		ldi r21,5
 6992 248c EE0F      	1:	lsl r30
 6993 248e FF1F      		rol r31
 6994 2490 5A95      		dec r21
 6995 2492 01F4      		brne 1b
 6996 2494 220F      		lsl r18
 6997 2496 331F      		rol r19
 6998 2498 E21B      		sub r30,r18
 6999 249a F30B      		sbc r31,r19
 7000 249c EC0F      		add r30,r28
 7001 249e FD1F      		adc r31,r29
 7002 24a0 E45A      		subi r30,lo8(-(92))
 7003 24a2 FF4F      		sbci r31,hi8(-(92))
 7004 24a4 8083      		st Z,r24
 7005 24a6 9183      		std Z+1,r25
 7006 24a8 A283      		std Z+2,r26
 7007 24aa B383      		std Z+3,r27
 7008               	.LBE758:
 7009               	.LBE757:
 7010               	.LM582:
 7011 24ac 1816      		cp __zero_reg__,r24
 7012 24ae 1906      		cpc __zero_reg__,r25
 7013 24b0 1A06      		cpc __zero_reg__,r26
 7014 24b2 1B06      		cpc __zero_reg__,r27
 7015 24b4 04F4      		brge .+2
 7016 24b6 00C0      		rjmp .L300
 7017               	.LBB759:
 7018               	.LBB760:
 7019               	.LBB761:
 7020               	.LBB762:
 7021               	.LM583:
 7022 24b8 812F      		mov r24,r17
 7023 24ba 90E0      		ldi r25,lo8(0)
 7024 24bc FC01      		movw r30,r24
 7025 24be B5E0      		ldi r27,5
 7026 24c0 EE0F      	1:	lsl r30
 7027 24c2 FF1F      		rol r31
 7028 24c4 BA95      		dec r27
 7029 24c6 01F4      		brne 1b
 7030 24c8 880F      		lsl r24
 7031 24ca 991F      		rol r25
 7032 24cc E81B      		sub r30,r24
 7033 24ce F90B      		sbc r31,r25
 7034 24d0 EC0F      		add r30,r28
 7035 24d2 FD1F      		adc r31,r29
 7036 24d4 E85A      		subi r30,lo8(-(88))
 7037 24d6 FF4F      		sbci r31,hi8(-(88))
 7038 24d8 1082      		st Z,__zero_reg__
 7039 24da 1182      		std Z+1,__zero_reg__
 7040 24dc 1282      		std Z+2,__zero_reg__
 7041 24de 1382      		std Z+3,__zero_reg__
 7042               	.LBE762:
 7043               	.LBE761:
 7044               	.LBB763:
 7045               	.LBB764:
 7046               	.LM584:
 7047 24e0 812F      		mov r24,r17
 7048 24e2 90E0      		ldi r25,lo8(0)
 7049 24e4 FC01      		movw r30,r24
 7050 24e6 75E0      		ldi r23,5
 7051 24e8 EE0F      	1:	lsl r30
 7052 24ea FF1F      		rol r31
 7053 24ec 7A95      		dec r23
 7054 24ee 01F4      		brne 1b
 7055 24f0 880F      		lsl r24
 7056 24f2 991F      		rol r25
 7057 24f4 E81B      		sub r30,r24
 7058 24f6 F90B      		sbc r31,r25
 7059 24f8 EC0F      		add r30,r28
 7060 24fa FD1F      		adc r31,r29
 7061 24fc EC5A      		subi r30,lo8(-(84))
 7062 24fe FF4F      		sbci r31,hi8(-(84))
 7063 2500 1082      		st Z,__zero_reg__
 7064 2502 1182      		std Z+1,__zero_reg__
 7065 2504 1282      		std Z+2,__zero_reg__
 7066 2506 1382      		std Z+3,__zero_reg__
 7067               	.LBE764:
 7068               	.LBE763:
 7069               	.LBB765:
 7070               	.LBB766:
 7071               	.LM585:
 7072 2508 812F      		mov r24,r17
 7073 250a 90E0      		ldi r25,lo8(0)
 7074 250c FC01      		movw r30,r24
 7075 250e 55E0      		ldi r21,5
 7076 2510 EE0F      	1:	lsl r30
 7077 2512 FF1F      		rol r31
 7078 2514 5A95      		dec r21
 7079 2516 01F4      		brne 1b
 7080 2518 880F      		lsl r24
 7081 251a 991F      		rol r25
 7082 251c E81B      		sub r30,r24
 7083 251e F90B      		sbc r31,r25
 7084 2520 EC0F      		add r30,r28
 7085 2522 FD1F      		adc r31,r29
 7086 2524 E45A      		subi r30,lo8(-(92))
 7087 2526 FF4F      		sbci r31,hi8(-(92))
 7088 2528 1082      		st Z,__zero_reg__
 7089 252a 1182      		std Z+1,__zero_reg__
 7090 252c 1282      		std Z+2,__zero_reg__
 7091 252e 1382      		std Z+3,__zero_reg__
 7092               	.LBE766:
 7093               	.LBE765:
 7094               	.LBB767:
 7095               	.LBB768:
 7096               	.LM586:
 7097 2530 812F      		mov r24,r17
 7098 2532 90E0      		ldi r25,lo8(0)
 7099 2534 FC01      		movw r30,r24
 7100 2536 35E0      		ldi r19,5
 7101 2538 EE0F      	1:	lsl r30
 7102 253a FF1F      		rol r31
 7103 253c 3A95      		dec r19
 7104 253e 01F4      		brne 1b
 7105 2540 880F      		lsl r24
 7106 2542 991F      		rol r25
 7107 2544 E81B      		sub r30,r24
 7108 2546 F90B      		sbc r31,r25
 7109 2548 EC0F      		add r30,r28
 7110 254a FD1F      		adc r31,r29
 7111 254c ED5A      		subi r30,lo8(-(83))
 7112 254e FF4F      		sbci r31,hi8(-(83))
 7113 2550 8081      		ld r24,Z
 7114 2552 8E7F      		andi r24,lo8(-2)
 7115 2554 8083      		st Z,r24
 7116               	.LBE768:
 7117               	.LBE767:
 7118               	.LBE760:
 7119               	.LBE759:
 7120               	.LBB769:
 7121               	.LBB770:
 7122               	.LM587:
 7123 2556 812F      		mov r24,r17
 7124 2558 90E0      		ldi r25,lo8(0)
 7125 255a FC01      		movw r30,r24
 7126 255c B5E0      		ldi r27,5
 7127 255e EE0F      	1:	lsl r30
 7128 2560 FF1F      		rol r31
 7129 2562 BA95      		dec r27
 7130 2564 01F4      		brne 1b
 7131 2566 880F      		lsl r24
 7132 2568 991F      		rol r25
 7133 256a E81B      		sub r30,r24
 7134 256c F90B      		sbc r31,r25
 7135 256e EC0F      		add r30,r28
 7136 2570 FD1F      		adc r31,r29
 7137 2572 ED5A      		subi r30,lo8(-(83))
 7138 2574 FF4F      		sbci r31,hi8(-(83))
 7139 2576 8081      		ld r24,Z
 7140 2578 817E      		andi r24,lo8(-31)
 7141 257a 8860      		ori r24,lo8(8)
 7142 257c 8083      		st Z,r24
 7143 257e 00C0      		rjmp .L300
 7144               	.L298:
 7145               	.LBE770:
 7146               	.LBE769:
 7147               	.LM588:
 7148 2580 E230      		cpi r30,lo8(2)
 7149 2582 01F4      		brne .L300
 7150               	.LBB771:
 7151               	.LBB772:
 7152               	.LM589:
 7153 2584 1A96      		adiw r26,10
 7154 2586 4D91      		ld r20,X+
 7155 2588 5D91      		ld r21,X+
 7156 258a 6D91      		ld r22,X+
 7157 258c 7C91      		ld r23,X
 7158 258e 1D97      		sbiw r26,10+3
 7159               	.LBE772:
 7160               	.LBE771:
 7161               	.LM590:
 7162 2590 812F      		mov r24,r17
 7163 2592 90E0      		ldi r25,lo8(0)
 7164 2594 9C01      		movw r18,r24
 7165 2596 F5E0      		ldi r31,5
 7166 2598 220F      	1:	lsl r18
 7167 259a 331F      		rol r19
 7168 259c FA95      		dec r31
 7169 259e 01F4      		brne 1b
 7170 25a0 880F      		lsl r24
 7171 25a2 991F      		rol r25
 7172 25a4 281B      		sub r18,r24
 7173 25a6 390B      		sbc r19,r25
 7174 25a8 A20F      		add r26,r18
 7175 25aa B31F      		adc r27,r19
 7176 25ac A45A      		subi r26,lo8(-(92))
 7177 25ae BF4F      		sbci r27,hi8(-(92))
 7178 25b0 8D91      		ld r24,X+
 7179 25b2 9D91      		ld r25,X+
 7180 25b4 0D90      		ld __tmp_reg__,X+
 7181 25b6 BC91      		ld r27,X
 7182 25b8 A02D      		mov r26,__tmp_reg__
 7183 25ba 480F      		add r20,r24
 7184 25bc 591F      		adc r21,r25
 7185 25be 6A1F      		adc r22,r26
 7186 25c0 7B1F      		adc r23,r27
 7187 25c2 812F      		mov r24,r17
 7188 25c4 90E0      		ldi r25,lo8(0)
 7189 25c6 0E94 0000 		call Timebase_DownCounter_SS_Set_EndValue
 7190               	.L300:
 7191               	/* epilogue start */
 7192               	.LM591:
 7193 25ca DF91      		pop r29
 7194 25cc CF91      		pop r28
 7195 25ce 1F91      		pop r17
 7196               	.LVL362:
 7197 25d0 0895      		ret
 7198               	.LFE98:
 7200               	.global	Timebase_DownCounter_SS_Update_All
 7202               	Timebase_DownCounter_SS_Update_All:
 7203               	.LFB105:
 7204               	.LM592:
 7205               	/* prologue: function */
 7206               	/* frame size = 0 */
 7207               	.LBB773:
 7208               	.LM593:
 7209 25d2 80E0      		ldi r24,lo8(0)
 7210 25d4 0E94 0000 		call Timebase_DownCounter_SS_Update
 7211               	/* epilogue start */
 7212               	.LBE773:
 7213               	.LM594:
 7214 25d8 0895      		ret
 7215               	.LFE105:
 7217               		.data
 7220               	C.2.1370:
 7221 0000 0100      		.word	1
 7222 0002 0800      		.word	8
 7223 0004 4000      		.word	64
 7224 0006 0001      		.word	256
 7225 0008 0004      		.word	1024
 7226               		.comm Timebase_type,100,1
 7227               		.comm Timebase,2,1
 8092               	.Letext0:
DEFINED SYMBOLS
                            *ABS*:00000000 timebase.c
C:\Users\WALTON\AppData\Local\Temp/cc1UbLbo.s:2      *ABS*:0000003f __SREG__
C:\Users\WALTON\AppData\Local\Temp/cc1UbLbo.s:3      *ABS*:0000003e __SP_H__
C:\Users\WALTON\AppData\Local\Temp/cc1UbLbo.s:4      *ABS*:0000003d __SP_L__
C:\Users\WALTON\AppData\Local\Temp/cc1UbLbo.s:5      *ABS*:00000034 __CCP__
C:\Users\WALTON\AppData\Local\Temp/cc1UbLbo.s:6      *ABS*:00000000 __tmp_reg__
C:\Users\WALTON\AppData\Local\Temp/cc1UbLbo.s:7      *ABS*:00000001 __zero_reg__
C:\Users\WALTON\AppData\Local\Temp/cc1UbLbo.s:18     .text:00000000 Timebase_Struct_Init
                            *COM*:00000064 Timebase_type
                            *COM*:00000002 Timebase
C:\Users\WALTON\AppData\Local\Temp/cc1UbLbo.s:185    .text:000001b6 Timebase_Timer_Config
C:\Users\WALTON\AppData\Local\Temp/cc1UbLbo.s:7220   .data:00000000 C.2.1370
C:\Users\WALTON\AppData\Local\Temp/cc1UbLbo.s:505    .text:00000350 Timebase_Token_Executing
C:\Users\WALTON\AppData\Local\Temp/cc1UbLbo.s:521    .text:0000035c Timebase_Token_Add
C:\Users\WALTON\AppData\Local\Temp/cc1UbLbo.s:547    .text:00000372 Timebase_Token_Remove
C:\Users\WALTON\AppData\Local\Temp/cc1UbLbo.s:573    .text:00000388 Timebase_Token_Remove_All
C:\Users\WALTON\AppData\Local\Temp/cc1UbLbo.s:589    .text:00000394 Timebase_Timer_Get_SubSeconds
C:\Users\WALTON\AppData\Local\Temp/cc1UbLbo.s:607    .text:000003a4 Timebase_Timer_Get_Seconds
C:\Users\WALTON\AppData\Local\Temp/cc1UbLbo.s:628    .text:000003ba Timebase_Timer_Set_SubSeconds
C:\Users\WALTON\AppData\Local\Temp/cc1UbLbo.s:646    .text:000003c8 Timebase_Timer_Set_Seconds
C:\Users\WALTON\AppData\Local\Temp/cc1UbLbo.s:666    .text:000003da Timebase_Timer_Delay_SubSeconds
C:\Users\WALTON\AppData\Local\Temp/cc1UbLbo.s:753    .text:00000424 Timebase_Timer_Await_SubSeconds
C:\Users\WALTON\AppData\Local\Temp/cc1UbLbo.s:836    .text:00000498 Timebase_Timer_Delay_Seconds
C:\Users\WALTON\AppData\Local\Temp/cc1UbLbo.s:898    .text:000004da Timebase_Window_Timer_Reset
C:\Users\WALTON\AppData\Local\Temp/cc1UbLbo.s:924    .text:000004f6 Timebase_Window_Timer_Start
C:\Users\WALTON\AppData\Local\Temp/cc1UbLbo.s:972    .text:0000052a Timebase_Window_Timer_Get_Interval
C:\Users\WALTON\AppData\Local\Temp/cc1UbLbo.s:1070   .text:000005a4 Timebase_Window_Timer_Get_Interval_Reset
C:\Users\WALTON\AppData\Local\Temp/cc1UbLbo.s:1110   .text:000005ce Timebase_UpCounter_Get_Status
C:\Users\WALTON\AppData\Local\Temp/cc1UbLbo.s:1144   .text:000005f8 Timebase_UpCounter_Set_Status
C:\Users\WALTON\AppData\Local\Temp/cc1UbLbo.s:1182   .text:00000628 Timebase_UpCounter_Get_Value
C:\Users\WALTON\AppData\Local\Temp/cc1UbLbo.s:1225   .text:00000662 Timebase_UpCounter_Set_Value
C:\Users\WALTON\AppData\Local\Temp/cc1UbLbo.s:1260   .text:0000068e Timebase_UpCounter_Get_EndValue
C:\Users\WALTON\AppData\Local\Temp/cc1UbLbo.s:1303   .text:000006c8 Timebase_UpCounter_Set_EndValue
C:\Users\WALTON\AppData\Local\Temp/cc1UbLbo.s:1338   .text:000006f4 Timebase_UpCounter_Get_TargetValue
C:\Users\WALTON\AppData\Local\Temp/cc1UbLbo.s:1381   .text:0000072e Timebase_UpCounter_Set_TargetValue
C:\Users\WALTON\AppData\Local\Temp/cc1UbLbo.s:1416   .text:0000075a Timebase_UpCounter_Get_TemporaryValue
C:\Users\WALTON\AppData\Local\Temp/cc1UbLbo.s:1459   .text:00000794 Timebase_UpCounter_Set_TemporaryValue
C:\Users\WALTON\AppData\Local\Temp/cc1UbLbo.s:1494   .text:000007c0 Timebase_UpCounter_Get_PeriodValue
C:\Users\WALTON\AppData\Local\Temp/cc1UbLbo.s:1537   .text:000007fa Timebase_UpCounter_Set_PeriodValue
C:\Users\WALTON\AppData\Local\Temp/cc1UbLbo.s:1572   .text:00000826 Timebase_UpCounter_Get_Period_Flag
C:\Users\WALTON\AppData\Local\Temp/cc1UbLbo.s:1605   .text:0000084e Timebase_UpCounter_Set_Period_Flag
C:\Users\WALTON\AppData\Local\Temp/cc1UbLbo.s:1639   .text:00000878 Timebase_UpCounter_Clear_Period_Flag
C:\Users\WALTON\AppData\Local\Temp/cc1UbLbo.s:1673   .text:000008a2 Timebase_UpCounter_Reset
C:\Users\WALTON\AppData\Local\Temp/cc1UbLbo.s:1760   .text:000008f4 Timebase_UpCounter_Clear_All_Flags
C:\Users\WALTON\AppData\Local\Temp/cc1UbLbo.s:1776   .text:000008fa Timebase_UpCounter_Start
C:\Users\WALTON\AppData\Local\Temp/cc1UbLbo.s:1824   .text:00000930 Timebase_UpCounter_Stop
C:\Users\WALTON\AppData\Local\Temp/cc1UbLbo.s:1872   .text:00000966 Timebase_UpCounter_Set_Securely
C:\Users\WALTON\AppData\Local\Temp/cc1UbLbo.s:1979   .text:000009d6 Timebase_UpCounter_Set_Forcefully
C:\Users\WALTON\AppData\Local\Temp/cc1UbLbo.s:2015   .text:00000a00 Timebase_UpCounter_Update
C:\Users\WALTON\AppData\Local\Temp/cc1UbLbo.s:2203   .text:00000ae8 Timebase_UpCounter_Expired
C:\Users\WALTON\AppData\Local\Temp/cc1UbLbo.s:2243   .text:00000b1c Timebase_UpCounter_Expired_Event
C:\Users\WALTON\AppData\Local\Temp/cc1UbLbo.s:2292   .text:00000b5a Timebase_UpCounter_Set_Period_Value_Securely
C:\Users\WALTON\AppData\Local\Temp/cc1UbLbo.s:2354   .text:00000ba2 Timebase_UpCounter_Get_Remaining_Period_Value
C:\Users\WALTON\AppData\Local\Temp/cc1UbLbo.s:2412   .text:00000bee Timebase_UpCounter_Period_Value_Expired
C:\Users\WALTON\AppData\Local\Temp/cc1UbLbo.s:2504   .text:00000c6a Timebase_UpCounter_Period_Value_Expired_Event
C:\Users\WALTON\AppData\Local\Temp/cc1UbLbo.s:2556   .text:00000caa Timebase_UpCounter_Update_All
C:\Users\WALTON\AppData\Local\Temp/cc1UbLbo.s:2573   .text:00000cb2 Timebase_UpCounter_Reset_All
C:\Users\WALTON\AppData\Local\Temp/cc1UbLbo.s:2590   .text:00000cba Timebase_DownCounter_Get_Status
C:\Users\WALTON\AppData\Local\Temp/cc1UbLbo.s:2628   .text:00000cea Timebase_DownCounter_Set_Status
C:\Users\WALTON\AppData\Local\Temp/cc1UbLbo.s:2670   .text:00000d20 Timebase_DownCounter_Get_Value
C:\Users\WALTON\AppData\Local\Temp/cc1UbLbo.s:2709   .text:00000d52 Timebase_DownCounter_Set_Value
C:\Users\WALTON\AppData\Local\Temp/cc1UbLbo.s:2748   .text:00000d84 Timebase_DownCounter_Get_EndValue
C:\Users\WALTON\AppData\Local\Temp/cc1UbLbo.s:2787   .text:00000db6 Timebase_DownCounter_Set_EndValue
C:\Users\WALTON\AppData\Local\Temp/cc1UbLbo.s:2826   .text:00000de8 Timebase_DownCounter_Get_PeriodValue
C:\Users\WALTON\AppData\Local\Temp/cc1UbLbo.s:2865   .text:00000e1a Timebase_DownCounter_Set_PeriodValue
C:\Users\WALTON\AppData\Local\Temp/cc1UbLbo.s:2928   .text:00000e76 Timebase_DownCounter_Get_Period_Flag
C:\Users\WALTON\AppData\Local\Temp/cc1UbLbo.s:2965   .text:00000ea4 Timebase_DownCounter_Set_Period_Flag
C:\Users\WALTON\AppData\Local\Temp/cc1UbLbo.s:3003   .text:00000ed4 Timebase_DownCounter_Clear_Period_Flag
C:\Users\WALTON\AppData\Local\Temp/cc1UbLbo.s:3041   .text:00000f04 Timebase_DownCounter_Reset
C:\Users\WALTON\AppData\Local\Temp/cc1UbLbo.s:3155   .text:00000faa Timebase_DownCounter_Clear_All_Flags
C:\Users\WALTON\AppData\Local\Temp/cc1UbLbo.s:3273   .text:00001050 Timebase_DownCounter_Start
C:\Users\WALTON\AppData\Local\Temp/cc1UbLbo.s:3342   .text:000010ac Timebase_DownCounter_Stop
C:\Users\WALTON\AppData\Local\Temp/cc1UbLbo.s:3409   .text:00001108 Timebase_DownCounter_Set_Securely
C:\Users\WALTON\AppData\Local\Temp/cc1UbLbo.s:3584   .text:0000120a Timebase_DownCounter_Set_Forcefully
C:\Users\WALTON\AppData\Local\Temp/cc1UbLbo.s:3704   .text:000012b4 Timebase_DownCounter_Update
C:\Users\WALTON\AppData\Local\Temp/cc1UbLbo.s:3997   .text:00001478 Timebase_DownCounter_Expired
C:\Users\WALTON\AppData\Local\Temp/cc1UbLbo.s:4041   .text:000014b2 Timebase_DownCounter_Expired_Event
C:\Users\WALTON\AppData\Local\Temp/cc1UbLbo.s:4193   .text:00001588 Timebase_DownCounter_Set_Period_Value_Securely
C:\Users\WALTON\AppData\Local\Temp/cc1UbLbo.s:4351   .text:0000167c Timebase_DownCounter_Get_Remaining_Period_Value
C:\Users\WALTON\AppData\Local\Temp/cc1UbLbo.s:4429   .text:000016f0 Timebase_DownCounter_Period_Value_Expired
C:\Users\WALTON\AppData\Local\Temp/cc1UbLbo.s:4544   .text:0000179a Timebase_DownCounter_Period_Value_Expired_Event
C:\Users\WALTON\AppData\Local\Temp/cc1UbLbo.s:4601   .text:000017de Timebase_DownCounter_Update_All
C:\Users\WALTON\AppData\Local\Temp/cc1UbLbo.s:4618   .text:000017e6 Timebase_DownCounter_Reset_All
C:\Users\WALTON\AppData\Local\Temp/cc1UbLbo.s:4672   .text:0000180c Timebase_DownCounter_SS_Get_Status
C:\Users\WALTON\AppData\Local\Temp/cc1UbLbo.s:4710   .text:0000183c Timebase_DownCounter_SS_Set_Status
C:\Users\WALTON\AppData\Local\Temp/cc1UbLbo.s:4752   .text:00001872 Timebase_DownCounter_SS_Get_Value
C:\Users\WALTON\AppData\Local\Temp/cc1UbLbo.s:4791   .text:000018a4 Timebase_DownCounter_SS_Set_Value
C:\Users\WALTON\AppData\Local\Temp/cc1UbLbo.s:4830   .text:000018d6 Timebase_DownCounter_SS_Get_EndValueSec
C:\Users\WALTON\AppData\Local\Temp/cc1UbLbo.s:4869   .text:00001908 Timebase_DownCounter_SS_Get_EndValueSubSec
C:\Users\WALTON\AppData\Local\Temp/cc1UbLbo.s:4908   .text:0000193a Timebase_DownCounter_SS_Set_EndValueSec
C:\Users\WALTON\AppData\Local\Temp/cc1UbLbo.s:4947   .text:0000196c Timebase_DownCounter_SS_Set_EndValueSubSec
C:\Users\WALTON\AppData\Local\Temp/cc1UbLbo.s:4986   .text:0000199e Timebase_DownCounter_SS_Get_PeriodValue
C:\Users\WALTON\AppData\Local\Temp/cc1UbLbo.s:5025   .text:000019d0 Timebase_DownCounter_SS_Set_PeriodValue
C:\Users\WALTON\AppData\Local\Temp/cc1UbLbo.s:5088   .text:00001a2c Timebase_DownCounter_SS_Get_Period_Flag
C:\Users\WALTON\AppData\Local\Temp/cc1UbLbo.s:5125   .text:00001a5a Timebase_DownCounter_SS_Set_Period_Flag
C:\Users\WALTON\AppData\Local\Temp/cc1UbLbo.s:5163   .text:00001a8a Timebase_DownCounter_SS_Clear_Period_Flag
C:\Users\WALTON\AppData\Local\Temp/cc1UbLbo.s:5201   .text:00001aba Timebase_DownCounter_SS_Reset
C:\Users\WALTON\AppData\Local\Temp/cc1UbLbo.s:5340   .text:00001b88 Timebase_DownCounter_SS_Clear_All_Flags
C:\Users\WALTON\AppData\Local\Temp/cc1UbLbo.s:5483   .text:00001c56 Timebase_DownCounter_SS_Start
C:\Users\WALTON\AppData\Local\Temp/cc1UbLbo.s:5552   .text:00001cb2 Timebase_DownCounter_SS_Stop
C:\Users\WALTON\AppData\Local\Temp/cc1UbLbo.s:5619   .text:00001d0e Timebase_DownCounter_SS_Set_Securely
C:\Users\WALTON\AppData\Local\Temp/cc1UbLbo.s:5919   .text:00001ed0 Timebase_DownCounter_SS_Set_Forcefully
C:\Users\WALTON\AppData\Local\Temp/cc1UbLbo.s:6064   .text:00001fa2 Timebase_DownCounter_SS_Expired
C:\Users\WALTON\AppData\Local\Temp/cc1UbLbo.s:6108   .text:00001fdc Timebase_DownCounter_SS_Expired_Event
C:\Users\WALTON\AppData\Local\Temp/cc1UbLbo.s:6285   .text:000020da Timebase_DownCounter_SS_Set_Period_Value_Securely
C:\Users\WALTON\AppData\Local\Temp/cc1UbLbo.s:6443   .text:000021ce Timebase_DownCounter_SS_Get_Remaining_Period_Value
C:\Users\WALTON\AppData\Local\Temp/cc1UbLbo.s:6521   .text:00002242 Timebase_DownCounter_SS_Period_Value_Expired
C:\Users\WALTON\AppData\Local\Temp/cc1UbLbo.s:6636   .text:000022ec Timebase_DownCounter_SS_Period_Value_Expired_Event
C:\Users\WALTON\AppData\Local\Temp/cc1UbLbo.s:6693   .text:00002330 Timebase_DownCounter_SS_Reset_All
C:\Users\WALTON\AppData\Local\Temp/cc1UbLbo.s:6757   .text:00002360 Timebase_Reset
C:\Users\WALTON\AppData\Local\Temp/cc1UbLbo.s:6773   .text:0000236a Timebase_Init
C:\Users\WALTON\AppData\Local\Temp/cc1UbLbo.s:6800   .text:00002384 Timebase_Main_Loop_Executables
C:\Users\WALTON\AppData\Local\Temp/cc1UbLbo.s:6816   .text:0000238e Timebase_ISR_Executables
C:\Users\WALTON\AppData\Local\Temp/cc1UbLbo.s:6870   .text:000023d6 __vector_16
C:\Users\WALTON\AppData\Local\Temp/cc1UbLbo.s:6921   .text:00002422 Timebase_DownCounter_SS_Update
C:\Users\WALTON\AppData\Local\Temp/cc1UbLbo.s:7202   .text:000025d2 Timebase_DownCounter_SS_Update_All

UNDEFINED SYMBOLS
__divmodsi4
__mulsi3
__udivmodhi4
Timebase_DownCounter_SS_Get_EndValue
Timebase_DownCounter_SS_Set_EndValue
__do_copy_data
__do_clear_bss
