   1               		.file	"timebase.c"
   2               	__SREG__ = 0x3f
   3               	__SP_H__ = 0x3e
   4               	__SP_L__ = 0x3d
   5               	__CCP__  = 0x34
   6               	__tmp_reg__ = 0
   7               	__zero_reg__ = 1
  15               	.Ltext0:
  16               	.global	Timebase_Struct_Init
  18               	Timebase_Struct_Init:
  19               	.LFB6:
  20               	.LM1:
  21               	/* prologue: function */
  22               	/* frame size = 0 */
  23               	.LM2:
  24 0000 80E0      		ldi r24,lo8(Timebase_type)
  25 0002 90E0      		ldi r25,hi8(Timebase_type)
  26 0004 9093 0000 		sts (Timebase)+1,r25
  27 0008 8093 0000 		sts Timebase,r24
  28               	.LM3:
  29 000c 1092 0000 		sts Timebase_type,__zero_reg__
  30               	.LM4:
  31 0010 8091 0000 		lds r24,Timebase_type
  32 0014 8460      		ori r24,lo8(4)
  33 0016 8093 0000 		sts Timebase_type,r24
  34               	.LM5:
  35 001a 8091 0000 		lds r24,Timebase_type
  36 001e 8770      		andi r24,lo8(7)
  37 0020 8093 0000 		sts Timebase_type,r24
  38               	.LM6:
  39 0024 81E0      		ldi r24,lo8(1)
  40 0026 90E0      		ldi r25,hi8(1)
  41 0028 9093 0000 		sts (Timebase_type+1)+1,r25
  42 002c 8093 0000 		sts Timebase_type+1,r24
  43               	.LM7:
  44 0030 1092 0000 		sts Timebase_type+3,__zero_reg__
  45               	.LM8:
  46 0034 1092 0000 		sts (Timebase_type+14)+1,__zero_reg__
  47 0038 1092 0000 		sts Timebase_type+14,__zero_reg__
  48               	.LM9:
  49 003c 1092 0000 		sts Timebase_type+16,__zero_reg__
  50 0040 1092 0000 		sts (Timebase_type+16)+1,__zero_reg__
  51 0044 1092 0000 		sts (Timebase_type+16)+2,__zero_reg__
  52 0048 1092 0000 		sts (Timebase_type+16)+3,__zero_reg__
  53               	.LM10:
  54 004c 1092 0000 		sts (Timebase_type+8)+1,__zero_reg__
  55 0050 1092 0000 		sts Timebase_type+8,__zero_reg__
  56               	.LM11:
  57 0054 1092 0000 		sts Timebase_type+10,__zero_reg__
  58 0058 1092 0000 		sts (Timebase_type+10)+1,__zero_reg__
  59 005c 1092 0000 		sts (Timebase_type+10)+2,__zero_reg__
  60 0060 1092 0000 		sts (Timebase_type+10)+3,__zero_reg__
  61               	.LM12:
  62 0064 1092 0000 		sts Timebase_type+20,__zero_reg__
  63               	.LM13:
  64 0068 1092 0000 		sts Timebase_type+4,__zero_reg__
  65 006c 1092 0000 		sts (Timebase_type+4)+1,__zero_reg__
  66 0070 1092 0000 		sts (Timebase_type+4)+2,__zero_reg__
  67 0074 1092 0000 		sts (Timebase_type+4)+3,__zero_reg__
  68               	.LM14:
  69 0078 1092 0000 		sts Timebase_type+21,__zero_reg__
  70               	.LBB568:
  71               	.LM15:
  72 007c 1092 0000 		sts Timebase_type+47,__zero_reg__
  73               	.LM16:
  74 0080 1092 0000 		sts Timebase_type+48,__zero_reg__
  75 0084 1092 0000 		sts (Timebase_type+48)+1,__zero_reg__
  76 0088 1092 0000 		sts (Timebase_type+48)+2,__zero_reg__
  77 008c 1092 0000 		sts (Timebase_type+48)+3,__zero_reg__
  78               	.LM17:
  79 0090 1092 0000 		sts Timebase_type+52,__zero_reg__
  80 0094 1092 0000 		sts (Timebase_type+52)+1,__zero_reg__
  81 0098 1092 0000 		sts (Timebase_type+52)+2,__zero_reg__
  82 009c 1092 0000 		sts (Timebase_type+52)+3,__zero_reg__
  83               	.LM18:
  84 00a0 1092 0000 		sts Timebase_type+56,__zero_reg__
  85 00a4 1092 0000 		sts (Timebase_type+56)+1,__zero_reg__
  86 00a8 1092 0000 		sts (Timebase_type+56)+2,__zero_reg__
  87 00ac 1092 0000 		sts (Timebase_type+56)+3,__zero_reg__
  88               	.LM19:
  89 00b0 1092 0000 		sts Timebase_type+60,__zero_reg__
  90 00b4 1092 0000 		sts (Timebase_type+60)+1,__zero_reg__
  91 00b8 1092 0000 		sts (Timebase_type+60)+2,__zero_reg__
  92 00bc 1092 0000 		sts (Timebase_type+60)+3,__zero_reg__
  93               	.LM20:
  94 00c0 1092 0000 		sts Timebase_type+64,__zero_reg__
  95 00c4 1092 0000 		sts (Timebase_type+64)+1,__zero_reg__
  96 00c8 1092 0000 		sts (Timebase_type+64)+2,__zero_reg__
  97 00cc 1092 0000 		sts (Timebase_type+64)+3,__zero_reg__
  98               	.LBE568:
  99               	.LBB569:
 100               	.LM21:
 101 00d0 1092 0000 		sts Timebase_type+22,__zero_reg__
 102               	.LM22:
 103 00d4 1092 0000 		sts Timebase_type+23,__zero_reg__
 104 00d8 1092 0000 		sts (Timebase_type+23)+1,__zero_reg__
 105 00dc 1092 0000 		sts (Timebase_type+23)+2,__zero_reg__
 106 00e0 1092 0000 		sts (Timebase_type+23)+3,__zero_reg__
 107               	.LM23:
 108 00e4 1092 0000 		sts Timebase_type+27,__zero_reg__
 109 00e8 1092 0000 		sts (Timebase_type+27)+1,__zero_reg__
 110 00ec 1092 0000 		sts (Timebase_type+27)+2,__zero_reg__
 111 00f0 1092 0000 		sts (Timebase_type+27)+3,__zero_reg__
 112               	.LM24:
 113 00f4 1092 0000 		sts Timebase_type+31,__zero_reg__
 114 00f8 1092 0000 		sts (Timebase_type+31)+1,__zero_reg__
 115 00fc 1092 0000 		sts (Timebase_type+31)+2,__zero_reg__
 116 0100 1092 0000 		sts (Timebase_type+31)+3,__zero_reg__
 117               	.LM25:
 118 0104 1092 0000 		sts Timebase_type+35,__zero_reg__
 119 0108 1092 0000 		sts (Timebase_type+35)+1,__zero_reg__
 120 010c 1092 0000 		sts (Timebase_type+35)+2,__zero_reg__
 121 0110 1092 0000 		sts (Timebase_type+35)+3,__zero_reg__
 122               	.LM26:
 123 0114 1092 0000 		sts Timebase_type+39,__zero_reg__
 124 0118 1092 0000 		sts (Timebase_type+39)+1,__zero_reg__
 125 011c 1092 0000 		sts (Timebase_type+39)+2,__zero_reg__
 126 0120 1092 0000 		sts (Timebase_type+39)+3,__zero_reg__
 127               	.LM27:
 128 0124 1092 0000 		sts Timebase_type+43,__zero_reg__
 129 0128 1092 0000 		sts (Timebase_type+43)+1,__zero_reg__
 130 012c 1092 0000 		sts (Timebase_type+43)+2,__zero_reg__
 131 0130 1092 0000 		sts (Timebase_type+43)+3,__zero_reg__
 132               	.LBE569:
 133               	.LBB570:
 134               	.LM28:
 135 0134 1092 0000 		sts Timebase_type+85,__zero_reg__
 136               	.LM29:
 137 0138 1092 0000 		sts Timebase_type+86,__zero_reg__
 138 013c 1092 0000 		sts (Timebase_type+86)+1,__zero_reg__
 139 0140 1092 0000 		sts (Timebase_type+86)+2,__zero_reg__
 140 0144 1092 0000 		sts (Timebase_type+86)+3,__zero_reg__
 141               	.LM30:
 142 0148 1092 0000 		sts Timebase_type+90,__zero_reg__
 143 014c 1092 0000 		sts (Timebase_type+90)+1,__zero_reg__
 144 0150 1092 0000 		sts (Timebase_type+90)+2,__zero_reg__
 145 0154 1092 0000 		sts (Timebase_type+90)+3,__zero_reg__
 146               	.LM31:
 147 0158 1092 0000 		sts Timebase_type+94,__zero_reg__
 148 015c 1092 0000 		sts (Timebase_type+94)+1,__zero_reg__
 149 0160 1092 0000 		sts (Timebase_type+94)+2,__zero_reg__
 150 0164 1092 0000 		sts (Timebase_type+94)+3,__zero_reg__
 151               	.LBE570:
 152               	.LBB571:
 153               	.LM32:
 154 0168 1092 0000 		sts Timebase_type+68,__zero_reg__
 155               	.LM33:
 156 016c 1092 0000 		sts Timebase_type+69,__zero_reg__
 157 0170 1092 0000 		sts (Timebase_type+69)+1,__zero_reg__
 158 0174 1092 0000 		sts (Timebase_type+69)+2,__zero_reg__
 159 0178 1092 0000 		sts (Timebase_type+69)+3,__zero_reg__
 160               	.LM34:
 161 017c 1092 0000 		sts Timebase_type+73,__zero_reg__
 162 0180 1092 0000 		sts (Timebase_type+73)+1,__zero_reg__
 163 0184 1092 0000 		sts (Timebase_type+73)+2,__zero_reg__
 164 0188 1092 0000 		sts (Timebase_type+73)+3,__zero_reg__
 165               	.LM35:
 166 018c 1092 0000 		sts Timebase_type+77,__zero_reg__
 167 0190 1092 0000 		sts (Timebase_type+77)+1,__zero_reg__
 168 0194 1092 0000 		sts (Timebase_type+77)+2,__zero_reg__
 169 0198 1092 0000 		sts (Timebase_type+77)+3,__zero_reg__
 170               	.LM36:
 171 019c 1092 0000 		sts Timebase_type+81,__zero_reg__
 172 01a0 1092 0000 		sts (Timebase_type+81)+1,__zero_reg__
 173 01a4 1092 0000 		sts (Timebase_type+81)+2,__zero_reg__
 174 01a8 1092 0000 		sts (Timebase_type+81)+3,__zero_reg__
 175               	/* epilogue start */
 176               	.LBE571:
 177               	.LM37:
 178 01ac 0895      		ret
 179               	.LFE6:
 181               	.global	Timebase_Timer_Config
 183               	Timebase_Timer_Config:
 184               	.LFB7:
 185               	.LM38:
 186               	.LVL0:
 187 01ae 7F92      		push r7
 188 01b0 8F92      		push r8
 189 01b2 9F92      		push r9
 190 01b4 AF92      		push r10
 191 01b6 BF92      		push r11
 192 01b8 CF92      		push r12
 193 01ba DF92      		push r13
 194 01bc EF92      		push r14
 195 01be FF92      		push r15
 196 01c0 0F93      		push r16
 197 01c2 1F93      		push r17
 198 01c4 DF93      		push r29
 199 01c6 CF93      		push r28
 200 01c8 CDB7      		in r28,__SP_L__
 201 01ca DEB7      		in r29,__SP_H__
 202 01cc 2A97      		sbiw r28,10
 203 01ce 0FB6      		in __tmp_reg__,__SREG__
 204 01d0 F894      		cli
 205 01d2 DEBF      		out __SP_H__,r29
 206 01d4 0FBE      		out __SREG__,__tmp_reg__
 207 01d6 CDBF      		out __SP_L__,r28
 208               	/* prologue: function */
 209               	/* frame size = 10 */
 210 01d8 8C01      		movw r16,r24
 211               	.LM39:
 212 01da DE01      		movw r26,r28
 213 01dc 1196      		adiw r26,1
 214 01de E0E0      		ldi r30,lo8(C.1.1688)
 215 01e0 F0E0      		ldi r31,hi8(C.1.1688)
 216 01e2 8AE0      		ldi r24,lo8(10)
 217               	.LVL1:
 218               	.L4:
 219 01e4 0190      		ld r0,Z+
 220 01e6 0D92      		st X+,r0
 221 01e8 8150      		subi r24,lo8(-(-1))
 222 01ea 01F4      		brne .L4
 223               	.LM40:
 224 01ec C090 0000 		lds r12,Timebase
 225 01f0 D090 0000 		lds r13,(Timebase)+1
 226 01f4 F601      		movw r30,r12
 227 01f6 8081      		ld r24,Z
 228 01f8 80FF      		sbrs r24,0
 229 01fa 00C0      		rjmp .L5
 230               	.LM41:
 231 01fc 0130      		cpi r16,1
 232 01fe 1105      		cpc r17,__zero_reg__
 233 0200 01F4      		brne .L6
 234 0202 96E0      		ldi r25,lo8(6)
 235               	.LVL2:
 236 0204 00C0      		rjmp .L7
 237               	.LVL3:
 238               	.L6:
 239               	.LM42:
 240 0206 0230      		cpi r16,2
 241 0208 1105      		cpc r17,__zero_reg__
 242 020a 01F4      		brne .L8
 243 020c 95E0      		ldi r25,lo8(5)
 244               	.LVL4:
 245 020e 00C0      		rjmp .L7
 246               	.LVL5:
 247               	.L8:
 248               	.LM43:
 249 0210 0430      		cpi r16,4
 250 0212 1105      		cpc r17,__zero_reg__
 251 0214 01F4      		brne .L9
 252 0216 94E0      		ldi r25,lo8(4)
 253               	.LVL6:
 254 0218 00C0      		rjmp .L7
 255               	.LVL7:
 256               	.L9:
 257               	.LM44:
 258 021a 0830      		cpi r16,8
 259 021c 1105      		cpc r17,__zero_reg__
 260 021e 01F4      		brne .L10
 261 0220 93E0      		ldi r25,lo8(3)
 262               	.LVL8:
 263 0222 00C0      		rjmp .L7
 264               	.LVL9:
 265               	.L10:
 266               	.LM45:
 267 0224 0031      		cpi r16,16
 268 0226 1105      		cpc r17,__zero_reg__
 269 0228 01F4      		brne .L11
 270 022a 92E0      		ldi r25,lo8(2)
 271               	.LVL10:
 272 022c 00C0      		rjmp .L7
 273               	.LVL11:
 274               	.L11:
 275 022e 90E0      		ldi r25,lo8(0)
 276               	.LVL12:
 277 0230 0032      		cpi r16,32
 278 0232 1105      		cpc r17,__zero_reg__
 279 0234 01F4      		brne .L7
 280 0236 91E0      		ldi r25,lo8(1)
 281               	.L7:
 282               	.LM46:
 283               	/* #APP */
 284               	 ;  276 "timebase.c" 1
 285 0238 F894      		cli
 286               	 ;  0 "" 2
 287               	.LM47:
 288               	/* #NOAPP */
 289 023a 84B7      		in r24,84-32
 290 023c 877F      		andi r24,lo8(-9)
 291 023e 84BF      		out 84-32,r24
 292               	.LM48:
 293 0240 8091 6000 		lds r24,96
 294 0244 8068      		ori r24,lo8(-128)
 295 0246 8093 6000 		sts 96,r24
 296               	.LM49:
 297 024a 8091 6000 		lds r24,96
 298 024e 8861      		ori r24,lo8(24)
 299 0250 8093 6000 		sts 96,r24
 300               	.LM50:
 301 0254 9064      		ori r25,lo8(64)
 302 0256 9093 6000 		sts 96,r25
 303               	.LM51:
 304               	/* #APP */
 305               	 ;  281 "timebase.c" 1
 306 025a 7894      		sei
 307               	 ;  0 "" 2
 308               	/* #NOAPP */
 309 025c 00C0      		rjmp .L13
 310               	.LVL13:
 311               	.L5:
 312               	.LM52:
 313 025e 81FD      		sbrc r24,1
 314 0260 00C0      		rjmp .L13
 315               	.LM53:
 316 0262 82FF      		sbrs r24,2
 317 0264 00C0      		rjmp .L13
 318               	.LM54:
 319 0266 9801      		movw r18,r16
 320 0268 40E0      		ldi r20,lo8(0)
 321 026a 50E0      		ldi r21,hi8(0)
 322               	.LVL14:
 323 026c 60E0      		ldi r22,lo8(12000000)
 324 026e 7BE1      		ldi r23,hi8(12000000)
 325 0270 87EB      		ldi r24,hlo8(12000000)
 326 0272 90E0      		ldi r25,hhi8(12000000)
 327 0274 0E94 0000 		call __divmodsi4
 328 0278 722E      		mov r7,r18
 329 027a 832E      		mov r8,r19
 330 027c 942E      		mov r9,r20
 331               	.LVL15:
 332 027e E52E      		mov r14,r21
 333 0280 5E01      		movw r10,r28
 334 0282 0894      		sec
 335 0284 A11C      		adc r10,__zero_reg__
 336 0286 B11C      		adc r11,__zero_reg__
 337 0288 C901      		movw r24,r18
 338 028a DA01      		movw r26,r20
 339 028c 9C01      		movw r18,r24
 340 028e AD01      		movw r20,r26
 341               	.LVL16:
 342 0290 FF24      		clr r15
 343               	.LVL17:
 344 0292 00C0      		rjmp .L14
 345               	.LVL18:
 346               	.L16:
 347               	.LM55:
 348 0294 F501      		movw r30,r10
 349 0296 2191      		ld r18,Z+
 350 0298 3191      		ld r19,Z+
 351               	.LVL19:
 352 029a 5F01      		movw r10,r30
 353 029c 40E0      		ldi r20,lo8(0)
 354 029e 50E0      		ldi r21,hi8(0)
 355 02a0 672D      		mov r22,r7
 356 02a2 782D      		mov r23,r8
 357 02a4 892D      		mov r24,r9
 358               	.LVL20:
 359 02a6 9E2D      		mov r25,r14
 360 02a8 0E94 0000 		call __divmodsi4
 361 02ac C901      		movw r24,r18
 362 02ae DA01      		movw r26,r20
 363 02b0 9C01      		movw r18,r24
 364 02b2 AD01      		movw r20,r26
 365               	.LVL21:
 366               	.LM56:
 367 02b4 F394      		inc r15
 368               	.LM57:
 369 02b6 F5E0      		ldi r31,lo8(5)
 370 02b8 FF16      		cp r15,r31
 371 02ba 01F0      		breq .L15
 372               	.LVL22:
 373               	.L14:
 374               	.LM58:
 375 02bc 2F3F      		cpi r18,lo8(255)
 376 02be 3105      		cpc r19,__zero_reg__
 377 02c0 4105      		cpc r20,__zero_reg__
 378 02c2 5105      		cpc r21,__zero_reg__
 379 02c4 01F0      		breq .+2
 380 02c6 04F4      		brge .L16
 381               	.L15:
 382               	.LM59:
 383 02c8 8F2D      		mov r24,r15
 384 02ca 8150      		subi r24,lo8(-(-1))
 385               	.LVL23:
 386               	.LM60:
 387 02cc 14BC      		out 68-32,__zero_reg__
 388               	.LM61:
 389 02ce 15BC      		out 69-32,__zero_reg__
 390               	.LM62:
 391 02d0 1092 6E00 		sts 110,__zero_reg__
 392               	.LM63:
 393 02d4 15BA      		out 53-32,__zero_reg__
 394               	.LM64:
 395 02d6 17BC      		out 71-32,__zero_reg__
 396               	.LM65:
 397 02d8 18BC      		out 72-32,__zero_reg__
 398               	.LM66:
 399 02da 16BC      		out 70-32,__zero_reg__
 400               	.LM67:
 401 02dc 17BC      		out 71-32,__zero_reg__
 402               	.LM68:
 403 02de 8823      		tst r24
 404 02e0 01F4      		brne .L17
 405               	.LM69:
 406 02e2 81E0      		ldi r24,lo8(1)
 407               	.LVL24:
 408 02e4 00C0      		rjmp .L24
 409               	.LVL25:
 410               	.L17:
 411               	.LM70:
 412 02e6 8130      		cpi r24,lo8(1)
 413 02e8 01F4      		brne .L19
 414               	.LM71:
 415 02ea 82E0      		ldi r24,lo8(2)
 416               	.LVL26:
 417 02ec 00C0      		rjmp .L24
 418               	.LVL27:
 419               	.L19:
 420               	.LM72:
 421 02ee 8230      		cpi r24,lo8(2)
 422 02f0 01F4      		brne .L20
 423               	.LM73:
 424 02f2 83E0      		ldi r24,lo8(3)
 425               	.LVL28:
 426 02f4 00C0      		rjmp .L24
 427               	.LVL29:
 428               	.L20:
 429               	.LM74:
 430 02f6 8330      		cpi r24,lo8(3)
 431 02f8 01F4      		brne .L21
 432               	.LM75:
 433 02fa 84E0      		ldi r24,lo8(4)
 434               	.LVL30:
 435 02fc 00C0      		rjmp .L24
 436               	.LVL31:
 437               	.L21:
 438               	.LM76:
 439 02fe 8430      		cpi r24,lo8(4)
 440 0300 01F4      		brne .L18
 441               	.LM77:
 442 0302 85E0      		ldi r24,lo8(5)
 443               	.LVL32:
 444               	.L24:
 445 0304 85BD      		out 69-32,r24
 446               	.LVL33:
 447               	.L18:
 448               	.LM78:
 449 0306 822F      		mov r24,r18
 450               	.LVL34:
 451 0308 8095      		com r24
 452 030a F601      		movw r30,r12
 453 030c 8383      		std Z+3,r24
 454               	.LM79:
 455 030e 8381      		ldd r24,Z+3
 456 0310 86BD      		out 70-32,r24
 457               	.LM80:
 458 0312 81E0      		ldi r24,lo8(1)
 459 0314 8093 6E00 		sts 110,r24
 460               	.LM81:
 461               	/* #APP */
 462               	 ;  329 "timebase.c" 1
 463 0318 7894      		sei
 464               	 ;  0 "" 2
 465               	.LVL35:
 466               	/* #NOAPP */
 467               	.L13:
 468               	.LM82:
 469 031a F601      		movw r30,r12
 470 031c 1283      		std Z+2,r17
 471 031e 0183      		std Z+1,r16
 472               	/* epilogue start */
 473               	.LM83:
 474 0320 2A96      		adiw r28,10
 475 0322 0FB6      		in __tmp_reg__,__SREG__
 476 0324 F894      		cli
 477 0326 DEBF      		out __SP_H__,r29
 478 0328 0FBE      		out __SREG__,__tmp_reg__
 479 032a CDBF      		out __SP_L__,r28
 480 032c CF91      		pop r28
 481 032e DF91      		pop r29
 482 0330 1F91      		pop r17
 483 0332 0F91      		pop r16
 484               	.LVL36:
 485 0334 FF90      		pop r15
 486 0336 EF90      		pop r14
 487 0338 DF90      		pop r13
 488 033a CF90      		pop r12
 489 033c BF90      		pop r11
 490 033e AF90      		pop r10
 491 0340 9F90      		pop r9
 492 0342 8F90      		pop r8
 493 0344 7F90      		pop r7
 494 0346 0895      		ret
 495               	.LFE7:
 497               	.global	Timebase_Atomic_Operation_Start
 499               	Timebase_Atomic_Operation_Start:
 500               	.LFB8:
 501               	.LM84:
 502               	/* prologue: function */
 503               	/* frame size = 0 */
 504               	.LM85:
 505               	/* #APP */
 506               	 ;  349 "timebase.c" 1
 507 0348 F894      		cli
 508               	 ;  0 "" 2
 509               	/* epilogue start */
 510               	.LM86:
 511               	/* #NOAPP */
 512 034a 0895      		ret
 513               	.LFE8:
 515               	.global	Timebase_Atomic_Operation_End
 517               	Timebase_Atomic_Operation_End:
 518               	.LFB9:
 519               	.LM87:
 520               	/* prologue: function */
 521               	/* frame size = 0 */
 522               	.LM88:
 523               	/* #APP */
 524               	 ;  353 "timebase.c" 1
 525 034c 7894      		sei
 526               	 ;  0 "" 2
 527               	/* epilogue start */
 528               	.LM89:
 529               	/* #NOAPP */
 530 034e 0895      		ret
 531               	.LFE9:
 533               	.global	Timebase_Timer_Get_SubSecondsShadow
 535               	Timebase_Timer_Get_SubSecondsShadow:
 536               	.LFB11:
 537               	.LM90:
 538               	/* prologue: function */
 539               	/* frame size = 0 */
 540               	.LM91:
 541 0350 E091 0000 		lds r30,Timebase
 542 0354 F091 0000 		lds r31,(Timebase)+1
 543 0358 2685      		ldd r18,Z+14
 544 035a 3785      		ldd r19,Z+15
 545               	.LM92:
 546 035c C901      		movw r24,r18
 547               	/* epilogue start */
 548 035e 0895      		ret
 549               	.LFE11:
 551               	.global	Timebase_Timer_Get_SecondsShadow
 553               	Timebase_Timer_Get_SecondsShadow:
 554               	.LFB12:
 555               	.LM93:
 556               	/* prologue: function */
 557               	/* frame size = 0 */
 558               	.LM94:
 559 0360 E091 0000 		lds r30,Timebase
 560 0364 F091 0000 		lds r31,(Timebase)+1
 561 0368 2089      		ldd r18,Z+16
 562 036a 3189      		ldd r19,Z+17
 563 036c 4289      		ldd r20,Z+18
 564 036e 5389      		ldd r21,Z+19
 565               	.LM95:
 566 0370 B901      		movw r22,r18
 567 0372 CA01      		movw r24,r20
 568               	/* epilogue start */
 569 0374 0895      		ret
 570               	.LFE12:
 572               	.global	Timebase_Timer_Get_SubSeconds
 574               	Timebase_Timer_Get_SubSeconds:
 575               	.LFB13:
 576               	.LM96:
 577               	/* prologue: function */
 578               	/* frame size = 0 */
 579               	.LM97:
 580 0376 E091 0000 		lds r30,Timebase
 581 037a F091 0000 		lds r31,(Timebase)+1
 582 037e 2085      		ldd r18,Z+8
 583 0380 3185      		ldd r19,Z+9
 584               	.LM98:
 585 0382 C901      		movw r24,r18
 586               	/* epilogue start */
 587 0384 0895      		ret
 588               	.LFE13:
 590               	.global	Timebase_Timer_Get_Seconds
 592               	Timebase_Timer_Get_Seconds:
 593               	.LFB14:
 594               	.LM99:
 595               	/* prologue: function */
 596               	/* frame size = 0 */
 597               	.LM100:
 598 0386 E091 0000 		lds r30,Timebase
 599 038a F091 0000 		lds r31,(Timebase)+1
 600 038e 2285      		ldd r18,Z+10
 601 0390 3385      		ldd r19,Z+11
 602 0392 4485      		ldd r20,Z+12
 603 0394 5585      		ldd r21,Z+13
 604               	.LM101:
 605 0396 B901      		movw r22,r18
 606 0398 CA01      		movw r24,r20
 607               	/* epilogue start */
 608 039a 0895      		ret
 609               	.LFE14:
 611               	.global	Timebase_Timer_Set_SubSeconds
 613               	Timebase_Timer_Set_SubSeconds:
 614               	.LFB15:
 615               	.LM102:
 616               	.LVL37:
 617               	/* prologue: function */
 618               	/* frame size = 0 */
 619               	.LM103:
 620 039c E091 0000 		lds r30,Timebase
 621 03a0 F091 0000 		lds r31,(Timebase)+1
 622 03a4 9187      		std Z+9,r25
 623 03a6 8087      		std Z+8,r24
 624               	/* epilogue start */
 625               	.LM104:
 626 03a8 0895      		ret
 627               	.LFE15:
 629               	.global	Timebase_Timer_Set_Seconds
 631               	Timebase_Timer_Set_Seconds:
 632               	.LFB16:
 633               	.LM105:
 634               	.LVL38:
 635               	/* prologue: function */
 636               	/* frame size = 0 */
 637               	.LM106:
 638 03aa E091 0000 		lds r30,Timebase
 639 03ae F091 0000 		lds r31,(Timebase)+1
 640 03b2 6287      		std Z+10,r22
 641 03b4 7387      		std Z+11,r23
 642 03b6 8487      		std Z+12,r24
 643 03b8 9587      		std Z+13,r25
 644               	/* epilogue start */
 645               	.LM107:
 646 03ba 0895      		ret
 647               	.LFE16:
 649               	.global	Timebase_Timer_Sync_With_Shadow_Variables
 651               	Timebase_Timer_Sync_With_Shadow_Variables:
 652               	.LFB17:
 653               	.LM108:
 654               	/* prologue: function */
 655               	/* frame size = 0 */
 656               	.LM109:
 657 03bc E091 0000 		lds r30,Timebase
 658 03c0 F091 0000 		lds r31,(Timebase)+1
 659 03c4 8489      		ldd r24,Z+20
 660 03c6 8823      		tst r24
 661 03c8 01F4      		brne .L43
 662               	.LBB572:
 663               	.LBB573:
 664               	.LM110:
 665               	/* #APP */
 666               	 ;  349 "timebase.c" 1
 667 03ca F894      		cli
 668               	 ;  0 "" 2
 669               	/* #NOAPP */
 670               	.LBE573:
 671               	.LBE572:
 672               	.LM111:
 673 03cc 8685      		ldd r24,Z+14
 674 03ce 9785      		ldd r25,Z+15
 675 03d0 9187      		std Z+9,r25
 676 03d2 8087      		std Z+8,r24
 677               	.LM112:
 678 03d4 8089      		ldd r24,Z+16
 679 03d6 9189      		ldd r25,Z+17
 680 03d8 A289      		ldd r26,Z+18
 681 03da B389      		ldd r27,Z+19
 682 03dc 8287      		std Z+10,r24
 683 03de 9387      		std Z+11,r25
 684 03e0 A487      		std Z+12,r26
 685 03e2 B587      		std Z+13,r27
 686               	.LBB574:
 687               	.LBB575:
 688               	.LM113:
 689               	/* #APP */
 690               	 ;  353 "timebase.c" 1
 691 03e4 7894      		sei
 692               	 ;  0 "" 2
 693               	/* #NOAPP */
 694               	.LBE575:
 695               	.LBE574:
 696               	.LM114:
 697 03e6 81E0      		ldi r24,lo8(1)
 698 03e8 848B      		std Z+20,r24
 699               	.L43:
 700 03ea 0895      		ret
 701               	.LFE17:
 703               	.global	Timebase_Timer_Delay_SubSeconds
 705               	Timebase_Timer_Delay_SubSeconds:
 706               	.LFB18:
 707               	.LM115:
 708               	.LVL39:
 709 03ec 6F92      		push r6
 710 03ee 7F92      		push r7
 711 03f0 8F92      		push r8
 712 03f2 9F92      		push r9
 713 03f4 AF92      		push r10
 714 03f6 BF92      		push r11
 715 03f8 CF92      		push r12
 716 03fa DF92      		push r13
 717 03fc EF92      		push r14
 718 03fe FF92      		push r15
 719 0400 0F93      		push r16
 720 0402 1F93      		push r17
 721 0404 CF93      		push r28
 722 0406 DF93      		push r29
 723               	/* prologue: function */
 724               	/* frame size = 0 */
 725 0408 5C01      		movw r10,r24
 726               	.LBB576:
 727               	.LBB577:
 728               	.LM116:
 729               	/* #APP */
 730               	 ;  349 "timebase.c" 1
 731 040a F894      		cli
 732               	 ;  0 "" 2
 733               	/* #NOAPP */
 734               	.LBE577:
 735               	.LBE576:
 736               	.LBB578:
 737               	.LBB579:
 738               	.LM117:
 739 040c C091 0000 		lds r28,Timebase
 740 0410 D091 0000 		lds r29,(Timebase)+1
 741 0414 EE84      		ldd r14,Y+14
 742 0416 FF84      		ldd r15,Y+15
 743               	.LBE579:
 744               	.LBE578:
 745               	.LBB580:
 746               	.LBB581:
 747               	.LM118:
 748 0418 2889      		ldd r18,Y+16
 749 041a 3989      		ldd r19,Y+17
 750 041c 4A89      		ldd r20,Y+18
 751 041e 5B89      		ldd r21,Y+19
 752               	.LVL40:
 753               	.LBE581:
 754               	.LBE580:
 755               	.LBB582:
 756               	.LBB583:
 757               	.LM119:
 758               	/* #APP */
 759               	 ;  353 "timebase.c" 1
 760 0420 7894      		sei
 761               	 ;  0 "" 2
 762               	/* #NOAPP */
 763               	.LBE583:
 764               	.LBE582:
 765               	.LM120:
 766 0422 6981      		ldd r22,Y+1
 767 0424 7A81      		ldd r23,Y+2
 768 0426 80E0      		ldi r24,lo8(0)
 769 0428 90E0      		ldi r25,hi8(0)
 770               	.LVL41:
 771 042a 0E94 0000 		call __mulsi3
 772               	.LVL42:
 773 042e 3B01      		movw r6,r22
 774 0430 4C01      		movw r8,r24
 775               	.LVL43:
 776               	.LM121:
 777 0432 00E0      		ldi r16,lo8(0)
 778 0434 10E0      		ldi r17,hi8(0)
 779 0436 6E0C      		add r6,r14
 780 0438 7F1C      		adc r7,r15
 781 043a 801E      		adc r8,r16
 782 043c 911E      		adc r9,r17
 783               	.LM122:
 784 043e CC24      		clr r12
 785 0440 DD24      		clr r13
 786               	.LVL44:
 787 0442 6A0C      		add r6,r10
 788 0444 7B1C      		adc r7,r11
 789 0446 8C1C      		adc r8,r12
 790 0448 9D1C      		adc r9,r13
 791 044a 60E0      		ldi r22,lo8(0)
 792 044c 70E0      		ldi r23,hi8(0)
 793 044e 80E0      		ldi r24,hlo8(0)
 794 0450 90E0      		ldi r25,hhi8(0)
 795               	.LVL45:
 796 0452 00C0      		rjmp .L45
 797               	.L46:
 798               	.LBB584:
 799               	.LBB585:
 800               	.LM123:
 801               	/* #APP */
 802               	 ;  349 "timebase.c" 1
 803 0454 F894      		cli
 804               	 ;  0 "" 2
 805               	/* #NOAPP */
 806               	.LBE585:
 807               	.LBE584:
 808               	.LBB586:
 809               	.LBB587:
 810               	.LM124:
 811 0456 EE84      		ldd r14,Y+14
 812 0458 FF84      		ldd r15,Y+15
 813               	.LBE587:
 814               	.LBE586:
 815               	.LBB588:
 816               	.LBB589:
 817               	.LM125:
 818 045a 2889      		ldd r18,Y+16
 819 045c 3989      		ldd r19,Y+17
 820 045e 4A89      		ldd r20,Y+18
 821 0460 5B89      		ldd r21,Y+19
 822               	.LVL46:
 823               	.LBE589:
 824               	.LBE588:
 825               	.LBB590:
 826               	.LBB591:
 827               	.LM126:
 828               	/* #APP */
 829               	 ;  353 "timebase.c" 1
 830 0462 7894      		sei
 831               	 ;  0 "" 2
 832               	/* #NOAPP */
 833               	.LBE591:
 834               	.LBE590:
 835               	.LM127:
 836 0464 6981      		ldd r22,Y+1
 837 0466 7A81      		ldd r23,Y+2
 838               	.LVL47:
 839 0468 80E0      		ldi r24,lo8(0)
 840 046a 90E0      		ldi r25,hi8(0)
 841 046c 0E94 0000 		call __mulsi3
 842               	.LVL48:
 843               	.LM128:
 844 0470 00E0      		ldi r16,lo8(0)
 845 0472 10E0      		ldi r17,hi8(0)
 846 0474 6E0D      		add r22,r14
 847 0476 7F1D      		adc r23,r15
 848 0478 801F      		adc r24,r16
 849 047a 911F      		adc r25,r17
 850               	.LVL49:
 851               	.L45:
 852               	.LM129:
 853 047c 6615      		cp r22,r6
 854 047e 7705      		cpc r23,r7
 855 0480 8805      		cpc r24,r8
 856 0482 9905      		cpc r25,r9
 857 0484 04F0      		brlt .L46
 858               	/* epilogue start */
 859               	.LM130:
 860 0486 DF91      		pop r29
 861 0488 CF91      		pop r28
 862 048a 1F91      		pop r17
 863 048c 0F91      		pop r16
 864 048e FF90      		pop r15
 865 0490 EF90      		pop r14
 866 0492 DF90      		pop r13
 867 0494 CF90      		pop r12
 868               	.LVL50:
 869 0496 BF90      		pop r11
 870 0498 AF90      		pop r10
 871               	.LVL51:
 872 049a 9F90      		pop r9
 873 049c 8F90      		pop r8
 874 049e 7F90      		pop r7
 875 04a0 6F90      		pop r6
 876               	.LVL52:
 877 04a2 0895      		ret
 878               	.LFE18:
 880               	.global	Timebase_Timer_Await_SubSeconds
 882               	Timebase_Timer_Await_SubSeconds:
 883               	.LFB19:
 884               	.LM131:
 885               	.LVL53:
 886               	/* prologue: function */
 887               	/* frame size = 0 */
 888 04a4 BC01      		movw r22,r24
 889               	.LBB592:
 890               	.LBB593:
 891               	.LM132:
 892               	/* #APP */
 893               	 ;  349 "timebase.c" 1
 894 04a6 F894      		cli
 895               	 ;  0 "" 2
 896               	/* #NOAPP */
 897               	.LBE593:
 898               	.LBE592:
 899               	.LBB594:
 900               	.LBB595:
 901               	.LM133:
 902 04a8 E091 0000 		lds r30,Timebase
 903 04ac F091 0000 		lds r31,(Timebase)+1
 904 04b0 00C0      		rjmp .L53
 905               	.LVL54:
 906               	.L50:
 907               	.LBE595:
 908               	.LBE594:
 909               	.LBB596:
 910               	.LBB597:
 911               	.LM134:
 912               	/* #APP */
 913               	 ;  349 "timebase.c" 1
 914 04b2 F894      		cli
 915               	 ;  0 "" 2
 916               	.LVL55:
 917               	/* #NOAPP */
 918               	.L53:
 919               	.LBE597:
 920               	.LBE596:
 921               	.LBB598:
 922               	.LBB599:
 923               	.LM135:
 924 04b4 8685      		ldd r24,Z+14
 925 04b6 9785      		ldd r25,Z+15
 926               	.LBE599:
 927               	.LBE598:
 928               	.LBB600:
 929               	.LBB601:
 930               	.LM136:
 931               	/* #APP */
 932               	 ;  353 "timebase.c" 1
 933 04b8 7894      		sei
 934               	 ;  0 "" 2
 935               	/* #NOAPP */
 936               	.LBE601:
 937               	.LBE600:
 938               	.LM137:
 939 04ba 2481      		ldd r18,Z+4
 940 04bc 3581      		ldd r19,Z+5
 941 04be 4681      		ldd r20,Z+6
 942 04c0 5781      		ldd r21,Z+7
 943 04c2 A0E0      		ldi r26,lo8(0)
 944 04c4 B0E0      		ldi r27,hi8(0)
 945 04c6 8217      		cp r24,r18
 946 04c8 9307      		cpc r25,r19
 947 04ca A407      		cpc r26,r20
 948 04cc B507      		cpc r27,r21
 949 04ce 01F4      		brne .L50
 950               	.LBB602:
 951               	.LBB603:
 952               	.LM138:
 953               	/* #APP */
 954               	 ;  349 "timebase.c" 1
 955 04d0 F894      		cli
 956               	 ;  0 "" 2
 957               	/* #NOAPP */
 958               	.LBE603:
 959               	.LBE602:
 960               	.LBB604:
 961               	.LBB605:
 962               	.LM139:
 963 04d2 8685      		ldd r24,Z+14
 964 04d4 9785      		ldd r25,Z+15
 965               	.LVL56:
 966               	.LBE605:
 967               	.LBE604:
 968               	.LBB606:
 969               	.LBB607:
 970               	.LM140:
 971               	/* #APP */
 972               	 ;  353 "timebase.c" 1
 973 04d6 7894      		sei
 974               	 ;  0 "" 2
 975               	/* #NOAPP */
 976               	.LBE607:
 977               	.LBE606:
 978               	.LM141:
 979 04d8 A0E0      		ldi r26,lo8(0)
 980 04da B0E0      		ldi r27,hi8(0)
 981               	.LVL57:
 982 04dc 8483      		std Z+4,r24
 983 04de 9583      		std Z+5,r25
 984 04e0 A683      		std Z+6,r26
 985 04e2 B783      		std Z+7,r27
 986               	.LVL58:
 987               	.LM142:
 988 04e4 2481      		ldd r18,Z+4
 989 04e6 3581      		ldd r19,Z+5
 990 04e8 4681      		ldd r20,Z+6
 991 04ea 5781      		ldd r21,Z+7
 992 04ec CB01      		movw r24,r22
 993 04ee A0E0      		ldi r26,lo8(0)
 994 04f0 B0E0      		ldi r27,hi8(0)
 995               	.LVL59:
 996 04f2 820F      		add r24,r18
 997 04f4 931F      		adc r25,r19
 998 04f6 A41F      		adc r26,r20
 999 04f8 B51F      		adc r27,r21
 1000               	.LVL60:
 1001 04fa 8483      		std Z+4,r24
 1002 04fc 9583      		std Z+5,r25
 1003 04fe A683      		std Z+6,r26
 1004 0500 B783      		std Z+7,r27
 1005               	.LM143:
 1006 0502 2481      		ldd r18,Z+4
 1007 0504 3581      		ldd r19,Z+5
 1008 0506 4681      		ldd r20,Z+6
 1009 0508 5781      		ldd r21,Z+7
 1010 050a 8181      		ldd r24,Z+1
 1011 050c 9281      		ldd r25,Z+2
 1012               	.LVL61:
 1013 050e A0E0      		ldi r26,lo8(0)
 1014 0510 B0E0      		ldi r27,hi8(0)
 1015               	.LVL62:
 1016 0512 2817      		cp r18,r24
 1017 0514 3907      		cpc r19,r25
 1018 0516 4A07      		cpc r20,r26
 1019 0518 5B07      		cpc r21,r27
 1020 051a 04F0      		brlt .L52
 1021               	.LM144:
 1022 051c 2481      		ldd r18,Z+4
 1023 051e 3581      		ldd r19,Z+5
 1024 0520 4681      		ldd r20,Z+6
 1025 0522 5781      		ldd r21,Z+7
 1026 0524 8181      		ldd r24,Z+1
 1027 0526 9281      		ldd r25,Z+2
 1028 0528 A0E0      		ldi r26,lo8(0)
 1029 052a B0E0      		ldi r27,hi8(0)
 1030 052c 281B      		sub r18,r24
 1031 052e 390B      		sbc r19,r25
 1032 0530 4A0B      		sbc r20,r26
 1033 0532 5B0B      		sbc r21,r27
 1034 0534 2483      		std Z+4,r18
 1035 0536 3583      		std Z+5,r19
 1036 0538 4683      		std Z+6,r20
 1037 053a 5783      		std Z+7,r21
 1038               	.L52:
 1039 053c 0895      		ret
 1040               	.LFE19:
 1042               	.global	Timebase_Timer_Delay_Seconds
 1044               	Timebase_Timer_Delay_Seconds:
 1045               	.LFB20:
 1046               	.LM145:
 1047               	.LVL63:
 1048               	/* prologue: function */
 1049               	/* frame size = 0 */
 1050               	.LBB608:
 1051               	.LBB609:
 1052               	.LM146:
 1053               	/* #APP */
 1054               	 ;  349 "timebase.c" 1
 1055 053e F894      		cli
 1056               	 ;  0 "" 2
 1057               	/* #NOAPP */
 1058               	.LBE609:
 1059               	.LBE608:
 1060               	.LBB610:
 1061               	.LBB611:
 1062               	.LM147:
 1063 0540 E091 0000 		lds r30,Timebase
 1064 0544 F091 0000 		lds r31,(Timebase)+1
 1065 0548 2089      		ldd r18,Z+16
 1066 054a 3189      		ldd r19,Z+17
 1067 054c 4289      		ldd r20,Z+18
 1068 054e 5389      		ldd r21,Z+19
 1069               	.LVL64:
 1070               	.LBE611:
 1071               	.LBE610:
 1072               	.LBB612:
 1073               	.LBB613:
 1074               	.LM148:
 1075               	/* #APP */
 1076               	 ;  353 "timebase.c" 1
 1077 0550 7894      		sei
 1078               	 ;  0 "" 2
 1079               	/* #NOAPP */
 1080               	.LBE613:
 1081               	.LBE612:
 1082               	.LM149:
 1083 0552 A0E0      		ldi r26,lo8(0)
 1084 0554 B0E0      		ldi r27,hi8(0)
 1085               	.LVL65:
 1086 0556 820F      		add r24,r18
 1087 0558 931F      		adc r25,r19
 1088 055a A41F      		adc r26,r20
 1089 055c B51F      		adc r27,r21
 1090               	.LVL66:
 1091 055e 20E0      		ldi r18,lo8(0)
 1092 0560 30E0      		ldi r19,hi8(0)
 1093 0562 40E0      		ldi r20,hlo8(0)
 1094 0564 50E0      		ldi r21,hhi8(0)
 1095               	.LVL67:
 1096 0566 00C0      		rjmp .L55
 1097               	.L56:
 1098               	.LBB614:
 1099               	.LBB615:
 1100               	.LM150:
 1101               	/* #APP */
 1102               	 ;  349 "timebase.c" 1
 1103 0568 F894      		cli
 1104               	 ;  0 "" 2
 1105               	/* #NOAPP */
 1106               	.LBE615:
 1107               	.LBE614:
 1108               	.LBB616:
 1109               	.LBB617:
 1110               	.LM151:
 1111 056a 2089      		ldd r18,Z+16
 1112 056c 3189      		ldd r19,Z+17
 1113 056e 4289      		ldd r20,Z+18
 1114 0570 5389      		ldd r21,Z+19
 1115               	.LBE617:
 1116               	.LBE616:
 1117               	.LBB618:
 1118               	.LBB619:
 1119               	.LM152:
 1120               	/* #APP */
 1121               	 ;  353 "timebase.c" 1
 1122 0572 7894      		sei
 1123               	 ;  0 "" 2
 1124               	/* #NOAPP */
 1125               	.L55:
 1126               	.LBE619:
 1127               	.LBE618:
 1128               	.LM153:
 1129 0574 2817      		cp r18,r24
 1130 0576 3907      		cpc r19,r25
 1131 0578 4A07      		cpc r20,r26
 1132 057a 5B07      		cpc r21,r27
 1133 057c 04F0      		brlt .L56
 1134               	/* epilogue start */
 1135               	.LM154:
 1136 057e 0895      		ret
 1137               	.LFE20:
 1139               	.global	Timebase_UpCounter_SS_Get_Status
 1141               	Timebase_UpCounter_SS_Get_Status:
 1142               	.LFB21:
 1143               	.LM155:
 1144               	.LVL68:
 1145               	/* prologue: function */
 1146               	/* frame size = 0 */
 1147               	.LM156:
 1148 0580 E091 0000 		lds r30,Timebase
 1149 0584 F091 0000 		lds r31,(Timebase)+1
 1150 0588 90E0      		ldi r25,lo8(0)
 1151               	.LVL69:
 1152 058a 29E1      		ldi r18,lo8(25)
 1153 058c 30E0      		ldi r19,hi8(25)
 1154 058e AC01      		movw r20,r24
 1155 0590 429F      		mul r20,r18
 1156 0592 C001      		movw r24,r0
 1157 0594 439F      		mul r20,r19
 1158 0596 900D      		add r25,r0
 1159 0598 529F      		mul r21,r18
 1160 059a 900D      		add r25,r0
 1161 059c 1124      		clr r1
 1162               	.LVL70:
 1163 059e E80F      		add r30,r24
 1164 05a0 F91F      		adc r31,r25
 1165 05a2 8689      		ldd r24,Z+22
 1166 05a4 8695      		lsr r24
 1167               	.LM157:
 1168 05a6 8F70      		andi r24,lo8(15)
 1169               	/* epilogue start */
 1170 05a8 0895      		ret
 1171               	.LFE21:
 1173               	.global	Timebase_UpCounter_SS_Set_Status
 1175               	Timebase_UpCounter_SS_Set_Status:
 1176               	.LFB22:
 1177               	.LM158:
 1178               	.LVL71:
 1179               	/* prologue: function */
 1180               	/* frame size = 0 */
 1181               	.LM159:
 1182 05aa E091 0000 		lds r30,Timebase
 1183 05ae F091 0000 		lds r31,(Timebase)+1
 1184 05b2 90E0      		ldi r25,lo8(0)
 1185               	.LVL72:
 1186 05b4 29E1      		ldi r18,lo8(25)
 1187 05b6 30E0      		ldi r19,hi8(25)
 1188 05b8 AC01      		movw r20,r24
 1189 05ba 429F      		mul r20,r18
 1190 05bc C001      		movw r24,r0
 1191 05be 439F      		mul r20,r19
 1192 05c0 900D      		add r25,r0
 1193 05c2 529F      		mul r21,r18
 1194 05c4 900D      		add r25,r0
 1195 05c6 1124      		clr r1
 1196               	.LVL73:
 1197 05c8 E80F      		add r30,r24
 1198 05ca F91F      		adc r31,r25
 1199 05cc 6F70      		andi r22,lo8(15)
 1200               	.LVL74:
 1201 05ce 660F      		lsl r22
 1202 05d0 8689      		ldd r24,Z+22
 1203 05d2 817E      		andi r24,lo8(-31)
 1204 05d4 862B      		or r24,r22
 1205 05d6 868B      		std Z+22,r24
 1206               	/* epilogue start */
 1207               	.LM160:
 1208 05d8 0895      		ret
 1209               	.LFE22:
 1211               	.global	Timebase_UpCounter_SS_Get_Value
 1213               	Timebase_UpCounter_SS_Get_Value:
 1214               	.LFB23:
 1215               	.LM161:
 1216               	.LVL75:
 1217               	/* prologue: function */
 1218               	/* frame size = 0 */
 1219               	.LM162:
 1220 05da E091 0000 		lds r30,Timebase
 1221 05de F091 0000 		lds r31,(Timebase)+1
 1222 05e2 90E0      		ldi r25,lo8(0)
 1223               	.LVL76:
 1224 05e4 29E1      		ldi r18,lo8(25)
 1225 05e6 30E0      		ldi r19,hi8(25)
 1226 05e8 AC01      		movw r20,r24
 1227 05ea 429F      		mul r20,r18
 1228 05ec C001      		movw r24,r0
 1229 05ee 439F      		mul r20,r19
 1230 05f0 900D      		add r25,r0
 1231 05f2 529F      		mul r21,r18
 1232 05f4 900D      		add r25,r0
 1233 05f6 1124      		clr r1
 1234               	.LVL77:
 1235 05f8 E80F      		add r30,r24
 1236 05fa F91F      		adc r31,r25
 1237 05fc DF01      		movw r26,r30
 1238 05fe 9796      		adiw r26,39
 1239 0600 67A1      		ldd r22,Z+39
 1240 0602 1196      		adiw r26,1
 1241 0604 7C91      		ld r23,X
 1242 0606 1197      		sbiw r26,1
 1243               	.LM163:
 1244 0608 1296      		adiw r26,2
 1245 060a 8C91      		ld r24,X
 1246 060c 1297      		sbiw r26,2
 1247 060e 1396      		adiw r26,3
 1248 0610 9C91      		ld r25,X
 1249               	.LVL78:
 1250               	/* epilogue start */
 1251 0612 0895      		ret
 1252               	.LFE23:
 1254               	.global	Timebase_UpCounter_SS_Set_Value
 1256               	Timebase_UpCounter_SS_Set_Value:
 1257               	.LFB24:
 1258               	.LM164:
 1259               	.LVL79:
 1260 0614 CF93      		push r28
 1261 0616 DF93      		push r29
 1262               	/* prologue: function */
 1263               	/* frame size = 0 */
 1264               	.LM165:
 1265 0618 C091 0000 		lds r28,Timebase
 1266 061c D091 0000 		lds r29,(Timebase)+1
 1267 0620 90E0      		ldi r25,lo8(0)
 1268               	.LVL80:
 1269 0622 29E1      		ldi r18,lo8(25)
 1270 0624 30E0      		ldi r19,hi8(25)
 1271 0626 FC01      		movw r30,r24
 1272 0628 E29F      		mul r30,r18
 1273 062a C001      		movw r24,r0
 1274 062c E39F      		mul r30,r19
 1275 062e 900D      		add r25,r0
 1276 0630 F29F      		mul r31,r18
 1277 0632 900D      		add r25,r0
 1278 0634 1124      		clr r1
 1279               	.LVL81:
 1280 0636 C80F      		add r28,r24
 1281 0638 D91F      		adc r29,r25
 1282 063a CA01      		movw r24,r20
 1283               	.LVL82:
 1284 063c DB01      		movw r26,r22
 1285 063e B7FF      		sbrs r27,7
 1286 0640 00C0      		rjmp .L65
 1287               	.LVL83:
 1288 0642 80E0      		ldi r24,lo8(0)
 1289 0644 90E0      		ldi r25,hi8(0)
 1290 0646 A0E0      		ldi r26,hlo8(0)
 1291 0648 B0E0      		ldi r27,hhi8(0)
 1292               	.L65:
 1293 064a 8FA3      		std Y+39,r24
 1294 064c 98A7      		std Y+40,r25
 1295 064e A9A7      		std Y+41,r26
 1296 0650 BAA7      		std Y+42,r27
 1297               	/* epilogue start */
 1298               	.LM166:
 1299 0652 DF91      		pop r29
 1300 0654 CF91      		pop r28
 1301 0656 0895      		ret
 1302               	.LFE24:
 1304               	.global	Timebase_UpCounter_SS_Get_EndValueSec
 1306               	Timebase_UpCounter_SS_Get_EndValueSec:
 1307               	.LFB25:
 1308               	.LM167:
 1309               	.LVL84:
 1310               	/* prologue: function */
 1311               	/* frame size = 0 */
 1312               	.LM168:
 1313 0658 E091 0000 		lds r30,Timebase
 1314 065c F091 0000 		lds r31,(Timebase)+1
 1315 0660 90E0      		ldi r25,lo8(0)
 1316               	.LVL85:
 1317 0662 29E1      		ldi r18,lo8(25)
 1318 0664 30E0      		ldi r19,hi8(25)
 1319 0666 AC01      		movw r20,r24
 1320 0668 429F      		mul r20,r18
 1321 066a C001      		movw r24,r0
 1322 066c 439F      		mul r20,r19
 1323 066e 900D      		add r25,r0
 1324 0670 529F      		mul r21,r18
 1325 0672 900D      		add r25,r0
 1326 0674 1124      		clr r1
 1327               	.LVL86:
 1328 0676 E80F      		add r30,r24
 1329 0678 F91F      		adc r31,r25
 1330 067a DF01      		movw r26,r30
 1331 067c 5796      		adiw r26,23
 1332 067e 6789      		ldd r22,Z+23
 1333 0680 1196      		adiw r26,1
 1334 0682 7C91      		ld r23,X
 1335 0684 1197      		sbiw r26,1
 1336               	.LM169:
 1337 0686 1296      		adiw r26,2
 1338 0688 8C91      		ld r24,X
 1339 068a 1297      		sbiw r26,2
 1340 068c 1396      		adiw r26,3
 1341 068e 9C91      		ld r25,X
 1342               	.LVL87:
 1343               	/* epilogue start */
 1344 0690 0895      		ret
 1345               	.LFE25:
 1347               	.global	Timebase_UpCounter_SS_Get_EndValueSubSec
 1349               	Timebase_UpCounter_SS_Get_EndValueSubSec:
 1350               	.LFB26:
 1351               	.LM170:
 1352               	.LVL88:
 1353               	/* prologue: function */
 1354               	/* frame size = 0 */
 1355               	.LM171:
 1356 0692 E091 0000 		lds r30,Timebase
 1357 0696 F091 0000 		lds r31,(Timebase)+1
 1358 069a 90E0      		ldi r25,lo8(0)
 1359               	.LVL89:
 1360 069c 29E1      		ldi r18,lo8(25)
 1361 069e 30E0      		ldi r19,hi8(25)
 1362 06a0 AC01      		movw r20,r24
 1363 06a2 429F      		mul r20,r18
 1364 06a4 C001      		movw r24,r0
 1365 06a6 439F      		mul r20,r19
 1366 06a8 900D      		add r25,r0
 1367 06aa 529F      		mul r21,r18
 1368 06ac 900D      		add r25,r0
 1369 06ae 1124      		clr r1
 1370               	.LVL90:
 1371 06b0 E80F      		add r30,r24
 1372 06b2 F91F      		adc r31,r25
 1373 06b4 DF01      		movw r26,r30
 1374 06b6 5B96      		adiw r26,27
 1375 06b8 638D      		ldd r22,Z+27
 1376 06ba 1196      		adiw r26,1
 1377 06bc 7C91      		ld r23,X
 1378 06be 1197      		sbiw r26,1
 1379               	.LM172:
 1380 06c0 1296      		adiw r26,2
 1381 06c2 8C91      		ld r24,X
 1382 06c4 1297      		sbiw r26,2
 1383 06c6 1396      		adiw r26,3
 1384 06c8 9C91      		ld r25,X
 1385               	.LVL91:
 1386               	/* epilogue start */
 1387 06ca 0895      		ret
 1388               	.LFE26:
 1390               	.global	Timebase_UpCounter_SS_Set_EndValueSec
 1392               	Timebase_UpCounter_SS_Set_EndValueSec:
 1393               	.LFB27:
 1394               	.LM173:
 1395               	.LVL92:
 1396               	/* prologue: function */
 1397               	/* frame size = 0 */
 1398               	.LM174:
 1399 06cc E091 0000 		lds r30,Timebase
 1400 06d0 F091 0000 		lds r31,(Timebase)+1
 1401 06d4 90E0      		ldi r25,lo8(0)
 1402               	.LVL93:
 1403 06d6 29E1      		ldi r18,lo8(25)
 1404 06d8 30E0      		ldi r19,hi8(25)
 1405 06da DC01      		movw r26,r24
 1406 06dc A29F      		mul r26,r18
 1407 06de C001      		movw r24,r0
 1408 06e0 A39F      		mul r26,r19
 1409 06e2 900D      		add r25,r0
 1410 06e4 B29F      		mul r27,r18
 1411 06e6 900D      		add r25,r0
 1412 06e8 1124      		clr r1
 1413               	.LVL94:
 1414 06ea E80F      		add r30,r24
 1415 06ec F91F      		adc r31,r25
 1416 06ee 478B      		std Z+23,r20
 1417 06f0 508F      		std Z+24,r21
 1418 06f2 618F      		std Z+25,r22
 1419 06f4 728F      		std Z+26,r23
 1420               	/* epilogue start */
 1421               	.LM175:
 1422 06f6 0895      		ret
 1423               	.LFE27:
 1425               	.global	Timebase_UpCounter_SS_Set_EndValueSubSec
 1427               	Timebase_UpCounter_SS_Set_EndValueSubSec:
 1428               	.LFB28:
 1429               	.LM176:
 1430               	.LVL95:
 1431               	/* prologue: function */
 1432               	/* frame size = 0 */
 1433               	.LM177:
 1434 06f8 E091 0000 		lds r30,Timebase
 1435 06fc F091 0000 		lds r31,(Timebase)+1
 1436 0700 90E0      		ldi r25,lo8(0)
 1437               	.LVL96:
 1438 0702 29E1      		ldi r18,lo8(25)
 1439 0704 30E0      		ldi r19,hi8(25)
 1440 0706 DC01      		movw r26,r24
 1441 0708 A29F      		mul r26,r18
 1442 070a C001      		movw r24,r0
 1443 070c A39F      		mul r26,r19
 1444 070e 900D      		add r25,r0
 1445 0710 B29F      		mul r27,r18
 1446 0712 900D      		add r25,r0
 1447 0714 1124      		clr r1
 1448               	.LVL97:
 1449 0716 E80F      		add r30,r24
 1450 0718 F91F      		adc r31,r25
 1451 071a 438F      		std Z+27,r20
 1452 071c 548F      		std Z+28,r21
 1453 071e 658F      		std Z+29,r22
 1454 0720 768F      		std Z+30,r23
 1455               	/* epilogue start */
 1456               	.LM178:
 1457 0722 0895      		ret
 1458               	.LFE28:
 1460               	.global	Timebase_UpCounter_SS_Get_TargetValue
 1462               	Timebase_UpCounter_SS_Get_TargetValue:
 1463               	.LFB29:
 1464               	.LM179:
 1465               	.LVL98:
 1466               	/* prologue: function */
 1467               	/* frame size = 0 */
 1468               	.LM180:
 1469 0724 E091 0000 		lds r30,Timebase
 1470 0728 F091 0000 		lds r31,(Timebase)+1
 1471 072c 90E0      		ldi r25,lo8(0)
 1472               	.LVL99:
 1473 072e 29E1      		ldi r18,lo8(25)
 1474 0730 30E0      		ldi r19,hi8(25)
 1475 0732 AC01      		movw r20,r24
 1476 0734 429F      		mul r20,r18
 1477 0736 C001      		movw r24,r0
 1478 0738 439F      		mul r20,r19
 1479 073a 900D      		add r25,r0
 1480 073c 529F      		mul r21,r18
 1481 073e 900D      		add r25,r0
 1482 0740 1124      		clr r1
 1483               	.LVL100:
 1484 0742 E80F      		add r30,r24
 1485 0744 F91F      		adc r31,r25
 1486 0746 DF01      		movw r26,r30
 1487 0748 5F96      		adiw r26,31
 1488 074a 678D      		ldd r22,Z+31
 1489 074c 1196      		adiw r26,1
 1490 074e 7C91      		ld r23,X
 1491 0750 1197      		sbiw r26,1
 1492               	.LM181:
 1493 0752 1296      		adiw r26,2
 1494 0754 8C91      		ld r24,X
 1495 0756 1297      		sbiw r26,2
 1496 0758 1396      		adiw r26,3
 1497 075a 9C91      		ld r25,X
 1498               	.LVL101:
 1499               	/* epilogue start */
 1500 075c 0895      		ret
 1501               	.LFE29:
 1503               	.global	Timebase_UpCounter_SS_Set_TargetValue
 1505               	Timebase_UpCounter_SS_Set_TargetValue:
 1506               	.LFB30:
 1507               	.LM182:
 1508               	.LVL102:
 1509               	/* prologue: function */
 1510               	/* frame size = 0 */
 1511               	.LM183:
 1512 075e E091 0000 		lds r30,Timebase
 1513 0762 F091 0000 		lds r31,(Timebase)+1
 1514 0766 90E0      		ldi r25,lo8(0)
 1515               	.LVL103:
 1516 0768 29E1      		ldi r18,lo8(25)
 1517 076a 30E0      		ldi r19,hi8(25)
 1518 076c DC01      		movw r26,r24
 1519 076e A29F      		mul r26,r18
 1520 0770 C001      		movw r24,r0
 1521 0772 A39F      		mul r26,r19
 1522 0774 900D      		add r25,r0
 1523 0776 B29F      		mul r27,r18
 1524 0778 900D      		add r25,r0
 1525 077a 1124      		clr r1
 1526               	.LVL104:
 1527 077c E80F      		add r30,r24
 1528 077e F91F      		adc r31,r25
 1529 0780 478F      		std Z+31,r20
 1530 0782 50A3      		std Z+32,r21
 1531 0784 61A3      		std Z+33,r22
 1532 0786 72A3      		std Z+34,r23
 1533               	/* epilogue start */
 1534               	.LM184:
 1535 0788 0895      		ret
 1536               	.LFE30:
 1538               	.global	Timebase_UpCounter_SS_Get_TemporaryValue
 1540               	Timebase_UpCounter_SS_Get_TemporaryValue:
 1541               	.LFB31:
 1542               	.LM185:
 1543               	.LVL105:
 1544               	/* prologue: function */
 1545               	/* frame size = 0 */
 1546               	.LM186:
 1547 078a E091 0000 		lds r30,Timebase
 1548 078e F091 0000 		lds r31,(Timebase)+1
 1549 0792 90E0      		ldi r25,lo8(0)
 1550               	.LVL106:
 1551 0794 29E1      		ldi r18,lo8(25)
 1552 0796 30E0      		ldi r19,hi8(25)
 1553 0798 AC01      		movw r20,r24
 1554 079a 429F      		mul r20,r18
 1555 079c C001      		movw r24,r0
 1556 079e 439F      		mul r20,r19
 1557 07a0 900D      		add r25,r0
 1558 07a2 529F      		mul r21,r18
 1559 07a4 900D      		add r25,r0
 1560 07a6 1124      		clr r1
 1561               	.LVL107:
 1562 07a8 E80F      		add r30,r24
 1563 07aa F91F      		adc r31,r25
 1564 07ac DF01      		movw r26,r30
 1565 07ae 9396      		adiw r26,35
 1566 07b0 63A1      		ldd r22,Z+35
 1567 07b2 1196      		adiw r26,1
 1568 07b4 7C91      		ld r23,X
 1569 07b6 1197      		sbiw r26,1
 1570               	.LM187:
 1571 07b8 1296      		adiw r26,2
 1572 07ba 8C91      		ld r24,X
 1573 07bc 1297      		sbiw r26,2
 1574 07be 1396      		adiw r26,3
 1575 07c0 9C91      		ld r25,X
 1576               	.LVL108:
 1577               	/* epilogue start */
 1578 07c2 0895      		ret
 1579               	.LFE31:
 1581               	.global	Timebase_UpCounter_SS_Set_TemporaryValue
 1583               	Timebase_UpCounter_SS_Set_TemporaryValue:
 1584               	.LFB32:
 1585               	.LM188:
 1586               	.LVL109:
 1587 07c4 CF93      		push r28
 1588 07c6 DF93      		push r29
 1589               	/* prologue: function */
 1590               	/* frame size = 0 */
 1591               	.LM189:
 1592 07c8 C091 0000 		lds r28,Timebase
 1593 07cc D091 0000 		lds r29,(Timebase)+1
 1594 07d0 90E0      		ldi r25,lo8(0)
 1595               	.LVL110:
 1596 07d2 29E1      		ldi r18,lo8(25)
 1597 07d4 30E0      		ldi r19,hi8(25)
 1598 07d6 FC01      		movw r30,r24
 1599 07d8 E29F      		mul r30,r18
 1600 07da C001      		movw r24,r0
 1601 07dc E39F      		mul r30,r19
 1602 07de 900D      		add r25,r0
 1603 07e0 F29F      		mul r31,r18
 1604 07e2 900D      		add r25,r0
 1605 07e4 1124      		clr r1
 1606               	.LVL111:
 1607 07e6 C80F      		add r28,r24
 1608 07e8 D91F      		adc r29,r25
 1609 07ea CA01      		movw r24,r20
 1610               	.LVL112:
 1611 07ec DB01      		movw r26,r22
 1612 07ee B7FF      		sbrs r27,7
 1613 07f0 00C0      		rjmp .L82
 1614               	.LVL113:
 1615 07f2 80E0      		ldi r24,lo8(0)
 1616 07f4 90E0      		ldi r25,hi8(0)
 1617 07f6 A0E0      		ldi r26,hlo8(0)
 1618 07f8 B0E0      		ldi r27,hhi8(0)
 1619               	.L82:
 1620 07fa 8BA3      		std Y+35,r24
 1621 07fc 9CA3      		std Y+36,r25
 1622 07fe ADA3      		std Y+37,r26
 1623 0800 BEA3      		std Y+38,r27
 1624               	/* epilogue start */
 1625               	.LM190:
 1626 0802 DF91      		pop r29
 1627 0804 CF91      		pop r28
 1628 0806 0895      		ret
 1629               	.LFE32:
 1631               	.global	Timebase_UpCounter_SS_Get_PeriodValue
 1633               	Timebase_UpCounter_SS_Get_PeriodValue:
 1634               	.LFB33:
 1635               	.LM191:
 1636               	.LVL114:
 1637               	/* prologue: function */
 1638               	/* frame size = 0 */
 1639               	.LM192:
 1640 0808 E091 0000 		lds r30,Timebase
 1641 080c F091 0000 		lds r31,(Timebase)+1
 1642 0810 90E0      		ldi r25,lo8(0)
 1643               	.LVL115:
 1644 0812 29E1      		ldi r18,lo8(25)
 1645 0814 30E0      		ldi r19,hi8(25)
 1646 0816 AC01      		movw r20,r24
 1647 0818 429F      		mul r20,r18
 1648 081a C001      		movw r24,r0
 1649 081c 439F      		mul r20,r19
 1650 081e 900D      		add r25,r0
 1651 0820 529F      		mul r21,r18
 1652 0822 900D      		add r25,r0
 1653 0824 1124      		clr r1
 1654               	.LVL116:
 1655 0826 E80F      		add r30,r24
 1656 0828 F91F      		adc r31,r25
 1657 082a DF01      		movw r26,r30
 1658 082c 9B96      		adiw r26,43
 1659 082e 63A5      		ldd r22,Z+43
 1660 0830 1196      		adiw r26,1
 1661 0832 7C91      		ld r23,X
 1662 0834 1197      		sbiw r26,1
 1663               	.LM193:
 1664 0836 1296      		adiw r26,2
 1665 0838 8C91      		ld r24,X
 1666 083a 1297      		sbiw r26,2
 1667 083c 1396      		adiw r26,3
 1668 083e 9C91      		ld r25,X
 1669               	.LVL117:
 1670               	/* epilogue start */
 1671 0840 0895      		ret
 1672               	.LFE33:
 1674               	.global	Timebase_UpCounter_SS_Set_PeriodValue
 1676               	Timebase_UpCounter_SS_Set_PeriodValue:
 1677               	.LFB34:
 1678               	.LM194:
 1679               	.LVL118:
 1680               	/* prologue: function */
 1681               	/* frame size = 0 */
 1682               	.LM195:
 1683 0842 E091 0000 		lds r30,Timebase
 1684 0846 F091 0000 		lds r31,(Timebase)+1
 1685 084a 90E0      		ldi r25,lo8(0)
 1686               	.LVL119:
 1687 084c 29E1      		ldi r18,lo8(25)
 1688 084e 30E0      		ldi r19,hi8(25)
 1689 0850 DC01      		movw r26,r24
 1690 0852 A29F      		mul r26,r18
 1691 0854 C001      		movw r24,r0
 1692 0856 A39F      		mul r26,r19
 1693 0858 900D      		add r25,r0
 1694 085a B29F      		mul r27,r18
 1695 085c 900D      		add r25,r0
 1696 085e 1124      		clr r1
 1697               	.LVL120:
 1698 0860 E80F      		add r30,r24
 1699 0862 F91F      		adc r31,r25
 1700 0864 43A7      		std Z+43,r20
 1701 0866 54A7      		std Z+44,r21
 1702 0868 65A7      		std Z+45,r22
 1703 086a 76A7      		std Z+46,r23
 1704               	/* epilogue start */
 1705               	.LM196:
 1706 086c 0895      		ret
 1707               	.LFE34:
 1709               	.global	Timebase_UpCounter_SS_Get_Period_Flag
 1711               	Timebase_UpCounter_SS_Get_Period_Flag:
 1712               	.LFB35:
 1713               	.LM197:
 1714               	.LVL121:
 1715               	/* prologue: function */
 1716               	/* frame size = 0 */
 1717               	.LM198:
 1718 086e E091 0000 		lds r30,Timebase
 1719 0872 F091 0000 		lds r31,(Timebase)+1
 1720 0876 90E0      		ldi r25,lo8(0)
 1721               	.LVL122:
 1722 0878 29E1      		ldi r18,lo8(25)
 1723 087a 30E0      		ldi r19,hi8(25)
 1724 087c AC01      		movw r20,r24
 1725 087e 429F      		mul r20,r18
 1726 0880 C001      		movw r24,r0
 1727 0882 439F      		mul r20,r19
 1728 0884 900D      		add r25,r0
 1729 0886 529F      		mul r21,r18
 1730 0888 900D      		add r25,r0
 1731 088a 1124      		clr r1
 1732               	.LVL123:
 1733 088c E80F      		add r30,r24
 1734 088e F91F      		adc r31,r25
 1735 0890 8689      		ldd r24,Z+22
 1736               	.LM199:
 1737 0892 8170      		andi r24,lo8(1)
 1738               	/* epilogue start */
 1739 0894 0895      		ret
 1740               	.LFE35:
 1742               	.global	Timebase_UpCounter_SS_Set_Period_Flag
 1744               	Timebase_UpCounter_SS_Set_Period_Flag:
 1745               	.LFB36:
 1746               	.LM200:
 1747               	.LVL124:
 1748               	/* prologue: function */
 1749               	/* frame size = 0 */
 1750               	.LM201:
 1751 0896 E091 0000 		lds r30,Timebase
 1752 089a F091 0000 		lds r31,(Timebase)+1
 1753 089e 90E0      		ldi r25,lo8(0)
 1754               	.LVL125:
 1755 08a0 29E1      		ldi r18,lo8(25)
 1756 08a2 30E0      		ldi r19,hi8(25)
 1757 08a4 AC01      		movw r20,r24
 1758 08a6 429F      		mul r20,r18
 1759 08a8 C001      		movw r24,r0
 1760 08aa 439F      		mul r20,r19
 1761 08ac 900D      		add r25,r0
 1762 08ae 529F      		mul r21,r18
 1763 08b0 900D      		add r25,r0
 1764 08b2 1124      		clr r1
 1765               	.LVL126:
 1766 08b4 E80F      		add r30,r24
 1767 08b6 F91F      		adc r31,r25
 1768 08b8 8689      		ldd r24,Z+22
 1769 08ba 8160      		ori r24,lo8(1)
 1770 08bc 868B      		std Z+22,r24
 1771               	/* epilogue start */
 1772               	.LM202:
 1773 08be 0895      		ret
 1774               	.LFE36:
 1776               	.global	Timebase_UpCounter_SS_Clear_Period_Flag
 1778               	Timebase_UpCounter_SS_Clear_Period_Flag:
 1779               	.LFB37:
 1780               	.LM203:
 1781               	.LVL127:
 1782               	/* prologue: function */
 1783               	/* frame size = 0 */
 1784               	.LM204:
 1785 08c0 E091 0000 		lds r30,Timebase
 1786 08c4 F091 0000 		lds r31,(Timebase)+1
 1787 08c8 90E0      		ldi r25,lo8(0)
 1788               	.LVL128:
 1789 08ca 29E1      		ldi r18,lo8(25)
 1790 08cc 30E0      		ldi r19,hi8(25)
 1791 08ce AC01      		movw r20,r24
 1792 08d0 429F      		mul r20,r18
 1793 08d2 C001      		movw r24,r0
 1794 08d4 439F      		mul r20,r19
 1795 08d6 900D      		add r25,r0
 1796 08d8 529F      		mul r21,r18
 1797 08da 900D      		add r25,r0
 1798 08dc 1124      		clr r1
 1799               	.LVL129:
 1800 08de E80F      		add r30,r24
 1801 08e0 F91F      		adc r31,r25
 1802 08e2 8689      		ldd r24,Z+22
 1803 08e4 8E7F      		andi r24,lo8(-2)
 1804 08e6 868B      		std Z+22,r24
 1805               	/* epilogue start */
 1806               	.LM205:
 1807 08e8 0895      		ret
 1808               	.LFE37:
 1810               	.global	Timebase_UpCounter_SS_Reset
 1812               	Timebase_UpCounter_SS_Reset:
 1813               	.LFB38:
 1814               	.LM206:
 1815               	.LVL130:
 1816               	/* prologue: function */
 1817               	/* frame size = 0 */
 1818               	.LBB620:
 1819               	.LBB621:
 1820               	.LM207:
 1821 08ea E091 0000 		lds r30,Timebase
 1822 08ee F091 0000 		lds r31,(Timebase)+1
 1823 08f2 90E0      		ldi r25,lo8(0)
 1824 08f4 29E1      		ldi r18,lo8(25)
 1825 08f6 30E0      		ldi r19,hi8(25)
 1826 08f8 AC01      		movw r20,r24
 1827               	.LVL131:
 1828 08fa 429F      		mul r20,r18
 1829 08fc C001      		movw r24,r0
 1830 08fe 439F      		mul r20,r19
 1831 0900 900D      		add r25,r0
 1832 0902 529F      		mul r21,r18
 1833 0904 900D      		add r25,r0
 1834 0906 1124      		clr r1
 1835 0908 E80F      		add r30,r24
 1836 090a F91F      		adc r31,r25
 1837 090c 8689      		ldd r24,Z+22
 1838               	.LBE621:
 1839               	.LBE620:
 1840               	.LBB622:
 1841               	.LBB623:
 1842               	.LM208:
 1843 090e 17A2      		std Z+39,__zero_reg__
 1844 0910 10A6      		std Z+40,__zero_reg__
 1845 0912 11A6      		std Z+41,__zero_reg__
 1846 0914 12A6      		std Z+42,__zero_reg__
 1847               	.LBE623:
 1848               	.LBE622:
 1849               	.LBB624:
 1850               	.LBB625:
 1851               	.LM209:
 1852 0916 178A      		std Z+23,__zero_reg__
 1853 0918 108E      		std Z+24,__zero_reg__
 1854 091a 118E      		std Z+25,__zero_reg__
 1855 091c 128E      		std Z+26,__zero_reg__
 1856               	.LBE625:
 1857               	.LBE624:
 1858               	.LBB626:
 1859               	.LBB627:
 1860               	.LM210:
 1861 091e 138E      		std Z+27,__zero_reg__
 1862 0920 148E      		std Z+28,__zero_reg__
 1863 0922 158E      		std Z+29,__zero_reg__
 1864 0924 168E      		std Z+30,__zero_reg__
 1865               	.LBE627:
 1866               	.LBE626:
 1867               	.LBB628:
 1868               	.LBB629:
 1869               	.LM211:
 1870 0926 178E      		std Z+31,__zero_reg__
 1871 0928 10A2      		std Z+32,__zero_reg__
 1872 092a 11A2      		std Z+33,__zero_reg__
 1873 092c 12A2      		std Z+34,__zero_reg__
 1874               	.LBE629:
 1875               	.LBE628:
 1876               	.LBB630:
 1877               	.LBB631:
 1878               	.LM212:
 1879 092e 13A2      		std Z+35,__zero_reg__
 1880 0930 14A2      		std Z+36,__zero_reg__
 1881 0932 15A2      		std Z+37,__zero_reg__
 1882 0934 16A2      		std Z+38,__zero_reg__
 1883               	.LBE631:
 1884               	.LBE630:
 1885               	.LBB632:
 1886               	.LBB633:
 1887               	.LM213:
 1888 0936 13A6      		std Z+43,__zero_reg__
 1889 0938 14A6      		std Z+44,__zero_reg__
 1890 093a 15A6      		std Z+45,__zero_reg__
 1891 093c 16A6      		std Z+46,__zero_reg__
 1892               	.LBE633:
 1893               	.LBE632:
 1894               	.LBB634:
 1895               	.LBB635:
 1896               	.LM214:
 1897 093e 807E      		andi r24,lo8(-32)
 1898 0940 868B      		std Z+22,r24
 1899               	/* epilogue start */
 1900               	.LBE635:
 1901               	.LBE634:
 1902               	.LM215:
 1903 0942 0895      		ret
 1904               	.LFE38:
 1906               	.global	Timebase_UpCounter_SS_Clear_All_Flags
 1908               	Timebase_UpCounter_SS_Clear_All_Flags:
 1909               	.LFB39:
 1910               	.LM216:
 1911               	.LVL132:
 1912               	/* prologue: function */
 1913               	/* frame size = 0 */
 1914               	.LM217:
 1915 0944 0E94 0000 		call Timebase_UpCounter_SS_Reset
 1916               	.LVL133:
 1917               	/* epilogue start */
 1918               	.LM218:
 1919 0948 0895      		ret
 1920               	.LFE39:
 1922               	.global	Timebase_UpCounter_SS_Start
 1924               	Timebase_UpCounter_SS_Start:
 1925               	.LFB40:
 1926               	.LM219:
 1927               	.LVL134:
 1928               	/* prologue: function */
 1929               	/* frame size = 0 */
 1930               	.LBB636:
 1931               	.LBB637:
 1932               	.LM220:
 1933 094a E091 0000 		lds r30,Timebase
 1934 094e F091 0000 		lds r31,(Timebase)+1
 1935 0952 90E0      		ldi r25,lo8(0)
 1936               	.LBE637:
 1937               	.LBE636:
 1938               	.LM221:
 1939 0954 29E1      		ldi r18,lo8(25)
 1940 0956 30E0      		ldi r19,hi8(25)
 1941 0958 AC01      		movw r20,r24
 1942               	.LVL135:
 1943 095a 429F      		mul r20,r18
 1944 095c C001      		movw r24,r0
 1945 095e 439F      		mul r20,r19
 1946 0960 900D      		add r25,r0
 1947 0962 529F      		mul r21,r18
 1948 0964 900D      		add r25,r0
 1949 0966 1124      		clr r1
 1950 0968 E80F      		add r30,r24
 1951 096a F91F      		adc r31,r25
 1952 096c 9689      		ldd r25,Z+22
 1953 096e 892F      		mov r24,r25
 1954 0970 8695      		lsr r24
 1955 0972 8F70      		andi r24,lo8(15)
 1956 0974 8130      		cpi r24,lo8(1)
 1957 0976 01F0      		breq .L100
 1958               	.LBB638:
 1959               	.LBB639:
 1960               	.LM222:
 1961 0978 917E      		andi r25,lo8(-31)
 1962 097a 9260      		ori r25,lo8(2)
 1963 097c 968B      		std Z+22,r25
 1964               	.L100:
 1965 097e 0895      		ret
 1966               	.LBE639:
 1967               	.LBE638:
 1968               	.LFE40:
 1970               	.global	Timebase_UpCounter_SS_Stop
 1972               	Timebase_UpCounter_SS_Stop:
 1973               	.LFB41:
 1974               	.LM223:
 1975               	.LVL136:
 1976               	/* prologue: function */
 1977               	/* frame size = 0 */
 1978               	.LBB640:
 1979               	.LBB641:
 1980               	.LM224:
 1981 0980 E091 0000 		lds r30,Timebase
 1982 0984 F091 0000 		lds r31,(Timebase)+1
 1983 0988 90E0      		ldi r25,lo8(0)
 1984               	.LBE641:
 1985               	.LBE640:
 1986               	.LM225:
 1987 098a 29E1      		ldi r18,lo8(25)
 1988 098c 30E0      		ldi r19,hi8(25)
 1989 098e AC01      		movw r20,r24
 1990               	.LVL137:
 1991 0990 429F      		mul r20,r18
 1992 0992 C001      		movw r24,r0
 1993 0994 439F      		mul r20,r19
 1994 0996 900D      		add r25,r0
 1995 0998 529F      		mul r21,r18
 1996 099a 900D      		add r25,r0
 1997 099c 1124      		clr r1
 1998 099e E80F      		add r30,r24
 1999 09a0 F91F      		adc r31,r25
 2000 09a2 9689      		ldd r25,Z+22
 2001 09a4 892F      		mov r24,r25
 2002 09a6 8695      		lsr r24
 2003 09a8 8F70      		andi r24,lo8(15)
 2004 09aa 8230      		cpi r24,lo8(2)
 2005 09ac 01F0      		breq .L103
 2006               	.LBB642:
 2007               	.LBB643:
 2008               	.LM226:
 2009 09ae 917E      		andi r25,lo8(-31)
 2010 09b0 9460      		ori r25,lo8(4)
 2011 09b2 968B      		std Z+22,r25
 2012               	.L103:
 2013 09b4 0895      		ret
 2014               	.LBE643:
 2015               	.LBE642:
 2016               	.LFE41:
 2018               	.global	Timebase_UpCounter_SS_Set_Securely
 2020               	Timebase_UpCounter_SS_Set_Securely:
 2021               	.LFB42:
 2022               	.LM227:
 2023               	.LVL138:
 2024 09b6 2F92      		push r2
 2025 09b8 3F92      		push r3
 2026 09ba 4F92      		push r4
 2027 09bc 5F92      		push r5
 2028 09be 6F92      		push r6
 2029 09c0 7F92      		push r7
 2030 09c2 8F92      		push r8
 2031 09c4 9F92      		push r9
 2032 09c6 AF92      		push r10
 2033 09c8 BF92      		push r11
 2034 09ca CF92      		push r12
 2035 09cc DF92      		push r13
 2036 09ce EF92      		push r14
 2037 09d0 FF92      		push r15
 2038 09d2 0F93      		push r16
 2039 09d4 1F93      		push r17
 2040 09d6 DF93      		push r29
 2041 09d8 CF93      		push r28
 2042 09da 00D0      		rcall .
 2043 09dc 00D0      		rcall .
 2044 09de CDB7      		in r28,__SP_L__
 2045 09e0 DEB7      		in r29,__SP_H__
 2046               	/* prologue: function */
 2047               	/* frame size = 4 */
 2048 09e2 4A01      		movw r8,r20
 2049 09e4 5B01      		movw r10,r22
 2050               	.LBB644:
 2051               	.LBB645:
 2052               	.LM228:
 2053 09e6 2091 0000 		lds r18,Timebase
 2054 09ea 3091 0000 		lds r19,(Timebase)+1
 2055 09ee 3C83      		std Y+4,r19
 2056 09f0 2B83      		std Y+3,r18
 2057 09f2 A82F      		mov r26,r24
 2058 09f4 B0E0      		ldi r27,lo8(0)
 2059 09f6 BA83      		std Y+2,r27
 2060 09f8 A983      		std Y+1,r26
 2061               	.LBE645:
 2062               	.LBE644:
 2063               	.LM229:
 2064 09fa 89E1      		ldi r24,lo8(25)
 2065 09fc 90E0      		ldi r25,hi8(25)
 2066               	.LVL139:
 2067 09fe A89F      		mul r26,r24
 2068 0a00 F001      		movw r30,r0
 2069 0a02 A99F      		mul r26,r25
 2070 0a04 F00D      		add r31,r0
 2071 0a06 B89F      		mul r27,r24
 2072 0a08 F00D      		add r31,r0
 2073 0a0a 1124      		clr r1
 2074 0a0c E20F      		add r30,r18
 2075 0a0e F31F      		adc r31,r19
 2076 0a10 8689      		ldd r24,Z+22
 2077 0a12 8695      		lsr r24
 2078 0a14 8F70      		andi r24,lo8(15)
 2079 0a16 01F0      		breq .+2
 2080 0a18 00C0      		rjmp .L107
 2081               	.LVL140:
 2082               	.LBB646:
 2083               	.LBB647:
 2084               	.LM230:
 2085 0a1a 17A2      		std Z+39,__zero_reg__
 2086 0a1c 10A6      		std Z+40,__zero_reg__
 2087 0a1e 11A6      		std Z+41,__zero_reg__
 2088 0a20 12A6      		std Z+42,__zero_reg__
 2089               	.LBE647:
 2090               	.LBE646:
 2091               	.LBB648:
 2092               	.LBB649:
 2093               	.LM231:
 2094 0a22 13A2      		std Z+35,__zero_reg__
 2095 0a24 14A2      		std Z+36,__zero_reg__
 2096 0a26 15A2      		std Z+37,__zero_reg__
 2097 0a28 16A2      		std Z+38,__zero_reg__
 2098               	.LBE649:
 2099               	.LBE648:
 2100               	.LBB650:
 2101               	.LBB651:
 2102               	.LM232:
 2103 0a2a 478F      		std Z+31,r20
 2104 0a2c 50A3      		std Z+32,r21
 2105 0a2e 61A3      		std Z+33,r22
 2106 0a30 72A3      		std Z+34,r23
 2107               	.LBE651:
 2108               	.LBE650:
 2109               	.LBB652:
 2110               	.LBB653:
 2111               	.LM233:
 2112 0a32 F901      		movw r30,r18
 2113 0a34 C084      		ldd r12,Z+8
 2114 0a36 D184      		ldd r13,Z+9
 2115               	.LBE653:
 2116               	.LBE652:
 2117               	.LBB654:
 2118               	.LBB655:
 2119               	.LM234:
 2120 0a38 2284      		ldd r2,Z+10
 2121 0a3a 3384      		ldd r3,Z+11
 2122 0a3c 4484      		ldd r4,Z+12
 2123 0a3e 5584      		ldd r5,Z+13
 2124               	.LVL141:
 2125               	.LBE655:
 2126               	.LBE654:
 2127               	.LM235:
 2128 0a40 2181      		ldd r18,Z+1
 2129 0a42 3281      		ldd r19,Z+2
 2130 0a44 40E0      		ldi r20,lo8(0)
 2131 0a46 50E0      		ldi r21,hi8(0)
 2132 0a48 C501      		movw r24,r10
 2133 0a4a B401      		movw r22,r8
 2134 0a4c 0E94 0000 		call __divmodsi4
 2135 0a50 7B01      		movw r14,r22
 2136 0a52 8C01      		movw r16,r24
 2137               	.LM236:
 2138 0a54 AB81      		ldd r26,Y+3
 2139 0a56 BC81      		ldd r27,Y+4
 2140 0a58 1196      		adiw r26,1
 2141 0a5a 2D91      		ld r18,X+
 2142 0a5c 3C91      		ld r19,X
 2143 0a5e 1297      		sbiw r26,1+1
 2144 0a60 40E0      		ldi r20,lo8(0)
 2145 0a62 50E0      		ldi r21,hi8(0)
 2146 0a64 C501      		movw r24,r10
 2147 0a66 B401      		movw r22,r8
 2148 0a68 0E94 0000 		call __divmodsi4
 2149 0a6c C901      		movw r24,r18
 2150 0a6e DA01      		movw r26,r20
 2151 0a70 3C01      		movw r6,r24
 2152 0a72 4D01      		movw r8,r26
 2153               	.LVL142:
 2154               	.LM237:
 2155 0a74 5601      		movw r10,r12
 2156               	.LVL143:
 2157 0a76 CC24      		clr r12
 2158 0a78 DD24      		clr r13
 2159               	.LVL144:
 2160 0a7a AE0C      		add r10,r14
 2161 0a7c BF1C      		adc r11,r15
 2162 0a7e C01E      		adc r12,r16
 2163 0a80 D11E      		adc r13,r17
 2164               	.LVL145:
 2165               	.LM238:
 2166 0a82 EB81      		ldd r30,Y+3
 2167 0a84 FC81      		ldd r31,Y+4
 2168 0a86 8181      		ldd r24,Z+1
 2169 0a88 9281      		ldd r25,Z+2
 2170               	.LVL146:
 2171 0a8a A0E0      		ldi r26,lo8(0)
 2172 0a8c B0E0      		ldi r27,hi8(0)
 2173 0a8e A816      		cp r10,r24
 2174 0a90 B906      		cpc r11,r25
 2175 0a92 CA06      		cpc r12,r26
 2176 0a94 DB06      		cpc r13,r27
 2177 0a96 04F0      		brlt .L106
 2178               	.LM239:
 2179 0a98 0894      		sec
 2180 0a9a 611C      		adc r6,__zero_reg__
 2181 0a9c 711C      		adc r7,__zero_reg__
 2182 0a9e 811C      		adc r8,__zero_reg__
 2183 0aa0 911C      		adc r9,__zero_reg__
 2184               	.LM240:
 2185 0aa2 2181      		ldd r18,Z+1
 2186 0aa4 3281      		ldd r19,Z+2
 2187 0aa6 40E0      		ldi r20,lo8(0)
 2188 0aa8 50E0      		ldi r21,hi8(0)
 2189 0aaa C601      		movw r24,r12
 2190 0aac B501      		movw r22,r10
 2191 0aae 0E94 0000 		call __divmodsi4
 2192 0ab2 AC01      		movw r20,r24
 2193 0ab4 CB01      		movw r24,r22
 2194 0ab6 DA01      		movw r26,r20
 2195 0ab8 5C01      		movw r10,r24
 2196 0aba 6D01      		movw r12,r26
 2197               	.L106:
 2198               	.LBB656:
 2199               	.LBB657:
 2200               	.LM241:
 2201 0abc 89E1      		ldi r24,lo8(25)
 2202 0abe 90E0      		ldi r25,hi8(25)
 2203 0ac0 2981      		ldd r18,Y+1
 2204 0ac2 3A81      		ldd r19,Y+2
 2205 0ac4 289F      		mul r18,r24
 2206 0ac6 F001      		movw r30,r0
 2207 0ac8 299F      		mul r18,r25
 2208 0aca F00D      		add r31,r0
 2209 0acc 389F      		mul r19,r24
 2210 0ace F00D      		add r31,r0
 2211 0ad0 1124      		clr r1
 2212 0ad2 8B81      		ldd r24,Y+3
 2213 0ad4 9C81      		ldd r25,Y+4
 2214 0ad6 E80F      		add r30,r24
 2215 0ad8 F91F      		adc r31,r25
 2216 0ada 260C      		add r2,r6
 2217 0adc 371C      		adc r3,r7
 2218 0ade 481C      		adc r4,r8
 2219 0ae0 591C      		adc r5,r9
 2220 0ae2 278A      		std Z+23,r2
 2221 0ae4 308E      		std Z+24,r3
 2222 0ae6 418E      		std Z+25,r4
 2223 0ae8 528E      		std Z+26,r5
 2224               	.LBE657:
 2225               	.LBE656:
 2226               	.LBB658:
 2227               	.LBB659:
 2228               	.LM242:
 2229 0aea A38E      		std Z+27,r10
 2230 0aec B48E      		std Z+28,r11
 2231 0aee C58E      		std Z+29,r12
 2232 0af0 D68E      		std Z+30,r13
 2233               	.LBE659:
 2234               	.LBE658:
 2235               	.LBB660:
 2236               	.LBB661:
 2237               	.LM243:
 2238 0af2 9689      		ldd r25,Z+22
 2239 0af4 892F      		mov r24,r25
 2240 0af6 8695      		lsr r24
 2241 0af8 8F70      		andi r24,lo8(15)
 2242 0afa 8130      		cpi r24,lo8(1)
 2243 0afc 01F0      		breq .L107
 2244               	.LBB662:
 2245               	.LBB663:
 2246               	.LM244:
 2247 0afe 917E      		andi r25,lo8(-31)
 2248 0b00 9260      		ori r25,lo8(2)
 2249 0b02 968B      		std Z+22,r25
 2250               	.LVL147:
 2251               	.L107:
 2252               	/* epilogue start */
 2253               	.LBE663:
 2254               	.LBE662:
 2255               	.LBE661:
 2256               	.LBE660:
 2257               	.LM245:
 2258 0b04 0F90      		pop __tmp_reg__
 2259 0b06 0F90      		pop __tmp_reg__
 2260 0b08 0F90      		pop __tmp_reg__
 2261 0b0a 0F90      		pop __tmp_reg__
 2262 0b0c CF91      		pop r28
 2263 0b0e DF91      		pop r29
 2264 0b10 1F91      		pop r17
 2265 0b12 0F91      		pop r16
 2266 0b14 FF90      		pop r15
 2267 0b16 EF90      		pop r14
 2268 0b18 DF90      		pop r13
 2269 0b1a CF90      		pop r12
 2270               	.LVL148:
 2271 0b1c BF90      		pop r11
 2272 0b1e AF90      		pop r10
 2273               	.LVL149:
 2274 0b20 9F90      		pop r9
 2275 0b22 8F90      		pop r8
 2276               	.LVL150:
 2277 0b24 7F90      		pop r7
 2278 0b26 6F90      		pop r6
 2279               	.LVL151:
 2280 0b28 5F90      		pop r5
 2281 0b2a 4F90      		pop r4
 2282 0b2c 3F90      		pop r3
 2283 0b2e 2F90      		pop r2
 2284               	.LVL152:
 2285 0b30 0895      		ret
 2286               	.LFE42:
 2288               	.global	Timebase_UpCounter_SS_Set_Forcefully
 2290               	Timebase_UpCounter_SS_Set_Forcefully:
 2291               	.LFB43:
 2292               	.LM246:
 2293               	.LVL153:
 2294 0b32 DF92      		push r13
 2295 0b34 EF92      		push r14
 2296 0b36 FF92      		push r15
 2297 0b38 0F93      		push r16
 2298 0b3a 1F93      		push r17
 2299               	/* prologue: function */
 2300               	/* frame size = 0 */
 2301 0b3c D82E      		mov r13,r24
 2302 0b3e 7A01      		movw r14,r20
 2303 0b40 8B01      		movw r16,r22
 2304               	.LM247:
 2305 0b42 0E94 0000 		call Timebase_UpCounter_SS_Reset
 2306               	.LVL154:
 2307               	.LM248:
 2308 0b46 8D2D      		mov r24,r13
 2309 0b48 B801      		movw r22,r16
 2310 0b4a A701      		movw r20,r14
 2311 0b4c 0E94 0000 		call Timebase_UpCounter_SS_Set_Securely
 2312               	/* epilogue start */
 2313               	.LM249:
 2314 0b50 1F91      		pop r17
 2315 0b52 0F91      		pop r16
 2316 0b54 FF90      		pop r15
 2317 0b56 EF90      		pop r14
 2318               	.LVL155:
 2319 0b58 DF90      		pop r13
 2320               	.LVL156:
 2321 0b5a 0895      		ret
 2322               	.LFE43:
 2324               	.global	Timebase_UpCounter_SS_Update
 2326               	Timebase_UpCounter_SS_Update:
 2327               	.LFB44:
 2328               	.LM250:
 2329               	.LVL157:
 2330 0b5c 2F92      		push r2
 2331 0b5e 3F92      		push r3
 2332 0b60 4F92      		push r4
 2333 0b62 5F92      		push r5
 2334 0b64 6F92      		push r6
 2335 0b66 7F92      		push r7
 2336 0b68 8F92      		push r8
 2337 0b6a 9F92      		push r9
 2338 0b6c AF92      		push r10
 2339 0b6e BF92      		push r11
 2340 0b70 CF92      		push r12
 2341 0b72 DF92      		push r13
 2342 0b74 EF92      		push r14
 2343 0b76 FF92      		push r15
 2344 0b78 0F93      		push r16
 2345 0b7a 1F93      		push r17
 2346 0b7c DF93      		push r29
 2347 0b7e CF93      		push r28
 2348 0b80 00D0      		rcall .
 2349 0b82 00D0      		rcall .
 2350 0b84 00D0      		rcall .
 2351 0b86 CDB7      		in r28,__SP_L__
 2352 0b88 DEB7      		in r29,__SP_H__
 2353               	/* prologue: function */
 2354               	/* frame size = 6 */
 2355               	.LBB664:
 2356               	.LBB665:
 2357               	.LM251:
 2358 0b8a 2090 0000 		lds r2,Timebase
 2359 0b8e 3090 0000 		lds r3,(Timebase)+1
 2360 0b92 282F      		mov r18,r24
 2361 0b94 30E0      		ldi r19,lo8(0)
 2362 0b96 3E83      		std Y+6,r19
 2363 0b98 2D83      		std Y+5,r18
 2364 0b9a 89E1      		ldi r24,lo8(25)
 2365 0b9c 90E0      		ldi r25,hi8(25)
 2366               	.LVL158:
 2367 0b9e 289F      		mul r18,r24
 2368 0ba0 5001      		movw r10,r0
 2369 0ba2 299F      		mul r18,r25
 2370 0ba4 B00C      		add r11,r0
 2371 0ba6 389F      		mul r19,r24
 2372 0ba8 B00C      		add r11,r0
 2373 0baa 1124      		clr r1
 2374 0bac A20C      		add r10,r2
 2375 0bae B31C      		adc r11,r3
 2376 0bb0 D501      		movw r26,r10
 2377 0bb2 5696      		adiw r26,22
 2378 0bb4 8C91      		ld r24,X
 2379 0bb6 8695      		lsr r24
 2380 0bb8 8F70      		andi r24,lo8(15)
 2381               	.LBE665:
 2382               	.LBE664:
 2383               	.LM252:
 2384 0bba 8130      		cpi r24,lo8(1)
 2385 0bbc 01F0      		breq .+2
 2386 0bbe 00C0      		rjmp .L111
 2387               	.LBB666:
 2388               	.LBB667:
 2389               	.LM253:
 2390 0bc0 F101      		movw r30,r2
 2391 0bc2 8285      		ldd r24,Z+10
 2392 0bc4 9385      		ldd r25,Z+11
 2393 0bc6 A485      		ldd r26,Z+12
 2394 0bc8 B585      		ldd r27,Z+13
 2395               	.LVL159:
 2396               	.LBE667:
 2397               	.LBE666:
 2398               	.LBB668:
 2399               	.LBB669:
 2400               	.LM254:
 2401 0bca E084      		ldd r14,Z+8
 2402 0bcc F184      		ldd r15,Z+9
 2403               	.LBE669:
 2404               	.LBE668:
 2405               	.LM255:
 2406 0bce 00E0      		ldi r16,lo8(0)
 2407 0bd0 10E0      		ldi r17,hi8(0)
 2408               	.LVL160:
 2409               	.LM256:
 2410 0bd2 F501      		movw r30,r10
 2411 0bd4 2789      		ldd r18,Z+23
 2412 0bd6 308D      		ldd r19,Z+24
 2413 0bd8 418D      		ldd r20,Z+25
 2414 0bda 528D      		ldd r21,Z+26
 2415 0bdc 281B      		sub r18,r24
 2416 0bde 390B      		sbc r19,r25
 2417 0be0 4A0B      		sbc r20,r26
 2418 0be2 5B0B      		sbc r21,r27
 2419               	.LM257:
 2420 0be4 D101      		movw r26,r2
 2421 0be6 1196      		adiw r26,1
 2422 0be8 6D91      		ld r22,X+
 2423 0bea 7C91      		ld r23,X
 2424 0bec 1297      		sbiw r26,1+1
 2425               	.LM258:
 2426 0bee 80E0      		ldi r24,lo8(0)
 2427 0bf0 90E0      		ldi r25,hi8(0)
 2428               	.LVL161:
 2429 0bf2 0E94 0000 		call __mulsi3
 2430 0bf6 9B01      		movw r18,r22
 2431 0bf8 AC01      		movw r20,r24
 2432               	.LVL162:
 2433 0bfa 2E19      		sub r18,r14
 2434 0bfc 3F09      		sbc r19,r15
 2435 0bfe 400B      		sbc r20,r16
 2436 0c00 510B      		sbc r21,r17
 2437               	.LM259:
 2438 0c02 F501      		movw r30,r10
 2439 0c04 838D      		ldd r24,Z+27
 2440 0c06 948D      		ldd r25,Z+28
 2441 0c08 A58D      		ldd r26,Z+29
 2442 0c0a B68D      		ldd r27,Z+30
 2443 0c0c 280F      		add r18,r24
 2444 0c0e 391F      		adc r19,r25
 2445 0c10 4A1F      		adc r20,r26
 2446 0c12 5B1F      		adc r21,r27
 2447 0c14 57FF      		sbrs r21,7
 2448 0c16 00C0      		rjmp .L112
 2449 0c18 20E0      		ldi r18,lo8(0)
 2450 0c1a 30E0      		ldi r19,hi8(0)
 2451 0c1c 40E0      		ldi r20,hlo8(0)
 2452 0c1e 50E0      		ldi r21,hhi8(0)
 2453               	.L112:
 2454               	.LBB670:
 2455               	.LBB671:
 2456               	.LM260:
 2457 0c20 89E1      		ldi r24,lo8(25)
 2458 0c22 90E0      		ldi r25,hi8(25)
 2459 0c24 6D81      		ldd r22,Y+5
 2460 0c26 7E81      		ldd r23,Y+6
 2461 0c28 689F      		mul r22,r24
 2462 0c2a F001      		movw r30,r0
 2463 0c2c 699F      		mul r22,r25
 2464 0c2e F00D      		add r31,r0
 2465 0c30 789F      		mul r23,r24
 2466 0c32 F00D      		add r31,r0
 2467 0c34 1124      		clr r1
 2468 0c36 E20D      		add r30,r2
 2469 0c38 F31D      		adc r31,r3
 2470 0c3a 23A3      		std Z+35,r18
 2471 0c3c 34A3      		std Z+36,r19
 2472 0c3e 45A3      		std Z+37,r20
 2473 0c40 56A3      		std Z+38,r21
 2474               	.LBE671:
 2475               	.LBE670:
 2476               	.LM261:
 2477 0c42 878D      		ldd r24,Z+31
 2478 0c44 90A1      		ldd r25,Z+32
 2479 0c46 A1A1      		ldd r26,Z+33
 2480 0c48 B2A1      		ldd r27,Z+34
 2481               	.LVL163:
 2482               	.LBB672:
 2483               	.LBB673:
 2484               	.LM262:
 2485 0c4a 821B      		sub r24,r18
 2486 0c4c 930B      		sbc r25,r19
 2487 0c4e A40B      		sbc r26,r20
 2488 0c50 B50B      		sbc r27,r21
 2489 0c52 B7FF      		sbrs r27,7
 2490 0c54 00C0      		rjmp .L113
 2491 0c56 80E0      		ldi r24,lo8(0)
 2492 0c58 90E0      		ldi r25,hi8(0)
 2493 0c5a A0E0      		ldi r26,hlo8(0)
 2494 0c5c B0E0      		ldi r27,hhi8(0)
 2495               	.L113:
 2496 0c5e 87A3      		std Z+39,r24
 2497 0c60 90A7      		std Z+40,r25
 2498 0c62 A1A7      		std Z+41,r26
 2499 0c64 B2A7      		std Z+42,r27
 2500               	.LBE673:
 2501               	.LBE672:
 2502               	.LM263:
 2503 0c66 89E1      		ldi r24,lo8(25)
 2504 0c68 90E0      		ldi r25,hi8(25)
 2505               	.LVL164:
 2506 0c6a AD81      		ldd r26,Y+5
 2507 0c6c BE81      		ldd r27,Y+6
 2508 0c6e A89F      		mul r26,r24
 2509 0c70 B001      		movw r22,r0
 2510 0c72 A99F      		mul r26,r25
 2511 0c74 700D      		add r23,r0
 2512 0c76 B89F      		mul r27,r24
 2513 0c78 700D      		add r23,r0
 2514 0c7a 1124      		clr r1
 2515 0c7c 620D      		add r22,r2
 2516 0c7e 731D      		adc r23,r3
 2517 0c80 FB01      		movw r30,r22
 2518 0c82 83A1      		ldd r24,Z+35
 2519 0c84 94A1      		ldd r25,Z+36
 2520 0c86 A5A1      		ldd r26,Z+37
 2521 0c88 B6A1      		ldd r27,Z+38
 2522 0c8a 1816      		cp __zero_reg__,r24
 2523 0c8c 1906      		cpc __zero_reg__,r25
 2524 0c8e 1A06      		cpc __zero_reg__,r26
 2525 0c90 1B06      		cpc __zero_reg__,r27
 2526 0c92 04F4      		brge .+2
 2527 0c94 00C0      		rjmp .L118
 2528               	.LBB674:
 2529               	.LBB675:
 2530               	.LM264:
 2531 0c96 DB01      		movw r26,r22
 2532 0c98 5796      		adiw r26,23
 2533 0c9a 1D92      		st X+,__zero_reg__
 2534 0c9c 1D92      		st X+,__zero_reg__
 2535 0c9e 1D92      		st X+,__zero_reg__
 2536 0ca0 1C92      		st X,__zero_reg__
 2537 0ca2 5A97      		sbiw r26,23+3
 2538               	.LBE675:
 2539               	.LBE674:
 2540               	.LBB676:
 2541               	.LBB677:
 2542               	.LM265:
 2543 0ca4 138E      		std Z+27,__zero_reg__
 2544 0ca6 148E      		std Z+28,__zero_reg__
 2545 0ca8 158E      		std Z+29,__zero_reg__
 2546 0caa 168E      		std Z+30,__zero_reg__
 2547               	.LBE677:
 2548               	.LBE676:
 2549               	.LBB678:
 2550               	.LBB679:
 2551               	.LM266:
 2552 0cac 9396      		adiw r26,35
 2553 0cae 1D92      		st X+,__zero_reg__
 2554 0cb0 1D92      		st X+,__zero_reg__
 2555 0cb2 1D92      		st X+,__zero_reg__
 2556 0cb4 1C92      		st X,__zero_reg__
 2557 0cb6 9697      		sbiw r26,35+3
 2558               	.LBE679:
 2559               	.LBE678:
 2560               	.LBB680:
 2561               	.LBB681:
 2562               	.LM267:
 2563 0cb8 7F96      		adiw r30,31
 2564               	.LBE681:
 2565               	.LBE680:
 2566               	.LBB682:
 2567               	.LBB683:
 2568               	.LM268:
 2569 0cba 5F96      		adiw r26,31
 2570 0cbc 2C91      		ld r18,X
 2571               	.LVL165:
 2572 0cbe 3181      		ldd r19,Z+1
 2573               	.LVL166:
 2574 0cc0 4281      		ldd r20,Z+2
 2575               	.LVL167:
 2576 0cc2 5381      		ldd r21,Z+3
 2577               	.LVL168:
 2578 0cc4 C901      		movw r24,r18
 2579               	.LVL169:
 2580 0cc6 DA01      		movw r26,r20
 2581               	.LVL170:
 2582 0cc8 B7FF      		sbrs r27,7
 2583 0cca 00C0      		rjmp .L115
 2584               	.LVL171:
 2585 0ccc 80E0      		ldi r24,lo8(0)
 2586 0cce 90E0      		ldi r25,hi8(0)
 2587 0cd0 A0E0      		ldi r26,hlo8(0)
 2588 0cd2 B0E0      		ldi r27,hhi8(0)
 2589               	.L115:
 2590 0cd4 FB01      		movw r30,r22
 2591 0cd6 87A3      		std Z+39,r24
 2592 0cd8 90A7      		std Z+40,r25
 2593 0cda A1A7      		std Z+41,r26
 2594 0cdc B2A7      		std Z+42,r27
 2595               	.LBE683:
 2596               	.LBE682:
 2597               	.LBB684:
 2598               	.LBB685:
 2599               	.LM269:
 2600 0cde 89E1      		ldi r24,lo8(25)
 2601 0ce0 90E0      		ldi r25,hi8(25)
 2602               	.LVL172:
 2603 0ce2 2D81      		ldd r18,Y+5
 2604 0ce4 3E81      		ldd r19,Y+6
 2605 0ce6 289F      		mul r18,r24
 2606 0ce8 F001      		movw r30,r0
 2607 0cea 299F      		mul r18,r25
 2608 0cec F00D      		add r31,r0
 2609 0cee 389F      		mul r19,r24
 2610 0cf0 F00D      		add r31,r0
 2611 0cf2 1124      		clr r1
 2612 0cf4 E20D      		add r30,r2
 2613 0cf6 F31D      		adc r31,r3
 2614 0cf8 8689      		ldd r24,Z+22
 2615 0cfa 817E      		andi r24,lo8(-31)
 2616 0cfc 8860      		ori r24,lo8(8)
 2617 0cfe 868B      		std Z+22,r24
 2618 0d00 00C0      		rjmp .L118
 2619               	.LVL173:
 2620               	.L111:
 2621               	.LBE685:
 2622               	.LBE684:
 2623               	.LM270:
 2624 0d02 8230      		cpi r24,lo8(2)
 2625 0d04 01F0      		breq .+2
 2626 0d06 00C0      		rjmp .L118
 2627               	.LBB686:
 2628               	.LBB687:
 2629               	.LM271:
 2630 0d08 D101      		movw r26,r2
 2631 0d0a 1A96      		adiw r26,10
 2632 0d0c 6D91      		ld r22,X+
 2633 0d0e 7D91      		ld r23,X+
 2634 0d10 8D91      		ld r24,X+
 2635 0d12 9C91      		ld r25,X
 2636 0d14 1D97      		sbiw r26,10+3
 2637 0d16 6983      		std Y+1,r22
 2638 0d18 7A83      		std Y+2,r23
 2639 0d1a 8B83      		std Y+3,r24
 2640 0d1c 9C83      		std Y+4,r25
 2641               	.LVL174:
 2642               	.LBE687:
 2643               	.LBE686:
 2644               	.LBB688:
 2645               	.LBB689:
 2646               	.LM272:
 2647 0d1e 1896      		adiw r26,8
 2648 0d20 8D90      		ld r8,X+
 2649 0d22 9C90      		ld r9,X
 2650 0d24 1997      		sbiw r26,8+1
 2651               	.LBE689:
 2652               	.LBE688:
 2653               	.LBB690:
 2654               	.LBB691:
 2655               	.LM273:
 2656 0d26 F501      		movw r30,r10
 2657 0d28 A3A0      		ldd r10,Z+35
 2658 0d2a B4A0      		ldd r11,Z+36
 2659 0d2c C5A0      		ldd r12,Z+37
 2660 0d2e D6A0      		ldd r13,Z+38
 2661               	.LVL175:
 2662               	.LBE691:
 2663               	.LBE690:
 2664               	.LM274:
 2665 0d30 1196      		adiw r26,1
 2666 0d32 2D91      		ld r18,X+
 2667 0d34 3C91      		ld r19,X
 2668 0d36 1297      		sbiw r26,1+1
 2669 0d38 40E0      		ldi r20,lo8(0)
 2670 0d3a 50E0      		ldi r21,hi8(0)
 2671 0d3c C601      		movw r24,r12
 2672 0d3e B501      		movw r22,r10
 2673 0d40 0E94 0000 		call __divmodsi4
 2674 0d44 7B01      		movw r14,r22
 2675 0d46 8C01      		movw r16,r24
 2676               	.LM275:
 2677 0d48 D101      		movw r26,r2
 2678 0d4a 1196      		adiw r26,1
 2679 0d4c 2D91      		ld r18,X+
 2680 0d4e 3C91      		ld r19,X
 2681 0d50 1297      		sbiw r26,1+1
 2682 0d52 40E0      		ldi r20,lo8(0)
 2683 0d54 50E0      		ldi r21,hi8(0)
 2684 0d56 C601      		movw r24,r12
 2685 0d58 B501      		movw r22,r10
 2686 0d5a 0E94 0000 		call __divmodsi4
 2687 0d5e C901      		movw r24,r18
 2688 0d60 DA01      		movw r26,r20
 2689 0d62 2C01      		movw r4,r24
 2690 0d64 3D01      		movw r6,r26
 2691               	.LVL176:
 2692               	.LM276:
 2693 0d66 AA24      		clr r10
 2694 0d68 BB24      		clr r11
 2695               	.LVL177:
 2696 0d6a 8E0C      		add r8,r14
 2697 0d6c 9F1C      		adc r9,r15
 2698 0d6e A01E      		adc r10,r16
 2699 0d70 B11E      		adc r11,r17
 2700               	.LVL178:
 2701               	.LM277:
 2702 0d72 F101      		movw r30,r2
 2703 0d74 8181      		ldd r24,Z+1
 2704 0d76 9281      		ldd r25,Z+2
 2705               	.LVL179:
 2706 0d78 A0E0      		ldi r26,lo8(0)
 2707 0d7a B0E0      		ldi r27,hi8(0)
 2708 0d7c 8816      		cp r8,r24
 2709 0d7e 9906      		cpc r9,r25
 2710 0d80 AA06      		cpc r10,r26
 2711 0d82 BB06      		cpc r11,r27
 2712 0d84 04F0      		brlt .L116
 2713               	.LM278:
 2714 0d86 0894      		sec
 2715 0d88 411C      		adc r4,__zero_reg__
 2716 0d8a 511C      		adc r5,__zero_reg__
 2717 0d8c 611C      		adc r6,__zero_reg__
 2718 0d8e 711C      		adc r7,__zero_reg__
 2719               	.LM279:
 2720 0d90 2181      		ldd r18,Z+1
 2721 0d92 3281      		ldd r19,Z+2
 2722 0d94 40E0      		ldi r20,lo8(0)
 2723 0d96 50E0      		ldi r21,hi8(0)
 2724 0d98 C501      		movw r24,r10
 2725 0d9a B401      		movw r22,r8
 2726 0d9c 0E94 0000 		call __divmodsi4
 2727 0da0 AC01      		movw r20,r24
 2728 0da2 CB01      		movw r24,r22
 2729 0da4 DA01      		movw r26,r20
 2730 0da6 4C01      		movw r8,r24
 2731 0da8 5D01      		movw r10,r26
 2732               	.L116:
 2733               	.LBB692:
 2734               	.LBB693:
 2735               	.LM280:
 2736 0daa 89E1      		ldi r24,lo8(25)
 2737 0dac 90E0      		ldi r25,hi8(25)
 2738 0dae 2D81      		ldd r18,Y+5
 2739 0db0 3E81      		ldd r19,Y+6
 2740 0db2 289F      		mul r18,r24
 2741 0db4 B001      		movw r22,r0
 2742 0db6 299F      		mul r18,r25
 2743 0db8 700D      		add r23,r0
 2744 0dba 389F      		mul r19,r24
 2745 0dbc 700D      		add r23,r0
 2746 0dbe 1124      		clr r1
 2747 0dc0 620D      		add r22,r2
 2748 0dc2 731D      		adc r23,r3
 2749 0dc4 8981      		ldd r24,Y+1
 2750 0dc6 9A81      		ldd r25,Y+2
 2751 0dc8 AB81      		ldd r26,Y+3
 2752 0dca BC81      		ldd r27,Y+4
 2753 0dcc 840D      		add r24,r4
 2754 0dce 951D      		adc r25,r5
 2755 0dd0 A61D      		adc r26,r6
 2756 0dd2 B71D      		adc r27,r7
 2757 0dd4 FB01      		movw r30,r22
 2758 0dd6 878B      		std Z+23,r24
 2759 0dd8 908F      		std Z+24,r25
 2760 0dda A18F      		std Z+25,r26
 2761 0ddc B28F      		std Z+26,r27
 2762               	.LBE693:
 2763               	.LBE692:
 2764               	.LBB694:
 2765               	.LBB695:
 2766               	.LM281:
 2767 0dde DB01      		movw r26,r22
 2768 0de0 5B96      		adiw r26,27
 2769 0de2 8D92      		st X+,r8
 2770 0de4 9D92      		st X+,r9
 2771 0de6 AD92      		st X+,r10
 2772 0de8 BC92      		st X,r11
 2773 0dea 5E97      		sbiw r26,27+3
 2774               	.LBE695:
 2775               	.LBE694:
 2776               	.LM282:
 2777 0dec 5F96      		adiw r26,31
 2778 0dee 2D91      		ld r18,X+
 2779 0df0 3D91      		ld r19,X+
 2780 0df2 4D91      		ld r20,X+
 2781 0df4 5C91      		ld r21,X
 2782 0df6 9297      		sbiw r26,31+3
 2783               	.LVL180:
 2784 0df8 9396      		adiw r26,35
 2785 0dfa 8D91      		ld r24,X+
 2786 0dfc 9D91      		ld r25,X+
 2787 0dfe 0D90      		ld __tmp_reg__,X+
 2788 0e00 BC91      		ld r27,X
 2789 0e02 A02D      		mov r26,__tmp_reg__
 2790               	.LBB696:
 2791               	.LBB697:
 2792               	.LM283:
 2793 0e04 281B      		sub r18,r24
 2794 0e06 390B      		sbc r19,r25
 2795 0e08 4A0B      		sbc r20,r26
 2796 0e0a 5B0B      		sbc r21,r27
 2797 0e0c 57FF      		sbrs r21,7
 2798 0e0e 00C0      		rjmp .L117
 2799 0e10 20E0      		ldi r18,lo8(0)
 2800 0e12 30E0      		ldi r19,hi8(0)
 2801 0e14 40E0      		ldi r20,hlo8(0)
 2802 0e16 50E0      		ldi r21,hhi8(0)
 2803               	.L117:
 2804 0e18 FB01      		movw r30,r22
 2805 0e1a 27A3      		std Z+39,r18
 2806 0e1c 30A7      		std Z+40,r19
 2807 0e1e 41A7      		std Z+41,r20
 2808 0e20 52A7      		std Z+42,r21
 2809               	.LVL181:
 2810               	.L118:
 2811               	/* epilogue start */
 2812               	.LBE697:
 2813               	.LBE696:
 2814               	.LM284:
 2815 0e22 2696      		adiw r28,6
 2816 0e24 0FB6      		in __tmp_reg__,__SREG__
 2817 0e26 F894      		cli
 2818 0e28 DEBF      		out __SP_H__,r29
 2819 0e2a 0FBE      		out __SREG__,__tmp_reg__
 2820 0e2c CDBF      		out __SP_L__,r28
 2821 0e2e CF91      		pop r28
 2822 0e30 DF91      		pop r29
 2823 0e32 1F91      		pop r17
 2824 0e34 0F91      		pop r16
 2825               	.LVL182:
 2826 0e36 FF90      		pop r15
 2827 0e38 EF90      		pop r14
 2828 0e3a DF90      		pop r13
 2829 0e3c CF90      		pop r12
 2830 0e3e BF90      		pop r11
 2831 0e40 AF90      		pop r10
 2832               	.LVL183:
 2833 0e42 9F90      		pop r9
 2834 0e44 8F90      		pop r8
 2835               	.LVL184:
 2836 0e46 7F90      		pop r7
 2837 0e48 6F90      		pop r6
 2838 0e4a 5F90      		pop r5
 2839 0e4c 4F90      		pop r4
 2840               	.LVL185:
 2841 0e4e 3F90      		pop r3
 2842 0e50 2F90      		pop r2
 2843 0e52 0895      		ret
 2844               	.LFE44:
 2846               	.global	Timebase_UpCounter_SS_Expired
 2848               	Timebase_UpCounter_SS_Expired:
 2849               	.LFB45:
 2850               	.LM285:
 2851               	.LVL186:
 2852               	/* prologue: function */
 2853               	/* frame size = 0 */
 2854               	.LM286:
 2855 0e54 40E0      		ldi r20,lo8(0)
 2856 0e56 E091 0000 		lds r30,Timebase
 2857 0e5a F091 0000 		lds r31,(Timebase)+1
 2858 0e5e 90E0      		ldi r25,lo8(0)
 2859               	.LVL187:
 2860 0e60 29E1      		ldi r18,lo8(25)
 2861 0e62 30E0      		ldi r19,hi8(25)
 2862 0e64 BC01      		movw r22,r24
 2863 0e66 629F      		mul r22,r18
 2864 0e68 C001      		movw r24,r0
 2865 0e6a 639F      		mul r22,r19
 2866 0e6c 900D      		add r25,r0
 2867 0e6e 729F      		mul r23,r18
 2868 0e70 900D      		add r25,r0
 2869 0e72 1124      		clr r1
 2870               	.LVL188:
 2871 0e74 E80F      		add r30,r24
 2872 0e76 F91F      		adc r31,r25
 2873 0e78 8689      		ldd r24,Z+22
 2874 0e7a 8695      		lsr r24
 2875 0e7c 8F70      		andi r24,lo8(15)
 2876 0e7e 8430      		cpi r24,lo8(4)
 2877 0e80 01F4      		brne .L120
 2878 0e82 41E0      		ldi r20,lo8(1)
 2879               	.L120:
 2880               	.LM287:
 2881 0e84 842F      		mov r24,r20
 2882               	/* epilogue start */
 2883 0e86 0895      		ret
 2884               	.LFE45:
 2886               	.global	Timebase_UpCounter_SS_Expired_Event
 2888               	Timebase_UpCounter_SS_Expired_Event:
 2889               	.LFB46:
 2890               	.LM288:
 2891               	.LVL189:
 2892               	/* prologue: function */
 2893               	/* frame size = 0 */
 2894 0e88 482F      		mov r20,r24
 2895               	.LM289:
 2896 0e8a E091 0000 		lds r30,Timebase
 2897 0e8e F091 0000 		lds r31,(Timebase)+1
 2898 0e92 282F      		mov r18,r24
 2899 0e94 30E0      		ldi r19,lo8(0)
 2900               	.LVL190:
 2901 0e96 89E1      		ldi r24,lo8(25)
 2902 0e98 90E0      		ldi r25,hi8(25)
 2903               	.LVL191:
 2904 0e9a BC01      		movw r22,r24
 2905 0e9c 269F      		mul r18,r22
 2906 0e9e C001      		movw r24,r0
 2907 0ea0 279F      		mul r18,r23
 2908 0ea2 900D      		add r25,r0
 2909 0ea4 369F      		mul r19,r22
 2910 0ea6 900D      		add r25,r0
 2911 0ea8 1124      		clr r1
 2912 0eaa E80F      		add r30,r24
 2913 0eac F91F      		adc r31,r25
 2914 0eae 8689      		ldd r24,Z+22
 2915 0eb0 8695      		lsr r24
 2916 0eb2 8F70      		andi r24,lo8(15)
 2917 0eb4 8430      		cpi r24,lo8(4)
 2918 0eb6 01F0      		breq .L123
 2919 0eb8 80E0      		ldi r24,lo8(0)
 2920 0eba 0895      		ret
 2921               	.L123:
 2922               	.LBB698:
 2923               	.LBB699:
 2924               	.LM290:
 2925 0ebc 842F      		mov r24,r20
 2926 0ebe 0E94 0000 		call Timebase_UpCounter_SS_Reset
 2927               	.LVL192:
 2928 0ec2 81E0      		ldi r24,lo8(1)
 2929               	.LBE699:
 2930               	.LBE698:
 2931               	.LM291:
 2932 0ec4 0895      		ret
 2933               	.LFE46:
 2935               	.global	Timebase_UpCounter_SS_Set_Period_Value_Securely
 2937               	Timebase_UpCounter_SS_Set_Period_Value_Securely:
 2938               	.LFB47:
 2939               	.LM292:
 2940               	.LVL193:
 2941               	/* prologue: function */
 2942               	/* frame size = 0 */
 2943               	.LBB700:
 2944               	.LBB701:
 2945               	.LM293:
 2946 0ec6 E091 0000 		lds r30,Timebase
 2947 0eca F091 0000 		lds r31,(Timebase)+1
 2948 0ece 90E0      		ldi r25,lo8(0)
 2949               	.LBE701:
 2950               	.LBE700:
 2951               	.LM294:
 2952 0ed0 29E1      		ldi r18,lo8(25)
 2953 0ed2 30E0      		ldi r19,hi8(25)
 2954 0ed4 DC01      		movw r26,r24
 2955               	.LVL194:
 2956 0ed6 A29F      		mul r26,r18
 2957 0ed8 C001      		movw r24,r0
 2958 0eda A39F      		mul r26,r19
 2959 0edc 900D      		add r25,r0
 2960 0ede B29F      		mul r27,r18
 2961 0ee0 900D      		add r25,r0
 2962 0ee2 1124      		clr r1
 2963 0ee4 E80F      		add r30,r24
 2964 0ee6 F91F      		adc r31,r25
 2965 0ee8 8689      		ldd r24,Z+22
 2966 0eea 80FD      		sbrc r24,0
 2967 0eec 00C0      		rjmp .L128
 2968               	.LBB702:
 2969               	.LBB703:
 2970               	.LM295:
 2971 0eee 87A1      		ldd r24,Z+39
 2972 0ef0 90A5      		ldd r25,Z+40
 2973 0ef2 A1A5      		ldd r26,Z+41
 2974 0ef4 B2A5      		ldd r27,Z+42
 2975 0ef6 840F      		add r24,r20
 2976 0ef8 951F      		adc r25,r21
 2977 0efa A61F      		adc r26,r22
 2978 0efc B71F      		adc r27,r23
 2979 0efe 83A7      		std Z+43,r24
 2980 0f00 94A7      		std Z+44,r25
 2981 0f02 A5A7      		std Z+45,r26
 2982 0f04 B6A7      		std Z+46,r27
 2983               	.LBE703:
 2984               	.LBE702:
 2985               	.LBB704:
 2986               	.LBB705:
 2987               	.LM296:
 2988 0f06 8689      		ldd r24,Z+22
 2989 0f08 8160      		ori r24,lo8(1)
 2990 0f0a 868B      		std Z+22,r24
 2991               	.L128:
 2992 0f0c 0895      		ret
 2993               	.LBE705:
 2994               	.LBE704:
 2995               	.LFE47:
 2997               	.global	Timebase_UpCounter_SS_Get_Remaining_Period_Value
 2999               	Timebase_UpCounter_SS_Get_Remaining_Period_Value:
 3000               	.LFB48:
 3001               	.LM297:
 3002               	.LVL195:
 3003               	/* prologue: function */
 3004               	/* frame size = 0 */
 3005               	.LBB706:
 3006               	.LBB707:
 3007               	.LM298:
 3008 0f0e E091 0000 		lds r30,Timebase
 3009 0f12 F091 0000 		lds r31,(Timebase)+1
 3010 0f16 90E0      		ldi r25,lo8(0)
 3011 0f18 29E1      		ldi r18,lo8(25)
 3012 0f1a 30E0      		ldi r19,hi8(25)
 3013 0f1c AC01      		movw r20,r24
 3014               	.LVL196:
 3015 0f1e 429F      		mul r20,r18
 3016 0f20 C001      		movw r24,r0
 3017 0f22 439F      		mul r20,r19
 3018 0f24 900D      		add r25,r0
 3019 0f26 529F      		mul r21,r18
 3020 0f28 900D      		add r25,r0
 3021 0f2a 1124      		clr r1
 3022 0f2c E80F      		add r30,r24
 3023 0f2e F91F      		adc r31,r25
 3024 0f30 23A5      		ldd r18,Z+43
 3025 0f32 34A5      		ldd r19,Z+44
 3026 0f34 45A5      		ldd r20,Z+45
 3027 0f36 56A5      		ldd r21,Z+46
 3028               	.LVL197:
 3029               	.LBE707:
 3030               	.LBE706:
 3031               	.LM299:
 3032 0f38 87A1      		ldd r24,Z+39
 3033 0f3a 90A5      		ldd r25,Z+40
 3034 0f3c A1A5      		ldd r26,Z+41
 3035 0f3e B2A5      		ldd r27,Z+42
 3036 0f40 281B      		sub r18,r24
 3037 0f42 390B      		sbc r19,r25
 3038 0f44 4A0B      		sbc r20,r26
 3039 0f46 5B0B      		sbc r21,r27
 3040 0f48 57FF      		sbrs r21,7
 3041 0f4a 00C0      		rjmp .L130
 3042 0f4c 20E0      		ldi r18,lo8(0)
 3043 0f4e 30E0      		ldi r19,hi8(0)
 3044 0f50 40E0      		ldi r20,hlo8(0)
 3045 0f52 50E0      		ldi r21,hhi8(0)
 3046               	.L130:
 3047               	.LM300:
 3048 0f54 B901      		movw r22,r18
 3049               	.LVL198:
 3050 0f56 CA01      		movw r24,r20
 3051               	/* epilogue start */
 3052 0f58 0895      		ret
 3053               	.LFE48:
 3055               	.global	Timebase_UpCounter_SS_Period_Value_Expired
 3057               	Timebase_UpCounter_SS_Period_Value_Expired:
 3058               	.LFB49:
 3059               	.LM301:
 3060               	.LVL199:
 3061 0f5a CF93      		push r28
 3062 0f5c DF93      		push r29
 3063               	/* prologue: function */
 3064               	/* frame size = 0 */
 3065               	.LBB708:
 3066               	.LBB709:
 3067               	.LBB710:
 3068               	.LBB711:
 3069               	.LM302:
 3070 0f5e C091 0000 		lds r28,Timebase
 3071 0f62 D091 0000 		lds r29,(Timebase)+1
 3072 0f66 682F      		mov r22,r24
 3073 0f68 70E0      		ldi r23,lo8(0)
 3074 0f6a 89E1      		ldi r24,lo8(25)
 3075 0f6c 90E0      		ldi r25,hi8(25)
 3076               	.LVL200:
 3077 0f6e 689F      		mul r22,r24
 3078 0f70 F001      		movw r30,r0
 3079 0f72 699F      		mul r22,r25
 3080 0f74 F00D      		add r31,r0
 3081 0f76 789F      		mul r23,r24
 3082 0f78 F00D      		add r31,r0
 3083 0f7a 1124      		clr r1
 3084 0f7c EC0F      		add r30,r28
 3085 0f7e FD1F      		adc r31,r29
 3086 0f80 23A5      		ldd r18,Z+43
 3087 0f82 34A5      		ldd r19,Z+44
 3088 0f84 45A5      		ldd r20,Z+45
 3089 0f86 56A5      		ldd r21,Z+46
 3090               	.LVL201:
 3091               	.LBE711:
 3092               	.LBE710:
 3093               	.LM303:
 3094 0f88 87A1      		ldd r24,Z+39
 3095 0f8a 90A5      		ldd r25,Z+40
 3096 0f8c A1A5      		ldd r26,Z+41
 3097 0f8e B2A5      		ldd r27,Z+42
 3098 0f90 281B      		sub r18,r24
 3099 0f92 390B      		sbc r19,r25
 3100 0f94 4A0B      		sbc r20,r26
 3101 0f96 5B0B      		sbc r21,r27
 3102               	.LM304:
 3103 0f98 57FD      		sbrc r21,7
 3104 0f9a 00C0      		rjmp .L133
 3105               	.LBE709:
 3106               	.LBE708:
 3107               	.LM305:
 3108 0f9c 2115      		cp r18,__zero_reg__
 3109 0f9e 3105      		cpc r19,__zero_reg__
 3110 0fa0 4105      		cpc r20,__zero_reg__
 3111 0fa2 5105      		cpc r21,__zero_reg__
 3112 0fa4 01F0      		breq .L133
 3113 0fa6 20E0      		ldi r18,lo8(0)
 3114               	.LVL202:
 3115 0fa8 00C0      		rjmp .L134
 3116               	.LVL203:
 3117               	.L133:
 3118 0faa 20E0      		ldi r18,lo8(0)
 3119               	.LVL204:
 3120 0fac 89E1      		ldi r24,lo8(25)
 3121 0fae 90E0      		ldi r25,hi8(25)
 3122 0fb0 AC01      		movw r20,r24
 3123 0fb2 649F      		mul r22,r20
 3124 0fb4 C001      		movw r24,r0
 3125 0fb6 659F      		mul r22,r21
 3126 0fb8 900D      		add r25,r0
 3127 0fba 749F      		mul r23,r20
 3128 0fbc 900D      		add r25,r0
 3129 0fbe 1124      		clr r1
 3130 0fc0 C80F      		add r28,r24
 3131 0fc2 D91F      		adc r29,r25
 3132 0fc4 8E89      		ldd r24,Y+22
 3133 0fc6 80FF      		sbrs r24,0
 3134 0fc8 21E0      		ldi r18,lo8(1)
 3135               	.L135:
 3136 0fca 81E0      		ldi r24,lo8(1)
 3137 0fcc 2827      		eor r18,r24
 3138               	.L134:
 3139               	.LM306:
 3140 0fce 822F      		mov r24,r18
 3141               	/* epilogue start */
 3142 0fd0 DF91      		pop r29
 3143 0fd2 CF91      		pop r28
 3144 0fd4 0895      		ret
 3145               	.LFE49:
 3147               	.global	Timebase_UpCounter_SS_Period_Value_Expired_Event
 3149               	Timebase_UpCounter_SS_Period_Value_Expired_Event:
 3150               	.LFB50:
 3151               	.LM307:
 3152               	.LVL205:
 3153 0fd6 1F93      		push r17
 3154               	/* prologue: function */
 3155               	/* frame size = 0 */
 3156 0fd8 182F      		mov r17,r24
 3157               	.LM308:
 3158 0fda 0E94 0000 		call Timebase_UpCounter_SS_Period_Value_Expired
 3159               	.LVL206:
 3160 0fde 8130      		cpi r24,lo8(1)
 3161 0fe0 01F0      		breq .L138
 3162 0fe2 80E0      		ldi r24,lo8(0)
 3163 0fe4 00C0      		rjmp .L139
 3164               	.L138:
 3165               	.LBB712:
 3166               	.LBB713:
 3167               	.LM309:
 3168 0fe6 E091 0000 		lds r30,Timebase
 3169 0fea F091 0000 		lds r31,(Timebase)+1
 3170 0fee 212F      		mov r18,r17
 3171 0ff0 30E0      		ldi r19,lo8(0)
 3172               	.LVL207:
 3173 0ff2 89E1      		ldi r24,lo8(25)
 3174 0ff4 90E0      		ldi r25,hi8(25)
 3175 0ff6 AC01      		movw r20,r24
 3176 0ff8 249F      		mul r18,r20
 3177 0ffa C001      		movw r24,r0
 3178 0ffc 259F      		mul r18,r21
 3179 0ffe 900D      		add r25,r0
 3180 1000 349F      		mul r19,r20
 3181 1002 900D      		add r25,r0
 3182 1004 1124      		clr r1
 3183 1006 E80F      		add r30,r24
 3184 1008 F91F      		adc r31,r25
 3185 100a 8689      		ldd r24,Z+22
 3186 100c 8E7F      		andi r24,lo8(-2)
 3187 100e 868B      		std Z+22,r24
 3188 1010 81E0      		ldi r24,lo8(1)
 3189               	.L139:
 3190               	/* epilogue start */
 3191               	.LBE713:
 3192               	.LBE712:
 3193               	.LM310:
 3194 1012 1F91      		pop r17
 3195               	.LVL208:
 3196 1014 0895      		ret
 3197               	.LFE50:
 3199               	.global	Timebase_UpCounter_SS_Update_All
 3201               	Timebase_UpCounter_SS_Update_All:
 3202               	.LFB51:
 3203               	.LM311:
 3204               	/* prologue: function */
 3205               	/* frame size = 0 */
 3206               	.LBB714:
 3207               	.LM312:
 3208 1016 80E0      		ldi r24,lo8(0)
 3209 1018 0E94 0000 		call Timebase_UpCounter_SS_Update
 3210               	/* epilogue start */
 3211               	.LBE714:
 3212               	.LM313:
 3213 101c 0895      		ret
 3214               	.LFE51:
 3216               	.global	Timebase_UpCounter_SS_Reset_All
 3218               	Timebase_UpCounter_SS_Reset_All:
 3219               	.LFB52:
 3220               	.LM314:
 3221               	/* prologue: function */
 3222               	/* frame size = 0 */
 3223               	.LBB715:
 3224               	.LM315:
 3225 101e 80E0      		ldi r24,lo8(0)
 3226 1020 0E94 0000 		call Timebase_UpCounter_SS_Reset
 3227               	/* epilogue start */
 3228               	.LBE715:
 3229               	.LM316:
 3230 1024 0895      		ret
 3231               	.LFE52:
 3233               	.global	Timebase_UpCounter_Get_Status
 3235               	Timebase_UpCounter_Get_Status:
 3236               	.LFB53:
 3237               	.LM317:
 3238               	.LVL209:
 3239               	/* prologue: function */
 3240               	/* frame size = 0 */
 3241               	.LM318:
 3242 1026 E091 0000 		lds r30,Timebase
 3243 102a F091 0000 		lds r31,(Timebase)+1
 3244 102e 90E0      		ldi r25,lo8(0)
 3245               	.LVL210:
 3246 1030 25E1      		ldi r18,lo8(21)
 3247 1032 30E0      		ldi r19,hi8(21)
 3248 1034 AC01      		movw r20,r24
 3249 1036 429F      		mul r20,r18
 3250 1038 C001      		movw r24,r0
 3251 103a 439F      		mul r20,r19
 3252 103c 900D      		add r25,r0
 3253 103e 529F      		mul r21,r18
 3254 1040 900D      		add r25,r0
 3255 1042 1124      		clr r1
 3256               	.LVL211:
 3257 1044 E80F      		add r30,r24
 3258 1046 F91F      		adc r31,r25
 3259 1048 87A5      		ldd r24,Z+47
 3260 104a 8695      		lsr r24
 3261               	.LM319:
 3262 104c 8F70      		andi r24,lo8(15)
 3263               	/* epilogue start */
 3264 104e 0895      		ret
 3265               	.LFE53:
 3267               	.global	Timebase_UpCounter_Set_Status
 3269               	Timebase_UpCounter_Set_Status:
 3270               	.LFB54:
 3271               	.LM320:
 3272               	.LVL212:
 3273               	/* prologue: function */
 3274               	/* frame size = 0 */
 3275               	.LM321:
 3276 1050 E091 0000 		lds r30,Timebase
 3277 1054 F091 0000 		lds r31,(Timebase)+1
 3278 1058 90E0      		ldi r25,lo8(0)
 3279               	.LVL213:
 3280 105a 25E1      		ldi r18,lo8(21)
 3281 105c 30E0      		ldi r19,hi8(21)
 3282 105e AC01      		movw r20,r24
 3283 1060 429F      		mul r20,r18
 3284 1062 C001      		movw r24,r0
 3285 1064 439F      		mul r20,r19
 3286 1066 900D      		add r25,r0
 3287 1068 529F      		mul r21,r18
 3288 106a 900D      		add r25,r0
 3289 106c 1124      		clr r1
 3290               	.LVL214:
 3291 106e E80F      		add r30,r24
 3292 1070 F91F      		adc r31,r25
 3293 1072 6F70      		andi r22,lo8(15)
 3294               	.LVL215:
 3295 1074 660F      		lsl r22
 3296 1076 87A5      		ldd r24,Z+47
 3297 1078 817E      		andi r24,lo8(-31)
 3298 107a 862B      		or r24,r22
 3299 107c 87A7      		std Z+47,r24
 3300               	/* epilogue start */
 3301               	.LM322:
 3302 107e 0895      		ret
 3303               	.LFE54:
 3305               	.global	Timebase_UpCounter_Get_Value
 3307               	Timebase_UpCounter_Get_Value:
 3308               	.LFB55:
 3309               	.LM323:
 3310               	.LVL216:
 3311               	/* prologue: function */
 3312               	/* frame size = 0 */
 3313               	.LM324:
 3314 1080 E091 0000 		lds r30,Timebase
 3315 1084 F091 0000 		lds r31,(Timebase)+1
 3316 1088 90E0      		ldi r25,lo8(0)
 3317               	.LVL217:
 3318 108a 25E1      		ldi r18,lo8(21)
 3319 108c 30E0      		ldi r19,hi8(21)
 3320 108e AC01      		movw r20,r24
 3321 1090 429F      		mul r20,r18
 3322 1092 C001      		movw r24,r0
 3323 1094 439F      		mul r20,r19
 3324 1096 900D      		add r25,r0
 3325 1098 529F      		mul r21,r18
 3326 109a 900D      		add r25,r0
 3327 109c 1124      		clr r1
 3328               	.LVL218:
 3329 109e E80F      		add r30,r24
 3330 10a0 F91F      		adc r31,r25
 3331 10a2 DF01      		movw r26,r30
 3332 10a4 DC96      		adiw r26,60
 3333 10a6 64AD      		ldd r22,Z+60
 3334 10a8 1196      		adiw r26,1
 3335 10aa 7C91      		ld r23,X
 3336 10ac 1197      		sbiw r26,1
 3337               	.LM325:
 3338 10ae 1296      		adiw r26,2
 3339 10b0 8C91      		ld r24,X
 3340 10b2 1297      		sbiw r26,2
 3341 10b4 1396      		adiw r26,3
 3342 10b6 9C91      		ld r25,X
 3343               	.LVL219:
 3344               	/* epilogue start */
 3345 10b8 0895      		ret
 3346               	.LFE55:
 3348               	.global	Timebase_UpCounter_Set_Value
 3350               	Timebase_UpCounter_Set_Value:
 3351               	.LFB56:
 3352               	.LM326:
 3353               	.LVL220:
 3354 10ba CF93      		push r28
 3355 10bc DF93      		push r29
 3356               	/* prologue: function */
 3357               	/* frame size = 0 */
 3358               	.LM327:
 3359 10be C091 0000 		lds r28,Timebase
 3360 10c2 D091 0000 		lds r29,(Timebase)+1
 3361 10c6 90E0      		ldi r25,lo8(0)
 3362               	.LVL221:
 3363 10c8 25E1      		ldi r18,lo8(21)
 3364 10ca 30E0      		ldi r19,hi8(21)
 3365 10cc FC01      		movw r30,r24
 3366 10ce E29F      		mul r30,r18
 3367 10d0 C001      		movw r24,r0
 3368 10d2 E39F      		mul r30,r19
 3369 10d4 900D      		add r25,r0
 3370 10d6 F29F      		mul r31,r18
 3371 10d8 900D      		add r25,r0
 3372 10da 1124      		clr r1
 3373               	.LVL222:
 3374 10dc C80F      		add r28,r24
 3375 10de D91F      		adc r29,r25
 3376 10e0 CA01      		movw r24,r20
 3377               	.LVL223:
 3378 10e2 DB01      		movw r26,r22
 3379 10e4 B7FF      		sbrs r27,7
 3380 10e6 00C0      		rjmp .L152
 3381               	.LVL224:
 3382 10e8 80E0      		ldi r24,lo8(0)
 3383 10ea 90E0      		ldi r25,hi8(0)
 3384 10ec A0E0      		ldi r26,hlo8(0)
 3385 10ee B0E0      		ldi r27,hhi8(0)
 3386               	.L152:
 3387 10f0 8CAF      		std Y+60,r24
 3388 10f2 9DAF      		std Y+61,r25
 3389 10f4 AEAF      		std Y+62,r26
 3390 10f6 BFAF      		std Y+63,r27
 3391               	/* epilogue start */
 3392               	.LM328:
 3393 10f8 DF91      		pop r29
 3394 10fa CF91      		pop r28
 3395 10fc 0895      		ret
 3396               	.LFE56:
 3398               	.global	Timebase_UpCounter_Get_EndValueSec
 3400               	Timebase_UpCounter_Get_EndValueSec:
 3401               	.LFB57:
 3402               	.LM329:
 3403               	.LVL225:
 3404               	/* prologue: function */
 3405               	/* frame size = 0 */
 3406               	.LM330:
 3407 10fe E091 0000 		lds r30,Timebase
 3408 1102 F091 0000 		lds r31,(Timebase)+1
 3409 1106 90E0      		ldi r25,lo8(0)
 3410               	.LVL226:
 3411 1108 25E1      		ldi r18,lo8(21)
 3412 110a 30E0      		ldi r19,hi8(21)
 3413 110c AC01      		movw r20,r24
 3414 110e 429F      		mul r20,r18
 3415 1110 C001      		movw r24,r0
 3416 1112 439F      		mul r20,r19
 3417 1114 900D      		add r25,r0
 3418 1116 529F      		mul r21,r18
 3419 1118 900D      		add r25,r0
 3420 111a 1124      		clr r1
 3421               	.LVL227:
 3422 111c E80F      		add r30,r24
 3423 111e F91F      		adc r31,r25
 3424 1120 DF01      		movw r26,r30
 3425 1122 D096      		adiw r26,48
 3426 1124 60A9      		ldd r22,Z+48
 3427 1126 1196      		adiw r26,1
 3428 1128 7C91      		ld r23,X
 3429 112a 1197      		sbiw r26,1
 3430               	.LM331:
 3431 112c 1296      		adiw r26,2
 3432 112e 8C91      		ld r24,X
 3433 1130 1297      		sbiw r26,2
 3434 1132 1396      		adiw r26,3
 3435 1134 9C91      		ld r25,X
 3436               	.LVL228:
 3437               	/* epilogue start */
 3438 1136 0895      		ret
 3439               	.LFE57:
 3441               	.global	Timebase_UpCounter_Get_EndValueSubSec
 3443               	Timebase_UpCounter_Get_EndValueSubSec:
 3444               	.LFB58:
 3445               	.LM332:
 3446               	.LVL229:
 3447               	/* prologue: function */
 3448               	/* frame size = 0 */
 3449               	.LM333:
 3450 1138 E091 0000 		lds r30,Timebase
 3451 113c F091 0000 		lds r31,(Timebase)+1
 3452 1140 90E0      		ldi r25,lo8(0)
 3453               	.LVL230:
 3454 1142 25E1      		ldi r18,lo8(21)
 3455 1144 30E0      		ldi r19,hi8(21)
 3456 1146 AC01      		movw r20,r24
 3457 1148 429F      		mul r20,r18
 3458 114a C001      		movw r24,r0
 3459 114c 439F      		mul r20,r19
 3460 114e 900D      		add r25,r0
 3461 1150 529F      		mul r21,r18
 3462 1152 900D      		add r25,r0
 3463 1154 1124      		clr r1
 3464               	.LVL231:
 3465 1156 E80F      		add r30,r24
 3466 1158 F91F      		adc r31,r25
 3467 115a DF01      		movw r26,r30
 3468 115c D096      		adiw r26,48
 3469 115e 60A9      		ldd r22,Z+48
 3470 1160 1196      		adiw r26,1
 3471 1162 7C91      		ld r23,X
 3472 1164 1197      		sbiw r26,1
 3473               	.LM334:
 3474 1166 1296      		adiw r26,2
 3475 1168 8C91      		ld r24,X
 3476 116a 1297      		sbiw r26,2
 3477 116c 1396      		adiw r26,3
 3478 116e 9C91      		ld r25,X
 3479               	.LVL232:
 3480               	/* epilogue start */
 3481 1170 0895      		ret
 3482               	.LFE58:
 3484               	.global	Timebase_UpCounter_Set_EndValueSec
 3486               	Timebase_UpCounter_Set_EndValueSec:
 3487               	.LFB59:
 3488               	.LM335:
 3489               	.LVL233:
 3490               	/* prologue: function */
 3491               	/* frame size = 0 */
 3492               	.LM336:
 3493 1172 E091 0000 		lds r30,Timebase
 3494 1176 F091 0000 		lds r31,(Timebase)+1
 3495 117a 90E0      		ldi r25,lo8(0)
 3496               	.LVL234:
 3497 117c 25E1      		ldi r18,lo8(21)
 3498 117e 30E0      		ldi r19,hi8(21)
 3499 1180 DC01      		movw r26,r24
 3500 1182 A29F      		mul r26,r18
 3501 1184 C001      		movw r24,r0
 3502 1186 A39F      		mul r26,r19
 3503 1188 900D      		add r25,r0
 3504 118a B29F      		mul r27,r18
 3505 118c 900D      		add r25,r0
 3506 118e 1124      		clr r1
 3507               	.LVL235:
 3508 1190 E80F      		add r30,r24
 3509 1192 F91F      		adc r31,r25
 3510 1194 40AB      		std Z+48,r20
 3511 1196 51AB      		std Z+49,r21
 3512 1198 62AB      		std Z+50,r22
 3513 119a 73AB      		std Z+51,r23
 3514               	/* epilogue start */
 3515               	.LM337:
 3516 119c 0895      		ret
 3517               	.LFE59:
 3519               	.global	Timebase_UpCounter_Set_EndValueSubSec
 3521               	Timebase_UpCounter_Set_EndValueSubSec:
 3522               	.LFB60:
 3523               	.LM338:
 3524               	.LVL236:
 3525               	/* prologue: function */
 3526               	/* frame size = 0 */
 3527               	.LM339:
 3528 119e E091 0000 		lds r30,Timebase
 3529 11a2 F091 0000 		lds r31,(Timebase)+1
 3530 11a6 90E0      		ldi r25,lo8(0)
 3531               	.LVL237:
 3532 11a8 25E1      		ldi r18,lo8(21)
 3533 11aa 30E0      		ldi r19,hi8(21)
 3534 11ac DC01      		movw r26,r24
 3535 11ae A29F      		mul r26,r18
 3536 11b0 C001      		movw r24,r0
 3537 11b2 A39F      		mul r26,r19
 3538 11b4 900D      		add r25,r0
 3539 11b6 B29F      		mul r27,r18
 3540 11b8 900D      		add r25,r0
 3541 11ba 1124      		clr r1
 3542               	.LVL238:
 3543 11bc E80F      		add r30,r24
 3544 11be F91F      		adc r31,r25
 3545 11c0 40AB      		std Z+48,r20
 3546 11c2 51AB      		std Z+49,r21
 3547 11c4 62AB      		std Z+50,r22
 3548 11c6 73AB      		std Z+51,r23
 3549               	/* epilogue start */
 3550               	.LM340:
 3551 11c8 0895      		ret
 3552               	.LFE60:
 3554               	.global	Timebase_UpCounter_Get_TargetValue
 3556               	Timebase_UpCounter_Get_TargetValue:
 3557               	.LFB61:
 3558               	.LM341:
 3559               	.LVL239:
 3560               	/* prologue: function */
 3561               	/* frame size = 0 */
 3562               	.LM342:
 3563 11ca E091 0000 		lds r30,Timebase
 3564 11ce F091 0000 		lds r31,(Timebase)+1
 3565 11d2 90E0      		ldi r25,lo8(0)
 3566               	.LVL240:
 3567 11d4 25E1      		ldi r18,lo8(21)
 3568 11d6 30E0      		ldi r19,hi8(21)
 3569 11d8 AC01      		movw r20,r24
 3570 11da 429F      		mul r20,r18
 3571 11dc C001      		movw r24,r0
 3572 11de 439F      		mul r20,r19
 3573 11e0 900D      		add r25,r0
 3574 11e2 529F      		mul r21,r18
 3575 11e4 900D      		add r25,r0
 3576 11e6 1124      		clr r1
 3577               	.LVL241:
 3578 11e8 E80F      		add r30,r24
 3579 11ea F91F      		adc r31,r25
 3580 11ec DF01      		movw r26,r30
 3581 11ee D496      		adiw r26,52
 3582 11f0 64A9      		ldd r22,Z+52
 3583 11f2 1196      		adiw r26,1
 3584 11f4 7C91      		ld r23,X
 3585 11f6 1197      		sbiw r26,1
 3586               	.LM343:
 3587 11f8 1296      		adiw r26,2
 3588 11fa 8C91      		ld r24,X
 3589 11fc 1297      		sbiw r26,2
 3590 11fe 1396      		adiw r26,3
 3591 1200 9C91      		ld r25,X
 3592               	.LVL242:
 3593               	/* epilogue start */
 3594 1202 0895      		ret
 3595               	.LFE61:
 3597               	.global	Timebase_UpCounter_Set_TargetValue
 3599               	Timebase_UpCounter_Set_TargetValue:
 3600               	.LFB62:
 3601               	.LM344:
 3602               	.LVL243:
 3603               	/* prologue: function */
 3604               	/* frame size = 0 */
 3605               	.LM345:
 3606 1204 E091 0000 		lds r30,Timebase
 3607 1208 F091 0000 		lds r31,(Timebase)+1
 3608 120c 90E0      		ldi r25,lo8(0)
 3609               	.LVL244:
 3610 120e 25E1      		ldi r18,lo8(21)
 3611 1210 30E0      		ldi r19,hi8(21)
 3612 1212 DC01      		movw r26,r24
 3613 1214 A29F      		mul r26,r18
 3614 1216 C001      		movw r24,r0
 3615 1218 A39F      		mul r26,r19
 3616 121a 900D      		add r25,r0
 3617 121c B29F      		mul r27,r18
 3618 121e 900D      		add r25,r0
 3619 1220 1124      		clr r1
 3620               	.LVL245:
 3621 1222 E80F      		add r30,r24
 3622 1224 F91F      		adc r31,r25
 3623 1226 44AB      		std Z+52,r20
 3624 1228 55AB      		std Z+53,r21
 3625 122a 66AB      		std Z+54,r22
 3626 122c 77AB      		std Z+55,r23
 3627               	/* epilogue start */
 3628               	.LM346:
 3629 122e 0895      		ret
 3630               	.LFE62:
 3632               	.global	Timebase_UpCounter_Get_TemporaryValue
 3634               	Timebase_UpCounter_Get_TemporaryValue:
 3635               	.LFB63:
 3636               	.LM347:
 3637               	.LVL246:
 3638               	/* prologue: function */
 3639               	/* frame size = 0 */
 3640               	.LM348:
 3641 1230 E091 0000 		lds r30,Timebase
 3642 1234 F091 0000 		lds r31,(Timebase)+1
 3643 1238 90E0      		ldi r25,lo8(0)
 3644               	.LVL247:
 3645 123a 25E1      		ldi r18,lo8(21)
 3646 123c 30E0      		ldi r19,hi8(21)
 3647 123e AC01      		movw r20,r24
 3648 1240 429F      		mul r20,r18
 3649 1242 C001      		movw r24,r0
 3650 1244 439F      		mul r20,r19
 3651 1246 900D      		add r25,r0
 3652 1248 529F      		mul r21,r18
 3653 124a 900D      		add r25,r0
 3654 124c 1124      		clr r1
 3655               	.LVL248:
 3656 124e E80F      		add r30,r24
 3657 1250 F91F      		adc r31,r25
 3658 1252 DF01      		movw r26,r30
 3659 1254 D896      		adiw r26,56
 3660 1256 60AD      		ldd r22,Z+56
 3661 1258 1196      		adiw r26,1
 3662 125a 7C91      		ld r23,X
 3663 125c 1197      		sbiw r26,1
 3664               	.LM349:
 3665 125e 1296      		adiw r26,2
 3666 1260 8C91      		ld r24,X
 3667 1262 1297      		sbiw r26,2
 3668 1264 1396      		adiw r26,3
 3669 1266 9C91      		ld r25,X
 3670               	.LVL249:
 3671               	/* epilogue start */
 3672 1268 0895      		ret
 3673               	.LFE63:
 3675               	.global	Timebase_UpCounter_Set_TemporaryValue
 3677               	Timebase_UpCounter_Set_TemporaryValue:
 3678               	.LFB64:
 3679               	.LM350:
 3680               	.LVL250:
 3681 126a CF93      		push r28
 3682 126c DF93      		push r29
 3683               	/* prologue: function */
 3684               	/* frame size = 0 */
 3685               	.LM351:
 3686 126e C091 0000 		lds r28,Timebase
 3687 1272 D091 0000 		lds r29,(Timebase)+1
 3688 1276 90E0      		ldi r25,lo8(0)
 3689               	.LVL251:
 3690 1278 25E1      		ldi r18,lo8(21)
 3691 127a 30E0      		ldi r19,hi8(21)
 3692 127c FC01      		movw r30,r24
 3693 127e E29F      		mul r30,r18
 3694 1280 C001      		movw r24,r0
 3695 1282 E39F      		mul r30,r19
 3696 1284 900D      		add r25,r0
 3697 1286 F29F      		mul r31,r18
 3698 1288 900D      		add r25,r0
 3699 128a 1124      		clr r1
 3700               	.LVL252:
 3701 128c C80F      		add r28,r24
 3702 128e D91F      		adc r29,r25
 3703 1290 CA01      		movw r24,r20
 3704               	.LVL253:
 3705 1292 DB01      		movw r26,r22
 3706 1294 B7FF      		sbrs r27,7
 3707 1296 00C0      		rjmp .L169
 3708               	.LVL254:
 3709 1298 80E0      		ldi r24,lo8(0)
 3710 129a 90E0      		ldi r25,hi8(0)
 3711 129c A0E0      		ldi r26,hlo8(0)
 3712 129e B0E0      		ldi r27,hhi8(0)
 3713               	.L169:
 3714 12a0 88AF      		std Y+56,r24
 3715 12a2 99AF      		std Y+57,r25
 3716 12a4 AAAF      		std Y+58,r26
 3717 12a6 BBAF      		std Y+59,r27
 3718               	/* epilogue start */
 3719               	.LM352:
 3720 12a8 DF91      		pop r29
 3721 12aa CF91      		pop r28
 3722 12ac 0895      		ret
 3723               	.LFE64:
 3725               	.global	Timebase_UpCounter_Get_PeriodValue
 3727               	Timebase_UpCounter_Get_PeriodValue:
 3728               	.LFB65:
 3729               	.LM353:
 3730               	.LVL255:
 3731               	/* prologue: function */
 3732               	/* frame size = 0 */
 3733               	.LM354:
 3734 12ae E091 0000 		lds r30,Timebase
 3735 12b2 F091 0000 		lds r31,(Timebase)+1
 3736 12b6 90E0      		ldi r25,lo8(0)
 3737               	.LVL256:
 3738 12b8 25E1      		ldi r18,lo8(21)
 3739 12ba 30E0      		ldi r19,hi8(21)
 3740 12bc AC01      		movw r20,r24
 3741 12be 429F      		mul r20,r18
 3742 12c0 C001      		movw r24,r0
 3743 12c2 439F      		mul r20,r19
 3744 12c4 900D      		add r25,r0
 3745 12c6 529F      		mul r21,r18
 3746 12c8 900D      		add r25,r0
 3747 12ca 1124      		clr r1
 3748               	.LVL257:
 3749 12cc E80F      		add r30,r24
 3750 12ce F91F      		adc r31,r25
 3751 12d0 E05C      		subi r30,lo8(-(64))
 3752 12d2 FF4F      		sbci r31,hi8(-(64))
 3753 12d4 6081      		ld r22,Z
 3754 12d6 7181      		ldd r23,Z+1
 3755               	.LM355:
 3756 12d8 8281      		ldd r24,Z+2
 3757 12da 9381      		ldd r25,Z+3
 3758               	.LVL258:
 3759               	/* epilogue start */
 3760 12dc 0895      		ret
 3761               	.LFE65:
 3763               	.global	Timebase_UpCounter_Set_PeriodValue
 3765               	Timebase_UpCounter_Set_PeriodValue:
 3766               	.LFB66:
 3767               	.LM356:
 3768               	.LVL259:
 3769               	/* prologue: function */
 3770               	/* frame size = 0 */
 3771               	.LM357:
 3772 12de E091 0000 		lds r30,Timebase
 3773 12e2 F091 0000 		lds r31,(Timebase)+1
 3774 12e6 90E0      		ldi r25,lo8(0)
 3775               	.LVL260:
 3776 12e8 25E1      		ldi r18,lo8(21)
 3777 12ea 30E0      		ldi r19,hi8(21)
 3778 12ec DC01      		movw r26,r24
 3779 12ee A29F      		mul r26,r18
 3780 12f0 C001      		movw r24,r0
 3781 12f2 A39F      		mul r26,r19
 3782 12f4 900D      		add r25,r0
 3783 12f6 B29F      		mul r27,r18
 3784 12f8 900D      		add r25,r0
 3785 12fa 1124      		clr r1
 3786               	.LVL261:
 3787 12fc E80F      		add r30,r24
 3788 12fe F91F      		adc r31,r25
 3789 1300 E05C      		subi r30,lo8(-(64))
 3790 1302 FF4F      		sbci r31,hi8(-(64))
 3791 1304 4083      		st Z,r20
 3792 1306 5183      		std Z+1,r21
 3793 1308 6283      		std Z+2,r22
 3794 130a 7383      		std Z+3,r23
 3795               	/* epilogue start */
 3796               	.LM358:
 3797 130c 0895      		ret
 3798               	.LFE66:
 3800               	.global	Timebase_UpCounter_Get_Period_Flag
 3802               	Timebase_UpCounter_Get_Period_Flag:
 3803               	.LFB67:
 3804               	.LM359:
 3805               	.LVL262:
 3806               	/* prologue: function */
 3807               	/* frame size = 0 */
 3808               	.LM360:
 3809 130e E091 0000 		lds r30,Timebase
 3810 1312 F091 0000 		lds r31,(Timebase)+1
 3811 1316 90E0      		ldi r25,lo8(0)
 3812               	.LVL263:
 3813 1318 25E1      		ldi r18,lo8(21)
 3814 131a 30E0      		ldi r19,hi8(21)
 3815 131c AC01      		movw r20,r24
 3816 131e 429F      		mul r20,r18
 3817 1320 C001      		movw r24,r0
 3818 1322 439F      		mul r20,r19
 3819 1324 900D      		add r25,r0
 3820 1326 529F      		mul r21,r18
 3821 1328 900D      		add r25,r0
 3822 132a 1124      		clr r1
 3823               	.LVL264:
 3824 132c E80F      		add r30,r24
 3825 132e F91F      		adc r31,r25
 3826 1330 87A5      		ldd r24,Z+47
 3827               	.LM361:
 3828 1332 8170      		andi r24,lo8(1)
 3829               	/* epilogue start */
 3830 1334 0895      		ret
 3831               	.LFE67:
 3833               	.global	Timebase_UpCounter_Set_Period_Flag
 3835               	Timebase_UpCounter_Set_Period_Flag:
 3836               	.LFB68:
 3837               	.LM362:
 3838               	.LVL265:
 3839               	/* prologue: function */
 3840               	/* frame size = 0 */
 3841               	.LM363:
 3842 1336 E091 0000 		lds r30,Timebase
 3843 133a F091 0000 		lds r31,(Timebase)+1
 3844 133e 90E0      		ldi r25,lo8(0)
 3845               	.LVL266:
 3846 1340 25E1      		ldi r18,lo8(21)
 3847 1342 30E0      		ldi r19,hi8(21)
 3848 1344 AC01      		movw r20,r24
 3849 1346 429F      		mul r20,r18
 3850 1348 C001      		movw r24,r0
 3851 134a 439F      		mul r20,r19
 3852 134c 900D      		add r25,r0
 3853 134e 529F      		mul r21,r18
 3854 1350 900D      		add r25,r0
 3855 1352 1124      		clr r1
 3856               	.LVL267:
 3857 1354 E80F      		add r30,r24
 3858 1356 F91F      		adc r31,r25
 3859 1358 87A5      		ldd r24,Z+47
 3860 135a 8160      		ori r24,lo8(1)
 3861 135c 87A7      		std Z+47,r24
 3862               	/* epilogue start */
 3863               	.LM364:
 3864 135e 0895      		ret
 3865               	.LFE68:
 3867               	.global	Timebase_UpCounter_Clear_Period_Flag
 3869               	Timebase_UpCounter_Clear_Period_Flag:
 3870               	.LFB69:
 3871               	.LM365:
 3872               	.LVL268:
 3873               	/* prologue: function */
 3874               	/* frame size = 0 */
 3875               	.LM366:
 3876 1360 E091 0000 		lds r30,Timebase
 3877 1364 F091 0000 		lds r31,(Timebase)+1
 3878 1368 90E0      		ldi r25,lo8(0)
 3879               	.LVL269:
 3880 136a 25E1      		ldi r18,lo8(21)
 3881 136c 30E0      		ldi r19,hi8(21)
 3882 136e AC01      		movw r20,r24
 3883 1370 429F      		mul r20,r18
 3884 1372 C001      		movw r24,r0
 3885 1374 439F      		mul r20,r19
 3886 1376 900D      		add r25,r0
 3887 1378 529F      		mul r21,r18
 3888 137a 900D      		add r25,r0
 3889 137c 1124      		clr r1
 3890               	.LVL270:
 3891 137e E80F      		add r30,r24
 3892 1380 F91F      		adc r31,r25
 3893 1382 87A5      		ldd r24,Z+47
 3894 1384 8E7F      		andi r24,lo8(-2)
 3895 1386 87A7      		std Z+47,r24
 3896               	/* epilogue start */
 3897               	.LM367:
 3898 1388 0895      		ret
 3899               	.LFE69:
 3901               	.global	Timebase_UpCounter_Reset
 3903               	Timebase_UpCounter_Reset:
 3904               	.LFB70:
 3905               	.LM368:
 3906               	.LVL271:
 3907               	/* prologue: function */
 3908               	/* frame size = 0 */
 3909               	.LBB716:
 3910               	.LBB717:
 3911               	.LM369:
 3912 138a E091 0000 		lds r30,Timebase
 3913 138e F091 0000 		lds r31,(Timebase)+1
 3914 1392 90E0      		ldi r25,lo8(0)
 3915 1394 25E1      		ldi r18,lo8(21)
 3916 1396 30E0      		ldi r19,hi8(21)
 3917 1398 AC01      		movw r20,r24
 3918               	.LVL272:
 3919 139a 429F      		mul r20,r18
 3920 139c C001      		movw r24,r0
 3921 139e 439F      		mul r20,r19
 3922 13a0 900D      		add r25,r0
 3923 13a2 529F      		mul r21,r18
 3924 13a4 900D      		add r25,r0
 3925 13a6 1124      		clr r1
 3926 13a8 E80F      		add r30,r24
 3927 13aa F91F      		adc r31,r25
 3928 13ac 87A5      		ldd r24,Z+47
 3929               	.LBE717:
 3930               	.LBE716:
 3931               	.LBB718:
 3932               	.LBB719:
 3933               	.LM370:
 3934 13ae 14AE      		std Z+60,__zero_reg__
 3935 13b0 15AE      		std Z+61,__zero_reg__
 3936 13b2 16AE      		std Z+62,__zero_reg__
 3937 13b4 17AE      		std Z+63,__zero_reg__
 3938               	.LBE719:
 3939               	.LBE718:
 3940               	.LBB720:
 3941               	.LBB721:
 3942               	.LM371:
 3943 13b6 10AA      		std Z+48,__zero_reg__
 3944 13b8 11AA      		std Z+49,__zero_reg__
 3945 13ba 12AA      		std Z+50,__zero_reg__
 3946 13bc 13AA      		std Z+51,__zero_reg__
 3947               	.LBE721:
 3948               	.LBE720:
 3949               	.LBB722:
 3950               	.LBB723:
 3951               	.LM372:
 3952 13be 14AA      		std Z+52,__zero_reg__
 3953 13c0 15AA      		std Z+53,__zero_reg__
 3954 13c2 16AA      		std Z+54,__zero_reg__
 3955 13c4 17AA      		std Z+55,__zero_reg__
 3956               	.LBE723:
 3957               	.LBE722:
 3958               	.LBB724:
 3959               	.LBB725:
 3960               	.LM373:
 3961 13c6 10AE      		std Z+56,__zero_reg__
 3962 13c8 11AE      		std Z+57,__zero_reg__
 3963 13ca 12AE      		std Z+58,__zero_reg__
 3964 13cc 13AE      		std Z+59,__zero_reg__
 3965               	.LBE725:
 3966               	.LBE724:
 3967               	.LBB726:
 3968               	.LBB727:
 3969               	.LM374:
 3970 13ce E05C      		subi r30,lo8(-(64))
 3971 13d0 FF4F      		sbci r31,hi8(-(64))
 3972 13d2 1082      		st Z,__zero_reg__
 3973 13d4 1182      		std Z+1,__zero_reg__
 3974 13d6 1282      		std Z+2,__zero_reg__
 3975 13d8 1382      		std Z+3,__zero_reg__
 3976 13da E054      		subi r30,lo8(-(-64))
 3977 13dc F040      		sbci r31,hi8(-(-64))
 3978               	.LBE727:
 3979               	.LBE726:
 3980               	.LBB728:
 3981               	.LBB729:
 3982               	.LM375:
 3983 13de 807E      		andi r24,lo8(-32)
 3984 13e0 87A7      		std Z+47,r24
 3985               	/* epilogue start */
 3986               	.LBE729:
 3987               	.LBE728:
 3988               	.LM376:
 3989 13e2 0895      		ret
 3990               	.LFE70:
 3992               	.global	Timebase_UpCounter_Clear_All_Flags
 3994               	Timebase_UpCounter_Clear_All_Flags:
 3995               	.LFB71:
 3996               	.LM377:
 3997               	.LVL273:
 3998               	/* prologue: function */
 3999               	/* frame size = 0 */
 4000               	.LM378:
 4001 13e4 0E94 0000 		call Timebase_UpCounter_Reset
 4002               	.LVL274:
 4003               	/* epilogue start */
 4004               	.LM379:
 4005 13e8 0895      		ret
 4006               	.LFE71:
 4008               	.global	Timebase_UpCounter_Start
 4010               	Timebase_UpCounter_Start:
 4011               	.LFB72:
 4012               	.LM380:
 4013               	.LVL275:
 4014               	/* prologue: function */
 4015               	/* frame size = 0 */
 4016               	.LBB730:
 4017               	.LBB731:
 4018               	.LM381:
 4019 13ea E091 0000 		lds r30,Timebase
 4020 13ee F091 0000 		lds r31,(Timebase)+1
 4021 13f2 90E0      		ldi r25,lo8(0)
 4022               	.LBE731:
 4023               	.LBE730:
 4024               	.LM382:
 4025 13f4 25E1      		ldi r18,lo8(21)
 4026 13f6 30E0      		ldi r19,hi8(21)
 4027 13f8 AC01      		movw r20,r24
 4028               	.LVL276:
 4029 13fa 429F      		mul r20,r18
 4030 13fc C001      		movw r24,r0
 4031 13fe 439F      		mul r20,r19
 4032 1400 900D      		add r25,r0
 4033 1402 529F      		mul r21,r18
 4034 1404 900D      		add r25,r0
 4035 1406 1124      		clr r1
 4036 1408 E80F      		add r30,r24
 4037 140a F91F      		adc r31,r25
 4038 140c 97A5      		ldd r25,Z+47
 4039 140e 892F      		mov r24,r25
 4040 1410 8695      		lsr r24
 4041 1412 8F70      		andi r24,lo8(15)
 4042 1414 8130      		cpi r24,lo8(1)
 4043 1416 01F0      		breq .L187
 4044               	.LBB732:
 4045               	.LBB733:
 4046               	.LM383:
 4047 1418 917E      		andi r25,lo8(-31)
 4048 141a 9260      		ori r25,lo8(2)
 4049 141c 97A7      		std Z+47,r25
 4050               	.L187:
 4051 141e 0895      		ret
 4052               	.LBE733:
 4053               	.LBE732:
 4054               	.LFE72:
 4056               	.global	Timebase_UpCounter_Stop
 4058               	Timebase_UpCounter_Stop:
 4059               	.LFB73:
 4060               	.LM384:
 4061               	.LVL277:
 4062               	/* prologue: function */
 4063               	/* frame size = 0 */
 4064               	.LBB734:
 4065               	.LBB735:
 4066               	.LM385:
 4067 1420 E091 0000 		lds r30,Timebase
 4068 1424 F091 0000 		lds r31,(Timebase)+1
 4069 1428 90E0      		ldi r25,lo8(0)
 4070               	.LBE735:
 4071               	.LBE734:
 4072               	.LM386:
 4073 142a 25E1      		ldi r18,lo8(21)
 4074 142c 30E0      		ldi r19,hi8(21)
 4075 142e AC01      		movw r20,r24
 4076               	.LVL278:
 4077 1430 429F      		mul r20,r18
 4078 1432 C001      		movw r24,r0
 4079 1434 439F      		mul r20,r19
 4080 1436 900D      		add r25,r0
 4081 1438 529F      		mul r21,r18
 4082 143a 900D      		add r25,r0
 4083 143c 1124      		clr r1
 4084 143e E80F      		add r30,r24
 4085 1440 F91F      		adc r31,r25
 4086 1442 97A5      		ldd r25,Z+47
 4087 1444 892F      		mov r24,r25
 4088 1446 8695      		lsr r24
 4089 1448 8F70      		andi r24,lo8(15)
 4090 144a 8230      		cpi r24,lo8(2)
 4091 144c 01F0      		breq .L190
 4092               	.LBB736:
 4093               	.LBB737:
 4094               	.LM387:
 4095 144e 917E      		andi r25,lo8(-31)
 4096 1450 9460      		ori r25,lo8(4)
 4097 1452 97A7      		std Z+47,r25
 4098               	.L190:
 4099 1454 0895      		ret
 4100               	.LBE737:
 4101               	.LBE736:
 4102               	.LFE73:
 4104               	.global	Timebase_UpCounter_Set_Securely
 4106               	Timebase_UpCounter_Set_Securely:
 4107               	.LFB74:
 4108               	.LM388:
 4109               	.LVL279:
 4110               	/* prologue: function */
 4111               	/* frame size = 0 */
 4112               	.LBB738:
 4113               	.LBB739:
 4114               	.LM389:
 4115 1456 A091 0000 		lds r26,Timebase
 4116 145a B091 0000 		lds r27,(Timebase)+1
 4117 145e 90E0      		ldi r25,lo8(0)
 4118               	.LBE739:
 4119               	.LBE738:
 4120               	.LM390:
 4121 1460 25E1      		ldi r18,lo8(21)
 4122 1462 30E0      		ldi r19,hi8(21)
 4123 1464 829F      		mul r24,r18
 4124 1466 F001      		movw r30,r0
 4125 1468 839F      		mul r24,r19
 4126 146a F00D      		add r31,r0
 4127 146c 929F      		mul r25,r18
 4128 146e F00D      		add r31,r0
 4129 1470 1124      		clr r1
 4130               	.LVL280:
 4131 1472 EA0F      		add r30,r26
 4132 1474 FB1F      		adc r31,r27
 4133 1476 87A5      		ldd r24,Z+47
 4134 1478 8695      		lsr r24
 4135 147a 8F70      		andi r24,lo8(15)
 4136 147c 01F4      		brne .L193
 4137               	.LBB740:
 4138               	.LBB741:
 4139               	.LM391:
 4140 147e 14AE      		std Z+60,__zero_reg__
 4141 1480 15AE      		std Z+61,__zero_reg__
 4142 1482 16AE      		std Z+62,__zero_reg__
 4143 1484 17AE      		std Z+63,__zero_reg__
 4144               	.LBE741:
 4145               	.LBE740:
 4146               	.LBB742:
 4147               	.LBB743:
 4148               	.LM392:
 4149 1486 10AE      		std Z+56,__zero_reg__
 4150 1488 11AE      		std Z+57,__zero_reg__
 4151 148a 12AE      		std Z+58,__zero_reg__
 4152 148c 13AE      		std Z+59,__zero_reg__
 4153               	.LBE743:
 4154               	.LBE742:
 4155               	.LBB744:
 4156               	.LBB745:
 4157               	.LM393:
 4158 148e 44AB      		std Z+52,r20
 4159 1490 55AB      		std Z+53,r21
 4160 1492 66AB      		std Z+54,r22
 4161 1494 77AB      		std Z+55,r23
 4162               	.LBE745:
 4163               	.LBE744:
 4164               	.LBB746:
 4165               	.LBB747:
 4166               	.LM394:
 4167 1496 1A96      		adiw r26,10
 4168 1498 8D91      		ld r24,X+
 4169 149a 9D91      		ld r25,X+
 4170 149c 0D90      		ld __tmp_reg__,X+
 4171 149e BC91      		ld r27,X
 4172 14a0 A02D      		mov r26,__tmp_reg__
 4173               	.LVL281:
 4174               	.LBE747:
 4175               	.LBE746:
 4176               	.LBB748:
 4177               	.LBB749:
 4178               	.LM395:
 4179 14a2 840F      		add r24,r20
 4180 14a4 951F      		adc r25,r21
 4181 14a6 A61F      		adc r26,r22
 4182 14a8 B71F      		adc r27,r23
 4183 14aa 80AB      		std Z+48,r24
 4184 14ac 91AB      		std Z+49,r25
 4185 14ae A2AB      		std Z+50,r26
 4186 14b0 B3AB      		std Z+51,r27
 4187               	.LBE749:
 4188               	.LBE748:
 4189               	.LBB750:
 4190               	.LBB751:
 4191               	.LM396:
 4192 14b2 97A5      		ldd r25,Z+47
 4193 14b4 892F      		mov r24,r25
 4194               	.LVL282:
 4195 14b6 8695      		lsr r24
 4196 14b8 8F70      		andi r24,lo8(15)
 4197 14ba 8130      		cpi r24,lo8(1)
 4198 14bc 01F0      		breq .L193
 4199               	.LBB752:
 4200               	.LBB753:
 4201               	.LM397:
 4202 14be 917E      		andi r25,lo8(-31)
 4203 14c0 9260      		ori r25,lo8(2)
 4204 14c2 97A7      		std Z+47,r25
 4205               	.L193:
 4206 14c4 0895      		ret
 4207               	.LBE753:
 4208               	.LBE752:
 4209               	.LBE751:
 4210               	.LBE750:
 4211               	.LFE74:
 4213               	.global	Timebase_UpCounter_Set_Forcefully
 4215               	Timebase_UpCounter_Set_Forcefully:
 4216               	.LFB75:
 4217               	.LM398:
 4218               	.LVL283:
 4219 14c6 DF92      		push r13
 4220 14c8 EF92      		push r14
 4221 14ca FF92      		push r15
 4222 14cc 0F93      		push r16
 4223 14ce 1F93      		push r17
 4224               	/* prologue: function */
 4225               	/* frame size = 0 */
 4226 14d0 D82E      		mov r13,r24
 4227 14d2 7A01      		movw r14,r20
 4228 14d4 8B01      		movw r16,r22
 4229               	.LM399:
 4230 14d6 0E94 0000 		call Timebase_UpCounter_Reset
 4231               	.LVL284:
 4232               	.LM400:
 4233 14da 8D2D      		mov r24,r13
 4234 14dc B801      		movw r22,r16
 4235 14de A701      		movw r20,r14
 4236 14e0 0E94 0000 		call Timebase_UpCounter_Set_Securely
 4237               	/* epilogue start */
 4238               	.LM401:
 4239 14e4 1F91      		pop r17
 4240 14e6 0F91      		pop r16
 4241 14e8 FF90      		pop r15
 4242 14ea EF90      		pop r14
 4243               	.LVL285:
 4244 14ec DF90      		pop r13
 4245               	.LVL286:
 4246 14ee 0895      		ret
 4247               	.LFE75:
 4249               	.global	Timebase_UpCounter_Update
 4251               	Timebase_UpCounter_Update:
 4252               	.LFB76:
 4253               	.LM402:
 4254               	.LVL287:
 4255 14f0 0F93      		push r16
 4256 14f2 1F93      		push r17
 4257 14f4 CF93      		push r28
 4258 14f6 DF93      		push r29
 4259               	/* prologue: function */
 4260               	/* frame size = 0 */
 4261               	.LBB754:
 4262               	.LBB755:
 4263               	.LM403:
 4264 14f8 6091 0000 		lds r22,Timebase
 4265 14fc 7091 0000 		lds r23,(Timebase)+1
 4266 1500 082F      		mov r16,r24
 4267 1502 10E0      		ldi r17,lo8(0)
 4268 1504 85E1      		ldi r24,lo8(21)
 4269 1506 90E0      		ldi r25,hi8(21)
 4270               	.LVL288:
 4271 1508 089F      		mul r16,r24
 4272 150a F001      		movw r30,r0
 4273 150c 099F      		mul r16,r25
 4274 150e F00D      		add r31,r0
 4275 1510 189F      		mul r17,r24
 4276 1512 F00D      		add r31,r0
 4277 1514 1124      		clr r1
 4278 1516 E60F      		add r30,r22
 4279 1518 F71F      		adc r31,r23
 4280 151a 87A5      		ldd r24,Z+47
 4281 151c 8695      		lsr r24
 4282 151e 8F70      		andi r24,lo8(15)
 4283               	.LBE755:
 4284               	.LBE754:
 4285               	.LM404:
 4286 1520 8130      		cpi r24,lo8(1)
 4287 1522 01F0      		breq .+2
 4288 1524 00C0      		rjmp .L197
 4289               	.LBB756:
 4290               	.LBB757:
 4291               	.LM405:
 4292 1526 EB01      		movw r28,r22
 4293 1528 8A85      		ldd r24,Y+10
 4294 152a 9B85      		ldd r25,Y+11
 4295 152c AC85      		ldd r26,Y+12
 4296 152e BD85      		ldd r27,Y+13
 4297               	.LVL289:
 4298               	.LBE757:
 4299               	.LBE756:
 4300               	.LM406:
 4301 1530 20A9      		ldd r18,Z+48
 4302 1532 31A9      		ldd r19,Z+49
 4303 1534 42A9      		ldd r20,Z+50
 4304 1536 53A9      		ldd r21,Z+51
 4305               	.LVL290:
 4306 1538 281B      		sub r18,r24
 4307 153a 390B      		sbc r19,r25
 4308 153c 4A0B      		sbc r20,r26
 4309 153e 5B0B      		sbc r21,r27
 4310 1540 57FF      		sbrs r21,7
 4311 1542 00C0      		rjmp .L198
 4312 1544 20E0      		ldi r18,lo8(0)
 4313 1546 30E0      		ldi r19,hi8(0)
 4314 1548 40E0      		ldi r20,hlo8(0)
 4315 154a 50E0      		ldi r21,hhi8(0)
 4316               	.L198:
 4317               	.LBB758:
 4318               	.LBB759:
 4319               	.LM407:
 4320 154c 85E1      		ldi r24,lo8(21)
 4321 154e 90E0      		ldi r25,hi8(21)
 4322               	.LVL291:
 4323 1550 089F      		mul r16,r24
 4324 1552 F001      		movw r30,r0
 4325 1554 099F      		mul r16,r25
 4326 1556 F00D      		add r31,r0
 4327 1558 189F      		mul r17,r24
 4328 155a F00D      		add r31,r0
 4329 155c 1124      		clr r1
 4330 155e E60F      		add r30,r22
 4331 1560 F71F      		adc r31,r23
 4332 1562 20AF      		std Z+56,r18
 4333 1564 31AF      		std Z+57,r19
 4334 1566 42AF      		std Z+58,r20
 4335 1568 53AF      		std Z+59,r21
 4336               	.LBE759:
 4337               	.LBE758:
 4338               	.LM408:
 4339 156a 84A9      		ldd r24,Z+52
 4340 156c 95A9      		ldd r25,Z+53
 4341 156e A6A9      		ldd r26,Z+54
 4342 1570 B7A9      		ldd r27,Z+55
 4343               	.LVL292:
 4344               	.LBB760:
 4345               	.LBB761:
 4346               	.LM409:
 4347 1572 821B      		sub r24,r18
 4348 1574 930B      		sbc r25,r19
 4349 1576 A40B      		sbc r26,r20
 4350 1578 B50B      		sbc r27,r21
 4351 157a B7FF      		sbrs r27,7
 4352 157c 00C0      		rjmp .L199
 4353 157e 80E0      		ldi r24,lo8(0)
 4354 1580 90E0      		ldi r25,hi8(0)
 4355 1582 A0E0      		ldi r26,hlo8(0)
 4356 1584 B0E0      		ldi r27,hhi8(0)
 4357               	.L199:
 4358 1586 84AF      		std Z+60,r24
 4359 1588 95AF      		std Z+61,r25
 4360 158a A6AF      		std Z+62,r26
 4361 158c B7AF      		std Z+63,r27
 4362               	.LBE761:
 4363               	.LBE760:
 4364               	.LM410:
 4365 158e 85E1      		ldi r24,lo8(21)
 4366 1590 90E0      		ldi r25,hi8(21)
 4367               	.LVL293:
 4368 1592 089F      		mul r16,r24
 4369 1594 E001      		movw r28,r0
 4370 1596 099F      		mul r16,r25
 4371 1598 D00D      		add r29,r0
 4372 159a 189F      		mul r17,r24
 4373 159c D00D      		add r29,r0
 4374 159e 1124      		clr r1
 4375 15a0 C60F      		add r28,r22
 4376 15a2 D71F      		adc r29,r23
 4377 15a4 88AD      		ldd r24,Y+56
 4378 15a6 99AD      		ldd r25,Y+57
 4379 15a8 AAAD      		ldd r26,Y+58
 4380 15aa BBAD      		ldd r27,Y+59
 4381 15ac 1816      		cp __zero_reg__,r24
 4382 15ae 1906      		cpc __zero_reg__,r25
 4383 15b0 1A06      		cpc __zero_reg__,r26
 4384 15b2 1B06      		cpc __zero_reg__,r27
 4385 15b4 04F4      		brge .+2
 4386 15b6 00C0      		rjmp .L203
 4387               	.LBB762:
 4388               	.LBB763:
 4389               	.LM411:
 4390 15b8 18AA      		std Y+48,__zero_reg__
 4391 15ba 19AA      		std Y+49,__zero_reg__
 4392 15bc 1AAA      		std Y+50,__zero_reg__
 4393 15be 1BAA      		std Y+51,__zero_reg__
 4394               	.LBE763:
 4395               	.LBE762:
 4396               	.LBB764:
 4397               	.LBB765:
 4398               	.LM412:
 4399 15c0 18AE      		std Y+56,__zero_reg__
 4400 15c2 19AE      		std Y+57,__zero_reg__
 4401 15c4 1AAE      		std Y+58,__zero_reg__
 4402 15c6 1BAE      		std Y+59,__zero_reg__
 4403               	.LBE765:
 4404               	.LBE764:
 4405               	.LBB766:
 4406               	.LBB767:
 4407               	.LM413:
 4408 15c8 FE01      		movw r30,r28
 4409 15ca F496      		adiw r30,52
 4410               	.LBE767:
 4411               	.LBE766:
 4412               	.LBB768:
 4413               	.LBB769:
 4414               	.LM414:
 4415 15cc 2CA9      		ldd r18,Y+52
 4416               	.LVL294:
 4417 15ce 3181      		ldd r19,Z+1
 4418               	.LVL295:
 4419 15d0 4281      		ldd r20,Z+2
 4420               	.LVL296:
 4421 15d2 5381      		ldd r21,Z+3
 4422               	.LVL297:
 4423 15d4 C901      		movw r24,r18
 4424               	.LVL298:
 4425 15d6 DA01      		movw r26,r20
 4426               	.LVL299:
 4427 15d8 B7FF      		sbrs r27,7
 4428 15da 00C0      		rjmp .L201
 4429               	.LVL300:
 4430 15dc 80E0      		ldi r24,lo8(0)
 4431 15de 90E0      		ldi r25,hi8(0)
 4432 15e0 A0E0      		ldi r26,hlo8(0)
 4433 15e2 B0E0      		ldi r27,hhi8(0)
 4434               	.L201:
 4435 15e4 8CAF      		std Y+60,r24
 4436 15e6 9DAF      		std Y+61,r25
 4437 15e8 AEAF      		std Y+62,r26
 4438 15ea BFAF      		std Y+63,r27
 4439               	.LBE769:
 4440               	.LBE768:
 4441               	.LBB770:
 4442               	.LBB771:
 4443               	.LM415:
 4444 15ec 85E1      		ldi r24,lo8(21)
 4445 15ee 90E0      		ldi r25,hi8(21)
 4446               	.LVL301:
 4447 15f0 089F      		mul r16,r24
 4448 15f2 F001      		movw r30,r0
 4449 15f4 099F      		mul r16,r25
 4450 15f6 F00D      		add r31,r0
 4451 15f8 189F      		mul r17,r24
 4452 15fa F00D      		add r31,r0
 4453 15fc 1124      		clr r1
 4454 15fe E60F      		add r30,r22
 4455 1600 F71F      		adc r31,r23
 4456 1602 87A5      		ldd r24,Z+47
 4457 1604 817E      		andi r24,lo8(-31)
 4458 1606 8860      		ori r24,lo8(8)
 4459 1608 87A7      		std Z+47,r24
 4460 160a 00C0      		rjmp .L203
 4461               	.LVL302:
 4462               	.L197:
 4463               	.LBE771:
 4464               	.LBE770:
 4465               	.LM416:
 4466 160c 8230      		cpi r24,lo8(2)
 4467 160e 01F4      		brne .L203
 4468               	.LBB772:
 4469               	.LBB773:
 4470               	.LM417:
 4471 1610 EB01      		movw r28,r22
 4472 1612 8A85      		ldd r24,Y+10
 4473 1614 9B85      		ldd r25,Y+11
 4474 1616 AC85      		ldd r26,Y+12
 4475 1618 BD85      		ldd r27,Y+13
 4476               	.LVL303:
 4477               	.LBE773:
 4478               	.LBE772:
 4479               	.LBB774:
 4480               	.LBB775:
 4481               	.LM418:
 4482 161a 20AD      		ldd r18,Z+56
 4483 161c 31AD      		ldd r19,Z+57
 4484 161e 42AD      		ldd r20,Z+58
 4485 1620 53AD      		ldd r21,Z+59
 4486 1622 820F      		add r24,r18
 4487 1624 931F      		adc r25,r19
 4488 1626 A41F      		adc r26,r20
 4489 1628 B51F      		adc r27,r21
 4490 162a 80AB      		std Z+48,r24
 4491 162c 91AB      		std Z+49,r25
 4492 162e A2AB      		std Z+50,r26
 4493 1630 B3AB      		std Z+51,r27
 4494               	.LBE775:
 4495               	.LBE774:
 4496               	.LM419:
 4497 1632 84A9      		ldd r24,Z+52
 4498 1634 95A9      		ldd r25,Z+53
 4499 1636 A6A9      		ldd r26,Z+54
 4500 1638 B7A9      		ldd r27,Z+55
 4501               	.LVL304:
 4502               	.LBB776:
 4503               	.LBB777:
 4504               	.LM420:
 4505 163a 821B      		sub r24,r18
 4506 163c 930B      		sbc r25,r19
 4507 163e A40B      		sbc r26,r20
 4508 1640 B50B      		sbc r27,r21
 4509 1642 B7FF      		sbrs r27,7
 4510 1644 00C0      		rjmp .L202
 4511 1646 80E0      		ldi r24,lo8(0)
 4512 1648 90E0      		ldi r25,hi8(0)
 4513 164a A0E0      		ldi r26,hlo8(0)
 4514 164c B0E0      		ldi r27,hhi8(0)
 4515               	.L202:
 4516 164e 84AF      		std Z+60,r24
 4517 1650 95AF      		std Z+61,r25
 4518 1652 A6AF      		std Z+62,r26
 4519 1654 B7AF      		std Z+63,r27
 4520               	.LVL305:
 4521               	.L203:
 4522               	/* epilogue start */
 4523               	.LBE777:
 4524               	.LBE776:
 4525               	.LM421:
 4526 1656 DF91      		pop r29
 4527 1658 CF91      		pop r28
 4528 165a 1F91      		pop r17
 4529 165c 0F91      		pop r16
 4530 165e 0895      		ret
 4531               	.LFE76:
 4533               	.global	Timebase_UpCounter_Expired
 4535               	Timebase_UpCounter_Expired:
 4536               	.LFB77:
 4537               	.LM422:
 4538               	.LVL306:
 4539               	/* prologue: function */
 4540               	/* frame size = 0 */
 4541               	.LM423:
 4542 1660 40E0      		ldi r20,lo8(0)
 4543 1662 E091 0000 		lds r30,Timebase
 4544 1666 F091 0000 		lds r31,(Timebase)+1
 4545 166a 90E0      		ldi r25,lo8(0)
 4546               	.LVL307:
 4547 166c 25E1      		ldi r18,lo8(21)
 4548 166e 30E0      		ldi r19,hi8(21)
 4549 1670 BC01      		movw r22,r24
 4550 1672 629F      		mul r22,r18
 4551 1674 C001      		movw r24,r0
 4552 1676 639F      		mul r22,r19
 4553 1678 900D      		add r25,r0
 4554 167a 729F      		mul r23,r18
 4555 167c 900D      		add r25,r0
 4556 167e 1124      		clr r1
 4557               	.LVL308:
 4558 1680 E80F      		add r30,r24
 4559 1682 F91F      		adc r31,r25
 4560 1684 87A5      		ldd r24,Z+47
 4561 1686 8695      		lsr r24
 4562 1688 8F70      		andi r24,lo8(15)
 4563 168a 8430      		cpi r24,lo8(4)
 4564 168c 01F4      		brne .L205
 4565 168e 41E0      		ldi r20,lo8(1)
 4566               	.L205:
 4567               	.LM424:
 4568 1690 842F      		mov r24,r20
 4569               	/* epilogue start */
 4570 1692 0895      		ret
 4571               	.LFE77:
 4573               	.global	Timebase_UpCounter_Expired_Event
 4575               	Timebase_UpCounter_Expired_Event:
 4576               	.LFB78:
 4577               	.LM425:
 4578               	.LVL309:
 4579               	/* prologue: function */
 4580               	/* frame size = 0 */
 4581 1694 482F      		mov r20,r24
 4582               	.LM426:
 4583 1696 E091 0000 		lds r30,Timebase
 4584 169a F091 0000 		lds r31,(Timebase)+1
 4585 169e 282F      		mov r18,r24
 4586 16a0 30E0      		ldi r19,lo8(0)
 4587               	.LVL310:
 4588 16a2 85E1      		ldi r24,lo8(21)
 4589 16a4 90E0      		ldi r25,hi8(21)
 4590               	.LVL311:
 4591 16a6 BC01      		movw r22,r24
 4592 16a8 269F      		mul r18,r22
 4593 16aa C001      		movw r24,r0
 4594 16ac 279F      		mul r18,r23
 4595 16ae 900D      		add r25,r0
 4596 16b0 369F      		mul r19,r22
 4597 16b2 900D      		add r25,r0
 4598 16b4 1124      		clr r1
 4599 16b6 E80F      		add r30,r24
 4600 16b8 F91F      		adc r31,r25
 4601 16ba 87A5      		ldd r24,Z+47
 4602 16bc 8695      		lsr r24
 4603 16be 8F70      		andi r24,lo8(15)
 4604 16c0 8430      		cpi r24,lo8(4)
 4605 16c2 01F0      		breq .L208
 4606 16c4 80E0      		ldi r24,lo8(0)
 4607 16c6 0895      		ret
 4608               	.L208:
 4609               	.LBB778:
 4610               	.LBB779:
 4611               	.LM427:
 4612 16c8 842F      		mov r24,r20
 4613 16ca 0E94 0000 		call Timebase_UpCounter_Reset
 4614               	.LVL312:
 4615 16ce 81E0      		ldi r24,lo8(1)
 4616               	.LBE779:
 4617               	.LBE778:
 4618               	.LM428:
 4619 16d0 0895      		ret
 4620               	.LFE78:
 4622               	.global	Timebase_UpCounter_Set_Period_Value_Securely
 4624               	Timebase_UpCounter_Set_Period_Value_Securely:
 4625               	.LFB79:
 4626               	.LM429:
 4627               	.LVL313:
 4628               	/* prologue: function */
 4629               	/* frame size = 0 */
 4630               	.LBB780:
 4631               	.LBB781:
 4632               	.LM430:
 4633 16d2 E091 0000 		lds r30,Timebase
 4634 16d6 F091 0000 		lds r31,(Timebase)+1
 4635 16da 90E0      		ldi r25,lo8(0)
 4636               	.LBE781:
 4637               	.LBE780:
 4638               	.LM431:
 4639 16dc 25E1      		ldi r18,lo8(21)
 4640 16de 30E0      		ldi r19,hi8(21)
 4641 16e0 DC01      		movw r26,r24
 4642               	.LVL314:
 4643 16e2 A29F      		mul r26,r18
 4644 16e4 C001      		movw r24,r0
 4645 16e6 A39F      		mul r26,r19
 4646 16e8 900D      		add r25,r0
 4647 16ea B29F      		mul r27,r18
 4648 16ec 900D      		add r25,r0
 4649 16ee 1124      		clr r1
 4650 16f0 E80F      		add r30,r24
 4651 16f2 F91F      		adc r31,r25
 4652 16f4 87A5      		ldd r24,Z+47
 4653 16f6 80FD      		sbrc r24,0
 4654 16f8 00C0      		rjmp .L213
 4655               	.LBB782:
 4656               	.LBB783:
 4657               	.LM432:
 4658 16fa 84AD      		ldd r24,Z+60
 4659 16fc 95AD      		ldd r25,Z+61
 4660 16fe A6AD      		ldd r26,Z+62
 4661 1700 B7AD      		ldd r27,Z+63
 4662 1702 840F      		add r24,r20
 4663 1704 951F      		adc r25,r21
 4664 1706 A61F      		adc r26,r22
 4665 1708 B71F      		adc r27,r23
 4666 170a E05C      		subi r30,lo8(-(64))
 4667 170c FF4F      		sbci r31,hi8(-(64))
 4668 170e 8083      		st Z,r24
 4669 1710 9183      		std Z+1,r25
 4670 1712 A283      		std Z+2,r26
 4671 1714 B383      		std Z+3,r27
 4672 1716 E054      		subi r30,lo8(-(-64))
 4673 1718 F040      		sbci r31,hi8(-(-64))
 4674               	.LBE783:
 4675               	.LBE782:
 4676               	.LBB784:
 4677               	.LBB785:
 4678               	.LM433:
 4679 171a 87A5      		ldd r24,Z+47
 4680 171c 8160      		ori r24,lo8(1)
 4681 171e 87A7      		std Z+47,r24
 4682               	.L213:
 4683 1720 0895      		ret
 4684               	.LBE785:
 4685               	.LBE784:
 4686               	.LFE79:
 4688               	.global	Timebase_UpCounter_Get_Remaining_Period_Value
 4690               	Timebase_UpCounter_Get_Remaining_Period_Value:
 4691               	.LFB80:
 4692               	.LM434:
 4693               	.LVL315:
 4694               	/* prologue: function */
 4695               	/* frame size = 0 */
 4696               	.LBB786:
 4697               	.LBB787:
 4698               	.LM435:
 4699 1722 E091 0000 		lds r30,Timebase
 4700 1726 F091 0000 		lds r31,(Timebase)+1
 4701 172a 90E0      		ldi r25,lo8(0)
 4702               	.LBE787:
 4703               	.LBE786:
 4704               	.LM436:
 4705 172c 25E1      		ldi r18,lo8(21)
 4706 172e 30E0      		ldi r19,hi8(21)
 4707 1730 AC01      		movw r20,r24
 4708               	.LVL316:
 4709 1732 429F      		mul r20,r18
 4710 1734 C001      		movw r24,r0
 4711 1736 439F      		mul r20,r19
 4712 1738 900D      		add r25,r0
 4713 173a 529F      		mul r21,r18
 4714 173c 900D      		add r25,r0
 4715 173e 1124      		clr r1
 4716 1740 E80F      		add r30,r24
 4717 1742 F91F      		adc r31,r25
 4718 1744 E05C      		subi r30,lo8(-(64))
 4719 1746 FF4F      		sbci r31,hi8(-(64))
 4720 1748 2081      		ld r18,Z
 4721 174a 3181      		ldd r19,Z+1
 4722 174c 4281      		ldd r20,Z+2
 4723 174e 5381      		ldd r21,Z+3
 4724               	.LVL317:
 4725 1750 E054      		subi r30,lo8(-(-64))
 4726 1752 F040      		sbci r31,hi8(-(-64))
 4727 1754 84AD      		ldd r24,Z+60
 4728 1756 95AD      		ldd r25,Z+61
 4729 1758 A6AD      		ldd r26,Z+62
 4730 175a B7AD      		ldd r27,Z+63
 4731 175c 281B      		sub r18,r24
 4732 175e 390B      		sbc r19,r25
 4733 1760 4A0B      		sbc r20,r26
 4734 1762 5B0B      		sbc r21,r27
 4735 1764 57FF      		sbrs r21,7
 4736 1766 00C0      		rjmp .L215
 4737 1768 20E0      		ldi r18,lo8(0)
 4738 176a 30E0      		ldi r19,hi8(0)
 4739 176c 40E0      		ldi r20,hlo8(0)
 4740 176e 50E0      		ldi r21,hhi8(0)
 4741               	.L215:
 4742               	.LM437:
 4743 1770 B901      		movw r22,r18
 4744               	.LVL318:
 4745 1772 CA01      		movw r24,r20
 4746               	/* epilogue start */
 4747 1774 0895      		ret
 4748               	.LFE80:
 4750               	.global	Timebase_UpCounter_Period_Value_Expired
 4752               	Timebase_UpCounter_Period_Value_Expired:
 4753               	.LFB81:
 4754               	.LM438:
 4755               	.LVL319:
 4756 1776 CF93      		push r28
 4757 1778 DF93      		push r29
 4758               	/* prologue: function */
 4759               	/* frame size = 0 */
 4760               	.LBB788:
 4761               	.LBB789:
 4762               	.LBB790:
 4763               	.LBB791:
 4764               	.LM439:
 4765 177a C091 0000 		lds r28,Timebase
 4766 177e D091 0000 		lds r29,(Timebase)+1
 4767 1782 682F      		mov r22,r24
 4768 1784 70E0      		ldi r23,lo8(0)
 4769               	.LBE791:
 4770               	.LBE790:
 4771               	.LM440:
 4772 1786 85E1      		ldi r24,lo8(21)
 4773 1788 90E0      		ldi r25,hi8(21)
 4774               	.LVL320:
 4775 178a 689F      		mul r22,r24
 4776 178c F001      		movw r30,r0
 4777 178e 699F      		mul r22,r25
 4778 1790 F00D      		add r31,r0
 4779 1792 789F      		mul r23,r24
 4780 1794 F00D      		add r31,r0
 4781 1796 1124      		clr r1
 4782 1798 EC0F      		add r30,r28
 4783 179a FD1F      		adc r31,r29
 4784 179c E05C      		subi r30,lo8(-(64))
 4785 179e FF4F      		sbci r31,hi8(-(64))
 4786 17a0 2081      		ld r18,Z
 4787 17a2 3181      		ldd r19,Z+1
 4788 17a4 4281      		ldd r20,Z+2
 4789 17a6 5381      		ldd r21,Z+3
 4790               	.LVL321:
 4791 17a8 E054      		subi r30,lo8(-(-64))
 4792 17aa F040      		sbci r31,hi8(-(-64))
 4793 17ac 84AD      		ldd r24,Z+60
 4794 17ae 95AD      		ldd r25,Z+61
 4795 17b0 A6AD      		ldd r26,Z+62
 4796 17b2 B7AD      		ldd r27,Z+63
 4797 17b4 281B      		sub r18,r24
 4798 17b6 390B      		sbc r19,r25
 4799 17b8 4A0B      		sbc r20,r26
 4800 17ba 5B0B      		sbc r21,r27
 4801               	.LM441:
 4802 17bc 57FD      		sbrc r21,7
 4803 17be 00C0      		rjmp .L218
 4804               	.LBE789:
 4805               	.LBE788:
 4806               	.LM442:
 4807 17c0 2115      		cp r18,__zero_reg__
 4808 17c2 3105      		cpc r19,__zero_reg__
 4809 17c4 4105      		cpc r20,__zero_reg__
 4810 17c6 5105      		cpc r21,__zero_reg__
 4811 17c8 01F0      		breq .L218
 4812 17ca 20E0      		ldi r18,lo8(0)
 4813               	.LVL322:
 4814 17cc 00C0      		rjmp .L219
 4815               	.LVL323:
 4816               	.L218:
 4817 17ce 20E0      		ldi r18,lo8(0)
 4818               	.LVL324:
 4819 17d0 85E1      		ldi r24,lo8(21)
 4820 17d2 90E0      		ldi r25,hi8(21)
 4821 17d4 AC01      		movw r20,r24
 4822 17d6 649F      		mul r22,r20
 4823 17d8 C001      		movw r24,r0
 4824 17da 659F      		mul r22,r21
 4825 17dc 900D      		add r25,r0
 4826 17de 749F      		mul r23,r20
 4827 17e0 900D      		add r25,r0
 4828 17e2 1124      		clr r1
 4829 17e4 C80F      		add r28,r24
 4830 17e6 D91F      		adc r29,r25
 4831 17e8 8FA5      		ldd r24,Y+47
 4832 17ea 80FF      		sbrs r24,0
 4833 17ec 21E0      		ldi r18,lo8(1)
 4834               	.L220:
 4835 17ee 81E0      		ldi r24,lo8(1)
 4836 17f0 2827      		eor r18,r24
 4837               	.L219:
 4838               	.LM443:
 4839 17f2 822F      		mov r24,r18
 4840               	/* epilogue start */
 4841 17f4 DF91      		pop r29
 4842 17f6 CF91      		pop r28
 4843 17f8 0895      		ret
 4844               	.LFE81:
 4846               	.global	Timebase_UpCounter_Period_Value_Expired_Event
 4848               	Timebase_UpCounter_Period_Value_Expired_Event:
 4849               	.LFB82:
 4850               	.LM444:
 4851               	.LVL325:
 4852 17fa 1F93      		push r17
 4853               	/* prologue: function */
 4854               	/* frame size = 0 */
 4855 17fc 182F      		mov r17,r24
 4856               	.LM445:
 4857 17fe 0E94 0000 		call Timebase_UpCounter_Period_Value_Expired
 4858               	.LVL326:
 4859 1802 8130      		cpi r24,lo8(1)
 4860 1804 01F0      		breq .L223
 4861 1806 80E0      		ldi r24,lo8(0)
 4862 1808 00C0      		rjmp .L224
 4863               	.L223:
 4864               	.LBB792:
 4865               	.LBB793:
 4866               	.LM446:
 4867 180a E091 0000 		lds r30,Timebase
 4868 180e F091 0000 		lds r31,(Timebase)+1
 4869 1812 212F      		mov r18,r17
 4870 1814 30E0      		ldi r19,lo8(0)
 4871               	.LVL327:
 4872 1816 85E1      		ldi r24,lo8(21)
 4873 1818 90E0      		ldi r25,hi8(21)
 4874 181a AC01      		movw r20,r24
 4875 181c 249F      		mul r18,r20
 4876 181e C001      		movw r24,r0
 4877 1820 259F      		mul r18,r21
 4878 1822 900D      		add r25,r0
 4879 1824 349F      		mul r19,r20
 4880 1826 900D      		add r25,r0
 4881 1828 1124      		clr r1
 4882 182a E80F      		add r30,r24
 4883 182c F91F      		adc r31,r25
 4884 182e 87A5      		ldd r24,Z+47
 4885 1830 8E7F      		andi r24,lo8(-2)
 4886 1832 87A7      		std Z+47,r24
 4887 1834 81E0      		ldi r24,lo8(1)
 4888               	.L224:
 4889               	/* epilogue start */
 4890               	.LBE793:
 4891               	.LBE792:
 4892               	.LM447:
 4893 1836 1F91      		pop r17
 4894               	.LVL328:
 4895 1838 0895      		ret
 4896               	.LFE82:
 4898               	.global	Timebase_UpCounter_Update_All
 4900               	Timebase_UpCounter_Update_All:
 4901               	.LFB83:
 4902               	.LM448:
 4903               	/* prologue: function */
 4904               	/* frame size = 0 */
 4905               	.LBB794:
 4906               	.LM449:
 4907 183a 80E0      		ldi r24,lo8(0)
 4908 183c 0E94 0000 		call Timebase_UpCounter_Update
 4909               	/* epilogue start */
 4910               	.LBE794:
 4911               	.LM450:
 4912 1840 0895      		ret
 4913               	.LFE83:
 4915               	.global	Timebase_UpCounter_Reset_All
 4917               	Timebase_UpCounter_Reset_All:
 4918               	.LFB84:
 4919               	.LM451:
 4920               	/* prologue: function */
 4921               	/* frame size = 0 */
 4922               	.LBB795:
 4923               	.LM452:
 4924 1842 80E0      		ldi r24,lo8(0)
 4925 1844 0E94 0000 		call Timebase_UpCounter_Reset
 4926               	/* epilogue start */
 4927               	.LBE795:
 4928               	.LM453:
 4929 1848 0895      		ret
 4930               	.LFE84:
 4932               	.global	Timebase_DownCounter_SS_Get_Status
 4934               	Timebase_DownCounter_SS_Get_Status:
 4935               	.LFB85:
 4936               	.LM454:
 4937               	.LVL329:
 4938               	/* prologue: function */
 4939               	/* frame size = 0 */
 4940               	.LM455:
 4941 184a E091 0000 		lds r30,Timebase
 4942 184e F091 0000 		lds r31,(Timebase)+1
 4943 1852 90E0      		ldi r25,lo8(0)
 4944               	.LVL330:
 4945 1854 9C01      		movw r18,r24
 4946 1856 44E0      		ldi r20,4
 4947 1858 220F      	1:	lsl r18
 4948 185a 331F      		rol r19
 4949 185c 4A95      		dec r20
 4950 185e 01F4      		brne 1b
 4951 1860 280F      		add r18,r24
 4952 1862 391F      		adc r19,r25
 4953 1864 E20F      		add r30,r18
 4954 1866 F31F      		adc r31,r19
 4955 1868 EC5B      		subi r30,lo8(-(68))
 4956 186a FF4F      		sbci r31,hi8(-(68))
 4957 186c 8081      		ld r24,Z
 4958               	.LVL331:
 4959 186e 8695      		lsr r24
 4960               	.LM456:
 4961 1870 8F70      		andi r24,lo8(15)
 4962               	/* epilogue start */
 4963 1872 0895      		ret
 4964               	.LFE85:
 4966               	.global	Timebase_DownCounter_SS_Set_Status
 4968               	Timebase_DownCounter_SS_Set_Status:
 4969               	.LFB86:
 4970               	.LM457:
 4971               	.LVL332:
 4972               	/* prologue: function */
 4973               	/* frame size = 0 */
 4974               	.LM458:
 4975 1874 E091 0000 		lds r30,Timebase
 4976 1878 F091 0000 		lds r31,(Timebase)+1
 4977 187c 90E0      		ldi r25,lo8(0)
 4978               	.LVL333:
 4979 187e 9C01      		movw r18,r24
 4980 1880 54E0      		ldi r21,4
 4981 1882 220F      	1:	lsl r18
 4982 1884 331F      		rol r19
 4983 1886 5A95      		dec r21
 4984 1888 01F4      		brne 1b
 4985 188a 280F      		add r18,r24
 4986 188c 391F      		adc r19,r25
 4987 188e E20F      		add r30,r18
 4988 1890 F31F      		adc r31,r19
 4989 1892 EC5B      		subi r30,lo8(-(68))
 4990 1894 FF4F      		sbci r31,hi8(-(68))
 4991 1896 6F70      		andi r22,lo8(15)
 4992               	.LVL334:
 4993 1898 660F      		lsl r22
 4994 189a 8081      		ld r24,Z
 4995               	.LVL335:
 4996 189c 817E      		andi r24,lo8(-31)
 4997 189e 862B      		or r24,r22
 4998 18a0 8083      		st Z,r24
 4999               	/* epilogue start */
 5000               	.LM459:
 5001 18a2 0895      		ret
 5002               	.LFE86:
 5004               	.global	Timebase_DownCounter_SS_Get_Value
 5006               	Timebase_DownCounter_SS_Get_Value:
 5007               	.LFB87:
 5008               	.LM460:
 5009               	.LVL336:
 5010               	/* prologue: function */
 5011               	/* frame size = 0 */
 5012               	.LM461:
 5013 18a4 E091 0000 		lds r30,Timebase
 5014 18a8 F091 0000 		lds r31,(Timebase)+1
 5015 18ac 90E0      		ldi r25,lo8(0)
 5016               	.LVL337:
 5017 18ae 9C01      		movw r18,r24
 5018 18b0 64E0      		ldi r22,4
 5019 18b2 220F      	1:	lsl r18
 5020 18b4 331F      		rol r19
 5021 18b6 6A95      		dec r22
 5022 18b8 01F4      		brne 1b
 5023 18ba 280F      		add r18,r24
 5024 18bc 391F      		adc r19,r25
 5025 18be E20F      		add r30,r18
 5026 18c0 F31F      		adc r31,r19
 5027 18c2 E35B      		subi r30,lo8(-(77))
 5028 18c4 FF4F      		sbci r31,hi8(-(77))
 5029 18c6 6081      		ld r22,Z
 5030 18c8 7181      		ldd r23,Z+1
 5031               	.LM462:
 5032 18ca 8281      		ldd r24,Z+2
 5033               	.LVL338:
 5034 18cc 9381      		ldd r25,Z+3
 5035               	.LVL339:
 5036               	/* epilogue start */
 5037 18ce 0895      		ret
 5038               	.LFE87:
 5040               	.global	Timebase_DownCounter_SS_Set_Value
 5042               	Timebase_DownCounter_SS_Set_Value:
 5043               	.LFB88:
 5044               	.LM463:
 5045               	.LVL340:
 5046               	/* prologue: function */
 5047               	/* frame size = 0 */
 5048               	.LM464:
 5049 18d0 E091 0000 		lds r30,Timebase
 5050 18d4 F091 0000 		lds r31,(Timebase)+1
 5051 18d8 90E0      		ldi r25,lo8(0)
 5052               	.LVL341:
 5053 18da 9C01      		movw r18,r24
 5054 18dc A4E0      		ldi r26,4
 5055 18de 220F      	1:	lsl r18
 5056 18e0 331F      		rol r19
 5057 18e2 AA95      		dec r26
 5058 18e4 01F4      		brne 1b
 5059 18e6 280F      		add r18,r24
 5060 18e8 391F      		adc r19,r25
 5061 18ea E20F      		add r30,r18
 5062 18ec F31F      		adc r31,r19
 5063 18ee E35B      		subi r30,lo8(-(77))
 5064 18f0 FF4F      		sbci r31,hi8(-(77))
 5065 18f2 4083      		st Z,r20
 5066 18f4 5183      		std Z+1,r21
 5067 18f6 6283      		std Z+2,r22
 5068 18f8 7383      		std Z+3,r23
 5069               	/* epilogue start */
 5070               	.LM465:
 5071 18fa 0895      		ret
 5072               	.LFE88:
 5074               	.global	Timebase_DownCounter_SS_Get_EndValueSec
 5076               	Timebase_DownCounter_SS_Get_EndValueSec:
 5077               	.LFB89:
 5078               	.LM466:
 5079               	.LVL342:
 5080               	/* prologue: function */
 5081               	/* frame size = 0 */
 5082               	.LM467:
 5083 18fc E091 0000 		lds r30,Timebase
 5084 1900 F091 0000 		lds r31,(Timebase)+1
 5085 1904 90E0      		ldi r25,lo8(0)
 5086               	.LVL343:
 5087 1906 9C01      		movw r18,r24
 5088 1908 B4E0      		ldi r27,4
 5089 190a 220F      	1:	lsl r18
 5090 190c 331F      		rol r19
 5091 190e BA95      		dec r27
 5092 1910 01F4      		brne 1b
 5093 1912 280F      		add r18,r24
 5094 1914 391F      		adc r19,r25
 5095 1916 E20F      		add r30,r18
 5096 1918 F31F      		adc r31,r19
 5097 191a EB5B      		subi r30,lo8(-(69))
 5098 191c FF4F      		sbci r31,hi8(-(69))
 5099 191e 6081      		ld r22,Z
 5100 1920 7181      		ldd r23,Z+1
 5101               	.LM468:
 5102 1922 8281      		ldd r24,Z+2
 5103               	.LVL344:
 5104 1924 9381      		ldd r25,Z+3
 5105               	.LVL345:
 5106               	/* epilogue start */
 5107 1926 0895      		ret
 5108               	.LFE89:
 5110               	.global	Timebase_DownCounter_SS_Get_EndValueSubSec
 5112               	Timebase_DownCounter_SS_Get_EndValueSubSec:
 5113               	.LFB90:
 5114               	.LM469:
 5115               	.LVL346:
 5116               	/* prologue: function */
 5117               	/* frame size = 0 */
 5118               	.LM470:
 5119 1928 E091 0000 		lds r30,Timebase
 5120 192c F091 0000 		lds r31,(Timebase)+1
 5121 1930 90E0      		ldi r25,lo8(0)
 5122               	.LVL347:
 5123 1932 9C01      		movw r18,r24
 5124 1934 44E0      		ldi r20,4
 5125 1936 220F      	1:	lsl r18
 5126 1938 331F      		rol r19
 5127 193a 4A95      		dec r20
 5128 193c 01F4      		brne 1b
 5129 193e 280F      		add r18,r24
 5130 1940 391F      		adc r19,r25
 5131 1942 E20F      		add r30,r18
 5132 1944 F31F      		adc r31,r19
 5133 1946 E75B      		subi r30,lo8(-(73))
 5134 1948 FF4F      		sbci r31,hi8(-(73))
 5135 194a 6081      		ld r22,Z
 5136 194c 7181      		ldd r23,Z+1
 5137               	.LM471:
 5138 194e 8281      		ldd r24,Z+2
 5139               	.LVL348:
 5140 1950 9381      		ldd r25,Z+3
 5141               	.LVL349:
 5142               	/* epilogue start */
 5143 1952 0895      		ret
 5144               	.LFE90:
 5146               	.global	Timebase_DownCounter_SS_Set_EndValueSec
 5148               	Timebase_DownCounter_SS_Set_EndValueSec:
 5149               	.LFB91:
 5150               	.LM472:
 5151               	.LVL350:
 5152               	/* prologue: function */
 5153               	/* frame size = 0 */
 5154               	.LM473:
 5155 1954 E091 0000 		lds r30,Timebase
 5156 1958 F091 0000 		lds r31,(Timebase)+1
 5157 195c 90E0      		ldi r25,lo8(0)
 5158               	.LVL351:
 5159 195e 9C01      		movw r18,r24
 5160 1960 A4E0      		ldi r26,4
 5161 1962 220F      	1:	lsl r18
 5162 1964 331F      		rol r19
 5163 1966 AA95      		dec r26
 5164 1968 01F4      		brne 1b
 5165 196a 280F      		add r18,r24
 5166 196c 391F      		adc r19,r25
 5167 196e E20F      		add r30,r18
 5168 1970 F31F      		adc r31,r19
 5169 1972 EB5B      		subi r30,lo8(-(69))
 5170 1974 FF4F      		sbci r31,hi8(-(69))
 5171 1976 4083      		st Z,r20
 5172 1978 5183      		std Z+1,r21
 5173 197a 6283      		std Z+2,r22
 5174 197c 7383      		std Z+3,r23
 5175               	/* epilogue start */
 5176               	.LM474:
 5177 197e 0895      		ret
 5178               	.LFE91:
 5180               	.global	Timebase_DownCounter_SS_Set_EndValueSubSec
 5182               	Timebase_DownCounter_SS_Set_EndValueSubSec:
 5183               	.LFB92:
 5184               	.LM475:
 5185               	.LVL352:
 5186               	/* prologue: function */
 5187               	/* frame size = 0 */
 5188               	.LM476:
 5189 1980 E091 0000 		lds r30,Timebase
 5190 1984 F091 0000 		lds r31,(Timebase)+1
 5191 1988 90E0      		ldi r25,lo8(0)
 5192               	.LVL353:
 5193 198a 9C01      		movw r18,r24
 5194 198c B4E0      		ldi r27,4
 5195 198e 220F      	1:	lsl r18
 5196 1990 331F      		rol r19
 5197 1992 BA95      		dec r27
 5198 1994 01F4      		brne 1b
 5199 1996 280F      		add r18,r24
 5200 1998 391F      		adc r19,r25
 5201 199a E20F      		add r30,r18
 5202 199c F31F      		adc r31,r19
 5203 199e E75B      		subi r30,lo8(-(73))
 5204 19a0 FF4F      		sbci r31,hi8(-(73))
 5205 19a2 4083      		st Z,r20
 5206 19a4 5183      		std Z+1,r21
 5207 19a6 6283      		std Z+2,r22
 5208 19a8 7383      		std Z+3,r23
 5209               	/* epilogue start */
 5210               	.LM477:
 5211 19aa 0895      		ret
 5212               	.LFE92:
 5214               	.global	Timebase_DownCounter_SS_Get_PeriodValue
 5216               	Timebase_DownCounter_SS_Get_PeriodValue:
 5217               	.LFB93:
 5218               	.LM478:
 5219               	.LVL354:
 5220               	/* prologue: function */
 5221               	/* frame size = 0 */
 5222               	.LM479:
 5223 19ac E091 0000 		lds r30,Timebase
 5224 19b0 F091 0000 		lds r31,(Timebase)+1
 5225 19b4 90E0      		ldi r25,lo8(0)
 5226               	.LVL355:
 5227 19b6 9C01      		movw r18,r24
 5228 19b8 44E0      		ldi r20,4
 5229 19ba 220F      	1:	lsl r18
 5230 19bc 331F      		rol r19
 5231 19be 4A95      		dec r20
 5232 19c0 01F4      		brne 1b
 5233 19c2 280F      		add r18,r24
 5234 19c4 391F      		adc r19,r25
 5235 19c6 E20F      		add r30,r18
 5236 19c8 F31F      		adc r31,r19
 5237 19ca EF5A      		subi r30,lo8(-(81))
 5238 19cc FF4F      		sbci r31,hi8(-(81))
 5239 19ce 6081      		ld r22,Z
 5240 19d0 7181      		ldd r23,Z+1
 5241               	.LM480:
 5242 19d2 8281      		ldd r24,Z+2
 5243               	.LVL356:
 5244 19d4 9381      		ldd r25,Z+3
 5245               	.LVL357:
 5246               	/* epilogue start */
 5247 19d6 0895      		ret
 5248               	.LFE93:
 5250               	.global	Timebase_DownCounter_SS_Set_PeriodValue
 5252               	Timebase_DownCounter_SS_Set_PeriodValue:
 5253               	.LFB94:
 5254               	.LM481:
 5255               	.LVL358:
 5256               	/* prologue: function */
 5257               	/* frame size = 0 */
 5258 19d8 E091 0000 		lds r30,Timebase
 5259 19dc F091 0000 		lds r31,(Timebase)+1
 5260 19e0 282F      		mov r18,r24
 5261 19e2 30E0      		ldi r19,lo8(0)
 5262               	.LVL359:
 5263               	.LM482:
 5264 19e4 77FF      		sbrs r23,7
 5265 19e6 00C0      		rjmp .L249
 5266               	.LVL360:
 5267               	.LM483:
 5268 19e8 C901      		movw r24,r18
 5269 19ea B4E0      		ldi r27,4
 5270 19ec 880F      	1:	lsl r24
 5271 19ee 991F      		rol r25
 5272 19f0 BA95      		dec r27
 5273 19f2 01F4      		brne 1b
 5274 19f4 820F      		add r24,r18
 5275 19f6 931F      		adc r25,r19
 5276 19f8 E80F      		add r30,r24
 5277 19fa F91F      		adc r31,r25
 5278 19fc EF5A      		subi r30,lo8(-(81))
 5279 19fe FF4F      		sbci r31,hi8(-(81))
 5280 1a00 1082      		st Z,__zero_reg__
 5281 1a02 1182      		std Z+1,__zero_reg__
 5282 1a04 1282      		std Z+2,__zero_reg__
 5283 1a06 1382      		std Z+3,__zero_reg__
 5284 1a08 0895      		ret
 5285               	.LVL361:
 5286               	.L249:
 5287               	.LM484:
 5288 1a0a C901      		movw r24,r18
 5289 1a0c A4E0      		ldi r26,4
 5290 1a0e 880F      	1:	lsl r24
 5291 1a10 991F      		rol r25
 5292 1a12 AA95      		dec r26
 5293 1a14 01F4      		brne 1b
 5294 1a16 820F      		add r24,r18
 5295 1a18 931F      		adc r25,r19
 5296 1a1a E80F      		add r30,r24
 5297 1a1c F91F      		adc r31,r25
 5298 1a1e EF5A      		subi r30,lo8(-(81))
 5299 1a20 FF4F      		sbci r31,hi8(-(81))
 5300 1a22 4083      		st Z,r20
 5301 1a24 5183      		std Z+1,r21
 5302 1a26 6283      		std Z+2,r22
 5303 1a28 7383      		std Z+3,r23
 5304 1a2a 0895      		ret
 5305               	.LFE94:
 5307               	.global	Timebase_DownCounter_SS_Get_Period_Flag
 5309               	Timebase_DownCounter_SS_Get_Period_Flag:
 5310               	.LFB95:
 5311               	.LM485:
 5312               	.LVL362:
 5313               	/* prologue: function */
 5314               	/* frame size = 0 */
 5315               	.LM486:
 5316 1a2c E091 0000 		lds r30,Timebase
 5317 1a30 F091 0000 		lds r31,(Timebase)+1
 5318 1a34 90E0      		ldi r25,lo8(0)
 5319               	.LVL363:
 5320 1a36 9C01      		movw r18,r24
 5321 1a38 44E0      		ldi r20,4
 5322 1a3a 220F      	1:	lsl r18
 5323 1a3c 331F      		rol r19
 5324 1a3e 4A95      		dec r20
 5325 1a40 01F4      		brne 1b
 5326 1a42 280F      		add r18,r24
 5327 1a44 391F      		adc r19,r25
 5328 1a46 E20F      		add r30,r18
 5329 1a48 F31F      		adc r31,r19
 5330 1a4a EC5B      		subi r30,lo8(-(68))
 5331 1a4c FF4F      		sbci r31,hi8(-(68))
 5332 1a4e 8081      		ld r24,Z
 5333               	.LVL364:
 5334               	.LM487:
 5335 1a50 8170      		andi r24,lo8(1)
 5336               	/* epilogue start */
 5337 1a52 0895      		ret
 5338               	.LFE95:
 5340               	.global	Timebase_DownCounter_SS_Set_Period_Flag
 5342               	Timebase_DownCounter_SS_Set_Period_Flag:
 5343               	.LFB96:
 5344               	.LM488:
 5345               	.LVL365:
 5346               	/* prologue: function */
 5347               	/* frame size = 0 */
 5348               	.LM489:
 5349 1a54 E091 0000 		lds r30,Timebase
 5350 1a58 F091 0000 		lds r31,(Timebase)+1
 5351 1a5c 90E0      		ldi r25,lo8(0)
 5352               	.LVL366:
 5353 1a5e 9C01      		movw r18,r24
 5354 1a60 54E0      		ldi r21,4
 5355 1a62 220F      	1:	lsl r18
 5356 1a64 331F      		rol r19
 5357 1a66 5A95      		dec r21
 5358 1a68 01F4      		brne 1b
 5359 1a6a 280F      		add r18,r24
 5360 1a6c 391F      		adc r19,r25
 5361 1a6e E20F      		add r30,r18
 5362 1a70 F31F      		adc r31,r19
 5363 1a72 EC5B      		subi r30,lo8(-(68))
 5364 1a74 FF4F      		sbci r31,hi8(-(68))
 5365 1a76 8081      		ld r24,Z
 5366               	.LVL367:
 5367 1a78 8160      		ori r24,lo8(1)
 5368 1a7a 8083      		st Z,r24
 5369               	/* epilogue start */
 5370               	.LM490:
 5371 1a7c 0895      		ret
 5372               	.LFE96:
 5374               	.global	Timebase_DownCounter_SS_Clear_Period_Flag
 5376               	Timebase_DownCounter_SS_Clear_Period_Flag:
 5377               	.LFB97:
 5378               	.LM491:
 5379               	.LVL368:
 5380               	/* prologue: function */
 5381               	/* frame size = 0 */
 5382               	.LM492:
 5383 1a7e E091 0000 		lds r30,Timebase
 5384 1a82 F091 0000 		lds r31,(Timebase)+1
 5385 1a86 90E0      		ldi r25,lo8(0)
 5386               	.LVL369:
 5387 1a88 9C01      		movw r18,r24
 5388 1a8a 64E0      		ldi r22,4
 5389 1a8c 220F      	1:	lsl r18
 5390 1a8e 331F      		rol r19
 5391 1a90 6A95      		dec r22
 5392 1a92 01F4      		brne 1b
 5393 1a94 280F      		add r18,r24
 5394 1a96 391F      		adc r19,r25
 5395 1a98 E20F      		add r30,r18
 5396 1a9a F31F      		adc r31,r19
 5397 1a9c EC5B      		subi r30,lo8(-(68))
 5398 1a9e FF4F      		sbci r31,hi8(-(68))
 5399 1aa0 8081      		ld r24,Z
 5400               	.LVL370:
 5401 1aa2 8E7F      		andi r24,lo8(-2)
 5402 1aa4 8083      		st Z,r24
 5403               	/* epilogue start */
 5404               	.LM493:
 5405 1aa6 0895      		ret
 5406               	.LFE97:
 5408               	.global	Timebase_DownCounter_SS_Reset
 5410               	Timebase_DownCounter_SS_Reset:
 5411               	.LFB98:
 5412               	.LM494:
 5413               	.LVL371:
 5414               	/* prologue: function */
 5415               	/* frame size = 0 */
 5416               	.LBB796:
 5417               	.LBB797:
 5418               	.LM495:
 5419 1aa8 E091 0000 		lds r30,Timebase
 5420 1aac F091 0000 		lds r31,(Timebase)+1
 5421 1ab0 90E0      		ldi r25,lo8(0)
 5422 1ab2 9C01      		movw r18,r24
 5423               	.LVL372:
 5424 1ab4 74E0      		ldi r23,4
 5425 1ab6 220F      	1:	lsl r18
 5426 1ab8 331F      		rol r19
 5427 1aba 7A95      		dec r23
 5428 1abc 01F4      		brne 1b
 5429 1abe 280F      		add r18,r24
 5430 1ac0 391F      		adc r19,r25
 5431 1ac2 E20F      		add r30,r18
 5432 1ac4 F31F      		adc r31,r19
 5433 1ac6 E75B      		subi r30,lo8(-(73))
 5434 1ac8 FF4F      		sbci r31,hi8(-(73))
 5435 1aca 1082      		st Z,__zero_reg__
 5436 1acc 1182      		std Z+1,__zero_reg__
 5437 1ace 1282      		std Z+2,__zero_reg__
 5438 1ad0 1382      		std Z+3,__zero_reg__
 5439               	.LBE797:
 5440               	.LBE796:
 5441               	.LBB798:
 5442               	.LBB799:
 5443               	.LM496:
 5444 1ad2 1292      		st -Z,__zero_reg__
 5445 1ad4 1292      		st -Z,__zero_reg__
 5446 1ad6 1292      		st -Z,__zero_reg__
 5447 1ad8 1292      		st -Z,__zero_reg__
 5448               	.LBE799:
 5449               	.LBE798:
 5450               	.LBB800:
 5451               	.LBB801:
 5452               	.LM497:
 5453 1ada 3896      		adiw r30,8
 5454 1adc 1082      		st Z,__zero_reg__
 5455 1ade 1182      		std Z+1,__zero_reg__
 5456 1ae0 1282      		std Z+2,__zero_reg__
 5457 1ae2 1382      		std Z+3,__zero_reg__
 5458               	.LBE801:
 5459               	.LBE800:
 5460               	.LBB802:
 5461               	.LBB803:
 5462               	.LM498:
 5463 1ae4 3997      		sbiw r30,9
 5464 1ae6 8081      		ld r24,Z
 5465               	.LBE803:
 5466               	.LBE802:
 5467               	.LBB804:
 5468               	.LBB805:
 5469               	.LM499:
 5470 1ae8 807E      		andi r24,lo8(-32)
 5471 1aea 8083      		st Z,r24
 5472               	/* epilogue start */
 5473               	.LBE805:
 5474               	.LBE804:
 5475               	.LM500:
 5476 1aec 0895      		ret
 5477               	.LFE98:
 5479               	.global	Timebase_DownCounter_SS_Clear_All_Flags
 5481               	Timebase_DownCounter_SS_Clear_All_Flags:
 5482               	.LFB99:
 5483               	.LM501:
 5484               	.LVL373:
 5485               	/* prologue: function */
 5486               	/* frame size = 0 */
 5487               	.LBB806:
 5488               	.LBB807:
 5489               	.LBB808:
 5490               	.LBB809:
 5491               	.LM502:
 5492 1aee E091 0000 		lds r30,Timebase
 5493 1af2 F091 0000 		lds r31,(Timebase)+1
 5494 1af6 90E0      		ldi r25,lo8(0)
 5495 1af8 9C01      		movw r18,r24
 5496               	.LVL374:
 5497 1afa A4E0      		ldi r26,4
 5498 1afc 220F      	1:	lsl r18
 5499 1afe 331F      		rol r19
 5500 1b00 AA95      		dec r26
 5501 1b02 01F4      		brne 1b
 5502 1b04 280F      		add r18,r24
 5503 1b06 391F      		adc r19,r25
 5504 1b08 E20F      		add r30,r18
 5505 1b0a F31F      		adc r31,r19
 5506 1b0c E75B      		subi r30,lo8(-(73))
 5507 1b0e FF4F      		sbci r31,hi8(-(73))
 5508 1b10 1082      		st Z,__zero_reg__
 5509 1b12 1182      		std Z+1,__zero_reg__
 5510 1b14 1282      		std Z+2,__zero_reg__
 5511 1b16 1382      		std Z+3,__zero_reg__
 5512               	.LBE809:
 5513               	.LBE808:
 5514               	.LBB810:
 5515               	.LBB811:
 5516               	.LM503:
 5517 1b18 1292      		st -Z,__zero_reg__
 5518 1b1a 1292      		st -Z,__zero_reg__
 5519 1b1c 1292      		st -Z,__zero_reg__
 5520 1b1e 1292      		st -Z,__zero_reg__
 5521               	.LBE811:
 5522               	.LBE810:
 5523               	.LBB812:
 5524               	.LBB813:
 5525               	.LM504:
 5526 1b20 3896      		adiw r30,8
 5527 1b22 1082      		st Z,__zero_reg__
 5528 1b24 1182      		std Z+1,__zero_reg__
 5529 1b26 1282      		std Z+2,__zero_reg__
 5530 1b28 1382      		std Z+3,__zero_reg__
 5531               	.LBE813:
 5532               	.LBE812:
 5533               	.LBB814:
 5534               	.LBB815:
 5535               	.LM505:
 5536 1b2a 3997      		sbiw r30,9
 5537 1b2c 8081      		ld r24,Z
 5538               	.LBE815:
 5539               	.LBE814:
 5540               	.LBB816:
 5541               	.LBB817:
 5542               	.LM506:
 5543 1b2e 807E      		andi r24,lo8(-32)
 5544 1b30 8083      		st Z,r24
 5545               	/* epilogue start */
 5546               	.LBE817:
 5547               	.LBE816:
 5548               	.LBE807:
 5549               	.LBE806:
 5550               	.LM507:
 5551 1b32 0895      		ret
 5552               	.LFE99:
 5554               	.global	Timebase_DownCounter_SS_Start
 5556               	Timebase_DownCounter_SS_Start:
 5557               	.LFB100:
 5558               	.LM508:
 5559               	.LVL375:
 5560               	/* prologue: function */
 5561               	/* frame size = 0 */
 5562               	.LBB818:
 5563               	.LBB819:
 5564               	.LM509:
 5565 1b34 E091 0000 		lds r30,Timebase
 5566 1b38 F091 0000 		lds r31,(Timebase)+1
 5567 1b3c 90E0      		ldi r25,lo8(0)
 5568               	.LBE819:
 5569               	.LBE818:
 5570               	.LM510:
 5571 1b3e 9C01      		movw r18,r24
 5572               	.LVL376:
 5573 1b40 B4E0      		ldi r27,4
 5574 1b42 220F      	1:	lsl r18
 5575 1b44 331F      		rol r19
 5576 1b46 BA95      		dec r27
 5577 1b48 01F4      		brne 1b
 5578 1b4a 280F      		add r18,r24
 5579 1b4c 391F      		adc r19,r25
 5580 1b4e E20F      		add r30,r18
 5581 1b50 F31F      		adc r31,r19
 5582 1b52 EC5B      		subi r30,lo8(-(68))
 5583 1b54 FF4F      		sbci r31,hi8(-(68))
 5584 1b56 9081      		ld r25,Z
 5585 1b58 892F      		mov r24,r25
 5586 1b5a 8695      		lsr r24
 5587 1b5c 8F70      		andi r24,lo8(15)
 5588 1b5e 8130      		cpi r24,lo8(1)
 5589 1b60 01F0      		breq .L264
 5590               	.LBB820:
 5591               	.LBB821:
 5592               	.LM511:
 5593 1b62 917E      		andi r25,lo8(-31)
 5594 1b64 9260      		ori r25,lo8(2)
 5595 1b66 9083      		st Z,r25
 5596               	.L264:
 5597 1b68 0895      		ret
 5598               	.LBE821:
 5599               	.LBE820:
 5600               	.LFE100:
 5602               	.global	Timebase_DownCounter_SS_Stop
 5604               	Timebase_DownCounter_SS_Stop:
 5605               	.LFB101:
 5606               	.LM512:
 5607               	.LVL377:
 5608               	/* prologue: function */
 5609               	/* frame size = 0 */
 5610               	.LBB822:
 5611               	.LBB823:
 5612               	.LM513:
 5613 1b6a E091 0000 		lds r30,Timebase
 5614 1b6e F091 0000 		lds r31,(Timebase)+1
 5615 1b72 90E0      		ldi r25,lo8(0)
 5616               	.LBE823:
 5617               	.LBE822:
 5618               	.LM514:
 5619 1b74 9C01      		movw r18,r24
 5620               	.LVL378:
 5621 1b76 44E0      		ldi r20,4
 5622 1b78 220F      	1:	lsl r18
 5623 1b7a 331F      		rol r19
 5624 1b7c 4A95      		dec r20
 5625 1b7e 01F4      		brne 1b
 5626 1b80 280F      		add r18,r24
 5627 1b82 391F      		adc r19,r25
 5628 1b84 E20F      		add r30,r18
 5629 1b86 F31F      		adc r31,r19
 5630 1b88 EC5B      		subi r30,lo8(-(68))
 5631 1b8a FF4F      		sbci r31,hi8(-(68))
 5632 1b8c 9081      		ld r25,Z
 5633 1b8e 892F      		mov r24,r25
 5634 1b90 8695      		lsr r24
 5635 1b92 8F70      		andi r24,lo8(15)
 5636 1b94 8230      		cpi r24,lo8(2)
 5637 1b96 01F0      		breq .L267
 5638               	.LBB824:
 5639               	.LBB825:
 5640               	.LM515:
 5641 1b98 917E      		andi r25,lo8(-31)
 5642 1b9a 9460      		ori r25,lo8(4)
 5643 1b9c 9083      		st Z,r25
 5644               	.L267:
 5645 1b9e 0895      		ret
 5646               	.LBE825:
 5647               	.LBE824:
 5648               	.LFE101:
 5650               	.global	Timebase_DownCounter_SS_Set_Securely
 5652               	Timebase_DownCounter_SS_Set_Securely:
 5653               	.LFB102:
 5654               	.LM516:
 5655               	.LVL379:
 5656 1ba0 2F92      		push r2
 5657 1ba2 3F92      		push r3
 5658 1ba4 4F92      		push r4
 5659 1ba6 5F92      		push r5
 5660 1ba8 6F92      		push r6
 5661 1baa 7F92      		push r7
 5662 1bac 8F92      		push r8
 5663 1bae 9F92      		push r9
 5664 1bb0 AF92      		push r10
 5665 1bb2 BF92      		push r11
 5666 1bb4 CF92      		push r12
 5667 1bb6 DF92      		push r13
 5668 1bb8 EF92      		push r14
 5669 1bba FF92      		push r15
 5670 1bbc 0F93      		push r16
 5671 1bbe 1F93      		push r17
 5672 1bc0 DF93      		push r29
 5673 1bc2 CF93      		push r28
 5674 1bc4 00D0      		rcall .
 5675 1bc6 00D0      		rcall .
 5676 1bc8 CDB7      		in r28,__SP_L__
 5677 1bca DEB7      		in r29,__SP_H__
 5678               	/* prologue: function */
 5679               	/* frame size = 4 */
 5680 1bcc 4A01      		movw r8,r20
 5681 1bce 5B01      		movw r10,r22
 5682               	.LBB826:
 5683               	.LBB827:
 5684               	.LM517:
 5685 1bd0 2091 0000 		lds r18,Timebase
 5686 1bd4 3091 0000 		lds r19,(Timebase)+1
 5687 1bd8 3C83      		std Y+4,r19
 5688 1bda 2B83      		std Y+3,r18
 5689 1bdc A82F      		mov r26,r24
 5690 1bde B0E0      		ldi r27,lo8(0)
 5691 1be0 BA83      		std Y+2,r27
 5692 1be2 A983      		std Y+1,r26
 5693               	.LBE827:
 5694               	.LBE826:
 5695               	.LM518:
 5696 1be4 FD01      		movw r30,r26
 5697 1be6 64E0      		ldi r22,4
 5698 1be8 EE0F      	1:	lsl r30
 5699 1bea FF1F      		rol r31
 5700 1bec 6A95      		dec r22
 5701 1bee 01F4      		brne 1b
 5702 1bf0 EA0F      		add r30,r26
 5703 1bf2 FB1F      		adc r31,r27
 5704 1bf4 E20F      		add r30,r18
 5705 1bf6 F31F      		adc r31,r19
 5706 1bf8 EC5B      		subi r30,lo8(-(68))
 5707 1bfa FF4F      		sbci r31,hi8(-(68))
 5708 1bfc 8081      		ld r24,Z
 5709               	.LVL380:
 5710 1bfe E454      		subi r30,lo8(-(-68))
 5711 1c00 F040      		sbci r31,hi8(-(-68))
 5712 1c02 8695      		lsr r24
 5713 1c04 8F70      		andi r24,lo8(15)
 5714 1c06 01F0      		breq .+2
 5715 1c08 00C0      		rjmp .L271
 5716               	.LVL381:
 5717               	.LBB828:
 5718               	.LBB829:
 5719               	.LM519:
 5720 1c0a E35B      		subi r30,lo8(-(77))
 5721 1c0c FF4F      		sbci r31,hi8(-(77))
 5722 1c0e 8082      		st Z,r8
 5723 1c10 9182      		std Z+1,r9
 5724 1c12 A282      		std Z+2,r10
 5725 1c14 B382      		std Z+3,r11
 5726               	.LBE829:
 5727               	.LBE828:
 5728               	.LBB830:
 5729               	.LBB831:
 5730               	.LM520:
 5731 1c16 F901      		movw r30,r18
 5732 1c18 C084      		ldd r12,Z+8
 5733 1c1a D184      		ldd r13,Z+9
 5734               	.LBE831:
 5735               	.LBE830:
 5736               	.LBB832:
 5737               	.LBB833:
 5738               	.LM521:
 5739 1c1c 2284      		ldd r2,Z+10
 5740 1c1e 3384      		ldd r3,Z+11
 5741 1c20 4484      		ldd r4,Z+12
 5742 1c22 5584      		ldd r5,Z+13
 5743               	.LVL382:
 5744               	.LBE833:
 5745               	.LBE832:
 5746               	.LM522:
 5747 1c24 2181      		ldd r18,Z+1
 5748 1c26 3281      		ldd r19,Z+2
 5749 1c28 40E0      		ldi r20,lo8(0)
 5750 1c2a 50E0      		ldi r21,hi8(0)
 5751 1c2c C501      		movw r24,r10
 5752 1c2e B401      		movw r22,r8
 5753 1c30 0E94 0000 		call __divmodsi4
 5754 1c34 7B01      		movw r14,r22
 5755 1c36 8C01      		movw r16,r24
 5756               	.LM523:
 5757 1c38 AB81      		ldd r26,Y+3
 5758 1c3a BC81      		ldd r27,Y+4
 5759 1c3c 1196      		adiw r26,1
 5760 1c3e 2D91      		ld r18,X+
 5761 1c40 3C91      		ld r19,X
 5762 1c42 1297      		sbiw r26,1+1
 5763 1c44 40E0      		ldi r20,lo8(0)
 5764 1c46 50E0      		ldi r21,hi8(0)
 5765 1c48 C501      		movw r24,r10
 5766 1c4a B401      		movw r22,r8
 5767 1c4c 0E94 0000 		call __divmodsi4
 5768 1c50 C901      		movw r24,r18
 5769 1c52 DA01      		movw r26,r20
 5770 1c54 3C01      		movw r6,r24
 5771 1c56 4D01      		movw r8,r26
 5772               	.LVL383:
 5773               	.LM524:
 5774 1c58 5601      		movw r10,r12
 5775               	.LVL384:
 5776 1c5a CC24      		clr r12
 5777 1c5c DD24      		clr r13
 5778               	.LVL385:
 5779 1c5e AE0C      		add r10,r14
 5780 1c60 BF1C      		adc r11,r15
 5781 1c62 C01E      		adc r12,r16
 5782 1c64 D11E      		adc r13,r17
 5783               	.LVL386:
 5784               	.LM525:
 5785 1c66 EB81      		ldd r30,Y+3
 5786 1c68 FC81      		ldd r31,Y+4
 5787 1c6a 8181      		ldd r24,Z+1
 5788 1c6c 9281      		ldd r25,Z+2
 5789               	.LVL387:
 5790 1c6e A0E0      		ldi r26,lo8(0)
 5791 1c70 B0E0      		ldi r27,hi8(0)
 5792 1c72 A816      		cp r10,r24
 5793 1c74 B906      		cpc r11,r25
 5794 1c76 CA06      		cpc r12,r26
 5795 1c78 DB06      		cpc r13,r27
 5796 1c7a 04F0      		brlt .L270
 5797               	.LM526:
 5798 1c7c 0894      		sec
 5799 1c7e 611C      		adc r6,__zero_reg__
 5800 1c80 711C      		adc r7,__zero_reg__
 5801 1c82 811C      		adc r8,__zero_reg__
 5802 1c84 911C      		adc r9,__zero_reg__
 5803               	.LM527:
 5804 1c86 2181      		ldd r18,Z+1
 5805 1c88 3281      		ldd r19,Z+2
 5806 1c8a 40E0      		ldi r20,lo8(0)
 5807 1c8c 50E0      		ldi r21,hi8(0)
 5808 1c8e C601      		movw r24,r12
 5809 1c90 B501      		movw r22,r10
 5810 1c92 0E94 0000 		call __divmodsi4
 5811 1c96 AC01      		movw r20,r24
 5812 1c98 CB01      		movw r24,r22
 5813 1c9a DA01      		movw r26,r20
 5814 1c9c 5C01      		movw r10,r24
 5815 1c9e 6D01      		movw r12,r26
 5816               	.L270:
 5817               	.LBB834:
 5818               	.LBB835:
 5819               	.LM528:
 5820 1ca0 E981      		ldd r30,Y+1
 5821 1ca2 FA81      		ldd r31,Y+2
 5822 1ca4 54E0      		ldi r21,4
 5823 1ca6 EE0F      	1:	lsl r30
 5824 1ca8 FF1F      		rol r31
 5825 1caa 5A95      		dec r21
 5826 1cac 01F4      		brne 1b
 5827 1cae 2981      		ldd r18,Y+1
 5828 1cb0 3A81      		ldd r19,Y+2
 5829 1cb2 E20F      		add r30,r18
 5830 1cb4 F31F      		adc r31,r19
 5831 1cb6 8B81      		ldd r24,Y+3
 5832 1cb8 9C81      		ldd r25,Y+4
 5833 1cba E80F      		add r30,r24
 5834 1cbc F91F      		adc r31,r25
 5835 1cbe EB5B      		subi r30,lo8(-(69))
 5836 1cc0 FF4F      		sbci r31,hi8(-(69))
 5837 1cc2 260C      		add r2,r6
 5838 1cc4 371C      		adc r3,r7
 5839 1cc6 481C      		adc r4,r8
 5840 1cc8 591C      		adc r5,r9
 5841 1cca 2192      		st Z+,r2
 5842 1ccc 3192      		st Z+,r3
 5843 1cce 4192      		st Z+,r4
 5844 1cd0 5192      		st Z+,r5
 5845               	.LBE835:
 5846               	.LBE834:
 5847               	.LBB836:
 5848               	.LBB837:
 5849               	.LM529:
 5850 1cd2 A082      		st Z,r10
 5851 1cd4 B182      		std Z+1,r11
 5852 1cd6 C282      		std Z+2,r12
 5853 1cd8 D382      		std Z+3,r13
 5854               	.LBE837:
 5855               	.LBE836:
 5856               	.LBB838:
 5857               	.LBB839:
 5858               	.LM530:
 5859 1cda 3597      		sbiw r30,5
 5860 1cdc 9081      		ld r25,Z
 5861 1cde 892F      		mov r24,r25
 5862 1ce0 8695      		lsr r24
 5863 1ce2 8F70      		andi r24,lo8(15)
 5864 1ce4 8130      		cpi r24,lo8(1)
 5865 1ce6 01F0      		breq .L271
 5866               	.LBB840:
 5867               	.LBB841:
 5868               	.LM531:
 5869 1ce8 917E      		andi r25,lo8(-31)
 5870 1cea 9260      		ori r25,lo8(2)
 5871 1cec 9083      		st Z,r25
 5872               	.LVL388:
 5873               	.L271:
 5874               	/* epilogue start */
 5875               	.LBE841:
 5876               	.LBE840:
 5877               	.LBE839:
 5878               	.LBE838:
 5879               	.LM532:
 5880 1cee 0F90      		pop __tmp_reg__
 5881 1cf0 0F90      		pop __tmp_reg__
 5882 1cf2 0F90      		pop __tmp_reg__
 5883 1cf4 0F90      		pop __tmp_reg__
 5884 1cf6 CF91      		pop r28
 5885 1cf8 DF91      		pop r29
 5886 1cfa 1F91      		pop r17
 5887 1cfc 0F91      		pop r16
 5888 1cfe FF90      		pop r15
 5889 1d00 EF90      		pop r14
 5890 1d02 DF90      		pop r13
 5891 1d04 CF90      		pop r12
 5892               	.LVL389:
 5893 1d06 BF90      		pop r11
 5894 1d08 AF90      		pop r10
 5895               	.LVL390:
 5896 1d0a 9F90      		pop r9
 5897 1d0c 8F90      		pop r8
 5898               	.LVL391:
 5899 1d0e 7F90      		pop r7
 5900 1d10 6F90      		pop r6
 5901               	.LVL392:
 5902 1d12 5F90      		pop r5
 5903 1d14 4F90      		pop r4
 5904 1d16 3F90      		pop r3
 5905 1d18 2F90      		pop r2
 5906               	.LVL393:
 5907 1d1a 0895      		ret
 5908               	.LFE102:
 5910               	.global	Timebase_DownCounter_SS_Set_Forcefully
 5912               	Timebase_DownCounter_SS_Set_Forcefully:
 5913               	.LFB103:
 5914               	.LM533:
 5915               	.LVL394:
 5916               	/* prologue: function */
 5917               	/* frame size = 0 */
 5918               	.LBB842:
 5919               	.LBB843:
 5920               	.LBB844:
 5921               	.LBB845:
 5922               	.LM534:
 5923 1d1c E091 0000 		lds r30,Timebase
 5924 1d20 F091 0000 		lds r31,(Timebase)+1
 5925 1d24 A82F      		mov r26,r24
 5926 1d26 B0E0      		ldi r27,lo8(0)
 5927 1d28 9D01      		movw r18,r26
 5928 1d2a 94E0      		ldi r25,4
 5929 1d2c 220F      	1:	lsl r18
 5930 1d2e 331F      		rol r19
 5931 1d30 9A95      		dec r25
 5932 1d32 01F4      		brne 1b
 5933 1d34 2A0F      		add r18,r26
 5934 1d36 3B1F      		adc r19,r27
 5935 1d38 E20F      		add r30,r18
 5936 1d3a F31F      		adc r31,r19
 5937 1d3c E75B      		subi r30,lo8(-(73))
 5938 1d3e FF4F      		sbci r31,hi8(-(73))
 5939 1d40 1082      		st Z,__zero_reg__
 5940 1d42 1182      		std Z+1,__zero_reg__
 5941 1d44 1282      		std Z+2,__zero_reg__
 5942 1d46 1382      		std Z+3,__zero_reg__
 5943               	.LBE845:
 5944               	.LBE844:
 5945               	.LBB846:
 5946               	.LBB847:
 5947               	.LM535:
 5948 1d48 1292      		st -Z,__zero_reg__
 5949 1d4a 1292      		st -Z,__zero_reg__
 5950 1d4c 1292      		st -Z,__zero_reg__
 5951 1d4e 1292      		st -Z,__zero_reg__
 5952               	.LBE847:
 5953               	.LBE846:
 5954               	.LBB848:
 5955               	.LBB849:
 5956               	.LM536:
 5957 1d50 3896      		adiw r30,8
 5958 1d52 1082      		st Z,__zero_reg__
 5959 1d54 1182      		std Z+1,__zero_reg__
 5960 1d56 1282      		std Z+2,__zero_reg__
 5961 1d58 1382      		std Z+3,__zero_reg__
 5962               	.LBE849:
 5963               	.LBE848:
 5964               	.LBB850:
 5965               	.LBB851:
 5966               	.LM537:
 5967 1d5a 3997      		sbiw r30,9
 5968 1d5c 9081      		ld r25,Z
 5969               	.LBE851:
 5970               	.LBE850:
 5971               	.LBB852:
 5972               	.LBB853:
 5973               	.LM538:
 5974 1d5e 907E      		andi r25,lo8(-32)
 5975 1d60 9083      		st Z,r25
 5976               	.LBE853:
 5977               	.LBE852:
 5978               	.LBE843:
 5979               	.LBE842:
 5980               	.LM539:
 5981 1d62 0E94 0000 		call Timebase_DownCounter_SS_Set_Securely
 5982               	.LVL395:
 5983               	/* epilogue start */
 5984               	.LM540:
 5985 1d66 0895      		ret
 5986               	.LFE103:
 5988               	.global	Timebase_DownCounter_SS_Update
 5990               	Timebase_DownCounter_SS_Update:
 5991               	.LFB104:
 5992               	.LM541:
 5993               	.LVL396:
 5994 1d68 2F92      		push r2
 5995 1d6a 3F92      		push r3
 5996 1d6c 4F92      		push r4
 5997 1d6e 5F92      		push r5
 5998 1d70 6F92      		push r6
 5999 1d72 7F92      		push r7
 6000 1d74 8F92      		push r8
 6001 1d76 9F92      		push r9
 6002 1d78 AF92      		push r10
 6003 1d7a BF92      		push r11
 6004 1d7c CF92      		push r12
 6005 1d7e DF92      		push r13
 6006 1d80 EF92      		push r14
 6007 1d82 FF92      		push r15
 6008 1d84 0F93      		push r16
 6009 1d86 1F93      		push r17
 6010 1d88 CF93      		push r28
 6011 1d8a DF93      		push r29
 6012               	/* prologue: function */
 6013               	/* frame size = 0 */
 6014               	.LBB854:
 6015               	.LBB855:
 6016               	.LM542:
 6017 1d8c E091 0000 		lds r30,Timebase
 6018 1d90 F091 0000 		lds r31,(Timebase)+1
 6019 1d94 90E0      		ldi r25,lo8(0)
 6020 1d96 EC01      		movw r28,r24
 6021               	.LVL397:
 6022 1d98 44E0      		ldi r20,4
 6023 1d9a CC0F      	1:	lsl r28
 6024 1d9c DD1F      		rol r29
 6025 1d9e 4A95      		dec r20
 6026 1da0 01F4      		brne 1b
 6027 1da2 C80F      		add r28,r24
 6028 1da4 D91F      		adc r29,r25
 6029 1da6 CE0F      		add r28,r30
 6030 1da8 DF1F      		adc r29,r31
 6031 1daa 34E4      		ldi r19,lo8(68)
 6032 1dac C32E      		mov r12,r19
 6033 1dae D12C      		mov r13,__zero_reg__
 6034 1db0 CC0E      		add r12,r28
 6035 1db2 DD1E      		adc r13,r29
 6036 1db4 D601      		movw r26,r12
 6037 1db6 8C91      		ld r24,X
 6038 1db8 8695      		lsr r24
 6039 1dba 8F70      		andi r24,lo8(15)
 6040               	.LBE855:
 6041               	.LBE854:
 6042               	.LM543:
 6043 1dbc 8130      		cpi r24,lo8(1)
 6044 1dbe 01F0      		breq .+2
 6045 1dc0 00C0      		rjmp .L275
 6046               	.LBB856:
 6047               	.LBB857:
 6048               	.LM544:
 6049 1dc2 E084      		ldd r14,Z+8
 6050 1dc4 F184      		ldd r15,Z+9
 6051               	.LBE857:
 6052               	.LBE856:
 6053               	.LM545:
 6054 1dc6 00E0      		ldi r16,lo8(0)
 6055 1dc8 10E0      		ldi r17,hi8(0)
 6056               	.LVL398:
 6057               	.LBB858:
 6058               	.LBB859:
 6059               	.LM546:
 6060 1dca 6284      		ldd r6,Z+10
 6061 1dcc 7384      		ldd r7,Z+11
 6062 1dce 8484      		ldd r8,Z+12
 6063 1dd0 9584      		ldd r9,Z+13
 6064               	.LVL399:
 6065               	.LBE859:
 6066               	.LBE858:
 6067               	.LM547:
 6068 1dd2 25E4      		ldi r18,lo8(69)
 6069 1dd4 A22E      		mov r10,r18
 6070 1dd6 B12C      		mov r11,__zero_reg__
 6071 1dd8 AC0E      		add r10,r28
 6072 1dda BD1E      		adc r11,r29
 6073 1ddc D501      		movw r26,r10
 6074 1dde 2D91      		ld r18,X+
 6075 1de0 3D91      		ld r19,X+
 6076 1de2 4D91      		ld r20,X+
 6077 1de4 5C91      		ld r21,X
 6078 1de6 2619      		sub r18,r6
 6079 1de8 3709      		sbc r19,r7
 6080 1dea 4809      		sbc r20,r8
 6081 1dec 5909      		sbc r21,r9
 6082               	.LM548:
 6083 1dee 6181      		ldd r22,Z+1
 6084 1df0 7281      		ldd r23,Z+2
 6085               	.LM549:
 6086 1df2 80E0      		ldi r24,lo8(0)
 6087 1df4 90E0      		ldi r25,hi8(0)
 6088 1df6 0E94 0000 		call __mulsi3
 6089 1dfa 6E19      		sub r22,r14
 6090 1dfc 7F09      		sbc r23,r15
 6091 1dfe 800B      		sbc r24,r16
 6092 1e00 910B      		sbc r25,r17
 6093               	.LVL400:
 6094               	.LM550:
 6095 1e02 DE01      		movw r26,r28
 6096 1e04 A75B      		subi r26,lo8(-(73))
 6097 1e06 BF4F      		sbci r27,hi8(-(73))
 6098 1e08 2D91      		ld r18,X+
 6099 1e0a 3D91      		ld r19,X+
 6100 1e0c 4D91      		ld r20,X+
 6101 1e0e 5C91      		ld r21,X
 6102 1e10 1397      		sbiw r26,3
 6103 1e12 620F      		add r22,r18
 6104 1e14 731F      		adc r23,r19
 6105 1e16 841F      		adc r24,r20
 6106 1e18 951F      		adc r25,r21
 6107               	.LBB860:
 6108               	.LBB861:
 6109               	.LM551:
 6110 1e1a FE01      		movw r30,r28
 6111 1e1c E35B      		subi r30,lo8(-(77))
 6112 1e1e FF4F      		sbci r31,hi8(-(77))
 6113 1e20 6083      		st Z,r22
 6114 1e22 7183      		std Z+1,r23
 6115 1e24 8283      		std Z+2,r24
 6116 1e26 9383      		std Z+3,r25
 6117               	.LBE861:
 6118               	.LBE860:
 6119               	.LM552:
 6120 1e28 1616      		cp __zero_reg__,r22
 6121 1e2a 1706      		cpc __zero_reg__,r23
 6122 1e2c 1806      		cpc __zero_reg__,r24
 6123 1e2e 1906      		cpc __zero_reg__,r25
 6124 1e30 04F4      		brge .+2
 6125 1e32 00C0      		rjmp .L277
 6126               	.LBB862:
 6127               	.LBB863:
 6128               	.LBB864:
 6129               	.LBB865:
 6130               	.LM553:
 6131 1e34 1D92      		st X+,__zero_reg__
 6132 1e36 1D92      		st X+,__zero_reg__
 6133 1e38 1D92      		st X+,__zero_reg__
 6134 1e3a 1C92      		st X,__zero_reg__
 6135 1e3c 1397      		sbiw r26,3
 6136               	.LBE865:
 6137               	.LBE864:
 6138               	.LBB866:
 6139               	.LBB867:
 6140               	.LM554:
 6141 1e3e D501      		movw r26,r10
 6142 1e40 1D92      		st X+,__zero_reg__
 6143 1e42 1D92      		st X+,__zero_reg__
 6144 1e44 1D92      		st X+,__zero_reg__
 6145 1e46 1C92      		st X,__zero_reg__
 6146 1e48 1397      		sbiw r26,3
 6147               	.LBE867:
 6148               	.LBE866:
 6149               	.LBB868:
 6150               	.LBB869:
 6151               	.LM555:
 6152 1e4a 1082      		st Z,__zero_reg__
 6153 1e4c 1182      		std Z+1,__zero_reg__
 6154 1e4e 1282      		std Z+2,__zero_reg__
 6155 1e50 1382      		std Z+3,__zero_reg__
 6156               	.LBE869:
 6157               	.LBE868:
 6158               	.LBB870:
 6159               	.LBB871:
 6160               	.LM556:
 6161 1e52 F601      		movw r30,r12
 6162 1e54 8081      		ld r24,Z
 6163               	.LBE871:
 6164               	.LBE870:
 6165               	.LBE863:
 6166               	.LBE862:
 6167               	.LBB872:
 6168               	.LBB873:
 6169               	.LM557:
 6170 1e56 807E      		andi r24,lo8(-32)
 6171 1e58 8860      		ori r24,lo8(8)
 6172 1e5a 8083      		st Z,r24
 6173 1e5c 00C0      		rjmp .L277
 6174               	.LVL401:
 6175               	.L275:
 6176               	.LBE873:
 6177               	.LBE872:
 6178               	.LM558:
 6179 1e5e 8230      		cpi r24,lo8(2)
 6180 1e60 01F4      		brne .L277
 6181               	.LBB874:
 6182               	.LBB875:
 6183               	.LM559:
 6184 1e62 6084      		ldd r6,Z+8
 6185 1e64 7184      		ldd r7,Z+9
 6186               	.LBE875:
 6187               	.LBE874:
 6188               	.LBB876:
 6189               	.LBB877:
 6190               	.LM560:
 6191 1e66 E284      		ldd r14,Z+10
 6192 1e68 F384      		ldd r15,Z+11
 6193 1e6a 0485      		ldd r16,Z+12
 6194 1e6c 1585      		ldd r17,Z+13
 6195               	.LVL402:
 6196               	.LBE877:
 6197               	.LBE876:
 6198               	.LBB878:
 6199               	.LBB879:
 6200               	.LM561:
 6201 1e6e C35B      		subi r28,lo8(-(77))
 6202 1e70 DF4F      		sbci r29,hi8(-(77))
 6203 1e72 2880      		ld r2,Y
 6204 1e74 3980      		ldd r3,Y+1
 6205 1e76 4A80      		ldd r4,Y+2
 6206 1e78 5B80      		ldd r5,Y+3
 6207               	.LVL403:
 6208               	.LBE879:
 6209               	.LBE878:
 6210               	.LM562:
 6211 1e7a 2181      		ldd r18,Z+1
 6212 1e7c 3281      		ldd r19,Z+2
 6213               	.LM563:
 6214 1e7e A180      		ldd r10,Z+1
 6215 1e80 B280      		ldd r11,Z+2
 6216               	.LBB880:
 6217               	.LBB881:
 6218               	.LM564:
 6219 1e82 2897      		sbiw r28,8
 6220 1e84 40E0      		ldi r20,lo8(0)
 6221 1e86 50E0      		ldi r21,hi8(0)
 6222 1e88 C201      		movw r24,r4
 6223 1e8a B101      		movw r22,r2
 6224 1e8c 0E94 0000 		call __divmodsi4
 6225 1e90 E20E      		add r14,r18
 6226 1e92 F31E      		adc r15,r19
 6227 1e94 041F      		adc r16,r20
 6228 1e96 151F      		adc r17,r21
 6229 1e98 E992      		st Y+,r14
 6230 1e9a F992      		st Y+,r15
 6231 1e9c 0993      		st Y+,r16
 6232 1e9e 1993      		st Y+,r17
 6233               	.LBE881:
 6234               	.LBE880:
 6235               	.LBB882:
 6236               	.LBB883:
 6237               	.LM565:
 6238 1ea0 CC24      		clr r12
 6239 1ea2 DD24      		clr r13
 6240 1ea4 C201      		movw r24,r4
 6241 1ea6 B101      		movw r22,r2
 6242 1ea8 A601      		movw r20,r12
 6243 1eaa 9501      		movw r18,r10
 6244 1eac 0E94 0000 		call __divmodsi4
 6245 1eb0 8824      		clr r8
 6246 1eb2 9924      		clr r9
 6247 1eb4 660E      		add r6,r22
 6248 1eb6 771E      		adc r7,r23
 6249 1eb8 881E      		adc r8,r24
 6250 1eba 991E      		adc r9,r25
 6251 1ebc 6882      		st Y,r6
 6252 1ebe 7982      		std Y+1,r7
 6253 1ec0 8A82      		std Y+2,r8
 6254 1ec2 9B82      		std Y+3,r9
 6255               	.LVL404:
 6256               	.L277:
 6257               	/* epilogue start */
 6258               	.LBE883:
 6259               	.LBE882:
 6260               	.LM566:
 6261 1ec4 DF91      		pop r29
 6262 1ec6 CF91      		pop r28
 6263 1ec8 1F91      		pop r17
 6264 1eca 0F91      		pop r16
 6265               	.LVL405:
 6266 1ecc FF90      		pop r15
 6267 1ece EF90      		pop r14
 6268               	.LVL406:
 6269 1ed0 DF90      		pop r13
 6270 1ed2 CF90      		pop r12
 6271 1ed4 BF90      		pop r11
 6272 1ed6 AF90      		pop r10
 6273 1ed8 9F90      		pop r9
 6274 1eda 8F90      		pop r8
 6275 1edc 7F90      		pop r7
 6276 1ede 6F90      		pop r6
 6277 1ee0 5F90      		pop r5
 6278 1ee2 4F90      		pop r4
 6279 1ee4 3F90      		pop r3
 6280 1ee6 2F90      		pop r2
 6281               	.LVL407:
 6282 1ee8 0895      		ret
 6283               	.LFE104:
 6285               	.global	Timebase_DownCounter_SS_Expired
 6287               	Timebase_DownCounter_SS_Expired:
 6288               	.LFB105:
 6289               	.LM567:
 6290               	.LVL408:
 6291               	/* prologue: function */
 6292               	/* frame size = 0 */
 6293               	.LM568:
 6294 1eea 40E0      		ldi r20,lo8(0)
 6295 1eec E091 0000 		lds r30,Timebase
 6296 1ef0 F091 0000 		lds r31,(Timebase)+1
 6297 1ef4 90E0      		ldi r25,lo8(0)
 6298               	.LVL409:
 6299 1ef6 9C01      		movw r18,r24
 6300 1ef8 54E0      		ldi r21,4
 6301 1efa 220F      	1:	lsl r18
 6302 1efc 331F      		rol r19
 6303 1efe 5A95      		dec r21
 6304 1f00 01F4      		brne 1b
 6305 1f02 280F      		add r18,r24
 6306 1f04 391F      		adc r19,r25
 6307 1f06 E20F      		add r30,r18
 6308 1f08 F31F      		adc r31,r19
 6309 1f0a EC5B      		subi r30,lo8(-(68))
 6310 1f0c FF4F      		sbci r31,hi8(-(68))
 6311 1f0e 8081      		ld r24,Z
 6312               	.LVL410:
 6313 1f10 8695      		lsr r24
 6314 1f12 8F70      		andi r24,lo8(15)
 6315 1f14 8430      		cpi r24,lo8(4)
 6316 1f16 01F4      		brne .L279
 6317 1f18 41E0      		ldi r20,lo8(1)
 6318               	.L279:
 6319               	.LM569:
 6320 1f1a 842F      		mov r24,r20
 6321               	/* epilogue start */
 6322 1f1c 0895      		ret
 6323               	.LFE105:
 6325               	.global	Timebase_DownCounter_SS_Expired_Event
 6327               	Timebase_DownCounter_SS_Expired_Event:
 6328               	.LFB106:
 6329               	.LM570:
 6330               	.LVL411:
 6331               	/* prologue: function */
 6332               	/* frame size = 0 */
 6333               	.LBB884:
 6334               	.LBB885:
 6335               	.LM571:
 6336 1f1e E091 0000 		lds r30,Timebase
 6337 1f22 F091 0000 		lds r31,(Timebase)+1
 6338 1f26 90E0      		ldi r25,lo8(0)
 6339               	.LBE885:
 6340               	.LBE884:
 6341               	.LM572:
 6342 1f28 9C01      		movw r18,r24
 6343               	.LVL412:
 6344 1f2a 64E0      		ldi r22,4
 6345 1f2c 220F      	1:	lsl r18
 6346 1f2e 331F      		rol r19
 6347 1f30 6A95      		dec r22
 6348 1f32 01F4      		brne 1b
 6349 1f34 280F      		add r18,r24
 6350 1f36 391F      		adc r19,r25
 6351 1f38 E20F      		add r30,r18
 6352 1f3a F31F      		adc r31,r19
 6353 1f3c DF01      		movw r26,r30
 6354 1f3e AC5B      		subi r26,lo8(-(68))
 6355 1f40 BF4F      		sbci r27,hi8(-(68))
 6356 1f42 8C91      		ld r24,X
 6357 1f44 8695      		lsr r24
 6358 1f46 8F70      		andi r24,lo8(15)
 6359 1f48 8430      		cpi r24,lo8(4)
 6360 1f4a 01F0      		breq .L282
 6361 1f4c 80E0      		ldi r24,lo8(0)
 6362 1f4e 0895      		ret
 6363               	.L282:
 6364               	.LBB886:
 6365               	.LBB887:
 6366               	.LBB888:
 6367               	.LBB889:
 6368               	.LBB890:
 6369               	.LBB891:
 6370               	.LM573:
 6371 1f50 E75B      		subi r30,lo8(-(73))
 6372 1f52 FF4F      		sbci r31,hi8(-(73))
 6373 1f54 1082      		st Z,__zero_reg__
 6374 1f56 1182      		std Z+1,__zero_reg__
 6375 1f58 1282      		std Z+2,__zero_reg__
 6376 1f5a 1382      		std Z+3,__zero_reg__
 6377               	.LBE891:
 6378               	.LBE890:
 6379               	.LBB892:
 6380               	.LBB893:
 6381               	.LM574:
 6382 1f5c 1292      		st -Z,__zero_reg__
 6383 1f5e 1292      		st -Z,__zero_reg__
 6384 1f60 1292      		st -Z,__zero_reg__
 6385 1f62 1292      		st -Z,__zero_reg__
 6386               	.LBE893:
 6387               	.LBE892:
 6388               	.LBB894:
 6389               	.LBB895:
 6390               	.LM575:
 6391 1f64 3896      		adiw r30,8
 6392 1f66 1082      		st Z,__zero_reg__
 6393 1f68 1182      		std Z+1,__zero_reg__
 6394 1f6a 1282      		std Z+2,__zero_reg__
 6395 1f6c 1382      		std Z+3,__zero_reg__
 6396               	.LBE895:
 6397               	.LBE894:
 6398               	.LBB896:
 6399               	.LBB897:
 6400               	.LM576:
 6401 1f6e 8C91      		ld r24,X
 6402               	.LBE897:
 6403               	.LBE896:
 6404               	.LBB898:
 6405               	.LBB899:
 6406               	.LM577:
 6407 1f70 807E      		andi r24,lo8(-32)
 6408 1f72 8C93      		st X,r24
 6409 1f74 81E0      		ldi r24,lo8(1)
 6410               	.LBE899:
 6411               	.LBE898:
 6412               	.LBE889:
 6413               	.LBE888:
 6414               	.LBE887:
 6415               	.LBE886:
 6416               	.LM578:
 6417 1f76 0895      		ret
 6418               	.LFE106:
 6420               	.global	Timebase_DownCounter_SS_Set_Period_Value_Securely
 6422               	Timebase_DownCounter_SS_Set_Period_Value_Securely:
 6423               	.LFB107:
 6424               	.LM579:
 6425               	.LVL413:
 6426 1f78 CF93      		push r28
 6427 1f7a DF93      		push r29
 6428               	/* prologue: function */
 6429               	/* frame size = 0 */
 6430               	.LBB900:
 6431               	.LBB901:
 6432               	.LM580:
 6433 1f7c C091 0000 		lds r28,Timebase
 6434 1f80 D091 0000 		lds r29,(Timebase)+1
 6435 1f84 282F      		mov r18,r24
 6436 1f86 30E0      		ldi r19,lo8(0)
 6437               	.LBE901:
 6438               	.LBE900:
 6439               	.LM581:
 6440 1f88 F901      		movw r30,r18
 6441 1f8a A4E0      		ldi r26,4
 6442 1f8c EE0F      	1:	lsl r30
 6443 1f8e FF1F      		rol r31
 6444 1f90 AA95      		dec r26
 6445 1f92 01F4      		brne 1b
 6446 1f94 E20F      		add r30,r18
 6447 1f96 F31F      		adc r31,r19
 6448 1f98 EC0F      		add r30,r28
 6449 1f9a FD1F      		adc r31,r29
 6450 1f9c EC5B      		subi r30,lo8(-(68))
 6451 1f9e FF4F      		sbci r31,hi8(-(68))
 6452 1fa0 8081      		ld r24,Z
 6453               	.LVL414:
 6454 1fa2 E454      		subi r30,lo8(-(-68))
 6455 1fa4 F040      		sbci r31,hi8(-(-68))
 6456 1fa6 80FD      		sbrc r24,0
 6457 1fa8 00C0      		rjmp .L289
 6458               	.LM582:
 6459 1faa E35B      		subi r30,lo8(-(77))
 6460 1fac FF4F      		sbci r31,hi8(-(77))
 6461 1fae 8191      		ld r24,Z+
 6462 1fb0 9191      		ld r25,Z+
 6463 1fb2 A191      		ld r26,Z+
 6464 1fb4 B191      		ld r27,Z+
 6465 1fb6 841B      		sub r24,r20
 6466 1fb8 950B      		sbc r25,r21
 6467 1fba A60B      		sbc r26,r22
 6468 1fbc B70B      		sbc r27,r23
 6469               	.LBB902:
 6470               	.LBB903:
 6471               	.LM583:
 6472 1fbe B7FF      		sbrs r27,7
 6473 1fc0 00C0      		rjmp .L287
 6474               	.LM584:
 6475 1fc2 1082      		st Z,__zero_reg__
 6476 1fc4 1182      		std Z+1,__zero_reg__
 6477 1fc6 1282      		std Z+2,__zero_reg__
 6478 1fc8 1382      		std Z+3,__zero_reg__
 6479 1fca 00C0      		rjmp .L288
 6480               	.L287:
 6481               	.LM585:
 6482 1fcc 8083      		st Z,r24
 6483 1fce 9183      		std Z+1,r25
 6484 1fd0 A283      		std Z+2,r26
 6485 1fd2 B383      		std Z+3,r27
 6486               	.L288:
 6487               	.LBE903:
 6488               	.LBE902:
 6489               	.LBB904:
 6490               	.LBB905:
 6491               	.LM586:
 6492 1fd4 F901      		movw r30,r18
 6493 1fd6 74E0      		ldi r23,4
 6494 1fd8 EE0F      	1:	lsl r30
 6495 1fda FF1F      		rol r31
 6496 1fdc 7A95      		dec r23
 6497 1fde 01F4      		brne 1b
 6498 1fe0 E20F      		add r30,r18
 6499 1fe2 F31F      		adc r31,r19
 6500 1fe4 EC0F      		add r30,r28
 6501 1fe6 FD1F      		adc r31,r29
 6502 1fe8 EC5B      		subi r30,lo8(-(68))
 6503 1fea FF4F      		sbci r31,hi8(-(68))
 6504 1fec 8081      		ld r24,Z
 6505 1fee 8160      		ori r24,lo8(1)
 6506 1ff0 8083      		st Z,r24
 6507               	.L289:
 6508               	/* epilogue start */
 6509               	.LBE905:
 6510               	.LBE904:
 6511               	.LM587:
 6512 1ff2 DF91      		pop r29
 6513 1ff4 CF91      		pop r28
 6514 1ff6 0895      		ret
 6515               	.LFE107:
 6517               	.global	Timebase_DownCounter_SS_Get_Remaining_Period_Value
 6519               	Timebase_DownCounter_SS_Get_Remaining_Period_Value:
 6520               	.LFB108:
 6521               	.LM588:
 6522               	.LVL415:
 6523               	/* prologue: function */
 6524               	/* frame size = 0 */
 6525               	.LBB906:
 6526               	.LBB907:
 6527               	.LM589:
 6528 1ff8 E091 0000 		lds r30,Timebase
 6529 1ffc F091 0000 		lds r31,(Timebase)+1
 6530 2000 90E0      		ldi r25,lo8(0)
 6531               	.LBE907:
 6532               	.LBE906:
 6533               	.LM590:
 6534 2002 9C01      		movw r18,r24
 6535               	.LVL416:
 6536 2004 B4E0      		ldi r27,4
 6537 2006 220F      	1:	lsl r18
 6538 2008 331F      		rol r19
 6539 200a BA95      		dec r27
 6540 200c 01F4      		brne 1b
 6541 200e 280F      		add r18,r24
 6542 2010 391F      		adc r19,r25
 6543 2012 E20F      		add r30,r18
 6544 2014 F31F      		adc r31,r19
 6545 2016 DF01      		movw r26,r30
 6546 2018 AF5A      		subi r26,lo8(-(81))
 6547 201a BF4F      		sbci r27,hi8(-(81))
 6548 201c E35B      		subi r30,lo8(-(77))
 6549 201e FF4F      		sbci r31,hi8(-(77))
 6550 2020 2081      		ld r18,Z
 6551 2022 3181      		ldd r19,Z+1
 6552 2024 4281      		ldd r20,Z+2
 6553 2026 5381      		ldd r21,Z+3
 6554               	.LVL417:
 6555 2028 8D91      		ld r24,X+
 6556 202a 9D91      		ld r25,X+
 6557 202c 0D90      		ld __tmp_reg__,X+
 6558 202e BC91      		ld r27,X
 6559 2030 A02D      		mov r26,__tmp_reg__
 6560 2032 281B      		sub r18,r24
 6561 2034 390B      		sbc r19,r25
 6562 2036 4A0B      		sbc r20,r26
 6563 2038 5B0B      		sbc r21,r27
 6564 203a 57FF      		sbrs r21,7
 6565 203c 00C0      		rjmp .L291
 6566 203e 20E0      		ldi r18,lo8(0)
 6567 2040 30E0      		ldi r19,hi8(0)
 6568 2042 40E0      		ldi r20,hlo8(0)
 6569 2044 50E0      		ldi r21,hhi8(0)
 6570               	.L291:
 6571               	.LM591:
 6572 2046 B901      		movw r22,r18
 6573               	.LVL418:
 6574 2048 CA01      		movw r24,r20
 6575               	/* epilogue start */
 6576 204a 0895      		ret
 6577               	.LFE108:
 6579               	.global	Timebase_DownCounter_SS_Period_Value_Expired
 6581               	Timebase_DownCounter_SS_Period_Value_Expired:
 6582               	.LFB109:
 6583               	.LM592:
 6584               	.LVL419:
 6585 204c CF93      		push r28
 6586 204e DF93      		push r29
 6587               	/* prologue: function */
 6588               	/* frame size = 0 */
 6589               	.LBB908:
 6590               	.LBB909:
 6591               	.LBB910:
 6592               	.LBB911:
 6593               	.LM593:
 6594 2050 C091 0000 		lds r28,Timebase
 6595 2054 D091 0000 		lds r29,(Timebase)+1
 6596 2058 682F      		mov r22,r24
 6597 205a 70E0      		ldi r23,lo8(0)
 6598               	.LBE911:
 6599               	.LBE910:
 6600               	.LM594:
 6601 205c FB01      		movw r30,r22
 6602 205e 44E0      		ldi r20,4
 6603 2060 EE0F      	1:	lsl r30
 6604 2062 FF1F      		rol r31
 6605 2064 4A95      		dec r20
 6606 2066 01F4      		brne 1b
 6607 2068 E60F      		add r30,r22
 6608 206a F71F      		adc r31,r23
 6609 206c EC0F      		add r30,r28
 6610 206e FD1F      		adc r31,r29
 6611 2070 DF01      		movw r26,r30
 6612 2072 AF5A      		subi r26,lo8(-(81))
 6613 2074 BF4F      		sbci r27,hi8(-(81))
 6614 2076 E35B      		subi r30,lo8(-(77))
 6615 2078 FF4F      		sbci r31,hi8(-(77))
 6616 207a 2081      		ld r18,Z
 6617 207c 3181      		ldd r19,Z+1
 6618 207e 4281      		ldd r20,Z+2
 6619 2080 5381      		ldd r21,Z+3
 6620               	.LVL420:
 6621 2082 8D91      		ld r24,X+
 6622 2084 9D91      		ld r25,X+
 6623 2086 0D90      		ld __tmp_reg__,X+
 6624 2088 BC91      		ld r27,X
 6625 208a A02D      		mov r26,__tmp_reg__
 6626               	.LVL421:
 6627 208c 281B      		sub r18,r24
 6628 208e 390B      		sbc r19,r25
 6629 2090 4A0B      		sbc r20,r26
 6630 2092 5B0B      		sbc r21,r27
 6631               	.LM595:
 6632 2094 57FD      		sbrc r21,7
 6633 2096 00C0      		rjmp .L294
 6634               	.LBE909:
 6635               	.LBE908:
 6636               	.LM596:
 6637 2098 2115      		cp r18,__zero_reg__
 6638 209a 3105      		cpc r19,__zero_reg__
 6639 209c 4105      		cpc r20,__zero_reg__
 6640 209e 5105      		cpc r21,__zero_reg__
 6641 20a0 01F0      		breq .L294
 6642 20a2 20E0      		ldi r18,lo8(0)
 6643               	.LVL422:
 6644 20a4 00C0      		rjmp .L295
 6645               	.LVL423:
 6646               	.L294:
 6647 20a6 20E0      		ldi r18,lo8(0)
 6648               	.LVL424:
 6649 20a8 CB01      		movw r24,r22
 6650 20aa 34E0      		ldi r19,4
 6651 20ac 880F      	1:	lsl r24
 6652 20ae 991F      		rol r25
 6653 20b0 3A95      		dec r19
 6654 20b2 01F4      		brne 1b
 6655 20b4 860F      		add r24,r22
 6656 20b6 971F      		adc r25,r23
 6657 20b8 C80F      		add r28,r24
 6658 20ba D91F      		adc r29,r25
 6659 20bc CC5B      		subi r28,lo8(-(68))
 6660 20be DF4F      		sbci r29,hi8(-(68))
 6661 20c0 8881      		ld r24,Y
 6662 20c2 80FF      		sbrs r24,0
 6663 20c4 21E0      		ldi r18,lo8(1)
 6664               	.L296:
 6665 20c6 81E0      		ldi r24,lo8(1)
 6666 20c8 2827      		eor r18,r24
 6667               	.L295:
 6668               	.LM597:
 6669 20ca 822F      		mov r24,r18
 6670               	/* epilogue start */
 6671 20cc DF91      		pop r29
 6672 20ce CF91      		pop r28
 6673 20d0 0895      		ret
 6674               	.LFE109:
 6676               	.global	Timebase_DownCounter_SS_Period_Value_Expired_Event
 6678               	Timebase_DownCounter_SS_Period_Value_Expired_Event:
 6679               	.LFB110:
 6680               	.LM598:
 6681               	.LVL425:
 6682 20d2 1F93      		push r17
 6683               	/* prologue: function */
 6684               	/* frame size = 0 */
 6685 20d4 182F      		mov r17,r24
 6686               	.LM599:
 6687 20d6 0E94 0000 		call Timebase_DownCounter_SS_Period_Value_Expired
 6688               	.LVL426:
 6689 20da 8130      		cpi r24,lo8(1)
 6690 20dc 01F0      		breq .L299
 6691 20de 80E0      		ldi r24,lo8(0)
 6692 20e0 00C0      		rjmp .L300
 6693               	.L299:
 6694               	.LBB912:
 6695               	.LBB913:
 6696               	.LM600:
 6697 20e2 E091 0000 		lds r30,Timebase
 6698 20e6 F091 0000 		lds r31,(Timebase)+1
 6699 20ea 212F      		mov r18,r17
 6700 20ec 30E0      		ldi r19,lo8(0)
 6701               	.LVL427:
 6702 20ee C901      		movw r24,r18
 6703 20f0 54E0      		ldi r21,4
 6704 20f2 880F      	1:	lsl r24
 6705 20f4 991F      		rol r25
 6706 20f6 5A95      		dec r21
 6707 20f8 01F4      		brne 1b
 6708 20fa 820F      		add r24,r18
 6709 20fc 931F      		adc r25,r19
 6710 20fe E80F      		add r30,r24
 6711 2100 F91F      		adc r31,r25
 6712 2102 EC5B      		subi r30,lo8(-(68))
 6713 2104 FF4F      		sbci r31,hi8(-(68))
 6714 2106 8081      		ld r24,Z
 6715 2108 8E7F      		andi r24,lo8(-2)
 6716 210a 8083      		st Z,r24
 6717 210c 81E0      		ldi r24,lo8(1)
 6718               	.L300:
 6719               	/* epilogue start */
 6720               	.LBE913:
 6721               	.LBE912:
 6722               	.LM601:
 6723 210e 1F91      		pop r17
 6724               	.LVL428:
 6725 2110 0895      		ret
 6726               	.LFE110:
 6728               	.global	Timebase_DownCounter_SS_Update_All
 6730               	Timebase_DownCounter_SS_Update_All:
 6731               	.LFB111:
 6732               	.LM602:
 6733               	/* prologue: function */
 6734               	/* frame size = 0 */
 6735               	.LBB914:
 6736               	.LM603:
 6737 2112 80E0      		ldi r24,lo8(0)
 6738 2114 0E94 0000 		call Timebase_DownCounter_SS_Update
 6739               	/* epilogue start */
 6740               	.LBE914:
 6741               	.LM604:
 6742 2118 0895      		ret
 6743               	.LFE111:
 6745               	.global	Timebase_DownCounter_SS_Reset_All
 6747               	Timebase_DownCounter_SS_Reset_All:
 6748               	.LFB112:
 6749               	.LM605:
 6750               	/* prologue: function */
 6751               	/* frame size = 0 */
 6752               	.LBB915:
 6753               	.LBB916:
 6754               	.LBB917:
 6755               	.LBB918:
 6756               	.LBB919:
 6757               	.LM606:
 6758 211a E091 0000 		lds r30,Timebase
 6759 211e F091 0000 		lds r31,(Timebase)+1
 6760 2122 E75B      		subi r30,lo8(-(73))
 6761 2124 FF4F      		sbci r31,hi8(-(73))
 6762 2126 1082      		st Z,__zero_reg__
 6763 2128 1182      		std Z+1,__zero_reg__
 6764 212a 1282      		std Z+2,__zero_reg__
 6765 212c 1382      		std Z+3,__zero_reg__
 6766               	.LBE919:
 6767               	.LBE918:
 6768               	.LBB920:
 6769               	.LBB921:
 6770               	.LM607:
 6771 212e 1292      		st -Z,__zero_reg__
 6772 2130 1292      		st -Z,__zero_reg__
 6773 2132 1292      		st -Z,__zero_reg__
 6774 2134 1292      		st -Z,__zero_reg__
 6775               	.LBE921:
 6776               	.LBE920:
 6777               	.LBB922:
 6778               	.LBB923:
 6779               	.LM608:
 6780 2136 3896      		adiw r30,8
 6781 2138 1082      		st Z,__zero_reg__
 6782 213a 1182      		std Z+1,__zero_reg__
 6783 213c 1282      		std Z+2,__zero_reg__
 6784 213e 1382      		std Z+3,__zero_reg__
 6785               	.LBE923:
 6786               	.LBE922:
 6787               	.LBB924:
 6788               	.LBB925:
 6789               	.LM609:
 6790 2140 3997      		sbiw r30,9
 6791 2142 8081      		ld r24,Z
 6792               	.LBE925:
 6793               	.LBE924:
 6794               	.LBB926:
 6795               	.LBB927:
 6796               	.LM610:
 6797 2144 807E      		andi r24,lo8(-32)
 6798 2146 8083      		st Z,r24
 6799               	/* epilogue start */
 6800               	.LBE927:
 6801               	.LBE926:
 6802               	.LBE917:
 6803               	.LBE916:
 6804               	.LBE915:
 6805               	.LM611:
 6806 2148 0895      		ret
 6807               	.LFE112:
 6809               	.global	Timebase_DownCounter_Get_Status
 6811               	Timebase_DownCounter_Get_Status:
 6812               	.LFB113:
 6813               	.LM612:
 6814               	.LVL429:
 6815               	/* prologue: function */
 6816               	/* frame size = 0 */
 6817               	.LM613:
 6818 214a E091 0000 		lds r30,Timebase
 6819 214e F091 0000 		lds r31,(Timebase)+1
 6820 2152 90E0      		ldi r25,lo8(0)
 6821               	.LVL430:
 6822 2154 2DE0      		ldi r18,lo8(13)
 6823 2156 30E0      		ldi r19,hi8(13)
 6824 2158 AC01      		movw r20,r24
 6825 215a 429F      		mul r20,r18
 6826 215c C001      		movw r24,r0
 6827 215e 439F      		mul r20,r19
 6828 2160 900D      		add r25,r0
 6829 2162 529F      		mul r21,r18
 6830 2164 900D      		add r25,r0
 6831 2166 1124      		clr r1
 6832               	.LVL431:
 6833 2168 E80F      		add r30,r24
 6834 216a F91F      		adc r31,r25
 6835 216c EB5A      		subi r30,lo8(-(85))
 6836 216e FF4F      		sbci r31,hi8(-(85))
 6837 2170 8081      		ld r24,Z
 6838 2172 8695      		lsr r24
 6839               	.LM614:
 6840 2174 8F70      		andi r24,lo8(15)
 6841               	/* epilogue start */
 6842 2176 0895      		ret
 6843               	.LFE113:
 6845               	.global	Timebase_DownCounter_Set_Status
 6847               	Timebase_DownCounter_Set_Status:
 6848               	.LFB114:
 6849               	.LM615:
 6850               	.LVL432:
 6851               	/* prologue: function */
 6852               	/* frame size = 0 */
 6853               	.LM616:
 6854 2178 E091 0000 		lds r30,Timebase
 6855 217c F091 0000 		lds r31,(Timebase)+1
 6856 2180 90E0      		ldi r25,lo8(0)
 6857               	.LVL433:
 6858 2182 2DE0      		ldi r18,lo8(13)
 6859 2184 30E0      		ldi r19,hi8(13)
 6860 2186 AC01      		movw r20,r24
 6861 2188 429F      		mul r20,r18
 6862 218a C001      		movw r24,r0
 6863 218c 439F      		mul r20,r19
 6864 218e 900D      		add r25,r0
 6865 2190 529F      		mul r21,r18
 6866 2192 900D      		add r25,r0
 6867 2194 1124      		clr r1
 6868               	.LVL434:
 6869 2196 E80F      		add r30,r24
 6870 2198 F91F      		adc r31,r25
 6871 219a EB5A      		subi r30,lo8(-(85))
 6872 219c FF4F      		sbci r31,hi8(-(85))
 6873 219e 6F70      		andi r22,lo8(15)
 6874               	.LVL435:
 6875 21a0 660F      		lsl r22
 6876 21a2 8081      		ld r24,Z
 6877 21a4 817E      		andi r24,lo8(-31)
 6878 21a6 862B      		or r24,r22
 6879 21a8 8083      		st Z,r24
 6880               	/* epilogue start */
 6881               	.LM617:
 6882 21aa 0895      		ret
 6883               	.LFE114:
 6885               	.global	Timebase_DownCounter_Get_Value
 6887               	Timebase_DownCounter_Get_Value:
 6888               	.LFB115:
 6889               	.LM618:
 6890               	.LVL436:
 6891               	/* prologue: function */
 6892               	/* frame size = 0 */
 6893               	.LM619:
 6894 21ac E091 0000 		lds r30,Timebase
 6895 21b0 F091 0000 		lds r31,(Timebase)+1
 6896 21b4 90E0      		ldi r25,lo8(0)
 6897               	.LVL437:
 6898 21b6 2DE0      		ldi r18,lo8(13)
 6899 21b8 30E0      		ldi r19,hi8(13)
 6900 21ba AC01      		movw r20,r24
 6901 21bc 429F      		mul r20,r18
 6902 21be C001      		movw r24,r0
 6903 21c0 439F      		mul r20,r19
 6904 21c2 900D      		add r25,r0
 6905 21c4 529F      		mul r21,r18
 6906 21c6 900D      		add r25,r0
 6907 21c8 1124      		clr r1
 6908               	.LVL438:
 6909 21ca E80F      		add r30,r24
 6910 21cc F91F      		adc r31,r25
 6911 21ce E65A      		subi r30,lo8(-(90))
 6912 21d0 FF4F      		sbci r31,hi8(-(90))
 6913 21d2 6081      		ld r22,Z
 6914 21d4 7181      		ldd r23,Z+1
 6915               	.LM620:
 6916 21d6 8281      		ldd r24,Z+2
 6917 21d8 9381      		ldd r25,Z+3
 6918               	.LVL439:
 6919               	/* epilogue start */
 6920 21da 0895      		ret
 6921               	.LFE115:
 6923               	.global	Timebase_DownCounter_Set_Value
 6925               	Timebase_DownCounter_Set_Value:
 6926               	.LFB116:
 6927               	.LM621:
 6928               	.LVL440:
 6929               	/* prologue: function */
 6930               	/* frame size = 0 */
 6931               	.LM622:
 6932 21dc E091 0000 		lds r30,Timebase
 6933 21e0 F091 0000 		lds r31,(Timebase)+1
 6934 21e4 90E0      		ldi r25,lo8(0)
 6935               	.LVL441:
 6936 21e6 2DE0      		ldi r18,lo8(13)
 6937 21e8 30E0      		ldi r19,hi8(13)
 6938 21ea DC01      		movw r26,r24
 6939 21ec A29F      		mul r26,r18
 6940 21ee C001      		movw r24,r0
 6941 21f0 A39F      		mul r26,r19
 6942 21f2 900D      		add r25,r0
 6943 21f4 B29F      		mul r27,r18
 6944 21f6 900D      		add r25,r0
 6945 21f8 1124      		clr r1
 6946               	.LVL442:
 6947 21fa E80F      		add r30,r24
 6948 21fc F91F      		adc r31,r25
 6949 21fe E65A      		subi r30,lo8(-(90))
 6950 2200 FF4F      		sbci r31,hi8(-(90))
 6951 2202 4083      		st Z,r20
 6952 2204 5183      		std Z+1,r21
 6953 2206 6283      		std Z+2,r22
 6954 2208 7383      		std Z+3,r23
 6955               	/* epilogue start */
 6956               	.LM623:
 6957 220a 0895      		ret
 6958               	.LFE116:
 6960               	.global	Timebase_DownCounter_Get_EndValue
 6962               	Timebase_DownCounter_Get_EndValue:
 6963               	.LFB117:
 6964               	.LM624:
 6965               	.LVL443:
 6966               	/* prologue: function */
 6967               	/* frame size = 0 */
 6968               	.LM625:
 6969 220c E091 0000 		lds r30,Timebase
 6970 2210 F091 0000 		lds r31,(Timebase)+1
 6971 2214 90E0      		ldi r25,lo8(0)
 6972               	.LVL444:
 6973 2216 2DE0      		ldi r18,lo8(13)
 6974 2218 30E0      		ldi r19,hi8(13)
 6975 221a AC01      		movw r20,r24
 6976 221c 429F      		mul r20,r18
 6977 221e C001      		movw r24,r0
 6978 2220 439F      		mul r20,r19
 6979 2222 900D      		add r25,r0
 6980 2224 529F      		mul r21,r18
 6981 2226 900D      		add r25,r0
 6982 2228 1124      		clr r1
 6983               	.LVL445:
 6984 222a E80F      		add r30,r24
 6985 222c F91F      		adc r31,r25
 6986 222e EA5A      		subi r30,lo8(-(86))
 6987 2230 FF4F      		sbci r31,hi8(-(86))
 6988 2232 6081      		ld r22,Z
 6989 2234 7181      		ldd r23,Z+1
 6990               	.LM626:
 6991 2236 8281      		ldd r24,Z+2
 6992 2238 9381      		ldd r25,Z+3
 6993               	.LVL446:
 6994               	/* epilogue start */
 6995 223a 0895      		ret
 6996               	.LFE117:
 6998               	.global	Timebase_DownCounter_Set_EndValue
 7000               	Timebase_DownCounter_Set_EndValue:
 7001               	.LFB118:
 7002               	.LM627:
 7003               	.LVL447:
 7004               	/* prologue: function */
 7005               	/* frame size = 0 */
 7006               	.LM628:
 7007 223c E091 0000 		lds r30,Timebase
 7008 2240 F091 0000 		lds r31,(Timebase)+1
 7009 2244 90E0      		ldi r25,lo8(0)
 7010               	.LVL448:
 7011 2246 2DE0      		ldi r18,lo8(13)
 7012 2248 30E0      		ldi r19,hi8(13)
 7013 224a DC01      		movw r26,r24
 7014 224c A29F      		mul r26,r18
 7015 224e C001      		movw r24,r0
 7016 2250 A39F      		mul r26,r19
 7017 2252 900D      		add r25,r0
 7018 2254 B29F      		mul r27,r18
 7019 2256 900D      		add r25,r0
 7020 2258 1124      		clr r1
 7021               	.LVL449:
 7022 225a E80F      		add r30,r24
 7023 225c F91F      		adc r31,r25
 7024 225e EA5A      		subi r30,lo8(-(86))
 7025 2260 FF4F      		sbci r31,hi8(-(86))
 7026 2262 4083      		st Z,r20
 7027 2264 5183      		std Z+1,r21
 7028 2266 6283      		std Z+2,r22
 7029 2268 7383      		std Z+3,r23
 7030               	/* epilogue start */
 7031               	.LM629:
 7032 226a 0895      		ret
 7033               	.LFE118:
 7035               	.global	Timebase_DownCounter_Get_PeriodValue
 7037               	Timebase_DownCounter_Get_PeriodValue:
 7038               	.LFB119:
 7039               	.LM630:
 7040               	.LVL450:
 7041               	/* prologue: function */
 7042               	/* frame size = 0 */
 7043               	.LM631:
 7044 226c E091 0000 		lds r30,Timebase
 7045 2270 F091 0000 		lds r31,(Timebase)+1
 7046 2274 90E0      		ldi r25,lo8(0)
 7047               	.LVL451:
 7048 2276 2DE0      		ldi r18,lo8(13)
 7049 2278 30E0      		ldi r19,hi8(13)
 7050 227a AC01      		movw r20,r24
 7051 227c 429F      		mul r20,r18
 7052 227e C001      		movw r24,r0
 7053 2280 439F      		mul r20,r19
 7054 2282 900D      		add r25,r0
 7055 2284 529F      		mul r21,r18
 7056 2286 900D      		add r25,r0
 7057 2288 1124      		clr r1
 7058               	.LVL452:
 7059 228a E80F      		add r30,r24
 7060 228c F91F      		adc r31,r25
 7061 228e E25A      		subi r30,lo8(-(94))
 7062 2290 FF4F      		sbci r31,hi8(-(94))
 7063 2292 6081      		ld r22,Z
 7064 2294 7181      		ldd r23,Z+1
 7065               	.LM632:
 7066 2296 8281      		ldd r24,Z+2
 7067 2298 9381      		ldd r25,Z+3
 7068               	.LVL453:
 7069               	/* epilogue start */
 7070 229a 0895      		ret
 7071               	.LFE119:
 7073               	.global	Timebase_DownCounter_Set_PeriodValue
 7075               	Timebase_DownCounter_Set_PeriodValue:
 7076               	.LFB120:
 7077               	.LM633:
 7078               	.LVL454:
 7079               	/* prologue: function */
 7080               	/* frame size = 0 */
 7081 229c E091 0000 		lds r30,Timebase
 7082 22a0 F091 0000 		lds r31,(Timebase)+1
 7083 22a4 282F      		mov r18,r24
 7084 22a6 30E0      		ldi r19,lo8(0)
 7085               	.LVL455:
 7086               	.LM634:
 7087 22a8 77FF      		sbrs r23,7
 7088 22aa 00C0      		rjmp .L321
 7089               	.LVL456:
 7090               	.LM635:
 7091 22ac 8DE0      		ldi r24,lo8(13)
 7092 22ae 90E0      		ldi r25,hi8(13)
 7093 22b0 AC01      		movw r20,r24
 7094               	.LVL457:
 7095 22b2 249F      		mul r18,r20
 7096 22b4 C001      		movw r24,r0
 7097 22b6 259F      		mul r18,r21
 7098 22b8 900D      		add r25,r0
 7099 22ba 349F      		mul r19,r20
 7100 22bc 900D      		add r25,r0
 7101 22be 1124      		clr r1
 7102 22c0 E80F      		add r30,r24
 7103 22c2 F91F      		adc r31,r25
 7104 22c4 E25A      		subi r30,lo8(-(94))
 7105 22c6 FF4F      		sbci r31,hi8(-(94))
 7106 22c8 1082      		st Z,__zero_reg__
 7107 22ca 1182      		std Z+1,__zero_reg__
 7108 22cc 1282      		std Z+2,__zero_reg__
 7109 22ce 1382      		std Z+3,__zero_reg__
 7110 22d0 0895      		ret
 7111               	.LVL458:
 7112               	.L321:
 7113               	.LM636:
 7114 22d2 8DE0      		ldi r24,lo8(13)
 7115 22d4 90E0      		ldi r25,hi8(13)
 7116 22d6 DC01      		movw r26,r24
 7117 22d8 2A9F      		mul r18,r26
 7118 22da C001      		movw r24,r0
 7119 22dc 2B9F      		mul r18,r27
 7120 22de 900D      		add r25,r0
 7121 22e0 3A9F      		mul r19,r26
 7122 22e2 900D      		add r25,r0
 7123 22e4 1124      		clr r1
 7124 22e6 E80F      		add r30,r24
 7125 22e8 F91F      		adc r31,r25
 7126 22ea E25A      		subi r30,lo8(-(94))
 7127 22ec FF4F      		sbci r31,hi8(-(94))
 7128 22ee 4083      		st Z,r20
 7129 22f0 5183      		std Z+1,r21
 7130 22f2 6283      		std Z+2,r22
 7131 22f4 7383      		std Z+3,r23
 7132 22f6 0895      		ret
 7133               	.LFE120:
 7135               	.global	Timebase_DownCounter_Get_Period_Flag
 7137               	Timebase_DownCounter_Get_Period_Flag:
 7138               	.LFB121:
 7139               	.LM637:
 7140               	.LVL459:
 7141               	/* prologue: function */
 7142               	/* frame size = 0 */
 7143               	.LM638:
 7144 22f8 E091 0000 		lds r30,Timebase
 7145 22fc F091 0000 		lds r31,(Timebase)+1
 7146 2300 90E0      		ldi r25,lo8(0)
 7147               	.LVL460:
 7148 2302 2DE0      		ldi r18,lo8(13)
 7149 2304 30E0      		ldi r19,hi8(13)
 7150 2306 AC01      		movw r20,r24
 7151 2308 429F      		mul r20,r18
 7152 230a C001      		movw r24,r0
 7153 230c 439F      		mul r20,r19
 7154 230e 900D      		add r25,r0
 7155 2310 529F      		mul r21,r18
 7156 2312 900D      		add r25,r0
 7157 2314 1124      		clr r1
 7158               	.LVL461:
 7159 2316 E80F      		add r30,r24
 7160 2318 F91F      		adc r31,r25
 7161 231a EB5A      		subi r30,lo8(-(85))
 7162 231c FF4F      		sbci r31,hi8(-(85))
 7163 231e 8081      		ld r24,Z
 7164               	.LM639:
 7165 2320 8170      		andi r24,lo8(1)
 7166               	/* epilogue start */
 7167 2322 0895      		ret
 7168               	.LFE121:
 7170               	.global	Timebase_DownCounter_Set_Period_Flag
 7172               	Timebase_DownCounter_Set_Period_Flag:
 7173               	.LFB122:
 7174               	.LM640:
 7175               	.LVL462:
 7176               	/* prologue: function */
 7177               	/* frame size = 0 */
 7178               	.LM641:
 7179 2324 E091 0000 		lds r30,Timebase
 7180 2328 F091 0000 		lds r31,(Timebase)+1
 7181 232c 90E0      		ldi r25,lo8(0)
 7182               	.LVL463:
 7183 232e 2DE0      		ldi r18,lo8(13)
 7184 2330 30E0      		ldi r19,hi8(13)
 7185 2332 AC01      		movw r20,r24
 7186 2334 429F      		mul r20,r18
 7187 2336 C001      		movw r24,r0
 7188 2338 439F      		mul r20,r19
 7189 233a 900D      		add r25,r0
 7190 233c 529F      		mul r21,r18
 7191 233e 900D      		add r25,r0
 7192 2340 1124      		clr r1
 7193               	.LVL464:
 7194 2342 E80F      		add r30,r24
 7195 2344 F91F      		adc r31,r25
 7196 2346 EB5A      		subi r30,lo8(-(85))
 7197 2348 FF4F      		sbci r31,hi8(-(85))
 7198 234a 8081      		ld r24,Z
 7199 234c 8160      		ori r24,lo8(1)
 7200 234e 8083      		st Z,r24
 7201               	/* epilogue start */
 7202               	.LM642:
 7203 2350 0895      		ret
 7204               	.LFE122:
 7206               	.global	Timebase_DownCounter_Clear_Period_Flag
 7208               	Timebase_DownCounter_Clear_Period_Flag:
 7209               	.LFB123:
 7210               	.LM643:
 7211               	.LVL465:
 7212               	/* prologue: function */
 7213               	/* frame size = 0 */
 7214               	.LM644:
 7215 2352 E091 0000 		lds r30,Timebase
 7216 2356 F091 0000 		lds r31,(Timebase)+1
 7217 235a 90E0      		ldi r25,lo8(0)
 7218               	.LVL466:
 7219 235c 2DE0      		ldi r18,lo8(13)
 7220 235e 30E0      		ldi r19,hi8(13)
 7221 2360 AC01      		movw r20,r24
 7222 2362 429F      		mul r20,r18
 7223 2364 C001      		movw r24,r0
 7224 2366 439F      		mul r20,r19
 7225 2368 900D      		add r25,r0
 7226 236a 529F      		mul r21,r18
 7227 236c 900D      		add r25,r0
 7228 236e 1124      		clr r1
 7229               	.LVL467:
 7230 2370 E80F      		add r30,r24
 7231 2372 F91F      		adc r31,r25
 7232 2374 EB5A      		subi r30,lo8(-(85))
 7233 2376 FF4F      		sbci r31,hi8(-(85))
 7234 2378 8081      		ld r24,Z
 7235 237a 8E7F      		andi r24,lo8(-2)
 7236 237c 8083      		st Z,r24
 7237               	/* epilogue start */
 7238               	.LM645:
 7239 237e 0895      		ret
 7240               	.LFE123:
 7242               	.global	Timebase_DownCounter_Reset
 7244               	Timebase_DownCounter_Reset:
 7245               	.LFB124:
 7246               	.LM646:
 7247               	.LVL468:
 7248               	/* prologue: function */
 7249               	/* frame size = 0 */
 7250               	.LBB928:
 7251               	.LBB929:
 7252               	.LM647:
 7253 2380 E091 0000 		lds r30,Timebase
 7254 2384 F091 0000 		lds r31,(Timebase)+1
 7255 2388 90E0      		ldi r25,lo8(0)
 7256 238a 2DE0      		ldi r18,lo8(13)
 7257 238c 30E0      		ldi r19,hi8(13)
 7258 238e AC01      		movw r20,r24
 7259               	.LVL469:
 7260 2390 429F      		mul r20,r18
 7261 2392 C001      		movw r24,r0
 7262 2394 439F      		mul r20,r19
 7263 2396 900D      		add r25,r0
 7264 2398 529F      		mul r21,r18
 7265 239a 900D      		add r25,r0
 7266 239c 1124      		clr r1
 7267 239e E80F      		add r30,r24
 7268 23a0 F91F      		adc r31,r25
 7269 23a2 EA5A      		subi r30,lo8(-(86))
 7270 23a4 FF4F      		sbci r31,hi8(-(86))
 7271 23a6 1192      		st Z+,__zero_reg__
 7272 23a8 1192      		st Z+,__zero_reg__
 7273 23aa 1192      		st Z+,__zero_reg__
 7274 23ac 1192      		st Z+,__zero_reg__
 7275               	.LBE929:
 7276               	.LBE928:
 7277               	.LBB930:
 7278               	.LBB931:
 7279               	.LM648:
 7280 23ae 1082      		st Z,__zero_reg__
 7281 23b0 1182      		std Z+1,__zero_reg__
 7282 23b2 1282      		std Z+2,__zero_reg__
 7283 23b4 1382      		std Z+3,__zero_reg__
 7284               	.LBE931:
 7285               	.LBE930:
 7286               	.LBB932:
 7287               	.LBB933:
 7288               	.LM649:
 7289 23b6 3597      		sbiw r30,5
 7290 23b8 8081      		ld r24,Z
 7291               	.LBE933:
 7292               	.LBE932:
 7293               	.LBB934:
 7294               	.LBB935:
 7295               	.LM650:
 7296 23ba 807E      		andi r24,lo8(-32)
 7297 23bc 8083      		st Z,r24
 7298               	/* epilogue start */
 7299               	.LBE935:
 7300               	.LBE934:
 7301               	.LM651:
 7302 23be 0895      		ret
 7303               	.LFE124:
 7305               	.global	Timebase_DownCounter_Clear_All_Flags
 7307               	Timebase_DownCounter_Clear_All_Flags:
 7308               	.LFB125:
 7309               	.LM652:
 7310               	.LVL470:
 7311               	/* prologue: function */
 7312               	/* frame size = 0 */
 7313               	.LBB936:
 7314               	.LBB937:
 7315               	.LBB938:
 7316               	.LBB939:
 7317               	.LM653:
 7318 23c0 E091 0000 		lds r30,Timebase
 7319 23c4 F091 0000 		lds r31,(Timebase)+1
 7320 23c8 90E0      		ldi r25,lo8(0)
 7321 23ca 2DE0      		ldi r18,lo8(13)
 7322 23cc 30E0      		ldi r19,hi8(13)
 7323 23ce AC01      		movw r20,r24
 7324               	.LVL471:
 7325 23d0 429F      		mul r20,r18
 7326 23d2 C001      		movw r24,r0
 7327 23d4 439F      		mul r20,r19
 7328 23d6 900D      		add r25,r0
 7329 23d8 529F      		mul r21,r18
 7330 23da 900D      		add r25,r0
 7331 23dc 1124      		clr r1
 7332 23de E80F      		add r30,r24
 7333 23e0 F91F      		adc r31,r25
 7334 23e2 EA5A      		subi r30,lo8(-(86))
 7335 23e4 FF4F      		sbci r31,hi8(-(86))
 7336 23e6 1192      		st Z+,__zero_reg__
 7337 23e8 1192      		st Z+,__zero_reg__
 7338 23ea 1192      		st Z+,__zero_reg__
 7339 23ec 1192      		st Z+,__zero_reg__
 7340               	.LBE939:
 7341               	.LBE938:
 7342               	.LBB940:
 7343               	.LBB941:
 7344               	.LM654:
 7345 23ee 1082      		st Z,__zero_reg__
 7346 23f0 1182      		std Z+1,__zero_reg__
 7347 23f2 1282      		std Z+2,__zero_reg__
 7348 23f4 1382      		std Z+3,__zero_reg__
 7349               	.LBE941:
 7350               	.LBE940:
 7351               	.LBB942:
 7352               	.LBB943:
 7353               	.LM655:
 7354 23f6 3597      		sbiw r30,5
 7355 23f8 8081      		ld r24,Z
 7356               	.LBE943:
 7357               	.LBE942:
 7358               	.LBB944:
 7359               	.LBB945:
 7360               	.LM656:
 7361 23fa 807E      		andi r24,lo8(-32)
 7362 23fc 8083      		st Z,r24
 7363               	/* epilogue start */
 7364               	.LBE945:
 7365               	.LBE944:
 7366               	.LBE937:
 7367               	.LBE936:
 7368               	.LM657:
 7369 23fe 0895      		ret
 7370               	.LFE125:
 7372               	.global	Timebase_DownCounter_Start
 7374               	Timebase_DownCounter_Start:
 7375               	.LFB126:
 7376               	.LM658:
 7377               	.LVL472:
 7378               	/* prologue: function */
 7379               	/* frame size = 0 */
 7380               	.LBB946:
 7381               	.LBB947:
 7382               	.LM659:
 7383 2400 E091 0000 		lds r30,Timebase
 7384 2404 F091 0000 		lds r31,(Timebase)+1
 7385 2408 90E0      		ldi r25,lo8(0)
 7386               	.LBE947:
 7387               	.LBE946:
 7388               	.LM660:
 7389 240a 2DE0      		ldi r18,lo8(13)
 7390 240c 30E0      		ldi r19,hi8(13)
 7391 240e AC01      		movw r20,r24
 7392               	.LVL473:
 7393 2410 429F      		mul r20,r18
 7394 2412 C001      		movw r24,r0
 7395 2414 439F      		mul r20,r19
 7396 2416 900D      		add r25,r0
 7397 2418 529F      		mul r21,r18
 7398 241a 900D      		add r25,r0
 7399 241c 1124      		clr r1
 7400 241e E80F      		add r30,r24
 7401 2420 F91F      		adc r31,r25
 7402 2422 EB5A      		subi r30,lo8(-(85))
 7403 2424 FF4F      		sbci r31,hi8(-(85))
 7404 2426 9081      		ld r25,Z
 7405 2428 892F      		mov r24,r25
 7406 242a 8695      		lsr r24
 7407 242c 8F70      		andi r24,lo8(15)
 7408 242e 8130      		cpi r24,lo8(1)
 7409 2430 01F0      		breq .L336
 7410               	.LBB948:
 7411               	.LBB949:
 7412               	.LM661:
 7413 2432 917E      		andi r25,lo8(-31)
 7414 2434 9260      		ori r25,lo8(2)
 7415 2436 9083      		st Z,r25
 7416               	.L336:
 7417 2438 0895      		ret
 7418               	.LBE949:
 7419               	.LBE948:
 7420               	.LFE126:
 7422               	.global	Timebase_DownCounter_Stop
 7424               	Timebase_DownCounter_Stop:
 7425               	.LFB127:
 7426               	.LM662:
 7427               	.LVL474:
 7428               	/* prologue: function */
 7429               	/* frame size = 0 */
 7430               	.LBB950:
 7431               	.LBB951:
 7432               	.LM663:
 7433 243a E091 0000 		lds r30,Timebase
 7434 243e F091 0000 		lds r31,(Timebase)+1
 7435 2442 90E0      		ldi r25,lo8(0)
 7436               	.LBE951:
 7437               	.LBE950:
 7438               	.LM664:
 7439 2444 2DE0      		ldi r18,lo8(13)
 7440 2446 30E0      		ldi r19,hi8(13)
 7441 2448 AC01      		movw r20,r24
 7442               	.LVL475:
 7443 244a 429F      		mul r20,r18
 7444 244c C001      		movw r24,r0
 7445 244e 439F      		mul r20,r19
 7446 2450 900D      		add r25,r0
 7447 2452 529F      		mul r21,r18
 7448 2454 900D      		add r25,r0
 7449 2456 1124      		clr r1
 7450 2458 E80F      		add r30,r24
 7451 245a F91F      		adc r31,r25
 7452 245c EB5A      		subi r30,lo8(-(85))
 7453 245e FF4F      		sbci r31,hi8(-(85))
 7454 2460 9081      		ld r25,Z
 7455 2462 892F      		mov r24,r25
 7456 2464 8695      		lsr r24
 7457 2466 8F70      		andi r24,lo8(15)
 7458 2468 8230      		cpi r24,lo8(2)
 7459 246a 01F0      		breq .L339
 7460               	.LBB952:
 7461               	.LBB953:
 7462               	.LM665:
 7463 246c 917E      		andi r25,lo8(-31)
 7464 246e 9460      		ori r25,lo8(4)
 7465 2470 9083      		st Z,r25
 7466               	.L339:
 7467 2472 0895      		ret
 7468               	.LBE953:
 7469               	.LBE952:
 7470               	.LFE127:
 7472               	.global	Timebase_DownCounter_Set_Securely
 7474               	Timebase_DownCounter_Set_Securely:
 7475               	.LFB128:
 7476               	.LM666:
 7477               	.LVL476:
 7478 2474 CF93      		push r28
 7479 2476 DF93      		push r29
 7480               	/* prologue: function */
 7481               	/* frame size = 0 */
 7482               	.LBB954:
 7483               	.LBB955:
 7484               	.LM667:
 7485 2478 A091 0000 		lds r26,Timebase
 7486 247c B091 0000 		lds r27,(Timebase)+1
 7487 2480 90E0      		ldi r25,lo8(0)
 7488               	.LBE955:
 7489               	.LBE954:
 7490               	.LM668:
 7491 2482 2DE0      		ldi r18,lo8(13)
 7492 2484 30E0      		ldi r19,hi8(13)
 7493 2486 829F      		mul r24,r18
 7494 2488 F001      		movw r30,r0
 7495 248a 839F      		mul r24,r19
 7496 248c F00D      		add r31,r0
 7497 248e 929F      		mul r25,r18
 7498 2490 F00D      		add r31,r0
 7499 2492 1124      		clr r1
 7500               	.LVL477:
 7501 2494 EA0F      		add r30,r26
 7502 2496 FB1F      		adc r31,r27
 7503 2498 EF01      		movw r28,r30
 7504 249a CB5A      		subi r28,lo8(-(85))
 7505 249c DF4F      		sbci r29,hi8(-(85))
 7506 249e 8881      		ld r24,Y
 7507 24a0 8695      		lsr r24
 7508 24a2 8F70      		andi r24,lo8(15)
 7509 24a4 01F4      		brne .L342
 7510               	.LBB956:
 7511               	.LBB957:
 7512               	.LM669:
 7513 24a6 E65A      		subi r30,lo8(-(90))
 7514 24a8 FF4F      		sbci r31,hi8(-(90))
 7515 24aa 4083      		st Z,r20
 7516 24ac 5183      		std Z+1,r21
 7517 24ae 6283      		std Z+2,r22
 7518 24b0 7383      		std Z+3,r23
 7519               	.LBE957:
 7520               	.LBE956:
 7521               	.LBB958:
 7522               	.LBB959:
 7523               	.LM670:
 7524 24b2 1A96      		adiw r26,10
 7525 24b4 8D91      		ld r24,X+
 7526 24b6 9D91      		ld r25,X+
 7527 24b8 0D90      		ld __tmp_reg__,X+
 7528 24ba BC91      		ld r27,X
 7529 24bc A02D      		mov r26,__tmp_reg__
 7530               	.LBE959:
 7531               	.LBE958:
 7532               	.LBB960:
 7533               	.LBB961:
 7534               	.LM671:
 7535 24be 840F      		add r24,r20
 7536 24c0 951F      		adc r25,r21
 7537 24c2 A61F      		adc r26,r22
 7538 24c4 B71F      		adc r27,r23
 7539 24c6 B293      		st -Z,r27
 7540 24c8 A293      		st -Z,r26
 7541 24ca 9293      		st -Z,r25
 7542 24cc 8293      		st -Z,r24
 7543               	.LBE961:
 7544               	.LBE960:
 7545               	.LBB962:
 7546               	.LBB963:
 7547               	.LM672:
 7548 24ce 9881      		ld r25,Y
 7549 24d0 892F      		mov r24,r25
 7550 24d2 8695      		lsr r24
 7551 24d4 8F70      		andi r24,lo8(15)
 7552 24d6 8130      		cpi r24,lo8(1)
 7553 24d8 01F0      		breq .L342
 7554               	.LBB964:
 7555               	.LBB965:
 7556               	.LM673:
 7557 24da 917E      		andi r25,lo8(-31)
 7558 24dc 9260      		ori r25,lo8(2)
 7559 24de 9883      		st Y,r25
 7560               	.L342:
 7561               	/* epilogue start */
 7562               	.LBE965:
 7563               	.LBE964:
 7564               	.LBE963:
 7565               	.LBE962:
 7566               	.LM674:
 7567 24e0 DF91      		pop r29
 7568 24e2 CF91      		pop r28
 7569 24e4 0895      		ret
 7570               	.LFE128:
 7572               	.global	Timebase_DownCounter_Set_Forcefully
 7574               	Timebase_DownCounter_Set_Forcefully:
 7575               	.LFB129:
 7576               	.LM675:
 7577               	.LVL478:
 7578 24e6 CF93      		push r28
 7579 24e8 DF93      		push r29
 7580               	/* prologue: function */
 7581               	/* frame size = 0 */
 7582               	.LBB966:
 7583               	.LBB967:
 7584               	.LBB968:
 7585               	.LBB969:
 7586               	.LM676:
 7587 24ea E091 0000 		lds r30,Timebase
 7588 24ee F091 0000 		lds r31,(Timebase)+1
 7589 24f2 A82F      		mov r26,r24
 7590 24f4 B0E0      		ldi r27,lo8(0)
 7591 24f6 2DE0      		ldi r18,lo8(13)
 7592 24f8 30E0      		ldi r19,hi8(13)
 7593 24fa E901      		movw r28,r18
 7594 24fc AC9F      		mul r26,r28
 7595 24fe 9001      		movw r18,r0
 7596 2500 AD9F      		mul r26,r29
 7597 2502 300D      		add r19,r0
 7598 2504 BC9F      		mul r27,r28
 7599 2506 300D      		add r19,r0
 7600 2508 1124      		clr r1
 7601 250a E20F      		add r30,r18
 7602 250c F31F      		adc r31,r19
 7603 250e EA5A      		subi r30,lo8(-(86))
 7604 2510 FF4F      		sbci r31,hi8(-(86))
 7605 2512 1192      		st Z+,__zero_reg__
 7606 2514 1192      		st Z+,__zero_reg__
 7607 2516 1192      		st Z+,__zero_reg__
 7608 2518 1192      		st Z+,__zero_reg__
 7609               	.LBE969:
 7610               	.LBE968:
 7611               	.LBB970:
 7612               	.LBB971:
 7613               	.LM677:
 7614 251a 1082      		st Z,__zero_reg__
 7615 251c 1182      		std Z+1,__zero_reg__
 7616 251e 1282      		std Z+2,__zero_reg__
 7617 2520 1382      		std Z+3,__zero_reg__
 7618               	.LBE971:
 7619               	.LBE970:
 7620               	.LBB972:
 7621               	.LBB973:
 7622               	.LM678:
 7623 2522 3597      		sbiw r30,5
 7624 2524 9081      		ld r25,Z
 7625               	.LBE973:
 7626               	.LBE972:
 7627               	.LBB974:
 7628               	.LBB975:
 7629               	.LM679:
 7630 2526 907E      		andi r25,lo8(-32)
 7631 2528 9083      		st Z,r25
 7632               	.LBE975:
 7633               	.LBE974:
 7634               	.LBE967:
 7635               	.LBE966:
 7636               	.LM680:
 7637 252a 0E94 0000 		call Timebase_DownCounter_Set_Securely
 7638               	.LVL479:
 7639               	/* epilogue start */
 7640               	.LM681:
 7641 252e DF91      		pop r29
 7642 2530 CF91      		pop r28
 7643 2532 0895      		ret
 7644               	.LFE129:
 7646               	.global	Timebase_DownCounter_Update
 7648               	Timebase_DownCounter_Update:
 7649               	.LFB130:
 7650               	.LM682:
 7651               	.LVL480:
 7652 2534 0F93      		push r16
 7653 2536 1F93      		push r17
 7654 2538 CF93      		push r28
 7655 253a DF93      		push r29
 7656               	/* prologue: function */
 7657               	/* frame size = 0 */
 7658               	.LBB976:
 7659               	.LBB977:
 7660               	.LM683:
 7661 253c A091 0000 		lds r26,Timebase
 7662 2540 B091 0000 		lds r27,(Timebase)+1
 7663 2544 90E0      		ldi r25,lo8(0)
 7664 2546 2DE0      		ldi r18,lo8(13)
 7665 2548 30E0      		ldi r19,hi8(13)
 7666 254a 829F      		mul r24,r18
 7667 254c F001      		movw r30,r0
 7668 254e 839F      		mul r24,r19
 7669 2550 F00D      		add r31,r0
 7670 2552 929F      		mul r25,r18
 7671 2554 F00D      		add r31,r0
 7672 2556 1124      		clr r1
 7673               	.LVL481:
 7674 2558 EA0F      		add r30,r26
 7675 255a FB1F      		adc r31,r27
 7676 255c 8F01      		movw r16,r30
 7677 255e 0B5A      		subi r16,lo8(-(85))
 7678 2560 1F4F      		sbci r17,hi8(-(85))
 7679 2562 E801      		movw r28,r16
 7680 2564 8881      		ld r24,Y
 7681 2566 8695      		lsr r24
 7682 2568 8F70      		andi r24,lo8(15)
 7683               	.LBE977:
 7684               	.LBE976:
 7685               	.LM684:
 7686 256a 8130      		cpi r24,lo8(1)
 7687 256c 01F4      		brne .L346
 7688               	.LBB978:
 7689               	.LBB979:
 7690               	.LM685:
 7691 256e 1A96      		adiw r26,10
 7692 2570 2D91      		ld r18,X+
 7693 2572 3D91      		ld r19,X+
 7694 2574 4D91      		ld r20,X+
 7695 2576 5C91      		ld r21,X
 7696 2578 1D97      		sbiw r26,10+3
 7697               	.LBE979:
 7698               	.LBE978:
 7699               	.LM686:
 7700 257a BF01      		movw r22,r30
 7701 257c 6A5A      		subi r22,lo8(-(86))
 7702 257e 7F4F      		sbci r23,hi8(-(86))
 7703 2580 EB01      		movw r28,r22
 7704 2582 8881      		ld r24,Y
 7705 2584 9981      		ldd r25,Y+1
 7706 2586 AA81      		ldd r26,Y+2
 7707 2588 BB81      		ldd r27,Y+3
 7708 258a 821B      		sub r24,r18
 7709 258c 930B      		sbc r25,r19
 7710 258e A40B      		sbc r26,r20
 7711 2590 B50B      		sbc r27,r21
 7712               	.LBB980:
 7713               	.LBB981:
 7714               	.LM687:
 7715 2592 E65A      		subi r30,lo8(-(90))
 7716 2594 FF4F      		sbci r31,hi8(-(90))
 7717 2596 8083      		st Z,r24
 7718 2598 9183      		std Z+1,r25
 7719 259a A283      		std Z+2,r26
 7720 259c B383      		std Z+3,r27
 7721               	.LBE981:
 7722               	.LBE980:
 7723               	.LM688:
 7724 259e 1816      		cp __zero_reg__,r24
 7725 25a0 1906      		cpc __zero_reg__,r25
 7726 25a2 1A06      		cpc __zero_reg__,r26
 7727 25a4 1B06      		cpc __zero_reg__,r27
 7728 25a6 04F0      		brlt .L348
 7729               	.LBB982:
 7730               	.LBB983:
 7731               	.LBB984:
 7732               	.LBB985:
 7733               	.LM689:
 7734 25a8 DB01      		movw r26,r22
 7735 25aa 1D92      		st X+,__zero_reg__
 7736 25ac 1D92      		st X+,__zero_reg__
 7737 25ae 1D92      		st X+,__zero_reg__
 7738 25b0 1C92      		st X,__zero_reg__
 7739 25b2 1397      		sbiw r26,3
 7740               	.LBE985:
 7741               	.LBE984:
 7742               	.LBB986:
 7743               	.LBB987:
 7744               	.LM690:
 7745 25b4 1082      		st Z,__zero_reg__
 7746 25b6 1182      		std Z+1,__zero_reg__
 7747 25b8 1282      		std Z+2,__zero_reg__
 7748 25ba 1382      		std Z+3,__zero_reg__
 7749               	.LBE987:
 7750               	.LBE986:
 7751               	.LBB988:
 7752               	.LBB989:
 7753               	.LM691:
 7754 25bc E801      		movw r28,r16
 7755 25be 8881      		ld r24,Y
 7756               	.LBE989:
 7757               	.LBE988:
 7758               	.LBE983:
 7759               	.LBE982:
 7760               	.LBB990:
 7761               	.LBB991:
 7762               	.LM692:
 7763 25c0 807E      		andi r24,lo8(-32)
 7764 25c2 8860      		ori r24,lo8(8)
 7765 25c4 8883      		st Y,r24
 7766 25c6 00C0      		rjmp .L348
 7767               	.L346:
 7768               	.LBE991:
 7769               	.LBE990:
 7770               	.LM693:
 7771 25c8 8230      		cpi r24,lo8(2)
 7772 25ca 01F4      		brne .L348
 7773               	.LBB992:
 7774               	.LBB993:
 7775               	.LM694:
 7776 25cc 1A96      		adiw r26,10
 7777 25ce 8D91      		ld r24,X+
 7778 25d0 9D91      		ld r25,X+
 7779 25d2 0D90      		ld __tmp_reg__,X+
 7780 25d4 BC91      		ld r27,X
 7781 25d6 A02D      		mov r26,__tmp_reg__
 7782               	.LBE993:
 7783               	.LBE992:
 7784               	.LBB994:
 7785               	.LBB995:
 7786               	.LM695:
 7787 25d8 E65A      		subi r30,lo8(-(90))
 7788 25da FF4F      		sbci r31,hi8(-(90))
 7789 25dc 2081      		ld r18,Z
 7790 25de 3181      		ldd r19,Z+1
 7791 25e0 4281      		ldd r20,Z+2
 7792 25e2 5381      		ldd r21,Z+3
 7793 25e4 820F      		add r24,r18
 7794 25e6 931F      		adc r25,r19
 7795 25e8 A41F      		adc r26,r20
 7796 25ea B51F      		adc r27,r21
 7797 25ec B293      		st -Z,r27
 7798 25ee A293      		st -Z,r26
 7799 25f0 9293      		st -Z,r25
 7800 25f2 8293      		st -Z,r24
 7801               	.L348:
 7802               	/* epilogue start */
 7803               	.LBE995:
 7804               	.LBE994:
 7805               	.LM696:
 7806 25f4 DF91      		pop r29
 7807 25f6 CF91      		pop r28
 7808 25f8 1F91      		pop r17
 7809 25fa 0F91      		pop r16
 7810 25fc 0895      		ret
 7811               	.LFE130:
 7813               	.global	Timebase_DownCounter_Expired
 7815               	Timebase_DownCounter_Expired:
 7816               	.LFB131:
 7817               	.LM697:
 7818               	.LVL482:
 7819               	/* prologue: function */
 7820               	/* frame size = 0 */
 7821               	.LM698:
 7822 25fe 40E0      		ldi r20,lo8(0)
 7823 2600 E091 0000 		lds r30,Timebase
 7824 2604 F091 0000 		lds r31,(Timebase)+1
 7825 2608 90E0      		ldi r25,lo8(0)
 7826               	.LVL483:
 7827 260a 2DE0      		ldi r18,lo8(13)
 7828 260c 30E0      		ldi r19,hi8(13)
 7829 260e BC01      		movw r22,r24
 7830 2610 629F      		mul r22,r18
 7831 2612 C001      		movw r24,r0
 7832 2614 639F      		mul r22,r19
 7833 2616 900D      		add r25,r0
 7834 2618 729F      		mul r23,r18
 7835 261a 900D      		add r25,r0
 7836 261c 1124      		clr r1
 7837               	.LVL484:
 7838 261e E80F      		add r30,r24
 7839 2620 F91F      		adc r31,r25
 7840 2622 EB5A      		subi r30,lo8(-(85))
 7841 2624 FF4F      		sbci r31,hi8(-(85))
 7842 2626 8081      		ld r24,Z
 7843 2628 8695      		lsr r24
 7844 262a 8F70      		andi r24,lo8(15)
 7845 262c 8430      		cpi r24,lo8(4)
 7846 262e 01F4      		brne .L350
 7847 2630 41E0      		ldi r20,lo8(1)
 7848               	.L350:
 7849               	.LM699:
 7850 2632 842F      		mov r24,r20
 7851               	/* epilogue start */
 7852 2634 0895      		ret
 7853               	.LFE131:
 7855               	.global	Timebase_DownCounter_Expired_Event
 7857               	Timebase_DownCounter_Expired_Event:
 7858               	.LFB132:
 7859               	.LM700:
 7860               	.LVL485:
 7861               	/* prologue: function */
 7862               	/* frame size = 0 */
 7863               	.LBB996:
 7864               	.LBB997:
 7865               	.LM701:
 7866 2636 E091 0000 		lds r30,Timebase
 7867 263a F091 0000 		lds r31,(Timebase)+1
 7868 263e 90E0      		ldi r25,lo8(0)
 7869               	.LBE997:
 7870               	.LBE996:
 7871               	.LM702:
 7872 2640 2DE0      		ldi r18,lo8(13)
 7873 2642 30E0      		ldi r19,hi8(13)
 7874 2644 AC01      		movw r20,r24
 7875               	.LVL486:
 7876 2646 429F      		mul r20,r18
 7877 2648 C001      		movw r24,r0
 7878 264a 439F      		mul r20,r19
 7879 264c 900D      		add r25,r0
 7880 264e 529F      		mul r21,r18
 7881 2650 900D      		add r25,r0
 7882 2652 1124      		clr r1
 7883 2654 E80F      		add r30,r24
 7884 2656 F91F      		adc r31,r25
 7885 2658 DF01      		movw r26,r30
 7886 265a AB5A      		subi r26,lo8(-(85))
 7887 265c BF4F      		sbci r27,hi8(-(85))
 7888 265e 8C91      		ld r24,X
 7889 2660 8695      		lsr r24
 7890 2662 8F70      		andi r24,lo8(15)
 7891 2664 8430      		cpi r24,lo8(4)
 7892 2666 01F0      		breq .L353
 7893 2668 80E0      		ldi r24,lo8(0)
 7894 266a 0895      		ret
 7895               	.L353:
 7896               	.LBB998:
 7897               	.LBB999:
 7898               	.LBB1000:
 7899               	.LBB1001:
 7900               	.LBB1002:
 7901               	.LBB1003:
 7902               	.LM703:
 7903 266c EA5A      		subi r30,lo8(-(86))
 7904 266e FF4F      		sbci r31,hi8(-(86))
 7905 2670 1192      		st Z+,__zero_reg__
 7906 2672 1192      		st Z+,__zero_reg__
 7907 2674 1192      		st Z+,__zero_reg__
 7908 2676 1192      		st Z+,__zero_reg__
 7909               	.LBE1003:
 7910               	.LBE1002:
 7911               	.LBB1004:
 7912               	.LBB1005:
 7913               	.LM704:
 7914 2678 1082      		st Z,__zero_reg__
 7915 267a 1182      		std Z+1,__zero_reg__
 7916 267c 1282      		std Z+2,__zero_reg__
 7917 267e 1382      		std Z+3,__zero_reg__
 7918               	.LBE1005:
 7919               	.LBE1004:
 7920               	.LBB1006:
 7921               	.LBB1007:
 7922               	.LM705:
 7923 2680 8C91      		ld r24,X
 7924               	.LBE1007:
 7925               	.LBE1006:
 7926               	.LBB1008:
 7927               	.LBB1009:
 7928               	.LM706:
 7929 2682 807E      		andi r24,lo8(-32)
 7930 2684 8C93      		st X,r24
 7931 2686 81E0      		ldi r24,lo8(1)
 7932               	.LBE1009:
 7933               	.LBE1008:
 7934               	.LBE1001:
 7935               	.LBE1000:
 7936               	.LBE999:
 7937               	.LBE998:
 7938               	.LM707:
 7939 2688 0895      		ret
 7940               	.LFE132:
 7942               	.global	Timebase_DownCounter_Set_Period_Value_Securely
 7944               	Timebase_DownCounter_Set_Period_Value_Securely:
 7945               	.LFB133:
 7946               	.LM708:
 7947               	.LVL487:
 7948 268a CF93      		push r28
 7949 268c DF93      		push r29
 7950               	/* prologue: function */
 7951               	/* frame size = 0 */
 7952               	.LBB1010:
 7953               	.LBB1011:
 7954               	.LM709:
 7955 268e C091 0000 		lds r28,Timebase
 7956 2692 D091 0000 		lds r29,(Timebase)+1
 7957 2696 282F      		mov r18,r24
 7958 2698 30E0      		ldi r19,lo8(0)
 7959               	.LBE1011:
 7960               	.LBE1010:
 7961               	.LM710:
 7962 269a 8DE0      		ldi r24,lo8(13)
 7963 269c 90E0      		ldi r25,hi8(13)
 7964               	.LVL488:
 7965 269e 289F      		mul r18,r24
 7966 26a0 F001      		movw r30,r0
 7967 26a2 299F      		mul r18,r25
 7968 26a4 F00D      		add r31,r0
 7969 26a6 389F      		mul r19,r24
 7970 26a8 F00D      		add r31,r0
 7971 26aa 1124      		clr r1
 7972 26ac EC0F      		add r30,r28
 7973 26ae FD1F      		adc r31,r29
 7974 26b0 EB5A      		subi r30,lo8(-(85))
 7975 26b2 FF4F      		sbci r31,hi8(-(85))
 7976 26b4 8081      		ld r24,Z
 7977 26b6 E555      		subi r30,lo8(-(-85))
 7978 26b8 F040      		sbci r31,hi8(-(-85))
 7979 26ba 80FD      		sbrc r24,0
 7980 26bc 00C0      		rjmp .L360
 7981               	.LM711:
 7982 26be E65A      		subi r30,lo8(-(90))
 7983 26c0 FF4F      		sbci r31,hi8(-(90))
 7984 26c2 8191      		ld r24,Z+
 7985 26c4 9191      		ld r25,Z+
 7986 26c6 A191      		ld r26,Z+
 7987 26c8 B191      		ld r27,Z+
 7988 26ca 841B      		sub r24,r20
 7989 26cc 950B      		sbc r25,r21
 7990 26ce A60B      		sbc r26,r22
 7991 26d0 B70B      		sbc r27,r23
 7992               	.LBB1012:
 7993               	.LBB1013:
 7994               	.LM712:
 7995 26d2 B7FF      		sbrs r27,7
 7996 26d4 00C0      		rjmp .L358
 7997               	.LM713:
 7998 26d6 1082      		st Z,__zero_reg__
 7999 26d8 1182      		std Z+1,__zero_reg__
 8000 26da 1282      		std Z+2,__zero_reg__
 8001 26dc 1382      		std Z+3,__zero_reg__
 8002 26de 00C0      		rjmp .L359
 8003               	.L358:
 8004               	.LM714:
 8005 26e0 8083      		st Z,r24
 8006 26e2 9183      		std Z+1,r25
 8007 26e4 A283      		std Z+2,r26
 8008 26e6 B383      		std Z+3,r27
 8009               	.L359:
 8010               	.LBE1013:
 8011               	.LBE1012:
 8012               	.LBB1014:
 8013               	.LBB1015:
 8014               	.LM715:
 8015 26e8 8DE0      		ldi r24,lo8(13)
 8016 26ea 90E0      		ldi r25,hi8(13)
 8017 26ec 289F      		mul r18,r24
 8018 26ee F001      		movw r30,r0
 8019 26f0 299F      		mul r18,r25
 8020 26f2 F00D      		add r31,r0
 8021 26f4 389F      		mul r19,r24
 8022 26f6 F00D      		add r31,r0
 8023 26f8 1124      		clr r1
 8024 26fa EC0F      		add r30,r28
 8025 26fc FD1F      		adc r31,r29
 8026 26fe EB5A      		subi r30,lo8(-(85))
 8027 2700 FF4F      		sbci r31,hi8(-(85))
 8028 2702 8081      		ld r24,Z
 8029 2704 8160      		ori r24,lo8(1)
 8030 2706 8083      		st Z,r24
 8031               	.L360:
 8032               	/* epilogue start */
 8033               	.LBE1015:
 8034               	.LBE1014:
 8035               	.LM716:
 8036 2708 DF91      		pop r29
 8037 270a CF91      		pop r28
 8038 270c 0895      		ret
 8039               	.LFE133:
 8041               	.global	Timebase_DownCounter_Get_Remaining_Period_Value
 8043               	Timebase_DownCounter_Get_Remaining_Period_Value:
 8044               	.LFB134:
 8045               	.LM717:
 8046               	.LVL489:
 8047               	/* prologue: function */
 8048               	/* frame size = 0 */
 8049               	.LBB1016:
 8050               	.LBB1017:
 8051               	.LM718:
 8052 270e E091 0000 		lds r30,Timebase
 8053 2712 F091 0000 		lds r31,(Timebase)+1
 8054 2716 90E0      		ldi r25,lo8(0)
 8055               	.LBE1017:
 8056               	.LBE1016:
 8057               	.LM719:
 8058 2718 2DE0      		ldi r18,lo8(13)
 8059 271a 30E0      		ldi r19,hi8(13)
 8060 271c AC01      		movw r20,r24
 8061               	.LVL490:
 8062 271e 429F      		mul r20,r18
 8063 2720 C001      		movw r24,r0
 8064 2722 439F      		mul r20,r19
 8065 2724 900D      		add r25,r0
 8066 2726 529F      		mul r21,r18
 8067 2728 900D      		add r25,r0
 8068 272a 1124      		clr r1
 8069 272c E80F      		add r30,r24
 8070 272e F91F      		adc r31,r25
 8071 2730 DF01      		movw r26,r30
 8072 2732 A25A      		subi r26,lo8(-(94))
 8073 2734 BF4F      		sbci r27,hi8(-(94))
 8074 2736 E65A      		subi r30,lo8(-(90))
 8075 2738 FF4F      		sbci r31,hi8(-(90))
 8076 273a 2081      		ld r18,Z
 8077 273c 3181      		ldd r19,Z+1
 8078 273e 4281      		ldd r20,Z+2
 8079 2740 5381      		ldd r21,Z+3
 8080               	.LVL491:
 8081 2742 8D91      		ld r24,X+
 8082 2744 9D91      		ld r25,X+
 8083 2746 0D90      		ld __tmp_reg__,X+
 8084 2748 BC91      		ld r27,X
 8085 274a A02D      		mov r26,__tmp_reg__
 8086 274c 281B      		sub r18,r24
 8087 274e 390B      		sbc r19,r25
 8088 2750 4A0B      		sbc r20,r26
 8089 2752 5B0B      		sbc r21,r27
 8090 2754 57FF      		sbrs r21,7
 8091 2756 00C0      		rjmp .L362
 8092 2758 20E0      		ldi r18,lo8(0)
 8093 275a 30E0      		ldi r19,hi8(0)
 8094 275c 40E0      		ldi r20,hlo8(0)
 8095 275e 50E0      		ldi r21,hhi8(0)
 8096               	.L362:
 8097               	.LM720:
 8098 2760 B901      		movw r22,r18
 8099               	.LVL492:
 8100 2762 CA01      		movw r24,r20
 8101               	/* epilogue start */
 8102 2764 0895      		ret
 8103               	.LFE134:
 8105               	.global	Timebase_DownCounter_Period_Value_Expired
 8107               	Timebase_DownCounter_Period_Value_Expired:
 8108               	.LFB135:
 8109               	.LM721:
 8110               	.LVL493:
 8111 2766 CF93      		push r28
 8112 2768 DF93      		push r29
 8113               	/* prologue: function */
 8114               	/* frame size = 0 */
 8115               	.LBB1018:
 8116               	.LBB1019:
 8117               	.LBB1020:
 8118               	.LBB1021:
 8119               	.LM722:
 8120 276a C091 0000 		lds r28,Timebase
 8121 276e D091 0000 		lds r29,(Timebase)+1
 8122 2772 682F      		mov r22,r24
 8123 2774 70E0      		ldi r23,lo8(0)
 8124               	.LBE1021:
 8125               	.LBE1020:
 8126               	.LM723:
 8127 2776 8DE0      		ldi r24,lo8(13)
 8128 2778 90E0      		ldi r25,hi8(13)
 8129               	.LVL494:
 8130 277a 689F      		mul r22,r24
 8131 277c F001      		movw r30,r0
 8132 277e 699F      		mul r22,r25
 8133 2780 F00D      		add r31,r0
 8134 2782 789F      		mul r23,r24
 8135 2784 F00D      		add r31,r0
 8136 2786 1124      		clr r1
 8137 2788 EC0F      		add r30,r28
 8138 278a FD1F      		adc r31,r29
 8139 278c DF01      		movw r26,r30
 8140 278e A25A      		subi r26,lo8(-(94))
 8141 2790 BF4F      		sbci r27,hi8(-(94))
 8142 2792 E65A      		subi r30,lo8(-(90))
 8143 2794 FF4F      		sbci r31,hi8(-(90))
 8144 2796 2081      		ld r18,Z
 8145 2798 3181      		ldd r19,Z+1
 8146 279a 4281      		ldd r20,Z+2
 8147 279c 5381      		ldd r21,Z+3
 8148               	.LVL495:
 8149 279e 8D91      		ld r24,X+
 8150 27a0 9D91      		ld r25,X+
 8151 27a2 0D90      		ld __tmp_reg__,X+
 8152 27a4 BC91      		ld r27,X
 8153 27a6 A02D      		mov r26,__tmp_reg__
 8154 27a8 281B      		sub r18,r24
 8155 27aa 390B      		sbc r19,r25
 8156 27ac 4A0B      		sbc r20,r26
 8157 27ae 5B0B      		sbc r21,r27
 8158               	.LM724:
 8159 27b0 57FD      		sbrc r21,7
 8160 27b2 00C0      		rjmp .L365
 8161               	.LBE1019:
 8162               	.LBE1018:
 8163               	.LM725:
 8164 27b4 2115      		cp r18,__zero_reg__
 8165 27b6 3105      		cpc r19,__zero_reg__
 8166 27b8 4105      		cpc r20,__zero_reg__
 8167 27ba 5105      		cpc r21,__zero_reg__
 8168 27bc 01F0      		breq .L365
 8169 27be 20E0      		ldi r18,lo8(0)
 8170               	.LVL496:
 8171 27c0 00C0      		rjmp .L366
 8172               	.LVL497:
 8173               	.L365:
 8174 27c2 20E0      		ldi r18,lo8(0)
 8175               	.LVL498:
 8176 27c4 8DE0      		ldi r24,lo8(13)
 8177 27c6 90E0      		ldi r25,hi8(13)
 8178 27c8 AC01      		movw r20,r24
 8179 27ca 649F      		mul r22,r20
 8180 27cc C001      		movw r24,r0
 8181 27ce 659F      		mul r22,r21
 8182 27d0 900D      		add r25,r0
 8183 27d2 749F      		mul r23,r20
 8184 27d4 900D      		add r25,r0
 8185 27d6 1124      		clr r1
 8186 27d8 C80F      		add r28,r24
 8187 27da D91F      		adc r29,r25
 8188 27dc CB5A      		subi r28,lo8(-(85))
 8189 27de DF4F      		sbci r29,hi8(-(85))
 8190 27e0 8881      		ld r24,Y
 8191 27e2 80FF      		sbrs r24,0
 8192 27e4 21E0      		ldi r18,lo8(1)
 8193               	.L367:
 8194 27e6 81E0      		ldi r24,lo8(1)
 8195 27e8 2827      		eor r18,r24
 8196               	.L366:
 8197               	.LM726:
 8198 27ea 822F      		mov r24,r18
 8199               	/* epilogue start */
 8200 27ec DF91      		pop r29
 8201 27ee CF91      		pop r28
 8202 27f0 0895      		ret
 8203               	.LFE135:
 8205               	.global	Timebase_DownCounter_Period_Value_Expired_Event
 8207               	Timebase_DownCounter_Period_Value_Expired_Event:
 8208               	.LFB136:
 8209               	.LM727:
 8210               	.LVL499:
 8211 27f2 1F93      		push r17
 8212               	/* prologue: function */
 8213               	/* frame size = 0 */
 8214 27f4 182F      		mov r17,r24
 8215               	.LM728:
 8216 27f6 0E94 0000 		call Timebase_DownCounter_Period_Value_Expired
 8217               	.LVL500:
 8218 27fa 8130      		cpi r24,lo8(1)
 8219 27fc 01F0      		breq .L370
 8220 27fe 80E0      		ldi r24,lo8(0)
 8221 2800 00C0      		rjmp .L371
 8222               	.L370:
 8223               	.LBB1022:
 8224               	.LBB1023:
 8225               	.LM729:
 8226 2802 E091 0000 		lds r30,Timebase
 8227 2806 F091 0000 		lds r31,(Timebase)+1
 8228 280a 212F      		mov r18,r17
 8229 280c 30E0      		ldi r19,lo8(0)
 8230               	.LVL501:
 8231 280e 8DE0      		ldi r24,lo8(13)
 8232 2810 90E0      		ldi r25,hi8(13)
 8233 2812 AC01      		movw r20,r24
 8234 2814 249F      		mul r18,r20
 8235 2816 C001      		movw r24,r0
 8236 2818 259F      		mul r18,r21
 8237 281a 900D      		add r25,r0
 8238 281c 349F      		mul r19,r20
 8239 281e 900D      		add r25,r0
 8240 2820 1124      		clr r1
 8241 2822 E80F      		add r30,r24
 8242 2824 F91F      		adc r31,r25
 8243 2826 EB5A      		subi r30,lo8(-(85))
 8244 2828 FF4F      		sbci r31,hi8(-(85))
 8245 282a 8081      		ld r24,Z
 8246 282c 8E7F      		andi r24,lo8(-2)
 8247 282e 8083      		st Z,r24
 8248 2830 81E0      		ldi r24,lo8(1)
 8249               	.L371:
 8250               	/* epilogue start */
 8251               	.LBE1023:
 8252               	.LBE1022:
 8253               	.LM730:
 8254 2832 1F91      		pop r17
 8255               	.LVL502:
 8256 2834 0895      		ret
 8257               	.LFE136:
 8259               	.global	Timebase_DownCounter_Update_All
 8261               	Timebase_DownCounter_Update_All:
 8262               	.LFB137:
 8263               	.LM731:
 8264               	/* prologue: function */
 8265               	/* frame size = 0 */
 8266               	.LBB1024:
 8267               	.LM732:
 8268 2836 80E0      		ldi r24,lo8(0)
 8269 2838 0E94 0000 		call Timebase_DownCounter_Update
 8270               	/* epilogue start */
 8271               	.LBE1024:
 8272               	.LM733:
 8273 283c 0895      		ret
 8274               	.LFE137:
 8276               	.global	Timebase_DownCounter_Reset_All
 8278               	Timebase_DownCounter_Reset_All:
 8279               	.LFB138:
 8280               	.LM734:
 8281               	/* prologue: function */
 8282               	/* frame size = 0 */
 8283               	.LBB1025:
 8284               	.LBB1026:
 8285               	.LBB1027:
 8286               	.LBB1028:
 8287               	.LBB1029:
 8288               	.LM735:
 8289 283e E091 0000 		lds r30,Timebase
 8290 2842 F091 0000 		lds r31,(Timebase)+1
 8291 2846 EA5A      		subi r30,lo8(-(86))
 8292 2848 FF4F      		sbci r31,hi8(-(86))
 8293 284a 1192      		st Z+,__zero_reg__
 8294 284c 1192      		st Z+,__zero_reg__
 8295 284e 1192      		st Z+,__zero_reg__
 8296 2850 1192      		st Z+,__zero_reg__
 8297               	.LBE1029:
 8298               	.LBE1028:
 8299               	.LBB1030:
 8300               	.LBB1031:
 8301               	.LM736:
 8302 2852 1082      		st Z,__zero_reg__
 8303 2854 1182      		std Z+1,__zero_reg__
 8304 2856 1282      		std Z+2,__zero_reg__
 8305 2858 1382      		std Z+3,__zero_reg__
 8306               	.LBE1031:
 8307               	.LBE1030:
 8308               	.LBB1032:
 8309               	.LBB1033:
 8310               	.LM737:
 8311 285a 3597      		sbiw r30,5
 8312 285c 8081      		ld r24,Z
 8313               	.LBE1033:
 8314               	.LBE1032:
 8315               	.LBB1034:
 8316               	.LBB1035:
 8317               	.LM738:
 8318 285e 807E      		andi r24,lo8(-32)
 8319 2860 8083      		st Z,r24
 8320               	/* epilogue start */
 8321               	.LBE1035:
 8322               	.LBE1034:
 8323               	.LBE1027:
 8324               	.LBE1026:
 8325               	.LBE1025:
 8326               	.LM739:
 8327 2862 0895      		ret
 8328               	.LFE138:
 8330               	.global	Timebase_Reset
 8332               	Timebase_Reset:
 8333               	.LFB139:
 8334               	.LM740:
 8335               	/* prologue: function */
 8336               	/* frame size = 0 */
 8337               	.LM741:
 8338 2864 0E94 0000 		call Timebase_UpCounter_Reset_All
 8339               	.LM742:
 8340 2868 0E94 0000 		call Timebase_DownCounter_SS_Reset_All
 8341               	.LM743:
 8342 286c 0E94 0000 		call Timebase_DownCounter_Reset_All
 8343               	/* epilogue start */
 8344               	.LM744:
 8345 2870 0895      		ret
 8346               	.LFE139:
 8348               	.global	Timebase_Init
 8350               	Timebase_Init:
 8351               	.LFB140:
 8352               	.LM745:
 8353               	.LVL503:
 8354 2872 0F93      		push r16
 8355 2874 1F93      		push r17
 8356               	/* prologue: function */
 8357               	/* frame size = 0 */
 8358 2876 8C01      		movw r16,r24
 8359               	.LM746:
 8360 2878 0E94 0000 		call Timebase_Struct_Init
 8361               	.LVL504:
 8362               	.LM747:
 8363 287c C801      		movw r24,r16
 8364 287e 0E94 0000 		call Timebase_Timer_Config
 8365               	.LM748:
 8366 2882 0E94 0000 		call Timebase_Reset
 8367               	/* epilogue start */
 8368               	.LM749:
 8369 2886 1F91      		pop r17
 8370 2888 0F91      		pop r16
 8371               	.LVL505:
 8372 288a 0895      		ret
 8373               	.LFE140:
 8375               	.global	Timebase_Main_Loop_Executables
 8377               	Timebase_Main_Loop_Executables:
 8378               	.LFB141:
 8379               	.LM750:
 8380               	/* prologue: function */
 8381               	/* frame size = 0 */
 8382               	.LM751:
 8383 288c E091 0000 		lds r30,Timebase
 8384 2890 F091 0000 		lds r31,(Timebase)+1
 8385 2894 8589      		ldd r24,Z+21
 8386 2896 82FF      		sbrs r24,2
 8387 2898 00C0      		rjmp .L382
 8388               	.LM752:
 8389 289a 0E94 0000 		call Timebase_Timer_Sync_With_Shadow_Variables
 8390               	.LM753:
 8391 289e 0E94 0000 		call Timebase_UpCounter_SS_Update_All
 8392               	.LM754:
 8393 28a2 E091 0000 		lds r30,Timebase
 8394 28a6 F091 0000 		lds r31,(Timebase)+1
 8395 28aa 8589      		ldd r24,Z+21
 8396 28ac 8B7F      		andi r24,lo8(-5)
 8397 28ae 858B      		std Z+21,r24
 8398               	.L382:
 8399               	.LM755:
 8400 28b0 E091 0000 		lds r30,Timebase
 8401 28b4 F091 0000 		lds r31,(Timebase)+1
 8402 28b8 8589      		ldd r24,Z+21
 8403 28ba 80FF      		sbrs r24,0
 8404 28bc 00C0      		rjmp .L383
 8405               	.LM756:
 8406 28be 0E94 0000 		call Timebase_Timer_Sync_With_Shadow_Variables
 8407               	.LM757:
 8408 28c2 0E94 0000 		call Timebase_UpCounter_Update_All
 8409               	.LM758:
 8410 28c6 E091 0000 		lds r30,Timebase
 8411 28ca F091 0000 		lds r31,(Timebase)+1
 8412 28ce 8589      		ldd r24,Z+21
 8413 28d0 8E7F      		andi r24,lo8(-2)
 8414 28d2 858B      		std Z+21,r24
 8415               	.L383:
 8416               	.LM759:
 8417 28d4 E091 0000 		lds r30,Timebase
 8418 28d8 F091 0000 		lds r31,(Timebase)+1
 8419 28dc 8589      		ldd r24,Z+21
 8420 28de 83FF      		sbrs r24,3
 8421 28e0 00C0      		rjmp .L384
 8422               	.LM760:
 8423 28e2 0E94 0000 		call Timebase_Timer_Sync_With_Shadow_Variables
 8424               	.LM761:
 8425 28e6 0E94 0000 		call Timebase_DownCounter_SS_Update_All
 8426               	.LM762:
 8427 28ea E091 0000 		lds r30,Timebase
 8428 28ee F091 0000 		lds r31,(Timebase)+1
 8429 28f2 8589      		ldd r24,Z+21
 8430 28f4 877F      		andi r24,lo8(-9)
 8431 28f6 858B      		std Z+21,r24
 8432               	.L384:
 8433               	.LM763:
 8434 28f8 E091 0000 		lds r30,Timebase
 8435 28fc F091 0000 		lds r31,(Timebase)+1
 8436 2900 8589      		ldd r24,Z+21
 8437 2902 81FF      		sbrs r24,1
 8438 2904 00C0      		rjmp .L385
 8439               	.LM764:
 8440 2906 0E94 0000 		call Timebase_Timer_Sync_With_Shadow_Variables
 8441               	.LM765:
 8442 290a 0E94 0000 		call Timebase_DownCounter_Update_All
 8443               	.LM766:
 8444 290e E091 0000 		lds r30,Timebase
 8445 2912 F091 0000 		lds r31,(Timebase)+1
 8446 2916 8589      		ldd r24,Z+21
 8447 2918 8D7F      		andi r24,lo8(-3)
 8448 291a 858B      		std Z+21,r24
 8449               	.L385:
 8450               	.LM767:
 8451 291c E091 0000 		lds r30,Timebase
 8452 2920 F091 0000 		lds r31,(Timebase)+1
 8453 2924 148A      		std Z+20,__zero_reg__
 8454               	/* epilogue start */
 8455               	.LM768:
 8456 2926 0895      		ret
 8457               	.LFE141:
 8459               	.global	Timebase_ISR_Executables
 8461               	Timebase_ISR_Executables:
 8462               	.LFB142:
 8463               	.LM769:
 8464               	/* prologue: function */
 8465               	/* frame size = 0 */
 8466               	.LM770:
 8467 2928 E091 0000 		lds r30,Timebase
 8468 292c F091 0000 		lds r31,(Timebase)+1
 8469 2930 8685      		ldd r24,Z+14
 8470 2932 9785      		ldd r25,Z+15
 8471 2934 0196      		adiw r24,1
 8472 2936 9787      		std Z+15,r25
 8473 2938 8687      		std Z+14,r24
 8474               	.LM771:
 8475 293a 8589      		ldd r24,Z+21
 8476 293c 8460      		ori r24,lo8(4)
 8477 293e 858B      		std Z+21,r24
 8478               	.LM772:
 8479 2940 8589      		ldd r24,Z+21
 8480 2942 8860      		ori r24,lo8(8)
 8481 2944 858B      		std Z+21,r24
 8482               	.LM773:
 8483 2946 2685      		ldd r18,Z+14
 8484 2948 3785      		ldd r19,Z+15
 8485 294a 8181      		ldd r24,Z+1
 8486 294c 9281      		ldd r25,Z+2
 8487 294e 2817      		cp r18,r24
 8488 2950 3907      		cpc r19,r25
 8489 2952 00F0      		brlo .L389
 8490               	.LM774:
 8491 2954 8089      		ldd r24,Z+16
 8492 2956 9189      		ldd r25,Z+17
 8493 2958 A289      		ldd r26,Z+18
 8494 295a B389      		ldd r27,Z+19
 8495 295c 0196      		adiw r24,1
 8496 295e A11D      		adc r26,__zero_reg__
 8497 2960 B11D      		adc r27,__zero_reg__
 8498 2962 808B      		std Z+16,r24
 8499 2964 918B      		std Z+17,r25
 8500 2966 A28B      		std Z+18,r26
 8501 2968 B38B      		std Z+19,r27
 8502               	.LM775:
 8503 296a 1786      		std Z+15,__zero_reg__
 8504 296c 1686      		std Z+14,__zero_reg__
 8505               	.LM776:
 8506 296e 8589      		ldd r24,Z+21
 8507 2970 8160      		ori r24,lo8(1)
 8508 2972 858B      		std Z+21,r24
 8509               	.LM777:
 8510 2974 8589      		ldd r24,Z+21
 8511 2976 8260      		ori r24,lo8(2)
 8512 2978 858B      		std Z+21,r24
 8513               	.L389:
 8514 297a 0895      		ret
 8515               	.LFE142:
 8517               	.global	__vector_16
 8519               	__vector_16:
 8520               	.LFB10:
 8521               	.LM778:
 8522 297c 1F92      		push __zero_reg__
 8523 297e 0F92      		push r0
 8524 2980 0FB6      		in r0,__SREG__
 8525 2982 0F92      		push r0
 8526 2984 1124      		clr __zero_reg__
 8527 2986 2F93      		push r18
 8528 2988 3F93      		push r19
 8529 298a 4F93      		push r20
 8530 298c 5F93      		push r21
 8531 298e 6F93      		push r22
 8532 2990 7F93      		push r23
 8533 2992 8F93      		push r24
 8534 2994 9F93      		push r25
 8535 2996 AF93      		push r26
 8536 2998 BF93      		push r27
 8537 299a EF93      		push r30
 8538 299c FF93      		push r31
 8539               	/* prologue: Signal */
 8540               	/* frame size = 0 */
 8541               	.LM779:
 8542 299e E091 0000 		lds r30,Timebase
 8543 29a2 F091 0000 		lds r31,(Timebase)+1
 8544 29a6 8381      		ldd r24,Z+3
 8545 29a8 86BD      		out 70-32,r24
 8546               	.LM780:
 8547 29aa 0E94 0000 		call Timebase_ISR_Executables
 8548               	/* epilogue start */
 8549               	.LM781:
 8550 29ae FF91      		pop r31
 8551 29b0 EF91      		pop r30
 8552 29b2 BF91      		pop r27
 8553 29b4 AF91      		pop r26
 8554 29b6 9F91      		pop r25
 8555 29b8 8F91      		pop r24
 8556 29ba 7F91      		pop r23
 8557 29bc 6F91      		pop r22
 8558 29be 5F91      		pop r21
 8559 29c0 4F91      		pop r20
 8560 29c2 3F91      		pop r19
 8561 29c4 2F91      		pop r18
 8562 29c6 0F90      		pop r0
 8563 29c8 0FBE      		out __SREG__,r0
 8564 29ca 0F90      		pop r0
 8565 29cc 1F90      		pop __zero_reg__
 8566 29ce 1895      		reti
 8567               	.LFE10:
 8569               		.data
 8572               	C.1.1688:
 8573 0000 0100      		.word	1
 8574 0002 0800      		.word	8
 8575 0004 4000      		.word	64
 8576 0006 0001      		.word	256
 8577 0008 0004      		.word	1024
 8578               		.comm Timebase_type,98,1
 8579               		.comm Timebase,2,1
 9692               	.Letext0:
DEFINED SYMBOLS
                            *ABS*:00000000 timebase.c
C:\Users\WALTON\AppData\Local\Temp/cckm9AFp.s:2      *ABS*:0000003f __SREG__
C:\Users\WALTON\AppData\Local\Temp/cckm9AFp.s:3      *ABS*:0000003e __SP_H__
C:\Users\WALTON\AppData\Local\Temp/cckm9AFp.s:4      *ABS*:0000003d __SP_L__
C:\Users\WALTON\AppData\Local\Temp/cckm9AFp.s:5      *ABS*:00000034 __CCP__
C:\Users\WALTON\AppData\Local\Temp/cckm9AFp.s:6      *ABS*:00000000 __tmp_reg__
C:\Users\WALTON\AppData\Local\Temp/cckm9AFp.s:7      *ABS*:00000001 __zero_reg__
C:\Users\WALTON\AppData\Local\Temp/cckm9AFp.s:18     .text:00000000 Timebase_Struct_Init
                            *COM*:00000062 Timebase_type
                            *COM*:00000002 Timebase
C:\Users\WALTON\AppData\Local\Temp/cckm9AFp.s:183    .text:000001ae Timebase_Timer_Config
C:\Users\WALTON\AppData\Local\Temp/cckm9AFp.s:8572   .data:00000000 C.1.1688
C:\Users\WALTON\AppData\Local\Temp/cckm9AFp.s:499    .text:00000348 Timebase_Atomic_Operation_Start
C:\Users\WALTON\AppData\Local\Temp/cckm9AFp.s:517    .text:0000034c Timebase_Atomic_Operation_End
C:\Users\WALTON\AppData\Local\Temp/cckm9AFp.s:535    .text:00000350 Timebase_Timer_Get_SubSecondsShadow
C:\Users\WALTON\AppData\Local\Temp/cckm9AFp.s:553    .text:00000360 Timebase_Timer_Get_SecondsShadow
C:\Users\WALTON\AppData\Local\Temp/cckm9AFp.s:574    .text:00000376 Timebase_Timer_Get_SubSeconds
C:\Users\WALTON\AppData\Local\Temp/cckm9AFp.s:592    .text:00000386 Timebase_Timer_Get_Seconds
C:\Users\WALTON\AppData\Local\Temp/cckm9AFp.s:613    .text:0000039c Timebase_Timer_Set_SubSeconds
C:\Users\WALTON\AppData\Local\Temp/cckm9AFp.s:631    .text:000003aa Timebase_Timer_Set_Seconds
C:\Users\WALTON\AppData\Local\Temp/cckm9AFp.s:651    .text:000003bc Timebase_Timer_Sync_With_Shadow_Variables
C:\Users\WALTON\AppData\Local\Temp/cckm9AFp.s:705    .text:000003ec Timebase_Timer_Delay_SubSeconds
C:\Users\WALTON\AppData\Local\Temp/cckm9AFp.s:882    .text:000004a4 Timebase_Timer_Await_SubSeconds
C:\Users\WALTON\AppData\Local\Temp/cckm9AFp.s:1044   .text:0000053e Timebase_Timer_Delay_Seconds
C:\Users\WALTON\AppData\Local\Temp/cckm9AFp.s:1141   .text:00000580 Timebase_UpCounter_SS_Get_Status
C:\Users\WALTON\AppData\Local\Temp/cckm9AFp.s:1175   .text:000005aa Timebase_UpCounter_SS_Set_Status
C:\Users\WALTON\AppData\Local\Temp/cckm9AFp.s:1213   .text:000005da Timebase_UpCounter_SS_Get_Value
C:\Users\WALTON\AppData\Local\Temp/cckm9AFp.s:1256   .text:00000614 Timebase_UpCounter_SS_Set_Value
C:\Users\WALTON\AppData\Local\Temp/cckm9AFp.s:1306   .text:00000658 Timebase_UpCounter_SS_Get_EndValueSec
C:\Users\WALTON\AppData\Local\Temp/cckm9AFp.s:1349   .text:00000692 Timebase_UpCounter_SS_Get_EndValueSubSec
C:\Users\WALTON\AppData\Local\Temp/cckm9AFp.s:1392   .text:000006cc Timebase_UpCounter_SS_Set_EndValueSec
C:\Users\WALTON\AppData\Local\Temp/cckm9AFp.s:1427   .text:000006f8 Timebase_UpCounter_SS_Set_EndValueSubSec
C:\Users\WALTON\AppData\Local\Temp/cckm9AFp.s:1462   .text:00000724 Timebase_UpCounter_SS_Get_TargetValue
C:\Users\WALTON\AppData\Local\Temp/cckm9AFp.s:1505   .text:0000075e Timebase_UpCounter_SS_Set_TargetValue
C:\Users\WALTON\AppData\Local\Temp/cckm9AFp.s:1540   .text:0000078a Timebase_UpCounter_SS_Get_TemporaryValue
C:\Users\WALTON\AppData\Local\Temp/cckm9AFp.s:1583   .text:000007c4 Timebase_UpCounter_SS_Set_TemporaryValue
C:\Users\WALTON\AppData\Local\Temp/cckm9AFp.s:1633   .text:00000808 Timebase_UpCounter_SS_Get_PeriodValue
C:\Users\WALTON\AppData\Local\Temp/cckm9AFp.s:1676   .text:00000842 Timebase_UpCounter_SS_Set_PeriodValue
C:\Users\WALTON\AppData\Local\Temp/cckm9AFp.s:1711   .text:0000086e Timebase_UpCounter_SS_Get_Period_Flag
C:\Users\WALTON\AppData\Local\Temp/cckm9AFp.s:1744   .text:00000896 Timebase_UpCounter_SS_Set_Period_Flag
C:\Users\WALTON\AppData\Local\Temp/cckm9AFp.s:1778   .text:000008c0 Timebase_UpCounter_SS_Clear_Period_Flag
C:\Users\WALTON\AppData\Local\Temp/cckm9AFp.s:1812   .text:000008ea Timebase_UpCounter_SS_Reset
C:\Users\WALTON\AppData\Local\Temp/cckm9AFp.s:1908   .text:00000944 Timebase_UpCounter_SS_Clear_All_Flags
C:\Users\WALTON\AppData\Local\Temp/cckm9AFp.s:1924   .text:0000094a Timebase_UpCounter_SS_Start
C:\Users\WALTON\AppData\Local\Temp/cckm9AFp.s:1972   .text:00000980 Timebase_UpCounter_SS_Stop
C:\Users\WALTON\AppData\Local\Temp/cckm9AFp.s:2020   .text:000009b6 Timebase_UpCounter_SS_Set_Securely
C:\Users\WALTON\AppData\Local\Temp/cckm9AFp.s:2290   .text:00000b32 Timebase_UpCounter_SS_Set_Forcefully
C:\Users\WALTON\AppData\Local\Temp/cckm9AFp.s:2326   .text:00000b5c Timebase_UpCounter_SS_Update
C:\Users\WALTON\AppData\Local\Temp/cckm9AFp.s:2848   .text:00000e54 Timebase_UpCounter_SS_Expired
C:\Users\WALTON\AppData\Local\Temp/cckm9AFp.s:2888   .text:00000e88 Timebase_UpCounter_SS_Expired_Event
C:\Users\WALTON\AppData\Local\Temp/cckm9AFp.s:2937   .text:00000ec6 Timebase_UpCounter_SS_Set_Period_Value_Securely
C:\Users\WALTON\AppData\Local\Temp/cckm9AFp.s:2999   .text:00000f0e Timebase_UpCounter_SS_Get_Remaining_Period_Value
C:\Users\WALTON\AppData\Local\Temp/cckm9AFp.s:3057   .text:00000f5a Timebase_UpCounter_SS_Period_Value_Expired
C:\Users\WALTON\AppData\Local\Temp/cckm9AFp.s:3149   .text:00000fd6 Timebase_UpCounter_SS_Period_Value_Expired_Event
C:\Users\WALTON\AppData\Local\Temp/cckm9AFp.s:3201   .text:00001016 Timebase_UpCounter_SS_Update_All
C:\Users\WALTON\AppData\Local\Temp/cckm9AFp.s:3218   .text:0000101e Timebase_UpCounter_SS_Reset_All
C:\Users\WALTON\AppData\Local\Temp/cckm9AFp.s:3235   .text:00001026 Timebase_UpCounter_Get_Status
C:\Users\WALTON\AppData\Local\Temp/cckm9AFp.s:3269   .text:00001050 Timebase_UpCounter_Set_Status
C:\Users\WALTON\AppData\Local\Temp/cckm9AFp.s:3307   .text:00001080 Timebase_UpCounter_Get_Value
C:\Users\WALTON\AppData\Local\Temp/cckm9AFp.s:3350   .text:000010ba Timebase_UpCounter_Set_Value
C:\Users\WALTON\AppData\Local\Temp/cckm9AFp.s:3400   .text:000010fe Timebase_UpCounter_Get_EndValueSec
C:\Users\WALTON\AppData\Local\Temp/cckm9AFp.s:3443   .text:00001138 Timebase_UpCounter_Get_EndValueSubSec
C:\Users\WALTON\AppData\Local\Temp/cckm9AFp.s:3486   .text:00001172 Timebase_UpCounter_Set_EndValueSec
C:\Users\WALTON\AppData\Local\Temp/cckm9AFp.s:3521   .text:0000119e Timebase_UpCounter_Set_EndValueSubSec
C:\Users\WALTON\AppData\Local\Temp/cckm9AFp.s:3556   .text:000011ca Timebase_UpCounter_Get_TargetValue
C:\Users\WALTON\AppData\Local\Temp/cckm9AFp.s:3599   .text:00001204 Timebase_UpCounter_Set_TargetValue
C:\Users\WALTON\AppData\Local\Temp/cckm9AFp.s:3634   .text:00001230 Timebase_UpCounter_Get_TemporaryValue
C:\Users\WALTON\AppData\Local\Temp/cckm9AFp.s:3677   .text:0000126a Timebase_UpCounter_Set_TemporaryValue
C:\Users\WALTON\AppData\Local\Temp/cckm9AFp.s:3727   .text:000012ae Timebase_UpCounter_Get_PeriodValue
C:\Users\WALTON\AppData\Local\Temp/cckm9AFp.s:3765   .text:000012de Timebase_UpCounter_Set_PeriodValue
C:\Users\WALTON\AppData\Local\Temp/cckm9AFp.s:3802   .text:0000130e Timebase_UpCounter_Get_Period_Flag
C:\Users\WALTON\AppData\Local\Temp/cckm9AFp.s:3835   .text:00001336 Timebase_UpCounter_Set_Period_Flag
C:\Users\WALTON\AppData\Local\Temp/cckm9AFp.s:3869   .text:00001360 Timebase_UpCounter_Clear_Period_Flag
C:\Users\WALTON\AppData\Local\Temp/cckm9AFp.s:3903   .text:0000138a Timebase_UpCounter_Reset
C:\Users\WALTON\AppData\Local\Temp/cckm9AFp.s:3994   .text:000013e4 Timebase_UpCounter_Clear_All_Flags
C:\Users\WALTON\AppData\Local\Temp/cckm9AFp.s:4010   .text:000013ea Timebase_UpCounter_Start
C:\Users\WALTON\AppData\Local\Temp/cckm9AFp.s:4058   .text:00001420 Timebase_UpCounter_Stop
C:\Users\WALTON\AppData\Local\Temp/cckm9AFp.s:4106   .text:00001456 Timebase_UpCounter_Set_Securely
C:\Users\WALTON\AppData\Local\Temp/cckm9AFp.s:4215   .text:000014c6 Timebase_UpCounter_Set_Forcefully
C:\Users\WALTON\AppData\Local\Temp/cckm9AFp.s:4251   .text:000014f0 Timebase_UpCounter_Update
C:\Users\WALTON\AppData\Local\Temp/cckm9AFp.s:4535   .text:00001660 Timebase_UpCounter_Expired
C:\Users\WALTON\AppData\Local\Temp/cckm9AFp.s:4575   .text:00001694 Timebase_UpCounter_Expired_Event
C:\Users\WALTON\AppData\Local\Temp/cckm9AFp.s:4624   .text:000016d2 Timebase_UpCounter_Set_Period_Value_Securely
C:\Users\WALTON\AppData\Local\Temp/cckm9AFp.s:4690   .text:00001722 Timebase_UpCounter_Get_Remaining_Period_Value
C:\Users\WALTON\AppData\Local\Temp/cckm9AFp.s:4752   .text:00001776 Timebase_UpCounter_Period_Value_Expired
C:\Users\WALTON\AppData\Local\Temp/cckm9AFp.s:4848   .text:000017fa Timebase_UpCounter_Period_Value_Expired_Event
C:\Users\WALTON\AppData\Local\Temp/cckm9AFp.s:4900   .text:0000183a Timebase_UpCounter_Update_All
C:\Users\WALTON\AppData\Local\Temp/cckm9AFp.s:4917   .text:00001842 Timebase_UpCounter_Reset_All
C:\Users\WALTON\AppData\Local\Temp/cckm9AFp.s:4934   .text:0000184a Timebase_DownCounter_SS_Get_Status
C:\Users\WALTON\AppData\Local\Temp/cckm9AFp.s:4968   .text:00001874 Timebase_DownCounter_SS_Set_Status
C:\Users\WALTON\AppData\Local\Temp/cckm9AFp.s:5006   .text:000018a4 Timebase_DownCounter_SS_Get_Value
C:\Users\WALTON\AppData\Local\Temp/cckm9AFp.s:5042   .text:000018d0 Timebase_DownCounter_SS_Set_Value
C:\Users\WALTON\AppData\Local\Temp/cckm9AFp.s:5076   .text:000018fc Timebase_DownCounter_SS_Get_EndValueSec
C:\Users\WALTON\AppData\Local\Temp/cckm9AFp.s:5112   .text:00001928 Timebase_DownCounter_SS_Get_EndValueSubSec
C:\Users\WALTON\AppData\Local\Temp/cckm9AFp.s:5148   .text:00001954 Timebase_DownCounter_SS_Set_EndValueSec
C:\Users\WALTON\AppData\Local\Temp/cckm9AFp.s:5182   .text:00001980 Timebase_DownCounter_SS_Set_EndValueSubSec
C:\Users\WALTON\AppData\Local\Temp/cckm9AFp.s:5216   .text:000019ac Timebase_DownCounter_SS_Get_PeriodValue
C:\Users\WALTON\AppData\Local\Temp/cckm9AFp.s:5252   .text:000019d8 Timebase_DownCounter_SS_Set_PeriodValue
C:\Users\WALTON\AppData\Local\Temp/cckm9AFp.s:5309   .text:00001a2c Timebase_DownCounter_SS_Get_Period_Flag
C:\Users\WALTON\AppData\Local\Temp/cckm9AFp.s:5342   .text:00001a54 Timebase_DownCounter_SS_Set_Period_Flag
C:\Users\WALTON\AppData\Local\Temp/cckm9AFp.s:5376   .text:00001a7e Timebase_DownCounter_SS_Clear_Period_Flag
C:\Users\WALTON\AppData\Local\Temp/cckm9AFp.s:5410   .text:00001aa8 Timebase_DownCounter_SS_Reset
C:\Users\WALTON\AppData\Local\Temp/cckm9AFp.s:5481   .text:00001aee Timebase_DownCounter_SS_Clear_All_Flags
C:\Users\WALTON\AppData\Local\Temp/cckm9AFp.s:5556   .text:00001b34 Timebase_DownCounter_SS_Start
C:\Users\WALTON\AppData\Local\Temp/cckm9AFp.s:5604   .text:00001b6a Timebase_DownCounter_SS_Stop
C:\Users\WALTON\AppData\Local\Temp/cckm9AFp.s:5652   .text:00001ba0 Timebase_DownCounter_SS_Set_Securely
C:\Users\WALTON\AppData\Local\Temp/cckm9AFp.s:5912   .text:00001d1c Timebase_DownCounter_SS_Set_Forcefully
C:\Users\WALTON\AppData\Local\Temp/cckm9AFp.s:5990   .text:00001d68 Timebase_DownCounter_SS_Update
C:\Users\WALTON\AppData\Local\Temp/cckm9AFp.s:6287   .text:00001eea Timebase_DownCounter_SS_Expired
C:\Users\WALTON\AppData\Local\Temp/cckm9AFp.s:6327   .text:00001f1e Timebase_DownCounter_SS_Expired_Event
C:\Users\WALTON\AppData\Local\Temp/cckm9AFp.s:6422   .text:00001f78 Timebase_DownCounter_SS_Set_Period_Value_Securely
C:\Users\WALTON\AppData\Local\Temp/cckm9AFp.s:6519   .text:00001ff8 Timebase_DownCounter_SS_Get_Remaining_Period_Value
C:\Users\WALTON\AppData\Local\Temp/cckm9AFp.s:6581   .text:0000204c Timebase_DownCounter_SS_Period_Value_Expired
C:\Users\WALTON\AppData\Local\Temp/cckm9AFp.s:6678   .text:000020d2 Timebase_DownCounter_SS_Period_Value_Expired_Event
C:\Users\WALTON\AppData\Local\Temp/cckm9AFp.s:6730   .text:00002112 Timebase_DownCounter_SS_Update_All
C:\Users\WALTON\AppData\Local\Temp/cckm9AFp.s:6747   .text:0000211a Timebase_DownCounter_SS_Reset_All
C:\Users\WALTON\AppData\Local\Temp/cckm9AFp.s:6811   .text:0000214a Timebase_DownCounter_Get_Status
C:\Users\WALTON\AppData\Local\Temp/cckm9AFp.s:6847   .text:00002178 Timebase_DownCounter_Set_Status
C:\Users\WALTON\AppData\Local\Temp/cckm9AFp.s:6887   .text:000021ac Timebase_DownCounter_Get_Value
C:\Users\WALTON\AppData\Local\Temp/cckm9AFp.s:6925   .text:000021dc Timebase_DownCounter_Set_Value
C:\Users\WALTON\AppData\Local\Temp/cckm9AFp.s:6962   .text:0000220c Timebase_DownCounter_Get_EndValue
C:\Users\WALTON\AppData\Local\Temp/cckm9AFp.s:7000   .text:0000223c Timebase_DownCounter_Set_EndValue
C:\Users\WALTON\AppData\Local\Temp/cckm9AFp.s:7037   .text:0000226c Timebase_DownCounter_Get_PeriodValue
C:\Users\WALTON\AppData\Local\Temp/cckm9AFp.s:7075   .text:0000229c Timebase_DownCounter_Set_PeriodValue
C:\Users\WALTON\AppData\Local\Temp/cckm9AFp.s:7137   .text:000022f8 Timebase_DownCounter_Get_Period_Flag
C:\Users\WALTON\AppData\Local\Temp/cckm9AFp.s:7172   .text:00002324 Timebase_DownCounter_Set_Period_Flag
C:\Users\WALTON\AppData\Local\Temp/cckm9AFp.s:7208   .text:00002352 Timebase_DownCounter_Clear_Period_Flag
C:\Users\WALTON\AppData\Local\Temp/cckm9AFp.s:7244   .text:00002380 Timebase_DownCounter_Reset
C:\Users\WALTON\AppData\Local\Temp/cckm9AFp.s:7307   .text:000023c0 Timebase_DownCounter_Clear_All_Flags
C:\Users\WALTON\AppData\Local\Temp/cckm9AFp.s:7374   .text:00002400 Timebase_DownCounter_Start
C:\Users\WALTON\AppData\Local\Temp/cckm9AFp.s:7424   .text:0000243a Timebase_DownCounter_Stop
C:\Users\WALTON\AppData\Local\Temp/cckm9AFp.s:7474   .text:00002474 Timebase_DownCounter_Set_Securely
C:\Users\WALTON\AppData\Local\Temp/cckm9AFp.s:7574   .text:000024e6 Timebase_DownCounter_Set_Forcefully
C:\Users\WALTON\AppData\Local\Temp/cckm9AFp.s:7648   .text:00002534 Timebase_DownCounter_Update
C:\Users\WALTON\AppData\Local\Temp/cckm9AFp.s:7815   .text:000025fe Timebase_DownCounter_Expired
C:\Users\WALTON\AppData\Local\Temp/cckm9AFp.s:7857   .text:00002636 Timebase_DownCounter_Expired_Event
C:\Users\WALTON\AppData\Local\Temp/cckm9AFp.s:7944   .text:0000268a Timebase_DownCounter_Set_Period_Value_Securely
C:\Users\WALTON\AppData\Local\Temp/cckm9AFp.s:8043   .text:0000270e Timebase_DownCounter_Get_Remaining_Period_Value
C:\Users\WALTON\AppData\Local\Temp/cckm9AFp.s:8107   .text:00002766 Timebase_DownCounter_Period_Value_Expired
C:\Users\WALTON\AppData\Local\Temp/cckm9AFp.s:8207   .text:000027f2 Timebase_DownCounter_Period_Value_Expired_Event
C:\Users\WALTON\AppData\Local\Temp/cckm9AFp.s:8261   .text:00002836 Timebase_DownCounter_Update_All
C:\Users\WALTON\AppData\Local\Temp/cckm9AFp.s:8278   .text:0000283e Timebase_DownCounter_Reset_All
C:\Users\WALTON\AppData\Local\Temp/cckm9AFp.s:8332   .text:00002864 Timebase_Reset
C:\Users\WALTON\AppData\Local\Temp/cckm9AFp.s:8350   .text:00002872 Timebase_Init
C:\Users\WALTON\AppData\Local\Temp/cckm9AFp.s:8377   .text:0000288c Timebase_Main_Loop_Executables
C:\Users\WALTON\AppData\Local\Temp/cckm9AFp.s:8461   .text:00002928 Timebase_ISR_Executables
C:\Users\WALTON\AppData\Local\Temp/cckm9AFp.s:8519   .text:0000297c __vector_16

UNDEFINED SYMBOLS
__divmodsi4
__mulsi3
__do_copy_data
__do_clear_bss
