   1               		.file	"uart.c"
   2               	__SREG__ = 0x3f
   3               	__SP_H__ = 0x3e
   4               	__SP_L__ = 0x3d
   5               	__CCP__  = 0x34
   6               	__tmp_reg__ = 0
   7               	__zero_reg__ = 1
  15               	.Ltext0:
  16               	.global	UART_Struct_Init
  18               	UART_Struct_Init:
  19               	.LFB6:
  20               	.LM1:
  21               	/* prologue: function */
  22               	/* frame size = 0 */
  23               	.LM2:
  24 0000 1092 0000 		sts UART,__zero_reg__
  25 0004 E0E0      		ldi r30,lo8(UART+1)
  26 0006 F0E0      		ldi r31,hi8(UART+1)
  27               	.L2:
  28               	.LBB156:
  29               	.LM3:
  30 0008 1192      		st Z+,__zero_reg__
  31               	.LM4:
  32 000a 80E0      		ldi r24,hi8(UART+9)
  33 000c E030      		cpi r30,lo8(UART+9)
  34 000e F807      		cpc r31,r24
  35 0010 01F4      		brne .L2
  36               	.LBE156:
  37               	.LM5:
  38 0012 1082      		st Z,__zero_reg__
  39               	.LM6:
  40 0014 1182      		std Z+1,__zero_reg__
  41               	.LM7:
  42 0016 80E2      		ldi r24,lo8(32)
  43 0018 90E0      		ldi r25,hi8(32)
  44 001a 93A3      		std Z+35,r25
  45 001c 82A3      		std Z+34,r24
  46               	.LM8:
  47 001e 15A2      		std Z+37,__zero_reg__
  48 0020 14A2      		std Z+36,__zero_reg__
  49 0022 20E0      		ldi r18,lo8(0)
  50               	.LVL0:
  51 0024 00C0      		rjmp .L3
  52               	.LVL1:
  53               	.L4:
  54               	.LBB157:
  55               	.LM9:
  56 0026 E050      		subi r30,lo8(-(UART))
  57 0028 F040      		sbci r31,hi8(-(UART))
  58               	.LVL2:
  59 002a 1386      		std Z+11,__zero_reg__
  60               	.LM10:
  61 002c 2F5F      		subi r18,lo8(-(1))
  62               	.LVL3:
  63               	.L3:
  64 002e 8091 0000 		lds r24,UART+43
  65 0032 9091 0000 		lds r25,(UART+43)+1
  66 0036 E22F      		mov r30,r18
  67 0038 F0E0      		ldi r31,lo8(0)
  68 003a E817      		cp r30,r24
  69 003c F907      		cpc r31,r25
  70 003e 00F0      		brlo .L4
  71               	.LVL4:
  72               	/* epilogue start */
  73               	.LBE157:
  74               	.LM11:
  75 0040 0895      		ret
  76               	.LFE6:
  78               	.global	UART_Config_GPIO
  80               	UART_Config_GPIO:
  81               	.LFB7:
  82               	.LM12:
  83               	/* prologue: function */
  84               	/* frame size = 0 */
  85               	/* epilogue start */
  86               	.LM13:
  87 0042 0895      		ret
  88               	.LFE7:
  90               	.global	UART_Config_Clock
  92               	UART_Config_Clock:
  93               	.LFB8:
  94               	.LM14:
  95               	/* prologue: function */
  96               	/* frame size = 0 */
  97               	/* epilogue start */
  98               	.LM15:
  99 0044 0895      		ret
 100               	.LFE8:
 102               	.global	UART_Config_BAUD_Rate
 104               	UART_Config_BAUD_Rate:
 105               	.LFB9:
 106               	.LM16:
 107               	.LVL5:
 108               	/* prologue: function */
 109               	/* frame size = 0 */
 110 0046 9B01      		movw r18,r22
 111 0048 AC01      		movw r20,r24
 112               	.LM17:
 113 004a 60E6      		ldi r22,lo8(1500000)
 114 004c 73EE      		ldi r23,hi8(1500000)
 115 004e 86E1      		ldi r24,hlo8(1500000)
 116 0050 90E0      		ldi r25,hhi8(1500000)
 117               	.LVL6:
 118 0052 0E94 0000 		call __udivmodsi4
 119               	.LVL7:
 120 0056 2150      		subi r18,lo8(-(-1))
 121 0058 3040      		sbci r19,hi8(-(-1))
 122 005a 4040      		sbci r20,hlo8(-(-1))
 123 005c 5040      		sbci r21,hhi8(-(-1))
 124               	.LVL8:
 125               	.LM18:
 126 005e E0EC      		ldi r30,lo8(192)
 127 0060 F0E0      		ldi r31,hi8(192)
 128 0062 8081      		ld r24,Z
 129 0064 8260      		ori r24,lo8(2)
 130 0066 8083      		st Z,r24
 131               	.LM19:
 132 0068 BB27      		clr r27
 133 006a A52F      		mov r26,r21
 134 006c 942F      		mov r25,r20
 135 006e 832F      		mov r24,r19
 136 0070 8093 C500 		sts 197,r24
 137               	.LM20:
 138 0074 2093 C400 		sts 196,r18
 139               	/* epilogue start */
 140               	.LM21:
 141 0078 0895      		ret
 142               	.LFE9:
 144               	.global	UART_Config_Tx
 146               	UART_Config_Tx:
 147               	.LFB10:
 148               	.LM22:
 149               	/* prologue: function */
 150               	/* frame size = 0 */
 151               	.LM23:
 152 007a E1EC      		ldi r30,lo8(193)
 153 007c F0E0      		ldi r31,hi8(193)
 154 007e 8081      		ld r24,Z
 155 0080 8860      		ori r24,lo8(8)
 156 0082 8083      		st Z,r24
 157               	.LM24:
 158 0084 86E0      		ldi r24,lo8(6)
 159 0086 8093 C200 		sts 194,r24
 160               	/* epilogue start */
 161               	.LM25:
 162 008a 0895      		ret
 163               	.LFE10:
 165               	.global	UART_Config_Rx
 167               	UART_Config_Rx:
 168               	.LFB11:
 169               	.LM26:
 170               	/* prologue: function */
 171               	/* frame size = 0 */
 172               	.LM27:
 173 008c E1EC      		ldi r30,lo8(193)
 174 008e F0E0      		ldi r31,hi8(193)
 175 0090 8081      		ld r24,Z
 176 0092 8061      		ori r24,lo8(16)
 177 0094 8083      		st Z,r24
 178               	.LM28:
 179 0096 86E0      		ldi r24,lo8(6)
 180 0098 8093 C200 		sts 194,r24
 181               	/* epilogue start */
 182               	.LM29:
 183 009c 0895      		ret
 184               	.LFE11:
 186               	.global	UART_Config_Rx_Interrupt
 188               	UART_Config_Rx_Interrupt:
 189               	.LFB12:
 190               	.LM30:
 191               	/* prologue: function */
 192               	/* frame size = 0 */
 193               	.LM31:
 194 009e E1EC      		ldi r30,lo8(193)
 195 00a0 F0E0      		ldi r31,hi8(193)
 196 00a2 8081      		ld r24,Z
 197 00a4 8068      		ori r24,lo8(-128)
 198 00a6 8083      		st Z,r24
 199               	.LM32:
 200               	/* #APP */
 201               	 ;  129 "uart.c" 1
 202 00a8 7894      		sei
 203               	 ;  0 "" 2
 204               	/* epilogue start */
 205               	.LM33:
 206               	/* #NOAPP */
 207 00aa 0895      		ret
 208               	.LFE12:
 210               	.global	UART_Tx_Byte
 212               	UART_Tx_Byte:
 213               	.LFB13:
 214               	.LM34:
 215               	.LVL9:
 216               	/* prologue: function */
 217               	/* frame size = 0 */
 218 00ac 982F      		mov r25,r24
 219               	.LVL10:
 220               	.L20:
 221               	.LM35:
 222 00ae 8091 C000 		lds r24,192
 223 00b2 85FF      		sbrs r24,5
 224 00b4 00C0      		rjmp .L20
 225               	.LM36:
 226 00b6 9093 C600 		sts 198,r25
 227               	/* epilogue start */
 228               	.LM37:
 229 00ba 0895      		ret
 230               	.LFE13:
 232               	.global	UART_Rx_Byte
 234               	UART_Rx_Byte:
 235               	.LFB14:
 236               	.LM38:
 237 00bc DF93      		push r29
 238 00be CF93      		push r28
 239 00c0 0F92      		push __tmp_reg__
 240 00c2 CDB7      		in r28,__SP_L__
 241 00c4 DEB7      		in r29,__SP_H__
 242               	/* prologue: function */
 243               	/* frame size = 1 */
 244               	.LM39:
 245 00c6 1982      		std Y+1,__zero_reg__
 246               	.LVL11:
 247               	.LM40:
 248 00c8 8091 C000 		lds r24,192
 249 00cc 84FF      		sbrs r24,4
 250 00ce 00C0      		rjmp .L24
 251               	.LM41:
 252 00d0 8091 C600 		lds r24,198
 253               	.LVL12:
 254 00d4 8983      		std Y+1,r24
 255               	.LM42:
 256 00d6 81E0      		ldi r24,lo8(1)
 257               	.LVL13:
 258 00d8 00C0      		rjmp .L28
 259               	.L24:
 260               	.LM43:
 261 00da 8091 C000 		lds r24,192
 262 00de 83FF      		sbrs r24,3
 263 00e0 00C0      		rjmp .L26
 264               	.LM44:
 265 00e2 8091 C600 		lds r24,198
 266               	.LVL14:
 267 00e6 8983      		std Y+1,r24
 268               	.LM45:
 269 00e8 82E0      		ldi r24,lo8(2)
 270               	.LVL15:
 271               	.L28:
 272 00ea 8093 0000 		sts UART,r24
 273 00ee 00C0      		rjmp .L25
 274               	.L26:
 275               	.LM46:
 276 00f0 8091 C600 		lds r24,198
 277               	.LVL16:
 278 00f4 8983      		std Y+1,r24
 279               	.LM47:
 280 00f6 1092 0000 		sts UART,__zero_reg__
 281               	.LVL17:
 282               	.L25:
 283               	.LM48:
 284 00fa 8981      		ldd r24,Y+1
 285               	/* epilogue start */
 286               	.LM49:
 287 00fc 0F90      		pop __tmp_reg__
 288 00fe CF91      		pop r28
 289 0100 DF91      		pop r29
 290 0102 0895      		ret
 291               	.LFE14:
 293               	.global	UART_Timer_Struct_Init
 295               	UART_Timer_Struct_Init:
 296               	.LFB16:
 297               	.LM50:
 298               	/* prologue: function */
 299               	/* frame size = 0 */
 300               	.LM51:
 301 0104 1092 0000 		sts UART+47,__zero_reg__
 302               	/* epilogue start */
 303               	.LM52:
 304 0108 0895      		ret
 305               	.LFE16:
 307               	.global	UART_Timer_Init
 309               	UART_Timer_Init:
 310               	.LFB17:
 311               	.LM53:
 312               	/* prologue: function */
 313               	/* frame size = 0 */
 314               	/* epilogue start */
 315               	.LM54:
 316 010a 0895      		ret
 317               	.LFE17:
 319               	.global	UART_Timer_Enable
 321               	UART_Timer_Enable:
 322               	.LFB18:
 323               	.LM55:
 324               	/* prologue: function */
 325               	/* frame size = 0 */
 326               	/* epilogue start */
 327               	.LM56:
 328 010c 0895      		ret
 329               	.LFE18:
 331               	.global	UART_Timer_Disable
 333               	UART_Timer_Disable:
 334               	.LFB19:
 335               	.LM57:
 336               	/* prologue: function */
 337               	/* frame size = 0 */
 338               	/* epilogue start */
 339               	.LM58:
 340 010e 0895      		ret
 341               	.LFE19:
 343               	.global	UART_Timer_Get_Status
 345               	UART_Timer_Get_Status:
 346               	.LFB20:
 347               	.LM59:
 348               	/* prologue: function */
 349               	/* frame size = 0 */
 350               	.LM60:
 351 0110 8091 0000 		lds r24,UART+47
 352               	/* epilogue start */
 353               	.LM61:
 354 0114 0895      		ret
 355               	.LFE20:
 357               	.global	UART_Timer_Get_Val
 359               	UART_Timer_Get_Val:
 360               	.LFB21:
 361               	.LM62:
 362               	/* prologue: function */
 363               	/* frame size = 0 */
 364               	.LM63:
 365 0116 80E0      		ldi r24,lo8(0)
 366 0118 90E0      		ldi r25,hi8(0)
 367               	/* epilogue start */
 368 011a 0895      		ret
 369               	.LFE21:
 371               	.global	UART_Timer_Value_Reset
 373               	UART_Timer_Value_Reset:
 374               	.LFB22:
 375               	.LM64:
 376               	/* prologue: function */
 377               	/* frame size = 0 */
 378               	/* epilogue start */
 379               	.LM65:
 380 011c 0895      		ret
 381               	.LFE22:
 383               	.global	UART_Tx_Buf
 385               	UART_Tx_Buf:
 386               	.LFB24:
 387               	.LM66:
 388               	.LVL18:
 389               	/* prologue: function */
 390               	/* frame size = 0 */
 391 011e AC01      		movw r20,r24
 392               	.LM67:
 393 0120 20E0      		ldi r18,lo8(0)
 394 0122 30E0      		ldi r19,hi8(0)
 395               	.LVL19:
 396               	.LBB158:
 397               	.LM68:
 398 0124 70E0      		ldi r23,lo8(0)
 399               	.LVL20:
 400 0126 00C0      		rjmp .L44
 401               	.LVL21:
 402               	.L46:
 403               	.LM69:
 404 0128 FA01      		movw r30,r20
 405 012a E20F      		add r30,r18
 406 012c F31F      		adc r31,r19
 407 012e E081      		ld r30,Z
 408               	.L45:
 409               	.LBB159:
 410               	.LBB160:
 411               	.LM70:
 412 0130 8091 C000 		lds r24,192
 413 0134 85FF      		sbrs r24,5
 414 0136 00C0      		rjmp .L45
 415               	.LM71:
 416 0138 E093 C600 		sts 198,r30
 417               	.LBE160:
 418               	.LBE159:
 419               	.LM72:
 420 013c 2F5F      		subi r18,lo8(-(1))
 421 013e 3F4F      		sbci r19,hi8(-(1))
 422               	.LVL22:
 423               	.L44:
 424 0140 2617      		cp r18,r22
 425 0142 3707      		cpc r19,r23
 426 0144 00F0      		brlo .L46
 427               	/* epilogue start */
 428               	.LBE158:
 429               	.LM73:
 430 0146 0895      		ret
 431               	.LFE24:
 433               	.global	UART_Tx_NL
 435               	UART_Tx_NL:
 436               	.LFB25:
 437               	.LM74:
 438               	/* prologue: function */
 439               	/* frame size = 0 */
 440               	.L50:
 441               	.LBB161:
 442               	.LBB162:
 443               	.LM75:
 444 0148 8091 C000 		lds r24,192
 445 014c 85FF      		sbrs r24,5
 446 014e 00C0      		rjmp .L50
 447               	.LM76:
 448 0150 8DE0      		ldi r24,lo8(13)
 449 0152 8093 C600 		sts 198,r24
 450               	.L51:
 451               	.LBE162:
 452               	.LBE161:
 453               	.LBB163:
 454               	.LBB164:
 455               	.LM77:
 456 0156 8091 C000 		lds r24,192
 457 015a 85FF      		sbrs r24,5
 458 015c 00C0      		rjmp .L51
 459               	.LM78:
 460 015e 8AE0      		ldi r24,lo8(10)
 461 0160 8093 C600 		sts 198,r24
 462               	/* epilogue start */
 463               	.LBE164:
 464               	.LBE163:
 465               	.LM79:
 466 0164 0895      		ret
 467               	.LFE25:
 469               	.global	UART_Tx_SP
 471               	UART_Tx_SP:
 472               	.LFB26:
 473               	.LM80:
 474               	/* prologue: function */
 475               	/* frame size = 0 */
 476               	.L56:
 477               	.LBB165:
 478               	.LBB166:
 479               	.LM81:
 480 0166 8091 C000 		lds r24,192
 481 016a 85FF      		sbrs r24,5
 482 016c 00C0      		rjmp .L56
 483               	.LM82:
 484 016e 80E2      		ldi r24,lo8(32)
 485 0170 8093 C600 		sts 198,r24
 486               	/* epilogue start */
 487               	.LBE166:
 488               	.LBE165:
 489               	.LM83:
 490 0174 0895      		ret
 491               	.LFE26:
 493               	.global	UART_Tx_CM
 495               	UART_Tx_CM:
 496               	.LFB27:
 497               	.LM84:
 498               	/* prologue: function */
 499               	/* frame size = 0 */
 500               	.L60:
 501               	.LBB167:
 502               	.LBB168:
 503               	.LM85:
 504 0176 8091 C000 		lds r24,192
 505 017a 85FF      		sbrs r24,5
 506 017c 00C0      		rjmp .L60
 507               	.LM86:
 508 017e 8CE2      		ldi r24,lo8(44)
 509 0180 8093 C600 		sts 198,r24
 510               	/* epilogue start */
 511               	.LBE168:
 512               	.LBE167:
 513               	.LM87:
 514 0184 0895      		ret
 515               	.LFE27:
 517               	.global	UART_Tx_Text
 519               	UART_Tx_Text:
 520               	.LFB28:
 521               	.LM88:
 522               	.LVL23:
 523               	/* prologue: function */
 524               	/* frame size = 0 */
 525 0186 AC01      		movw r20,r24
 526               	.LM89:
 527 0188 20E0      		ldi r18,lo8(0)
 528               	.LVL24:
 529 018a 00C0      		rjmp .L64
 530               	.LVL25:
 531               	.L67:
 532               	.LBB169:
 533               	.LBB170:
 534               	.LM90:
 535 018c 8091 C000 		lds r24,192
 536 0190 85FF      		sbrs r24,5
 537 0192 00C0      		rjmp .L67
 538               	.LM91:
 539 0194 E093 C600 		sts 198,r30
 540               	.LBE170:
 541               	.LBE169:
 542               	.LM92:
 543 0198 2F5F      		subi r18,lo8(-(1))
 544               	.LVL26:
 545               	.L64:
 546               	.LM93:
 547 019a FA01      		movw r30,r20
 548 019c E20F      		add r30,r18
 549 019e F11D      		adc r31,__zero_reg__
 550 01a0 E081      		ld r30,Z
 551 01a2 EE23      		tst r30
 552 01a4 01F4      		brne .L67
 553               	/* epilogue start */
 554               	.LM94:
 555 01a6 0895      		ret
 556               	.LFE28:
 558               	.global	UART_Tx_Text_NL
 560               	UART_Tx_Text_NL:
 561               	.LFB29:
 562               	.LM95:
 563               	.LVL27:
 564               	/* prologue: function */
 565               	/* frame size = 0 */
 566               	.LM96:
 567 01a8 0E94 0000 		call UART_Tx_Text
 568               	.LVL28:
 569               	.LM97:
 570 01ac 0E94 0000 		call UART_Tx_NL
 571               	/* epilogue start */
 572               	.LM98:
 573 01b0 0895      		ret
 574               	.LFE29:
 576               	.global	UART_Tx_Text_SP
 578               	UART_Tx_Text_SP:
 579               	.LFB30:
 580               	.LM99:
 581               	.LVL29:
 582               	/* prologue: function */
 583               	/* frame size = 0 */
 584               	.LM100:
 585 01b2 0E94 0000 		call UART_Tx_Text
 586               	.LVL30:
 587               	.L72:
 588               	.LBB171:
 589               	.LBB172:
 590               	.LBB173:
 591               	.LBB174:
 592               	.LM101:
 593 01b6 8091 C000 		lds r24,192
 594 01ba 85FF      		sbrs r24,5
 595 01bc 00C0      		rjmp .L72
 596               	.LM102:
 597 01be 80E2      		ldi r24,lo8(32)
 598 01c0 8093 C600 		sts 198,r24
 599               	/* epilogue start */
 600               	.LBE174:
 601               	.LBE173:
 602               	.LBE172:
 603               	.LBE171:
 604               	.LM103:
 605 01c4 0895      		ret
 606               	.LFE30:
 608               	.global	UART_Tx_Text_CM
 610               	UART_Tx_Text_CM:
 611               	.LFB31:
 612               	.LM104:
 613               	.LVL31:
 614               	/* prologue: function */
 615               	/* frame size = 0 */
 616               	.LM105:
 617 01c6 0E94 0000 		call UART_Tx_Text
 618               	.LVL32:
 619               	.L76:
 620               	.LBB175:
 621               	.LBB176:
 622               	.LBB177:
 623               	.LBB178:
 624               	.LM106:
 625 01ca 8091 C000 		lds r24,192
 626 01ce 85FF      		sbrs r24,5
 627 01d0 00C0      		rjmp .L76
 628               	.LM107:
 629 01d2 8CE2      		ldi r24,lo8(44)
 630 01d4 8093 C600 		sts 198,r24
 631               	/* epilogue start */
 632               	.LBE178:
 633               	.LBE177:
 634               	.LBE176:
 635               	.LBE175:
 636               	.LM108:
 637 01d8 0895      		ret
 638               	.LFE31:
 640               	.global	UART_Determine_Digit_Numbers
 642               	UART_Determine_Digit_Numbers:
 643               	.LFB32:
 644               	.LM109:
 645               	.LVL33:
 646 01da BF92      		push r11
 647 01dc CF92      		push r12
 648 01de DF92      		push r13
 649 01e0 EF92      		push r14
 650 01e2 FF92      		push r15
 651 01e4 0F93      		push r16
 652 01e6 1F93      		push r17
 653               	/* prologue: function */
 654               	/* frame size = 0 */
 655 01e8 6B01      		movw r12,r22
 656 01ea 7C01      		movw r14,r24
 657               	.LM110:
 658 01ec 6115      		cp r22,__zero_reg__
 659 01ee 7105      		cpc r23,__zero_reg__
 660 01f0 8105      		cpc r24,__zero_reg__
 661 01f2 9105      		cpc r25,__zero_reg__
 662 01f4 01F4      		brne .L80
 663               	.LM111:
 664 01f6 1092 0000 		sts UART+1,__zero_reg__
 665               	.LM112:
 666 01fa 81E0      		ldi r24,lo8(1)
 667 01fc 8093 0000 		sts UART+9,r24
 668 0200 00C0      		rjmp .L83
 669               	.L80:
 670 0202 BB24      		clr r11
 671               	.LVL34:
 672               	.L82:
 673               	.LM113:
 674 0204 0B2D      		mov r16,r11
 675 0206 10E0      		ldi r17,lo8(0)
 676               	.LVL35:
 677 0208 0050      		subi r16,lo8(-(UART))
 678 020a 1040      		sbci r17,hi8(-(UART))
 679               	.LVL36:
 680 020c C701      		movw r24,r14
 681 020e B601      		movw r22,r12
 682               	.LVL37:
 683 0210 2AE0      		ldi r18,lo8(10)
 684 0212 30E0      		ldi r19,hi8(10)
 685 0214 40E0      		ldi r20,hlo8(10)
 686 0216 50E0      		ldi r21,hhi8(10)
 687 0218 0E94 0000 		call __udivmodsi4
 688 021c F801      		movw r30,r16
 689 021e 6183      		std Z+1,r22
 690               	.LM114:
 691 0220 C701      		movw r24,r14
 692 0222 B601      		movw r22,r12
 693 0224 2AE0      		ldi r18,lo8(10)
 694 0226 30E0      		ldi r19,hi8(10)
 695 0228 40E0      		ldi r20,hlo8(10)
 696 022a 50E0      		ldi r21,hhi8(10)
 697 022c 0E94 0000 		call __udivmodsi4
 698 0230 C901      		movw r24,r18
 699 0232 DA01      		movw r26,r20
 700 0234 6C01      		movw r12,r24
 701 0236 7D01      		movw r14,r26
 702               	.LM115:
 703 0238 B394      		inc r11
 704               	.LVL38:
 705               	.LM116:
 706 023a C114      		cp r12,__zero_reg__
 707 023c D104      		cpc r13,__zero_reg__
 708 023e E104      		cpc r14,__zero_reg__
 709 0240 F104      		cpc r15,__zero_reg__
 710 0242 01F4      		brne .L82
 711               	.LM117:
 712 0244 B092 0000 		sts UART+9,r11
 713               	.LVL39:
 714               	.L83:
 715               	/* epilogue start */
 716               	.LM118:
 717 0248 1F91      		pop r17
 718               	.LVL40:
 719 024a 0F91      		pop r16
 720 024c FF90      		pop r15
 721 024e EF90      		pop r14
 722 0250 DF90      		pop r13
 723 0252 CF90      		pop r12
 724               	.LVL41:
 725 0254 BF90      		pop r11
 726               	.LVL42:
 727 0256 0895      		ret
 728               	.LFE32:
 730               	.global	UART_Tx_Number_Digits
 732               	UART_Tx_Number_Digits:
 733               	.LFB33:
 734               	.LM119:
 735               	/* prologue: function */
 736               	/* frame size = 0 */
 737               	.LBB179:
 738               	.LM120:
 739 0258 E091 0000 		lds r30,UART+9
 740               	.LVL43:
 741 025c 00C0      		rjmp .L86
 742               	.LVL44:
 743               	.L88:
 744               	.LBB180:
 745               	.LM121:
 746 025e 2E2F      		mov r18,r30
 747 0260 2150      		subi r18,lo8(-(-1))
 748               	.LM122:
 749 0262 E22F      		mov r30,r18
 750               	.LVL45:
 751 0264 F0E0      		ldi r31,lo8(0)
 752 0266 E050      		subi r30,lo8(-(UART))
 753 0268 F040      		sbci r31,hi8(-(UART))
 754 026a 9181      		ldd r25,Z+1
 755               	.LVL46:
 756               	.L87:
 757               	.LBB181:
 758               	.LBB182:
 759               	.LM123:
 760 026c 8091 C000 		lds r24,192
 761 0270 85FF      		sbrs r24,5
 762 0272 00C0      		rjmp .L87
 763               	.LBE182:
 764               	.LBE181:
 765               	.LM124:
 766 0274 905D      		subi r25,lo8(-(48))
 767               	.LBB184:
 768               	.LBB183:
 769               	.LM125:
 770 0276 9093 C600 		sts 198,r25
 771 027a E22F      		mov r30,r18
 772               	.LVL47:
 773               	.L86:
 774               	.LBE183:
 775               	.LBE184:
 776               	.LBE180:
 777               	.LM126:
 778 027c EE23      		tst r30
 779 027e 01F4      		brne .L88
 780               	/* epilogue start */
 781               	.LBE179:
 782               	.LM127:
 783 0280 0895      		ret
 784               	.LFE33:
 786               	.global	UART_Tx_Number
 788               	UART_Tx_Number:
 789               	.LFB34:
 790               	.LM128:
 791               	.LVL48:
 792               	/* prologue: function */
 793               	/* frame size = 0 */
 794 0282 9B01      		movw r18,r22
 795 0284 AC01      		movw r20,r24
 796               	.LM129:
 797 0286 97FF      		sbrs r25,7
 798 0288 00C0      		rjmp .L92
 799               	.L95:
 800               	.LBB185:
 801               	.LBB186:
 802               	.LM130:
 803 028a 8091 C000 		lds r24,192
 804 028e 85FF      		sbrs r24,5
 805 0290 00C0      		rjmp .L95
 806               	.LM131:
 807 0292 8DE2      		ldi r24,lo8(45)
 808 0294 8093 C600 		sts 198,r24
 809               	.LBE186:
 810               	.LBE185:
 811               	.LM132:
 812 0298 5095      		com r21
 813 029a 4095      		com r20
 814 029c 3095      		com r19
 815 029e 2195      		neg r18
 816 02a0 3F4F      		sbci r19,lo8(-1)
 817 02a2 4F4F      		sbci r20,lo8(-1)
 818 02a4 5F4F      		sbci r21,lo8(-1)
 819               	.LVL49:
 820               	.L92:
 821               	.LM133:
 822 02a6 CA01      		movw r24,r20
 823 02a8 B901      		movw r22,r18
 824 02aa 0E94 0000 		call UART_Determine_Digit_Numbers
 825               	.LVL50:
 826               	.LM134:
 827 02ae 0E94 0000 		call UART_Tx_Number_Digits
 828               	/* epilogue start */
 829               	.LM135:
 830 02b2 0895      		ret
 831               	.LFE34:
 833               	.global	UART_Tx_Number_Hex
 835               	UART_Tx_Number_Hex:
 836               	.LFB35:
 837               	.LM136:
 838               	.LVL51:
 839 02b4 1F93      		push r17
 840 02b6 CF93      		push r28
 841 02b8 DF93      		push r29
 842               	/* prologue: function */
 843               	/* frame size = 0 */
 844 02ba AB01      		movw r20,r22
 845 02bc BC01      		movw r22,r24
 846               	.LM137:
 847 02be 4F3F      		cpi r20,lo8(255)
 848 02c0 5105      		cpc r21,__zero_reg__
 849 02c2 6105      		cpc r22,__zero_reg__
 850 02c4 7105      		cpc r23,__zero_reg__
 851 02c6 01F0      		breq .+2
 852 02c8 00F4      		brsh .L98
 853               	.LVL52:
 854 02ca E8E0      		ldi r30,lo8(8)
 855 02cc F0E0      		ldi r31,hi8(8)
 856               	.LVL53:
 857 02ce C2E0      		ldi r28,lo8(2)
 858 02d0 D0E0      		ldi r29,hi8(2)
 859               	.LVL54:
 860 02d2 00C0      		rjmp .L108
 861               	.LVL55:
 862               	.L98:
 863               	.LM138:
 864 02d4 4030      		cpi r20,lo8(65536)
 865 02d6 80E0      		ldi r24,hi8(65536)
 866 02d8 5807      		cpc r21,r24
 867 02da 81E0      		ldi r24,hlo8(65536)
 868 02dc 6807      		cpc r22,r24
 869 02de 80E0      		ldi r24,hhi8(65536)
 870 02e0 7807      		cpc r23,r24
 871 02e2 00F0      		brlo .L100
 872 02e4 E0E2      		ldi r30,lo8(32)
 873 02e6 F0E0      		ldi r31,hi8(32)
 874               	.LVL56:
 875 02e8 C8E0      		ldi r28,lo8(8)
 876 02ea D0E0      		ldi r29,hi8(8)
 877               	.LVL57:
 878 02ec 00C0      		rjmp .L108
 879               	.LVL58:
 880               	.L100:
 881 02ee E0E1      		ldi r30,lo8(16)
 882 02f0 F0E0      		ldi r31,hi8(16)
 883               	.LVL59:
 884 02f2 C4E0      		ldi r28,lo8(4)
 885 02f4 D0E0      		ldi r29,hi8(4)
 886               	.LVL60:
 887               	.L108:
 888               	.LBB187:
 889               	.LBB188:
 890               	.LM139:
 891 02f6 8091 C000 		lds r24,192
 892 02fa 85FF      		sbrs r24,5
 893 02fc 00C0      		rjmp .L108
 894               	.LM140:
 895 02fe 80E3      		ldi r24,lo8(48)
 896 0300 8093 C600 		sts 198,r24
 897               	.L101:
 898               	.LBE188:
 899               	.LBE187:
 900               	.LBB189:
 901               	.LBB190:
 902               	.LM141:
 903 0304 8091 C000 		lds r24,192
 904 0308 85FF      		sbrs r24,5
 905 030a 00C0      		rjmp .L101
 906               	.LM142:
 907 030c 88E7      		ldi r24,lo8(120)
 908 030e 8093 C600 		sts 198,r24
 909 0312 10E0      		ldi r17,lo8(0)
 910               	.LVL61:
 911 0314 00C0      		rjmp .L102
 912               	.LVL62:
 913               	.L105:
 914               	.LBE190:
 915               	.LBE189:
 916               	.LBB191:
 917               	.LM143:
 918 0316 3497      		sbiw r30,4
 919               	.LM144:
 920 0318 DB01      		movw r26,r22
 921 031a CA01      		movw r24,r20
 922               	.LVL63:
 923 031c 0E2E      		mov r0,r30
 924 031e 00C0      		rjmp 2f
 925 0320 B695      	1:	lsr r27
 926 0322 A795      		ror r26
 927 0324 9795      		ror r25
 928 0326 8795      		ror r24
 929 0328 0A94      	2:	dec r0
 930 032a 02F4      		brpl 1b
 931 032c 90E0      		ldi r25,lo8(0)
 932               	.LVL64:
 933 032e 8F70      		andi r24,lo8(15)
 934 0330 9070      		andi r25,hi8(15)
 935               	.LVL65:
 936               	.LM145:
 937 0332 8A30      		cpi r24,10
 938 0334 9105      		cpc r25,__zero_reg__
 939 0336 00F0      		brlo .L103
 940               	.LM146:
 941 0338 9C01      		movw r18,r24
 942 033a 295C      		subi r18,lo8(-(55))
 943 033c 3F4F      		sbci r19,hi8(-(55))
 944               	.LVL66:
 945 033e 00C0      		rjmp .L107
 946               	.LVL67:
 947               	.L103:
 948               	.LM147:
 949 0340 9C01      		movw r18,r24
 950 0342 205D      		subi r18,lo8(-(48))
 951 0344 3F4F      		sbci r19,hi8(-(48))
 952               	.LVL68:
 953               	.L107:
 954               	.LBB192:
 955               	.LBB193:
 956               	.LM148:
 957 0346 8091 C000 		lds r24,192
 958 034a 85FF      		sbrs r24,5
 959 034c 00C0      		rjmp .L107
 960               	.LM149:
 961 034e 2093 C600 		sts 198,r18
 962               	.LBE193:
 963               	.LBE192:
 964               	.LM150:
 965 0352 1F5F      		subi r17,lo8(-(1))
 966               	.L102:
 967 0354 812F      		mov r24,r17
 968 0356 90E0      		ldi r25,lo8(0)
 969               	.LVL69:
 970 0358 8C17      		cp r24,r28
 971 035a 9D07      		cpc r25,r29
 972 035c 00F0      		brlo .L105
 973               	.LVL70:
 974               	/* epilogue start */
 975               	.LBE191:
 976               	.LM151:
 977 035e DF91      		pop r29
 978 0360 CF91      		pop r28
 979               	.LVL71:
 980 0362 1F91      		pop r17
 981 0364 0895      		ret
 982               	.LFE35:
 984               	.global	UART_Tx_Number_Bin
 986               	UART_Tx_Number_Bin:
 987               	.LFB36:
 988               	.LM152:
 989               	.LVL72:
 990 0366 CF92      		push r12
 991 0368 DF92      		push r13
 992 036a EF92      		push r14
 993 036c FF92      		push r15
 994 036e 0F93      		push r16
 995 0370 1F93      		push r17
 996 0372 CF93      		push r28
 997 0374 DF93      		push r29
 998               	/* prologue: function */
 999               	/* frame size = 0 */
 1000 0376 AB01      		movw r20,r22
 1001 0378 BC01      		movw r22,r24
 1002               	.LM153:
 1003 037a 4F3F      		cpi r20,lo8(255)
 1004 037c 5105      		cpc r21,__zero_reg__
 1005 037e 6105      		cpc r22,__zero_reg__
 1006 0380 7105      		cpc r23,__zero_reg__
 1007 0382 01F0      		breq .+2
 1008 0384 00F4      		brsh .L113
 1009               	.LVL73:
 1010 0386 97E0      		ldi r25,lo8(7)
 1011               	.LVL74:
 1012 0388 00C0      		rjmp .L124
 1013               	.LVL75:
 1014               	.L113:
 1015               	.LM154:
 1016 038a 4030      		cpi r20,lo8(65536)
 1017 038c 80E0      		ldi r24,hi8(65536)
 1018 038e 5807      		cpc r21,r24
 1019 0390 81E0      		ldi r24,hlo8(65536)
 1020 0392 6807      		cpc r22,r24
 1021 0394 80E0      		ldi r24,hhi8(65536)
 1022 0396 7807      		cpc r23,r24
 1023 0398 00F0      		brlo .L115
 1024 039a 9FE1      		ldi r25,lo8(31)
 1025               	.LVL76:
 1026 039c 00C0      		rjmp .L124
 1027               	.LVL77:
 1028               	.L115:
 1029 039e 9FE0      		ldi r25,lo8(15)
 1030               	.LVL78:
 1031               	.L124:
 1032               	.LBB194:
 1033               	.LBB195:
 1034               	.LM155:
 1035 03a0 8091 C000 		lds r24,192
 1036 03a4 85FF      		sbrs r24,5
 1037 03a6 00C0      		rjmp .L124
 1038               	.LM156:
 1039 03a8 80E3      		ldi r24,lo8(48)
 1040 03aa 8093 C600 		sts 198,r24
 1041               	.L116:
 1042               	.LBE195:
 1043               	.LBE194:
 1044               	.LBB196:
 1045               	.LBB197:
 1046               	.LM157:
 1047 03ae 8091 C000 		lds r24,192
 1048 03b2 85FF      		sbrs r24,5
 1049 03b4 00C0      		rjmp .L116
 1050               	.LM158:
 1051 03b6 82E6      		ldi r24,lo8(98)
 1052 03b8 8093 C600 		sts 198,r24
 1053 03bc 20E0      		ldi r18,lo8(0)
 1054 03be 30E0      		ldi r19,hi8(0)
 1055               	.LM159:
 1056 03c0 E92F      		mov r30,r25
 1057 03c2 F0E0      		ldi r31,lo8(0)
 1058               	.LBE197:
 1059               	.LBE196:
 1060               	.LBB198:
 1061               	.LBB199:
 1062               	.LBB200:
 1063               	.LM160:
 1064 03c4 00E3      		ldi r16,lo8(48)
 1065               	.LBE200:
 1066               	.LBE199:
 1067               	.LBB202:
 1068               	.LBB203:
 1069 03c6 11E3      		ldi r17,lo8(49)
 1070               	.LBE203:
 1071               	.LBE202:
 1072               	.LM161:
 1073 03c8 EF01      		movw r28,r30
 1074 03ca 2196      		adiw r28,1
 1075               	.L120:
 1076               	.LM162:
 1077 03cc CF01      		movw r24,r30
 1078 03ce 821B      		sub r24,r18
 1079 03d0 930B      		sbc r25,r19
 1080 03d2 6A01      		movw r12,r20
 1081 03d4 7B01      		movw r14,r22
 1082 03d6 00C0      		rjmp 2f
 1083 03d8 F694      	1:	lsr r15
 1084 03da E794      		ror r14
 1085 03dc D794      		ror r13
 1086 03de C794      		ror r12
 1087 03e0 8A95      	2:	dec r24
 1088 03e2 02F4      		brpl 1b
 1089 03e4 D701      		movw r26,r14
 1090 03e6 C601      		movw r24,r12
 1091 03e8 8170      		andi r24,lo8(1)
 1092 03ea 9070      		andi r25,hi8(1)
 1093 03ec 892B      		or r24,r25
 1094 03ee 01F0      		breq .L123
 1095               	.L122:
 1096               	.LBB205:
 1097               	.LBB204:
 1098               	.LM163:
 1099 03f0 8091 C000 		lds r24,192
 1100 03f4 85FF      		sbrs r24,5
 1101 03f6 00C0      		rjmp .L122
 1102               	.LM164:
 1103 03f8 1093 C600 		sts 198,r17
 1104 03fc 00C0      		rjmp .L119
 1105               	.L123:
 1106               	.LBE204:
 1107               	.LBE205:
 1108               	.LBB206:
 1109               	.LBB201:
 1110               	.LM165:
 1111 03fe 8091 C000 		lds r24,192
 1112 0402 85FF      		sbrs r24,5
 1113 0404 00C0      		rjmp .L123
 1114               	.LM166:
 1115 0406 0093 C600 		sts 198,r16
 1116               	.L119:
 1117 040a 2F5F      		subi r18,lo8(-(1))
 1118 040c 3F4F      		sbci r19,hi8(-(1))
 1119               	.LBE201:
 1120               	.LBE206:
 1121               	.LM167:
 1122 040e 2C17      		cp r18,r28
 1123 0410 3D07      		cpc r19,r29
 1124 0412 01F4      		brne .L120
 1125               	/* epilogue start */
 1126               	.LBE198:
 1127               	.LM168:
 1128 0414 DF91      		pop r29
 1129 0416 CF91      		pop r28
 1130 0418 1F91      		pop r17
 1131 041a 0F91      		pop r16
 1132 041c FF90      		pop r15
 1133 041e EF90      		pop r14
 1134 0420 DF90      		pop r13
 1135 0422 CF90      		pop r12
 1136 0424 0895      		ret
 1137               	.LFE36:
 1139               	.global	UART_Tx_Number_NL
 1141               	UART_Tx_Number_NL:
 1142               	.LFB37:
 1143               	.LM169:
 1144               	.LVL79:
 1145               	/* prologue: function */
 1146               	/* frame size = 0 */
 1147               	.LM170:
 1148 0426 0E94 0000 		call UART_Tx_Number
 1149               	.LVL80:
 1150               	.LM171:
 1151 042a 0E94 0000 		call UART_Tx_NL
 1152               	/* epilogue start */
 1153               	.LM172:
 1154 042e 0895      		ret
 1155               	.LFE37:
 1157               	.global	UART_Tx_Number_SP
 1159               	UART_Tx_Number_SP:
 1160               	.LFB38:
 1161               	.LM173:
 1162               	.LVL81:
 1163               	/* prologue: function */
 1164               	/* frame size = 0 */
 1165               	.LM174:
 1166 0430 0E94 0000 		call UART_Tx_Number
 1167               	.LVL82:
 1168               	.L133:
 1169               	.LBB207:
 1170               	.LBB208:
 1171               	.LBB209:
 1172               	.LBB210:
 1173               	.LM175:
 1174 0434 8091 C000 		lds r24,192
 1175 0438 85FF      		sbrs r24,5
 1176 043a 00C0      		rjmp .L133
 1177               	.LM176:
 1178 043c 80E2      		ldi r24,lo8(32)
 1179 043e 8093 C600 		sts 198,r24
 1180               	/* epilogue start */
 1181               	.LBE210:
 1182               	.LBE209:
 1183               	.LBE208:
 1184               	.LBE207:
 1185               	.LM177:
 1186 0442 0895      		ret
 1187               	.LFE38:
 1189               	.global	UART_Tx_Number_CM
 1191               	UART_Tx_Number_CM:
 1192               	.LFB39:
 1193               	.LM178:
 1194               	.LVL83:
 1195               	/* prologue: function */
 1196               	/* frame size = 0 */
 1197               	.LM179:
 1198 0444 0E94 0000 		call UART_Tx_Number
 1199               	.LVL84:
 1200               	.L137:
 1201               	.LBB211:
 1202               	.LBB212:
 1203               	.LBB213:
 1204               	.LBB214:
 1205               	.LM180:
 1206 0448 8091 C000 		lds r24,192
 1207 044c 85FF      		sbrs r24,5
 1208 044e 00C0      		rjmp .L137
 1209               	.LM181:
 1210 0450 8CE2      		ldi r24,lo8(44)
 1211 0452 8093 C600 		sts 198,r24
 1212               	/* epilogue start */
 1213               	.LBE214:
 1214               	.LBE213:
 1215               	.LBE212:
 1216               	.LBE211:
 1217               	.LM182:
 1218 0456 0895      		ret
 1219               	.LFE39:
 1221               	.global	UART_Tx_Number_Hex_NL
 1223               	UART_Tx_Number_Hex_NL:
 1224               	.LFB40:
 1225               	.LM183:
 1226               	.LVL85:
 1227               	/* prologue: function */
 1228               	/* frame size = 0 */
 1229               	.LM184:
 1230 0458 0E94 0000 		call UART_Tx_Number_Hex
 1231               	.LVL86:
 1232               	.LM185:
 1233 045c 0E94 0000 		call UART_Tx_NL
 1234               	/* epilogue start */
 1235               	.LM186:
 1236 0460 0895      		ret
 1237               	.LFE40:
 1239               	.global	UART_Tx_Number_Hex_SP
 1241               	UART_Tx_Number_Hex_SP:
 1242               	.LFB41:
 1243               	.LM187:
 1244               	.LVL87:
 1245               	/* prologue: function */
 1246               	/* frame size = 0 */
 1247               	.LM188:
 1248 0462 0E94 0000 		call UART_Tx_Number_Hex
 1249               	.LVL88:
 1250               	.L143:
 1251               	.LBB215:
 1252               	.LBB216:
 1253               	.LBB217:
 1254               	.LBB218:
 1255               	.LM189:
 1256 0466 8091 C000 		lds r24,192
 1257 046a 85FF      		sbrs r24,5
 1258 046c 00C0      		rjmp .L143
 1259               	.LM190:
 1260 046e 80E2      		ldi r24,lo8(32)
 1261 0470 8093 C600 		sts 198,r24
 1262               	/* epilogue start */
 1263               	.LBE218:
 1264               	.LBE217:
 1265               	.LBE216:
 1266               	.LBE215:
 1267               	.LM191:
 1268 0474 0895      		ret
 1269               	.LFE41:
 1271               	.global	UART_Tx_Number_Hex_CM
 1273               	UART_Tx_Number_Hex_CM:
 1274               	.LFB42:
 1275               	.LM192:
 1276               	.LVL89:
 1277               	/* prologue: function */
 1278               	/* frame size = 0 */
 1279               	.LM193:
 1280 0476 0E94 0000 		call UART_Tx_Number_Hex
 1281               	.LVL90:
 1282               	.L147:
 1283               	.LBB219:
 1284               	.LBB220:
 1285               	.LBB221:
 1286               	.LBB222:
 1287               	.LM194:
 1288 047a 8091 C000 		lds r24,192
 1289 047e 85FF      		sbrs r24,5
 1290 0480 00C0      		rjmp .L147
 1291               	.LM195:
 1292 0482 8CE2      		ldi r24,lo8(44)
 1293 0484 8093 C600 		sts 198,r24
 1294               	/* epilogue start */
 1295               	.LBE222:
 1296               	.LBE221:
 1297               	.LBE220:
 1298               	.LBE219:
 1299               	.LM196:
 1300 0488 0895      		ret
 1301               	.LFE42:
 1303               	.global	UART_Tx_Number_Bin_NL
 1305               	UART_Tx_Number_Bin_NL:
 1306               	.LFB43:
 1307               	.LM197:
 1308               	.LVL91:
 1309               	/* prologue: function */
 1310               	/* frame size = 0 */
 1311               	.LM198:
 1312 048a 0E94 0000 		call UART_Tx_Number_Bin
 1313               	.LVL92:
 1314               	.LM199:
 1315 048e 0E94 0000 		call UART_Tx_NL
 1316               	/* epilogue start */
 1317               	.LM200:
 1318 0492 0895      		ret
 1319               	.LFE43:
 1321               	.global	UART_Tx_Number_Bin_SP
 1323               	UART_Tx_Number_Bin_SP:
 1324               	.LFB44:
 1325               	.LM201:
 1326               	.LVL93:
 1327               	/* prologue: function */
 1328               	/* frame size = 0 */
 1329               	.LM202:
 1330 0494 0E94 0000 		call UART_Tx_Number_Bin
 1331               	.LVL94:
 1332               	.L153:
 1333               	.LBB223:
 1334               	.LBB224:
 1335               	.LBB225:
 1336               	.LBB226:
 1337               	.LM203:
 1338 0498 8091 C000 		lds r24,192
 1339 049c 85FF      		sbrs r24,5
 1340 049e 00C0      		rjmp .L153
 1341               	.LM204:
 1342 04a0 80E2      		ldi r24,lo8(32)
 1343 04a2 8093 C600 		sts 198,r24
 1344               	/* epilogue start */
 1345               	.LBE226:
 1346               	.LBE225:
 1347               	.LBE224:
 1348               	.LBE223:
 1349               	.LM205:
 1350 04a6 0895      		ret
 1351               	.LFE44:
 1353               	.global	UART_Tx_Number_Bin_CM
 1355               	UART_Tx_Number_Bin_CM:
 1356               	.LFB45:
 1357               	.LM206:
 1358               	.LVL95:
 1359               	/* prologue: function */
 1360               	/* frame size = 0 */
 1361               	.LM207:
 1362 04a8 0E94 0000 		call UART_Tx_Number_Bin
 1363               	.LVL96:
 1364               	.L157:
 1365               	.LBB227:
 1366               	.LBB228:
 1367               	.LBB229:
 1368               	.LBB230:
 1369               	.LM208:
 1370 04ac 8091 C000 		lds r24,192
 1371 04b0 85FF      		sbrs r24,5
 1372 04b2 00C0      		rjmp .L157
 1373               	.LM209:
 1374 04b4 8CE2      		ldi r24,lo8(44)
 1375 04b6 8093 C600 		sts 198,r24
 1376               	/* epilogue start */
 1377               	.LBE230:
 1378               	.LBE229:
 1379               	.LBE228:
 1380               	.LBE227:
 1381               	.LM210:
 1382 04ba 0895      		ret
 1383               	.LFE45:
 1385               	.global	UART_Tx_Parameter_NL
 1387               	UART_Tx_Parameter_NL:
 1388               	.LFB46:
 1389               	.LM211:
 1390               	.LVL97:
 1391 04bc EF92      		push r14
 1392 04be FF92      		push r15
 1393 04c0 0F93      		push r16
 1394 04c2 1F93      		push r17
 1395               	/* prologue: function */
 1396               	/* frame size = 0 */
 1397 04c4 7A01      		movw r14,r20
 1398 04c6 8B01      		movw r16,r22
 1399               	.LM212:
 1400 04c8 0E94 0000 		call UART_Tx_Text
 1401               	.LVL98:
 1402               	.L161:
 1403               	.LBB231:
 1404               	.LBB232:
 1405               	.LBB233:
 1406               	.LBB234:
 1407               	.LM213:
 1408 04cc 8091 C000 		lds r24,192
 1409 04d0 85FF      		sbrs r24,5
 1410 04d2 00C0      		rjmp .L161
 1411               	.LM214:
 1412 04d4 80E2      		ldi r24,lo8(32)
 1413 04d6 8093 C600 		sts 198,r24
 1414               	.LBE234:
 1415               	.LBE233:
 1416               	.LBE232:
 1417               	.LBE231:
 1418               	.LM215:
 1419 04da C801      		movw r24,r16
 1420 04dc B701      		movw r22,r14
 1421 04de 0E94 0000 		call UART_Tx_Number_NL
 1422               	/* epilogue start */
 1423               	.LM216:
 1424 04e2 1F91      		pop r17
 1425 04e4 0F91      		pop r16
 1426 04e6 FF90      		pop r15
 1427 04e8 EF90      		pop r14
 1428               	.LVL99:
 1429 04ea 0895      		ret
 1430               	.LFE46:
 1432               	.global	UART_Tx_Parameter_SP
 1434               	UART_Tx_Parameter_SP:
 1435               	.LFB47:
 1436               	.LM217:
 1437               	.LVL100:
 1438 04ec EF92      		push r14
 1439 04ee FF92      		push r15
 1440 04f0 0F93      		push r16
 1441 04f2 1F93      		push r17
 1442               	/* prologue: function */
 1443               	/* frame size = 0 */
 1444 04f4 7A01      		movw r14,r20
 1445 04f6 8B01      		movw r16,r22
 1446               	.LM218:
 1447 04f8 0E94 0000 		call UART_Tx_Text
 1448               	.LVL101:
 1449               	.L165:
 1450               	.LBB235:
 1451               	.LBB236:
 1452               	.LBB237:
 1453               	.LBB238:
 1454               	.LM219:
 1455 04fc 8091 C000 		lds r24,192
 1456 0500 85FF      		sbrs r24,5
 1457 0502 00C0      		rjmp .L165
 1458               	.LM220:
 1459 0504 80E2      		ldi r24,lo8(32)
 1460 0506 8093 C600 		sts 198,r24
 1461               	.LBE238:
 1462               	.LBE237:
 1463               	.LBE236:
 1464               	.LBE235:
 1465               	.LM221:
 1466 050a C801      		movw r24,r16
 1467 050c B701      		movw r22,r14
 1468 050e 0E94 0000 		call UART_Tx_Number_SP
 1469               	/* epilogue start */
 1470               	.LM222:
 1471 0512 1F91      		pop r17
 1472 0514 0F91      		pop r16
 1473 0516 FF90      		pop r15
 1474 0518 EF90      		pop r14
 1475               	.LVL102:
 1476 051a 0895      		ret
 1477               	.LFE47:
 1479               	.global	UART_Tx_Parameter_CM
 1481               	UART_Tx_Parameter_CM:
 1482               	.LFB48:
 1483               	.LM223:
 1484               	.LVL103:
 1485 051c EF92      		push r14
 1486 051e FF92      		push r15
 1487 0520 0F93      		push r16
 1488 0522 1F93      		push r17
 1489               	/* prologue: function */
 1490               	/* frame size = 0 */
 1491 0524 7A01      		movw r14,r20
 1492 0526 8B01      		movw r16,r22
 1493               	.LM224:
 1494 0528 0E94 0000 		call UART_Tx_Text
 1495               	.LVL104:
 1496               	.L169:
 1497               	.LBB239:
 1498               	.LBB240:
 1499               	.LBB241:
 1500               	.LBB242:
 1501               	.LM225:
 1502 052c 8091 C000 		lds r24,192
 1503 0530 85FF      		sbrs r24,5
 1504 0532 00C0      		rjmp .L169
 1505               	.LM226:
 1506 0534 80E2      		ldi r24,lo8(32)
 1507 0536 8093 C600 		sts 198,r24
 1508               	.LBE242:
 1509               	.LBE241:
 1510               	.LBE240:
 1511               	.LBE239:
 1512               	.LM227:
 1513 053a C801      		movw r24,r16
 1514 053c B701      		movw r22,r14
 1515 053e 0E94 0000 		call UART_Tx_Number_CM
 1516               	/* epilogue start */
 1517               	.LM228:
 1518 0542 1F91      		pop r17
 1519 0544 0F91      		pop r16
 1520 0546 FF90      		pop r15
 1521 0548 EF90      		pop r14
 1522               	.LVL105:
 1523 054a 0895      		ret
 1524               	.LFE48:
 1526               	.global	UART_Tx_Parameter_Hex_NL
 1528               	UART_Tx_Parameter_Hex_NL:
 1529               	.LFB49:
 1530               	.LM229:
 1531               	.LVL106:
 1532 054c EF92      		push r14
 1533 054e FF92      		push r15
 1534 0550 0F93      		push r16
 1535 0552 1F93      		push r17
 1536               	/* prologue: function */
 1537               	/* frame size = 0 */
 1538 0554 7A01      		movw r14,r20
 1539 0556 8B01      		movw r16,r22
 1540               	.LM230:
 1541 0558 0E94 0000 		call UART_Tx_Text
 1542               	.LVL107:
 1543               	.L173:
 1544               	.LBB243:
 1545               	.LBB244:
 1546               	.LBB245:
 1547               	.LBB246:
 1548               	.LM231:
 1549 055c 8091 C000 		lds r24,192
 1550 0560 85FF      		sbrs r24,5
 1551 0562 00C0      		rjmp .L173
 1552               	.LM232:
 1553 0564 80E2      		ldi r24,lo8(32)
 1554 0566 8093 C600 		sts 198,r24
 1555               	.LBE246:
 1556               	.LBE245:
 1557               	.LBE244:
 1558               	.LBE243:
 1559               	.LM233:
 1560 056a C801      		movw r24,r16
 1561 056c B701      		movw r22,r14
 1562 056e 0E94 0000 		call UART_Tx_Number_Hex_NL
 1563               	/* epilogue start */
 1564               	.LM234:
 1565 0572 1F91      		pop r17
 1566 0574 0F91      		pop r16
 1567 0576 FF90      		pop r15
 1568 0578 EF90      		pop r14
 1569               	.LVL108:
 1570 057a 0895      		ret
 1571               	.LFE49:
 1573               	.global	UART_Tx_Parameter_Hex_SP
 1575               	UART_Tx_Parameter_Hex_SP:
 1576               	.LFB50:
 1577               	.LM235:
 1578               	.LVL109:
 1579 057c EF92      		push r14
 1580 057e FF92      		push r15
 1581 0580 0F93      		push r16
 1582 0582 1F93      		push r17
 1583               	/* prologue: function */
 1584               	/* frame size = 0 */
 1585 0584 7A01      		movw r14,r20
 1586 0586 8B01      		movw r16,r22
 1587               	.LM236:
 1588 0588 0E94 0000 		call UART_Tx_Text
 1589               	.LVL110:
 1590               	.L177:
 1591               	.LBB247:
 1592               	.LBB248:
 1593               	.LBB249:
 1594               	.LBB250:
 1595               	.LM237:
 1596 058c 8091 C000 		lds r24,192
 1597 0590 85FF      		sbrs r24,5
 1598 0592 00C0      		rjmp .L177
 1599               	.LM238:
 1600 0594 80E2      		ldi r24,lo8(32)
 1601 0596 8093 C600 		sts 198,r24
 1602               	.LBE250:
 1603               	.LBE249:
 1604               	.LBE248:
 1605               	.LBE247:
 1606               	.LM239:
 1607 059a C801      		movw r24,r16
 1608 059c B701      		movw r22,r14
 1609 059e 0E94 0000 		call UART_Tx_Number_Hex_SP
 1610               	/* epilogue start */
 1611               	.LM240:
 1612 05a2 1F91      		pop r17
 1613 05a4 0F91      		pop r16
 1614 05a6 FF90      		pop r15
 1615 05a8 EF90      		pop r14
 1616               	.LVL111:
 1617 05aa 0895      		ret
 1618               	.LFE50:
 1620               	.global	UART_Tx_Parameter_Hex_CM
 1622               	UART_Tx_Parameter_Hex_CM:
 1623               	.LFB51:
 1624               	.LM241:
 1625               	.LVL112:
 1626 05ac EF92      		push r14
 1627 05ae FF92      		push r15
 1628 05b0 0F93      		push r16
 1629 05b2 1F93      		push r17
 1630               	/* prologue: function */
 1631               	/* frame size = 0 */
 1632 05b4 7A01      		movw r14,r20
 1633 05b6 8B01      		movw r16,r22
 1634               	.LM242:
 1635 05b8 0E94 0000 		call UART_Tx_Text
 1636               	.LVL113:
 1637               	.L181:
 1638               	.LBB251:
 1639               	.LBB252:
 1640               	.LBB253:
 1641               	.LBB254:
 1642               	.LM243:
 1643 05bc 8091 C000 		lds r24,192
 1644 05c0 85FF      		sbrs r24,5
 1645 05c2 00C0      		rjmp .L181
 1646               	.LM244:
 1647 05c4 80E2      		ldi r24,lo8(32)
 1648 05c6 8093 C600 		sts 198,r24
 1649               	.LBE254:
 1650               	.LBE253:
 1651               	.LBE252:
 1652               	.LBE251:
 1653               	.LM245:
 1654 05ca C801      		movw r24,r16
 1655 05cc B701      		movw r22,r14
 1656 05ce 0E94 0000 		call UART_Tx_Number_Hex_CM
 1657               	/* epilogue start */
 1658               	.LM246:
 1659 05d2 1F91      		pop r17
 1660 05d4 0F91      		pop r16
 1661 05d6 FF90      		pop r15
 1662 05d8 EF90      		pop r14
 1663               	.LVL114:
 1664 05da 0895      		ret
 1665               	.LFE51:
 1667               	.global	UART_Tx_Parameter_Bin_NL
 1669               	UART_Tx_Parameter_Bin_NL:
 1670               	.LFB52:
 1671               	.LM247:
 1672               	.LVL115:
 1673 05dc EF92      		push r14
 1674 05de FF92      		push r15
 1675 05e0 0F93      		push r16
 1676 05e2 1F93      		push r17
 1677               	/* prologue: function */
 1678               	/* frame size = 0 */
 1679 05e4 7A01      		movw r14,r20
 1680 05e6 8B01      		movw r16,r22
 1681               	.LM248:
 1682 05e8 0E94 0000 		call UART_Tx_Text
 1683               	.LVL116:
 1684               	.L185:
 1685               	.LBB255:
 1686               	.LBB256:
 1687               	.LBB257:
 1688               	.LBB258:
 1689               	.LM249:
 1690 05ec 8091 C000 		lds r24,192
 1691 05f0 85FF      		sbrs r24,5
 1692 05f2 00C0      		rjmp .L185
 1693               	.LM250:
 1694 05f4 80E2      		ldi r24,lo8(32)
 1695 05f6 8093 C600 		sts 198,r24
 1696               	.LBE258:
 1697               	.LBE257:
 1698               	.LBE256:
 1699               	.LBE255:
 1700               	.LM251:
 1701 05fa C801      		movw r24,r16
 1702 05fc B701      		movw r22,r14
 1703 05fe 0E94 0000 		call UART_Tx_Number_Bin_NL
 1704               	/* epilogue start */
 1705               	.LM252:
 1706 0602 1F91      		pop r17
 1707 0604 0F91      		pop r16
 1708 0606 FF90      		pop r15
 1709 0608 EF90      		pop r14
 1710               	.LVL117:
 1711 060a 0895      		ret
 1712               	.LFE52:
 1714               	.global	UART_Tx_Parameter_Bin_SP
 1716               	UART_Tx_Parameter_Bin_SP:
 1717               	.LFB53:
 1718               	.LM253:
 1719               	.LVL118:
 1720 060c EF92      		push r14
 1721 060e FF92      		push r15
 1722 0610 0F93      		push r16
 1723 0612 1F93      		push r17
 1724               	/* prologue: function */
 1725               	/* frame size = 0 */
 1726 0614 7A01      		movw r14,r20
 1727 0616 8B01      		movw r16,r22
 1728               	.LM254:
 1729 0618 0E94 0000 		call UART_Tx_Text
 1730               	.LVL119:
 1731               	.L189:
 1732               	.LBB259:
 1733               	.LBB260:
 1734               	.LBB261:
 1735               	.LBB262:
 1736               	.LM255:
 1737 061c 8091 C000 		lds r24,192
 1738 0620 85FF      		sbrs r24,5
 1739 0622 00C0      		rjmp .L189
 1740               	.LM256:
 1741 0624 80E2      		ldi r24,lo8(32)
 1742 0626 8093 C600 		sts 198,r24
 1743               	.LBE262:
 1744               	.LBE261:
 1745               	.LBE260:
 1746               	.LBE259:
 1747               	.LM257:
 1748 062a C801      		movw r24,r16
 1749 062c B701      		movw r22,r14
 1750 062e 0E94 0000 		call UART_Tx_Number_Bin_SP
 1751               	/* epilogue start */
 1752               	.LM258:
 1753 0632 1F91      		pop r17
 1754 0634 0F91      		pop r16
 1755 0636 FF90      		pop r15
 1756 0638 EF90      		pop r14
 1757               	.LVL120:
 1758 063a 0895      		ret
 1759               	.LFE53:
 1761               	.global	UART_Tx_Parameter_Bin_CM
 1763               	UART_Tx_Parameter_Bin_CM:
 1764               	.LFB54:
 1765               	.LM259:
 1766               	.LVL121:
 1767 063c EF92      		push r14
 1768 063e FF92      		push r15
 1769 0640 0F93      		push r16
 1770 0642 1F93      		push r17
 1771               	/* prologue: function */
 1772               	/* frame size = 0 */
 1773 0644 7A01      		movw r14,r20
 1774 0646 8B01      		movw r16,r22
 1775               	.LM260:
 1776 0648 0E94 0000 		call UART_Tx_Text
 1777               	.LVL122:
 1778               	.L193:
 1779               	.LBB263:
 1780               	.LBB264:
 1781               	.LBB265:
 1782               	.LBB266:
 1783               	.LM261:
 1784 064c 8091 C000 		lds r24,192
 1785 0650 85FF      		sbrs r24,5
 1786 0652 00C0      		rjmp .L193
 1787               	.LM262:
 1788 0654 80E2      		ldi r24,lo8(32)
 1789 0656 8093 C600 		sts 198,r24
 1790               	.LBE266:
 1791               	.LBE265:
 1792               	.LBE264:
 1793               	.LBE263:
 1794               	.LM263:
 1795 065a C801      		movw r24,r16
 1796 065c B701      		movw r22,r14
 1797 065e 0E94 0000 		call UART_Tx_Number_Bin_CM
 1798               	/* epilogue start */
 1799               	.LM264:
 1800 0662 1F91      		pop r17
 1801 0664 0F91      		pop r16
 1802 0666 FF90      		pop r15
 1803 0668 EF90      		pop r14
 1804               	.LVL123:
 1805 066a 0895      		ret
 1806               	.LFE54:
 1808               	.global	UART_Buf_Flush
 1810               	UART_Buf_Flush:
 1811               	.LFB55:
 1812               	.LM265:
 1813               	/* prologue: function */
 1814               	/* frame size = 0 */
 1815               	.LM266:
 1816 066c 80E0      		ldi r24,lo8(0)
 1817 066e 90E0      		ldi r25,hi8(0)
 1818               	.L197:
 1819               	.LBB267:
 1820               	.LM267:
 1821 0670 FC01      		movw r30,r24
 1822 0672 E050      		subi r30,lo8(-(UART))
 1823 0674 F040      		sbci r31,hi8(-(UART))
 1824 0676 1386      		std Z+11,__zero_reg__
 1825 0678 0196      		adiw r24,1
 1826               	.LM268:
 1827 067a 8032      		cpi r24,32
 1828 067c 9105      		cpc r25,__zero_reg__
 1829 067e 01F4      		brne .L197
 1830               	.LBE267:
 1831               	.LM269:
 1832 0680 1092 0000 		sts (UART+45)+1,__zero_reg__
 1833 0684 1092 0000 		sts UART+45,__zero_reg__
 1834               	/* epilogue start */
 1835               	.LM270:
 1836 0688 0895      		ret
 1837               	.LFE55:
 1839               	.global	UART_Buf_Get
 1841               	UART_Buf_Get:
 1842               	.LFB56:
 1843               	.LM271:
 1844               	.LVL124:
 1845               	/* prologue: function */
 1846               	/* frame size = 0 */
 1847               	.LM272:
 1848 068a FC01      		movw r30,r24
 1849 068c E050      		subi r30,lo8(-(UART))
 1850 068e F040      		sbci r31,hi8(-(UART))
 1851 0690 8385      		ldd r24,Z+11
 1852               	.LVL125:
 1853               	/* epilogue start */
 1854               	.LM273:
 1855 0692 0895      		ret
 1856               	.LFE56:
 1858               	.global	UART_Buf_Get_Index
 1860               	UART_Buf_Get_Index:
 1861               	.LFB57:
 1862               	.LM274:
 1863               	/* prologue: function */
 1864               	/* frame size = 0 */
 1865               	.LM275:
 1866 0694 8091 0000 		lds r24,UART+45
 1867 0698 9091 0000 		lds r25,(UART+45)+1
 1868               	/* epilogue start */
 1869               	.LM276:
 1870 069c 0895      		ret
 1871               	.LFE57:
 1873               	.global	UART_Data_Available
 1875               	UART_Data_Available:
 1876               	.LFB58:
 1877               	.LM277:
 1878               	/* prologue: function */
 1879               	/* frame size = 0 */
 1880               	.LM278:
 1881 069e 8091 0000 		lds r24,UART+48
 1882               	/* epilogue start */
 1883               	.LM279:
 1884 06a2 0895      		ret
 1885               	.LFE58:
 1887               	.global	UART_Data_Clear_Available_Flag
 1889               	UART_Data_Clear_Available_Flag:
 1890               	.LFB59:
 1891               	.LM280:
 1892               	/* prologue: function */
 1893               	/* frame size = 0 */
 1894               	.LM281:
 1895 06a4 1092 0000 		sts UART+48,__zero_reg__
 1896               	/* epilogue start */
 1897               	.LM282:
 1898 06a8 0895      		ret
 1899               	.LFE59:
 1901               	.global	UART_Data_Len_Get
 1903               	UART_Data_Len_Get:
 1904               	.LFB60:
 1905               	.LM283:
 1906               	/* prologue: function */
 1907               	/* frame size = 0 */
 1908               	.LBB268:
 1909               	.LBB269:
 1910               	.LM284:
 1911 06aa 8091 0000 		lds r24,UART+45
 1912 06ae 9091 0000 		lds r25,(UART+45)+1
 1913               	/* epilogue start */
 1914               	.LBE269:
 1915               	.LBE268:
 1916               	.LM285:
 1917 06b2 0895      		ret
 1918               	.LFE60:
 1920               	.global	UART_Data_Copy_Buf
 1922               	UART_Data_Copy_Buf:
 1923               	.LFB61:
 1924               	.LM286:
 1925               	.LVL126:
 1926               	/* prologue: function */
 1927               	/* frame size = 0 */
 1928 06b4 AC01      		movw r20,r24
 1929               	.LM287:
 1930 06b6 20E0      		ldi r18,lo8(0)
 1931 06b8 30E0      		ldi r19,hi8(0)
 1932               	.LVL127:
 1933 06ba 00C0      		rjmp .L211
 1934               	.LVL128:
 1935               	.L212:
 1936               	.LBB270:
 1937               	.LBB271:
 1938               	.LBB272:
 1939               	.LM288:
 1940 06bc F901      		movw r30,r18
 1941 06be E050      		subi r30,lo8(-(UART))
 1942 06c0 F040      		sbci r31,hi8(-(UART))
 1943 06c2 8385      		ldd r24,Z+11
 1944               	.LBE272:
 1945               	.LBE271:
 1946               	.LM289:
 1947 06c4 FA01      		movw r30,r20
 1948 06c6 E20F      		add r30,r18
 1949 06c8 F31F      		adc r31,r19
 1950 06ca 8083      		st Z,r24
 1951               	.LM290:
 1952 06cc 2F5F      		subi r18,lo8(-(1))
 1953 06ce 3F4F      		sbci r19,hi8(-(1))
 1954               	.LVL129:
 1955               	.L211:
 1956               	.LBB273:
 1957               	.LBB274:
 1958               	.LBB275:
 1959               	.LBB276:
 1960               	.LM291:
 1961 06d0 8091 0000 		lds r24,UART+45
 1962 06d4 9091 0000 		lds r25,(UART+45)+1
 1963               	.LBE276:
 1964               	.LBE275:
 1965               	.LBE274:
 1966               	.LBE273:
 1967               	.LM292:
 1968 06d8 90E0      		ldi r25,lo8(0)
 1969 06da 2817      		cp r18,r24
 1970 06dc 3907      		cpc r19,r25
 1971 06de 00F0      		brlo .L212
 1972               	/* epilogue start */
 1973               	.LBE270:
 1974               	.LM293:
 1975 06e0 0895      		ret
 1976               	.LFE61:
 1978               	.global	UART_Data_Print_Buf
 1980               	UART_Data_Print_Buf:
 1981               	.LFB62:
 1982               	.LM294:
 1983 06e2 CF93      		push r28
 1984 06e4 DF93      		push r29
 1985               	/* prologue: function */
 1986               	/* frame size = 0 */
 1987               	.LBB277:
 1988               	.LBB278:
 1989               	.LM295:
 1990 06e6 8091 0000 		lds r24,UART+48
 1991               	.LBE278:
 1992               	.LBE277:
 1993               	.LM296:
 1994 06ea 8823      		tst r24
 1995 06ec 01F0      		breq .L215
 1996 06ee C0E0      		ldi r28,lo8(0)
 1997 06f0 D0E0      		ldi r29,hi8(0)
 1998               	.LVL130:
 1999 06f2 00C0      		rjmp .L216
 2000               	.L217:
 2001               	.LBB279:
 2002               	.LBB280:
 2003               	.LBB281:
 2004               	.LM297:
 2005 06f4 FE01      		movw r30,r28
 2006 06f6 E050      		subi r30,lo8(-(UART))
 2007 06f8 F040      		sbci r31,hi8(-(UART))
 2008 06fa 6385      		ldd r22,Z+11
 2009               	.LBE281:
 2010               	.LBE280:
 2011               	.LM298:
 2012 06fc 70E0      		ldi r23,lo8(0)
 2013 06fe 80E0      		ldi r24,lo8(0)
 2014 0700 90E0      		ldi r25,hi8(0)
 2015 0702 0E94 0000 		call UART_Tx_Number_Hex
 2016               	.LM299:
 2017 0706 2196      		adiw r28,1
 2018               	.L216:
 2019               	.LBB282:
 2020               	.LBB283:
 2021               	.LBB284:
 2022               	.LBB285:
 2023               	.LM300:
 2024 0708 8091 0000 		lds r24,UART+45
 2025 070c 9091 0000 		lds r25,(UART+45)+1
 2026               	.LBE285:
 2027               	.LBE284:
 2028               	.LBE283:
 2029               	.LBE282:
 2030               	.LM301:
 2031 0710 90E0      		ldi r25,lo8(0)
 2032 0712 C817      		cp r28,r24
 2033 0714 D907      		cpc r29,r25
 2034 0716 00F0      		brlo .L217
 2035               	.L215:
 2036               	.LBE279:
 2037               	.LM302:
 2038 0718 0E94 0000 		call UART_Tx_NL
 2039               	/* epilogue start */
 2040               	.LM303:
 2041 071c DF91      		pop r29
 2042 071e CF91      		pop r28
 2043               	.LVL131:
 2044 0720 0895      		ret
 2045               	.LFE62:
 2047               	.global	UART_ISR_Handler
 2049               	UART_ISR_Handler:
 2050               	.LFB63:
 2051               	.LM304:
 2052               	/* prologue: function */
 2053               	/* frame size = 0 */
 2054               	.LM305:
 2055 0722 0E94 0000 		call UART_Rx_Byte
 2056 0726 8093 0000 		sts UART+10,r24
 2057               	.LM306:
 2058 072a 8091 0000 		lds r24,UART
 2059 072e 8823      		tst r24
 2060 0730 01F4      		brne .L220
 2061               	.LM307:
 2062 0732 E091 0000 		lds r30,UART+45
 2063 0736 F091 0000 		lds r31,(UART+45)+1
 2064 073a 8091 0000 		lds r24,UART+10
 2065 073e E050      		subi r30,lo8(-(UART))
 2066 0740 F040      		sbci r31,hi8(-(UART))
 2067 0742 8387      		std Z+11,r24
 2068               	.LM308:
 2069 0744 8091 0000 		lds r24,UART+45
 2070 0748 9091 0000 		lds r25,(UART+45)+1
 2071 074c 0196      		adiw r24,1
 2072 074e 9093 0000 		sts (UART+45)+1,r25
 2073 0752 8093 0000 		sts UART+45,r24
 2074               	.LM309:
 2075 0756 2091 0000 		lds r18,UART+45
 2076 075a 3091 0000 		lds r19,(UART+45)+1
 2077 075e 8091 0000 		lds r24,UART+43
 2078 0762 9091 0000 		lds r25,(UART+43)+1
 2079 0766 2817      		cp r18,r24
 2080 0768 3907      		cpc r19,r25
 2081 076a 00F0      		brlo .L222
 2082               	.LM310:
 2083 076c 1092 0000 		sts (UART+45)+1,__zero_reg__
 2084 0770 1092 0000 		sts UART+45,__zero_reg__
 2085 0774 0895      		ret
 2086               	.L220:
 2087               	.LM311:
 2088 0776 1092 0000 		sts UART+10,__zero_reg__
 2089               	.L222:
 2090 077a 0895      		ret
 2091               	.LFE63:
 2093               	.global	__vector_18
 2095               	__vector_18:
 2096               	.LFB15:
 2097               	.LM312:
 2098 077c 1F92      		push __zero_reg__
 2099 077e 0F92      		push r0
 2100 0780 0FB6      		in r0,__SREG__
 2101 0782 0F92      		push r0
 2102 0784 1124      		clr __zero_reg__
 2103 0786 2F93      		push r18
 2104 0788 3F93      		push r19
 2105 078a 4F93      		push r20
 2106 078c 5F93      		push r21
 2107 078e 6F93      		push r22
 2108 0790 7F93      		push r23
 2109 0792 8F93      		push r24
 2110 0794 9F93      		push r25
 2111 0796 AF93      		push r26
 2112 0798 BF93      		push r27
 2113 079a EF93      		push r30
 2114 079c FF93      		push r31
 2115               	/* prologue: Signal */
 2116               	/* frame size = 0 */
 2117               	.LM313:
 2118 079e 0E94 0000 		call UART_ISR_Handler
 2119               	/* epilogue start */
 2120               	.LM314:
 2121 07a2 FF91      		pop r31
 2122 07a4 EF91      		pop r30
 2123 07a6 BF91      		pop r27
 2124 07a8 AF91      		pop r26
 2125 07aa 9F91      		pop r25
 2126 07ac 8F91      		pop r24
 2127 07ae 7F91      		pop r23
 2128 07b0 6F91      		pop r22
 2129 07b2 5F91      		pop r21
 2130 07b4 4F91      		pop r20
 2131 07b6 3F91      		pop r19
 2132 07b8 2F91      		pop r18
 2133 07ba 0F90      		pop r0
 2134 07bc 0FBE      		out __SREG__,r0
 2135 07be 0F90      		pop r0
 2136 07c0 1F90      		pop __zero_reg__
 2137 07c2 1895      		reti
 2138               	.LFE15:
 2140               	.global	UART_CRC_Calculate_Byte
 2142               	UART_CRC_Calculate_Byte:
 2143               	.LFB65:
 2144               	.LM315:
 2145               	.LVL132:
 2146               	/* prologue: function */
 2147               	/* frame size = 0 */
 2148               	.LM316:
 2149 07c4 362F      		mov r19,r22
 2150               	.LVL133:
 2151 07c6 20E0      		ldi r18,lo8(0)
 2152               	.LVL134:
 2153 07c8 2827      		eor r18,r24
 2154 07ca 3927      		eor r19,r25
 2155               	.LVL135:
 2156 07cc 40E0      		ldi r20,lo8(0)
 2157               	.LVL136:
 2158               	.LBB286:
 2159               	.LM317:
 2160 07ce 61E2      		ldi r22,lo8(4129)
 2161 07d0 70E1      		ldi r23,hi8(4129)
 2162               	.LVL137:
 2163               	.L228:
 2164 07d2 C901      		movw r24,r18
 2165 07d4 880F      		lsl r24
 2166 07d6 991F      		rol r25
 2167               	.LVL138:
 2168               	.LM318:
 2169 07d8 37FF      		sbrs r19,7
 2170 07da 00C0      		rjmp .L226
 2171               	.LVL139:
 2172               	.LM319:
 2173 07dc 9C01      		movw r18,r24
 2174 07de 2627      		eor r18,r22
 2175 07e0 3727      		eor r19,r23
 2176 07e2 00C0      		rjmp .L227
 2177               	.LVL140:
 2178               	.L226:
 2179               	.LM320:
 2180 07e4 9C01      		movw r18,r24
 2181               	.L227:
 2182               	.LM321:
 2183 07e6 4F5F      		subi r20,lo8(-(1))
 2184 07e8 4830      		cpi r20,lo8(8)
 2185 07ea 01F4      		brne .L228
 2186               	.LBE286:
 2187               	.LM322:
 2188 07ec C901      		movw r24,r18
 2189               	.LVL141:
 2190               	/* epilogue start */
 2191 07ee 0895      		ret
 2192               	.LFE65:
 2194               	.global	UART_CRC_Calculate_Block
 2196               	UART_CRC_Calculate_Block:
 2197               	.LFB66:
 2198               	.LM323:
 2199               	.LVL142:
 2200 07f0 0F93      		push r16
 2201 07f2 1F93      		push r17
 2202 07f4 CF93      		push r28
 2203 07f6 DF93      		push r29
 2204               	/* prologue: function */
 2205               	/* frame size = 0 */
 2206 07f8 062F      		mov r16,r22
 2207               	.LM324:
 2208 07fa EC01      		movw r28,r24
 2209               	.LVL143:
 2210 07fc 20E0      		ldi r18,lo8(0)
 2211 07fe 30E0      		ldi r19,hi8(0)
 2212               	.LVL144:
 2213 0800 10E0      		ldi r17,lo8(0)
 2214               	.LVL145:
 2215 0802 00C0      		rjmp .L232
 2216               	.LVL146:
 2217               	.L233:
 2218               	.LBB287:
 2219               	.LM325:
 2220 0804 C901      		movw r24,r18
 2221 0806 6991      		ld r22,Y+
 2222 0808 0E94 0000 		call UART_CRC_Calculate_Byte
 2223               	.LVL147:
 2224 080c 9C01      		movw r18,r24
 2225               	.LVL148:
 2226               	.LM326:
 2227 080e 1F5F      		subi r17,lo8(-(1))
 2228               	.LVL149:
 2229               	.L232:
 2230 0810 1017      		cp r17,r16
 2231 0812 00F0      		brlo .L233
 2232               	.LBE287:
 2233               	.LM327:
 2234 0814 C901      		movw r24,r18
 2235               	.LVL150:
 2236               	/* epilogue start */
 2237 0816 DF91      		pop r29
 2238 0818 CF91      		pop r28
 2239 081a 1F91      		pop r17
 2240               	.LVL151:
 2241 081c 0F91      		pop r16
 2242               	.LVL152:
 2243 081e 0895      		ret
 2244               	.LFE66:
 2246               	.global	UART_RX_Packet_CRC_Check
 2248               	UART_RX_Packet_CRC_Check:
 2249               	.LFB67:
 2250               	.LM328:
 2251 0820 0F93      		push r16
 2252 0822 1F93      		push r17
 2253               	/* prologue: function */
 2254               	/* frame size = 0 */
 2255               	.LBB288:
 2256               	.LBB289:
 2257               	.LBB290:
 2258               	.LBB291:
 2259               	.LM329:
 2260 0824 00E0      		ldi r16,lo8(UART+45)
 2261 0826 10E0      		ldi r17,hi8(UART+45)
 2262 0828 6091 0000 		lds r22,UART+45
 2263 082c 7091 0000 		lds r23,(UART+45)+1
 2264               	.LBE291:
 2265               	.LBE290:
 2266               	.LBE289:
 2267               	.LBE288:
 2268               	.LM330:
 2269 0830 6250      		subi r22,lo8(-(-2))
 2270 0832 C801      		movw r24,r16
 2271 0834 8297      		sbiw r24,34
 2272 0836 0E94 0000 		call UART_CRC_Calculate_Block
 2273               	.LBB292:
 2274               	.LBB293:
 2275               	.LBB294:
 2276               	.LBB295:
 2277               	.LM331:
 2278 083a E091 0000 		lds r30,UART+45
 2279 083e F091 0000 		lds r31,(UART+45)+1
 2280               	.LBE295:
 2281               	.LBE294:
 2282               	.LBE293:
 2283               	.LBE292:
 2284               	.LM332:
 2285 0842 F0E0      		ldi r31,lo8(0)
 2286 0844 3297      		sbiw r30,2
 2287               	.LBB296:
 2288               	.LBB297:
 2289               	.LM333:
 2290 0846 0D52      		subi r16,lo8(-(-45))
 2291 0848 1040      		sbci r17,hi8(-(-45))
 2292 084a E00F      		add r30,r16
 2293 084c F11F      		adc r31,r17
 2294 084e 2385      		ldd r18,Z+11
 2295               	.LBE297:
 2296               	.LBE296:
 2297               	.LM334:
 2298 0850 522F      		mov r21,r18
 2299               	.LVL153:
 2300 0852 40E0      		ldi r20,lo8(0)
 2301               	.LVL154:
 2302               	.LBB298:
 2303               	.LBB299:
 2304               	.LBB300:
 2305               	.LBB301:
 2306               	.LM335:
 2307 0854 2091 0000 		lds r18,UART+45
 2308 0858 3091 0000 		lds r19,(UART+45)+1
 2309               	.LBE301:
 2310               	.LBE300:
 2311               	.LBE299:
 2312               	.LBE298:
 2313               	.LM336:
 2314 085c 30E0      		ldi r19,lo8(0)
 2315 085e 2150      		subi r18,lo8(-(-1))
 2316 0860 3040      		sbci r19,hi8(-(-1))
 2317               	.LBB302:
 2318               	.LBB303:
 2319               	.LM337:
 2320 0862 020F      		add r16,r18
 2321 0864 131F      		adc r17,r19
 2322 0866 F801      		movw r30,r16
 2323 0868 2385      		ldd r18,Z+11
 2324               	.LBE303:
 2325               	.LBE302:
 2326               	.LM338:
 2327 086a 30E0      		ldi r19,lo8(0)
 2328 086c 422B      		or r20,r18
 2329 086e 532B      		or r21,r19
 2330               	.LVL155:
 2331               	.LM339:
 2332 0870 9093 0000 		sts (UART+82)+1,r25
 2333 0874 8093 0000 		sts UART+82,r24
 2334               	.LVL156:
 2335               	.LM340:
 2336 0878 5093 0000 		sts (UART+84)+1,r21
 2337 087c 4093 0000 		sts UART+84,r20
 2338               	/* epilogue start */
 2339               	.LM341:
 2340 0880 1F91      		pop r17
 2341 0882 0F91      		pop r16
 2342 0884 0895      		ret
 2343               	.LFE67:
 2345               	.global	UART_Timer_ISR_Handler
 2347               	UART_Timer_ISR_Handler:
 2348               	.LFB64:
 2349               	.LM342:
 2350               	/* prologue: function */
 2351               	/* frame size = 0 */
 2352               	.LM343:
 2353 0886 8091 0000 		lds r24,UART+47
 2354               	.LBB304:
 2355               	.LBB305:
 2356               	.LM344:
 2357 088a 8091 0000 		lds r24,UART+45
 2358 088e 9091 0000 		lds r25,(UART+45)+1
 2359               	.LBE305:
 2360               	.LBE304:
 2361               	.LM345:
 2362 0892 8823      		tst r24
 2363 0894 01F0      		breq .L238
 2364               	.LM346:
 2365 0896 81E0      		ldi r24,lo8(1)
 2366 0898 8093 0000 		sts UART+48,r24
 2367               	.LM347:
 2368 089c 0E94 0000 		call UART_RX_Packet_CRC_Check
 2369 08a0 0895      		ret
 2370               	.L238:
 2371               	.LM348:
 2372 08a2 1092 0000 		sts UART+48,__zero_reg__
 2373 08a6 0895      		ret
 2374               	.LFE64:
 2376               	.global	__vector_9
 2378               	__vector_9:
 2379               	.LFB23:
 2380               	.LM349:
 2381 08a8 1F92      		push __zero_reg__
 2382 08aa 0F92      		push r0
 2383 08ac 0FB6      		in r0,__SREG__
 2384 08ae 0F92      		push r0
 2385 08b0 1124      		clr __zero_reg__
 2386 08b2 2F93      		push r18
 2387 08b4 3F93      		push r19
 2388 08b6 4F93      		push r20
 2389 08b8 5F93      		push r21
 2390 08ba 6F93      		push r22
 2391 08bc 7F93      		push r23
 2392 08be 8F93      		push r24
 2393 08c0 9F93      		push r25
 2394 08c2 AF93      		push r26
 2395 08c4 BF93      		push r27
 2396 08c6 EF93      		push r30
 2397 08c8 FF93      		push r31
 2398               	/* prologue: Signal */
 2399               	/* frame size = 0 */
 2400               	.LM350:
 2401 08ca 0E94 0000 		call UART_Timer_ISR_Handler
 2402               	/* epilogue start */
 2403               	.LM351:
 2404 08ce FF91      		pop r31
 2405 08d0 EF91      		pop r30
 2406 08d2 BF91      		pop r27
 2407 08d4 AF91      		pop r26
 2408 08d6 9F91      		pop r25
 2409 08d8 8F91      		pop r24
 2410 08da 7F91      		pop r23
 2411 08dc 6F91      		pop r22
 2412 08de 5F91      		pop r21
 2413 08e0 4F91      		pop r20
 2414 08e2 3F91      		pop r19
 2415 08e4 2F91      		pop r18
 2416 08e6 0F90      		pop r0
 2417 08e8 0FBE      		out __SREG__,r0
 2418 08ea 0F90      		pop r0
 2419 08ec 1F90      		pop __zero_reg__
 2420 08ee 1895      		reti
 2421               	.LFE23:
 2423               	.global	UART_Init
 2425               	UART_Init:
 2426               	.LFB68:
 2427               	.LM352:
 2428               	.LVL157:
 2429 08f0 EF92      		push r14
 2430 08f2 FF92      		push r15
 2431 08f4 0F93      		push r16
 2432 08f6 1F93      		push r17
 2433               	/* prologue: function */
 2434               	/* frame size = 0 */
 2435 08f8 7B01      		movw r14,r22
 2436 08fa 8C01      		movw r16,r24
 2437               	.LM353:
 2438 08fc 0E94 0000 		call UART_Struct_Init
 2439               	.LVL158:
 2440               	.LM354:
 2441 0900 C801      		movw r24,r16
 2442 0902 B701      		movw r22,r14
 2443 0904 0E94 0000 		call UART_Config_BAUD_Rate
 2444               	.LBB306:
 2445               	.LBB307:
 2446               	.LM355:
 2447 0908 8091 C100 		lds r24,193
 2448 090c 8860      		ori r24,lo8(8)
 2449 090e 8093 C100 		sts 193,r24
 2450               	.LM356:
 2451 0912 96E0      		ldi r25,lo8(6)
 2452 0914 9093 C200 		sts 194,r25
 2453               	.LBE307:
 2454               	.LBE306:
 2455               	.LBB308:
 2456               	.LBB309:
 2457               	.LM357:
 2458 0918 8091 C100 		lds r24,193
 2459 091c 8061      		ori r24,lo8(16)
 2460 091e 8093 C100 		sts 193,r24
 2461               	.LM358:
 2462 0922 9093 C200 		sts 194,r25
 2463               	.LBE309:
 2464               	.LBE308:
 2465               	.LBB310:
 2466               	.LBB311:
 2467               	.LM359:
 2468 0926 8091 C100 		lds r24,193
 2469 092a 8068      		ori r24,lo8(-128)
 2470 092c 8093 C100 		sts 193,r24
 2471               	.LM360:
 2472               	/* #APP */
 2473               	 ;  129 "uart.c" 1
 2474 0930 7894      		sei
 2475               	 ;  0 "" 2
 2476               	/* #NOAPP */
 2477 0932 80E0      		ldi r24,lo8(0)
 2478 0934 90E0      		ldi r25,hi8(0)
 2479               	.L244:
 2480               	.LBE311:
 2481               	.LBE310:
 2482               	.LBB312:
 2483               	.LBB313:
 2484               	.LBB314:
 2485               	.LM361:
 2486 0936 FC01      		movw r30,r24
 2487 0938 E050      		subi r30,lo8(-(UART))
 2488 093a F040      		sbci r31,hi8(-(UART))
 2489 093c 1386      		std Z+11,__zero_reg__
 2490 093e 0196      		adiw r24,1
 2491               	.LM362:
 2492 0940 8032      		cpi r24,32
 2493 0942 9105      		cpc r25,__zero_reg__
 2494 0944 01F4      		brne .L244
 2495               	.LBE314:
 2496               	.LM363:
 2497 0946 1092 0000 		sts (UART+45)+1,__zero_reg__
 2498 094a 1092 0000 		sts UART+45,__zero_reg__
 2499               	/* epilogue start */
 2500               	.LBE313:
 2501               	.LBE312:
 2502               	.LM364:
 2503 094e 1F91      		pop r17
 2504 0950 0F91      		pop r16
 2505 0952 FF90      		pop r15
 2506 0954 EF90      		pop r14
 2507               	.LVL159:
 2508 0956 0895      		ret
 2509               	.LFE68:
 2511               		.lcomm UART,86
 3032               	.Letext0:
DEFINED SYMBOLS
                            *ABS*:00000000 uart.c
C:\Users\WALTON\AppData\Local\Temp/ccEYTmPT.s:2      *ABS*:0000003f __SREG__
C:\Users\WALTON\AppData\Local\Temp/ccEYTmPT.s:3      *ABS*:0000003e __SP_H__
C:\Users\WALTON\AppData\Local\Temp/ccEYTmPT.s:4      *ABS*:0000003d __SP_L__
C:\Users\WALTON\AppData\Local\Temp/ccEYTmPT.s:5      *ABS*:00000034 __CCP__
C:\Users\WALTON\AppData\Local\Temp/ccEYTmPT.s:6      *ABS*:00000000 __tmp_reg__
C:\Users\WALTON\AppData\Local\Temp/ccEYTmPT.s:7      *ABS*:00000001 __zero_reg__
C:\Users\WALTON\AppData\Local\Temp/ccEYTmPT.s:18     .text:00000000 UART_Struct_Init
                             .bss:00000000 UART
C:\Users\WALTON\AppData\Local\Temp/ccEYTmPT.s:80     .text:00000042 UART_Config_GPIO
C:\Users\WALTON\AppData\Local\Temp/ccEYTmPT.s:92     .text:00000044 UART_Config_Clock
C:\Users\WALTON\AppData\Local\Temp/ccEYTmPT.s:104    .text:00000046 UART_Config_BAUD_Rate
C:\Users\WALTON\AppData\Local\Temp/ccEYTmPT.s:146    .text:0000007a UART_Config_Tx
C:\Users\WALTON\AppData\Local\Temp/ccEYTmPT.s:167    .text:0000008c UART_Config_Rx
C:\Users\WALTON\AppData\Local\Temp/ccEYTmPT.s:188    .text:0000009e UART_Config_Rx_Interrupt
C:\Users\WALTON\AppData\Local\Temp/ccEYTmPT.s:212    .text:000000ac UART_Tx_Byte
C:\Users\WALTON\AppData\Local\Temp/ccEYTmPT.s:234    .text:000000bc UART_Rx_Byte
C:\Users\WALTON\AppData\Local\Temp/ccEYTmPT.s:295    .text:00000104 UART_Timer_Struct_Init
C:\Users\WALTON\AppData\Local\Temp/ccEYTmPT.s:309    .text:0000010a UART_Timer_Init
C:\Users\WALTON\AppData\Local\Temp/ccEYTmPT.s:321    .text:0000010c UART_Timer_Enable
C:\Users\WALTON\AppData\Local\Temp/ccEYTmPT.s:333    .text:0000010e UART_Timer_Disable
C:\Users\WALTON\AppData\Local\Temp/ccEYTmPT.s:345    .text:00000110 UART_Timer_Get_Status
C:\Users\WALTON\AppData\Local\Temp/ccEYTmPT.s:359    .text:00000116 UART_Timer_Get_Val
C:\Users\WALTON\AppData\Local\Temp/ccEYTmPT.s:373    .text:0000011c UART_Timer_Value_Reset
C:\Users\WALTON\AppData\Local\Temp/ccEYTmPT.s:385    .text:0000011e UART_Tx_Buf
C:\Users\WALTON\AppData\Local\Temp/ccEYTmPT.s:435    .text:00000148 UART_Tx_NL
C:\Users\WALTON\AppData\Local\Temp/ccEYTmPT.s:471    .text:00000166 UART_Tx_SP
C:\Users\WALTON\AppData\Local\Temp/ccEYTmPT.s:495    .text:00000176 UART_Tx_CM
C:\Users\WALTON\AppData\Local\Temp/ccEYTmPT.s:519    .text:00000186 UART_Tx_Text
C:\Users\WALTON\AppData\Local\Temp/ccEYTmPT.s:560    .text:000001a8 UART_Tx_Text_NL
C:\Users\WALTON\AppData\Local\Temp/ccEYTmPT.s:578    .text:000001b2 UART_Tx_Text_SP
C:\Users\WALTON\AppData\Local\Temp/ccEYTmPT.s:610    .text:000001c6 UART_Tx_Text_CM
C:\Users\WALTON\AppData\Local\Temp/ccEYTmPT.s:642    .text:000001da UART_Determine_Digit_Numbers
C:\Users\WALTON\AppData\Local\Temp/ccEYTmPT.s:732    .text:00000258 UART_Tx_Number_Digits
C:\Users\WALTON\AppData\Local\Temp/ccEYTmPT.s:788    .text:00000282 UART_Tx_Number
C:\Users\WALTON\AppData\Local\Temp/ccEYTmPT.s:835    .text:000002b4 UART_Tx_Number_Hex
C:\Users\WALTON\AppData\Local\Temp/ccEYTmPT.s:986    .text:00000366 UART_Tx_Number_Bin
C:\Users\WALTON\AppData\Local\Temp/ccEYTmPT.s:1141   .text:00000426 UART_Tx_Number_NL
C:\Users\WALTON\AppData\Local\Temp/ccEYTmPT.s:1159   .text:00000430 UART_Tx_Number_SP
C:\Users\WALTON\AppData\Local\Temp/ccEYTmPT.s:1191   .text:00000444 UART_Tx_Number_CM
C:\Users\WALTON\AppData\Local\Temp/ccEYTmPT.s:1223   .text:00000458 UART_Tx_Number_Hex_NL
C:\Users\WALTON\AppData\Local\Temp/ccEYTmPT.s:1241   .text:00000462 UART_Tx_Number_Hex_SP
C:\Users\WALTON\AppData\Local\Temp/ccEYTmPT.s:1273   .text:00000476 UART_Tx_Number_Hex_CM
C:\Users\WALTON\AppData\Local\Temp/ccEYTmPT.s:1305   .text:0000048a UART_Tx_Number_Bin_NL
C:\Users\WALTON\AppData\Local\Temp/ccEYTmPT.s:1323   .text:00000494 UART_Tx_Number_Bin_SP
C:\Users\WALTON\AppData\Local\Temp/ccEYTmPT.s:1355   .text:000004a8 UART_Tx_Number_Bin_CM
C:\Users\WALTON\AppData\Local\Temp/ccEYTmPT.s:1387   .text:000004bc UART_Tx_Parameter_NL
C:\Users\WALTON\AppData\Local\Temp/ccEYTmPT.s:1434   .text:000004ec UART_Tx_Parameter_SP
C:\Users\WALTON\AppData\Local\Temp/ccEYTmPT.s:1481   .text:0000051c UART_Tx_Parameter_CM
C:\Users\WALTON\AppData\Local\Temp/ccEYTmPT.s:1528   .text:0000054c UART_Tx_Parameter_Hex_NL
C:\Users\WALTON\AppData\Local\Temp/ccEYTmPT.s:1575   .text:0000057c UART_Tx_Parameter_Hex_SP
C:\Users\WALTON\AppData\Local\Temp/ccEYTmPT.s:1622   .text:000005ac UART_Tx_Parameter_Hex_CM
C:\Users\WALTON\AppData\Local\Temp/ccEYTmPT.s:1669   .text:000005dc UART_Tx_Parameter_Bin_NL
C:\Users\WALTON\AppData\Local\Temp/ccEYTmPT.s:1716   .text:0000060c UART_Tx_Parameter_Bin_SP
C:\Users\WALTON\AppData\Local\Temp/ccEYTmPT.s:1763   .text:0000063c UART_Tx_Parameter_Bin_CM
C:\Users\WALTON\AppData\Local\Temp/ccEYTmPT.s:1810   .text:0000066c UART_Buf_Flush
C:\Users\WALTON\AppData\Local\Temp/ccEYTmPT.s:1841   .text:0000068a UART_Buf_Get
C:\Users\WALTON\AppData\Local\Temp/ccEYTmPT.s:1860   .text:00000694 UART_Buf_Get_Index
C:\Users\WALTON\AppData\Local\Temp/ccEYTmPT.s:1875   .text:0000069e UART_Data_Available
C:\Users\WALTON\AppData\Local\Temp/ccEYTmPT.s:1889   .text:000006a4 UART_Data_Clear_Available_Flag
C:\Users\WALTON\AppData\Local\Temp/ccEYTmPT.s:1903   .text:000006aa UART_Data_Len_Get
C:\Users\WALTON\AppData\Local\Temp/ccEYTmPT.s:1922   .text:000006b4 UART_Data_Copy_Buf
C:\Users\WALTON\AppData\Local\Temp/ccEYTmPT.s:1980   .text:000006e2 UART_Data_Print_Buf
C:\Users\WALTON\AppData\Local\Temp/ccEYTmPT.s:2049   .text:00000722 UART_ISR_Handler
C:\Users\WALTON\AppData\Local\Temp/ccEYTmPT.s:2095   .text:0000077c __vector_18
C:\Users\WALTON\AppData\Local\Temp/ccEYTmPT.s:2142   .text:000007c4 UART_CRC_Calculate_Byte
C:\Users\WALTON\AppData\Local\Temp/ccEYTmPT.s:2196   .text:000007f0 UART_CRC_Calculate_Block
C:\Users\WALTON\AppData\Local\Temp/ccEYTmPT.s:2248   .text:00000820 UART_RX_Packet_CRC_Check
C:\Users\WALTON\AppData\Local\Temp/ccEYTmPT.s:2347   .text:00000886 UART_Timer_ISR_Handler
C:\Users\WALTON\AppData\Local\Temp/ccEYTmPT.s:2378   .text:000008a8 __vector_9
C:\Users\WALTON\AppData\Local\Temp/ccEYTmPT.s:2425   .text:000008f0 UART_Init

UNDEFINED SYMBOLS
__udivmodsi4
__do_clear_bss
