   1               		.file	"uart.c"
   2               	__SREG__ = 0x3f
   3               	__SP_H__ = 0x3e
   4               	__SP_L__ = 0x3d
   5               	__CCP__  = 0x34
   6               	__tmp_reg__ = 0
   7               	__zero_reg__ = 1
  15               	.Ltext0:
  16               	.global	UART_Struct_Init
  18               	UART_Struct_Init:
  19               	.LFB6:
  20               	.LM1:
  21               	/* prologue: function */
  22               	/* frame size = 0 */
  23               	.LM2:
  24 0000 1092 0000 		sts UART,__zero_reg__
  25 0004 E0E0      		ldi r30,lo8(UART+1)
  26 0006 F0E0      		ldi r31,hi8(UART+1)
  27               	.L2:
  28               	.LBB172:
  29               	.LM3:
  30 0008 1192      		st Z+,__zero_reg__
  31               	.LM4:
  32 000a 80E0      		ldi r24,hi8(UART+9)
  33 000c E030      		cpi r30,lo8(UART+9)
  34 000e F807      		cpc r31,r24
  35 0010 01F4      		brne .L2
  36               	.LBE172:
  37               	.LM5:
  38 0012 1082      		st Z,__zero_reg__
  39               	.LM6:
  40 0014 1182      		std Z+1,__zero_reg__
  41               	.LM7:
  42 0016 80E4      		ldi r24,lo8(64)
  43 0018 90E0      		ldi r25,hi8(64)
  44 001a 9093 0000 		sts (UART+75)+1,r25
  45 001e 8093 0000 		sts UART+75,r24
  46               	.LM8:
  47 0022 1092 0000 		sts (UART+77)+1,__zero_reg__
  48 0026 1092 0000 		sts UART+77,__zero_reg__
  49 002a 20E0      		ldi r18,lo8(0)
  50               	.LVL0:
  51 002c 00C0      		rjmp .L3
  52               	.LVL1:
  53               	.L4:
  54               	.LBB173:
  55               	.LM9:
  56 002e E050      		subi r30,lo8(-(UART))
  57 0030 F040      		sbci r31,hi8(-(UART))
  58               	.LVL2:
  59 0032 1386      		std Z+11,__zero_reg__
  60               	.LM10:
  61 0034 2F5F      		subi r18,lo8(-(1))
  62               	.LVL3:
  63               	.L3:
  64 0036 8091 0000 		lds r24,UART+75
  65 003a 9091 0000 		lds r25,(UART+75)+1
  66 003e E22F      		mov r30,r18
  67 0040 F0E0      		ldi r31,lo8(0)
  68 0042 E817      		cp r30,r24
  69 0044 F907      		cpc r31,r25
  70 0046 00F0      		brlo .L4
  71               	.LVL4:
  72               	/* epilogue start */
  73               	.LBE173:
  74               	.LM11:
  75 0048 0895      		ret
  76               	.LFE6:
  78               	.global	UART_RX_Packet_Struct_Init
  80               	UART_RX_Packet_Struct_Init:
  81               	.LFB7:
  82               	.LM12:
  83               	/* prologue: function */
  84               	/* frame size = 0 */
  85               	.LM13:
  86 004a 1092 0000 		sts (UART+81)+1,__zero_reg__
  87 004e 1092 0000 		sts UART+81,__zero_reg__
  88               	.LM14:
  89 0052 1092 0000 		sts (UART+83)+1,__zero_reg__
  90 0056 1092 0000 		sts UART+83,__zero_reg__
  91               	.LM15:
  92 005a 1092 0000 		sts UART+85,__zero_reg__
  93               	.LM16:
  94 005e 1092 0000 		sts UART+86,__zero_reg__
  95               	.LM17:
  96 0062 81E0      		ldi r24,lo8(1)
  97 0064 8093 0000 		sts UART+87,r24
  98               	/* epilogue start */
  99               	.LM18:
 100 0068 0895      		ret
 101               	.LFE7:
 103               	.global	UART_Config_GPIO
 105               	UART_Config_GPIO:
 106               	.LFB8:
 107               	.LM19:
 108               	/* prologue: function */
 109               	/* frame size = 0 */
 110               	/* epilogue start */
 111               	.LM20:
 112 006a 0895      		ret
 113               	.LFE8:
 115               	.global	UART_Config_Clock
 117               	UART_Config_Clock:
 118               	.LFB9:
 119               	.LM21:
 120               	/* prologue: function */
 121               	/* frame size = 0 */
 122               	/* epilogue start */
 123               	.LM22:
 124 006c 0895      		ret
 125               	.LFE9:
 127               	.global	UART_Config_BAUD_Rate
 129               	UART_Config_BAUD_Rate:
 130               	.LFB10:
 131               	.LM23:
 132               	.LVL5:
 133               	/* prologue: function */
 134               	/* frame size = 0 */
 135 006e 9B01      		movw r18,r22
 136 0070 AC01      		movw r20,r24
 137               	.LM24:
 138 0072 60E6      		ldi r22,lo8(1500000)
 139 0074 73EE      		ldi r23,hi8(1500000)
 140 0076 86E1      		ldi r24,hlo8(1500000)
 141 0078 90E0      		ldi r25,hhi8(1500000)
 142               	.LVL6:
 143 007a 0E94 0000 		call __udivmodsi4
 144               	.LVL7:
 145 007e 2150      		subi r18,lo8(-(-1))
 146 0080 3040      		sbci r19,hi8(-(-1))
 147 0082 4040      		sbci r20,hlo8(-(-1))
 148 0084 5040      		sbci r21,hhi8(-(-1))
 149               	.LVL8:
 150               	.LM25:
 151 0086 E0EC      		ldi r30,lo8(192)
 152 0088 F0E0      		ldi r31,hi8(192)
 153 008a 8081      		ld r24,Z
 154 008c 8260      		ori r24,lo8(2)
 155 008e 8083      		st Z,r24
 156               	.LM26:
 157 0090 BB27      		clr r27
 158 0092 A52F      		mov r26,r21
 159 0094 942F      		mov r25,r20
 160 0096 832F      		mov r24,r19
 161 0098 8093 C500 		sts 197,r24
 162               	.LM27:
 163 009c 2093 C400 		sts 196,r18
 164               	/* epilogue start */
 165               	.LM28:
 166 00a0 0895      		ret
 167               	.LFE10:
 169               	.global	UART_Config_Tx
 171               	UART_Config_Tx:
 172               	.LFB11:
 173               	.LM29:
 174               	/* prologue: function */
 175               	/* frame size = 0 */
 176               	.LM30:
 177 00a2 E1EC      		ldi r30,lo8(193)
 178 00a4 F0E0      		ldi r31,hi8(193)
 179 00a6 8081      		ld r24,Z
 180 00a8 8860      		ori r24,lo8(8)
 181 00aa 8083      		st Z,r24
 182               	.LM31:
 183 00ac 86E0      		ldi r24,lo8(6)
 184 00ae 8093 C200 		sts 194,r24
 185               	/* epilogue start */
 186               	.LM32:
 187 00b2 0895      		ret
 188               	.LFE11:
 190               	.global	UART_Config_Rx
 192               	UART_Config_Rx:
 193               	.LFB12:
 194               	.LM33:
 195               	/* prologue: function */
 196               	/* frame size = 0 */
 197               	.LM34:
 198 00b4 E1EC      		ldi r30,lo8(193)
 199 00b6 F0E0      		ldi r31,hi8(193)
 200 00b8 8081      		ld r24,Z
 201 00ba 8061      		ori r24,lo8(16)
 202 00bc 8083      		st Z,r24
 203               	.LM35:
 204 00be 86E0      		ldi r24,lo8(6)
 205 00c0 8093 C200 		sts 194,r24
 206               	/* epilogue start */
 207               	.LM36:
 208 00c4 0895      		ret
 209               	.LFE12:
 211               	.global	UART_Config_Rx_Interrupt
 213               	UART_Config_Rx_Interrupt:
 214               	.LFB13:
 215               	.LM37:
 216               	/* prologue: function */
 217               	/* frame size = 0 */
 218               	.LM38:
 219 00c6 E1EC      		ldi r30,lo8(193)
 220 00c8 F0E0      		ldi r31,hi8(193)
 221 00ca 8081      		ld r24,Z
 222 00cc 8068      		ori r24,lo8(-128)
 223 00ce 8083      		st Z,r24
 224               	.LM39:
 225               	/* #APP */
 226               	 ;  150 "uart.c" 1
 227 00d0 7894      		sei
 228               	 ;  0 "" 2
 229               	/* epilogue start */
 230               	.LM40:
 231               	/* #NOAPP */
 232 00d2 0895      		ret
 233               	.LFE13:
 235               	.global	UART_Tx_Byte
 237               	UART_Tx_Byte:
 238               	.LFB14:
 239               	.LM41:
 240               	.LVL9:
 241               	/* prologue: function */
 242               	/* frame size = 0 */
 243 00d4 982F      		mov r25,r24
 244               	.LVL10:
 245               	.L22:
 246               	.LM42:
 247 00d6 8091 C000 		lds r24,192
 248 00da 85FF      		sbrs r24,5
 249 00dc 00C0      		rjmp .L22
 250               	.LM43:
 251 00de 9093 C600 		sts 198,r25
 252               	/* epilogue start */
 253               	.LM44:
 254 00e2 0895      		ret
 255               	.LFE14:
 257               	.global	UART_Rx_Byte
 259               	UART_Rx_Byte:
 260               	.LFB15:
 261               	.LM45:
 262 00e4 DF93      		push r29
 263 00e6 CF93      		push r28
 264 00e8 0F92      		push __tmp_reg__
 265 00ea CDB7      		in r28,__SP_L__
 266 00ec DEB7      		in r29,__SP_H__
 267               	/* prologue: function */
 268               	/* frame size = 1 */
 269               	.LM46:
 270 00ee 1982      		std Y+1,__zero_reg__
 271               	.LVL11:
 272               	.LM47:
 273 00f0 8091 C000 		lds r24,192
 274 00f4 84FF      		sbrs r24,4
 275 00f6 00C0      		rjmp .L26
 276               	.LM48:
 277 00f8 8091 C600 		lds r24,198
 278               	.LVL12:
 279 00fc 8983      		std Y+1,r24
 280               	.LM49:
 281 00fe 81E0      		ldi r24,lo8(1)
 282               	.LVL13:
 283 0100 00C0      		rjmp .L30
 284               	.L26:
 285               	.LM50:
 286 0102 8091 C000 		lds r24,192
 287 0106 83FF      		sbrs r24,3
 288 0108 00C0      		rjmp .L28
 289               	.LM51:
 290 010a 8091 C600 		lds r24,198
 291               	.LVL14:
 292 010e 8983      		std Y+1,r24
 293               	.LM52:
 294 0110 82E0      		ldi r24,lo8(2)
 295               	.LVL15:
 296               	.L30:
 297 0112 8093 0000 		sts UART,r24
 298 0116 00C0      		rjmp .L27
 299               	.L28:
 300               	.LM53:
 301 0118 8091 C600 		lds r24,198
 302               	.LVL16:
 303 011c 8983      		std Y+1,r24
 304               	.LM54:
 305 011e 1092 0000 		sts UART,__zero_reg__
 306               	.LVL17:
 307               	.L27:
 308               	.LM55:
 309 0122 8981      		ldd r24,Y+1
 310               	/* epilogue start */
 311               	.LM56:
 312 0124 0F90      		pop __tmp_reg__
 313 0126 CF91      		pop r28
 314 0128 DF91      		pop r29
 315 012a 0895      		ret
 316               	.LFE15:
 318               	.global	UART_Timer_Struct_Init
 320               	UART_Timer_Struct_Init:
 321               	.LFB17:
 322               	.LM57:
 323               	/* prologue: function */
 324               	/* frame size = 0 */
 325               	.LM58:
 326 012c 1092 0000 		sts UART+79,__zero_reg__
 327               	.LM59:
 328 0130 1092 0000 		sts UART+80,__zero_reg__
 329               	/* epilogue start */
 330               	.LM60:
 331 0134 0895      		ret
 332               	.LFE17:
 334               	.global	UART_Timer_Init
 336               	UART_Timer_Init:
 337               	.LFB18:
 338               	.LM61:
 339               	/* prologue: function */
 340               	/* frame size = 0 */
 341               	.LM62:
 342 0136 84E0      		ldi r24,lo8(4)
 343 0138 8093 0000 		sts UART+80,r24
 344               	.LM63:
 345 013c 8BEF      		ldi r24,lo8(-5)
 346 013e 8093 0000 		sts UART+80,r24
 347               	.LM64:
 348 0142 1092 B600 		sts 182,__zero_reg__
 349               	.LM65:
 350 0146 1092 B000 		sts 176,__zero_reg__
 351               	.LM66:
 352 014a 1092 B100 		sts 177,__zero_reg__
 353               	.LM67:
 354 014e E0E7      		ldi r30,lo8(112)
 355 0150 F0E0      		ldi r31,hi8(112)
 356 0152 1082      		st Z,__zero_reg__
 357               	.LM68:
 358 0154 1092 B200 		sts 178,__zero_reg__
 359               	.LM69:
 360 0158 8FEF      		ldi r24,lo8(-1)
 361 015a 87BB      		out 55-32,r24
 362               	.LM70:
 363 015c 81E0      		ldi r24,lo8(1)
 364 015e 8083      		st Z,r24
 365               	.LM71:
 366               	/* #APP */
 367               	 ;  214 "uart.c" 1
 368 0160 7894      		sei
 369               	 ;  0 "" 2
 370               	/* epilogue start */
 371               	.LM72:
 372               	/* #NOAPP */
 373 0162 0895      		ret
 374               	.LFE18:
 376               	.global	UART_Timer_Enable
 378               	UART_Timer_Enable:
 379               	.LFB19:
 380               	.LM73:
 381               	/* prologue: function */
 382               	/* frame size = 0 */
 383               	.LM74:
 384 0164 87E0      		ldi r24,lo8(7)
 385 0166 8093 B100 		sts 177,r24
 386               	/* epilogue start */
 387               	.LM75:
 388 016a 0895      		ret
 389               	.LFE19:
 391               	.global	UART_Timer_Disable
 393               	UART_Timer_Disable:
 394               	.LFB20:
 395               	.LM76:
 396               	/* prologue: function */
 397               	/* frame size = 0 */
 398               	.LM77:
 399 016c 1092 B100 		sts 177,__zero_reg__
 400               	/* epilogue start */
 401               	.LM78:
 402 0170 0895      		ret
 403               	.LFE20:
 405               	.global	UART_Timer_Get_Status
 407               	UART_Timer_Get_Status:
 408               	.LFB21:
 409               	.LM79:
 410               	/* prologue: function */
 411               	/* frame size = 0 */
 412               	.LM80:
 413 0172 8091 0000 		lds r24,UART+79
 414               	/* epilogue start */
 415               	.LM81:
 416 0176 0895      		ret
 417               	.LFE21:
 419               	.global	UART_Timer_Get_Val
 421               	UART_Timer_Get_Val:
 422               	.LFB22:
 423               	.LM82:
 424               	/* prologue: function */
 425               	/* frame size = 0 */
 426               	.LM83:
 427 0178 8091 B200 		lds r24,178
 428               	.LM84:
 429 017c 90E0      		ldi r25,lo8(0)
 430               	/* epilogue start */
 431 017e 0895      		ret
 432               	.LFE22:
 434               	.global	UART_Timer_Value_Reset
 436               	UART_Timer_Value_Reset:
 437               	.LFB23:
 438               	.LM85:
 439               	/* prologue: function */
 440               	/* frame size = 0 */
 441               	.LM86:
 442 0180 8091 0000 		lds r24,UART+80
 443 0184 8093 B200 		sts 178,r24
 444               	/* epilogue start */
 445               	.LM87:
 446 0188 0895      		ret
 447               	.LFE23:
 449               	.global	UART_Tx_Buf
 451               	UART_Tx_Buf:
 452               	.LFB25:
 453               	.LM88:
 454               	.LVL18:
 455               	/* prologue: function */
 456               	/* frame size = 0 */
 457 018a AC01      		movw r20,r24
 458               	.LM89:
 459 018c 20E0      		ldi r18,lo8(0)
 460 018e 30E0      		ldi r19,hi8(0)
 461               	.LVL19:
 462               	.LBB174:
 463               	.LM90:
 464 0190 70E0      		ldi r23,lo8(0)
 465               	.LVL20:
 466 0192 00C0      		rjmp .L46
 467               	.LVL21:
 468               	.L48:
 469               	.LM91:
 470 0194 FA01      		movw r30,r20
 471 0196 E20F      		add r30,r18
 472 0198 F31F      		adc r31,r19
 473 019a E081      		ld r30,Z
 474               	.L47:
 475               	.LBB175:
 476               	.LBB176:
 477               	.LM92:
 478 019c 8091 C000 		lds r24,192
 479 01a0 85FF      		sbrs r24,5
 480 01a2 00C0      		rjmp .L47
 481               	.LM93:
 482 01a4 E093 C600 		sts 198,r30
 483               	.LBE176:
 484               	.LBE175:
 485               	.LM94:
 486 01a8 2F5F      		subi r18,lo8(-(1))
 487 01aa 3F4F      		sbci r19,hi8(-(1))
 488               	.LVL22:
 489               	.L46:
 490 01ac 2617      		cp r18,r22
 491 01ae 3707      		cpc r19,r23
 492 01b0 00F0      		brlo .L48
 493               	/* epilogue start */
 494               	.LBE174:
 495               	.LM95:
 496 01b2 0895      		ret
 497               	.LFE25:
 499               	.global	UART_Tx_NL
 501               	UART_Tx_NL:
 502               	.LFB26:
 503               	.LM96:
 504               	/* prologue: function */
 505               	/* frame size = 0 */
 506               	.L52:
 507               	.LBB177:
 508               	.LBB178:
 509               	.LM97:
 510 01b4 8091 C000 		lds r24,192
 511 01b8 85FF      		sbrs r24,5
 512 01ba 00C0      		rjmp .L52
 513               	.LM98:
 514 01bc 8DE0      		ldi r24,lo8(13)
 515 01be 8093 C600 		sts 198,r24
 516               	.L53:
 517               	.LBE178:
 518               	.LBE177:
 519               	.LBB179:
 520               	.LBB180:
 521               	.LM99:
 522 01c2 8091 C000 		lds r24,192
 523 01c6 85FF      		sbrs r24,5
 524 01c8 00C0      		rjmp .L53
 525               	.LM100:
 526 01ca 8AE0      		ldi r24,lo8(10)
 527 01cc 8093 C600 		sts 198,r24
 528               	/* epilogue start */
 529               	.LBE180:
 530               	.LBE179:
 531               	.LM101:
 532 01d0 0895      		ret
 533               	.LFE26:
 535               	.global	UART_Tx_SP
 537               	UART_Tx_SP:
 538               	.LFB27:
 539               	.LM102:
 540               	/* prologue: function */
 541               	/* frame size = 0 */
 542               	.L58:
 543               	.LBB181:
 544               	.LBB182:
 545               	.LM103:
 546 01d2 8091 C000 		lds r24,192
 547 01d6 85FF      		sbrs r24,5
 548 01d8 00C0      		rjmp .L58
 549               	.LM104:
 550 01da 80E2      		ldi r24,lo8(32)
 551 01dc 8093 C600 		sts 198,r24
 552               	/* epilogue start */
 553               	.LBE182:
 554               	.LBE181:
 555               	.LM105:
 556 01e0 0895      		ret
 557               	.LFE27:
 559               	.global	UART_Tx_CM
 561               	UART_Tx_CM:
 562               	.LFB28:
 563               	.LM106:
 564               	/* prologue: function */
 565               	/* frame size = 0 */
 566               	.L62:
 567               	.LBB183:
 568               	.LBB184:
 569               	.LM107:
 570 01e2 8091 C000 		lds r24,192
 571 01e6 85FF      		sbrs r24,5
 572 01e8 00C0      		rjmp .L62
 573               	.LM108:
 574 01ea 8CE2      		ldi r24,lo8(44)
 575 01ec 8093 C600 		sts 198,r24
 576               	/* epilogue start */
 577               	.LBE184:
 578               	.LBE183:
 579               	.LM109:
 580 01f0 0895      		ret
 581               	.LFE28:
 583               	.global	UART_Tx_Text
 585               	UART_Tx_Text:
 586               	.LFB29:
 587               	.LM110:
 588               	.LVL23:
 589               	/* prologue: function */
 590               	/* frame size = 0 */
 591 01f2 AC01      		movw r20,r24
 592               	.LM111:
 593 01f4 20E0      		ldi r18,lo8(0)
 594               	.LVL24:
 595 01f6 00C0      		rjmp .L66
 596               	.LVL25:
 597               	.L69:
 598               	.LBB185:
 599               	.LBB186:
 600               	.LM112:
 601 01f8 8091 C000 		lds r24,192
 602 01fc 85FF      		sbrs r24,5
 603 01fe 00C0      		rjmp .L69
 604               	.LM113:
 605 0200 E093 C600 		sts 198,r30
 606               	.LBE186:
 607               	.LBE185:
 608               	.LM114:
 609 0204 2F5F      		subi r18,lo8(-(1))
 610               	.LVL26:
 611               	.L66:
 612               	.LM115:
 613 0206 FA01      		movw r30,r20
 614 0208 E20F      		add r30,r18
 615 020a F11D      		adc r31,__zero_reg__
 616 020c E081      		ld r30,Z
 617 020e EE23      		tst r30
 618 0210 01F4      		brne .L69
 619               	/* epilogue start */
 620               	.LM116:
 621 0212 0895      		ret
 622               	.LFE29:
 624               	.global	UART_Tx_Text_NL
 626               	UART_Tx_Text_NL:
 627               	.LFB30:
 628               	.LM117:
 629               	.LVL27:
 630               	/* prologue: function */
 631               	/* frame size = 0 */
 632               	.LM118:
 633 0214 0E94 0000 		call UART_Tx_Text
 634               	.LVL28:
 635               	.LM119:
 636 0218 0E94 0000 		call UART_Tx_NL
 637               	/* epilogue start */
 638               	.LM120:
 639 021c 0895      		ret
 640               	.LFE30:
 642               	.global	UART_Tx_Text_SP
 644               	UART_Tx_Text_SP:
 645               	.LFB31:
 646               	.LM121:
 647               	.LVL29:
 648               	/* prologue: function */
 649               	/* frame size = 0 */
 650               	.LM122:
 651 021e 0E94 0000 		call UART_Tx_Text
 652               	.LVL30:
 653               	.L74:
 654               	.LBB187:
 655               	.LBB188:
 656               	.LBB189:
 657               	.LBB190:
 658               	.LM123:
 659 0222 8091 C000 		lds r24,192
 660 0226 85FF      		sbrs r24,5
 661 0228 00C0      		rjmp .L74
 662               	.LM124:
 663 022a 80E2      		ldi r24,lo8(32)
 664 022c 8093 C600 		sts 198,r24
 665               	/* epilogue start */
 666               	.LBE190:
 667               	.LBE189:
 668               	.LBE188:
 669               	.LBE187:
 670               	.LM125:
 671 0230 0895      		ret
 672               	.LFE31:
 674               	.global	UART_Tx_Text_CM
 676               	UART_Tx_Text_CM:
 677               	.LFB32:
 678               	.LM126:
 679               	.LVL31:
 680               	/* prologue: function */
 681               	/* frame size = 0 */
 682               	.LM127:
 683 0232 0E94 0000 		call UART_Tx_Text
 684               	.LVL32:
 685               	.L78:
 686               	.LBB191:
 687               	.LBB192:
 688               	.LBB193:
 689               	.LBB194:
 690               	.LM128:
 691 0236 8091 C000 		lds r24,192
 692 023a 85FF      		sbrs r24,5
 693 023c 00C0      		rjmp .L78
 694               	.LM129:
 695 023e 8CE2      		ldi r24,lo8(44)
 696 0240 8093 C600 		sts 198,r24
 697               	/* epilogue start */
 698               	.LBE194:
 699               	.LBE193:
 700               	.LBE192:
 701               	.LBE191:
 702               	.LM130:
 703 0244 0895      		ret
 704               	.LFE32:
 706               	.global	UART_Determine_Digit_Numbers
 708               	UART_Determine_Digit_Numbers:
 709               	.LFB33:
 710               	.LM131:
 711               	.LVL33:
 712 0246 BF92      		push r11
 713 0248 CF92      		push r12
 714 024a DF92      		push r13
 715 024c EF92      		push r14
 716 024e FF92      		push r15
 717 0250 0F93      		push r16
 718 0252 1F93      		push r17
 719               	/* prologue: function */
 720               	/* frame size = 0 */
 721 0254 6B01      		movw r12,r22
 722 0256 7C01      		movw r14,r24
 723               	.LM132:
 724 0258 6115      		cp r22,__zero_reg__
 725 025a 7105      		cpc r23,__zero_reg__
 726 025c 8105      		cpc r24,__zero_reg__
 727 025e 9105      		cpc r25,__zero_reg__
 728 0260 01F4      		brne .L82
 729               	.LM133:
 730 0262 1092 0000 		sts UART+1,__zero_reg__
 731               	.LM134:
 732 0266 81E0      		ldi r24,lo8(1)
 733 0268 8093 0000 		sts UART+9,r24
 734 026c 00C0      		rjmp .L85
 735               	.L82:
 736 026e BB24      		clr r11
 737               	.LVL34:
 738               	.L84:
 739               	.LM135:
 740 0270 0B2D      		mov r16,r11
 741 0272 10E0      		ldi r17,lo8(0)
 742               	.LVL35:
 743 0274 0050      		subi r16,lo8(-(UART))
 744 0276 1040      		sbci r17,hi8(-(UART))
 745               	.LVL36:
 746 0278 C701      		movw r24,r14
 747 027a B601      		movw r22,r12
 748               	.LVL37:
 749 027c 2AE0      		ldi r18,lo8(10)
 750 027e 30E0      		ldi r19,hi8(10)
 751 0280 40E0      		ldi r20,hlo8(10)
 752 0282 50E0      		ldi r21,hhi8(10)
 753 0284 0E94 0000 		call __udivmodsi4
 754 0288 F801      		movw r30,r16
 755 028a 6183      		std Z+1,r22
 756               	.LM136:
 757 028c C701      		movw r24,r14
 758 028e B601      		movw r22,r12
 759 0290 2AE0      		ldi r18,lo8(10)
 760 0292 30E0      		ldi r19,hi8(10)
 761 0294 40E0      		ldi r20,hlo8(10)
 762 0296 50E0      		ldi r21,hhi8(10)
 763 0298 0E94 0000 		call __udivmodsi4
 764 029c C901      		movw r24,r18
 765 029e DA01      		movw r26,r20
 766 02a0 6C01      		movw r12,r24
 767 02a2 7D01      		movw r14,r26
 768               	.LM137:
 769 02a4 B394      		inc r11
 770               	.LVL38:
 771               	.LM138:
 772 02a6 C114      		cp r12,__zero_reg__
 773 02a8 D104      		cpc r13,__zero_reg__
 774 02aa E104      		cpc r14,__zero_reg__
 775 02ac F104      		cpc r15,__zero_reg__
 776 02ae 01F4      		brne .L84
 777               	.LM139:
 778 02b0 B092 0000 		sts UART+9,r11
 779               	.LVL39:
 780               	.L85:
 781               	/* epilogue start */
 782               	.LM140:
 783 02b4 1F91      		pop r17
 784               	.LVL40:
 785 02b6 0F91      		pop r16
 786 02b8 FF90      		pop r15
 787 02ba EF90      		pop r14
 788 02bc DF90      		pop r13
 789 02be CF90      		pop r12
 790               	.LVL41:
 791 02c0 BF90      		pop r11
 792               	.LVL42:
 793 02c2 0895      		ret
 794               	.LFE33:
 796               	.global	UART_Tx_Number_Digits
 798               	UART_Tx_Number_Digits:
 799               	.LFB34:
 800               	.LM141:
 801               	/* prologue: function */
 802               	/* frame size = 0 */
 803               	.LBB195:
 804               	.LM142:
 805 02c4 E091 0000 		lds r30,UART+9
 806               	.LVL43:
 807 02c8 00C0      		rjmp .L88
 808               	.LVL44:
 809               	.L90:
 810               	.LBB196:
 811               	.LM143:
 812 02ca 2E2F      		mov r18,r30
 813 02cc 2150      		subi r18,lo8(-(-1))
 814               	.LM144:
 815 02ce E22F      		mov r30,r18
 816               	.LVL45:
 817 02d0 F0E0      		ldi r31,lo8(0)
 818 02d2 E050      		subi r30,lo8(-(UART))
 819 02d4 F040      		sbci r31,hi8(-(UART))
 820 02d6 9181      		ldd r25,Z+1
 821               	.LVL46:
 822               	.L89:
 823               	.LBB197:
 824               	.LBB198:
 825               	.LM145:
 826 02d8 8091 C000 		lds r24,192
 827 02dc 85FF      		sbrs r24,5
 828 02de 00C0      		rjmp .L89
 829               	.LBE198:
 830               	.LBE197:
 831               	.LM146:
 832 02e0 905D      		subi r25,lo8(-(48))
 833               	.LBB200:
 834               	.LBB199:
 835               	.LM147:
 836 02e2 9093 C600 		sts 198,r25
 837 02e6 E22F      		mov r30,r18
 838               	.LVL47:
 839               	.L88:
 840               	.LBE199:
 841               	.LBE200:
 842               	.LBE196:
 843               	.LM148:
 844 02e8 EE23      		tst r30
 845 02ea 01F4      		brne .L90
 846               	/* epilogue start */
 847               	.LBE195:
 848               	.LM149:
 849 02ec 0895      		ret
 850               	.LFE34:
 852               	.global	UART_Tx_Number
 854               	UART_Tx_Number:
 855               	.LFB35:
 856               	.LM150:
 857               	.LVL48:
 858               	/* prologue: function */
 859               	/* frame size = 0 */
 860 02ee 9B01      		movw r18,r22
 861 02f0 AC01      		movw r20,r24
 862               	.LM151:
 863 02f2 97FF      		sbrs r25,7
 864 02f4 00C0      		rjmp .L94
 865               	.L97:
 866               	.LBB201:
 867               	.LBB202:
 868               	.LM152:
 869 02f6 8091 C000 		lds r24,192
 870 02fa 85FF      		sbrs r24,5
 871 02fc 00C0      		rjmp .L97
 872               	.LM153:
 873 02fe 8DE2      		ldi r24,lo8(45)
 874 0300 8093 C600 		sts 198,r24
 875               	.LBE202:
 876               	.LBE201:
 877               	.LM154:
 878 0304 5095      		com r21
 879 0306 4095      		com r20
 880 0308 3095      		com r19
 881 030a 2195      		neg r18
 882 030c 3F4F      		sbci r19,lo8(-1)
 883 030e 4F4F      		sbci r20,lo8(-1)
 884 0310 5F4F      		sbci r21,lo8(-1)
 885               	.LVL49:
 886               	.L94:
 887               	.LM155:
 888 0312 CA01      		movw r24,r20
 889 0314 B901      		movw r22,r18
 890 0316 0E94 0000 		call UART_Determine_Digit_Numbers
 891               	.LVL50:
 892               	.LM156:
 893 031a 0E94 0000 		call UART_Tx_Number_Digits
 894               	/* epilogue start */
 895               	.LM157:
 896 031e 0895      		ret
 897               	.LFE35:
 899               	.global	UART_Tx_Number_Hex
 901               	UART_Tx_Number_Hex:
 902               	.LFB36:
 903               	.LM158:
 904               	.LVL51:
 905 0320 1F93      		push r17
 906 0322 CF93      		push r28
 907 0324 DF93      		push r29
 908               	/* prologue: function */
 909               	/* frame size = 0 */
 910 0326 AB01      		movw r20,r22
 911 0328 BC01      		movw r22,r24
 912               	.LM159:
 913 032a 4F3F      		cpi r20,lo8(255)
 914 032c 5105      		cpc r21,__zero_reg__
 915 032e 6105      		cpc r22,__zero_reg__
 916 0330 7105      		cpc r23,__zero_reg__
 917 0332 01F0      		breq .+2
 918 0334 00F4      		brsh .L100
 919               	.LVL52:
 920 0336 E8E0      		ldi r30,lo8(8)
 921 0338 F0E0      		ldi r31,hi8(8)
 922               	.LVL53:
 923 033a C2E0      		ldi r28,lo8(2)
 924 033c D0E0      		ldi r29,hi8(2)
 925               	.LVL54:
 926 033e 00C0      		rjmp .L110
 927               	.LVL55:
 928               	.L100:
 929               	.LM160:
 930 0340 4030      		cpi r20,lo8(65536)
 931 0342 80E0      		ldi r24,hi8(65536)
 932 0344 5807      		cpc r21,r24
 933 0346 81E0      		ldi r24,hlo8(65536)
 934 0348 6807      		cpc r22,r24
 935 034a 80E0      		ldi r24,hhi8(65536)
 936 034c 7807      		cpc r23,r24
 937 034e 00F0      		brlo .L102
 938 0350 E0E2      		ldi r30,lo8(32)
 939 0352 F0E0      		ldi r31,hi8(32)
 940               	.LVL56:
 941 0354 C8E0      		ldi r28,lo8(8)
 942 0356 D0E0      		ldi r29,hi8(8)
 943               	.LVL57:
 944 0358 00C0      		rjmp .L110
 945               	.LVL58:
 946               	.L102:
 947 035a E0E1      		ldi r30,lo8(16)
 948 035c F0E0      		ldi r31,hi8(16)
 949               	.LVL59:
 950 035e C4E0      		ldi r28,lo8(4)
 951 0360 D0E0      		ldi r29,hi8(4)
 952               	.LVL60:
 953               	.L110:
 954               	.LBB203:
 955               	.LBB204:
 956               	.LM161:
 957 0362 8091 C000 		lds r24,192
 958 0366 85FF      		sbrs r24,5
 959 0368 00C0      		rjmp .L110
 960               	.LM162:
 961 036a 80E3      		ldi r24,lo8(48)
 962 036c 8093 C600 		sts 198,r24
 963               	.L103:
 964               	.LBE204:
 965               	.LBE203:
 966               	.LBB205:
 967               	.LBB206:
 968               	.LM163:
 969 0370 8091 C000 		lds r24,192
 970 0374 85FF      		sbrs r24,5
 971 0376 00C0      		rjmp .L103
 972               	.LM164:
 973 0378 88E7      		ldi r24,lo8(120)
 974 037a 8093 C600 		sts 198,r24
 975 037e 10E0      		ldi r17,lo8(0)
 976               	.LVL61:
 977 0380 00C0      		rjmp .L104
 978               	.LVL62:
 979               	.L107:
 980               	.LBE206:
 981               	.LBE205:
 982               	.LBB207:
 983               	.LM165:
 984 0382 3497      		sbiw r30,4
 985               	.LM166:
 986 0384 DB01      		movw r26,r22
 987 0386 CA01      		movw r24,r20
 988               	.LVL63:
 989 0388 0E2E      		mov r0,r30
 990 038a 00C0      		rjmp 2f
 991 038c B695      	1:	lsr r27
 992 038e A795      		ror r26
 993 0390 9795      		ror r25
 994 0392 8795      		ror r24
 995 0394 0A94      	2:	dec r0
 996 0396 02F4      		brpl 1b
 997 0398 90E0      		ldi r25,lo8(0)
 998               	.LVL64:
 999 039a 8F70      		andi r24,lo8(15)
 1000 039c 9070      		andi r25,hi8(15)
 1001               	.LVL65:
 1002               	.LM167:
 1003 039e 8A30      		cpi r24,10
 1004 03a0 9105      		cpc r25,__zero_reg__
 1005 03a2 00F0      		brlo .L105
 1006               	.LM168:
 1007 03a4 9C01      		movw r18,r24
 1008 03a6 295C      		subi r18,lo8(-(55))
 1009 03a8 3F4F      		sbci r19,hi8(-(55))
 1010               	.LVL66:
 1011 03aa 00C0      		rjmp .L109
 1012               	.LVL67:
 1013               	.L105:
 1014               	.LM169:
 1015 03ac 9C01      		movw r18,r24
 1016 03ae 205D      		subi r18,lo8(-(48))
 1017 03b0 3F4F      		sbci r19,hi8(-(48))
 1018               	.LVL68:
 1019               	.L109:
 1020               	.LBB208:
 1021               	.LBB209:
 1022               	.LM170:
 1023 03b2 8091 C000 		lds r24,192
 1024 03b6 85FF      		sbrs r24,5
 1025 03b8 00C0      		rjmp .L109
 1026               	.LM171:
 1027 03ba 2093 C600 		sts 198,r18
 1028               	.LBE209:
 1029               	.LBE208:
 1030               	.LM172:
 1031 03be 1F5F      		subi r17,lo8(-(1))
 1032               	.L104:
 1033 03c0 812F      		mov r24,r17
 1034 03c2 90E0      		ldi r25,lo8(0)
 1035               	.LVL69:
 1036 03c4 8C17      		cp r24,r28
 1037 03c6 9D07      		cpc r25,r29
 1038 03c8 00F0      		brlo .L107
 1039               	.LVL70:
 1040               	/* epilogue start */
 1041               	.LBE207:
 1042               	.LM173:
 1043 03ca DF91      		pop r29
 1044 03cc CF91      		pop r28
 1045               	.LVL71:
 1046 03ce 1F91      		pop r17
 1047 03d0 0895      		ret
 1048               	.LFE36:
 1050               	.global	UART_Tx_Number_Bin
 1052               	UART_Tx_Number_Bin:
 1053               	.LFB37:
 1054               	.LM174:
 1055               	.LVL72:
 1056 03d2 CF92      		push r12
 1057 03d4 DF92      		push r13
 1058 03d6 EF92      		push r14
 1059 03d8 FF92      		push r15
 1060 03da 0F93      		push r16
 1061 03dc 1F93      		push r17
 1062 03de CF93      		push r28
 1063 03e0 DF93      		push r29
 1064               	/* prologue: function */
 1065               	/* frame size = 0 */
 1066 03e2 AB01      		movw r20,r22
 1067 03e4 BC01      		movw r22,r24
 1068               	.LM175:
 1069 03e6 4F3F      		cpi r20,lo8(255)
 1070 03e8 5105      		cpc r21,__zero_reg__
 1071 03ea 6105      		cpc r22,__zero_reg__
 1072 03ec 7105      		cpc r23,__zero_reg__
 1073 03ee 01F0      		breq .+2
 1074 03f0 00F4      		brsh .L115
 1075               	.LVL73:
 1076 03f2 97E0      		ldi r25,lo8(7)
 1077               	.LVL74:
 1078 03f4 00C0      		rjmp .L126
 1079               	.LVL75:
 1080               	.L115:
 1081               	.LM176:
 1082 03f6 4030      		cpi r20,lo8(65536)
 1083 03f8 80E0      		ldi r24,hi8(65536)
 1084 03fa 5807      		cpc r21,r24
 1085 03fc 81E0      		ldi r24,hlo8(65536)
 1086 03fe 6807      		cpc r22,r24
 1087 0400 80E0      		ldi r24,hhi8(65536)
 1088 0402 7807      		cpc r23,r24
 1089 0404 00F0      		brlo .L117
 1090 0406 9FE1      		ldi r25,lo8(31)
 1091               	.LVL76:
 1092 0408 00C0      		rjmp .L126
 1093               	.LVL77:
 1094               	.L117:
 1095 040a 9FE0      		ldi r25,lo8(15)
 1096               	.LVL78:
 1097               	.L126:
 1098               	.LBB210:
 1099               	.LBB211:
 1100               	.LM177:
 1101 040c 8091 C000 		lds r24,192
 1102 0410 85FF      		sbrs r24,5
 1103 0412 00C0      		rjmp .L126
 1104               	.LM178:
 1105 0414 80E3      		ldi r24,lo8(48)
 1106 0416 8093 C600 		sts 198,r24
 1107               	.L118:
 1108               	.LBE211:
 1109               	.LBE210:
 1110               	.LBB212:
 1111               	.LBB213:
 1112               	.LM179:
 1113 041a 8091 C000 		lds r24,192
 1114 041e 85FF      		sbrs r24,5
 1115 0420 00C0      		rjmp .L118
 1116               	.LM180:
 1117 0422 82E6      		ldi r24,lo8(98)
 1118 0424 8093 C600 		sts 198,r24
 1119 0428 20E0      		ldi r18,lo8(0)
 1120 042a 30E0      		ldi r19,hi8(0)
 1121               	.LM181:
 1122 042c E92F      		mov r30,r25
 1123 042e F0E0      		ldi r31,lo8(0)
 1124               	.LBE213:
 1125               	.LBE212:
 1126               	.LBB214:
 1127               	.LBB215:
 1128               	.LBB216:
 1129               	.LM182:
 1130 0430 00E3      		ldi r16,lo8(48)
 1131               	.LBE216:
 1132               	.LBE215:
 1133               	.LBB218:
 1134               	.LBB219:
 1135 0432 11E3      		ldi r17,lo8(49)
 1136               	.LBE219:
 1137               	.LBE218:
 1138               	.LM183:
 1139 0434 EF01      		movw r28,r30
 1140 0436 2196      		adiw r28,1
 1141               	.L122:
 1142               	.LM184:
 1143 0438 CF01      		movw r24,r30
 1144 043a 821B      		sub r24,r18
 1145 043c 930B      		sbc r25,r19
 1146 043e 6A01      		movw r12,r20
 1147 0440 7B01      		movw r14,r22
 1148 0442 00C0      		rjmp 2f
 1149 0444 F694      	1:	lsr r15
 1150 0446 E794      		ror r14
 1151 0448 D794      		ror r13
 1152 044a C794      		ror r12
 1153 044c 8A95      	2:	dec r24
 1154 044e 02F4      		brpl 1b
 1155 0450 D701      		movw r26,r14
 1156 0452 C601      		movw r24,r12
 1157 0454 8170      		andi r24,lo8(1)
 1158 0456 9070      		andi r25,hi8(1)
 1159 0458 892B      		or r24,r25
 1160 045a 01F0      		breq .L125
 1161               	.L124:
 1162               	.LBB221:
 1163               	.LBB220:
 1164               	.LM185:
 1165 045c 8091 C000 		lds r24,192
 1166 0460 85FF      		sbrs r24,5
 1167 0462 00C0      		rjmp .L124
 1168               	.LM186:
 1169 0464 1093 C600 		sts 198,r17
 1170 0468 00C0      		rjmp .L121
 1171               	.L125:
 1172               	.LBE220:
 1173               	.LBE221:
 1174               	.LBB222:
 1175               	.LBB217:
 1176               	.LM187:
 1177 046a 8091 C000 		lds r24,192
 1178 046e 85FF      		sbrs r24,5
 1179 0470 00C0      		rjmp .L125
 1180               	.LM188:
 1181 0472 0093 C600 		sts 198,r16
 1182               	.L121:
 1183 0476 2F5F      		subi r18,lo8(-(1))
 1184 0478 3F4F      		sbci r19,hi8(-(1))
 1185               	.LBE217:
 1186               	.LBE222:
 1187               	.LM189:
 1188 047a 2C17      		cp r18,r28
 1189 047c 3D07      		cpc r19,r29
 1190 047e 01F4      		brne .L122
 1191               	/* epilogue start */
 1192               	.LBE214:
 1193               	.LM190:
 1194 0480 DF91      		pop r29
 1195 0482 CF91      		pop r28
 1196 0484 1F91      		pop r17
 1197 0486 0F91      		pop r16
 1198 0488 FF90      		pop r15
 1199 048a EF90      		pop r14
 1200 048c DF90      		pop r13
 1201 048e CF90      		pop r12
 1202 0490 0895      		ret
 1203               	.LFE37:
 1205               	.global	UART_Tx_Number_NL
 1207               	UART_Tx_Number_NL:
 1208               	.LFB38:
 1209               	.LM191:
 1210               	.LVL79:
 1211               	/* prologue: function */
 1212               	/* frame size = 0 */
 1213               	.LM192:
 1214 0492 0E94 0000 		call UART_Tx_Number
 1215               	.LVL80:
 1216               	.LM193:
 1217 0496 0E94 0000 		call UART_Tx_NL
 1218               	/* epilogue start */
 1219               	.LM194:
 1220 049a 0895      		ret
 1221               	.LFE38:
 1223               	.global	UART_Tx_Number_SP
 1225               	UART_Tx_Number_SP:
 1226               	.LFB39:
 1227               	.LM195:
 1228               	.LVL81:
 1229               	/* prologue: function */
 1230               	/* frame size = 0 */
 1231               	.LM196:
 1232 049c 0E94 0000 		call UART_Tx_Number
 1233               	.LVL82:
 1234               	.L135:
 1235               	.LBB223:
 1236               	.LBB224:
 1237               	.LBB225:
 1238               	.LBB226:
 1239               	.LM197:
 1240 04a0 8091 C000 		lds r24,192
 1241 04a4 85FF      		sbrs r24,5
 1242 04a6 00C0      		rjmp .L135
 1243               	.LM198:
 1244 04a8 80E2      		ldi r24,lo8(32)
 1245 04aa 8093 C600 		sts 198,r24
 1246               	/* epilogue start */
 1247               	.LBE226:
 1248               	.LBE225:
 1249               	.LBE224:
 1250               	.LBE223:
 1251               	.LM199:
 1252 04ae 0895      		ret
 1253               	.LFE39:
 1255               	.global	UART_Tx_Number_CM
 1257               	UART_Tx_Number_CM:
 1258               	.LFB40:
 1259               	.LM200:
 1260               	.LVL83:
 1261               	/* prologue: function */
 1262               	/* frame size = 0 */
 1263               	.LM201:
 1264 04b0 0E94 0000 		call UART_Tx_Number
 1265               	.LVL84:
 1266               	.L139:
 1267               	.LBB227:
 1268               	.LBB228:
 1269               	.LBB229:
 1270               	.LBB230:
 1271               	.LM202:
 1272 04b4 8091 C000 		lds r24,192
 1273 04b8 85FF      		sbrs r24,5
 1274 04ba 00C0      		rjmp .L139
 1275               	.LM203:
 1276 04bc 8CE2      		ldi r24,lo8(44)
 1277 04be 8093 C600 		sts 198,r24
 1278               	/* epilogue start */
 1279               	.LBE230:
 1280               	.LBE229:
 1281               	.LBE228:
 1282               	.LBE227:
 1283               	.LM204:
 1284 04c2 0895      		ret
 1285               	.LFE40:
 1287               	.global	UART_Tx_Number_Hex_NL
 1289               	UART_Tx_Number_Hex_NL:
 1290               	.LFB41:
 1291               	.LM205:
 1292               	.LVL85:
 1293               	/* prologue: function */
 1294               	/* frame size = 0 */
 1295               	.LM206:
 1296 04c4 0E94 0000 		call UART_Tx_Number_Hex
 1297               	.LVL86:
 1298               	.LM207:
 1299 04c8 0E94 0000 		call UART_Tx_NL
 1300               	/* epilogue start */
 1301               	.LM208:
 1302 04cc 0895      		ret
 1303               	.LFE41:
 1305               	.global	UART_Tx_Number_Hex_SP
 1307               	UART_Tx_Number_Hex_SP:
 1308               	.LFB42:
 1309               	.LM209:
 1310               	.LVL87:
 1311               	/* prologue: function */
 1312               	/* frame size = 0 */
 1313               	.LM210:
 1314 04ce 0E94 0000 		call UART_Tx_Number_Hex
 1315               	.LVL88:
 1316               	.L145:
 1317               	.LBB231:
 1318               	.LBB232:
 1319               	.LBB233:
 1320               	.LBB234:
 1321               	.LM211:
 1322 04d2 8091 C000 		lds r24,192
 1323 04d6 85FF      		sbrs r24,5
 1324 04d8 00C0      		rjmp .L145
 1325               	.LM212:
 1326 04da 80E2      		ldi r24,lo8(32)
 1327 04dc 8093 C600 		sts 198,r24
 1328               	/* epilogue start */
 1329               	.LBE234:
 1330               	.LBE233:
 1331               	.LBE232:
 1332               	.LBE231:
 1333               	.LM213:
 1334 04e0 0895      		ret
 1335               	.LFE42:
 1337               	.global	UART_Tx_Number_Hex_CM
 1339               	UART_Tx_Number_Hex_CM:
 1340               	.LFB43:
 1341               	.LM214:
 1342               	.LVL89:
 1343               	/* prologue: function */
 1344               	/* frame size = 0 */
 1345               	.LM215:
 1346 04e2 0E94 0000 		call UART_Tx_Number_Hex
 1347               	.LVL90:
 1348               	.L149:
 1349               	.LBB235:
 1350               	.LBB236:
 1351               	.LBB237:
 1352               	.LBB238:
 1353               	.LM216:
 1354 04e6 8091 C000 		lds r24,192
 1355 04ea 85FF      		sbrs r24,5
 1356 04ec 00C0      		rjmp .L149
 1357               	.LM217:
 1358 04ee 8CE2      		ldi r24,lo8(44)
 1359 04f0 8093 C600 		sts 198,r24
 1360               	/* epilogue start */
 1361               	.LBE238:
 1362               	.LBE237:
 1363               	.LBE236:
 1364               	.LBE235:
 1365               	.LM218:
 1366 04f4 0895      		ret
 1367               	.LFE43:
 1369               	.global	UART_Tx_Number_Bin_NL
 1371               	UART_Tx_Number_Bin_NL:
 1372               	.LFB44:
 1373               	.LM219:
 1374               	.LVL91:
 1375               	/* prologue: function */
 1376               	/* frame size = 0 */
 1377               	.LM220:
 1378 04f6 0E94 0000 		call UART_Tx_Number_Bin
 1379               	.LVL92:
 1380               	.LM221:
 1381 04fa 0E94 0000 		call UART_Tx_NL
 1382               	/* epilogue start */
 1383               	.LM222:
 1384 04fe 0895      		ret
 1385               	.LFE44:
 1387               	.global	UART_Tx_Number_Bin_SP
 1389               	UART_Tx_Number_Bin_SP:
 1390               	.LFB45:
 1391               	.LM223:
 1392               	.LVL93:
 1393               	/* prologue: function */
 1394               	/* frame size = 0 */
 1395               	.LM224:
 1396 0500 0E94 0000 		call UART_Tx_Number_Bin
 1397               	.LVL94:
 1398               	.L155:
 1399               	.LBB239:
 1400               	.LBB240:
 1401               	.LBB241:
 1402               	.LBB242:
 1403               	.LM225:
 1404 0504 8091 C000 		lds r24,192
 1405 0508 85FF      		sbrs r24,5
 1406 050a 00C0      		rjmp .L155
 1407               	.LM226:
 1408 050c 80E2      		ldi r24,lo8(32)
 1409 050e 8093 C600 		sts 198,r24
 1410               	/* epilogue start */
 1411               	.LBE242:
 1412               	.LBE241:
 1413               	.LBE240:
 1414               	.LBE239:
 1415               	.LM227:
 1416 0512 0895      		ret
 1417               	.LFE45:
 1419               	.global	UART_Tx_Number_Bin_CM
 1421               	UART_Tx_Number_Bin_CM:
 1422               	.LFB46:
 1423               	.LM228:
 1424               	.LVL95:
 1425               	/* prologue: function */
 1426               	/* frame size = 0 */
 1427               	.LM229:
 1428 0514 0E94 0000 		call UART_Tx_Number_Bin
 1429               	.LVL96:
 1430               	.L159:
 1431               	.LBB243:
 1432               	.LBB244:
 1433               	.LBB245:
 1434               	.LBB246:
 1435               	.LM230:
 1436 0518 8091 C000 		lds r24,192
 1437 051c 85FF      		sbrs r24,5
 1438 051e 00C0      		rjmp .L159
 1439               	.LM231:
 1440 0520 8CE2      		ldi r24,lo8(44)
 1441 0522 8093 C600 		sts 198,r24
 1442               	/* epilogue start */
 1443               	.LBE246:
 1444               	.LBE245:
 1445               	.LBE244:
 1446               	.LBE243:
 1447               	.LM232:
 1448 0526 0895      		ret
 1449               	.LFE46:
 1451               	.global	UART_Tx_Parameter_NL
 1453               	UART_Tx_Parameter_NL:
 1454               	.LFB47:
 1455               	.LM233:
 1456               	.LVL97:
 1457 0528 EF92      		push r14
 1458 052a FF92      		push r15
 1459 052c 0F93      		push r16
 1460 052e 1F93      		push r17
 1461               	/* prologue: function */
 1462               	/* frame size = 0 */
 1463 0530 7A01      		movw r14,r20
 1464 0532 8B01      		movw r16,r22
 1465               	.LM234:
 1466 0534 0E94 0000 		call UART_Tx_Text
 1467               	.LVL98:
 1468               	.L163:
 1469               	.LBB247:
 1470               	.LBB248:
 1471               	.LBB249:
 1472               	.LBB250:
 1473               	.LM235:
 1474 0538 8091 C000 		lds r24,192
 1475 053c 85FF      		sbrs r24,5
 1476 053e 00C0      		rjmp .L163
 1477               	.LM236:
 1478 0540 80E2      		ldi r24,lo8(32)
 1479 0542 8093 C600 		sts 198,r24
 1480               	.LBE250:
 1481               	.LBE249:
 1482               	.LBE248:
 1483               	.LBE247:
 1484               	.LM237:
 1485 0546 C801      		movw r24,r16
 1486 0548 B701      		movw r22,r14
 1487 054a 0E94 0000 		call UART_Tx_Number_NL
 1488               	/* epilogue start */
 1489               	.LM238:
 1490 054e 1F91      		pop r17
 1491 0550 0F91      		pop r16
 1492 0552 FF90      		pop r15
 1493 0554 EF90      		pop r14
 1494               	.LVL99:
 1495 0556 0895      		ret
 1496               	.LFE47:
 1498               	.global	UART_Tx_Parameter_SP
 1500               	UART_Tx_Parameter_SP:
 1501               	.LFB48:
 1502               	.LM239:
 1503               	.LVL100:
 1504 0558 EF92      		push r14
 1505 055a FF92      		push r15
 1506 055c 0F93      		push r16
 1507 055e 1F93      		push r17
 1508               	/* prologue: function */
 1509               	/* frame size = 0 */
 1510 0560 7A01      		movw r14,r20
 1511 0562 8B01      		movw r16,r22
 1512               	.LM240:
 1513 0564 0E94 0000 		call UART_Tx_Text
 1514               	.LVL101:
 1515               	.L167:
 1516               	.LBB251:
 1517               	.LBB252:
 1518               	.LBB253:
 1519               	.LBB254:
 1520               	.LM241:
 1521 0568 8091 C000 		lds r24,192
 1522 056c 85FF      		sbrs r24,5
 1523 056e 00C0      		rjmp .L167
 1524               	.LM242:
 1525 0570 80E2      		ldi r24,lo8(32)
 1526 0572 8093 C600 		sts 198,r24
 1527               	.LBE254:
 1528               	.LBE253:
 1529               	.LBE252:
 1530               	.LBE251:
 1531               	.LM243:
 1532 0576 C801      		movw r24,r16
 1533 0578 B701      		movw r22,r14
 1534 057a 0E94 0000 		call UART_Tx_Number_SP
 1535               	/* epilogue start */
 1536               	.LM244:
 1537 057e 1F91      		pop r17
 1538 0580 0F91      		pop r16
 1539 0582 FF90      		pop r15
 1540 0584 EF90      		pop r14
 1541               	.LVL102:
 1542 0586 0895      		ret
 1543               	.LFE48:
 1545               	.global	UART_Tx_Parameter_CM
 1547               	UART_Tx_Parameter_CM:
 1548               	.LFB49:
 1549               	.LM245:
 1550               	.LVL103:
 1551 0588 EF92      		push r14
 1552 058a FF92      		push r15
 1553 058c 0F93      		push r16
 1554 058e 1F93      		push r17
 1555               	/* prologue: function */
 1556               	/* frame size = 0 */
 1557 0590 7A01      		movw r14,r20
 1558 0592 8B01      		movw r16,r22
 1559               	.LM246:
 1560 0594 0E94 0000 		call UART_Tx_Text
 1561               	.LVL104:
 1562               	.L171:
 1563               	.LBB255:
 1564               	.LBB256:
 1565               	.LBB257:
 1566               	.LBB258:
 1567               	.LM247:
 1568 0598 8091 C000 		lds r24,192
 1569 059c 85FF      		sbrs r24,5
 1570 059e 00C0      		rjmp .L171
 1571               	.LM248:
 1572 05a0 80E2      		ldi r24,lo8(32)
 1573 05a2 8093 C600 		sts 198,r24
 1574               	.LBE258:
 1575               	.LBE257:
 1576               	.LBE256:
 1577               	.LBE255:
 1578               	.LM249:
 1579 05a6 C801      		movw r24,r16
 1580 05a8 B701      		movw r22,r14
 1581 05aa 0E94 0000 		call UART_Tx_Number_CM
 1582               	/* epilogue start */
 1583               	.LM250:
 1584 05ae 1F91      		pop r17
 1585 05b0 0F91      		pop r16
 1586 05b2 FF90      		pop r15
 1587 05b4 EF90      		pop r14
 1588               	.LVL105:
 1589 05b6 0895      		ret
 1590               	.LFE49:
 1592               	.global	UART_Tx_Parameter_Hex_NL
 1594               	UART_Tx_Parameter_Hex_NL:
 1595               	.LFB50:
 1596               	.LM251:
 1597               	.LVL106:
 1598 05b8 EF92      		push r14
 1599 05ba FF92      		push r15
 1600 05bc 0F93      		push r16
 1601 05be 1F93      		push r17
 1602               	/* prologue: function */
 1603               	/* frame size = 0 */
 1604 05c0 7A01      		movw r14,r20
 1605 05c2 8B01      		movw r16,r22
 1606               	.LM252:
 1607 05c4 0E94 0000 		call UART_Tx_Text
 1608               	.LVL107:
 1609               	.L175:
 1610               	.LBB259:
 1611               	.LBB260:
 1612               	.LBB261:
 1613               	.LBB262:
 1614               	.LM253:
 1615 05c8 8091 C000 		lds r24,192
 1616 05cc 85FF      		sbrs r24,5
 1617 05ce 00C0      		rjmp .L175
 1618               	.LM254:
 1619 05d0 80E2      		ldi r24,lo8(32)
 1620 05d2 8093 C600 		sts 198,r24
 1621               	.LBE262:
 1622               	.LBE261:
 1623               	.LBE260:
 1624               	.LBE259:
 1625               	.LM255:
 1626 05d6 C801      		movw r24,r16
 1627 05d8 B701      		movw r22,r14
 1628 05da 0E94 0000 		call UART_Tx_Number_Hex_NL
 1629               	/* epilogue start */
 1630               	.LM256:
 1631 05de 1F91      		pop r17
 1632 05e0 0F91      		pop r16
 1633 05e2 FF90      		pop r15
 1634 05e4 EF90      		pop r14
 1635               	.LVL108:
 1636 05e6 0895      		ret
 1637               	.LFE50:
 1639               	.global	UART_Tx_Parameter_Hex_SP
 1641               	UART_Tx_Parameter_Hex_SP:
 1642               	.LFB51:
 1643               	.LM257:
 1644               	.LVL109:
 1645 05e8 EF92      		push r14
 1646 05ea FF92      		push r15
 1647 05ec 0F93      		push r16
 1648 05ee 1F93      		push r17
 1649               	/* prologue: function */
 1650               	/* frame size = 0 */
 1651 05f0 7A01      		movw r14,r20
 1652 05f2 8B01      		movw r16,r22
 1653               	.LM258:
 1654 05f4 0E94 0000 		call UART_Tx_Text
 1655               	.LVL110:
 1656               	.L179:
 1657               	.LBB263:
 1658               	.LBB264:
 1659               	.LBB265:
 1660               	.LBB266:
 1661               	.LM259:
 1662 05f8 8091 C000 		lds r24,192
 1663 05fc 85FF      		sbrs r24,5
 1664 05fe 00C0      		rjmp .L179
 1665               	.LM260:
 1666 0600 80E2      		ldi r24,lo8(32)
 1667 0602 8093 C600 		sts 198,r24
 1668               	.LBE266:
 1669               	.LBE265:
 1670               	.LBE264:
 1671               	.LBE263:
 1672               	.LM261:
 1673 0606 C801      		movw r24,r16
 1674 0608 B701      		movw r22,r14
 1675 060a 0E94 0000 		call UART_Tx_Number_Hex_SP
 1676               	/* epilogue start */
 1677               	.LM262:
 1678 060e 1F91      		pop r17
 1679 0610 0F91      		pop r16
 1680 0612 FF90      		pop r15
 1681 0614 EF90      		pop r14
 1682               	.LVL111:
 1683 0616 0895      		ret
 1684               	.LFE51:
 1686               	.global	UART_Tx_Parameter_Hex_CM
 1688               	UART_Tx_Parameter_Hex_CM:
 1689               	.LFB52:
 1690               	.LM263:
 1691               	.LVL112:
 1692 0618 EF92      		push r14
 1693 061a FF92      		push r15
 1694 061c 0F93      		push r16
 1695 061e 1F93      		push r17
 1696               	/* prologue: function */
 1697               	/* frame size = 0 */
 1698 0620 7A01      		movw r14,r20
 1699 0622 8B01      		movw r16,r22
 1700               	.LM264:
 1701 0624 0E94 0000 		call UART_Tx_Text
 1702               	.LVL113:
 1703               	.L183:
 1704               	.LBB267:
 1705               	.LBB268:
 1706               	.LBB269:
 1707               	.LBB270:
 1708               	.LM265:
 1709 0628 8091 C000 		lds r24,192
 1710 062c 85FF      		sbrs r24,5
 1711 062e 00C0      		rjmp .L183
 1712               	.LM266:
 1713 0630 80E2      		ldi r24,lo8(32)
 1714 0632 8093 C600 		sts 198,r24
 1715               	.LBE270:
 1716               	.LBE269:
 1717               	.LBE268:
 1718               	.LBE267:
 1719               	.LM267:
 1720 0636 C801      		movw r24,r16
 1721 0638 B701      		movw r22,r14
 1722 063a 0E94 0000 		call UART_Tx_Number_Hex_CM
 1723               	/* epilogue start */
 1724               	.LM268:
 1725 063e 1F91      		pop r17
 1726 0640 0F91      		pop r16
 1727 0642 FF90      		pop r15
 1728 0644 EF90      		pop r14
 1729               	.LVL114:
 1730 0646 0895      		ret
 1731               	.LFE52:
 1733               	.global	UART_Tx_Parameter_Bin_NL
 1735               	UART_Tx_Parameter_Bin_NL:
 1736               	.LFB53:
 1737               	.LM269:
 1738               	.LVL115:
 1739 0648 EF92      		push r14
 1740 064a FF92      		push r15
 1741 064c 0F93      		push r16
 1742 064e 1F93      		push r17
 1743               	/* prologue: function */
 1744               	/* frame size = 0 */
 1745 0650 7A01      		movw r14,r20
 1746 0652 8B01      		movw r16,r22
 1747               	.LM270:
 1748 0654 0E94 0000 		call UART_Tx_Text
 1749               	.LVL116:
 1750               	.L187:
 1751               	.LBB271:
 1752               	.LBB272:
 1753               	.LBB273:
 1754               	.LBB274:
 1755               	.LM271:
 1756 0658 8091 C000 		lds r24,192
 1757 065c 85FF      		sbrs r24,5
 1758 065e 00C0      		rjmp .L187
 1759               	.LM272:
 1760 0660 80E2      		ldi r24,lo8(32)
 1761 0662 8093 C600 		sts 198,r24
 1762               	.LBE274:
 1763               	.LBE273:
 1764               	.LBE272:
 1765               	.LBE271:
 1766               	.LM273:
 1767 0666 C801      		movw r24,r16
 1768 0668 B701      		movw r22,r14
 1769 066a 0E94 0000 		call UART_Tx_Number_Bin_NL
 1770               	/* epilogue start */
 1771               	.LM274:
 1772 066e 1F91      		pop r17
 1773 0670 0F91      		pop r16
 1774 0672 FF90      		pop r15
 1775 0674 EF90      		pop r14
 1776               	.LVL117:
 1777 0676 0895      		ret
 1778               	.LFE53:
 1780               	.global	UART_Tx_Parameter_Bin_SP
 1782               	UART_Tx_Parameter_Bin_SP:
 1783               	.LFB54:
 1784               	.LM275:
 1785               	.LVL118:
 1786 0678 EF92      		push r14
 1787 067a FF92      		push r15
 1788 067c 0F93      		push r16
 1789 067e 1F93      		push r17
 1790               	/* prologue: function */
 1791               	/* frame size = 0 */
 1792 0680 7A01      		movw r14,r20
 1793 0682 8B01      		movw r16,r22
 1794               	.LM276:
 1795 0684 0E94 0000 		call UART_Tx_Text
 1796               	.LVL119:
 1797               	.L191:
 1798               	.LBB275:
 1799               	.LBB276:
 1800               	.LBB277:
 1801               	.LBB278:
 1802               	.LM277:
 1803 0688 8091 C000 		lds r24,192
 1804 068c 85FF      		sbrs r24,5
 1805 068e 00C0      		rjmp .L191
 1806               	.LM278:
 1807 0690 80E2      		ldi r24,lo8(32)
 1808 0692 8093 C600 		sts 198,r24
 1809               	.LBE278:
 1810               	.LBE277:
 1811               	.LBE276:
 1812               	.LBE275:
 1813               	.LM279:
 1814 0696 C801      		movw r24,r16
 1815 0698 B701      		movw r22,r14
 1816 069a 0E94 0000 		call UART_Tx_Number_Bin_SP
 1817               	/* epilogue start */
 1818               	.LM280:
 1819 069e 1F91      		pop r17
 1820 06a0 0F91      		pop r16
 1821 06a2 FF90      		pop r15
 1822 06a4 EF90      		pop r14
 1823               	.LVL120:
 1824 06a6 0895      		ret
 1825               	.LFE54:
 1827               	.global	UART_Tx_Parameter_Bin_CM
 1829               	UART_Tx_Parameter_Bin_CM:
 1830               	.LFB55:
 1831               	.LM281:
 1832               	.LVL121:
 1833 06a8 EF92      		push r14
 1834 06aa FF92      		push r15
 1835 06ac 0F93      		push r16
 1836 06ae 1F93      		push r17
 1837               	/* prologue: function */
 1838               	/* frame size = 0 */
 1839 06b0 7A01      		movw r14,r20
 1840 06b2 8B01      		movw r16,r22
 1841               	.LM282:
 1842 06b4 0E94 0000 		call UART_Tx_Text
 1843               	.LVL122:
 1844               	.L195:
 1845               	.LBB279:
 1846               	.LBB280:
 1847               	.LBB281:
 1848               	.LBB282:
 1849               	.LM283:
 1850 06b8 8091 C000 		lds r24,192
 1851 06bc 85FF      		sbrs r24,5
 1852 06be 00C0      		rjmp .L195
 1853               	.LM284:
 1854 06c0 80E2      		ldi r24,lo8(32)
 1855 06c2 8093 C600 		sts 198,r24
 1856               	.LBE282:
 1857               	.LBE281:
 1858               	.LBE280:
 1859               	.LBE279:
 1860               	.LM285:
 1861 06c6 C801      		movw r24,r16
 1862 06c8 B701      		movw r22,r14
 1863 06ca 0E94 0000 		call UART_Tx_Number_Bin_CM
 1864               	/* epilogue start */
 1865               	.LM286:
 1866 06ce 1F91      		pop r17
 1867 06d0 0F91      		pop r16
 1868 06d2 FF90      		pop r15
 1869 06d4 EF90      		pop r14
 1870               	.LVL123:
 1871 06d6 0895      		ret
 1872               	.LFE55:
 1874               	.global	UART_Buf_Flush
 1876               	UART_Buf_Flush:
 1877               	.LFB56:
 1878               	.LM287:
 1879               	/* prologue: function */
 1880               	/* frame size = 0 */
 1881               	.LM288:
 1882 06d8 80E0      		ldi r24,lo8(0)
 1883 06da 90E0      		ldi r25,hi8(0)
 1884               	.L199:
 1885               	.LBB283:
 1886               	.LM289:
 1887 06dc FC01      		movw r30,r24
 1888 06de E050      		subi r30,lo8(-(UART))
 1889 06e0 F040      		sbci r31,hi8(-(UART))
 1890 06e2 1386      		std Z+11,__zero_reg__
 1891 06e4 0196      		adiw r24,1
 1892               	.LM290:
 1893 06e6 8034      		cpi r24,64
 1894 06e8 9105      		cpc r25,__zero_reg__
 1895 06ea 01F4      		brne .L199
 1896               	.LBE283:
 1897               	.LM291:
 1898 06ec 1092 0000 		sts (UART+77)+1,__zero_reg__
 1899 06f0 1092 0000 		sts UART+77,__zero_reg__
 1900               	/* epilogue start */
 1901               	.LM292:
 1902 06f4 0895      		ret
 1903               	.LFE56:
 1905               	.global	UART_Buf_Get
 1907               	UART_Buf_Get:
 1908               	.LFB57:
 1909               	.LM293:
 1910               	.LVL124:
 1911               	/* prologue: function */
 1912               	/* frame size = 0 */
 1913               	.LM294:
 1914 06f6 FC01      		movw r30,r24
 1915 06f8 E050      		subi r30,lo8(-(UART))
 1916 06fa F040      		sbci r31,hi8(-(UART))
 1917 06fc 8385      		ldd r24,Z+11
 1918               	.LVL125:
 1919               	/* epilogue start */
 1920               	.LM295:
 1921 06fe 0895      		ret
 1922               	.LFE57:
 1924               	.global	UART_Buf_Get_Index
 1926               	UART_Buf_Get_Index:
 1927               	.LFB58:
 1928               	.LM296:
 1929               	/* prologue: function */
 1930               	/* frame size = 0 */
 1931               	.LM297:
 1932 0700 8091 0000 		lds r24,UART+77
 1933 0704 9091 0000 		lds r25,(UART+77)+1
 1934               	/* epilogue start */
 1935               	.LM298:
 1936 0708 0895      		ret
 1937               	.LFE58:
 1939               	.global	UART_Data_Available
 1941               	UART_Data_Available:
 1942               	.LFB59:
 1943               	.LM299:
 1944               	/* prologue: function */
 1945               	/* frame size = 0 */
 1946               	.LM300:
 1947 070a 8091 0000 		lds r24,UART+86
 1948               	/* epilogue start */
 1949               	.LM301:
 1950 070e 0895      		ret
 1951               	.LFE59:
 1953               	.global	UART_Data_Len_Get
 1955               	UART_Data_Len_Get:
 1956               	.LFB60:
 1957               	.LM302:
 1958               	/* prologue: function */
 1959               	/* frame size = 0 */
 1960               	.LBB284:
 1961               	.LBB285:
 1962               	.LM303:
 1963 0710 8091 0000 		lds r24,UART+77
 1964 0714 9091 0000 		lds r25,(UART+77)+1
 1965               	/* epilogue start */
 1966               	.LBE285:
 1967               	.LBE284:
 1968               	.LM304:
 1969 0718 0895      		ret
 1970               	.LFE60:
 1972               	.global	UART_Data_Calculated_CRC_Get
 1974               	UART_Data_Calculated_CRC_Get:
 1975               	.LFB61:
 1976               	.LM305:
 1977               	/* prologue: function */
 1978               	/* frame size = 0 */
 1979               	.LM306:
 1980 071a 2091 0000 		lds r18,UART+81
 1981 071e 3091 0000 		lds r19,(UART+81)+1
 1982               	.LM307:
 1983 0722 C901      		movw r24,r18
 1984               	/* epilogue start */
 1985 0724 0895      		ret
 1986               	.LFE61:
 1988               	.global	UART_Data_Received_CRC_Get
 1990               	UART_Data_Received_CRC_Get:
 1991               	.LFB62:
 1992               	.LM308:
 1993               	/* prologue: function */
 1994               	/* frame size = 0 */
 1995               	.LM309:
 1996 0726 2091 0000 		lds r18,UART+83
 1997 072a 3091 0000 		lds r19,(UART+83)+1
 1998               	.LM310:
 1999 072e C901      		movw r24,r18
 2000               	/* epilogue start */
 2001 0730 0895      		ret
 2002               	.LFE62:
 2004               	.global	UART_Data_CRC_Status_Get
 2006               	UART_Data_CRC_Status_Get:
 2007               	.LFB63:
 2008               	.LM311:
 2009               	/* prologue: function */
 2010               	/* frame size = 0 */
 2011               	.LM312:
 2012 0732 8091 0000 		lds r24,UART+85
 2013               	/* epilogue start */
 2014               	.LM313:
 2015 0736 0895      		ret
 2016               	.LFE63:
 2018               	.global	UART_Data_Read_Complete_Status
 2020               	UART_Data_Read_Complete_Status:
 2021               	.LFB64:
 2022               	.LM314:
 2023               	/* prologue: function */
 2024               	/* frame size = 0 */
 2025               	.LM315:
 2026 0738 8091 0000 		lds r24,UART+87
 2027               	/* epilogue start */
 2028               	.LM316:
 2029 073c 0895      		ret
 2030               	.LFE64:
 2032               	.global	UART_Data_Clear_Available_Flag
 2034               	UART_Data_Clear_Available_Flag:
 2035               	.LFB65:
 2036               	.LM317:
 2037               	/* prologue: function */
 2038               	/* frame size = 0 */
 2039               	.LM318:
 2040 073e 1092 0000 		sts UART+86,__zero_reg__
 2041               	/* epilogue start */
 2042               	.LM319:
 2043 0742 0895      		ret
 2044               	.LFE65:
 2046               	.global	UART_Data_Clear_Read_Complete_Flag
 2048               	UART_Data_Clear_Read_Complete_Flag:
 2049               	.LFB66:
 2050               	.LM320:
 2051               	/* prologue: function */
 2052               	/* frame size = 0 */
 2053               	.LM321:
 2054 0744 80E0      		ldi r24,lo8(0)
 2055 0746 90E0      		ldi r25,hi8(0)
 2056               	.L221:
 2057               	.LBB286:
 2058               	.LBB287:
 2059               	.LBB288:
 2060               	.LM322:
 2061 0748 FC01      		movw r30,r24
 2062 074a E050      		subi r30,lo8(-(UART))
 2063 074c F040      		sbci r31,hi8(-(UART))
 2064 074e 1386      		std Z+11,__zero_reg__
 2065 0750 0196      		adiw r24,1
 2066               	.LM323:
 2067 0752 8034      		cpi r24,64
 2068 0754 9105      		cpc r25,__zero_reg__
 2069 0756 01F4      		brne .L221
 2070               	.LBE288:
 2071               	.LM324:
 2072 0758 1092 0000 		sts (UART+77)+1,__zero_reg__
 2073 075c 1092 0000 		sts UART+77,__zero_reg__
 2074               	.LBE287:
 2075               	.LBE286:
 2076               	.LM325:
 2077 0760 81E0      		ldi r24,lo8(1)
 2078 0762 8093 0000 		sts UART+87,r24
 2079               	/* epilogue start */
 2080               	.LM326:
 2081 0766 0895      		ret
 2082               	.LFE66:
 2084               	.global	UART_Data_Copy_Buf
 2086               	UART_Data_Copy_Buf:
 2087               	.LFB67:
 2088               	.LM327:
 2089               	.LVL126:
 2090               	/* prologue: function */
 2091               	/* frame size = 0 */
 2092 0768 AC01      		movw r20,r24
 2093               	.LM328:
 2094 076a 20E0      		ldi r18,lo8(0)
 2095 076c 30E0      		ldi r19,hi8(0)
 2096               	.LVL127:
 2097 076e 00C0      		rjmp .L225
 2098               	.LVL128:
 2099               	.L226:
 2100               	.LBB289:
 2101               	.LBB290:
 2102               	.LBB291:
 2103               	.LM329:
 2104 0770 F901      		movw r30,r18
 2105 0772 E050      		subi r30,lo8(-(UART))
 2106 0774 F040      		sbci r31,hi8(-(UART))
 2107 0776 8385      		ldd r24,Z+11
 2108               	.LBE291:
 2109               	.LBE290:
 2110               	.LM330:
 2111 0778 FA01      		movw r30,r20
 2112 077a E20F      		add r30,r18
 2113 077c F31F      		adc r31,r19
 2114 077e 8083      		st Z,r24
 2115               	.LM331:
 2116 0780 2F5F      		subi r18,lo8(-(1))
 2117 0782 3F4F      		sbci r19,hi8(-(1))
 2118               	.LVL129:
 2119               	.L225:
 2120               	.LBB292:
 2121               	.LBB293:
 2122               	.LBB294:
 2123               	.LBB295:
 2124               	.LM332:
 2125 0784 8091 0000 		lds r24,UART+77
 2126 0788 9091 0000 		lds r25,(UART+77)+1
 2127               	.LBE295:
 2128               	.LBE294:
 2129               	.LBE293:
 2130               	.LBE292:
 2131               	.LM333:
 2132 078c 90E0      		ldi r25,lo8(0)
 2133 078e 2817      		cp r18,r24
 2134 0790 3907      		cpc r19,r25
 2135 0792 00F0      		brlo .L226
 2136               	/* epilogue start */
 2137               	.LBE289:
 2138               	.LM334:
 2139 0794 0895      		ret
 2140               	.LFE67:
 2142               	.global	UART_Data_Print_Buf
 2144               	UART_Data_Print_Buf:
 2145               	.LFB68:
 2146               	.LM335:
 2147               	/* prologue: function */
 2148               	/* frame size = 0 */
 2149               	.LM336:
 2150 0796 20E0      		ldi r18,lo8(0)
 2151 0798 30E0      		ldi r19,hi8(0)
 2152               	.LVL130:
 2153 079a 00C0      		rjmp .L229
 2154               	.L231:
 2155               	.LBB296:
 2156               	.LBB297:
 2157               	.LBB298:
 2158               	.LM337:
 2159 079c F901      		movw r30,r18
 2160 079e E050      		subi r30,lo8(-(UART))
 2161 07a0 F040      		sbci r31,hi8(-(UART))
 2162 07a2 9385      		ldd r25,Z+11
 2163               	.L230:
 2164               	.LBE298:
 2165               	.LBE297:
 2166               	.LBB299:
 2167               	.LBB300:
 2168               	.LM338:
 2169 07a4 8091 C000 		lds r24,192
 2170 07a8 85FF      		sbrs r24,5
 2171 07aa 00C0      		rjmp .L230
 2172               	.LM339:
 2173 07ac 9093 C600 		sts 198,r25
 2174               	.LBE300:
 2175               	.LBE299:
 2176               	.LM340:
 2177 07b0 2F5F      		subi r18,lo8(-(1))
 2178 07b2 3F4F      		sbci r19,hi8(-(1))
 2179               	.L229:
 2180               	.LBB301:
 2181               	.LBB302:
 2182               	.LBB303:
 2183               	.LBB304:
 2184               	.LM341:
 2185 07b4 8091 0000 		lds r24,UART+77
 2186 07b8 9091 0000 		lds r25,(UART+77)+1
 2187               	.LBE304:
 2188               	.LBE303:
 2189               	.LBE302:
 2190               	.LBE301:
 2191               	.LM342:
 2192 07bc 90E0      		ldi r25,lo8(0)
 2193 07be 2817      		cp r18,r24
 2194 07c0 3907      		cpc r19,r25
 2195 07c2 00F0      		brlo .L231
 2196               	.LBE296:
 2197               	.LM343:
 2198 07c4 0E94 0000 		call UART_Tx_NL
 2199               	.LVL131:
 2200               	/* epilogue start */
 2201               	.LM344:
 2202 07c8 0895      		ret
 2203               	.LFE68:
 2205               	.global	UART_Error_Code_Get
 2207               	UART_Error_Code_Get:
 2208               	.LFB69:
 2209               	.LM345:
 2210               	/* prologue: function */
 2211               	/* frame size = 0 */
 2212               	.LM346:
 2213 07ca 8091 0000 		lds r24,UART
 2214               	/* epilogue start */
 2215               	.LM347:
 2216 07ce 0895      		ret
 2217               	.LFE69:
 2219               	.global	UART_Error_Code_Clear
 2221               	UART_Error_Code_Clear:
 2222               	.LFB70:
 2223               	.LM348:
 2224               	/* prologue: function */
 2225               	/* frame size = 0 */
 2226               	.LM349:
 2227 07d0 1092 0000 		sts UART,__zero_reg__
 2228               	/* epilogue start */
 2229               	.LM350:
 2230 07d4 0895      		ret
 2231               	.LFE70:
 2233               	.global	UART_ISR_Handler
 2235               	UART_ISR_Handler:
 2236               	.LFB71:
 2237               	.LM351:
 2238               	/* prologue: function */
 2239               	/* frame size = 0 */
 2240               	.LM352:
 2241 07d6 0E94 0000 		call UART_Rx_Byte
 2242 07da 8093 0000 		sts UART+10,r24
 2243               	.LM353:
 2244 07de 8091 0000 		lds r24,UART
 2245 07e2 8823      		tst r24
 2246 07e4 01F4      		brne .L239
 2247               	.LM354:
 2248 07e6 E091 0000 		lds r30,UART+77
 2249 07ea F091 0000 		lds r31,(UART+77)+1
 2250 07ee 8091 0000 		lds r24,UART+10
 2251 07f2 E050      		subi r30,lo8(-(UART))
 2252 07f4 F040      		sbci r31,hi8(-(UART))
 2253 07f6 8387      		std Z+11,r24
 2254               	.LM355:
 2255 07f8 8091 0000 		lds r24,UART+77
 2256 07fc 9091 0000 		lds r25,(UART+77)+1
 2257 0800 0196      		adiw r24,1
 2258 0802 9093 0000 		sts (UART+77)+1,r25
 2259 0806 8093 0000 		sts UART+77,r24
 2260               	.LM356:
 2261 080a 2091 0000 		lds r18,UART+77
 2262 080e 3091 0000 		lds r19,(UART+77)+1
 2263 0812 8091 0000 		lds r24,UART+75
 2264 0816 9091 0000 		lds r25,(UART+75)+1
 2265 081a 2817      		cp r18,r24
 2266 081c 3907      		cpc r19,r25
 2267 081e 00F0      		brlo .L240
 2268               	.LM357:
 2269 0820 1092 0000 		sts (UART+77)+1,__zero_reg__
 2270 0824 1092 0000 		sts UART+77,__zero_reg__
 2271 0828 00C0      		rjmp .L240
 2272               	.L239:
 2273               	.LM358:
 2274 082a 1092 0000 		sts UART+10,__zero_reg__
 2275               	.L240:
 2276               	.LBB305:
 2277               	.LBB306:
 2278               	.LM359:
 2279 082e 8091 0000 		lds r24,UART+80
 2280 0832 8093 B200 		sts 178,r24
 2281               	.LBE306:
 2282               	.LBE305:
 2283               	.LM360:
 2284 0836 8091 0000 		lds r24,UART+79
 2285 083a 8823      		tst r24
 2286 083c 01F4      		brne .L242
 2287               	.LBB307:
 2288               	.LBB308:
 2289               	.LM361:
 2290 083e 87E0      		ldi r24,lo8(7)
 2291 0840 8093 B100 		sts 177,r24
 2292               	.LBE308:
 2293               	.LBE307:
 2294               	.LM362:
 2295 0844 81E0      		ldi r24,lo8(1)
 2296 0846 8093 0000 		sts UART+79,r24
 2297               	.L242:
 2298 084a 0895      		ret
 2299               	.LFE71:
 2301               	.global	__vector_18
 2303               	__vector_18:
 2304               	.LFB16:
 2305               	.LM363:
 2306 084c 1F92      		push __zero_reg__
 2307 084e 0F92      		push r0
 2308 0850 0FB6      		in r0,__SREG__
 2309 0852 0F92      		push r0
 2310 0854 1124      		clr __zero_reg__
 2311 0856 2F93      		push r18
 2312 0858 3F93      		push r19
 2313 085a 4F93      		push r20
 2314 085c 5F93      		push r21
 2315 085e 6F93      		push r22
 2316 0860 7F93      		push r23
 2317 0862 8F93      		push r24
 2318 0864 9F93      		push r25
 2319 0866 AF93      		push r26
 2320 0868 BF93      		push r27
 2321 086a EF93      		push r30
 2322 086c FF93      		push r31
 2323               	/* prologue: Signal */
 2324               	/* frame size = 0 */
 2325               	.LM364:
 2326 086e 0E94 0000 		call UART_ISR_Handler
 2327               	/* epilogue start */
 2328               	.LM365:
 2329 0872 FF91      		pop r31
 2330 0874 EF91      		pop r30
 2331 0876 BF91      		pop r27
 2332 0878 AF91      		pop r26
 2333 087a 9F91      		pop r25
 2334 087c 8F91      		pop r24
 2335 087e 7F91      		pop r23
 2336 0880 6F91      		pop r22
 2337 0882 5F91      		pop r21
 2338 0884 4F91      		pop r20
 2339 0886 3F91      		pop r19
 2340 0888 2F91      		pop r18
 2341 088a 0F90      		pop r0
 2342 088c 0FBE      		out __SREG__,r0
 2343 088e 0F90      		pop r0
 2344 0890 1F90      		pop __zero_reg__
 2345 0892 1895      		reti
 2346               	.LFE16:
 2348               	.global	UART_CRC_Calculate_Byte
 2350               	UART_CRC_Calculate_Byte:
 2351               	.LFB73:
 2352               	.LM366:
 2353               	.LVL132:
 2354               	/* prologue: function */
 2355               	/* frame size = 0 */
 2356               	.LM367:
 2357 0894 362F      		mov r19,r22
 2358               	.LVL133:
 2359 0896 20E0      		ldi r18,lo8(0)
 2360               	.LVL134:
 2361 0898 2827      		eor r18,r24
 2362 089a 3927      		eor r19,r25
 2363               	.LVL135:
 2364 089c 40E0      		ldi r20,lo8(0)
 2365               	.LVL136:
 2366               	.LBB309:
 2367               	.LM368:
 2368 089e 61E2      		ldi r22,lo8(4129)
 2369 08a0 70E1      		ldi r23,hi8(4129)
 2370               	.LVL137:
 2371               	.L248:
 2372 08a2 C901      		movw r24,r18
 2373 08a4 880F      		lsl r24
 2374 08a6 991F      		rol r25
 2375               	.LVL138:
 2376               	.LM369:
 2377 08a8 37FF      		sbrs r19,7
 2378 08aa 00C0      		rjmp .L246
 2379               	.LVL139:
 2380               	.LM370:
 2381 08ac 9C01      		movw r18,r24
 2382 08ae 2627      		eor r18,r22
 2383 08b0 3727      		eor r19,r23
 2384 08b2 00C0      		rjmp .L247
 2385               	.LVL140:
 2386               	.L246:
 2387               	.LM371:
 2388 08b4 9C01      		movw r18,r24
 2389               	.L247:
 2390               	.LM372:
 2391 08b6 4F5F      		subi r20,lo8(-(1))
 2392 08b8 4830      		cpi r20,lo8(8)
 2393 08ba 01F4      		brne .L248
 2394               	.LBE309:
 2395               	.LM373:
 2396 08bc C901      		movw r24,r18
 2397               	.LVL141:
 2398               	/* epilogue start */
 2399 08be 0895      		ret
 2400               	.LFE73:
 2402               	.global	UART_CRC_Calculate_Block
 2404               	UART_CRC_Calculate_Block:
 2405               	.LFB74:
 2406               	.LM374:
 2407               	.LVL142:
 2408 08c0 0F93      		push r16
 2409 08c2 1F93      		push r17
 2410 08c4 CF93      		push r28
 2411 08c6 DF93      		push r29
 2412               	/* prologue: function */
 2413               	/* frame size = 0 */
 2414 08c8 062F      		mov r16,r22
 2415               	.LM375:
 2416 08ca EC01      		movw r28,r24
 2417               	.LVL143:
 2418 08cc 20E0      		ldi r18,lo8(0)
 2419 08ce 30E0      		ldi r19,hi8(0)
 2420               	.LVL144:
 2421 08d0 10E0      		ldi r17,lo8(0)
 2422               	.LVL145:
 2423 08d2 00C0      		rjmp .L252
 2424               	.LVL146:
 2425               	.L253:
 2426               	.LBB310:
 2427               	.LM376:
 2428 08d4 C901      		movw r24,r18
 2429 08d6 6991      		ld r22,Y+
 2430 08d8 0E94 0000 		call UART_CRC_Calculate_Byte
 2431               	.LVL147:
 2432 08dc 9C01      		movw r18,r24
 2433               	.LVL148:
 2434               	.LM377:
 2435 08de 1F5F      		subi r17,lo8(-(1))
 2436               	.LVL149:
 2437               	.L252:
 2438 08e0 1017      		cp r17,r16
 2439 08e2 00F0      		brlo .L253
 2440               	.LBE310:
 2441               	.LM378:
 2442 08e4 C901      		movw r24,r18
 2443               	.LVL150:
 2444               	/* epilogue start */
 2445 08e6 DF91      		pop r29
 2446 08e8 CF91      		pop r28
 2447 08ea 1F91      		pop r17
 2448               	.LVL151:
 2449 08ec 0F91      		pop r16
 2450               	.LVL152:
 2451 08ee 0895      		ret
 2452               	.LFE74:
 2454               	.global	UART_RX_Packet_CRC_Check
 2456               	UART_RX_Packet_CRC_Check:
 2457               	.LFB75:
 2458               	.LM379:
 2459               	/* prologue: function */
 2460               	/* frame size = 0 */
 2461               	.LBB311:
 2462               	.LBB312:
 2463               	.LBB313:
 2464               	.LBB314:
 2465               	.LM380:
 2466 08f0 6091 0000 		lds r22,UART+77
 2467 08f4 7091 0000 		lds r23,(UART+77)+1
 2468               	.LBE314:
 2469               	.LBE313:
 2470               	.LBE312:
 2471               	.LBE311:
 2472               	.LM381:
 2473 08f8 6250      		subi r22,lo8(-(-2))
 2474 08fa 80E0      		ldi r24,lo8(UART+11)
 2475 08fc 90E0      		ldi r25,hi8(UART+11)
 2476 08fe 0E94 0000 		call UART_CRC_Calculate_Block
 2477               	.LBB315:
 2478               	.LBB316:
 2479               	.LBB317:
 2480               	.LBB318:
 2481               	.LM382:
 2482 0902 E091 0000 		lds r30,UART+77
 2483 0906 F091 0000 		lds r31,(UART+77)+1
 2484               	.LBE318:
 2485               	.LBE317:
 2486               	.LBE316:
 2487               	.LBE315:
 2488               	.LM383:
 2489 090a F0E0      		ldi r31,lo8(0)
 2490               	.LBB319:
 2491               	.LBB320:
 2492               	.LM384:
 2493 090c E050      		subi r30,lo8(-(UART-2))
 2494 090e F040      		sbci r31,hi8(-(UART-2))
 2495 0910 2385      		ldd r18,Z+11
 2496               	.LBE320:
 2497               	.LBE319:
 2498               	.LM385:
 2499 0912 522F      		mov r21,r18
 2500               	.LVL153:
 2501 0914 40E0      		ldi r20,lo8(0)
 2502               	.LVL154:
 2503               	.LBB321:
 2504               	.LBB322:
 2505               	.LBB323:
 2506               	.LBB324:
 2507               	.LM386:
 2508 0916 E091 0000 		lds r30,UART+77
 2509 091a F091 0000 		lds r31,(UART+77)+1
 2510               	.LBE324:
 2511               	.LBE323:
 2512               	.LBE322:
 2513               	.LBE321:
 2514               	.LM387:
 2515 091e F0E0      		ldi r31,lo8(0)
 2516               	.LBB325:
 2517               	.LBB326:
 2518               	.LM388:
 2519 0920 E050      		subi r30,lo8(-(UART-1))
 2520 0922 F040      		sbci r31,hi8(-(UART-1))
 2521 0924 2385      		ldd r18,Z+11
 2522               	.LBE326:
 2523               	.LBE325:
 2524               	.LM389:
 2525 0926 30E0      		ldi r19,lo8(0)
 2526 0928 422B      		or r20,r18
 2527 092a 532B      		or r21,r19
 2528               	.LVL155:
 2529               	.LM390:
 2530 092c 9093 0000 		sts (UART+81)+1,r25
 2531 0930 8093 0000 		sts UART+81,r24
 2532               	.LVL156:
 2533               	.LM391:
 2534 0934 5093 0000 		sts (UART+83)+1,r21
 2535 0938 4093 0000 		sts UART+83,r20
 2536               	.LM392:
 2537 093c 2091 0000 		lds r18,UART+81
 2538 0940 3091 0000 		lds r19,(UART+81)+1
 2539 0944 8091 0000 		lds r24,UART+83
 2540 0948 9091 0000 		lds r25,(UART+83)+1
 2541               	.LVL157:
 2542 094c 2817      		cp r18,r24
 2543 094e 3907      		cpc r19,r25
 2544 0950 01F4      		brne .L256
 2545               	.LM393:
 2546 0952 81E0      		ldi r24,lo8(1)
 2547 0954 8093 0000 		sts UART+85,r24
 2548 0958 0895      		ret
 2549               	.L256:
 2550               	.LM394:
 2551 095a 1092 0000 		sts UART+85,__zero_reg__
 2552 095e 0895      		ret
 2553               	.LFE75:
 2555               	.global	UART_Timer_ISR_Handler
 2557               	UART_Timer_ISR_Handler:
 2558               	.LFB72:
 2559               	.LM395:
 2560               	/* prologue: function */
 2561               	/* frame size = 0 */
 2562               	.LM396:
 2563 0960 8091 0000 		lds r24,UART+79
 2564 0964 8130      		cpi r24,lo8(1)
 2565 0966 01F4      		brne .L260
 2566               	.LBB327:
 2567               	.LBB328:
 2568               	.LM397:
 2569 0968 1092 B100 		sts 177,__zero_reg__
 2570               	.LBE328:
 2571               	.LBE327:
 2572               	.LM398:
 2573 096c 1092 0000 		sts UART+79,__zero_reg__
 2574               	.L260:
 2575               	.LBB329:
 2576               	.LBB330:
 2577               	.LM399:
 2578 0970 8091 0000 		lds r24,UART+77
 2579 0974 9091 0000 		lds r25,(UART+77)+1
 2580               	.LBE330:
 2581               	.LBE329:
 2582               	.LM400:
 2583 0978 8823      		tst r24
 2584 097a 01F0      		breq .L263
 2585               	.LM401:
 2586 097c 8091 0000 		lds r24,UART+87
 2587 0980 8823      		tst r24
 2588 0982 01F4      		brne .L262
 2589               	.LM402:
 2590 0984 80E1      		ldi r24,lo8(16)
 2591 0986 8093 0000 		sts UART,r24
 2592               	.L262:
 2593               	.LM403:
 2594 098a 0E94 0000 		call UART_RX_Packet_CRC_Check
 2595               	.LM404:
 2596 098e 81E0      		ldi r24,lo8(1)
 2597 0990 8093 0000 		sts UART+86,r24
 2598               	.LM405:
 2599 0994 1092 0000 		sts UART+87,__zero_reg__
 2600               	.L263:
 2601 0998 0895      		ret
 2602               	.LFE72:
 2604               	.global	__vector_9
 2606               	__vector_9:
 2607               	.LFB24:
 2608               	.LM406:
 2609 099a 1F92      		push __zero_reg__
 2610 099c 0F92      		push r0
 2611 099e 0FB6      		in r0,__SREG__
 2612 09a0 0F92      		push r0
 2613 09a2 1124      		clr __zero_reg__
 2614 09a4 2F93      		push r18
 2615 09a6 3F93      		push r19
 2616 09a8 4F93      		push r20
 2617 09aa 5F93      		push r21
 2618 09ac 6F93      		push r22
 2619 09ae 7F93      		push r23
 2620 09b0 8F93      		push r24
 2621 09b2 9F93      		push r25
 2622 09b4 AF93      		push r26
 2623 09b6 BF93      		push r27
 2624 09b8 EF93      		push r30
 2625 09ba FF93      		push r31
 2626               	/* prologue: Signal */
 2627               	/* frame size = 0 */
 2628               	.LM407:
 2629 09bc 0E94 0000 		call UART_Timer_ISR_Handler
 2630               	/* epilogue start */
 2631               	.LM408:
 2632 09c0 FF91      		pop r31
 2633 09c2 EF91      		pop r30
 2634 09c4 BF91      		pop r27
 2635 09c6 AF91      		pop r26
 2636 09c8 9F91      		pop r25
 2637 09ca 8F91      		pop r24
 2638 09cc 7F91      		pop r23
 2639 09ce 6F91      		pop r22
 2640 09d0 5F91      		pop r21
 2641 09d2 4F91      		pop r20
 2642 09d4 3F91      		pop r19
 2643 09d6 2F91      		pop r18
 2644 09d8 0F90      		pop r0
 2645 09da 0FBE      		out __SREG__,r0
 2646 09dc 0F90      		pop r0
 2647 09de 1F90      		pop __zero_reg__
 2648 09e0 1895      		reti
 2649               	.LFE24:
 2651               	.global	UART_RX_Packet_Read_Complete
 2653               	UART_RX_Packet_Read_Complete:
 2654               	.LFB76:
 2655               	.LM409:
 2656               	/* prologue: function */
 2657               	/* frame size = 0 */
 2658               	.LM410:
 2659 09e2 80E0      		ldi r24,lo8(0)
 2660 09e4 90E0      		ldi r25,hi8(0)
 2661               	.L267:
 2662               	.LBB331:
 2663               	.LBB332:
 2664               	.LBB333:
 2665               	.LM411:
 2666 09e6 FC01      		movw r30,r24
 2667 09e8 E050      		subi r30,lo8(-(UART))
 2668 09ea F040      		sbci r31,hi8(-(UART))
 2669 09ec 1386      		std Z+11,__zero_reg__
 2670 09ee 0196      		adiw r24,1
 2671               	.LM412:
 2672 09f0 8034      		cpi r24,64
 2673 09f2 9105      		cpc r25,__zero_reg__
 2674 09f4 01F4      		brne .L267
 2675               	.LBE333:
 2676               	.LM413:
 2677 09f6 1092 0000 		sts (UART+77)+1,__zero_reg__
 2678 09fa 1092 0000 		sts UART+77,__zero_reg__
 2679               	.LBE332:
 2680               	.LBE331:
 2681               	.LBB334:
 2682               	.LBB335:
 2683               	.LM414:
 2684 09fe 1092 0000 		sts UART+86,__zero_reg__
 2685               	.LBE335:
 2686               	.LBE334:
 2687               	.LM415:
 2688 0a02 0E94 0000 		call UART_Data_Clear_Read_Complete_Flag
 2689               	/* epilogue start */
 2690               	.LM416:
 2691 0a06 0895      		ret
 2692               	.LFE76:
 2694               	.global	UART_Init
 2696               	UART_Init:
 2697               	.LFB77:
 2698               	.LM417:
 2699               	.LVL158:
 2700 0a08 EF92      		push r14
 2701 0a0a FF92      		push r15
 2702 0a0c 0F93      		push r16
 2703 0a0e 1F93      		push r17
 2704               	/* prologue: function */
 2705               	/* frame size = 0 */
 2706 0a10 7B01      		movw r14,r22
 2707 0a12 8C01      		movw r16,r24
 2708               	.LM418:
 2709 0a14 0E94 0000 		call UART_Struct_Init
 2710               	.LVL159:
 2711               	.LBB336:
 2712               	.LBB337:
 2713               	.LM419:
 2714 0a18 1092 0000 		sts (UART+81)+1,__zero_reg__
 2715 0a1c 1092 0000 		sts UART+81,__zero_reg__
 2716               	.LM420:
 2717 0a20 1092 0000 		sts (UART+83)+1,__zero_reg__
 2718 0a24 1092 0000 		sts UART+83,__zero_reg__
 2719               	.LM421:
 2720 0a28 1092 0000 		sts UART+85,__zero_reg__
 2721               	.LM422:
 2722 0a2c 1092 0000 		sts UART+86,__zero_reg__
 2723               	.LM423:
 2724 0a30 81E0      		ldi r24,lo8(1)
 2725 0a32 8093 0000 		sts UART+87,r24
 2726               	.LBE337:
 2727               	.LBE336:
 2728               	.LBB338:
 2729               	.LBB339:
 2730               	.LM424:
 2731 0a36 1092 0000 		sts UART+79,__zero_reg__
 2732               	.LM425:
 2733 0a3a 1092 0000 		sts UART+80,__zero_reg__
 2734               	.LBE339:
 2735               	.LBE338:
 2736               	.LM426:
 2737 0a3e C801      		movw r24,r16
 2738 0a40 B701      		movw r22,r14
 2739 0a42 0E94 0000 		call UART_Config_BAUD_Rate
 2740               	.LBB340:
 2741               	.LBB341:
 2742               	.LM427:
 2743 0a46 8091 C100 		lds r24,193
 2744 0a4a 8860      		ori r24,lo8(8)
 2745 0a4c 8093 C100 		sts 193,r24
 2746               	.LM428:
 2747 0a50 96E0      		ldi r25,lo8(6)
 2748 0a52 9093 C200 		sts 194,r25
 2749               	.LBE341:
 2750               	.LBE340:
 2751               	.LBB342:
 2752               	.LBB343:
 2753               	.LM429:
 2754 0a56 8091 C100 		lds r24,193
 2755 0a5a 8061      		ori r24,lo8(16)
 2756 0a5c 8093 C100 		sts 193,r24
 2757               	.LM430:
 2758 0a60 9093 C200 		sts 194,r25
 2759               	.LBE343:
 2760               	.LBE342:
 2761               	.LBB344:
 2762               	.LBB345:
 2763               	.LM431:
 2764 0a64 8091 C100 		lds r24,193
 2765 0a68 8068      		ori r24,lo8(-128)
 2766 0a6a 8093 C100 		sts 193,r24
 2767               	.LM432:
 2768               	/* #APP */
 2769               	 ;  150 "uart.c" 1
 2770 0a6e 7894      		sei
 2771               	 ;  0 "" 2
 2772               	/* #NOAPP */
 2773               	.LBE345:
 2774               	.LBE344:
 2775               	.LM433:
 2776 0a70 0E94 0000 		call UART_Timer_Init
 2777 0a74 80E0      		ldi r24,lo8(0)
 2778 0a76 90E0      		ldi r25,hi8(0)
 2779               	.L271:
 2780               	.LBB346:
 2781               	.LBB347:
 2782               	.LBB348:
 2783               	.LM434:
 2784 0a78 FC01      		movw r30,r24
 2785 0a7a E050      		subi r30,lo8(-(UART))
 2786 0a7c F040      		sbci r31,hi8(-(UART))
 2787 0a7e 1386      		std Z+11,__zero_reg__
 2788 0a80 0196      		adiw r24,1
 2789               	.LM435:
 2790 0a82 8034      		cpi r24,64
 2791 0a84 9105      		cpc r25,__zero_reg__
 2792 0a86 01F4      		brne .L271
 2793               	.LBE348:
 2794               	.LM436:
 2795 0a88 1092 0000 		sts (UART+77)+1,__zero_reg__
 2796 0a8c 1092 0000 		sts UART+77,__zero_reg__
 2797               	/* epilogue start */
 2798               	.LBE347:
 2799               	.LBE346:
 2800               	.LM437:
 2801 0a90 1F91      		pop r17
 2802 0a92 0F91      		pop r16
 2803 0a94 FF90      		pop r15
 2804 0a96 EF90      		pop r14
 2805               	.LVL160:
 2806 0a98 0895      		ret
 2807               	.LFE77:
 2809               		.lcomm UART,88
 3402               	.Letext0:
DEFINED SYMBOLS
                            *ABS*:00000000 uart.c
C:\Users\WALTON\AppData\Local\Temp/ccHMo85a.s:2      *ABS*:0000003f __SREG__
C:\Users\WALTON\AppData\Local\Temp/ccHMo85a.s:3      *ABS*:0000003e __SP_H__
C:\Users\WALTON\AppData\Local\Temp/ccHMo85a.s:4      *ABS*:0000003d __SP_L__
C:\Users\WALTON\AppData\Local\Temp/ccHMo85a.s:5      *ABS*:00000034 __CCP__
C:\Users\WALTON\AppData\Local\Temp/ccHMo85a.s:6      *ABS*:00000000 __tmp_reg__
C:\Users\WALTON\AppData\Local\Temp/ccHMo85a.s:7      *ABS*:00000001 __zero_reg__
C:\Users\WALTON\AppData\Local\Temp/ccHMo85a.s:18     .text:00000000 UART_Struct_Init
                             .bss:00000000 UART
C:\Users\WALTON\AppData\Local\Temp/ccHMo85a.s:80     .text:0000004a UART_RX_Packet_Struct_Init
C:\Users\WALTON\AppData\Local\Temp/ccHMo85a.s:105    .text:0000006a UART_Config_GPIO
C:\Users\WALTON\AppData\Local\Temp/ccHMo85a.s:117    .text:0000006c UART_Config_Clock
C:\Users\WALTON\AppData\Local\Temp/ccHMo85a.s:129    .text:0000006e UART_Config_BAUD_Rate
C:\Users\WALTON\AppData\Local\Temp/ccHMo85a.s:171    .text:000000a2 UART_Config_Tx
C:\Users\WALTON\AppData\Local\Temp/ccHMo85a.s:192    .text:000000b4 UART_Config_Rx
C:\Users\WALTON\AppData\Local\Temp/ccHMo85a.s:213    .text:000000c6 UART_Config_Rx_Interrupt
C:\Users\WALTON\AppData\Local\Temp/ccHMo85a.s:237    .text:000000d4 UART_Tx_Byte
C:\Users\WALTON\AppData\Local\Temp/ccHMo85a.s:259    .text:000000e4 UART_Rx_Byte
C:\Users\WALTON\AppData\Local\Temp/ccHMo85a.s:320    .text:0000012c UART_Timer_Struct_Init
C:\Users\WALTON\AppData\Local\Temp/ccHMo85a.s:336    .text:00000136 UART_Timer_Init
C:\Users\WALTON\AppData\Local\Temp/ccHMo85a.s:378    .text:00000164 UART_Timer_Enable
C:\Users\WALTON\AppData\Local\Temp/ccHMo85a.s:393    .text:0000016c UART_Timer_Disable
C:\Users\WALTON\AppData\Local\Temp/ccHMo85a.s:407    .text:00000172 UART_Timer_Get_Status
C:\Users\WALTON\AppData\Local\Temp/ccHMo85a.s:421    .text:00000178 UART_Timer_Get_Val
C:\Users\WALTON\AppData\Local\Temp/ccHMo85a.s:436    .text:00000180 UART_Timer_Value_Reset
C:\Users\WALTON\AppData\Local\Temp/ccHMo85a.s:451    .text:0000018a UART_Tx_Buf
C:\Users\WALTON\AppData\Local\Temp/ccHMo85a.s:501    .text:000001b4 UART_Tx_NL
C:\Users\WALTON\AppData\Local\Temp/ccHMo85a.s:537    .text:000001d2 UART_Tx_SP
C:\Users\WALTON\AppData\Local\Temp/ccHMo85a.s:561    .text:000001e2 UART_Tx_CM
C:\Users\WALTON\AppData\Local\Temp/ccHMo85a.s:585    .text:000001f2 UART_Tx_Text
C:\Users\WALTON\AppData\Local\Temp/ccHMo85a.s:626    .text:00000214 UART_Tx_Text_NL
C:\Users\WALTON\AppData\Local\Temp/ccHMo85a.s:644    .text:0000021e UART_Tx_Text_SP
C:\Users\WALTON\AppData\Local\Temp/ccHMo85a.s:676    .text:00000232 UART_Tx_Text_CM
C:\Users\WALTON\AppData\Local\Temp/ccHMo85a.s:708    .text:00000246 UART_Determine_Digit_Numbers
C:\Users\WALTON\AppData\Local\Temp/ccHMo85a.s:798    .text:000002c4 UART_Tx_Number_Digits
C:\Users\WALTON\AppData\Local\Temp/ccHMo85a.s:854    .text:000002ee UART_Tx_Number
C:\Users\WALTON\AppData\Local\Temp/ccHMo85a.s:901    .text:00000320 UART_Tx_Number_Hex
C:\Users\WALTON\AppData\Local\Temp/ccHMo85a.s:1052   .text:000003d2 UART_Tx_Number_Bin
C:\Users\WALTON\AppData\Local\Temp/ccHMo85a.s:1207   .text:00000492 UART_Tx_Number_NL
C:\Users\WALTON\AppData\Local\Temp/ccHMo85a.s:1225   .text:0000049c UART_Tx_Number_SP
C:\Users\WALTON\AppData\Local\Temp/ccHMo85a.s:1257   .text:000004b0 UART_Tx_Number_CM
C:\Users\WALTON\AppData\Local\Temp/ccHMo85a.s:1289   .text:000004c4 UART_Tx_Number_Hex_NL
C:\Users\WALTON\AppData\Local\Temp/ccHMo85a.s:1307   .text:000004ce UART_Tx_Number_Hex_SP
C:\Users\WALTON\AppData\Local\Temp/ccHMo85a.s:1339   .text:000004e2 UART_Tx_Number_Hex_CM
C:\Users\WALTON\AppData\Local\Temp/ccHMo85a.s:1371   .text:000004f6 UART_Tx_Number_Bin_NL
C:\Users\WALTON\AppData\Local\Temp/ccHMo85a.s:1389   .text:00000500 UART_Tx_Number_Bin_SP
C:\Users\WALTON\AppData\Local\Temp/ccHMo85a.s:1421   .text:00000514 UART_Tx_Number_Bin_CM
C:\Users\WALTON\AppData\Local\Temp/ccHMo85a.s:1453   .text:00000528 UART_Tx_Parameter_NL
C:\Users\WALTON\AppData\Local\Temp/ccHMo85a.s:1500   .text:00000558 UART_Tx_Parameter_SP
C:\Users\WALTON\AppData\Local\Temp/ccHMo85a.s:1547   .text:00000588 UART_Tx_Parameter_CM
C:\Users\WALTON\AppData\Local\Temp/ccHMo85a.s:1594   .text:000005b8 UART_Tx_Parameter_Hex_NL
C:\Users\WALTON\AppData\Local\Temp/ccHMo85a.s:1641   .text:000005e8 UART_Tx_Parameter_Hex_SP
C:\Users\WALTON\AppData\Local\Temp/ccHMo85a.s:1688   .text:00000618 UART_Tx_Parameter_Hex_CM
C:\Users\WALTON\AppData\Local\Temp/ccHMo85a.s:1735   .text:00000648 UART_Tx_Parameter_Bin_NL
C:\Users\WALTON\AppData\Local\Temp/ccHMo85a.s:1782   .text:00000678 UART_Tx_Parameter_Bin_SP
C:\Users\WALTON\AppData\Local\Temp/ccHMo85a.s:1829   .text:000006a8 UART_Tx_Parameter_Bin_CM
C:\Users\WALTON\AppData\Local\Temp/ccHMo85a.s:1876   .text:000006d8 UART_Buf_Flush
C:\Users\WALTON\AppData\Local\Temp/ccHMo85a.s:1907   .text:000006f6 UART_Buf_Get
C:\Users\WALTON\AppData\Local\Temp/ccHMo85a.s:1926   .text:00000700 UART_Buf_Get_Index
C:\Users\WALTON\AppData\Local\Temp/ccHMo85a.s:1941   .text:0000070a UART_Data_Available
C:\Users\WALTON\AppData\Local\Temp/ccHMo85a.s:1955   .text:00000710 UART_Data_Len_Get
C:\Users\WALTON\AppData\Local\Temp/ccHMo85a.s:1974   .text:0000071a UART_Data_Calculated_CRC_Get
C:\Users\WALTON\AppData\Local\Temp/ccHMo85a.s:1990   .text:00000726 UART_Data_Received_CRC_Get
C:\Users\WALTON\AppData\Local\Temp/ccHMo85a.s:2006   .text:00000732 UART_Data_CRC_Status_Get
C:\Users\WALTON\AppData\Local\Temp/ccHMo85a.s:2020   .text:00000738 UART_Data_Read_Complete_Status
C:\Users\WALTON\AppData\Local\Temp/ccHMo85a.s:2034   .text:0000073e UART_Data_Clear_Available_Flag
C:\Users\WALTON\AppData\Local\Temp/ccHMo85a.s:2048   .text:00000744 UART_Data_Clear_Read_Complete_Flag
C:\Users\WALTON\AppData\Local\Temp/ccHMo85a.s:2086   .text:00000768 UART_Data_Copy_Buf
C:\Users\WALTON\AppData\Local\Temp/ccHMo85a.s:2144   .text:00000796 UART_Data_Print_Buf
C:\Users\WALTON\AppData\Local\Temp/ccHMo85a.s:2207   .text:000007ca UART_Error_Code_Get
C:\Users\WALTON\AppData\Local\Temp/ccHMo85a.s:2221   .text:000007d0 UART_Error_Code_Clear
C:\Users\WALTON\AppData\Local\Temp/ccHMo85a.s:2235   .text:000007d6 UART_ISR_Handler
C:\Users\WALTON\AppData\Local\Temp/ccHMo85a.s:2303   .text:0000084c __vector_18
C:\Users\WALTON\AppData\Local\Temp/ccHMo85a.s:2350   .text:00000894 UART_CRC_Calculate_Byte
C:\Users\WALTON\AppData\Local\Temp/ccHMo85a.s:2404   .text:000008c0 UART_CRC_Calculate_Block
C:\Users\WALTON\AppData\Local\Temp/ccHMo85a.s:2456   .text:000008f0 UART_RX_Packet_CRC_Check
C:\Users\WALTON\AppData\Local\Temp/ccHMo85a.s:2557   .text:00000960 UART_Timer_ISR_Handler
C:\Users\WALTON\AppData\Local\Temp/ccHMo85a.s:2606   .text:0000099a __vector_9
C:\Users\WALTON\AppData\Local\Temp/ccHMo85a.s:2653   .text:000009e2 UART_RX_Packet_Read_Complete
C:\Users\WALTON\AppData\Local\Temp/ccHMo85a.s:2696   .text:00000a08 UART_Init

UNDEFINED SYMBOLS
__udivmodsi4
__do_clear_bss
