   1               		.file	"uart.c"
   2               	__SREG__ = 0x3f
   3               	__SP_H__ = 0x3e
   4               	__SP_L__ = 0x3d
   5               	__CCP__  = 0x34
   6               	__tmp_reg__ = 0
   7               	__zero_reg__ = 1
  15               	.Ltext0:
  16               	.global	UART_Config_GPIO
  18               	UART_Config_GPIO:
  19               	.LFB6:
  20               	.LM1:
  21               	/* prologue: function */
  22               	/* frame size = 0 */
  23               	/* epilogue start */
  24               	.LM2:
  25 0000 0895      		ret
  26               	.LFE6:
  28               	.global	UART_Config_Clock
  30               	UART_Config_Clock:
  31               	.LFB7:
  32               	.LM3:
  33               	/* prologue: function */
  34               	/* frame size = 0 */
  35               	/* epilogue start */
  36               	.LM4:
  37 0002 0895      		ret
  38               	.LFE7:
  40               	.global	UART_Config_BAUD_Rate
  42               	UART_Config_BAUD_Rate:
  43               	.LFB8:
  44               	.LM5:
  45               	.LVL0:
  46               	/* prologue: function */
  47               	/* frame size = 0 */
  48 0004 9B01      		movw r18,r22
  49 0006 AC01      		movw r20,r24
  50               	.LM6:
  51 0008 60E4      		ldi r22,lo8(1000000)
  52 000a 72E4      		ldi r23,hi8(1000000)
  53 000c 8FE0      		ldi r24,hlo8(1000000)
  54 000e 90E0      		ldi r25,hhi8(1000000)
  55               	.LVL1:
  56 0010 0E94 0000 		call __udivmodsi4
  57               	.LVL2:
  58 0014 2150      		subi r18,lo8(-(-1))
  59 0016 3040      		sbci r19,hi8(-(-1))
  60 0018 4040      		sbci r20,hlo8(-(-1))
  61 001a 5040      		sbci r21,hhi8(-(-1))
  62               	.LVL3:
  63               	.LM7:
  64 001c E0EC      		ldi r30,lo8(192)
  65 001e F0E0      		ldi r31,hi8(192)
  66 0020 8081      		ld r24,Z
  67 0022 8260      		ori r24,lo8(2)
  68 0024 8083      		st Z,r24
  69               	.LM8:
  70 0026 BB27      		clr r27
  71 0028 A52F      		mov r26,r21
  72 002a 942F      		mov r25,r20
  73 002c 832F      		mov r24,r19
  74 002e 8093 C500 		sts 197,r24
  75               	.LM9:
  76 0032 2093 C400 		sts 196,r18
  77               	/* epilogue start */
  78               	.LM10:
  79 0036 0895      		ret
  80               	.LFE8:
  82               	.global	UART_Config_Transmitter
  84               	UART_Config_Transmitter:
  85               	.LFB9:
  86               	.LM11:
  87               	/* prologue: function */
  88               	/* frame size = 0 */
  89               	.LM12:
  90 0038 E1EC      		ldi r30,lo8(193)
  91 003a F0E0      		ldi r31,hi8(193)
  92 003c 8081      		ld r24,Z
  93 003e 8860      		ori r24,lo8(8)
  94 0040 8083      		st Z,r24
  95               	.LM13:
  96 0042 86E0      		ldi r24,lo8(6)
  97 0044 8093 C200 		sts 194,r24
  98               	/* epilogue start */
  99               	.LM14:
 100 0048 0895      		ret
 101               	.LFE9:
 103               	.global	UART_Config_Receiver
 105               	UART_Config_Receiver:
 106               	.LFB10:
 107               	.LM15:
 108               	/* prologue: function */
 109               	/* frame size = 0 */
 110               	.LM16:
 111 004a E1EC      		ldi r30,lo8(193)
 112 004c F0E0      		ldi r31,hi8(193)
 113 004e 8081      		ld r24,Z
 114 0050 8061      		ori r24,lo8(16)
 115 0052 8083      		st Z,r24
 116               	.LM17:
 117 0054 86E0      		ldi r24,lo8(6)
 118 0056 8093 C200 		sts 194,r24
 119               	/* epilogue start */
 120               	.LM18:
 121 005a 0895      		ret
 122               	.LFE10:
 124               	.global	UART_Config_Receiver_Interrupt
 126               	UART_Config_Receiver_Interrupt:
 127               	.LFB11:
 128               	.LM19:
 129               	/* prologue: function */
 130               	/* frame size = 0 */
 131               	.LM20:
 132 005c E1EC      		ldi r30,lo8(193)
 133 005e F0E0      		ldi r31,hi8(193)
 134 0060 8081      		ld r24,Z
 135 0062 8068      		ori r24,lo8(-128)
 136 0064 8083      		st Z,r24
 137               	.LM21:
 138               	/* #APP */
 139               	 ;  86 "uart.c" 1
 140 0066 7894      		sei
 141               	 ;  0 "" 2
 142               	/* epilogue start */
 143               	.LM22:
 144               	/* #NOAPP */
 145 0068 0895      		ret
 146               	.LFE11:
 148               	.global	UART_Transmit_Byte
 150               	UART_Transmit_Byte:
 151               	.LFB12:
 152               	.LM23:
 153               	.LVL4:
 154               	/* prologue: function */
 155               	/* frame size = 0 */
 156 006a 982F      		mov r25,r24
 157               	.LVL5:
 158               	.L14:
 159               	.LM24:
 160 006c 8091 C000 		lds r24,192
 161 0070 85FF      		sbrs r24,5
 162 0072 00C0      		rjmp .L14
 163               	.LM25:
 164 0074 9093 C600 		sts 198,r25
 165               	/* epilogue start */
 166               	.LM26:
 167 0078 0895      		ret
 168               	.LFE12:
 170               	.global	UART_Receive_Byte
 172               	UART_Receive_Byte:
 173               	.LFB13:
 174               	.LM27:
 175 007a DF93      		push r29
 176 007c CF93      		push r28
 177 007e 0F92      		push __tmp_reg__
 178 0080 CDB7      		in r28,__SP_L__
 179 0082 DEB7      		in r29,__SP_H__
 180               	/* prologue: function */
 181               	/* frame size = 1 */
 182               	.LM28:
 183 0084 1982      		std Y+1,__zero_reg__
 184               	.LVL6:
 185               	.LM29:
 186 0086 8091 C000 		lds r24,192
 187 008a 84FF      		sbrs r24,4
 188 008c 00C0      		rjmp .L18
 189               	.LM30:
 190 008e 8091 C600 		lds r24,198
 191               	.LVL7:
 192 0092 8983      		std Y+1,r24
 193               	.LM31:
 194 0094 81E0      		ldi r24,lo8(1)
 195               	.LVL8:
 196 0096 00C0      		rjmp .L22
 197               	.L18:
 198               	.LM32:
 199 0098 8091 C000 		lds r24,192
 200 009c 83FF      		sbrs r24,3
 201 009e 00C0      		rjmp .L20
 202               	.LM33:
 203 00a0 8091 C600 		lds r24,198
 204               	.LVL9:
 205 00a4 8983      		std Y+1,r24
 206               	.LM34:
 207 00a6 82E0      		ldi r24,lo8(2)
 208               	.LVL10:
 209               	.L22:
 210 00a8 8093 0000 		sts UART,r24
 211 00ac 00C0      		rjmp .L19
 212               	.L20:
 213               	.LM35:
 214 00ae 8091 C600 		lds r24,198
 215               	.LVL11:
 216 00b2 8983      		std Y+1,r24
 217               	.LM36:
 218 00b4 1092 0000 		sts UART,__zero_reg__
 219               	.LVL12:
 220               	.L19:
 221               	.LM37:
 222 00b8 8981      		ldd r24,Y+1
 223               	/* epilogue start */
 224               	.LM38:
 225 00ba 0F90      		pop __tmp_reg__
 226 00bc CF91      		pop r28
 227 00be DF91      		pop r29
 228 00c0 0895      		ret
 229               	.LFE13:
 231               	.global	UART_Struct_Init
 233               	UART_Struct_Init:
 234               	.LFB15:
 235               	.LM39:
 236               	/* prologue: function */
 237               	/* frame size = 0 */
 238               	.LM40:
 239 00c2 1092 0000 		sts UART,__zero_reg__
 240 00c6 E0E0      		ldi r30,lo8(UART+1)
 241 00c8 F0E0      		ldi r31,hi8(UART+1)
 242               	.L24:
 243               	.LBB43:
 244               	.LM41:
 245 00ca 1192      		st Z+,__zero_reg__
 246               	.LM42:
 247 00cc 80E0      		ldi r24,hi8(UART+9)
 248 00ce E030      		cpi r30,lo8(UART+9)
 249 00d0 F807      		cpc r31,r24
 250 00d2 01F4      		brne .L24
 251               	.LBE43:
 252               	.LM43:
 253 00d4 1082      		st Z,__zero_reg__
 254               	.LM44:
 255 00d6 80E2      		ldi r24,lo8(32)
 256 00d8 90E0      		ldi r25,hi8(32)
 257 00da 92A3      		std Z+34,r25
 258 00dc 81A3      		std Z+33,r24
 259               	.LM45:
 260 00de 14A2      		std Z+36,__zero_reg__
 261 00e0 13A2      		std Z+35,__zero_reg__
 262 00e2 20E0      		ldi r18,lo8(0)
 263               	.LVL13:
 264 00e4 00C0      		rjmp .L25
 265               	.LVL14:
 266               	.L26:
 267               	.LBB44:
 268               	.LM46:
 269 00e6 E050      		subi r30,lo8(-(UART))
 270 00e8 F040      		sbci r31,hi8(-(UART))
 271               	.LVL15:
 272 00ea 1286      		std Z+10,__zero_reg__
 273               	.LM47:
 274 00ec 2F5F      		subi r18,lo8(-(1))
 275               	.LVL16:
 276               	.L25:
 277 00ee 8091 0000 		lds r24,UART+42
 278 00f2 9091 0000 		lds r25,(UART+42)+1
 279 00f6 E22F      		mov r30,r18
 280 00f8 F0E0      		ldi r31,lo8(0)
 281 00fa E817      		cp r30,r24
 282 00fc F907      		cpc r31,r25
 283 00fe 00F0      		brlo .L26
 284               	.LVL17:
 285               	.LBE44:
 286               	.LM48:
 287 0100 1092 0000 		sts (UART+46)+1,__zero_reg__
 288 0104 1092 0000 		sts UART+46,__zero_reg__
 289               	.LM49:
 290 0108 1092 0000 		sts (UART+48)+1,__zero_reg__
 291 010c 1092 0000 		sts UART+48,__zero_reg__
 292               	.LM50:
 293 0110 1092 0000 		sts UART+50,__zero_reg__
 294 0114 1092 0000 		sts (UART+50)+1,__zero_reg__
 295 0118 1092 0000 		sts (UART+50)+2,__zero_reg__
 296 011c 1092 0000 		sts (UART+50)+3,__zero_reg__
 297               	/* epilogue start */
 298               	.LM51:
 299 0120 0895      		ret
 300               	.LFE15:
 302               	.global	UART_Init
 304               	UART_Init:
 305               	.LFB16:
 306               	.LM52:
 307               	.LVL18:
 308               	/* prologue: function */
 309               	/* frame size = 0 */
 310               	.LM53:
 311 0122 0E94 0000 		call UART_Config_BAUD_Rate
 312               	.LVL19:
 313               	.LBB45:
 314               	.LBB46:
 315               	.LM54:
 316 0126 E1EC      		ldi r30,lo8(193)
 317 0128 F0E0      		ldi r31,hi8(193)
 318 012a 8081      		ld r24,Z
 319 012c 8860      		ori r24,lo8(8)
 320 012e 8083      		st Z,r24
 321               	.LM55:
 322 0130 A2EC      		ldi r26,lo8(194)
 323 0132 B0E0      		ldi r27,hi8(194)
 324 0134 96E0      		ldi r25,lo8(6)
 325 0136 9C93      		st X,r25
 326               	.LBE46:
 327               	.LBE45:
 328               	.LBB47:
 329               	.LBB48:
 330               	.LM56:
 331 0138 8081      		ld r24,Z
 332 013a 8061      		ori r24,lo8(16)
 333 013c 8083      		st Z,r24
 334               	.LM57:
 335 013e 9C93      		st X,r25
 336               	.LBE48:
 337               	.LBE47:
 338               	.LBB49:
 339               	.LBB50:
 340               	.LM58:
 341 0140 8081      		ld r24,Z
 342 0142 8068      		ori r24,lo8(-128)
 343 0144 8083      		st Z,r24
 344               	.LM59:
 345               	/* #APP */
 346               	 ;  86 "uart.c" 1
 347 0146 7894      		sei
 348               	 ;  0 "" 2
 349               	/* epilogue start */
 350               	/* #NOAPP */
 351               	.LBE50:
 352               	.LBE49:
 353               	.LM60:
 354 0148 0895      		ret
 355               	.LFE16:
 357               	.global	UART_Transmit_Byte_Hex
 359               	UART_Transmit_Byte_Hex:
 360               	.LFB17:
 361               	.LM61:
 362               	.LVL20:
 363 014a 1F93      		push r17
 364 014c CF93      		push r28
 365 014e DF93      		push r29
 366               	/* prologue: function */
 367               	/* frame size = 0 */
 368 0150 AB01      		movw r20,r22
 369 0152 BC01      		movw r22,r24
 370               	.LM62:
 371 0154 4F3F      		cpi r20,lo8(255)
 372 0156 5105      		cpc r21,__zero_reg__
 373 0158 6105      		cpc r22,__zero_reg__
 374 015a 7105      		cpc r23,__zero_reg__
 375 015c 01F0      		breq .+2
 376 015e 00F4      		brsh .L32
 377               	.LVL21:
 378 0160 E8E0      		ldi r30,lo8(8)
 379 0162 F0E0      		ldi r31,hi8(8)
 380               	.LVL22:
 381 0164 C2E0      		ldi r28,lo8(2)
 382 0166 D0E0      		ldi r29,hi8(2)
 383               	.LVL23:
 384 0168 00C0      		rjmp .L42
 385               	.LVL24:
 386               	.L32:
 387               	.LM63:
 388 016a 4030      		cpi r20,lo8(65536)
 389 016c 80E0      		ldi r24,hi8(65536)
 390 016e 5807      		cpc r21,r24
 391 0170 81E0      		ldi r24,hlo8(65536)
 392 0172 6807      		cpc r22,r24
 393 0174 80E0      		ldi r24,hhi8(65536)
 394 0176 7807      		cpc r23,r24
 395 0178 00F0      		brlo .L34
 396 017a E0E2      		ldi r30,lo8(32)
 397 017c F0E0      		ldi r31,hi8(32)
 398               	.LVL25:
 399 017e C8E0      		ldi r28,lo8(8)
 400 0180 D0E0      		ldi r29,hi8(8)
 401               	.LVL26:
 402 0182 00C0      		rjmp .L42
 403               	.LVL27:
 404               	.L34:
 405 0184 E0E1      		ldi r30,lo8(16)
 406 0186 F0E0      		ldi r31,hi8(16)
 407               	.LVL28:
 408 0188 C4E0      		ldi r28,lo8(4)
 409 018a D0E0      		ldi r29,hi8(4)
 410               	.LVL29:
 411               	.L42:
 412               	.LBB51:
 413               	.LBB52:
 414               	.LM64:
 415 018c 8091 C000 		lds r24,192
 416 0190 85FF      		sbrs r24,5
 417 0192 00C0      		rjmp .L42
 418               	.LM65:
 419 0194 80E3      		ldi r24,lo8(48)
 420 0196 8093 C600 		sts 198,r24
 421               	.L35:
 422               	.LBE52:
 423               	.LBE51:
 424               	.LBB53:
 425               	.LBB54:
 426               	.LM66:
 427 019a 8091 C000 		lds r24,192
 428 019e 85FF      		sbrs r24,5
 429 01a0 00C0      		rjmp .L35
 430               	.LM67:
 431 01a2 88E7      		ldi r24,lo8(120)
 432 01a4 8093 C600 		sts 198,r24
 433 01a8 10E0      		ldi r17,lo8(0)
 434               	.LVL30:
 435 01aa 00C0      		rjmp .L36
 436               	.LVL31:
 437               	.L39:
 438               	.LBE54:
 439               	.LBE53:
 440               	.LBB55:
 441               	.LM68:
 442 01ac 3497      		sbiw r30,4
 443               	.LM69:
 444 01ae DB01      		movw r26,r22
 445 01b0 CA01      		movw r24,r20
 446               	.LVL32:
 447 01b2 0E2E      		mov r0,r30
 448 01b4 00C0      		rjmp 2f
 449 01b6 B695      	1:	lsr r27
 450 01b8 A795      		ror r26
 451 01ba 9795      		ror r25
 452 01bc 8795      		ror r24
 453 01be 0A94      	2:	dec r0
 454 01c0 02F4      		brpl 1b
 455 01c2 90E0      		ldi r25,lo8(0)
 456               	.LVL33:
 457 01c4 8F70      		andi r24,lo8(15)
 458 01c6 9070      		andi r25,hi8(15)
 459               	.LVL34:
 460               	.LM70:
 461 01c8 8A30      		cpi r24,10
 462 01ca 9105      		cpc r25,__zero_reg__
 463 01cc 00F0      		brlo .L37
 464               	.LM71:
 465 01ce 9C01      		movw r18,r24
 466 01d0 295C      		subi r18,lo8(-(55))
 467 01d2 3F4F      		sbci r19,hi8(-(55))
 468               	.LVL35:
 469 01d4 00C0      		rjmp .L41
 470               	.LVL36:
 471               	.L37:
 472               	.LM72:
 473 01d6 9C01      		movw r18,r24
 474 01d8 205D      		subi r18,lo8(-(48))
 475 01da 3F4F      		sbci r19,hi8(-(48))
 476               	.LVL37:
 477               	.L41:
 478               	.LBB56:
 479               	.LBB57:
 480               	.LM73:
 481 01dc 8091 C000 		lds r24,192
 482 01e0 85FF      		sbrs r24,5
 483 01e2 00C0      		rjmp .L41
 484               	.LM74:
 485 01e4 2093 C600 		sts 198,r18
 486               	.LBE57:
 487               	.LBE56:
 488               	.LM75:
 489 01e8 1F5F      		subi r17,lo8(-(1))
 490               	.L36:
 491 01ea 812F      		mov r24,r17
 492 01ec 90E0      		ldi r25,lo8(0)
 493               	.LVL38:
 494 01ee 8C17      		cp r24,r28
 495 01f0 9D07      		cpc r25,r29
 496 01f2 00F0      		brlo .L39
 497               	.LVL39:
 498               	/* epilogue start */
 499               	.LBE55:
 500               	.LM76:
 501 01f4 DF91      		pop r29
 502 01f6 CF91      		pop r28
 503               	.LVL40:
 504 01f8 1F91      		pop r17
 505 01fa 0895      		ret
 506               	.LFE17:
 508               	.global	UART_Transmit_Byte_Bin
 510               	UART_Transmit_Byte_Bin:
 511               	.LFB18:
 512               	.LM77:
 513               	.LVL41:
 514 01fc CF92      		push r12
 515 01fe DF92      		push r13
 516 0200 EF92      		push r14
 517 0202 FF92      		push r15
 518 0204 0F93      		push r16
 519 0206 1F93      		push r17
 520 0208 CF93      		push r28
 521 020a DF93      		push r29
 522               	/* prologue: function */
 523               	/* frame size = 0 */
 524 020c AB01      		movw r20,r22
 525 020e BC01      		movw r22,r24
 526               	.LM78:
 527 0210 4F3F      		cpi r20,lo8(255)
 528 0212 5105      		cpc r21,__zero_reg__
 529 0214 6105      		cpc r22,__zero_reg__
 530 0216 7105      		cpc r23,__zero_reg__
 531 0218 01F0      		breq .+2
 532 021a 00F4      		brsh .L47
 533               	.LVL42:
 534 021c 97E0      		ldi r25,lo8(7)
 535               	.LVL43:
 536 021e 00C0      		rjmp .L58
 537               	.LVL44:
 538               	.L47:
 539               	.LM79:
 540 0220 4030      		cpi r20,lo8(65536)
 541 0222 80E0      		ldi r24,hi8(65536)
 542 0224 5807      		cpc r21,r24
 543 0226 81E0      		ldi r24,hlo8(65536)
 544 0228 6807      		cpc r22,r24
 545 022a 80E0      		ldi r24,hhi8(65536)
 546 022c 7807      		cpc r23,r24
 547 022e 00F0      		brlo .L49
 548 0230 9FE1      		ldi r25,lo8(31)
 549               	.LVL45:
 550 0232 00C0      		rjmp .L58
 551               	.LVL46:
 552               	.L49:
 553 0234 9FE0      		ldi r25,lo8(15)
 554               	.LVL47:
 555               	.L58:
 556               	.LBB58:
 557               	.LBB59:
 558               	.LM80:
 559 0236 8091 C000 		lds r24,192
 560 023a 85FF      		sbrs r24,5
 561 023c 00C0      		rjmp .L58
 562               	.LM81:
 563 023e 80E3      		ldi r24,lo8(48)
 564 0240 8093 C600 		sts 198,r24
 565               	.L50:
 566               	.LBE59:
 567               	.LBE58:
 568               	.LBB60:
 569               	.LBB61:
 570               	.LM82:
 571 0244 8091 C000 		lds r24,192
 572 0248 85FF      		sbrs r24,5
 573 024a 00C0      		rjmp .L50
 574               	.LM83:
 575 024c 82E6      		ldi r24,lo8(98)
 576 024e 8093 C600 		sts 198,r24
 577 0252 20E0      		ldi r18,lo8(0)
 578 0254 30E0      		ldi r19,hi8(0)
 579               	.LM84:
 580 0256 E92F      		mov r30,r25
 581 0258 F0E0      		ldi r31,lo8(0)
 582               	.LBE61:
 583               	.LBE60:
 584               	.LBB62:
 585               	.LBB63:
 586               	.LBB64:
 587               	.LM85:
 588 025a 00E3      		ldi r16,lo8(48)
 589               	.LBE64:
 590               	.LBE63:
 591               	.LBB66:
 592               	.LBB67:
 593 025c 11E3      		ldi r17,lo8(49)
 594               	.LBE67:
 595               	.LBE66:
 596               	.LM86:
 597 025e EF01      		movw r28,r30
 598 0260 2196      		adiw r28,1
 599               	.L54:
 600               	.LM87:
 601 0262 CF01      		movw r24,r30
 602 0264 821B      		sub r24,r18
 603 0266 930B      		sbc r25,r19
 604 0268 6A01      		movw r12,r20
 605 026a 7B01      		movw r14,r22
 606 026c 00C0      		rjmp 2f
 607 026e F694      	1:	lsr r15
 608 0270 E794      		ror r14
 609 0272 D794      		ror r13
 610 0274 C794      		ror r12
 611 0276 8A95      	2:	dec r24
 612 0278 02F4      		brpl 1b
 613 027a D701      		movw r26,r14
 614 027c C601      		movw r24,r12
 615 027e 8170      		andi r24,lo8(1)
 616 0280 9070      		andi r25,hi8(1)
 617 0282 892B      		or r24,r25
 618 0284 01F0      		breq .L57
 619               	.L56:
 620               	.LBB69:
 621               	.LBB68:
 622               	.LM88:
 623 0286 8091 C000 		lds r24,192
 624 028a 85FF      		sbrs r24,5
 625 028c 00C0      		rjmp .L56
 626               	.LM89:
 627 028e 1093 C600 		sts 198,r17
 628 0292 00C0      		rjmp .L53
 629               	.L57:
 630               	.LBE68:
 631               	.LBE69:
 632               	.LBB70:
 633               	.LBB65:
 634               	.LM90:
 635 0294 8091 C000 		lds r24,192
 636 0298 85FF      		sbrs r24,5
 637 029a 00C0      		rjmp .L57
 638               	.LM91:
 639 029c 0093 C600 		sts 198,r16
 640               	.L53:
 641 02a0 2F5F      		subi r18,lo8(-(1))
 642 02a2 3F4F      		sbci r19,hi8(-(1))
 643               	.LBE65:
 644               	.LBE70:
 645               	.LM92:
 646 02a4 2C17      		cp r18,r28
 647 02a6 3D07      		cpc r19,r29
 648 02a8 01F4      		brne .L54
 649               	/* epilogue start */
 650               	.LBE62:
 651               	.LM93:
 652 02aa DF91      		pop r29
 653 02ac CF91      		pop r28
 654 02ae 1F91      		pop r17
 655 02b0 0F91      		pop r16
 656 02b2 FF90      		pop r15
 657 02b4 EF90      		pop r14
 658 02b6 DF90      		pop r13
 659 02b8 CF90      		pop r12
 660 02ba 0895      		ret
 661               	.LFE18:
 663               	.global	UART_Transmit_Text
 665               	UART_Transmit_Text:
 666               	.LFB19:
 667               	.LM94:
 668               	.LVL48:
 669               	/* prologue: function */
 670               	/* frame size = 0 */
 671 02bc AC01      		movw r20,r24
 672               	.LM95:
 673 02be 20E0      		ldi r18,lo8(0)
 674               	.LVL49:
 675 02c0 00C0      		rjmp .L65
 676               	.LVL50:
 677               	.L68:
 678               	.LBB71:
 679               	.LBB72:
 680               	.LM96:
 681 02c2 8091 C000 		lds r24,192
 682 02c6 85FF      		sbrs r24,5
 683 02c8 00C0      		rjmp .L68
 684               	.LM97:
 685 02ca E093 C600 		sts 198,r30
 686               	.LBE72:
 687               	.LBE71:
 688               	.LM98:
 689 02ce 2F5F      		subi r18,lo8(-(1))
 690               	.LVL51:
 691               	.L65:
 692               	.LM99:
 693 02d0 FA01      		movw r30,r20
 694 02d2 E20F      		add r30,r18
 695 02d4 F11D      		adc r31,__zero_reg__
 696 02d6 E081      		ld r30,Z
 697 02d8 EE23      		tst r30
 698 02da 01F4      		brne .L68
 699               	/* epilogue start */
 700               	.LM100:
 701 02dc 0895      		ret
 702               	.LFE19:
 704               	.global	UART_Determine_Digit_Numbers
 706               	UART_Determine_Digit_Numbers:
 707               	.LFB20:
 708               	.LM101:
 709               	.LVL52:
 710 02de BF92      		push r11
 711 02e0 CF92      		push r12
 712 02e2 DF92      		push r13
 713 02e4 EF92      		push r14
 714 02e6 FF92      		push r15
 715 02e8 0F93      		push r16
 716 02ea 1F93      		push r17
 717               	/* prologue: function */
 718               	/* frame size = 0 */
 719 02ec 6B01      		movw r12,r22
 720 02ee 7C01      		movw r14,r24
 721               	.LM102:
 722 02f0 6115      		cp r22,__zero_reg__
 723 02f2 7105      		cpc r23,__zero_reg__
 724 02f4 8105      		cpc r24,__zero_reg__
 725 02f6 9105      		cpc r25,__zero_reg__
 726 02f8 01F4      		brne .L71
 727               	.LM103:
 728 02fa 1092 0000 		sts UART+1,__zero_reg__
 729               	.LM104:
 730 02fe 81E0      		ldi r24,lo8(1)
 731 0300 8093 0000 		sts UART+9,r24
 732 0304 00C0      		rjmp .L74
 733               	.L71:
 734 0306 BB24      		clr r11
 735               	.LVL53:
 736               	.L73:
 737               	.LM105:
 738 0308 0B2D      		mov r16,r11
 739 030a 10E0      		ldi r17,lo8(0)
 740               	.LVL54:
 741 030c 0050      		subi r16,lo8(-(UART))
 742 030e 1040      		sbci r17,hi8(-(UART))
 743               	.LVL55:
 744 0310 C701      		movw r24,r14
 745 0312 B601      		movw r22,r12
 746               	.LVL56:
 747 0314 2AE0      		ldi r18,lo8(10)
 748 0316 30E0      		ldi r19,hi8(10)
 749 0318 40E0      		ldi r20,hlo8(10)
 750 031a 50E0      		ldi r21,hhi8(10)
 751 031c 0E94 0000 		call __udivmodsi4
 752 0320 F801      		movw r30,r16
 753 0322 6183      		std Z+1,r22
 754               	.LM106:
 755 0324 C701      		movw r24,r14
 756 0326 B601      		movw r22,r12
 757 0328 2AE0      		ldi r18,lo8(10)
 758 032a 30E0      		ldi r19,hi8(10)
 759 032c 40E0      		ldi r20,hlo8(10)
 760 032e 50E0      		ldi r21,hhi8(10)
 761 0330 0E94 0000 		call __udivmodsi4
 762 0334 C901      		movw r24,r18
 763 0336 DA01      		movw r26,r20
 764 0338 6C01      		movw r12,r24
 765 033a 7D01      		movw r14,r26
 766               	.LM107:
 767 033c B394      		inc r11
 768               	.LVL57:
 769               	.LM108:
 770 033e C114      		cp r12,__zero_reg__
 771 0340 D104      		cpc r13,__zero_reg__
 772 0342 E104      		cpc r14,__zero_reg__
 773 0344 F104      		cpc r15,__zero_reg__
 774 0346 01F4      		brne .L73
 775               	.LM109:
 776 0348 B092 0000 		sts UART+9,r11
 777               	.LVL58:
 778               	.L74:
 779               	/* epilogue start */
 780               	.LM110:
 781 034c 1F91      		pop r17
 782               	.LVL59:
 783 034e 0F91      		pop r16
 784 0350 FF90      		pop r15
 785 0352 EF90      		pop r14
 786 0354 DF90      		pop r13
 787 0356 CF90      		pop r12
 788               	.LVL60:
 789 0358 BF90      		pop r11
 790               	.LVL61:
 791 035a 0895      		ret
 792               	.LFE20:
 794               	.global	UART_Transmit_Number_Digits
 796               	UART_Transmit_Number_Digits:
 797               	.LFB21:
 798               	.LM111:
 799               	/* prologue: function */
 800               	/* frame size = 0 */
 801               	.LBB73:
 802               	.LM112:
 803 035c E091 0000 		lds r30,UART+9
 804               	.LVL62:
 805 0360 00C0      		rjmp .L77
 806               	.LVL63:
 807               	.L79:
 808               	.LBB74:
 809               	.LM113:
 810 0362 2E2F      		mov r18,r30
 811 0364 2150      		subi r18,lo8(-(-1))
 812               	.LM114:
 813 0366 E22F      		mov r30,r18
 814               	.LVL64:
 815 0368 F0E0      		ldi r31,lo8(0)
 816 036a E050      		subi r30,lo8(-(UART))
 817 036c F040      		sbci r31,hi8(-(UART))
 818 036e 9181      		ldd r25,Z+1
 819               	.LVL65:
 820               	.L78:
 821               	.LBB75:
 822               	.LBB76:
 823               	.LM115:
 824 0370 8091 C000 		lds r24,192
 825 0374 85FF      		sbrs r24,5
 826 0376 00C0      		rjmp .L78
 827               	.LBE76:
 828               	.LBE75:
 829               	.LM116:
 830 0378 905D      		subi r25,lo8(-(48))
 831               	.LBB78:
 832               	.LBB77:
 833               	.LM117:
 834 037a 9093 C600 		sts 198,r25
 835 037e E22F      		mov r30,r18
 836               	.LVL66:
 837               	.L77:
 838               	.LBE77:
 839               	.LBE78:
 840               	.LBE74:
 841               	.LM118:
 842 0380 EE23      		tst r30
 843 0382 01F4      		brne .L79
 844               	/* epilogue start */
 845               	.LBE73:
 846               	.LM119:
 847 0384 0895      		ret
 848               	.LFE21:
 850               	.global	UART_Transmit_Number
 852               	UART_Transmit_Number:
 853               	.LFB22:
 854               	.LM120:
 855               	.LVL67:
 856               	/* prologue: function */
 857               	/* frame size = 0 */
 858 0386 9B01      		movw r18,r22
 859 0388 AC01      		movw r20,r24
 860               	.LM121:
 861 038a 97FF      		sbrs r25,7
 862 038c 00C0      		rjmp .L83
 863               	.L86:
 864               	.LBB79:
 865               	.LBB80:
 866               	.LM122:
 867 038e 8091 C000 		lds r24,192
 868 0392 85FF      		sbrs r24,5
 869 0394 00C0      		rjmp .L86
 870               	.LM123:
 871 0396 8DE2      		ldi r24,lo8(45)
 872 0398 8093 C600 		sts 198,r24
 873               	.LBE80:
 874               	.LBE79:
 875               	.LM124:
 876 039c 5095      		com r21
 877 039e 4095      		com r20
 878 03a0 3095      		com r19
 879 03a2 2195      		neg r18
 880 03a4 3F4F      		sbci r19,lo8(-1)
 881 03a6 4F4F      		sbci r20,lo8(-1)
 882 03a8 5F4F      		sbci r21,lo8(-1)
 883               	.LVL68:
 884               	.L83:
 885               	.LM125:
 886 03aa CA01      		movw r24,r20
 887 03ac B901      		movw r22,r18
 888 03ae 0E94 0000 		call UART_Determine_Digit_Numbers
 889               	.LVL69:
 890               	.LM126:
 891 03b2 0E94 0000 		call UART_Transmit_Number_Digits
 892               	/* epilogue start */
 893               	.LM127:
 894 03b6 0895      		ret
 895               	.LFE22:
 897               	.global	UART_Transmit_Fixed_Digit_Number
 899               	UART_Transmit_Fixed_Digit_Number:
 900               	.LFB23:
 901               	.LM128:
 902               	.LVL70:
 903 03b8 FF92      		push r15
 904 03ba 0F93      		push r16
 905 03bc 1F93      		push r17
 906               	/* prologue: function */
 907               	/* frame size = 0 */
 908 03be 8B01      		movw r16,r22
 909 03c0 9C01      		movw r18,r24
 910 03c2 F42E      		mov r15,r20
 911               	.LM129:
 912 03c4 97FF      		sbrs r25,7
 913 03c6 00C0      		rjmp .L89
 914               	.LVL71:
 915               	.L95:
 916               	.LBB81:
 917               	.LBB82:
 918               	.LM130:
 919 03c8 8091 C000 		lds r24,192
 920 03cc 85FF      		sbrs r24,5
 921 03ce 00C0      		rjmp .L95
 922               	.LM131:
 923 03d0 8DE2      		ldi r24,lo8(45)
 924 03d2 8093 C600 		sts 198,r24
 925               	.LBE82:
 926               	.LBE81:
 927               	.LM132:
 928 03d6 3095      		com r19
 929 03d8 2095      		com r18
 930 03da 1095      		com r17
 931 03dc 0195      		neg r16
 932 03de 1F4F      		sbci r17,lo8(-1)
 933 03e0 2F4F      		sbci r18,lo8(-1)
 934 03e2 3F4F      		sbci r19,lo8(-1)
 935               	.LVL72:
 936               	.L89:
 937               	.LM133:
 938 03e4 C901      		movw r24,r18
 939 03e6 B801      		movw r22,r16
 940 03e8 0E94 0000 		call UART_Determine_Digit_Numbers
 941               	.LBB83:
 942               	.LM134:
 943 03ec 4F2D      		mov r20,r15
 944 03ee 50E0      		ldi r21,lo8(0)
 945 03f0 8091 0000 		lds r24,UART+9
 946 03f4 481B      		sub r20,r24
 947 03f6 5109      		sbc r21,__zero_reg__
 948 03f8 20E0      		ldi r18,lo8(0)
 949 03fa 30E0      		ldi r19,hi8(0)
 950               	.LVL73:
 951               	.LBB84:
 952               	.LBB85:
 953               	.LM135:
 954 03fc 90E3      		ldi r25,lo8(48)
 955 03fe 00C0      		rjmp .L91
 956               	.L94:
 957               	.LM136:
 958 0400 8091 C000 		lds r24,192
 959 0404 85FF      		sbrs r24,5
 960 0406 00C0      		rjmp .L94
 961               	.LM137:
 962 0408 9093 C600 		sts 198,r25
 963               	.LBE85:
 964               	.LBE84:
 965               	.LM138:
 966 040c 2F5F      		subi r18,lo8(-(1))
 967 040e 3F4F      		sbci r19,hi8(-(1))
 968               	.L91:
 969 0410 2417      		cp r18,r20
 970 0412 3507      		cpc r19,r21
 971 0414 04F0      		brlt .L94
 972               	.LBE83:
 973               	.LM139:
 974 0416 0E94 0000 		call UART_Transmit_Number_Digits
 975               	.LVL74:
 976               	/* epilogue start */
 977               	.LM140:
 978 041a 1F91      		pop r17
 979 041c 0F91      		pop r16
 980               	.LVL75:
 981 041e FF90      		pop r15
 982               	.LVL76:
 983 0420 0895      		ret
 984               	.LFE23:
 986               		.data
 987               	.LC0:
 988 0000 2020 00   		.string	"  "
 989               		.text
 990               	.global	UART_Print_Debug_Data
 992               	UART_Print_Debug_Data:
 993               	.LFB24:
 994               	.LM141:
 995               	.LVL77:
 996 0422 EF92      		push r14
 997 0424 FF92      		push r15
 998 0426 0F93      		push r16
 999 0428 1F93      		push r17
 1000 042a CF93      		push r28
 1001 042c DF93      		push r29
 1002               	/* prologue: function */
 1003               	/* frame size = 0 */
 1004 042e 7C01      		movw r14,r24
 1005               	.LM142:
 1006 0430 8C01      		movw r16,r24
 1007 0432 C1E0      		ldi r28,lo8(1)
 1008 0434 D0E0      		ldi r29,hi8(1)
 1009               	.LVL78:
 1010 0436 00C0      		rjmp .L99
 1011               	.LVL79:
 1012               	.L100:
 1013               	.LBB86:
 1014               	.LM143:
 1015 0438 F801      		movw r30,r16
 1016 043a 6081      		ld r22,Z
 1017 043c 7181      		ldd r23,Z+1
 1018 043e 8827      		clr r24
 1019 0440 77FD      		sbrc r23,7
 1020 0442 8095      		com r24
 1021 0444 982F      		mov r25,r24
 1022 0446 44E0      		ldi r20,lo8(4)
 1023 0448 0E94 0000 		call UART_Transmit_Fixed_Digit_Number
 1024               	.LM144:
 1025 044c 80E0      		ldi r24,lo8(.LC0)
 1026 044e 90E0      		ldi r25,hi8(.LC0)
 1027 0450 0E94 0000 		call UART_Transmit_Text
 1028               	.LM145:
 1029 0454 2196      		adiw r28,1
 1030               	.LVL80:
 1031               	.L99:
 1032 0456 0E5F      		subi r16,lo8(-(2))
 1033 0458 1F4F      		sbci r17,hi8(-(2))
 1034 045a F701      		movw r30,r14
 1035 045c 8081      		ld r24,Z
 1036 045e 9181      		ldd r25,Z+1
 1037 0460 8C17      		cp r24,r28
 1038 0462 9D07      		cpc r25,r29
 1039 0464 04F4      		brge .L100
 1040               	/* epilogue start */
 1041               	.LBE86:
 1042               	.LM146:
 1043 0466 DF91      		pop r29
 1044 0468 CF91      		pop r28
 1045               	.LVL81:
 1046 046a 1F91      		pop r17
 1047 046c 0F91      		pop r16
 1048 046e FF90      		pop r15
 1049 0470 EF90      		pop r14
 1050               	.LVL82:
 1051 0472 0895      		ret
 1052               	.LFE24:
 1054               	.global	UART_Read_From_Buffer
 1056               	UART_Read_From_Buffer:
 1057               	.LFB25:
 1058               	.LM147:
 1059               	.LVL83:
 1060               	/* prologue: function */
 1061               	/* frame size = 0 */
 1062               	.LM148:
 1063 0474 FC01      		movw r30,r24
 1064 0476 E050      		subi r30,lo8(-(UART))
 1065 0478 F040      		sbci r31,hi8(-(UART))
 1066 047a 8285      		ldd r24,Z+10
 1067               	.LVL84:
 1068               	/* epilogue start */
 1069               	.LM149:
 1070 047c 0895      		ret
 1071               	.LFE25:
 1073               	.global	UART_Current_Buffer_Index
 1075               	UART_Current_Buffer_Index:
 1076               	.LFB26:
 1077               	.LM150:
 1078               	/* prologue: function */
 1079               	/* frame size = 0 */
 1080               	.LM151:
 1081 047e 2091 0000 		lds r18,UART+44
 1082 0482 3091 0000 		lds r19,(UART+44)+1
 1083               	.LM152:
 1084 0486 C901      		movw r24,r18
 1085               	/* epilogue start */
 1086 0488 0895      		ret
 1087               	.LFE26:
 1089               	.global	UART_Current_Read_Index
 1091               	UART_Current_Read_Index:
 1092               	.LFB27:
 1093               	.LM153:
 1094               	/* prologue: function */
 1095               	/* frame size = 0 */
 1096               	.LM154:
 1097 048a 2091 0000 		lds r18,UART+48
 1098 048e 3091 0000 		lds r19,(UART+48)+1
 1099               	.LM155:
 1100 0492 C901      		movw r24,r18
 1101               	/* epilogue start */
 1102 0494 0895      		ret
 1103               	.LFE27:
 1105               	.global	UART_Bytes_Available_To_Read
 1107               	UART_Bytes_Available_To_Read:
 1108               	.LFB28:
 1109               	.LM156:
 1110               	/* prologue: function */
 1111               	/* frame size = 0 */
 1112               	.LM157:
 1113 0496 2091 0000 		lds r18,UART+46
 1114 049a 3091 0000 		lds r19,(UART+46)+1
 1115               	.LM158:
 1116 049e C901      		movw r24,r18
 1117               	/* epilogue start */
 1118 04a0 0895      		ret
 1119               	.LFE28:
 1121               	.global	UART_Read
 1123               	UART_Read:
 1124               	.LFB29:
 1125               	.LM159:
 1126               	/* prologue: function */
 1127               	/* frame size = 0 */
 1128               	.LM160:
 1129 04a2 E091 0000 		lds r30,UART+48
 1130 04a6 F091 0000 		lds r31,(UART+48)+1
 1131 04aa E050      		subi r30,lo8(-(UART))
 1132 04ac F040      		sbci r31,hi8(-(UART))
 1133 04ae 4285      		ldd r20,Z+10
 1134               	.LVL85:
 1135               	.LM161:
 1136 04b0 8091 0000 		lds r24,UART+48
 1137 04b4 9091 0000 		lds r25,(UART+48)+1
 1138 04b8 0196      		adiw r24,1
 1139 04ba 9093 0000 		sts (UART+48)+1,r25
 1140 04be 8093 0000 		sts UART+48,r24
 1141               	.LM162:
 1142 04c2 2091 0000 		lds r18,UART+48
 1143 04c6 3091 0000 		lds r19,(UART+48)+1
 1144 04ca 8091 0000 		lds r24,UART+42
 1145 04ce 9091 0000 		lds r25,(UART+42)+1
 1146 04d2 2817      		cp r18,r24
 1147 04d4 3907      		cpc r19,r25
 1148 04d6 00F0      		brlo .L111
 1149               	.LM163:
 1150 04d8 1092 0000 		sts (UART+48)+1,__zero_reg__
 1151 04dc 1092 0000 		sts UART+48,__zero_reg__
 1152               	.L111:
 1153               	.LM164:
 1154 04e0 8091 0000 		lds r24,UART+46
 1155 04e4 9091 0000 		lds r25,(UART+46)+1
 1156 04e8 892B      		or r24,r25
 1157 04ea 01F0      		breq .L112
 1158               	.LM165:
 1159 04ec 8091 0000 		lds r24,UART+46
 1160 04f0 9091 0000 		lds r25,(UART+46)+1
 1161 04f4 0197      		sbiw r24,1
 1162 04f6 9093 0000 		sts (UART+46)+1,r25
 1163 04fa 8093 0000 		sts UART+46,r24
 1164               	.L112:
 1165               	.LM166:
 1166 04fe 842F      		mov r24,r20
 1167               	/* epilogue start */
 1168 0500 0895      		ret
 1169               	.LFE29:
 1171               	.global	UART_Flush_Buffer
 1173               	UART_Flush_Buffer:
 1174               	.LFB30:
 1175               	.LM167:
 1176               	/* prologue: function */
 1177               	/* frame size = 0 */
 1178               	.LM168:
 1179 0502 1092 0000 		sts UART,__zero_reg__
 1180 0506 20E0      		ldi r18,lo8(0)
 1181 0508 30E0      		ldi r19,hi8(0)
 1182               	.LVL86:
 1183 050a 00C0      		rjmp .L115
 1184               	.L116:
 1185               	.LBB87:
 1186               	.LM169:
 1187 050c F901      		movw r30,r18
 1188 050e E050      		subi r30,lo8(-(UART))
 1189 0510 F040      		sbci r31,hi8(-(UART))
 1190 0512 1286      		std Z+10,__zero_reg__
 1191               	.LM170:
 1192 0514 2F5F      		subi r18,lo8(-(1))
 1193 0516 3F4F      		sbci r19,hi8(-(1))
 1194               	.L115:
 1195 0518 8091 0000 		lds r24,UART+42
 1196 051c 9091 0000 		lds r25,(UART+42)+1
 1197 0520 2817      		cp r18,r24
 1198 0522 3907      		cpc r19,r25
 1199 0524 00F0      		brlo .L116
 1200               	.LBE87:
 1201               	.LM171:
 1202 0526 1092 0000 		sts (UART+44)+1,__zero_reg__
 1203 052a 1092 0000 		sts UART+44,__zero_reg__
 1204               	.LM172:
 1205 052e 1092 0000 		sts (UART+48)+1,__zero_reg__
 1206 0532 1092 0000 		sts UART+48,__zero_reg__
 1207               	.LM173:
 1208 0536 1092 0000 		sts (UART+46)+1,__zero_reg__
 1209 053a 1092 0000 		sts UART+46,__zero_reg__
 1210               	/* epilogue start */
 1211               	.LM174:
 1212 053e 0895      		ret
 1213               	.LFE30:
 1215               	.global	UART_Last_Byte_Recevied_Time_Stamp
 1217               	UART_Last_Byte_Recevied_Time_Stamp:
 1218               	.LFB31:
 1219               	.LM175:
 1220               	/* prologue: function */
 1221               	/* frame size = 0 */
 1222               	.LM176:
 1223 0540 2091 0000 		lds r18,UART+50
 1224 0544 3091 0000 		lds r19,(UART+50)+1
 1225 0548 4091 0000 		lds r20,(UART+50)+2
 1226 054c 5091 0000 		lds r21,(UART+50)+3
 1227               	.LM177:
 1228 0550 B901      		movw r22,r18
 1229 0552 CA01      		movw r24,r20
 1230               	/* epilogue start */
 1231 0554 0895      		ret
 1232               	.LFE31:
 1234               	.global	UART_Reference_Time
 1236               	UART_Reference_Time:
 1237               	.LFB14:
 1238               	.LM178:
 1239               	/* prologue: function */
 1240               	/* frame size = 0 */
 1241               	.LM179:
 1242 0556 0E94 0000 		call Timebase_Timer_Get_SubSeconds
 1243               	/* epilogue start */
 1244               	.LM180:
 1245 055a 0895      		ret
 1246               	.LFE14:
 1248               	.global	UART_Interrupt_Service_Routine
 1250               	UART_Interrupt_Service_Routine:
 1251               	.LFB32:
 1252               	.LM181:
 1253 055c DF93      		push r29
 1254 055e CF93      		push r28
 1255 0560 0F92      		push __tmp_reg__
 1256 0562 CDB7      		in r28,__SP_L__
 1257 0564 DEB7      		in r29,__SP_H__
 1258               	/* prologue: function */
 1259               	/* frame size = 1 */
 1260               	.LM182:
 1261 0566 1982      		std Y+1,__zero_reg__
 1262               	.LVL87:
 1263               	.LM183:
 1264 0568 0E94 0000 		call UART_Receive_Byte
 1265 056c 8983      		std Y+1,r24
 1266               	.LM184:
 1267 056e 8091 0000 		lds r24,UART
 1268 0572 8823      		tst r24
 1269 0574 01F0      		breq .+2
 1270 0576 00C0      		rjmp .L126
 1271               	.LM185:
 1272 0578 E091 0000 		lds r30,UART+44
 1273 057c F091 0000 		lds r31,(UART+44)+1
 1274 0580 8981      		ldd r24,Y+1
 1275 0582 E050      		subi r30,lo8(-(UART))
 1276 0584 F040      		sbci r31,hi8(-(UART))
 1277 0586 8287      		std Z+10,r24
 1278               	.LM186:
 1279 0588 8091 0000 		lds r24,UART+44
 1280 058c 9091 0000 		lds r25,(UART+44)+1
 1281 0590 0196      		adiw r24,1
 1282 0592 9093 0000 		sts (UART+44)+1,r25
 1283 0596 8093 0000 		sts UART+44,r24
 1284               	.LM187:
 1285 059a 8091 0000 		lds r24,UART+46
 1286 059e 9091 0000 		lds r25,(UART+46)+1
 1287 05a2 0196      		adiw r24,1
 1288 05a4 9093 0000 		sts (UART+46)+1,r25
 1289 05a8 8093 0000 		sts UART+46,r24
 1290               	.LM188:
 1291 05ac 2091 0000 		lds r18,UART+46
 1292 05b0 3091 0000 		lds r19,(UART+46)+1
 1293 05b4 8091 0000 		lds r24,UART+42
 1294 05b8 9091 0000 		lds r25,(UART+42)+1
 1295 05bc 8217      		cp r24,r18
 1296 05be 9307      		cpc r25,r19
 1297 05c0 00F4      		brsh .L124
 1298               	.LM189:
 1299 05c2 8091 0000 		lds r24,UART+42
 1300 05c6 9091 0000 		lds r25,(UART+42)+1
 1301 05ca 9093 0000 		sts (UART+46)+1,r25
 1302 05ce 8093 0000 		sts UART+46,r24
 1303               	.LM190:
 1304 05d2 8091 0000 		lds r24,UART+48
 1305 05d6 9091 0000 		lds r25,(UART+48)+1
 1306 05da 0196      		adiw r24,1
 1307 05dc 9093 0000 		sts (UART+48)+1,r25
 1308 05e0 8093 0000 		sts UART+48,r24
 1309               	.LM191:
 1310 05e4 2091 0000 		lds r18,UART+48
 1311 05e8 3091 0000 		lds r19,(UART+48)+1
 1312 05ec 8091 0000 		lds r24,UART+42
 1313 05f0 9091 0000 		lds r25,(UART+42)+1
 1314 05f4 2817      		cp r18,r24
 1315 05f6 3907      		cpc r19,r25
 1316 05f8 00F0      		brlo .L124
 1317               	.LM192:
 1318 05fa 1092 0000 		sts (UART+48)+1,__zero_reg__
 1319 05fe 1092 0000 		sts UART+48,__zero_reg__
 1320               	.L124:
 1321               	.LM193:
 1322 0602 2091 0000 		lds r18,UART+44
 1323 0606 3091 0000 		lds r19,(UART+44)+1
 1324 060a 8091 0000 		lds r24,UART+42
 1325 060e 9091 0000 		lds r25,(UART+42)+1
 1326 0612 2817      		cp r18,r24
 1327 0614 3907      		cpc r19,r25
 1328 0616 00F0      		brlo .L125
 1329               	.LM194:
 1330 0618 1092 0000 		sts (UART+44)+1,__zero_reg__
 1331 061c 1092 0000 		sts UART+44,__zero_reg__
 1332               	.L125:
 1333               	.LBB88:
 1334               	.LM195:
 1335 0620 0E94 0000 		call Timebase_Timer_Get_SubSeconds
 1336               	.LBE88:
 1337               	.LM196:
 1338 0624 6093 0000 		sts UART+50,r22
 1339 0628 7093 0000 		sts (UART+50)+1,r23
 1340 062c 8093 0000 		sts (UART+50)+2,r24
 1341 0630 9093 0000 		sts (UART+50)+3,r25
 1342               	.L126:
 1343               	/* epilogue start */
 1344               	.LM197:
 1345 0634 0F90      		pop __tmp_reg__
 1346 0636 CF91      		pop r28
 1347 0638 DF91      		pop r29
 1348 063a 0895      		ret
 1349               	.LFE32:
 1351               	.global	__vector_18
 1353               	__vector_18:
 1354               	.LFB33:
 1355               	.LM198:
 1356 063c 1F92      		push __zero_reg__
 1357 063e 0F92      		push r0
 1358 0640 0FB6      		in r0,__SREG__
 1359 0642 0F92      		push r0
 1360 0644 1124      		clr __zero_reg__
 1361 0646 2F93      		push r18
 1362 0648 3F93      		push r19
 1363 064a 4F93      		push r20
 1364 064c 5F93      		push r21
 1365 064e 6F93      		push r22
 1366 0650 7F93      		push r23
 1367 0652 8F93      		push r24
 1368 0654 9F93      		push r25
 1369 0656 AF93      		push r26
 1370 0658 BF93      		push r27
 1371 065a EF93      		push r30
 1372 065c FF93      		push r31
 1373               	/* prologue: Signal */
 1374               	/* frame size = 0 */
 1375               	.LM199:
 1376 065e 0E94 0000 		call UART_Interrupt_Service_Routine
 1377               	/* epilogue start */
 1378               	.LM200:
 1379 0662 FF91      		pop r31
 1380 0664 EF91      		pop r30
 1381 0666 BF91      		pop r27
 1382 0668 AF91      		pop r26
 1383 066a 9F91      		pop r25
 1384 066c 8F91      		pop r24
 1385 066e 7F91      		pop r23
 1386 0670 6F91      		pop r22
 1387 0672 5F91      		pop r21
 1388 0674 4F91      		pop r20
 1389 0676 3F91      		pop r19
 1390 0678 2F91      		pop r18
 1391 067a 0F90      		pop r0
 1392 067c 0FBE      		out __SREG__,r0
 1393 067e 0F90      		pop r0
 1394 0680 1F90      		pop __zero_reg__
 1395 0682 1895      		reti
 1396               	.LFE33:
 1398               		.lcomm UART,54
 1639               	.Letext0:
DEFINED SYMBOLS
                            *ABS*:00000000 uart.c
C:\Users\farid\AppData\Local\Temp/cclFx5Ej.s:2      *ABS*:0000003f __SREG__
C:\Users\farid\AppData\Local\Temp/cclFx5Ej.s:3      *ABS*:0000003e __SP_H__
C:\Users\farid\AppData\Local\Temp/cclFx5Ej.s:4      *ABS*:0000003d __SP_L__
C:\Users\farid\AppData\Local\Temp/cclFx5Ej.s:5      *ABS*:00000034 __CCP__
C:\Users\farid\AppData\Local\Temp/cclFx5Ej.s:6      *ABS*:00000000 __tmp_reg__
C:\Users\farid\AppData\Local\Temp/cclFx5Ej.s:7      *ABS*:00000001 __zero_reg__
C:\Users\farid\AppData\Local\Temp/cclFx5Ej.s:18     .text:00000000 UART_Config_GPIO
C:\Users\farid\AppData\Local\Temp/cclFx5Ej.s:30     .text:00000002 UART_Config_Clock
C:\Users\farid\AppData\Local\Temp/cclFx5Ej.s:42     .text:00000004 UART_Config_BAUD_Rate
C:\Users\farid\AppData\Local\Temp/cclFx5Ej.s:84     .text:00000038 UART_Config_Transmitter
C:\Users\farid\AppData\Local\Temp/cclFx5Ej.s:105    .text:0000004a UART_Config_Receiver
C:\Users\farid\AppData\Local\Temp/cclFx5Ej.s:126    .text:0000005c UART_Config_Receiver_Interrupt
C:\Users\farid\AppData\Local\Temp/cclFx5Ej.s:150    .text:0000006a UART_Transmit_Byte
C:\Users\farid\AppData\Local\Temp/cclFx5Ej.s:172    .text:0000007a UART_Receive_Byte
                             .bss:00000000 UART
C:\Users\farid\AppData\Local\Temp/cclFx5Ej.s:233    .text:000000c2 UART_Struct_Init
C:\Users\farid\AppData\Local\Temp/cclFx5Ej.s:304    .text:00000122 UART_Init
C:\Users\farid\AppData\Local\Temp/cclFx5Ej.s:359    .text:0000014a UART_Transmit_Byte_Hex
C:\Users\farid\AppData\Local\Temp/cclFx5Ej.s:510    .text:000001fc UART_Transmit_Byte_Bin
C:\Users\farid\AppData\Local\Temp/cclFx5Ej.s:665    .text:000002bc UART_Transmit_Text
C:\Users\farid\AppData\Local\Temp/cclFx5Ej.s:706    .text:000002de UART_Determine_Digit_Numbers
C:\Users\farid\AppData\Local\Temp/cclFx5Ej.s:796    .text:0000035c UART_Transmit_Number_Digits
C:\Users\farid\AppData\Local\Temp/cclFx5Ej.s:852    .text:00000386 UART_Transmit_Number
C:\Users\farid\AppData\Local\Temp/cclFx5Ej.s:899    .text:000003b8 UART_Transmit_Fixed_Digit_Number
C:\Users\farid\AppData\Local\Temp/cclFx5Ej.s:992    .text:00000422 UART_Print_Debug_Data
C:\Users\farid\AppData\Local\Temp/cclFx5Ej.s:1056   .text:00000474 UART_Read_From_Buffer
C:\Users\farid\AppData\Local\Temp/cclFx5Ej.s:1075   .text:0000047e UART_Current_Buffer_Index
C:\Users\farid\AppData\Local\Temp/cclFx5Ej.s:1091   .text:0000048a UART_Current_Read_Index
C:\Users\farid\AppData\Local\Temp/cclFx5Ej.s:1107   .text:00000496 UART_Bytes_Available_To_Read
C:\Users\farid\AppData\Local\Temp/cclFx5Ej.s:1123   .text:000004a2 UART_Read
C:\Users\farid\AppData\Local\Temp/cclFx5Ej.s:1173   .text:00000502 UART_Flush_Buffer
C:\Users\farid\AppData\Local\Temp/cclFx5Ej.s:1217   .text:00000540 UART_Last_Byte_Recevied_Time_Stamp
C:\Users\farid\AppData\Local\Temp/cclFx5Ej.s:1236   .text:00000556 UART_Reference_Time
C:\Users\farid\AppData\Local\Temp/cclFx5Ej.s:1250   .text:0000055c UART_Interrupt_Service_Routine
C:\Users\farid\AppData\Local\Temp/cclFx5Ej.s:1353   .text:0000063c __vector_18

UNDEFINED SYMBOLS
__udivmodsi4
Timebase_Timer_Get_SubSeconds
__do_copy_data
__do_clear_bss
